
Build/lib/pisplit_ecnr_inear_position_independent.splitload.lib:     file format elf32-xtensa-le


Disassembly of section .text:

00000000 <_init-0x4b0>:
       0:	00000504 00008800 0000e770 0000ab44     ........p...D...
      10:	00000000 0000ab2c 00000000 0000e774     ....,.......t...
      20:	0000cd0c 00008628 00008e28 00008838     ....(...(...8...
      30:	0000e798 00000520 0000ce00 0000e78c     .... ...........
      40:	00000544 00001000 0000ca78 0000ac30     D.......x...0...
      50:	7fffffff 0000aca0 80000000 00007fff     ................
      60:	ffff7fff ffff8000 000096d0 00009740     ............@...
      70:	00010000 00001922 00008000 00000b1f     ...."...........
      80:	00004000 00006488 ffffb49b ffffc000     .@...d..........
      90:	00002688 000241f8 00009770 ffff0000     .&...A..p.......
      a0:	00002c5d 00029973 00009780 7fffff00     ],..s...........
      b0:	0000e460 00000e5c 00000b38 00000df0     `...\...8.......
      c0:	00000ccd 00000b00 000049af 00000ffc     .........I......
      d0:	00008820 ffffb800 0000e4e0 00006a4d      ...........Mj..
      e0:	ffff8400 00000e39 0000e520 0000e500     ....9... .......
      f0:	0015cc64 007af1aa 0000b4c0 00004d38     d.....z.....8M..
     100:	00004e20 00800000 0000887c 00008894      N......|.......
     110:	00000f4c 00000d80 00001074 01000000     L.......t.......
     120:	0019999a 00002af0 00000ad4 fffe7961     .....*......ay..
     130:	0000e540 ffffcb05 6a4d3c26 c0000000     @.......&<Mj....
     140:	00200000 0000e6b0 00a3d70a 00002000     .. .......... ..
     150:	00001fff 02800000 0000098c 0000e740     ............@...
     160:	0000bb75 0000321c 00009298 00001928     u....2......(...
     170:	00001d6c 00002674 000030b8 000033a4     l...t&...0...3..
     180:	00001f5c 0000142c 00001348 000035c0     \...,...H....5..
     190:	13333333 000038c4 00000800 00001940     333..8......@...
     1a0:	00003948 00001a70 00001494 000026ac     H9..p........&..
     1b0:	000033cc 000050a0 00005068 000030d8     .3...P..hP...0..
     1c0:	000035d4 0000204c 00000fa4 00006436     .5..L ......6d..
     1d0:	00003ce0 00001d84 00001378 00002e08     .<......x.......
     1e0:	00002b18 00002cf0 0000e794 0000978c     .+...,..........
     1f0:	00005ca8 000097a0 00005cb0 000097bc     .\.......\......
     200:	00005db0 000097dc 000065c0 000097fc     .].......e......
     210:	00006dac 00009818 000072b8 0000982c     .m.......r..,...
     220:	00006cf0 00009844 00007038 00009858     .l..D...8p..X...
     230:	00006d4c 00009870 00006dec 00009890     Lm..p....m......
     240:	00006e08 000098ac 000009f8 000098bc     .n..............
     250:	00005cb8 000098d8 00006e00 000098fc     .\.......n......
     260:	00006e10 0000991c 00006e18 0000993c     .n.......n..<...
     270:	00005d98 0000ab50 00009960 00008740     .]..P...`...@...
     280:	00009d60 0000a160 0000cd10 00005290     `...`........R..
     290:	00005230 0000526c 0000ff00 00006666     0R..lR......ff..
     2a0:	000cd080 00005248 0000a560 002aaa00     ....HR..`.....*.
     2b0:	0000aba0 0000aba4 00080000 00007f40     ............@...
     2c0:	00007e38 00005318 00005374 0000abb8     8~...S..tS......
     2d0:	000054ac 000055b8 00005540 000053f8     .T...U..@U...S..
     2e0:	00000a14 0000cf30 0000ce04 00003d44     ....0.......D=..
     2f0:	000005b8 00005d20 00005ccc 00005ce0     .... ]...\...\..
     300:	0000ce10 00004ebc 000070c4 00005cf4     .....N...p...\..
     310:	0000e79c 00003d74 0000cf14 00005d74     ....t=......t]..
     320:	0000adbc 0000adb0 0000abd0 0000adcc     ................
     330:	0000ae0c 0000ae50 0000add0 007fffff     ....P...........
     340:	00011111 00000a78 00004d10 0000ce08     ....x....M......
     350:	000064f0 00005f74 00006cdc 00006284     .d..t_...l...b..
     360:	000060d0 00005ff0 00006150 000062e8     .`..._..Pa...b..
     370:	00005630 000058d0 00006304 000061fc     0V...X...c...a..
     380:	00006060 000063c0 00005b94 00005c1c     ``...c...[...\..
     390:	00005bd8 00005c60 00003fd8 7fff0000     .[..`\...?......
     3a0:	0000cf12 0000644c 000063e0 00006114     ....Ld...c...a..
     3b0:	000072f4 0000ceb8 00007078 00007f80     .r......xp......
     3c0:	00000918 00006e84 00006e48 00006e74     .....n..Hn..tn..
     3d0:	0000b190 0000cdf0 0000cef0 b8000000     ................
     3e0:	40000000 0000098c 0000bc88 00006e94     ...@.........n..
     3f0:	0000ceec 000070d4 0000cef4 0000741c     .....p.......t..
     400:	000075d8 00007708 00007858 00007968     .u...w..Xx..hy..
     410:	00007a1c 00007c78 0000b3b0 00007128     .z..x|......(q..
     420:	00007340 0000a724 0000a728 0000af30     @s..$...(...0...
     430:	0000af60 0000ac1c 0000ac18 00007398     `............s..
     440:	000e38e4 0000af10 0000af50 00124925     .8......P...%I..
     450:	000073f4 00007a00 0000a722 0000ac10     .s...z..".......
     460:	80000001 00005a82 00008164 0000a61c     .....Z..d.......
     470:	00007fd8 00007f60 00008190 00008374     ....`.......t...
     480:	000083a0 000083d0 00008428 000083fc     ........(.......
     490:	0000a620 00008470 0000849c 000086e8      ...p...........
     4a0:	00008650 0000a934 0000ab30 000004c8     P...4...0.......

000004b0 <_init>:
     4b0:	008136        	entry	a1, 64
     4b3:	fed381        	l32r	a8, 0 (504 <frame_dummy>)
     4b6:	f03d           	nop.n
     4b8:	0008e0        	callx8	a8
     4bb:	fed281        	l32r	a8, 4 (8800 <__do_global_ctors_aux>)
     4be:	f03d           	nop.n
     4c0:	0008e0        	callx8	a8
     4c3:	f01d           	retw.n

000004c5 <_init+0x15>:
     4c5:	000000                                        ...

000004c8 <__do_global_dtors_aux>:
     4c8:	004136        	entry	a1, 32
     4cb:	fecf31        	l32r	a3, 8 (e770 <__bss_start>)
     4ce:	000382        	l8ui	a8, a3, 0
     4d1:	d8ec           	bnez.n	a8, 502 <__do_global_dtors_aux+0x3a>
     4d3:	fece21        	l32r	a2, c (ab44 <p$3519_6_1>)
     4d6:	02b8           	l32i.n	a11, a2, 0
     4d8:	0ba8           	l32i.n	a10, a11, 0
     4da:	ca8c           	beqz.n	a10, 4ea <__do_global_dtors_aux+0x22>

000004dc <__do_global_dtors_aux+0x14>:
     4dc:	9b4b           	addi.n	a9, a11, 4
     4de:	0299           	s32i.n	a9, a2, 0
     4e0:	000ae0        	callx8	a10
     4e3:	02b8           	l32i.n	a11, a2, 0
     4e5:	0ba8           	l32i.n	a10, a11, 0
     4e7:	ff1a56        	bnez	a10, 4dc <__do_global_dtors_aux+0x14>

000004ea <__do_global_dtors_aux+0x22>:
     4ea:	fec9a1        	l32r	a10, 10 (0 <_text_start>)
     4ed:	0b0c           	movi.n	a11, 0
     4ef:	081ab7        	beq	a10, a11, 4fb <__do_global_dtors_aux+0x33>
     4f2:	fec8a1        	l32r	a10, 14 (ab2c <__EH_FRAME_BEGIN___44>)
     4f5:	fec681        	l32r	a8, 10 (0 <_text_start>)
     4f8:	0008e0        	callx8	a8

000004fb <__do_global_dtors_aux+0x33>:
     4fb:	1c0c           	movi.n	a12, 1
     4fd:	0043c2        	s8i	a12, a3, 0
     500:	f01d           	retw.n

00000502 <__do_global_dtors_aux+0x3a>:
     502:	f01d           	retw.n

00000504 <frame_dummy>:
     504:	004136        	entry	a1, 32
     507:	fec481        	l32r	a8, 18 (0 <_text_start>)
     50a:	090c           	movi.n	a9, 0
     50c:	0b1897        	beq	a8, a9, 51b <frame_dummy+0x17>
     50f:	fec1a1        	l32r	a10, 14 (ab2c <__EH_FRAME_BEGIN___44>)
     512:	fec2b1        	l32r	a11, 1c (e774 <object$3538_8_1>)
     515:	fec081        	l32r	a8, 18 (0 <_text_start>)
     518:	0008e0        	callx8	a8

0000051b <frame_dummy+0x17>:
     51b:	f01d           	retw.n

0000051d <frame_dummy+0x19>:
     51d:	000000                                        ...

00000520 <share_tmp_buffer>:
     520:	004136        	entry	a1, 32
     523:	febf41        	l32r	a4, 20 (cd0c <bc45+0xc>)
     526:	fec031        	l32r	a3, 28 (8e28 <_DYNAMIC+0x560>)
     529:	76d282        	addmi	a8, a2, 0x7600
     52c:	febe51        	l32r	a5, 24 (8628 <real_split+0x18c>)
     52f:	28c882        	addi	a8, a8, 40
     532:	323a           	add.n	a3, a2, a3
     534:	525a           	add.n	a5, a2, a5
     536:	424a           	add.n	a4, a2, a4
     538:	806432        	s32i	a3, a4, 0x200
     53b:	7f6452        	s32i	a5, a4, 0x1fc
     53e:	7e6482        	s32i	a8, a4, 0x1f8
     541:	f01d           	retw.n

00000543 <share_tmp_buffer+0x23>:
	...

00000544 <common_ECNR_PARA_init_v2>:
     544:	004136        	entry	a1, 32
     547:	a28b           	addi.n	a10, a2, 8
     549:	feb881        	l32r	a8, 2c (8838 <xt_memcpy>)
     54c:	b32b           	addi.n	a11, a3, 2
     54e:	79a0c2        	movi	a12, 121
     551:	0008e0        	callx8	a8
     554:	5c0c           	movi.n	a12, 5
     556:	01d3b2        	addmi	a11, a3, 0x100
     559:	01d2a2        	addmi	a10, a2, 0x100
     55c:	feb481        	l32r	a8, 2c (8838 <xt_memcpy>)
     55f:	fccaa2        	addi	a10, a10, -4
     562:	f4cbb2        	addi	a11, a11, -12
     565:	0008e0        	callx8	a8
     568:	60a0c2        	movi	a12, 96
     56b:	01d3b2        	addmi	a11, a3, 0x100
     56e:	01d2a2        	addmi	a10, a2, 0x100
     571:	feae81        	l32r	a8, 2c (8838 <xt_memcpy>)
     574:	aa8b           	addi.n	a10, a10, 8
     576:	fecbb2        	addi	a11, a11, -2
     579:	0008e0        	callx8	a8
     57c:	7c0c           	movi.n	a12, 7
     57e:	03d3b2        	addmi	a11, a3, 0x300
     581:	02d2a2        	addmi	a10, a2, 0x200
     584:	feaa81        	l32r	a8, 2c (8838 <xt_memcpy>)
     587:	c8caa2        	addi	a10, a10, -56
     58a:	f4cbb2        	addi	a11, a11, -12
     58d:	0008e0        	callx8	a8
     590:	dc0c           	movi.n	a12, 13
     592:	02d2a2        	addmi	a10, a2, 0x200
     595:	03d3b2        	addmi	a11, a3, 0x300
     598:	fea581        	l32r	a8, 2c (8838 <xt_memcpy>)
     59b:	18cbb2        	addi	a11, a11, 24
     59e:	d6caa2        	addi	a10, a10, -42
     5a1:	0008e0        	callx8	a8
     5a4:	fea391        	l32r	a9, 30 (e798 <p_ecnr_mem>)
     5a7:	0998           	l32i.n	a9, a9, 0
     5a9:	50d992        	addmi	a9, a9, 0x5000
     5ac:	7fd992        	addmi	a9, a9, 0x7f00
     5af:	1998           	l32i.n	a9, a9, 4
     5b1:	0299           	s32i.n	a9, a2, 0
     5b3:	f01d           	retw.n

000005b5 <common_ECNR_PARA_init_v2+0x71>:
     5b5:	000000                                        ...

000005b8 <TX_ECNR_PARA_init>:
     5b8:	006136        	entry	a1, 48
     5bb:	0129           	s32i.n	a2, a1, 0
     5bd:	fe9c21        	l32r	a2, 30 (e798 <p_ecnr_mem>)
     5c0:	fe9d81        	l32r	a8, 34 (520 <share_tmp_buffer>)
     5c3:	02a8           	l32i.n	a10, a2, 0
     5c5:	0008e0        	callx8	a8
     5c8:	03bd           	mov.n	a11, a3
     5ca:	fe9bc1        	l32r	a12, 38 (ce00 <ABS_THR45+0x40>)
     5cd:	02a8           	l32i.n	a10, a2, 0
     5cf:	fe9c81        	l32r	a8, 40 (544 <common_ECNR_PARA_init_v2>)
     5d2:	fe9a71        	l32r	a7, 3c (e78c <aec_nr_para>)
     5d5:	aaca           	add.n	a10, a10, a12
     5d7:	412aa2        	l32i	a10, a10, 0x104
     5da:	07a9           	s32i.n	a10, a7, 0
     5dc:	0008e0        	callx8	a8
     5df:	02e8           	l32i.n	a14, a2, 0
     5e1:	07c8           	l32i.n	a12, a7, 0
     5e3:	b42b           	addi.n	a11, a4, 2
     5e5:	02dee2        	addmi	a14, a14, 0x200
     5e8:	041cd2        	l16ui	a13, a12, 8
     5eb:	405ed2        	s16i	a13, a14, 128
     5ee:	01d8           	l32i.n	a13, a1, 0
     5f0:	02dca2        	addmi	a10, a12, 0x200
     5f3:	f0caa2        	addi	a10, a10, -16
     5f6:	4dac           	beqz.n	a13, 61e <TX_ECNR_PARA_init+0x66>
     5f8:	821c92        	l16ui	a9, a12, 0x104
     5fb:	fe8c81        	l32r	a8, 2c (8838 <xt_memcpy>)
     5fe:	025c92        	s16i	a9, a12, 4
     601:	80a0c2        	movi	a12, 128
     604:	0008e0        	callx8	a8
     607:	07c8           	l32i.n	a12, a7, 0
     609:	fe8ea1        	l32r	a10, 44 (1000 <inv_mel_filter+0x4>)
     60c:	80a0b2        	movi	a11, 128
     60f:	03dc92        	addmi	a9, a12, 0x300
     612:	f0c992        	addi	a9, a9, -16
     615:	02ab76        	loopgtz	a11, 61b <TX_ECNR_PARA_init+0x63>
     618:	09c9a4        	ae_s16ip	a10, a9, 2

0000061b <TX_ECNR_PARA_init+0x63>:
     61b:	000406        	j	62f <TX_ECNR_PARA_init+0x77>

0000061e <TX_ECNR_PARA_init+0x66>:
     61e:	811c92        	l16ui	a9, a12, 0x102
     621:	fe8281        	l32r	a8, 2c (8838 <xt_memcpy>)
     624:	025c92        	s16i	a9, a12, 4
     627:	00a1c2        	movi	a12, 0x100
     62a:	0008e0        	callx8	a8
     62d:	07c8           	l32i.n	a12, a7, 0

0000062f <TX_ECNR_PARA_init+0x77>:
     62f:	fe8241        	l32r	a4, 38 (ce00 <ABS_THR45+0x40>)
     632:	fe7e81        	l32r	a8, 2c (8838 <xt_memcpy>)
     635:	02a8           	l32i.n	a10, a2, 0
     637:	02dcb2        	addmi	a11, a12, 0x200
     63a:	bacbb2        	addi	a11, a11, -70
     63d:	4c0c           	movi.n	a12, 4
     63f:	02daa2        	addmi	a10, a10, 0x200
     642:	70caa2        	addi	a10, a10, 112
     645:	0008e0        	callx8	a8
     648:	b52b           	addi.n	a11, a5, 2
     64a:	00a1c2        	movi	a12, 0x100
     64d:	07a8           	l32i.n	a10, a7, 0
     64f:	02d8           	l32i.n	a13, a2, 0
     651:	fe7681        	l32r	a8, 2c (8838 <xt_memcpy>)
     654:	db1a92        	l16ui	a9, a10, 0x1b6
     657:	dd4a           	add.n	a13, a13, a4
     659:	04daa2        	addmi	a10, a10, 0x400
     65c:	70caa2        	addi	a10, a10, 112
     65f:	7f5d92        	s16i	a9, a13, 254
     662:	0008e0        	callx8	a8
     665:	b62b           	addi.n	a11, a6, 2
     667:	07a8           	l32i.n	a10, a7, 0
     669:	0c4c           	movi.n	a12, 64
     66b:	fe7081        	l32r	a8, 2c (8838 <xt_memcpy>)
     66e:	04daa2        	addmi	a10, a10, 0x400
     671:	f0caa2        	addi	a10, a10, -16
     674:	0008e0        	callx8	a8
     677:	4c0c           	movi.n	a12, 4
     679:	fe6c81        	l32r	a8, 2c (8838 <xt_memcpy>)
     67c:	07a8           	l32i.n	a10, a7, 0
     67e:	02d3b2        	addmi	a11, a3, 0x200
     681:	becbb2        	addi	a11, a11, -66
     684:	06daa2        	addmi	a10, a10, 0x600
     687:	70caa2        	addi	a10, a10, 112
     68a:	0008e0        	callx8	a8
     68d:	4c0c           	movi.n	a12, 4
     68f:	fe6781        	l32r	a8, 2c (8838 <xt_memcpy>)
     692:	07a8           	l32i.n	a10, a7, 0
     694:	02d3b2        	addmi	a11, a3, 0x200
     697:	c6cbb2        	addi	a11, a11, -58
     69a:	06daa2        	addmi	a10, a10, 0x600
     69d:	7ccaa2        	addi	a10, a10, 124
     6a0:	0008e0        	callx8	a8
     6a3:	4c1c           	movi.n	a12, 20
     6a5:	fe6181        	l32r	a8, 2c (8838 <xt_memcpy>)
     6a8:	07a8           	l32i.n	a10, a7, 0
     6aa:	02d3b2        	addmi	a11, a3, 0x200
     6ad:	cecbb2        	addi	a11, a11, -50
     6b0:	07daa2        	addmi	a10, a10, 0x700
     6b3:	88caa2        	addi	a10, a10, -120
     6b6:	0008e0        	callx8	a8
     6b9:	02d3b2        	addmi	a11, a3, 0x200
     6bc:	200b22        	l8ui	a2, a11, 32
     6bf:	900be2        	l8ui	a14, a11, 144
     6c2:	020b52        	l8ui	a5, a11, 2
     6c5:	000ba2        	l8ui	a10, a11, 0
     6c8:	080b92        	l8ui	a9, a11, 8
     6cb:	090b62        	l8ui	a6, a11, 9
     6ce:	010b82        	l8ui	a8, a11, 1
     6d1:	210bf2        	l8ui	a15, a11, 33
     6d4:	910bc2        	l8ui	a12, a11, 145
     6d7:	030b42        	l8ui	a4, a11, 3
     6da:	11ff80        	slli	a15, a15, 8
     6dd:	11cc80        	slli	a12, a12, 8
     6e0:	114480        	slli	a4, a4, 8
     6e3:	118880        	slli	a8, a8, 8
     6e6:	116680        	slli	a6, a6, 8
     6e9:	206690        	or	a6, a6, a9
     6ec:	2088a0        	or	a8, a8, a10
     6ef:	204450        	or	a4, a4, a5
     6f2:	20cce0        	or	a12, a12, a14
     6f5:	20ff20        	or	a15, a15, a2
     6f8:	8e0be2        	l8ui	a14, a11, 142
     6fb:	a4cb22        	addi	a2, a11, -92
     6fe:	11cc80        	slli	a12, a12, 8
     701:	8ffd           	ae_sext16	a15, a15
     703:	844d           	ae_sext16	a4, a4
     705:	07a8           	l32i.n	a10, a7, 0
     707:	888d           	ae_sext16	a8, a8
     709:	866d           	ae_sext16	a6, a6
     70b:	06dad2        	addmi	a13, a10, 0x600
     70e:	3d5d62        	s16i	a6, a13, 122
     711:	3c5d82        	s16i	a8, a13, 120
     714:	425d42        	s16i	a4, a13, 132
     717:	435df2        	s16i	a15, a13, 134
     71a:	07daa2        	addmi	a10, a10, 0x700
     71d:	b8caa2        	addi	a10, a10, -72
     720:	8f0bf2        	l8ui	a15, a11, 143
     723:	08a642        	movi	a4, 0x608
     726:	fe4181        	l32r	a8, 2c (8838 <xt_memcpy>)
     729:	20ccf0        	or	a12, a12, a15
     72c:	f6cbb2        	addi	a11, a11, -10
     72f:	11cc80        	slli	a12, a12, 8
     732:	20cce0        	or	a12, a12, a14
     735:	2c6dc2        	s32i	a12, a13, 176
     738:	5c0c           	movi.n	a12, 5
     73a:	0008e0        	callx8	a8
     73d:	1c3c           	movi.n	a12, 49
     73f:	fe3b81        	l32r	a8, 2c (8838 <xt_memcpy>)
     742:	07a8           	l32i.n	a10, a7, 0
     744:	02d3b2        	addmi	a11, a3, 0x200
     747:	bb4b           	addi.n	a11, a11, 4
     749:	07daa2        	addmi	a10, a10, 0x700
     74c:	c2caa2        	addi	a10, a10, -62
     74f:	0008e0        	callx8	a8
     752:	c402d2        	l8ui	a13, a2, 196
     755:	01d292        	addmi	a9, a2, 0x100
     758:	4909c2        	l8ui	a12, a9, 73
     75b:	4a09a2        	l8ui	a10, a9, 74
     75e:	6209b2        	l8ui	a11, a9, 98
     761:	3709f2        	l8ui	a15, a9, 55
     764:	4b0982        	l8ui	a8, a9, 75
     767:	6309e2        	l8ui	a14, a9, 99
     76a:	11ff80        	slli	a15, a15, 8
     76d:	118880        	slli	a8, a8, 8
     770:	11ee80        	slli	a14, a14, 8
     773:	20eeb0        	or	a14, a14, a11
     776:	2088a0        	or	a8, a8, a10
     779:	6109b2        	l8ui	a11, a9, 97
     77c:	11ee80        	slli	a14, a14, 8
     77f:	3609a2        	l8ui	a10, a9, 54
     782:	118880        	slli	a8, a8, 8
     785:	2088c0        	or	a8, a8, a12
     788:	118880        	slli	a8, a8, 8
     78b:	20ffa0        	or	a15, a15, a10
     78e:	3509a2        	l8ui	a10, a9, 53
     791:	20eeb0        	or	a14, a14, a11
     794:	11ff80        	slli	a15, a15, 8
     797:	6009b2        	l8ui	a11, a9, 96
     79a:	11ee80        	slli	a14, a14, 8
     79d:	20ffa0        	or	a15, a15, a10
     7a0:	3409a2        	l8ui	a10, a9, 52
     7a3:	20eeb0        	or	a14, a14, a11
     7a6:	480992        	l8ui	a9, a9, 72
     7a9:	11ff80        	slli	a15, a15, 8
     7ac:	c502b2        	l8ui	a11, a2, 197
     7af:	208890        	or	a8, a8, a9
     7b2:	20ffa0        	or	a15, a15, a10
     7b5:	11bb80        	slli	a11, a11, 8
     7b8:	20bbd0        	or	a11, a11, a13
     7bb:	07a8           	l32i.n	a10, a7, 0
     7bd:	c202d2        	l8ui	a13, a2, 194
     7c0:	11bb80        	slli	a11, a11, 8
     7c3:	ca4a           	add.n	a12, a10, a4
     7c5:	496cf2        	s32i	a15, a12, 0x124
     7c8:	476c82        	s32i	a8, a12, 0x11c
     7cb:	2b6ce2        	s32i	a14, a12, 172
     7ce:	07daa2        	addmi	a10, a10, 0x700
     7d1:	c302e2        	l8ui	a14, a2, 195
     7d4:	30caa2        	addi	a10, a10, 48
     7d7:	fe1581        	l32r	a8, 2c (8838 <xt_memcpy>)
     7da:	20bbe0        	or	a11, a11, a14
     7dd:	11bb80        	slli	a11, a11, 8
     7e0:	20bbd0        	or	a11, a11, a13
     7e3:	486cb2        	s32i	a11, a12, 0x120
     7e6:	6c0c           	movi.n	a12, 6
     7e8:	02d3b2        	addmi	a11, a3, 0x200
     7eb:	6acbb2        	addi	a11, a11, 106
     7ee:	0008e0        	callx8	a8
     7f1:	d402d2        	l8ui	a13, a2, 212
     7f4:	d502b2        	l8ui	a11, a2, 213
     7f7:	07a8           	l32i.n	a10, a7, 0
     7f9:	01d252        	addmi	a5, a2, 0x100
     7fc:	4e0582        	l8ui	a8, a5, 78
     7ff:	3a0562        	l8ui	a6, a5, 58
     802:	3b05e2        	l8ui	a14, a5, 59
     805:	4f05f2        	l8ui	a15, a5, 79
     808:	ca4a           	add.n	a12, a10, a4
     80a:	11bb80        	slli	a11, a11, 8
     80d:	11ff80        	slli	a15, a15, 8
     810:	11ee80        	slli	a14, a14, 8
     813:	20bbd0        	or	a11, a11, a13
     816:	07daa2        	addmi	a10, a10, 0x700
     819:	48caa2        	addi	a10, a10, 72
     81c:	d202d2        	l8ui	a13, a2, 210
     81f:	11bb80        	slli	a11, a11, 8
     822:	20ee60        	or	a14, a14, a6
     825:	20ff80        	or	a15, a15, a8
     828:	4d0562        	l8ui	a6, a5, 77
     82b:	390582        	l8ui	a8, a5, 57
     82e:	11ff80        	slli	a15, a15, 8
     831:	11ee80        	slli	a14, a14, 8
     834:	20ee80        	or	a14, a14, a8
     837:	20ff60        	or	a15, a15, a6
     83a:	fdfc81        	l32r	a8, 2c (8838 <xt_memcpy>)
     83d:	11ff80        	slli	a15, a15, 8
     840:	380562        	l8ui	a6, a5, 56
     843:	11ee80        	slli	a14, a14, 8
     846:	4c0552        	l8ui	a5, a5, 76
     849:	20ee60        	or	a14, a14, a6
     84c:	4f6ce2        	s32i	a14, a12, 0x13c
     84f:	d302e2        	l8ui	a14, a2, 211
     852:	20ff50        	or	a15, a15, a5
     855:	4d6cf2        	s32i	a15, a12, 0x134
     858:	20bbe0        	or	a11, a11, a14
     85b:	11bb80        	slli	a11, a11, 8
     85e:	20bbd0        	or	a11, a11, a13
     861:	4e6cb2        	s32i	a11, a12, 0x138
     864:	2c0c           	movi.n	a12, 2
     866:	02d3b2        	addmi	a11, a3, 0x200
     869:	7acbb2        	addi	a11, a11, 122
     86c:	0008e0        	callx8	a8
     86f:	2c0c           	movi.n	a12, 2
     871:	fdee81        	l32r	a8, 2c (8838 <xt_memcpy>)
     874:	07a8           	l32i.n	a10, a7, 0
     876:	03d3b2        	addmi	a11, a3, 0x300
     879:	8acbb2        	addi	a11, a11, -118
     87c:	07daa2        	addmi	a10, a10, 0x700
     87f:	4ccaa2        	addi	a10, a10, 76
     882:	0008e0        	callx8	a8
     885:	4c0c           	movi.n	a12, 4
     887:	fde981        	l32r	a8, 2c (8838 <xt_memcpy>)
     88a:	07a8           	l32i.n	a10, a7, 0
     88c:	03d3b2        	addmi	a11, a3, 0x300
     88f:	e4cbb2        	addi	a11, a11, -28
     892:	07daa2        	addmi	a10, a10, 0x700
     895:	50caa2        	addi	a10, a10, 80
     898:	0008e0        	callx8	a8
     89b:	9c0c           	movi.n	a12, 9
     89d:	fde381        	l32r	a8, 2c (8838 <xt_memcpy>)
     8a0:	07a8           	l32i.n	a10, a7, 0
     8a2:	03d3b2        	addmi	a11, a3, 0x300
     8a5:	92cbb2        	addi	a11, a11, -110
     8a8:	07daa2        	addmi	a10, a10, 0x700
     8ab:	58caa2        	addi	a10, a10, 88
     8ae:	0008e0        	callx8	a8
     8b1:	2c0c           	movi.n	a12, 2
     8b3:	fdde81        	l32r	a8, 2c (8838 <xt_memcpy>)
     8b6:	e402e2        	l8ui	a14, a2, 228
     8b9:	e50292        	l8ui	a9, a2, 229
     8bc:	07a8           	l32i.n	a10, a7, 0
     8be:	03d3b2        	addmi	a11, a3, 0x300
     8c1:	e0cbb2        	addi	a11, a11, -32
     8c4:	da4a           	add.n	a13, a10, a4
     8c6:	119980        	slli	a9, a9, 8
     8c9:	2099e0        	or	a9, a9, a14
     8cc:	07daa2        	addmi	a10, a10, 0x700
     8cf:	6ccaa2        	addi	a10, a10, 108
     8d2:	899d           	ae_sext16	a9, a9
     8d4:	b15d92        	s16i	a9, a13, 0x162
     8d7:	0008e0        	callx8	a8
     8da:	2c0c           	movi.n	a12, 2
     8dc:	fdd481        	l32r	a8, 2c (8838 <xt_memcpy>)
     8df:	07a8           	l32i.n	a10, a7, 0
     8e1:	03d3b2        	addmi	a11, a3, 0x300
     8e4:	bb8b           	addi.n	a11, a11, 8
     8e6:	07daa2        	addmi	a10, a10, 0x700
     8e9:	70caa2        	addi	a10, a10, 112
     8ec:	0008e0        	callx8	a8
     8ef:	6c0c           	movi.n	a12, 6
     8f1:	fdce81        	l32r	a8, 2c (8838 <xt_memcpy>)
     8f4:	07a8           	l32i.n	a10, a7, 0
     8f6:	03d3b2        	addmi	a11, a3, 0x300
     8f9:	bbcb           	addi.n	a11, a11, 12
     8fb:	07daa2        	addmi	a10, a10, 0x700
     8fe:	74caa2        	addi	a10, a10, 116
     901:	0008e0        	callx8	a8
     904:	6c0c           	movi.n	a12, 6
     906:	fdc981        	l32r	a8, 2c (8838 <xt_memcpy>)
     909:	07a8           	l32i.n	a10, a7, 0
     90b:	03d3b2        	addmi	a11, a3, 0x300
     90e:	34cbb2        	addi	a11, a11, 52
     911:	08daa2        	addmi	a10, a10, 0x800
     914:	80caa2        	addi	a10, a10, -128
     917:	0008e0        	callx8	a8
     91a:	fdc481        	l32r	a8, 2c (8838 <xt_memcpy>)
     91d:	07a8           	l32i.n	a10, a7, 0
     91f:	02d2e2        	addmi	a14, a2, 0x200
     922:	9cced2        	addi	a13, a14, -100
     925:	9ecec2        	addi	a12, a14, -98
     928:	010cb2        	l8ui	a11, a12, 1
     92b:	000df2        	l8ui	a15, a13, 0
     92e:	000cc2        	l8ui	a12, a12, 0
     931:	8ecee2        	addi	a14, a14, -114
     934:	010dd2        	l8ui	a13, a13, 1
     937:	000e52        	l8ui	a5, a14, 0
     93a:	010ee2        	l8ui	a14, a14, 1
     93d:	11bb80        	slli	a11, a11, 8
     940:	11dd80        	slli	a13, a13, 8
     943:	20bbc0        	or	a11, a11, a12
     946:	8bbd           	ae_sext16	a11, a11
     948:	ca4a           	add.n	a12, a10, a4
     94a:	20ddf0        	or	a13, a13, a15
     94d:	11ee80        	slli	a14, a14, 8
     950:	8ddd           	ae_sext16	a13, a13
     952:	08daa2        	addmi	a10, a10, 0x800
     955:	94caa2        	addi	a10, a10, -108
     958:	c35cd2        	s16i	a13, a12, 0x186
     95b:	c45cb2        	s16i	a11, a12, 0x188
     95e:	20ee50        	or	a14, a14, a5
     961:	02d3b2        	addmi	a11, a3, 0x200
     964:	8eed           	ae_sext16	a14, a14
     966:	c25ce2        	s16i	a14, a12, 0x184
     969:	7ecbb2        	addi	a11, a11, 126
     96c:	5c0c           	movi.n	a12, 5
     96e:	0008e0        	callx8	a8
     971:	ac1c           	movi.n	a12, 26
     973:	fdae81        	l32r	a8, 2c (8838 <xt_memcpy>)
     976:	07a8           	l32i.n	a10, a7, 0
     978:	03d3b2        	addmi	a11, a3, 0x300
     97b:	a4cbb2        	addi	a11, a11, -92
     97e:	08daa2        	addmi	a10, a10, 0x800
     981:	a0caa2        	addi	a10, a10, -96
     984:	0008e0        	callx8	a8
     987:	f01d           	retw.n

00000989 <TX_ECNR_PARA_init+0x3d1>:
     989:	000000                                        ...

0000098c <RX_ECNR_PARA_init>:
     98c:	004136        	entry	a1, 32
     98f:	fda861        	l32r	a6, 30 (e798 <p_ecnr_mem>)
     992:	fda881        	l32r	a8, 34 (520 <share_tmp_buffer>)
     995:	06a8           	l32i.n	a10, a6, 0
     997:	0008e0        	callx8	a8
     99a:	fda751        	l32r	a5, 38 (ce00 <ABS_THR45+0x40>)
     99d:	06a8           	l32i.n	a10, a6, 0
     99f:	03bd           	mov.n	a11, a3
     9a1:	fda781        	l32r	a8, 40 (544 <common_ECNR_PARA_init_v2>)
     9a4:	fda631        	l32r	a3, 3c (e78c <aec_nr_para>)
     9a7:	aa5a           	add.n	a10, a10, a5
     9a9:	412aa2        	l32i	a10, a10, 0x104
     9ac:	03a9           	s32i.n	a10, a3, 0
     9ae:	0008e0        	callx8	a8
     9b1:	03a8           	l32i.n	a10, a3, 0
     9b3:	b42b           	addi.n	a11, a4, 2
     9b5:	02daa2        	addmi	a10, a10, 0x200
     9b8:	f0caa2        	addi	a10, a10, -16
     9bb:	f29c           	beqz.n	a2, 9de <RX_ECNR_PARA_init+0x52>
     9bd:	fd9b81        	l32r	a8, 2c (8838 <xt_memcpy>)
     9c0:	80a0c2        	movi	a12, 128
     9c3:	0008e0        	callx8	a8
     9c6:	0023b2        	l32i	a11, a3, 0
     9c9:	fd9ea1        	l32r	a10, 44 (1000 <inv_mel_filter+0x4>)
     9cc:	80a0c2        	movi	a12, 128
     9cf:	03db92        	addmi	a9, a11, 0x300
     9d2:	f0c992        	addi	a9, a9, -16
     9d5:	02ac76        	loopgtz	a12, 9db <RX_ECNR_PARA_init+0x4f>
     9d8:	09c9a4        	ae_s16ip	a10, a9, 2

000009db <RX_ECNR_PARA_init+0x4f>:
     9db:	000286        	j	9e9 <RX_ECNR_PARA_init+0x5d>

000009de <RX_ECNR_PARA_init+0x52>:
     9de:	fd9381        	l32r	a8, 2c (8838 <xt_memcpy>)
     9e1:	00a1c2        	movi	a12, 0x100
     9e4:	0008e0        	callx8	a8
     9e7:	03b8           	l32i.n	a11, a3, 0

000009e9 <RX_ECNR_PARA_init+0x5d>:
     9e9:	06a8           	l32i.n	a10, a6, 0
     9eb:	da1b92        	l16ui	a9, a11, 0x1b4
     9ee:	aa5a           	add.n	a10, a10, a5
     9f0:	990b           	addi.n	a9, a9, -1
     9f2:	7e5a92        	s16i	a9, a10, 252
     9f5:	f01d           	retw.n

000009f7 <RX_ECNR_PARA_init+0x6b>:
	...

000009f8 <EQ_update>:
     9f8:	004136        	entry	a1, 32
     9fb:	03bd           	mov.n	a11, a3
     9fd:	fd8cc1        	l32r	a12, 30 (e798 <p_ecnr_mem>)
     a00:	fd92a1        	l32r	a10, 48 (ca78 <sp_matrix45+0x528>)
     a03:	fd8a81        	l32r	a8, 2c (8838 <xt_memcpy>)
     a06:	0c29           	s32i.n	a2, a12, 0
     a08:	a2aa           	add.n	a10, a2, a10
     a0a:	00a1c2        	movi	a12, 0x100
     a0d:	0008e0        	callx8	a8
     a10:	f01d           	retw.n

00000a12 <EQ_update+0x1a>:
	...

00000a14 <HIFI_sqrt>:
     a14:	006136        	entry	a1, 48
     a17:	035d           	mov.n	a5, a3
     a19:	030c           	movi.n	a3, 0
     a1b:	1139           	s32i.n	a3, a1, 4
     a1d:	0139           	s32i.n	a3, a1, 0
     a1f:	0715e6        	bgei	a5, 1, a2a <HIFI_sqrt+0x16>
     a22:	0139           	s32i.n	a3, a1, 0

00000a24 <HIFI_sqrt+0x10>:
     a24:	1139           	s32i.n	a3, a1, 4
     a26:	0128           	l32i.n	a2, a1, 0
     a28:	f01d           	retw.n

00000a2a <HIFI_sqrt+0x16>:
     a2a:	fd8881        	l32r	a8, 4c (ac30 <TABLE_SQRT>)
     a2d:	40e5a0        	nsa	a10, a5
     a30:	c042a0        	sub	a4, a2, a10
     a33:	401a00        	ssl	a10
     a36:	a19500        	sll	a9, a5
     a39:	046040        	extui	a6, a4, 0, 1
     a3c:	400600        	ssr	a6
     a3f:	b19090        	sra	a9, a9
     a42:	419990        	srli	a9, a9, 9
     a45:	317090        	srai	a7, a9, 16
     a48:	300994        	ae_cvtp24a16x2.ll	aep0, a9, a9
     a4b:	f0c772        	addi	a7, a7, -16
     a4e:	537730        	max	a7, a7, a3
     a51:	907780        	addx2	a7, a7, a8
     a54:	278d           	ae_l16si.n	a8, a7, 0
     a56:	377d           	ae_l16si.n	a7, a7, 2
     a58:	346a           	add.n	a3, a4, a6
     a5a:	213130        	srai	a3, a3, 1
     a5d:	c07780        	sub	a7, a7, a8
     a60:	118800        	slli	a8, a8, 16
     a63:	117700        	slli	a7, a7, 16
     a66:	364734        	ae_cvtq48a32s	aeq1, a7
     a69:	360834        	ae_cvtq48a32s	aeq0, a8
     a6c:	030174        	ae_mulaq32sp16u.l	aeq0, aeq1, aep0
     a6f:	0139           	s32i.n	a3, a1, 0
     a71:	368304        	ae_trunca32q48	a3, aeq0
     a74:	ffeb06        	j	a24 <HIFI_sqrt+0x10>

00000a77 <HIFI_sqrt+0x63>:
	...

00000a78 <Log2_norm>:
     a78:	004136        	entry	a1, 32
     a7b:	3212a6        	blti	a2, 1, ab1 <Log2_norm+0x39>
     a7e:	046c           	movi.n	a4, -32
     a80:	2da437        	bge	a4, a3, ab1 <Log2_norm+0x39>
     a83:	052c           	movi.n	a5, 32
     a85:	04a537        	bge	a5, a3, a8d <Log2_norm+0x15>
     a88:	fd7221        	l32r	a2, 50 (7fffffff <_end+0x7fff185f>)
     a8b:	f01d           	retw.n

00000a8d <Log2_norm+0x15>:
     a8d:	fd7141        	l32r	a4, 54 (aca0 <TABLE_LOG2_1530>)
     a90:	558820        	extui	a8, a2, 24, 6
     a93:	1188e0        	slli	a8, a8, 2
     a96:	603484        	ae_lq32f.xu	aeq0, a4, a8
     a99:	604414        	ae_lq32f.i	aeq1, a4, 4
     a9c:	f92ae2022f 	{ ae_movpa24x2	aep0, a2, a2; ae_subq56	aeq1, aeq1, aeq0 }
     aa1:	030174        	ae_mulaq32sp16u.l	aeq0, aeq1, aep0
     aa4:	368204        	ae_trunca32q48	a2, aeq0
     aa7:	014360        	slli	a4, a3, 26
     aaa:	212520        	srai	a2, a2, 5
     aad:	224a           	add.n	a2, a2, a4
     aaf:	f01d           	retw.n

00000ab1 <Log2_norm+0x39>:
     ab1:	fd6921        	l32r	a2, 58 (80000000 <_end+0x7fff1860>)
     ab4:	f01d           	retw.n

00000ab6 <Log2_norm+0x3e>:
	...

00000ab8 <_saturate16>:
     ab8:	004136        	entry	a1, 32
     abb:	fd6851        	l32r	a5, 5c (7fff <xtensa_fft8_32b+0x27>)
     abe:	fd6831        	l32r	a3, 60 (ffff7fff <_end+0xfffe985f>)
     ac1:	03a527        	bge	a5, a2, ac8 <_saturate16+0x10>
     ac4:	052d           	mov.n	a2, a5
     ac6:	f01d           	retw.n

00000ac8 <_saturate16+0x10>:
     ac8:	042327        	blt	a3, a2, ad0 <_saturate16+0x18>
     acb:	fd6621        	l32r	a2, 64 (ffff8000 <_end+0xfffe9860>)
     ace:	f01d           	retw.n

00000ad0 <_saturate16+0x18>:
     ad0:	822d           	ae_sext16	a2, a2
     ad2:	f01d           	retw.n

00000ad4 <HIFI_sqrt_ie>:
     ad4:	006136        	entry	a1, 48
     ad7:	035d           	mov.n	a5, a3
     ad9:	030c           	movi.n	a3, 0
     adb:	1139           	s32i.n	a3, a1, 4
     add:	0139           	s32i.n	a3, a1, 0
     adf:	0715e6        	bgei	a5, 1, aea <HIFI_sqrt_ie+0x16>
     ae2:	0139           	s32i.n	a3, a1, 0

00000ae4 <HIFI_sqrt_ie+0x10>:
     ae4:	1139           	s32i.n	a3, a1, 4
     ae6:	0128           	l32i.n	a2, a1, 0
     ae8:	f01d           	retw.n

00000aea <HIFI_sqrt_ie+0x16>:
     aea:	fd5f81        	l32r	a8, 68 (96d0 <TABLE_IE_43>)
     aed:	40e5a0        	nsa	a10, a5
     af0:	c042a0        	sub	a4, a2, a10
     af3:	401a00        	ssl	a10
     af6:	a19500        	sll	a9, a5
     af9:	046040        	extui	a6, a4, 0, 1
     afc:	400600        	ssr	a6
     aff:	b19090        	sra	a9, a9
     b02:	419990        	srli	a9, a9, 9
     b05:	317090        	srai	a7, a9, 16
     b08:	300994        	ae_cvtp24a16x2.ll	aep0, a9, a9
     b0b:	f0c772        	addi	a7, a7, -16
     b0e:	537730        	max	a7, a7, a3
     b11:	907780        	addx2	a7, a7, a8
     b14:	278d           	ae_l16si.n	a8, a7, 0
     b16:	377d           	ae_l16si.n	a7, a7, 2
     b18:	346a           	add.n	a3, a4, a6
     b1a:	213130        	srai	a3, a3, 1
     b1d:	c07780        	sub	a7, a7, a8
     b20:	118800        	slli	a8, a8, 16
     b23:	117700        	slli	a7, a7, 16
     b26:	364734        	ae_cvtq48a32s	aeq1, a7
     b29:	360834        	ae_cvtq48a32s	aeq0, a8
     b2c:	030174        	ae_mulaq32sp16u.l	aeq0, aeq1, aep0
     b2f:	0139           	s32i.n	a3, a1, 0
     b31:	368304        	ae_trunca32q48	a3, aeq0
     b34:	ffeb06        	j	ae4 <HIFI_sqrt_ie+0x10>

00000b37 <HIFI_sqrt_ie+0x63>:
	...

00000b38 <fxexp>:
     b38:	006136        	entry	a1, 48
     b3b:	fd4c41        	l32r	a4, 6c (9740 <K_VAL_45>)
     b3e:	fd4431        	l32r	a3, 50 (7fffffff <_end+0x7fff185f>)
     b41:	364234        	ae_cvtq48a32s	aeq1, a2
     b44:	fc24bd540f 	{ ae_lq32f.iu	aeq2, a4, 0; ae_zeroq56	aeq0 }
     b49:	019ac4        	ae_addq56	aeq2, aeq1, aeq2
     b4c:	068a44        	ae_satq48s	aeq2, aeq2
     b4f:	098604        	ae_leq56s	b0, aeq2, aeq0
     b52:	36c334        	ae_cvtq48a32s	aeq3, a3
     b55:	601414        	ae_lq32f.iu	aeq0, a4, 4
     b58:	040076        	bf	b0, b60 <fxexp+0x28>
     b5b:	fd147b33cf 	{ ae_sraiq56	aeq3, aeq3, 12; ae_movq56	aeq1, aeq2 }

00000b60 <fxexp+0x28>:
     b60:	0198c4        	ae_addq56	aeq2, aeq1, aeq0
     b63:	0a1084        	ae_zeroq56	aeq0
     b66:	068a44        	ae_satq48s	aeq2, aeq2
     b69:	098614        	ae_leq56s	b1, aeq2, aeq0
     b6c:	601414        	ae_lq32f.iu	aeq0, a4, 4
     b6f:	040176        	bf	b1, b77 <fxexp+0x3f>
     b72:	fd147b32cf 	{ ae_sraiq56	aeq3, aeq3, 8; ae_movq56	aeq1, aeq2 }

00000b77 <fxexp+0x3f>:
     b77:	0198c4        	ae_addq56	aeq2, aeq1, aeq0
     b7a:	0a1084        	ae_zeroq56	aeq0
     b7d:	068a44        	ae_satq48s	aeq2, aeq2
     b80:	098624        	ae_leq56s	b2, aeq2, aeq0
     b83:	601414        	ae_lq32f.iu	aeq0, a4, 4
     b86:	040276        	bf	b2, b8e <fxexp+0x56>
     b89:	fd147b31cf 	{ ae_sraiq56	aeq3, aeq3, 4; ae_movq56	aeq1, aeq2 }

00000b8e <fxexp+0x56>:
     b8e:	0198c4        	ae_addq56	aeq2, aeq1, aeq0
     b91:	0a1084        	ae_zeroq56	aeq0
     b94:	068a44        	ae_satq48s	aeq2, aeq2
     b97:	098634        	ae_leq56s	b3, aeq2, aeq0
     b9a:	601414        	ae_lq32f.iu	aeq0, a4, 4
     b9d:	040376        	bf	b3, ba5 <fxexp+0x6d>
     ba0:	fd147b30ef 	{ ae_sraiq56	aeq3, aeq3, 2; ae_movq56	aeq1, aeq2 }

00000ba5 <fxexp+0x6d>:
     ba5:	0198c4        	ae_addq56	aeq2, aeq1, aeq0
     ba8:	0a1084        	ae_zeroq56	aeq0
     bab:	068a44        	ae_satq48s	aeq2, aeq2
     bae:	098644        	ae_leq56s	b4, aeq2, aeq0
     bb1:	601414        	ae_lq32f.iu	aeq0, a4, 4
     bb4:	040476        	bf	b4, bbc <fxexp+0x84>
     bb7:	fd147b30df 	{ ae_sraiq56	aeq3, aeq3, 1; ae_movq56	aeq1, aeq2 }

00000bbc <fxexp+0x84>:
     bbc:	0198c4        	ae_addq56	aeq2, aeq1, aeq0
     bbf:	0a1084        	ae_zeroq56	aeq0
     bc2:	068a44        	ae_satq48s	aeq2, aeq2
     bc5:	098654        	ae_leq56s	b5, aeq2, aeq0
     bc8:	ff7c7d141f 	{ ae_lq32f.iu	aeq0, a4, 4; ae_truncq32	aeq3, aeq3 }
     bcd:	0a0576        	bf	b5, bdb <fxexp+0xa3>
     bd0:	3570b4        	ae_sraiq56	aeq1, aeq3, 2
     bd3:	065a34        	ae_truncq32	aeq1, aeq1
     bd6:	fb3eff217f 	{ ae_movq56	aeq1, aeq2; ae_subq56	aeq3, aeq3, aeq1 }

00000bdb <fxexp+0xa3>:
     bdb:	0198c4        	ae_addq56	aeq2, aeq1, aeq0
     bde:	0a1084        	ae_zeroq56	aeq0
     be1:	068a44        	ae_satq48s	aeq2, aeq2
     be4:	098664        	ae_leq56s	b6, aeq2, aeq0
     be7:	601414        	ae_lq32f.iu	aeq0, a4, 4
     bea:	0a0676        	bf	b6, bf8 <fxexp+0xc0>
     bed:	3570f4        	ae_sraiq56	aeq1, aeq3, 3
     bf0:	065a34        	ae_truncq32	aeq1, aeq1
     bf3:	fb3eff217f 	{ ae_movq56	aeq1, aeq2; ae_subq56	aeq3, aeq3, aeq1 }

00000bf8 <fxexp+0xc0>:
     bf8:	0198c4        	ae_addq56	aeq2, aeq1, aeq0
     bfb:	0a1084        	ae_zeroq56	aeq0
     bfe:	068a44        	ae_satq48s	aeq2, aeq2
     c01:	098674        	ae_leq56s	b7, aeq2, aeq0
     c04:	601414        	ae_lq32f.iu	aeq0, a4, 4
     c07:	0a0776        	bf	b7, c15 <fxexp+0xdd>
     c0a:	357134        	ae_sraiq56	aeq1, aeq3, 4
     c0d:	065a34        	ae_truncq32	aeq1, aeq1
     c10:	fb3eff217f 	{ ae_movq56	aeq1, aeq2; ae_subq56	aeq3, aeq3, aeq1 }

00000c15 <fxexp+0xdd>:
     c15:	0198c4        	ae_addq56	aeq2, aeq1, aeq0
     c18:	0a1084        	ae_zeroq56	aeq0
     c1b:	068a44        	ae_satq48s	aeq2, aeq2
     c1e:	098684        	ae_leq56s	b8, aeq2, aeq0
     c21:	601414        	ae_lq32f.iu	aeq0, a4, 4
     c24:	0a0876        	bf	b8, c32 <fxexp+0xfa>
     c27:	357174        	ae_sraiq56	aeq1, aeq3, 5
     c2a:	065a34        	ae_truncq32	aeq1, aeq1
     c2d:	fb3eff217f 	{ ae_movq56	aeq1, aeq2; ae_subq56	aeq3, aeq3, aeq1 }

00000c32 <fxexp+0xfa>:
     c32:	0198c4        	ae_addq56	aeq2, aeq1, aeq0
     c35:	0a1084        	ae_zeroq56	aeq0
     c38:	068a44        	ae_satq48s	aeq2, aeq2
     c3b:	098694        	ae_leq56s	b9, aeq2, aeq0
     c3e:	601414        	ae_lq32f.iu	aeq0, a4, 4
     c41:	0a0976        	bf	b9, c4f <fxexp+0x117>
     c44:	3571b4        	ae_sraiq56	aeq1, aeq3, 6
     c47:	065a34        	ae_truncq32	aeq1, aeq1
     c4a:	fb3eff217f 	{ ae_movq56	aeq1, aeq2; ae_subq56	aeq3, aeq3, aeq1 }

00000c4f <fxexp+0x117>:
     c4f:	0198c4        	ae_addq56	aeq2, aeq1, aeq0
     c52:	0a1084        	ae_zeroq56	aeq0
     c55:	068a44        	ae_satq48s	aeq2, aeq2
     c58:	0986a4        	ae_leq56s	b10, aeq2, aeq0
     c5b:	601414        	ae_lq32f.iu	aeq0, a4, 4
     c5e:	0a0a76        	bf	b10, c6c <fxexp+0x134>
     c61:	3571f4        	ae_sraiq56	aeq1, aeq3, 7
     c64:	065a34        	ae_truncq32	aeq1, aeq1
     c67:	fb3eff217f 	{ ae_movq56	aeq1, aeq2; ae_subq56	aeq3, aeq3, aeq1 }

00000c6c <fxexp+0x134>:
     c6c:	0198c4        	ae_addq56	aeq2, aeq1, aeq0
     c6f:	0a1084        	ae_zeroq56	aeq0
     c72:	068a44        	ae_satq48s	aeq2, aeq2
     c75:	098604        	ae_leq56s	b0, aeq2, aeq0
     c78:	fcfe81        	l32r	a8, 70 (10000 <_end+0x1860>)
     c7b:	353234        	ae_sraiq56	aeq0, aeq3, 8
     c7e:	070076        	bf	b0, c89 <fxexp+0x151>
     c81:	060a34        	ae_truncq32	aeq0, aeq0
     c84:	fb3aff217f 	{ ae_movq56	aeq1, aeq2; ae_subq56	aeq3, aeq3, aeq0 }

00000c89 <fxexp+0x151>:
     c89:	360834        	ae_cvtq48a32s	aeq0, a8
     c8c:	0118c4        	ae_addq56	aeq0, aeq1, aeq0
     c8f:	068844        	ae_satq48s	aeq2, aeq0
     c92:	35a394        	ae_slliq56	aeq2, aeq2, 14
     c95:	060a44        	ae_satq48s	aeq0, aeq2
     c98:	098c04        	ae_truncp24q48x2	aep0, aeq0, aeq0
     c9b:	0885e4        	ae_mulfq32sp24s.l	aeq2, aeq3, aep0
     c9e:	062934        	ae_roundsq32asym	aeq0, aeq2
     ca1:	350054        	ae_slliq56	aeq0, aeq0, 1
     ca4:	068844        	ae_satq48s	aeq2, aeq0
     ca7:	36a204        	ae_trunca32q48	a2, aeq2
     caa:	f01d           	retw.n

00000cac <fxarctan2>:
     cac:	004136        	entry	a1, 32
     caf:	0b9237        	bne	a2, a3, cbe <fxarctan2+0x12>
     cb2:	0212e6        	bgei	a2, 1, cb8 <fxarctan2+0xc>
     cb5:	002906        	j	d5d <fxarctan2+0xb1>
     cb8:	fcef91        	l32r	a9, 74 (1922 <fn_st_noise_est+0x48e>)
     cbb:	002686        	j	d59 <fxarctan2+0xad>

00000cbe <fxarctan2+0x12>:
     cbe:	fcee41        	l32r	a4, 78 (8000 <xtensa_fft8_32b+0x28>)
     cc1:	609120        	abs	a9, a2
     cc4:	608130        	abs	a8, a3
     cc7:	608080        	neg	a8, a8
     cca:	609090        	neg	a9, a9
     ccd:	899d           	ae_sext16	a9, a9
     ccf:	888d           	ae_sext16	a8, a8
     cd1:	3ea897        	bge	a8, a9, d13 <fxarctan2+0x67>
     cd4:	fceab1        	l32r	a11, 7c (b1f <HIFI_sqrt_ie+0x4b>)
     cd7:	115210        	slli	a5, a2, 15
     cda:	d25530        	quos	a5, a5, a3
     cdd:	855d           	ae_sext16	a5, a5
     cdf:	60a150        	abs	a10, a5
     ce2:	60a0a0        	neg	a10, a10
     ce5:	d1aab0        	mul16s	a10, a10, a11
     ce8:	11aaf0        	slli	a10, a10, 1
     ceb:	aa4a           	add.n	a10, a10, a4
     ced:	31a0a0        	srai	a10, a10, 16
     cf0:	2bdaa2        	addmi	a10, a10, 0x2b00
     cf3:	1fcaa2        	addi	a10, a10, 31
     cf6:	ffdc25        	call8	ab8 <_saturate16>
     cf9:	d1aa50        	mul16s	a10, a10, a5
     cfc:	90aa40        	addx2	a10, a10, a4
     cff:	31a0a0        	srai	a10, a10, 16
     d02:	0473d6        	bgez	a3, d4d <fxarctan2+0xa1>
     d05:	06b296        	bltz	a2, d74 <fxarctan2+0xc8>
     d08:	fcd5b1        	l32r	a11, 5c (7fff <xtensa_fft8_32b+0x27>)
     d0b:	aaba           	add.n	a10, a10, a11
     d0d:	ffdaa5        	call8	ab8 <_saturate16>
     d10:	000e46        	j	d4d <fxarctan2+0xa1>

00000d13 <fxarctan2+0x67>:
     d13:	fcdab1        	l32r	a11, 7c (b1f <HIFI_sqrt_ie+0x4b>)
     d16:	113310        	slli	a3, a3, 15
     d19:	d23320        	quos	a3, a3, a2
     d1c:	833d           	ae_sext16	a3, a3
     d1e:	60a130        	abs	a10, a3
     d21:	60a0a0        	neg	a10, a10
     d24:	d1aab0        	mul16s	a10, a10, a11
     d27:	11aaf0        	slli	a10, a10, 1
     d2a:	aa4a           	add.n	a10, a10, a4
     d2c:	31a0a0        	srai	a10, a10, 16
     d2f:	2bdaa2        	addmi	a10, a10, 0x2b00
     d32:	1fcaa2        	addi	a10, a10, 31
     d35:	ffd825        	call8	ab8 <_saturate16>
     d38:	d1aa30        	mul16s	a10, a10, a3
     d3b:	90aa40        	addx2	a10, a10, a4
     d3e:	31a0a0        	srai	a10, a10, 16
     d41:	023296        	bltz	a2, d68 <fxarctan2+0xbc>
     d44:	fccfb1        	l32r	a11, 80 (4000 <inear_ast_nr_proc+0x28>)
     d47:	c0aba0        	sub	a10, a11, a10
     d4a:	ffd6e5        	call8	ab8 <_saturate16>

00000d4d <fxarctan2+0xa1>:
     d4d:	fccd91        	l32r	a9, 84 (6488 <AVC_prcs+0x3c>)
     d50:	d19a90        	mul16s	a9, a10, a9
     d53:	909940        	addx2	a9, a9, a4
     d56:	319090        	srai	a9, a9, 16

00000d59 <fxarctan2+0xad>:
     d59:	092d           	mov.n	a2, a9
     d5b:	f01d           	retw.n

00000d5d <fxarctan2+0xb1>:
     d5d:	fcca91        	l32r	a9, 88 (ffffb49b <_end+0xfffeccfb>)
     d60:	0a0c           	movi.n	a10, 0
     d62:	b39a20        	movgez	a9, a10, a2
     d65:	fffc06        	j	d59 <fxarctan2+0xad>

00000d68 <fxarctan2+0xbc>:
     d68:	fcc9b1        	l32r	a11, 8c (ffffc000 <_end+0xfffed860>)
     d6b:	c0aba0        	sub	a10, a11, a10
     d6e:	ffd4a5        	call8	ab8 <_saturate16>
     d71:	fff606        	j	d4d <fxarctan2+0xa1>

00000d74 <fxarctan2+0xc8>:
     d74:	80daa2        	addmi	a10, a10, 0xffff8000
     d77:	ffd425        	call8	ab8 <_saturate16>
     d7a:	fff3c6        	j	d4d <fxarctan2+0xa1>

00000d7d <fxarctan2+0xd1>:
     d7d:	000000                                        ...

00000d80 <fxsqrt_ie>:
     d80:	004136        	entry	a1, 32
     d83:	063216        	beqz	a2, dea <fxsqrt_ie+0x6a>
     d86:	fcbc31        	l32r	a3, 78 (8000 <xtensa_fft8_32b+0x28>)
     d89:	fcb761        	l32r	a6, 68 (96d0 <TABLE_IE_43>)
     d8c:	090c           	movi.n	a9, 0
     d8e:	f40c           	movi.n	a4, 15
     d90:	40e280        	nsa	a8, a2
     d93:	401800        	ssl	a8
     d96:	c04480        	sub	a4, a4, a8
     d99:	a17200        	sll	a7, a2
     d9c:	044040        	extui	a4, a4, 0, 1
     d9f:	400400        	ssr	a4
     da2:	c04480        	sub	a4, a4, a8
     da5:	b17070        	sra	a7, a7
     da8:	417970        	srli	a7, a7, 9
     dab:	44fb           	addi.n	a4, a4, 15
     dad:	315070        	srai	a5, a7, 16
     db0:	f0c552        	addi	a5, a5, -16
     db3:	535590        	max	a5, a5, a9
     db6:	905560        	addx2	a5, a5, a6
     db9:	256d           	ae_l16si.n	a6, a5, 0
     dbb:	355d           	ae_l16si.n	a5, a5, 2
     dbd:	214140        	srai	a4, a4, 1
     dc0:	300774        	ae_cvtp24a16x2.ll	aep0, a7, a7
     dc3:	c05560        	sub	a5, a5, a6
     dc6:	116600        	slli	a6, a6, 16
     dc9:	115500        	slli	a5, a5, 16
     dcc:	36c534        	ae_cvtq48a32s	aeq3, a5
     dcf:	368634        	ae_cvtq48a32s	aeq2, a6
     dd2:	d7e13ec37f 	{ ae_cvtq48a32s	aeq1, a3; ae_mulaq32sp16u.l	aeq2, aeq3, aep0 }
     dd7:	f9c442        	addi	a4, a4, -7
     dda:	fc24fea40f 	{ ae_slaasq56s	aeq0, aeq2, a4; nop }
     ddf:	0109c4        	ae_addq56	aeq0, aeq0, aeq1
     de2:	368204        	ae_trunca32q48	a2, aeq0
     de5:	312020        	srai	a2, a2, 16
     de8:	f01d           	retw.n

00000dea <fxsqrt_ie+0x6a>:
     dea:	020c           	movi.n	a2, 0
     dec:	f01d           	retw.n

00000dee <fxsqrt_ie+0x6e>:
	...

00000df0 <fxlog10>:
     df0:	004136        	entry	a1, 32
     df3:	42cc           	bnez.n	a2, dfb <fxlog10+0xb>
     df5:	fc9b21        	l32r	a2, 64 (ffff8000 <_end+0xfffe9860>)
     df8:	f01d           	retw.n

00000dfa <fxlog10+0xa>:
	...

00000dfb <fxlog10+0xb>:
     dfb:	530c           	movi.n	a3, 5
     dfd:	fca541        	l32r	a4, 94 (241f8 <_end+0x15a58>)
     e00:	fc9691        	l32r	a9, 58 (80000000 <_end+0x7fff1860>)
     e03:	fca3a1        	l32r	a10, 90 (2688 <fn_ini_win_detection+0x14>)
     e06:	050c           	movi.n	a5, 0
     e08:	40e2b0        	nsa	a11, a2
     e0b:	fca4c1        	l32r	a12, 9c (ffff0000 <_end+0xfffe1860>)
     e0e:	36cc34        	ae_cvtq48a32s	aeq3, a12
     e11:	bb1b           	addi.n	a11, a11, 1
     e13:	8bbd           	ae_sext16	a11, a11
     e15:	b35b20        	movgez	a5, a11, a2
     e18:	401500        	ssl	a5
     e1b:	a18200        	sll	a8, a2
     e1e:	d155a0        	mul16s	a5, a5, a10
     e21:	fc9d21        	l32r	a2, 98 (9770 <log_coef_49>)
     e24:	889a           	add.n	a8, a8, a9
     e26:	c04450        	sub	a4, a4, a5
     e29:	f58080        	extui	a8, a8, 16, 16
     e2c:	302884        	ae_cvtp24a16x2.ll	aep2, a8, a8
     e2f:	114480        	slli	a4, a4, 8
     e32:	408204        	ae_lp16f.iu	aep0, a2, 0
     e35:	360434        	ae_cvtq48a32s	aeq0, a4
     e38:	f86afa820f 	{ ae_slliq56	aeq0, aeq0, 8; ae_movp48	aep1, aep2 }
     e3d:	0aa376        	loopgtz	a3, e4b <fxlog10+0x5b>
     e40:	011a74        	ae_mulfp24s.ll	aeq1, aep1, aep2
     e43:	020134        	ae_mulap24s.ll	aeq0, aep0, aep1
     e46:	f86bec821f 	{ ae_lp16f.iu	aep0, a2, 2; ae_roundsp16q48asym	aep1, aeq1 }

00000e4b <fxlog10+0x5b>:
     e4b:	3580f4        	ae_sraiq56	aeq2, aeq0, 3
     e4e:	01b2e4        	ae_andq56	aeq2, aeq2, aeq3
     e51:	1baf04        	ae_roundsp16q48asym	aep0, aeq2
     e54:	360224        	ae_trunca16p24s.l	a2, aep0
     e57:	f01d           	retw.n

00000e59 <fxlog10+0x69>:
     e59:	000000                                        ...

00000e5c <fxln>:
     e5c:	004136        	entry	a1, 32
     e5f:	42cc           	bnez.n	a2, e67 <fxln+0xb>
     e61:	fc8021        	l32r	a2, 64 (ffff8000 <_end+0xfffe9860>)
     e64:	f01d           	retw.n

00000e66 <fxln+0xa>:
	...

00000e67 <fxln+0xb>:
     e67:	530c           	movi.n	a3, 5
     e69:	fc8e41        	l32r	a4, a4 (29973 <_end+0x1b1d3>)
     e6c:	fc7b91        	l32r	a9, 58 (80000000 <_end+0x7fff1860>)
     e6f:	fc8ca1        	l32r	a10, a0 (2c5d <fn_low_bin_noise_est+0x145>)
     e72:	050c           	movi.n	a5, 0
     e74:	40e2b0        	nsa	a11, a2
     e77:	fc89c1        	l32r	a12, 9c (ffff0000 <_end+0xfffe1860>)
     e7a:	36cc34        	ae_cvtq48a32s	aeq3, a12
     e7d:	bb1b           	addi.n	a11, a11, 1
     e7f:	8bbd           	ae_sext16	a11, a11
     e81:	b35b20        	movgez	a5, a11, a2
     e84:	401500        	ssl	a5
     e87:	a18200        	sll	a8, a2
     e8a:	d155a0        	mul16s	a5, a5, a10
     e8d:	fc8621        	l32r	a2, a8 (9780 <ln_coef_51>)
     e90:	889a           	add.n	a8, a8, a9
     e92:	c04450        	sub	a4, a4, a5
     e95:	f58080        	extui	a8, a8, 16, 16
     e98:	302884        	ae_cvtp24a16x2.ll	aep2, a8, a8
     e9b:	114480        	slli	a4, a4, 8
     e9e:	408204        	ae_lp16f.iu	aep0, a2, 0
     ea1:	360434        	ae_cvtq48a32s	aeq0, a4
     ea4:	f86afa820f 	{ ae_slliq56	aeq0, aeq0, 8; ae_movp48	aep1, aep2 }
     ea9:	0aa376        	loopgtz	a3, eb7 <fxln+0x5b>
     eac:	011a74        	ae_mulfp24s.ll	aeq1, aep1, aep2
     eaf:	020134        	ae_mulap24s.ll	aeq0, aep0, aep1
     eb2:	f86bec821f 	{ ae_lp16f.iu	aep0, a2, 2; ae_roundsp16q48asym	aep1, aeq1 }

00000eb7 <fxln+0x5b>:
     eb7:	3580f4        	ae_sraiq56	aeq2, aeq0, 3
     eba:	01b2e4        	ae_andq56	aeq2, aeq2, aeq3
     ebd:	1baf04        	ae_roundsp16q48asym	aep0, aeq2
     ec0:	360224        	ae_trunca16p24s.l	a2, aep0
     ec3:	f01d           	retw.n

00000ec5 <fxln+0x69>:
     ec5:	000000                                        ...

00000ec8 <_saturate16>:
     ec8:	004136        	entry	a1, 32
     ecb:	fc6451        	l32r	a5, 5c (7fff <xtensa_fft8_32b+0x27>)
     ece:	fc6431        	l32r	a3, 60 (ffff7fff <_end+0xfffe985f>)
     ed1:	03a527        	bge	a5, a2, ed8 <_saturate16+0x10>
     ed4:	052d           	mov.n	a2, a5
     ed6:	f01d           	retw.n

00000ed8 <_saturate16+0x10>:
     ed8:	042327        	blt	a3, a2, ee0 <_saturate16+0x18>
     edb:	fc6221        	l32r	a2, 64 (ffff8000 <_end+0xfffe9860>)
     ede:	f01d           	retw.n

00000ee0 <_saturate16+0x18>:
     ee0:	822d           	ae_sext16	a2, a2
     ee2:	f01d           	retw.n

00000ee4 <_saturate32>:
     ee4:	004136        	entry	a1, 32
     ee7:	fc5a71        	l32r	a7, 50 (7fffffff <_end+0x7fff185f>)
     eea:	060c           	movi.n	a6, 0
     eec:	006396        	bltz	a3, ef6 <_saturate32+0x12>
     eef:	13cc           	bnez.n	a3, ef4 <_saturate32+0x10>
     ef1:	01b727        	bgeu	a7, a2, ef6 <_saturate32+0x12>

00000ef4 <_saturate32+0x10>:
     ef4:	160c           	movi.n	a6, 1

00000ef6 <_saturate32+0x12>:
     ef6:	468c           	beqz.n	a6, efe <_saturate32+0x1a>
     ef8:	fc5631        	l32r	a3, 50 (7fffffff <_end+0x7fff185f>)
     efb:	000546        	j	f14 <_saturate32+0x30>

00000efe <_saturate32+0x1a>:
     efe:	fc5471        	l32r	a7, 50 (7fffffff <_end+0x7fff185f>)
     f01:	060c           	movi.n	a6, 0
     f03:	0073d6        	bgez	a3, f0e <_saturate32+0x2a>
     f06:	020366        	bnei	a3, -1, f0c <_saturate32+0x28>
     f09:	013727        	bltu	a7, a2, f0e <_saturate32+0x2a>

00000f0c <_saturate32+0x28>:
     f0c:	160c           	movi.n	a6, 1

00000f0e <_saturate32+0x2a>:
     f0e:	fc5231        	l32r	a3, 58 (80000000 <_end+0x7fff1860>)
     f11:	833260        	moveqz	a3, a2, a6

00000f14 <_saturate32+0x30>:
     f14:	032d           	mov.n	a2, a3
     f16:	f01d           	retw.n

00000f18 <_saturate24>:
     f18:	004136        	entry	a1, 32
     f1b:	fc6471        	l32r	a7, ac (7fffff00 <_end+0x7fff1760>)
     f1e:	060c           	movi.n	a6, 0
     f20:	006396        	bltz	a3, f2a <_saturate24+0x12>
     f23:	13cc           	bnez.n	a3, f28 <_saturate24+0x10>
     f25:	01b727        	bgeu	a7, a2, f2a <_saturate24+0x12>

00000f28 <_saturate24+0x10>:
     f28:	160c           	movi.n	a6, 1

00000f2a <_saturate24+0x12>:
     f2a:	468c           	beqz.n	a6, f32 <_saturate24+0x1a>
     f2c:	fc6031        	l32r	a3, ac (7fffff00 <_end+0x7fff1760>)
     f2f:	000546        	j	f48 <_saturate24+0x30>

00000f32 <_saturate24+0x1a>:
     f32:	fc4771        	l32r	a7, 50 (7fffffff <_end+0x7fff185f>)
     f35:	060c           	movi.n	a6, 0
     f37:	0073d6        	bgez	a3, f42 <_saturate24+0x2a>
     f3a:	020366        	bnei	a3, -1, f40 <_saturate24+0x28>
     f3d:	013727        	bltu	a7, a2, f42 <_saturate24+0x2a>

00000f40 <_saturate24+0x28>:
     f40:	160c           	movi.n	a6, 1

00000f42 <_saturate24+0x2a>:
     f42:	fc4531        	l32r	a3, 58 (80000000 <_end+0x7fff1860>)
     f45:	833260        	moveqz	a3, a2, a6

00000f48 <_saturate24+0x30>:
     f48:	032d           	mov.n	a2, a3
     f4a:	f01d           	retw.n

00000f4c <mel_filter>:
     f4c:	004136        	entry	a1, 32
     f4f:	fc58c1        	l32r	a12, b0 (e460 <all_amt_tab>)
     f52:	fcc3a2        	addi	a10, a3, -4
     f55:	a0b440        	addx4	a11, a4, a4
     f58:	b0bbc0        	addx8	a11, a11, a12
     f5b:	2b4d           	ae_l16si.n	a4, a11, 0
     f5d:	7b88           	l32i.n	a8, a11, 28
     f5f:	2bb8           	l32i.n	a11, a11, 8
     f61:	3d14a6        	blti	a4, 1, fa2 <mel_filter+0x56>
     f64:	90c480        	addx2	a12, a4, a8
     f67:	fe2480007f 	{ movi	a7, 0; ae_zeroq56	aeq2 }
     f6c:	fc145137bf 	{ addx2	a3, a7, a11; ae_movq56	aeq0, aeq2 }

00000f71 <mel_filter+0x25>:
     f71:	28dd           	ae_l16si.n	a13, a8, 0
     f73:	029892        	l16si	a9, a8, 4
     f76:	408304        	ae_lp16f.iu	aep0, a3, 0
     f79:	a04d20        	addx4	a4, a13, a2
     f7c:	c099d0        	sub	a9, a9, a13
     f7f:	444b           	addi.n	a4, a4, 4
     f81:	605404        	ae_lq32f.iu	aeq1, a4, 0
     f84:	990b           	addi.n	a9, a9, -1
     f86:	07a976        	loopgtz	a9, f91 <mel_filter+0x45>
     f89:	f483bd341f 	{ ae_lq32f.iu	aeq1, a4, 4; ae_mulafq32sp16s.l	aeq0, aeq1, aep0 }
     f8e:	408314        	ae_lp16f.iu	aep0, a3, 2

00000f91 <mel_filter+0x45>:
     f91:	882b           	addi.n	a8, a8, 2
     f93:	779a           	add.n	a7, a7, a9
     f95:	f8679137bf 	{ addx2	a3, a7, a11; ae_roundsp24q48asym	aep0, aeq0 }
     f9a:	fc14748a1f 	{ ae_sp24f.l.iu	aep0, a10, 4; ae_movq56	aeq0, aeq2 }
     f9f:	ce98c7        	bne	a8, a12, f71 <mel_filter+0x25>

00000fa2 <mel_filter+0x56>:
     fa2:	f01d           	retw.n

00000fa4 <mel_filter16>:
     fa4:	004136        	entry	a1, 32
     fa7:	fc42c1        	l32r	a12, b0 (e460 <all_amt_tab>)
     faa:	fec3a2        	addi	a10, a3, -2
     fad:	a0b440        	addx4	a11, a4, a4
     fb0:	b0bbc0        	addx8	a11, a11, a12
     fb3:	2b4d           	ae_l16si.n	a4, a11, 0
     fb5:	7b88           	l32i.n	a8, a11, 28
     fb7:	2bb8           	l32i.n	a11, a11, 8
     fb9:	3d14a6        	blti	a4, 1, ffa <mel_filter16+0x56>
     fbc:	90c480        	addx2	a12, a4, a8
     fbf:	fd2480007f 	{ movi	a7, 0; ae_zeroq56	aeq1 }
     fc4:	fc0c5137bf 	{ addx2	a3, a7, a11; ae_movq56	aeq0, aeq1 }

00000fc9 <mel_filter16+0x25>:
     fc9:	28dd           	ae_l16si.n	a13, a8, 0
     fcb:	029892        	l16si	a9, a8, 4
     fce:	408304        	ae_lp16f.iu	aep0, a3, 0
     fd1:	904d20        	addx2	a4, a13, a2
     fd4:	c099d0        	sub	a9, a9, a13
     fd7:	442b           	addi.n	a4, a4, 2
     fd9:	409404        	ae_lp16f.iu	aep1, a4, 0
     fdc:	990b           	addi.n	a9, a9, -1
     fde:	07a976        	loopgtz	a9, fe9 <mel_filter16+0x45>
     fe1:	e207ac941f 	{ ae_lp16f.iu	aep1, a4, 2; ae_mulafp24s.ll	aeq0, aep1, aep0 }
     fe6:	408314        	ae_lp16f.iu	aep0, a3, 2

00000fe9 <mel_filter16+0x45>:
     fe9:	882b           	addi.n	a8, a8, 2
     feb:	779a           	add.n	a7, a7, a9
     fed:	f8e39137bf 	{ addx2	a3, a7, a11; ae_roundsp16q48sym	aep0, aeq0 }
     ff2:	fc0c728a1f 	{ ae_sp16f.l.iu	aep0, a10, 2; ae_movq56	aeq0, aeq1 }
     ff7:	ce98c7        	bne	a8, a12, fc9 <mel_filter16+0x25>

00000ffa <mel_filter16+0x56>:
     ffa:	f01d           	retw.n

00000ffc <inv_mel_filter>:
     ffc:	004136        	entry	a1, 32
     fff:	80a052        	movi	a5, 128
    1002:	02d3b2        	addmi	a11, a3, 0x200
    1005:	fc2a71        	l32r	a7, b0 (e460 <all_amt_tab>)
    1008:	a06440        	addx4	a6, a4, a4
    100b:	0a0c           	movi.n	a10, 0
    100d:	fcc342        	addi	a4, a3, -4
    1010:	b06670        	addx8	a6, a6, a7
    1013:	1698           	l32i.n	a9, a6, 4
    1015:	2678           	l32i.n	a7, a6, 8
    1017:	072682        	l32i	a8, a6, 28
    101a:	fc20a0066e 	{ l16si	a6, a6, 0; ae_zerop48	aep0 }
    101f:	6bad           	ae_s16i.n	a10, a11, 0
    1021:	02a576        	loopgtz	a5, 1027 <inv_mel_filter+0x2b>
    1024:	468414        	ae_sp16x2f.iu	aep0, a4, 4

00001027 <inv_mel_filter+0x2b>:
    1027:	508904        	ae_lp24f.iu	aep0, a9, 0
    102a:	40a204        	ae_lp16f.iu	aep2, a2, 0
    102d:	409704        	ae_lp16f.iu	aep1, a7, 0
    1030:	3e16a6        	blti	a6, 1, 1072 <inv_mel_filter+0x76>
    1033:	ea4191a68f 	{ addx2	a10, a6, a8; ae_mulfp24s.ll	aeq0, aep0, aep2 }

00001038 <inv_mel_filter+0x3c>:
    1038:	284d           	ae_l16si.n	a4, a8, 0
    103a:	0298b2        	l16si	a11, a8, 4
    103d:	882b           	addi.n	a8, a8, 2
    103f:	441b           	addi.n	a4, a4, 1
    1041:	844d           	ae_sext16	a4, a4
    1043:	c0bb40        	sub	a11, a11, a4
    1046:	904430        	addx2	a4, a4, a3
    1049:	f967ac840f 	{ ae_lp16f.iu	aep0, a4, 0; ae_roundsp24q48asym	aep2, aeq0 }
    104e:	14ab76        	loopgtz	a11, 1066 <inv_mel_filter+0x6a>
    1051:	012974        	ae_mulfp24s.ll	aeq1, aep2, aep1
    1054:	1b9d34        	ae_roundsp24q48asym	aep3, aeq1
    1057:	0bb414        	ae_sllisp24s	aep1, aep3, 8
    105a:	079004        	ae_addsp24s	aep0, aep1, aep0
    105d:	428404        	ae_sp16f.l.iu	aep0, a4, 0
    1060:	408414        	ae_lp16f.iu	aep0, a4, 2
    1063:	409714        	ae_lp16f.iu	aep1, a7, 2

00001066 <inv_mel_filter+0x6a>:
    1066:	40a214        	ae_lp16f.iu	aep2, a2, 2
    1069:	508914        	ae_lp24f.iu	aep0, a9, 4
    106c:	010274        	ae_mulfp24s.ll	aeq0, aep0, aep2
    106f:	c598a7        	bne	a8, a10, 1038 <inv_mel_filter+0x3c>

00001072 <inv_mel_filter+0x76>:
    1072:	f01d           	retw.n

00001074 <calc_amt>:
    1074:	012136        	entry	a1, 144
    1077:	9129           	s32i.n	a2, a1, 36
    1079:	62cb           	addi.n	a6, a2, 12
    107b:	4159           	s32i.n	a5, a1, 16
    107d:	6149           	s32i.n	a4, a1, 24
    107f:	039d           	mov.n	a9, a3
    1081:	0199           	s32i.n	a9, a1, 0
    1083:	fc0b41        	l32r	a4, b0 (e460 <all_amt_tab>)
    1086:	049232        	l16si	a3, a2, 8
    1089:	78c152        	addi	a5, a1, 120
    108c:	605604        	ae_lq32f.iu	aeq1, a6, 0
    108f:	6315b4        	ae_sq56s.i	aeq1, a5, -40
    1092:	330b           	addi.n	a3, a3, -1
    1094:	833d           	ae_sext16	a3, a3
    1096:	5139           	s32i.n	a3, a1, 20
    1098:	a03330        	addx4	a3, a3, a3
    109b:	b03340        	addx8	a3, a3, a4
    109e:	4348           	l32i.n	a4, a3, 16
    10a0:	6388           	l32i.n	a8, a3, 24
    10a2:	3358           	l32i.n	a5, a3, 12
    10a4:	53a8           	l32i.n	a10, a3, 20
    10a6:	11a9           	s32i.n	a10, a1, 4
    10a8:	3159           	s32i.n	a5, a1, 12
    10aa:	2189           	s32i.n	a8, a1, 8
    10ac:	8358           	l32i.n	a5, a3, 32
    10ae:	238d           	ae_l16si.n	a8, a3, 0
    10b0:	fc248781ae 	{ addi	a10, a1, 120; ae_zeroq56	aeq0 }
    10b5:	630aa4        	ae_sq56s.i	aeq0, a10, -48
    10b8:	082d           	mov.n	a2, a8
    10ba:	fc20a0133e 	{ l16si	a3, a3, 2; ae_zerop48	aep0 }
    10bf:	4118a6        	blti	a8, 1, 1104 <calc_amt+0x90>
    10c2:	070c           	movi.n	a7, 0
    10c4:	560ad4        	ae_sp24x2s.i	aep0, a10, -24

000010c7 <calc_amt+0x53>:
    10c7:	fbfb81        	l32r	a8, b4 (e5c <fxln>)
    10ca:	78c192        	addi	a9, a1, 120
    10cd:	61c9b4        	ae_lq56.i	aeq3, a9, -40
    10d0:	35f2f4        	ae_sraiq56	aeq3, aeq3, 11
    10d3:	06b934        	ae_roundsq32asym	aeq2, aeq3
    10d6:	36aa04        	ae_trunca32q48	a10, aeq2
    10d9:	0008e0        	callx8	a8
    10dc:	771b           	addi.n	a7, a7, 1
    10de:	301aa4        	ae_cvtp24a16x2.ll	aep1, a10, a10
    10e1:	78c1f2        	addi	a15, a1, 120
    10e4:	610fb4        	ae_lq56.i	aeq0, a15, -40
    10e7:	cc44700fdf 	{ ae_lp24x2.i	aep0, a15, -24; ae_sraip24	aep1, aep1, 8 }
    10ec:	d8213dafaf 	{ ae_lq56.i	aeq1, a15, -48; ae_addsp24s	aep0, aep0, aep1 }
    10f1:	560fd4        	ae_sp24x2s.i	aep0, a15, -24
    10f4:	fa6a3d161f 	{ ae_lq32f.iu	aeq0, a6, 4; ae_addq56	aeq2, aeq1, aeq0 }
    10f9:	fd80fa0fbf 	{ ae_sq56s.i	aeq0, a15, -40; ae_satq48s	aeq1, aeq2 }
    10fe:	631fa4        	ae_sq56s.i	aeq1, a15, -48
    1101:	c29277        	bne	a2, a7, 10c7 <calc_amt+0x53>

00001104 <calc_amt+0x90>:
    1104:	fbed81        	l32r	a8, b8 (b38 <fxexp>)
    1107:	302334        	ae_cvtp24a16x2.ll	aep2, a3, a3
    110a:	ea418781ae 	{ addi	a10, a1, 120; ae_mulfp24s.ll	aeq0, aep0, aep2 }
    110f:	61caa4        	ae_lq56.i	aeq3, a10, -48
    1112:	d7eb3b020f 	{ ae_sraiq56	aeq0, aeq0, 8; ae_mulfq32sp16s.l	aeq2, aeq3, aep2 }
    1117:	fd2447819e 	{ addi	a9, a1, 120; ae_roundsq32asym	aeq1, aeq0 }
    111c:	355154        	ae_slliq56	aeq1, aeq1, 5
    111f:	fc347f1aef 	{ ae_trunca32q48	a10, aeq1; ae_roundsq32asym	aeq0, aeq2 }
    1124:	35c114        	ae_slliq56	aeq3, aeq0, 4
    1127:	6339a4        	ae_sq56s.i	aeq3, a9, -48
    112a:	0008e0        	callx8	a8
    112d:	78c1b2        	addi	a11, a1, 120
    1130:	614ba4        	ae_lq56.i	aeq1, a11, -48
    1133:	369d04        	ae_trunca32q48	a13, aeq1
    1136:	3dcc           	bnez.n	a13, 113d <calc_amt+0xc9>
    1138:	0d0c           	movi.n	a13, 0
    113a:	000bc6        	j	116d <calc_amt+0xf9>

0000113d <calc_amt+0xc9>:
    113d:	052ad7        	blt	a10, a13, 1146 <calc_amt+0xd2>
    1140:	fbc7d1        	l32r	a13, 5c (7fff <xtensa_fft8_32b+0x27>)
    1143:	000986        	j	116d <calc_amt+0xf9>

00001146 <calc_amt+0xd2>:
    1146:	364d34        	ae_cvtq48a32s	aeq1, a13
    1149:	36ca34        	ae_cvtq48a32s	aeq3, a10
    114c:	40edf0        	nsa	a15, a13
    114f:	8ffd           	ae_sext16	a15, a15
    1151:	fc24febf8f 	{ ae_slaasq56s	aeq2, aeq3, a15; nop }
    1156:	fc80cf1ffe 	{ addi	a15, a15, -15; ae_satq48s	aeq0, aeq2 }
    115b:	fc24fe9fcf 	{ ae_slaasq56s	aeq3, aeq1, a15; nop }
    1160:	fe84ff0def 	{ ae_trunca32q48	a13, aeq0; ae_satq48s	aeq2, aeq3 }
    1165:	36ae04        	ae_trunca32q48	a14, aeq2
    1168:	d2dde0        	quos	a13, a13, a14
    116b:	addd           	ae_clamps16	a13, a13
    116d:	fbd381        	l32r	a8, bc (df0 <fxlog10>)
    1170:	364d34        	ae_cvtq48a32s	aeq1, a13
    1173:	355054        	ae_slliq56	aeq1, aeq1, 1
    1176:	060944        	ae_satq48s	aeq0, aeq1
    1179:	368a04        	ae_trunca32q48	a10, aeq0
    117c:	0008e0        	callx8	a8
    117f:	a0aaa0        	addx4	a10, a10, a10
    1182:	3aadb2        	movi	a11, 0xfffffd3a
    1185:	303bb4        	ae_cvtp24a16x2.ll	aep3, a11, a11
    1188:	11aaf0        	slli	a10, a10, 1
    118b:	360a34        	ae_cvtq48a32s	aeq0, a10
    118e:	033214        	ae_mulfq32sp16s.l	aeq0, aeq0, aep3
    1191:	166152        	s32i	a5, a1, 88
    1194:	36c4d4        	ae_sllisq56s	aeq3, aeq0, 19
    1197:	fe84d3744f 	{ or	a7, a4, a4; ae_satq48s	aeq2, aeq3 }
    119c:	f8f3ec870f 	{ ae_lp16f.iu	aep0, a7, 0; ae_roundsp16q48sym	aep1, aeq2 }
    11a1:	361924        	ae_trunca16p24s.l	a9, aep1
    11a4:	7199           	s32i.n	a9, a1, 28
    11a6:	0212e6        	bgei	a2, 1, 11ac <calc_amt+0x138>
    11a9:	006346        	j	133a <calc_amt+0x2c6>
    11ac:	0138           	l32i.n	a3, a1, 0
    11ae:	3158           	l32i.n	a5, a1, 12
    11b0:	561174        	ae_sp24x2s.i	aep1, a1, 56
    11b3:	9148           	l32i.n	a4, a1, 36
    11b5:	fbc2e1        	l32r	a14, c0 (ccd <fxarctan2+0x21>)
    11b8:	fbc3d1        	l32r	a13, c4 (b00 <HIFI_sqrt_ie+0x2c>)
    11bb:	2188           	l32i.n	a8, a1, 8
    11bd:	1621c2        	l32i	a12, a1, 88
    11c0:	11b8           	l32i.n	a11, a1, 4
    11c2:	d1b9           	s32i.n	a11, a1, 52
    11c4:	b1c9           	s32i.n	a12, a1, 44
    11c6:	c189           	s32i.n	a8, a1, 48
    11c8:	78c1c2        	addi	a12, a1, 120
    11cb:	304de4        	ae_cvtp24a16x2.ll	aep4, a13, a14
    11ce:	908280        	addx2	a8, a2, a8
    11d1:	8189           	s32i.n	a8, a1, 32
    11d3:	564c94        	ae_sp24x2s.i	aep4, a12, -56
    11d6:	a02240        	addx4	a2, a2, a4
    11d9:	fc24b0614e 	{ l32i	a4, a1, 24; ae_zeroq56	aeq0 }

000011de <calc_amt+0x16a>:
    11de:	9188           	l32i.n	a8, a1, 36
    11e0:	c168           	l32i.n	a6, a1, 48
    11e2:	d1d8           	l32i.n	a13, a1, 52
    11e4:	78c1e2        	addi	a14, a1, 120
    11e7:	266d           	ae_l16si.n	a6, a6, 0
    11e9:	560ee4        	ae_sp24x2s.i	aep0, a14, -16
    11ec:	2ddd           	ae_l16si.n	a13, a13, 0
    11ee:	a06680        	addx4	a6, a6, a8
    11f1:	66cb           	addi.n	a6, a6, 12
    11f3:	605604        	ae_lq32f.iu	aeq1, a6, 0
    11f6:	0dad76        	loopgtz	a13, 1207 <calc_amt+0x193>
    11f9:	78c182        	addi	a8, a1, 120
    11fc:	f403bd361f 	{ ae_lq32f.iu	aeq1, a6, 4; ae_mulafq32sp16s.h	aeq0, aeq1, aep0 }
    1201:	408714        	ae_lp16f.iu	aep0, a7, 2
    1204:	5608e4        	ae_sp24x2s.i	aep0, a8, -16

00001207 <calc_amt+0x193>:
    1207:	fbad81        	l32r	a8, bc (df0 <fxlog10>)
    120a:	404b00        	ssai	11
    120d:	78c1d2        	addi	a13, a1, 120
    1210:	543174        	ae_lp24x2.i	aep3, a1, 56
    1213:	7198           	l32i.n	a9, a1, 28
    1215:	fb91e1        	l32r	a14, 5c (7fff <xtensa_fft8_32b+0x27>)
    1218:	fc2470b1fe 	{ l32i	a15, a1, 44; ae_roundsq32asym	aeq0, aeq0 }
    121d:	368a04        	ae_trunca32q48	a10, aeq0
    1220:	302ee4        	ae_cvtp24a16x2.ll	aep2, a14, a14
    1223:	2ffd           	ae_l16si.n	a15, a15, 0
    1225:	31cfa0        	srai	a12, a10, 31
    1228:	04dab2        	addmi	a11, a10, 0x400
    122b:	d1ff90        	mul16s	a15, a15, a9
    122e:	36cf34        	ae_cvtq48a32s	aeq3, a15
    1231:	dc6afab0df 	{ ae_slliq56	aeq3, aeq3, 1; ae_subsp24s	aep1, aep2, aep3 }
    1236:	fe84f00d9f 	{ ae_lp24x2.i	aep0, a13, -56; ae_satq48s	aeq2, aeq3 }
    123b:	009024        	ae_mulafs32p16s.lh	aeq2, aep1, aep0
    123e:	62aba0        	saltu	a10, a11, a10
    1241:	1bae74        	ae_roundsp16q48sym	aep7, aeq2
    1244:	ea1f50aacf 	{ add	a10, a10, a12; ae_mulfs32p16s.ll	aeq1, aep7, aep0 }
    1249:	81aab0        	src	a10, a10, a11
    124c:	1b9e64        	ae_roundsp16q48sym	aep6, aeq1
    124f:	366924        	ae_trunca16p24s.l	a9, aep6
    1252:	a199           	s32i.n	a9, a1, 40
    1254:	0008e0        	callx8	a8
    1257:	0a6d           	mov.n	a6, a10
    1259:	a1a8           	l32i.n	a10, a1, 40
    125b:	11aad0        	slli	a10, a10, 3
    125e:	ffc6a5        	call8	ec8 <_saturate16>
    1261:	c0a6a0        	sub	a10, a6, a10
    1264:	ffc625        	call8	ec8 <_saturate16>
    1267:	fb98b1        	l32r	a11, c8 (49af <inear_ast_nr_proc+0x9d7>)
    126a:	fb9381        	l32r	a8, b8 (b38 <fxexp>)
    126d:	d1aab0        	mul16s	a10, a10, a11
    1270:	404900        	ssai	9
    1273:	31cfa0        	srai	a12, a10, 31
    1276:	01dab2        	addmi	a11, a10, 0x100
    1279:	62aba0        	saltu	a10, a11, a10
    127c:	aaca           	add.n	a10, a10, a12
    127e:	81aab0        	src	a10, a10, a11
    1281:	0008e0        	callx8	a8
    1284:	404504        	ae_lp16f.i	aep4, a5, 0
    1287:	360a34        	ae_cvtq48a32s	aeq0, a10
    128a:	034214        	ae_mulfq32sp16s.l	aeq0, aeq0, aep4
    128d:	36c054        	ae_sllisq56s	aeq3, aeq0, 1
    1290:	068b44        	ae_satq48s	aeq2, aeq3
    1293:	fd347032ee 	{ l32i	a14, a2, 12; ae_roundsq32asym	aeq1, aeq2 }
    1298:	369f04        	ae_trunca32q48	a15, aeq1
    129b:	03d8           	l32i.n	a13, a3, 0
    129d:	53eef0        	max	a14, a14, a15
    12a0:	3dcc           	bnez.n	a13, 12a7 <calc_amt+0x233>
    12a2:	0d0c           	movi.n	a13, 0
    12a4:	000bc6        	j	12d7 <calc_amt+0x263>

000012a7 <calc_amt+0x233>:
    12a7:	052ed7        	blt	a14, a13, 12b0 <calc_amt+0x23c>
    12aa:	fb6cd1        	l32r	a13, 5c (7fff <xtensa_fft8_32b+0x27>)
    12ad:	000986        	j	12d7 <calc_amt+0x263>

000012b0 <calc_amt+0x23c>:
    12b0:	360d34        	ae_cvtq48a32s	aeq0, a13
    12b3:	368e34        	ae_cvtq48a32s	aeq2, a14
    12b6:	40ed80        	nsa	a8, a13
    12b9:	888d           	ae_sext16	a8, a8
    12bb:	fc24fea84f 	{ ae_slaasq56s	aeq1, aeq2, a8; nop }
    12c0:	ff04cf188e 	{ addi	a8, a8, -15; ae_satq48s	aeq3, aeq1 }
    12c5:	fc24fe888f 	{ ae_slaasq56s	aeq2, aeq0, a8; nop }
    12ca:	fd80ff3def 	{ ae_trunca32q48	a13, aeq3; ae_satq48s	aeq1, aeq2 }
    12cf:	369f04        	ae_trunca32q48	a15, aeq1
    12d2:	d2ddf0        	quos	a13, a13, a15
    12d5:	addd           	ae_clamps16	a13, a13
    12d7:	fb7781        	l32r	a8, b4 (e5c <fxln>)
    12da:	404300        	ssai	3
    12dd:	31cfd0        	srai	a12, a13, 31
    12e0:	bd4b           	addi.n	a11, a13, 4
    12e2:	62abd0        	saltu	a10, a11, a13
    12e5:	aaca           	add.n	a10, a10, a12
    12e7:	81aab0        	src	a10, a10, a11
    12ea:	0008e0        	callx8	a8
    12ed:	fb7281        	l32r	a8, b8 (b38 <fxexp>)
    12f0:	360a34        	ae_cvtq48a32s	aeq0, a10
    12f3:	350154        	ae_slliq56	aeq0, aeq0, 5
    12f6:	06c844        	ae_satq48s	aeq3, aeq0
    12f9:	36ba04        	ae_trunca32q48	a10, aeq3
    12fc:	0008e0        	callx8	a8
    12ff:	364a34        	ae_cvtq48a32s	aeq1, a10
    1302:	faebe004ae 	{ l16si	a10, a4, 0; ae_roundsp16q48sym	aep5, aeq1 }
    1307:	365b24        	ae_trunca16p24s.l	a11, aep5
    130a:	aaba           	add.n	a10, a10, a11
    130c:	ffbba5        	call8	ec8 <_saturate16>
    130f:	09c4a4        	ae_s16ip	a10, a4, 2
    1312:	224b           	addi.n	a2, a2, 4
    1314:	334b           	addi.n	a3, a3, 4
    1316:	552b           	addi.n	a5, a5, 2
    1318:	81d8           	l32i.n	a13, a1, 32
    131a:	b1f8           	l32i.n	a15, a1, 44
    131c:	d1e8           	l32i.n	a14, a1, 52
    131e:	c1c8           	l32i.n	a12, a1, 48
    1320:	78c182        	addi	a8, a1, 120
    1323:	5408e4        	ae_lp24x2.i	aep0, a8, -16
    1326:	cc2b           	addi.n	a12, a12, 2
    1328:	ee2b           	addi.n	a14, a14, 2
    132a:	ff2b           	addi.n	a15, a15, 2
    132c:	b1f9           	s32i.n	a15, a1, 44
    132e:	d1e9           	s32i.n	a14, a1, 52
    1330:	c1c9           	s32i.n	a12, a1, 48
    1332:	fc2495ccdf 	{ sub	a12, a12, a13; ae_zeroq56	aeq0 }
    1337:	ea3c56        	bnez	a12, 11de <calc_amt+0x16a>

0000133a <calc_amt+0x2c6>:
    133a:	61a8           	l32i.n	a10, a1, 24
    133c:	fb6481        	l32r	a8, cc (ffc <inv_mel_filter>)
    133f:	41b8           	l32i.n	a11, a1, 16
    1341:	51c8           	l32i.n	a12, a1, 20
    1343:	0008e0        	callx8	a8
    1346:	f01d           	retw.n

00001348 <fn_ini_fb_noise_est>:
    1348:	004136        	entry	a1, 32
    134b:	02ad           	mov.n	a10, a2
    134d:	fb6081        	l32r	a8, d0 (8820 <xt_memset>)
    1350:	0b0c           	movi.n	a11, 0
    1352:	0ea2c2        	movi	a12, 0x20e
    1355:	0008e0        	callx8	a8
    1358:	03bd           	mov.n	a11, a3
    135a:	fb3481        	l32r	a8, 2c (8838 <xt_memcpy>)
    135d:	02ad           	mov.n	a10, a2
    135f:	cc0c           	movi.n	a12, 12
    1361:	0008e0        	callx8	a8
    1364:	18c292        	addi	a9, a2, 24
    1367:	00a1a2        	movi	a10, 0x100
    136a:	01a1b2        	movi	a11, 0x101
    136d:	02ab76        	loopgtz	a11, 1373 <fn_ini_fb_noise_est+0x2b>
    1370:	09e9a4        	ae_s32ip	a10, a9, 4

00001373 <fn_ini_fb_noise_est+0x2b>:
    1373:	f01d           	retw.n

00001375 <fn_ini_fb_noise_est+0x2d>:
    1375:	000000                                        ...

00001378 <fn_fb_noise_est>:
    1378:	004136        	entry	a1, 32
    137b:	50a304        	ae_lp24f.iu	aep2, a3, 0
    137e:	01a192        	movi	a9, 0x101
    1381:	80a0d2        	movi	a13, 128
    1384:	18c282        	addi	a8, a2, 24
    1387:	087d           	mov.n	a7, a8
    1389:	508704        	ae_lp24f.iu	aep0, a7, 0
    138c:	54ec           	bnez.n	a4, 13b5 <fn_fb_noise_est+0x3d>
    138e:	012262        	l32i	a6, a2, 4
    1391:	002242        	l32i	a4, a2, 0
    1394:	216860        	srai	a6, a6, 8
    1397:	214840        	srai	a4, a4, 8
    139a:	399464        	ae_movpa24x2	aep1, a4, a6
    139d:	11a976        	loopgtz	a9, 13b2 <fn_fb_noise_est+0x3a>
    13a0:	010144        	ae_mulfp24s.hh	aeq0, aep0, aep1
    13a3:	012134        	ae_mulafp24s.ll	aeq0, aep2, aep1
    13a6:	1b8d04        	ae_roundsp24q48asym	aep0, aeq0
    13a9:	528704        	ae_sp24f.l.iu	aep0, a7, 0
    13ac:	508714        	ae_lp24f.iu	aep0, a7, 4
    13af:	50a314        	ae_lp24f.iu	aep2, a3, 4

000013b2 <fn_fb_noise_est+0x3a>:
    13b2:	000d86        	j	13ec <fn_fb_noise_est+0x74>

000013b5 <fn_fb_noise_est+0x3d>:
    13b5:	22a8           	l32i.n	a10, a2, 8
    13b7:	80a0b2        	movi	a11, 128
    13ba:	81a092        	movi	a9, 129
    13bd:	21a8a0        	srai	a10, a10, 8
    13c0:	399aa4        	ae_movpa24x2	aep1, a10, a10
    13c3:	f03d           	nop.n
    13c5:	0ba976        	loopgtz	a9, 13d4 <fn_fb_noise_est+0x5c>
    13c8:	010944        	ae_mulfp24s.hh	aeq1, aep0, aep1
    13cb:	1b9d24        	ae_roundsp24q48asym	aep2, aeq1
    13ce:	52a704        	ae_sp24f.l.iu	aep2, a7, 0
    13d1:	508714        	ae_lp24f.iu	aep0, a7, 4

000013d4 <fn_fb_noise_est+0x5c>:
    13d4:	0322c2        	l32i	a12, a2, 12
    13d7:	21c8c0        	srai	a12, a12, 8
    13da:	399cc4        	ae_movpa24x2	aep1, a12, a12
    13dd:	0bab76        	loopgtz	a11, 13ec <fn_fb_noise_est+0x74>
    13e0:	018144        	ae_mulfp24s.hh	aeq2, aep0, aep1
    13e3:	1bad34        	ae_roundsp24q48asym	aep3, aeq2
    13e6:	52b704        	ae_sp24f.l.iu	aep3, a7, 0
    13e9:	508714        	ae_lp24f.iu	aep0, a7, 4

000013ec <fn_fb_noise_est+0x74>:
    13ec:	42e8           	l32i.n	a14, a2, 16
    13ee:	fcc532        	addi	a3, a5, -4
    13f1:	508804        	ae_lp24f.iu	aep0, a8, 0
    13f4:	21e8e0        	srai	a14, a14, 8
    13f7:	399ee4        	ae_movpa24x2	aep1, a14, a14
    13fa:	0ead76        	loopgtz	a13, 140c <fn_fb_noise_est+0x94>
    13fd:	018974        	ae_mulfp24s.ll	aeq3, aep0, aep1
    1400:	1bbd54        	ae_roundsp24q48asym	aep5, aeq3
    1403:	07d044        	ae_addsp24s	aep4, aep5, aep0
    1406:	52c314        	ae_sp24f.l.iu	aep4, a3, 4
    1409:	508814        	ae_lp24f.iu	aep0, a8, 4

0000140c <fn_fb_noise_est+0x94>:
    140c:	5248           	l32i.n	a4, a2, 20
    140e:	81a0f2        	movi	a15, 129
    1411:	214840        	srai	a4, a4, 8
    1414:	399444        	ae_movpa24x2	aep1, a4, a4
    1417:	0eaf76        	loopgtz	a15, 1429 <fn_fb_noise_est+0xb1>
    141a:	010174        	ae_mulfp24s.ll	aeq0, aep0, aep1
    141d:	1b8d74        	ae_roundsp24q48asym	aep7, aeq0
    1420:	07f064        	ae_addsp24s	aep6, aep7, aep0
    1423:	52e314        	ae_sp24f.l.iu	aep6, a3, 4
    1426:	508814        	ae_lp24f.iu	aep0, a8, 4
    1429:	f01d           	retw.n

0000142b <fn_fb_noise_est+0xb3>:
	...

0000142c <fn_ini_st_noise_est>:
    142c:	004136        	entry	a1, 32
    142f:	02ad           	mov.n	a10, a2
    1431:	fb2781        	l32r	a8, d0 (8820 <xt_memset>)
    1434:	0b0c           	movi.n	a11, 0
    1436:	5ea3c2        	movi	a12, 0x35e
    1439:	0008e0        	callx8	a8
    143c:	fb26a1        	l32r	a10, d4 (ffffb800 <_end+0xfffed060>)
    143f:	c80c           	movi.n	a8, 12
    1441:	98a4f2        	movi	a15, 0x498
    1444:	0b0c           	movi.n	a11, 0
    1446:	05d2d2        	addmi	a13, a2, 0x500
    1449:	07d2e2        	addmi	a14, a2, 0x700
    144c:	06d2c2        	addmi	a12, a2, 0x600
    144f:	6cccc2        	addi	a12, a12, 108
    1452:	90cee2        	addi	a14, a14, -112
    1455:	c8cdd2        	addi	a13, a13, -56
    1458:	9b2a           	add.n	a9, a11, a2
    145a:	99fa           	add.n	a9, a9, a15

0000145c <fn_ini_st_noise_est+0x30>:
    145c:	30cdd2        	addi	a13, a13, 48
    145f:	0ca9           	s32i.n	a10, a12, 0
    1461:	30cbb2        	addi	a11, a11, 48
    1464:	cc4b           	addi.n	a12, a12, 4
    1466:	02a876        	loopgtz	a8, 146c <fn_ini_st_noise_est+0x40>
    1469:	09e9a4        	ae_s32ip	a10, a9, 4

0000146c <fn_ini_st_noise_est+0x40>:
    146c:	c80c           	movi.n	a8, 12
    146e:	9b2a           	add.n	a9, a11, a2
    1470:	99fa           	add.n	a9, a9, a15
    1472:	e69ce7        	bne	a12, a14, 145c <fn_ini_st_noise_est+0x30>
    1475:	03bd           	mov.n	a11, a3
    1477:	faed81        	l32r	a8, 2c (8838 <xt_memcpy>)
    147a:	02ad           	mov.n	a10, a2
    147c:	4c1c           	movi.n	a12, 20
    147e:	0008e0        	callx8	a8
    1481:	28c292        	addi	a9, a2, 40
    1484:	00a1a2        	movi	a10, 0x100
    1487:	eda0b2        	movi	a11, 237
    148a:	02ab76        	loopgtz	a11, 1490 <fn_ini_st_noise_est+0x64>
    148d:	09e9a4        	ae_s32ip	a10, a9, 4
    1490:	f01d           	retw.n

00001492 <fn_ini_st_noise_est+0x66>:
	...

00001494 <fn_st_noise_est>:
    1494:	010136        	entry	a1, 128
    1497:	faf871        	l32r	a7, 78 (8000 <xtensa_fft8_32b+0x28>)
    149a:	060c           	movi.n	a6, 0
    149c:	f139           	s32i.n	a3, a1, 60
    149e:	03d282        	addmi	a8, a2, 0x300
    14a1:	049d           	mov.n	a9, a4
    14a3:	9a0c           	movi.n	a10, 9
    14a5:	05d2b2        	addmi	a11, a2, 0x500
    14a8:	b1b9           	s32i.n	a11, a1, 44
    14aa:	1361a2        	s32i	a10, a1, 76
    14ad:	fb0a41        	l32r	a4, d8 (e4e0 <sb_ptn>)
    14b0:	4199           	s32i.n	a9, a1, 16
    14b2:	c189           	s32i.n	a8, a1, 48
    14b4:	085d           	mov.n	a5, a8
    14b6:	430c           	movi.n	a3, 4
    14b8:	dd5b62        	s16i	a6, a11, 0x1ba
    14bb:	39b334        	ae_movpa24x2	aep3, a3, a3
    14be:	fc20c2488e 	{ addi	a8, a8, 36; ae_zerop48	aep1 }
    14c3:	156182        	s32i	a8, a1, 84

000014c6 <fn_st_noise_est+0x32>:
    14c6:	24dd           	ae_l16si.n	a13, a4, 0
    14c8:	34cd           	ae_l16si.n	a12, a4, 2
    14ca:	0f2192        	l32i	a9, a1, 60
    14cd:	006162        	s32i	a6, a1, 0
    14d0:	c0ccd0        	sub	a12, a12, a13
    14d3:	a09d90        	addx4	a9, a13, a9
    14d6:	50a904        	ae_lp24f.iu	aep2, a9, 0
    14d9:	0aac76        	loopgtz	a12, 14e7 <fn_st_noise_est+0x53>
    14dc:	07a324        	ae_addsp24s	aep2, aep2, aep3
    14df:	0f21a4        	ae_sraip24	aep2, aep2, 3
    14e2:	d8456ea91f 	{ ae_lp24f.iu	aep2, a9, 4; ae_addsp24s	aep1, aep1, aep2 }

000014e7 <fn_st_noise_est+0x53>:
    14e7:	521104        	ae_sp24f.l.i	aep1, a1, 0
    14ea:	01a8           	l32i.n	a10, a1, 0
    14ec:	faf481        	l32r	a8, bc (df0 <fxlog10>)
    14ef:	21a8a0        	srai	a10, a10, 8
    14f2:	0008e0        	callx8	a8
    14f5:	faf9c1        	l32r	a12, dc (6a4d <Voice_WB_TX_Inear_Prcs+0x48d>)
    14f8:	d1cac0        	mul16s	a12, a10, a12
    14fb:	5d2592        	l32i	a9, a5, 0x174
    14fe:	90cc70        	addx2	a12, a12, a7
    1501:	31c0c0        	srai	a12, a12, 16
    1504:	11ac00        	slli	a10, a12, 16
    1507:	4b65c2        	s32i	a12, a5, 0x12c
    150a:	228d           	ae_l16si.n	a8, a2, 0
    150c:	323d           	ae_l16si.n	a3, a2, 2
    150e:	31b0c0        	srai	a11, a12, 16
    1511:	7299c0        	salt	a9, a9, a12
    1514:	933890        	movnez	a3, a8, a9
    1517:	833d           	ae_sext16	a3, a3
    1519:	ff9ca5        	call8	ee4 <_saturate32>
    151c:	4b25e2        	l32i	a14, a5, 0x12c
    151f:	5d25d2        	l32i	a13, a5, 0x174
    1522:	1061a2        	s32i	a10, a1, 64
    1525:	c0ade0        	sub	a10, a13, a14
    1528:	ff99e5        	call8	ec8 <_saturate16>
    152b:	1021c2        	l32i	a12, a1, 64
    152e:	d1d3a0        	mul16s	a13, a3, a10
    1531:	90adc0        	addx2	a10, a13, a12
    1534:	62bac0        	saltu	a11, a10, a12
    1537:	11ddf0        	slli	a13, a13, 1
    153a:	31dfd0        	srai	a13, a13, 31
    153d:	31cfc0        	srai	a12, a12, 31
    1540:	ccda           	add.n	a12, a12, a13
    1542:	bbca           	add.n	a11, a11, a12
    1544:	ff99e5        	call8	ee4 <_saturate32>
    1547:	5425c2        	l32i	a12, a5, 0x150
    154a:	4b2592        	l32i	a9, a5, 0x12c
    154d:	da7a           	add.n	a13, a10, a7
    154f:	31d0d0        	srai	a13, a13, 16
    1552:	5d65d2        	s32i	a13, a5, 0x174
    1555:	029282        	l16si	a8, a2, 4
    1558:	039232        	l16si	a3, a2, 6
    155b:	31b090        	srai	a11, a9, 16
    155e:	11a900        	slli	a10, a9, 16
    1561:	7299c0        	salt	a9, a9, a12
    1564:	933890        	movnez	a3, a8, a9
    1567:	833d           	ae_sext16	a3, a3
    1569:	ff97a5        	call8	ee4 <_saturate32>
    156c:	4b25f2        	l32i	a15, a5, 0x12c
    156f:	5425e2        	l32i	a14, a5, 0x150
    1572:	1161a2        	s32i	a10, a1, 68
    1575:	c0aef0        	sub	a10, a14, a15
    1578:	ff94e5        	call8	ec8 <_saturate16>
    157b:	1121c2        	l32i	a12, a1, 68
    157e:	d1d3a0        	mul16s	a13, a3, a10
    1581:	90adc0        	addx2	a10, a13, a12
    1584:	62bac0        	saltu	a11, a10, a12
    1587:	11ddf0        	slli	a13, a13, 1
    158a:	31dfd0        	srai	a13, a13, 31
    158d:	31cfc0        	srai	a12, a12, 31
    1590:	ccda           	add.n	a12, a12, a13
    1592:	bbca           	add.n	a11, a11, a12
    1594:	ff94e5        	call8	ee4 <_saturate32>
    1597:	ba7a           	add.n	a11, a10, a7
    1599:	430c           	movi.n	a3, 4
    159b:	5d25a2        	l32i	a10, a5, 0x174
    159e:	31b0b0        	srai	a11, a11, 16
    15a1:	5465b2        	s32i	a11, a5, 0x150
    15a4:	c0aab0        	sub	a10, a10, a11
    15a7:	ff9225        	call8	ec8 <_saturate16>
    15aa:	0492c2        	l16si	a12, a2, 8
    15ad:	11aca7        	bge	a12, a10, 15c2 <fn_st_noise_est+0x12e>
    15b0:	b1b8           	l32i.n	a11, a1, 44
    15b2:	0592a2        	l16si	a10, a2, 10
    15b5:	dd9bb2        	l16si	a11, a11, 0x1ba
    15b8:	aaba           	add.n	a10, a10, a11
    15ba:	ff90e5        	call8	ec8 <_saturate16>
    15bd:	b1c8           	l32i.n	a12, a1, 44
    15bf:	dd5ca2        	s16i	a10, a12, 0x1ba

000015c2 <fn_st_noise_est+0x12e>:
    15c2:	554b           	addi.n	a5, a5, 4
    15c4:	1321d2        	l32i	a13, a1, 76
    15c7:	442b           	addi.n	a4, a4, 2
    15c9:	39b334        	ae_movpa24x2	aep3, a3, a3
    15cc:	fc20cffdde 	{ addi	a13, a13, -1; ae_zerop48	aep1 }
    15d1:	1361d2        	s32i	a13, a1, 76
    15d4:	eeed56        	bnez	a13, 14c6 <fn_st_noise_est+0x32>
    15d7:	c158           	l32i.n	a5, a1, 48
    15d9:	069282        	l16si	a8, a2, 12
    15dc:	b1a8           	l32i.n	a10, a1, 44
    15de:	090c           	movi.n	a9, 0
    15e0:	9b0c           	movi.n	a11, 9
    15e2:	dd9aa2        	l16si	a10, a10, 0x1ba
    15e5:	079232        	l16si	a3, a2, 14
    15e8:	1461b2        	s32i	a11, a1, 80
    15eb:	7299a0        	salt	a9, a9, a10
    15ee:	933890        	movnez	a3, a8, a9
    15f1:	833d           	ae_sext16	a3, a3

000015f3 <fn_st_noise_est+0x15f>:
    15f3:	4b25a2        	l32i	a10, a5, 0x12c
    15f6:	b148           	l32i.n	a4, a1, 44
    15f8:	404010        	ssai	16
    15fb:	31bfa0        	srai	a11, a10, 31
    15fe:	81bba0        	src	a11, a11, a10
    1601:	11aa00        	slli	a10, a10, 16
    1604:	ff8de5        	call8	ee4 <_saturate32>
    1607:	4b25d2        	l32i	a13, a5, 0x12c
    160a:	d225c2        	l32i	a12, a5, 0x348
    160d:	1261a2        	s32i	a10, a1, 72
    1610:	c0acd0        	sub	a10, a12, a13
    1613:	ff8b65        	call8	ec8 <_saturate16>
    1616:	d1a3a0        	mul16s	a10, a3, a10
    1619:	1221e2        	l32i	a14, a1, 72
    161c:	e1e9           	s32i.n	a14, a1, 56
    161e:	11daf0        	slli	a13, a10, 1
    1621:	31dfd0        	srai	a13, a13, 31
    1624:	31cfe0        	srai	a12, a14, 31
    1627:	d1c9           	s32i.n	a12, a1, 52
    1629:	90aae0        	addx2	a10, a10, a14
    162c:	62bae0        	saltu	a11, a10, a14
    162f:	ccda           	add.n	a12, a12, a13
    1631:	bbca           	add.n	a11, a11, a12
    1633:	ff8b25        	call8	ee4 <_saturate32>
    1636:	faaab1        	l32r	a11, e0 (ffff8400 <_end+0xfffe9c60>)
    1639:	ca7a           	add.n	a12, a10, a7
    163b:	31c0c0        	srai	a12, a12, 16
    163e:	2d2cb7        	blt	a12, a11, 166f <fn_st_noise_est+0x1db>
    1641:	4b25b2        	l32i	a11, a5, 0x12c
    1644:	d225a2        	l32i	a10, a5, 0x348
    1647:	c0aab0        	sub	a10, a10, a11
    164a:	ff87e5        	call8	ec8 <_saturate16>
    164d:	e1b8           	l32i.n	a11, a1, 56
    164f:	d1d3a0        	mul16s	a13, a3, a10
    1652:	d1c8           	l32i.n	a12, a1, 52
    1654:	90adb0        	addx2	a10, a13, a11
    1657:	62bab0        	saltu	a11, a10, a11
    165a:	11ddf0        	slli	a13, a13, 1
    165d:	31dfd0        	srai	a13, a13, 31
    1660:	ccda           	add.n	a12, a12, a13
    1662:	bbca           	add.n	a11, a11, a12
    1664:	ff87e5        	call8	ee4 <_saturate32>
    1667:	9a7a           	add.n	a9, a10, a7
    1669:	319090        	srai	a9, a9, 16
    166c:	000086        	j	1672 <fn_st_noise_est+0x1de>

0000166f <fn_st_noise_est+0x1db>:
    166f:	fa9c91        	l32r	a9, e0 (ffff8400 <_end+0xfffe9c60>)

00001672 <fn_st_noise_est+0x1de>:
    1672:	1421a2        	l32i	a10, a1, 80
    1675:	d26592        	s32i	a9, a5, 0x348
    1678:	554b           	addi.n	a5, a5, 4
    167a:	aa0b           	addi.n	a10, a10, -1
    167c:	1461a2        	s32i	a10, a1, 80
    167f:	f70a56        	bnez	a10, 15f3 <fn_st_noise_est+0x15f>
    1682:	da9492        	l16si	a9, a4, 0x1b4
    1685:	991b           	addi.n	a9, a9, 1
    1687:	899d           	ae_sext16	a9, a9
    1689:	da5492        	s16i	a9, a4, 0x1b4
    168c:	04a9a6        	blti	a9, 12, 1694 <fn_st_noise_est+0x200>
    168f:	da5462        	s16i	a6, a4, 0x1b4
    1692:	090c           	movi.n	a9, 0

00001694 <fn_st_noise_est+0x200>:
    1694:	9ca2a2        	movi	a10, 0x29c
    1697:	0b0956        	bnez	a9, 174b <fn_st_noise_est+0x2b7>
    169a:	db94b2        	l16si	a11, a4, 0x1b6
    169d:	bb1b           	addi.n	a11, a11, 1
    169f:	8bbd           	ae_sext16	a11, a11
    16a1:	db54b2        	s16i	a11, a4, 0x1b6
    16a4:	02aba6        	blti	a11, 12, 16aa <fn_st_noise_est+0x216>
    16a7:	db5462        	s16i	a6, a4, 0x1b6

000016aa <fn_st_noise_est+0x216>:
    16aa:	c158           	l32i.n	a5, a1, 48
    16ac:	03d2d2        	addmi	a13, a2, 0x300
    16af:	9c0c           	movi.n	a12, 9
    16b1:	e1ab           	addi.n	a14, a1, 10
    16b3:	0f0c           	movi.n	a15, 0
    16b5:	91f9           	s32i.n	a15, a1, 36
    16b7:	71e9           	s32i.n	a14, a1, 28
    16b9:	61c9           	s32i.n	a12, a1, 24
    16bb:	9ccdd2        	addi	a13, a13, -100
    16be:	81d9           	s32i.n	a13, a1, 32

000016c0 <fn_st_noise_est+0x22c>:
    16c0:	8188           	l32i.n	a8, a1, 32
    16c2:	fa6691        	l32r	a9, 5c (7fff <xtensa_fft8_32b+0x27>)
    16c5:	065192        	s16i	a9, a1, 12
    16c8:	7f2882        	l32i	a8, a8, 0x1fc
    16cb:	075182        	s16i	a8, a1, 14
    16ce:	9188           	l32i.n	a8, a1, 36
    16d0:	055192        	s16i	a9, a1, 10
    16d3:	045192        	s16i	a9, a1, 8
    16d6:	381b           	addi.n	a3, a8, 1
    16d8:	a03320        	addx4	a3, a3, a2
    16db:	88cb           	addi.n	a8, a8, 12
    16dd:	5189           	s32i.n	a8, a1, 20
    16df:	03d332        	addmi	a3, a3, 0x300
    16e2:	9cc332        	addi	a3, a3, -100
    16e5:	a08820        	addx4	a8, a8, a2
    16e8:	03d882        	addmi	a8, a8, 0x300
    16eb:	9cc882        	addi	a8, a8, -100
    16ee:	a189           	s32i.n	a8, a1, 40

000016f0 <fn_st_noise_est+0x25c>:
    16f0:	0791b2        	l16si	a11, a1, 14
    16f3:	7f23a2        	l32i	a10, a3, 0x1fc
    16f6:	14aab7        	bge	a10, a11, 170e <fn_st_noise_est+0x27a>
    16f9:	a18b           	addi.n	a10, a1, 8
    16fb:	fa4c81        	l32r	a8, 2c (8838 <xt_memcpy>)
    16fe:	71b8           	l32i.n	a11, a1, 28
    1700:	3c0c           	movi.n	a12, 3
    1702:	0008e0        	callx8	a8
    1705:	7f2392        	l32i	a9, a3, 0x1fc
    1708:	075192        	s16i	a9, a1, 14
    170b:	000c86        	j	1741 <fn_st_noise_est+0x2ad>

0000170e <fn_st_noise_est+0x27a>:
    170e:	0691b2        	l16si	a11, a1, 12
    1711:	0591c2        	l16si	a12, a1, 10
    1714:	14aab7        	bge	a10, a11, 172c <fn_st_noise_est+0x298>
    1717:	a18b           	addi.n	a10, a1, 8
    1719:	fa4481        	l32r	a8, 2c (8838 <xt_memcpy>)
    171c:	71b8           	l32i.n	a11, a1, 28
    171e:	2c0c           	movi.n	a12, 2
    1720:	0008e0        	callx8	a8
    1723:	7f2392        	l32i	a9, a3, 0x1fc
    1726:	065192        	s16i	a9, a1, 12
    1729:	000506        	j	1741 <fn_st_noise_est+0x2ad>

0000172c <fn_st_noise_est+0x298>:
    172c:	08aac7        	bge	a10, a12, 1738 <fn_st_noise_est+0x2a4>
    172f:	0451c2        	s16i	a12, a1, 8
    1732:	0551a2        	s16i	a10, a1, 10
    1735:	000206        	j	1741 <fn_st_noise_est+0x2ad>

00001738 <fn_st_noise_est+0x2a4>:
    1738:	0491b2        	l16si	a11, a1, 8
    173b:	43bab0        	min	a11, a10, a11
    173e:	0451b2        	s16i	a11, a1, 8
    1741:	a1c8           	l32i.n	a12, a1, 40
    1743:	334b           	addi.n	a3, a3, 4
    1745:	a793c7        	bne	a3, a12, 16f0 <fn_st_noise_est+0x25c>
    1748:	005486        	j	189e <fn_st_noise_est+0x40a>

0000174b <fn_st_noise_est+0x2b7>:
    174b:	c158           	l32i.n	a5, a1, 48
    174d:	090c           	movi.n	a9, 0
    174f:	9d0c           	movi.n	a13, 9
    1751:	19ad76        	loopgtz	a13, 176e <fn_st_noise_est+0x2da>
    1754:	db94f2        	l16si	a15, a4, 0x1b6
    1757:	d22582        	l32i	a8, a5, 0x348
    175a:	ff9a           	add.n	a15, a15, a9
    175c:	a0ff20        	addx4	a15, a15, a2
    175f:	ffaa           	add.n	a15, a15, a10
    1761:	7f2fe2        	l32i	a14, a15, 0x1fc
    1764:	554b           	addi.n	a5, a5, 4
    1766:	99cb           	addi.n	a9, a9, 12
    1768:	43ee80        	min	a14, a14, a8
    176b:	7f6fe2        	s32i	a14, a15, 0x1fc

0000176e <fn_st_noise_est+0x2da>:
    176e:	c158           	l32i.n	a5, a1, 48
    1770:	030c           	movi.n	a3, 0

00001772 <fn_st_noise_est+0x2de>:
    1772:	db25b2        	l32i	a11, a5, 0x36c
    1775:	d225a2        	l32i	a10, a5, 0x348
    1778:	c0aab0        	sub	a10, a10, a11
    177b:	ff74e5        	call8	ec8 <_saturate16>
    177e:	fa59b1        	l32r	a11, e4 (e39 <fxlog10+0x49>)
    1781:	d1aab0        	mul16s	a10, a10, a11
    1784:	90aa70        	addx2	a10, a10, a7
    1787:	31a0a0        	srai	a10, a10, 16
    178a:	a3aa           	add.n	a10, a3, a10
    178c:	ff73a5        	call8	ec8 <_saturate16>
    178f:	1521c2        	l32i	a12, a1, 84
    1792:	0a3d           	mov.n	a3, a10
    1794:	554b           	addi.n	a5, a5, 4
    1796:	d895c7        	bne	a5, a12, 1772 <fn_st_noise_est+0x2de>
    1799:	c158           	l32i.n	a5, a1, 48
    179b:	fa5371        	l32r	a7, e8 (e520 <vad_thrd_bands>)
    179e:	fa5331        	l32r	a3, ec (e500 <score_bands>)
    17a1:	06dd           	mov.n	a13, a6
    17a3:	099792        	l16si	a9, a7, 18
    17a6:	0f0c           	movi.n	a15, 0
    17a8:	fa2de1        	l32r	a14, 5c (7fff <xtensa_fft8_32b+0x27>)
    17ab:	c08a90        	sub	a8, a10, a9
    17ae:	72ff80        	salt	a15, a15, a8
    17b1:	93def0        	movnez	a13, a14, a15
    17b4:	dc54d2        	s16i	a13, a4, 0x1b8

000017b7 <fn_st_noise_est+0x323>:
    17b7:	db25b2        	l32i	a11, a5, 0x36c
    17ba:	d225a2        	l32i	a10, a5, 0x348
    17bd:	c0aab0        	sub	a10, a10, a11
    17c0:	ff7065        	call8	ec8 <_saturate16>
    17c3:	27cd           	ae_l16si.n	a12, a7, 0
    17c5:	c0aac0        	sub	a10, a10, a12
    17c8:	ff6fe5        	call8	ec8 <_saturate16>
    17cb:	e465a2        	s32i	a10, a5, 0x390
    17ce:	0c1aa6        	blti	a10, 1, 17de <fn_st_noise_est+0x34a>
    17d1:	dc94b2        	l16si	a11, a4, 0x1b8
    17d4:	23ad           	ae_l16si.n	a10, a3, 0
    17d6:	aaba           	add.n	a10, a10, a11
    17d8:	ff6ee5        	call8	ec8 <_saturate16>
    17db:	dc54a2        	s16i	a10, a4, 0x1b8

000017de <fn_st_noise_est+0x34a>:
    17de:	332b           	addi.n	a3, a3, 2
    17e0:	1521c2        	l32i	a12, a1, 84
    17e3:	772b           	addi.n	a7, a7, 2
    17e5:	554b           	addi.n	a5, a5, 4
    17e7:	cc95c7        	bne	a5, a12, 17b7 <fn_st_noise_est+0x323>
    17ea:	0892d2        	l16si	a13, a2, 16
    17ed:	dc94a2        	l16si	a10, a4, 0x1b8
    17f0:	70aad7        	bge	a10, a13, 1864 <fn_st_noise_est+0x3d0>
    17f3:	0a92e2        	l16si	a14, a2, 20
    17f6:	042ea7        	blt	a14, a10, 17fe <fn_st_noise_est+0x36a>
    17f9:	6298           	l32i.n	a9, a2, 24
    17fb:	000306        	j	180b <fn_st_noise_est+0x377>

000017fe <fn_st_noise_est+0x36a>:
    17fe:	72f8           	l32i.n	a15, a2, 28
    1800:	099282        	l16si	a8, a2, 18
    1803:	8298           	l32i.n	a9, a2, 32
    1805:	c088a0        	sub	a8, a8, a10
    1808:	b39f80        	movgez	a9, a15, a8

0000180b <fn_st_noise_est+0x377>:
    180b:	c158           	l32i.n	a5, a1, 48
    180d:	fa3241        	l32r	a4, d8 (e4e0 <sb_ptn>)
    1810:	21c890        	srai	a12, a9, 8
    1813:	00afd2        	movi	a13, 0xffffff00

00001816 <fn_st_noise_est+0x382>:
    1816:	e42592        	l32i	a9, a5, 0x390
    1819:	04c552        	addi	a5, a5, 4
    181c:	3c19e6        	bgei	a9, 1, 185c <fn_st_noise_est+0x3c8>
    181f:	368d34        	ae_cvtq48a32s	aeq2, a13
    1822:	399cc4        	ae_movpa24x2	aep1, a12, a12
    1825:	24fd           	ae_l16si.n	a15, a4, 0
    1827:	34ed           	ae_l16si.n	a14, a4, 2
    1829:	0f21a2        	l32i	a10, a1, 60
    182c:	a09f20        	addx4	a9, a15, a2
    182f:	c0eef0        	sub	a14, a14, a15
    1832:	24c9b2        	addi	a11, a9, 36
    1835:	a0afa0        	addx4	a10, a15, a10
    1838:	605a04        	ae_lq32f.iu	aeq1, a10, 0
    183b:	28c992        	addi	a9, a9, 40
    183e:	601904        	ae_lq32f.iu	aeq0, a9, 0
    1841:	17ae76        	loopgtz	a14, 185c <fn_st_noise_est+0x3c8>
    1844:	01e1e4        	ae_andq56	aeq3, aeq1, aeq2
    1847:	010fc4        	ae_subq56	aeq0, aeq0, aeq3
    184a:	098c44        	ae_truncp24q48x2	aep4, aeq0, aeq0
    184d:	014934        	ae_mulafp24s.ll	aeq1, aep4, aep1
    1850:	1b9d34        	ae_roundsp24q48asym	aep3, aeq1
    1853:	52bb14        	ae_sp24f.l.iu	aep3, a11, 4
    1856:	605a14        	ae_lq32f.iu	aeq1, a10, 4
    1859:	601914        	ae_lq32f.iu	aeq0, a9, 4
    185c:	1521b2        	l32i	a11, a1, 84
    185f:	442b           	addi.n	a4, a4, 2
    1861:	b195b7        	bne	a5, a11, 1816 <fn_st_noise_est+0x382>

00001864 <fn_st_noise_est+0x3d0>:
    1864:	eda0c2        	movi	a12, 237
    1867:	92b8           	l32i.n	a11, a2, 36
    1869:	41a8           	l32i.n	a10, a1, 16
    186b:	28c292        	addi	a9, a2, 40
    186e:	508904        	ae_lp24f.iu	aep0, a9, 0
    1871:	fccaa2        	addi	a10, a10, -4
    1874:	21b8b0        	srai	a11, a11, 8
    1877:	39abb4        	ae_movpa24x2	aep2, a11, a11
    187a:	0eac76        	loopgtz	a12, 188c <fn_st_noise_est+0x3f8>
    187d:	010274        	ae_mulfp24s.ll	aeq0, aep0, aep2
    1880:	1b8d64        	ae_roundsp24q48asym	aep6, aeq0
    1883:	07e054        	ae_addsp24s	aep5, aep6, aep0
    1886:	52da14        	ae_sp24f.l.iu	aep5, a10, 4
    1889:	508914        	ae_lp24f.iu	aep0, a9, 4

0000188c <fn_st_noise_est+0x3f8>:
    188c:	4198           	l32i.n	a9, a1, 16
    188e:	4c1c           	movi.n	a12, 20
    1890:	04d992        	addmi	a9, a9, 0x400
    1893:	b4c992        	addi	a9, a9, -76
    1896:	02ac76        	loopgtz	a12, 189c <fn_st_noise_est+0x408>
    1899:	09e964        	ae_s32ip	a6, a9, 4
    189c:	f01d           	retw.n

0000189e <fn_st_noise_est+0x40a>:
    189e:	0591a2        	l16si	a10, a1, 10
    18a1:	0491b2        	l16si	a11, a1, 8
    18a4:	31dfa0        	srai	a13, a10, 31
    18a7:	31cfb0        	srai	a12, a11, 31
    18aa:	abaa           	add.n	a10, a11, a10
    18ac:	ccda           	add.n	a12, a12, a13
    18ae:	62bab0        	saltu	a11, a10, a11
    18b1:	bbca           	add.n	a11, a11, a12
    18b3:	ff6325        	call8	ee4 <_saturate32>
    18b6:	0691b2        	l16si	a11, a1, 12
    18b9:	31dfa0        	srai	a13, a10, 31
    18bc:	31cfb0        	srai	a12, a11, 31
    18bf:	ccda           	add.n	a12, a12, a13
    18c1:	abaa           	add.n	a10, a11, a10
    18c3:	62bab0        	saltu	a11, a10, a11
    18c6:	bbca           	add.n	a11, a11, a12
    18c8:	ff61a5        	call8	ee4 <_saturate32>
    18cb:	0791b2        	l16si	a11, a1, 14
    18ce:	31dfa0        	srai	a13, a10, 31
    18d1:	31cfb0        	srai	a12, a11, 31
    18d4:	ccda           	add.n	a12, a12, a13
    18d6:	abaa           	add.n	a10, a11, a10
    18d8:	62bab0        	saltu	a11, a10, a11
    18db:	bbca           	add.n	a11, a11, a12
    18dd:	ff6065        	call8	ee4 <_saturate32>
    18e0:	5138           	l32i.n	a3, a1, 20
    18e2:	404200        	ssai	2
    18e5:	31cfa0        	srai	a12, a10, 31
    18e8:	ba2b           	addi.n	a11, a10, 2
    18ea:	62aba0        	saltu	a10, a11, a10
    18ed:	aaca           	add.n	a10, a10, a12
    18ef:	81aab0        	src	a10, a10, a11
    18f2:	ff5d65        	call8	ec8 <_saturate16>
    18f5:	61d8           	l32i.n	a13, a1, 24
    18f7:	8188           	l32i.n	a8, a1, 32
    18f9:	d225e2        	l32i	a14, a5, 0x348
    18fc:	db65a2        	s32i	a10, a5, 0x36c
    18ff:	db94f2        	l16si	a15, a4, 0x1b6
    1902:	554b           	addi.n	a5, a5, 4
    1904:	30c882        	addi	a8, a8, 48
    1907:	dd0b           	addi.n	a13, a13, -1
    1909:	8189           	s32i.n	a8, a1, 32
    190b:	9188           	l32i.n	a8, a1, 36
    190d:	61d9           	s32i.n	a13, a1, 24
    190f:	9139           	s32i.n	a3, a1, 36
    1911:	ff8a           	add.n	a15, a15, a8
    1913:	a0ff20        	addx4	a15, a15, a2
    1916:	03dff2        	addmi	a15, a15, 0x300
    1919:	9ccff2        	addi	a15, a15, -100
    191c:	7f6fe2        	s32i	a14, a15, 0x1fc
    191f:	d9dd56        	bnez	a13, 16c0 <fn_st_noise_est+0x22c>
    1922:	ff9206        	j	176e <fn_st_noise_est+0x2da>

00001925 <fn_st_noise_est+0x491>:
    1925:	000000                                        ...

00001928 <fn_ini_analysis_frame>:
    1928:	004136        	entry	a1, 32
    192b:	02ad           	mov.n	a10, a2
    192d:	f9e881        	l32r	a8, d0 (8820 <xt_memset>)
    1930:	0b0c           	movi.n	a11, 0
    1932:	c8a3c2        	movi	a12, 0x3c8
    1935:	0008e0        	callx8	a8
    1938:	07d292        	addmi	a9, a2, 0x700
    193b:	226932        	s32i	a3, a9, 136
    193e:	f01d           	retw.n

00001940 <fn_analysis_frame>:
    1940:	004136        	entry	a1, 32
    1943:	78a0c2        	movi	a12, 120
    1946:	06d2a2        	addmi	a10, a2, 0x600
    1949:	622aa2        	l32i	a10, a10, 0x188
    194c:	04d292        	addmi	a9, a2, 0x400
    194f:	c4c992        	addi	a9, a9, -60
    1952:	08da72        	addmi	a7, a10, 0x800
    1955:	571566        	bnei	a5, 1, 19b0 <fn_analysis_frame+0x70>
    1958:	301664        	ae_cvtp24a16x2.ll	aep1, a6, a6
    195b:	44a304        	ae_lp16x2f.iu	aep2, a3, 0
    195e:	12b8           	l32i.n	a11, a2, 4
    1960:	0022d2        	l32i	a13, a2, 0
    1963:	f9e3f1        	l32r	a15, f0 (15cc64 <_end+0x14e4c4>)
    1966:	f9e3e1        	l32r	a14, f4 (7af1aa <_end+0x7a0a0a>)
    1969:	39cef4        	ae_movpa24x2	aep4, a14, a15
    196c:	21d8d0        	srai	a13, a13, 8
    196f:	21b8b0        	srai	a11, a11, 8
    1972:	398bd4        	ae_movpa24x2	aep0, a11, a13
    1975:	2eac76        	loopgtz	a12, 19a7 <fn_analysis_frame+0x67>
    1978:	0a8a84        	ae_cvtq48p24s.h	aeq2, aep2
    197b:	ff4c3e20cf 	{ ae_selp24.hh	aep3, aep2, aep0; ae_cvtq48p24s.l	aeq3, aep2 }
    1980:	05cb84        	ae_mulsafp24s.hh.ll	aeq3, aep4, aep3
    1983:	05c084        	ae_mulsafp24s.hh.ll	aeq2, aep4, aep0
    1986:	063934        	ae_roundsq32asym	aeq0, aeq3
    1989:	066934        	ae_roundsq32asym	aeq1, aeq2
    198c:	031a54        	ae_mulfq32sp16s.l	aeq1, aeq1, aep1
    198f:	031214        	ae_mulfq32sp16s.l	aeq0, aeq0, aep1
    1992:	36d114        	ae_sllisq56s	aeq3, aeq1, 4
    1995:	fe3c7ac14f 	{ ae_sllisq56s	aeq1, aeq0, 4; ae_roundsq32asym	aeq2, aeq3 }
    199a:	fc2c79e91f 	{ ae_sq32f.iu	aeq2, a9, 4; ae_roundsq32asym	aeq0, aeq1 }
    199f:	624914        	ae_sq32f.iu	aeq0, a9, 4
    19a2:	dc49ada31f 	{ ae_lp16x2f.iu	aep2, a3, 4; ae_selp24.lh	aep0, aep2, aep2 }

000019a7 <fn_analysis_frame+0x67>:
    19a7:	1a80c4        	ae_selp24.lh	aep4, aep0, aep0
    19aa:	5e4204        	ae_sp24x2f.i	aep4, a2, 0
    19ad:	0009c6        	j	19d8 <fn_analysis_frame+0x98>

000019b0 <fn_analysis_frame+0x70>:
    19b0:	fcc3b2        	addi	a11, a3, -4
    19b3:	301664        	ae_cvtp24a16x2.ll	aep1, a6, a6
    19b6:	1eac76        	loopgtz	a12, 19d8 <fn_analysis_frame+0x98>
    19b9:	44db14        	ae_lp16x2f.iu	aep5, a11, 4
    19bc:	0a0584        	ae_cvtq48p24s.l	aeq0, aep5
    19bf:	0a4d84        	ae_cvtq48p24s.h	aeq1, aep5
    19c2:	031a54        	ae_mulfq32sp16s.l	aeq1, aeq1, aep1
    19c5:	031214        	ae_mulfq32sp16s.l	aeq0, aeq0, aep1
    19c8:	36d114        	ae_sllisq56s	aeq3, aeq1, 4
    19cb:	fe3c7ac14f 	{ ae_sllisq56s	aeq1, aeq0, 4; ae_roundsq32asym	aeq2, aeq3 }
    19d0:	fc2c79e91f 	{ ae_sq32f.iu	aeq2, a9, 4; ae_roundsq32asym	aeq0, aeq1 }
    19d5:	624914        	ae_sq32f.iu	aeq0, a9, 4

000019d8 <fn_analysis_frame+0x98>:
    19d8:	fccac2        	addi	a12, a10, -4
    19db:	0e2c           	movi.n	a14, 32
    19dd:	f0a0d2        	movi	a13, 240
    19e0:	f9c691        	l32r	a9, f8 (b4c0 <window>)
    19e3:	328b           	addi.n	a3, a2, 8
    19e5:	03bd           	mov.n	a11, a3
    19e7:	601b04        	ae_lq32f.iu	aeq0, a11, 0
    19ea:	448904        	ae_lp16x2f.iu	aep0, a9, 0
    19ed:	1aad76        	loopgtz	a13, 1a0b <fn_analysis_frame+0xcb>
    19f0:	030a04        	ae_mulfq32sp16s.h	aeq1, aeq0, aep0
    19f3:	061934        	ae_roundsq32asym	aeq0, aeq1
    19f6:	624c14        	ae_sq32f.iu	aeq0, a12, 4
    19f9:	60db14        	ae_lq32f.iu	aeq3, a11, 4
    19fc:	038ad4        	ae_mulfq32sp16s.l	aeq3, aeq3, aep0
    19ff:	06b934        	ae_roundsq32asym	aeq2, aeq3
    1a02:	626c14        	ae_sq32f.iu	aeq2, a12, 4
    1a05:	601b14        	ae_lq32f.iu	aeq0, a11, 4
    1a08:	448914        	ae_lp16x2f.iu	aep0, a9, 4

00001a0b <fn_analysis_frame+0xcb>:
    1a0b:	0b0c           	movi.n	a11, 0
    1a0d:	08da92        	addmi	a9, a10, 0x800
    1a10:	80c992        	addi	a9, a9, -128
    1a13:	f03d           	nop.n
    1a15:	02ae76        	loopgtz	a14, 1a1b <fn_analysis_frame+0xdb>
    1a18:	09e9b4        	ae_s32ip	a11, a9, 4
    1a1b:	f9b881        	l32r	a8, fc (4d38 <real_512_fft>)
    1a1e:	07bd           	mov.n	a11, a7
    1a20:	0008e0        	callx8	a8
    1a23:	f8c4b2        	addi	a11, a4, -8
    1a26:	01a1c2        	movi	a12, 0x101
    1a29:	fccaa2        	addi	a10, a10, -4
    1a2c:	079d           	mov.n	a9, a7
    1a2e:	5c8904        	ae_lp24x2f.iu	aep0, a9, 0
    1a31:	8aad           	ae_sext16	a10, a10
    1a33:	111aa6        	blti	a10, 1, 1a48 <fn_analysis_frame+0x108>
    1a36:	0316a4        	wur.ae_sar	a10
    1a39:	08ac76        	loopgtz	a12, 1a45 <fn_analysis_frame+0x105>
    1a3c:	0b00e4        	ae_sllssp24s	aep6, aep0
    1a3f:	5eeb14        	ae_sp24x2f.iu	aep6, a11, 8
    1a42:	5c8914        	ae_lp24x2f.iu	aep0, a9, 8
    1a45:	000446        	j	1a5a <fn_analysis_frame+0x11a>

00001a48 <fn_analysis_frame+0x108>:
    1a48:	60e0a0        	neg	a14, a10
    1a4b:	0316e4        	wur.ae_sar	a14
    1a4e:	08ac76        	loopgtz	a12, 1a5a <fn_analysis_frame+0x11a>
    1a51:	0b03f4        	ae_srasp24	aep7, aep0
    1a54:	5efb14        	ae_sp24x2f.iu	aep7, a11, 8
    1a57:	5c8914        	ae_lp24x2f.iu	aep0, a9, 8

00001a5a <fn_analysis_frame+0x11a>:
    1a5a:	03ad           	mov.n	a10, a3
    1a5c:	e0a1c2        	movi	a12, 0x1e0
    1a5f:	f97381        	l32r	a8, 2c (8838 <xt_memcpy>)
    1a62:	04d2b2        	addmi	a11, a2, 0x400
    1a65:	c8cbb2        	addi	a11, a11, -56
    1a68:	0008e0        	callx8	a8
    1a6b:	f01d           	retw.n

00001a6d <fn_analysis_frame+0x12d>:
    1a6d:	000000                                        ...

00001a70 <fn_analysis_frame_32>:
    1a70:	008136        	entry	a1, 64
    1a73:	4149           	s32i.n	a4, a1, 16
    1a75:	f0a0e2        	movi	a14, 240
    1a78:	029d           	mov.n	a9, a2
    1a7a:	850b           	addi.n	a8, a5, -1
    1a7c:	062d           	mov.n	a2, a6
    1a7e:	0199           	s32i.n	a9, a1, 0
    1a80:	04d9a2        	addmi	a10, a9, 0x400
    1a83:	06d9c2        	addmi	a12, a9, 0x600
    1a86:	622cc2        	l32i	a12, a12, 0x188
    1a89:	c8ca72        	addi	a7, a10, -56
    1a8c:	61c9           	s32i.n	a12, a1, 24
    1a8e:	08dcb2        	addmi	a11, a12, 0x800
    1a91:	31b9           	s32i.n	a11, a1, 12
    1a93:	217856        	bnez	a8, 1cae <fn_analysis_frame_32+0x23e>
    1a96:	03f8           	l32i.n	a15, a3, 0
    1a98:	404f10        	ssai	31
    1a9b:	f995e1        	l32r	a14, f0 (15cc64 <_end+0x14e4c4>)
    1a9e:	09d8           	l32i.n	a13, a9, 0
    1aa0:	1958           	l32i.n	a5, a9, 4
    1aa2:	f99461        	l32r	a6, f4 (7af1aa <_end+0x7a0a0a>)
    1aa5:	21d8d0        	srai	a13, a13, 8
    1aa8:	215850        	srai	a5, a5, 8
    1aab:	82b560        	mull	a11, a5, a6
    1aae:	82cde0        	mull	a12, a13, a14
    1ab1:	b25560        	mulsh	a5, a5, a6
    1ab4:	b2dde0        	mulsh	a13, a13, a14
    1ab7:	060c           	movi.n	a6, 0
    1ab9:	81ddc0        	src	a13, a13, a12
    1abc:	31eff0        	srai	a14, a15, 31
    1abf:	404010        	ssai	16
    1ac2:	81eef0        	src	a14, a14, a15
    1ac5:	404f10        	ssai	31
    1ac8:	11ff00        	slli	a15, a15, 16
    1acb:	8155b0        	src	a5, a5, a11
    1ace:	404010        	ssai	16
    1ad1:	c0ee50        	sub	a14, a14, a5
    1ad4:	11bbf0        	slli	a11, a11, 1
    1ad7:	f96851        	l32r	a5, 78 (8000 <xtensa_fft8_32b+0x28>)
    1ada:	c0bfb0        	sub	a11, a15, a11
    1add:	62ffb0        	saltu	a15, a15, a11
    1ae0:	c0eef0        	sub	a14, a14, a15
    1ae3:	90bcb0        	addx2	a11, a12, a11
    1ae6:	ab5a           	add.n	a10, a11, a5
    1ae8:	ddea           	add.n	a13, a13, a14
    1aea:	11ccf0        	slli	a12, a12, 1
    1aed:	62cbc0        	saltu	a12, a11, a12
    1af0:	ccda           	add.n	a12, a12, a13
    1af2:	62bab0        	saltu	a11, a10, a11
    1af5:	bbca           	add.n	a11, a11, a12
    1af7:	81aba0        	src	a10, a11, a10
    1afa:	31b0b0        	srai	a11, a11, 16
    1afd:	ff3e65        	call8	ee4 <_saturate32>
    1b00:	07a9           	s32i.n	a10, a7, 0
    1b02:	5129           	s32i.n	a2, a1, 20
    1b04:	fe7c           	movi.n	a14, -1
    1b06:	404b10        	ssai	27
    1b09:	82d2a0        	mull	a13, a2, a10
    1b0c:	b2c2a0        	mulsh	a12, a2, a10
    1b0f:	f95341        	l32r	a4, 5c (7fff <xtensa_fft8_32b+0x27>)
    1b12:	81ccd0        	src	a12, a12, a13
    1b15:	11ddb0        	slli	a13, a13, 5
    1b18:	092c47        	blt	a12, a4, 1b25 <fn_analysis_frame_32+0xb5>
    1b1b:	029c47        	bne	a12, a4, 1b21 <fn_analysis_frame_32+0xb1>
    1b1e:	033de7        	bltu	a13, a14, 1b25 <fn_analysis_frame_32+0xb5>

00001b21 <fn_analysis_frame_32+0xb1>:
    1b21:	0edd           	mov.n	a13, a14
    1b23:	04cd           	mov.n	a12, a4

00001b25 <fn_analysis_frame_32+0xb5>:
    1b25:	404010        	ssai	16
    1b28:	ad5a           	add.n	a10, a13, a5
    1b2a:	cc6a           	add.n	a12, a12, a6
    1b2c:	62bad0        	saltu	a11, a10, a13
    1b2f:	bbca           	add.n	a11, a11, a12
    1b31:	81aba0        	src	a10, a11, a10
    1b34:	31b0b0        	srai	a11, a11, 16
    1b37:	ff3ae5        	call8	ee4 <_saturate32>
    1b3a:	404f10        	ssai	31
    1b3d:	f96ce1        	l32r	a14, f0 (15cc64 <_end+0x14e4c4>)
    1b40:	f96d91        	l32r	a9, f4 (7af1aa <_end+0x7a0a0a>)
    1b43:	01d8           	l32i.n	a13, a1, 0
    1b45:	07a9           	s32i.n	a10, a7, 0
    1b47:	0388           	l32i.n	a8, a3, 0
    1b49:	13f8           	l32i.n	a15, a3, 4
    1b4b:	1dd8           	l32i.n	a13, a13, 4
    1b4d:	218880        	srai	a8, a8, 8
    1b50:	82b890        	mull	a11, a8, a9
    1b53:	21d8d0        	srai	a13, a13, 8
    1b56:	82cde0        	mull	a12, a13, a14
    1b59:	b2dde0        	mulsh	a13, a13, a14
    1b5c:	b28890        	mulsh	a8, a8, a9
    1b5f:	81ddc0        	src	a13, a13, a12
    1b62:	31eff0        	srai	a14, a15, 31
    1b65:	404010        	ssai	16
    1b68:	81eef0        	src	a14, a14, a15
    1b6b:	404f10        	ssai	31
    1b6e:	11ff00        	slli	a15, a15, 16
    1b71:	8188b0        	src	a8, a8, a11
    1b74:	404010        	ssai	16
    1b77:	c0ee80        	sub	a14, a14, a8
    1b7a:	11bbf0        	slli	a11, a11, 1
    1b7d:	c0bfb0        	sub	a11, a15, a11
    1b80:	62ffb0        	saltu	a15, a15, a11
    1b83:	c0eef0        	sub	a14, a14, a15
    1b86:	90bcb0        	addx2	a11, a12, a11
    1b89:	ab5a           	add.n	a10, a11, a5
    1b8b:	ddea           	add.n	a13, a13, a14
    1b8d:	11ccf0        	slli	a12, a12, 1
    1b90:	62cbc0        	saltu	a12, a11, a12
    1b93:	ccda           	add.n	a12, a12, a13
    1b95:	62bab0        	saltu	a11, a10, a11
    1b98:	cc6a           	add.n	a12, a12, a6
    1b9a:	bbca           	add.n	a11, a11, a12
    1b9c:	81aba0        	src	a10, a11, a10
    1b9f:	31b0b0        	srai	a11, a11, 16
    1ba2:	ff3425        	call8	ee4 <_saturate32>
    1ba5:	51c8           	l32i.n	a12, a1, 20
    1ba7:	17a9           	s32i.n	a10, a7, 4
    1ba9:	fe7c           	movi.n	a14, -1
    1bab:	82dca0        	mull	a13, a12, a10
    1bae:	b2cca0        	mulsh	a12, a12, a10
    1bb1:	404b10        	ssai	27
    1bb4:	81ccd0        	src	a12, a12, a13
    1bb7:	11ddb0        	slli	a13, a13, 5
    1bba:	092c47        	blt	a12, a4, 1bc7 <fn_analysis_frame_32+0x157>
    1bbd:	029c47        	bne	a12, a4, 1bc3 <fn_analysis_frame_32+0x153>
    1bc0:	033de7        	bltu	a13, a14, 1bc7 <fn_analysis_frame_32+0x157>

00001bc3 <fn_analysis_frame_32+0x153>:
    1bc3:	0edd           	mov.n	a13, a14
    1bc5:	04cd           	mov.n	a12, a4

00001bc7 <fn_analysis_frame_32+0x157>:
    1bc7:	2139           	s32i.n	a3, a1, 8
    1bc9:	1179           	s32i.n	a7, a1, 4
    1bcb:	404010        	ssai	16
    1bce:	ad5a           	add.n	a10, a13, a5
    1bd0:	cc6a           	add.n	a12, a12, a6
    1bd2:	62bad0        	saltu	a11, a10, a13
    1bd5:	bbca           	add.n	a11, a11, a12
    1bd7:	81aba0        	src	a10, a11, a10
    1bda:	31b0b0        	srai	a11, a11, 16
    1bdd:	ff3065        	call8	ee4 <_saturate32>
    1be0:	eea032        	movi	a3, 238
    1be3:	1198           	l32i.n	a9, a1, 4
    1be5:	08ae82        	movi	a8, 0xfffffe08
    1be8:	2178           	l32i.n	a7, a1, 8
    1bea:	298b           	addi.n	a2, a9, 8
    1bec:	19a9           	s32i.n	a10, a9, 4
    1bee:	778a           	add.n	a7, a7, a8

00001bf0 <fn_analysis_frame_32+0x180>:
    1bf0:	8027f2        	l32i	a15, a7, 0x200
    1bf3:	404f10        	ssai	31
    1bf6:	f93f91        	l32r	a9, f4 (7af1aa <_end+0x7a0a0a>)
    1bf9:	7f2782        	l32i	a8, a7, 0x1fc
    1bfc:	7e27d2        	l32i	a13, a7, 0x1f8
    1bff:	f93ce1        	l32r	a14, f0 (15cc64 <_end+0x14e4c4>)
    1c02:	218880        	srai	a8, a8, 8
    1c05:	21d8d0        	srai	a13, a13, 8
    1c08:	82cde0        	mull	a12, a13, a14
    1c0b:	82b890        	mull	a11, a8, a9
    1c0e:	b2dde0        	mulsh	a13, a13, a14
    1c11:	b28890        	mulsh	a8, a8, a9
    1c14:	81ddc0        	src	a13, a13, a12
    1c17:	31eff0        	srai	a14, a15, 31
    1c1a:	404010        	ssai	16
    1c1d:	81eef0        	src	a14, a14, a15
    1c20:	404f10        	ssai	31
    1c23:	11ff00        	slli	a15, a15, 16
    1c26:	8188b0        	src	a8, a8, a11
    1c29:	404010        	ssai	16
    1c2c:	c0ee80        	sub	a14, a14, a8
    1c2f:	11bbf0        	slli	a11, a11, 1
    1c32:	c0bfb0        	sub	a11, a15, a11
    1c35:	62ffb0        	saltu	a15, a15, a11
    1c38:	c0eef0        	sub	a14, a14, a15
    1c3b:	90bcb0        	addx2	a11, a12, a11
    1c3e:	ab5a           	add.n	a10, a11, a5
    1c40:	ddea           	add.n	a13, a13, a14
    1c42:	11ccf0        	slli	a12, a12, 1
    1c45:	62cbc0        	saltu	a12, a11, a12
    1c48:	ccda           	add.n	a12, a12, a13
    1c4a:	62bab0        	saltu	a11, a10, a11
    1c4d:	cc6a           	add.n	a12, a12, a6
    1c4f:	bbca           	add.n	a11, a11, a12
    1c51:	81aba0        	src	a10, a11, a10
    1c54:	31b0b0        	srai	a11, a11, 16
    1c57:	ff28e5        	call8	ee4 <_saturate32>
    1c5a:	51c8           	l32i.n	a12, a1, 20
    1c5c:	02a9           	s32i.n	a10, a2, 0
    1c5e:	fe7c           	movi.n	a14, -1
    1c60:	82dca0        	mull	a13, a12, a10
    1c63:	b2cca0        	mulsh	a12, a12, a10
    1c66:	404b10        	ssai	27
    1c69:	81ccd0        	src	a12, a12, a13
    1c6c:	11ddb0        	slli	a13, a13, 5
    1c6f:	092c47        	blt	a12, a4, 1c7c <fn_analysis_frame_32+0x20c>
    1c72:	029c47        	bne	a12, a4, 1c78 <fn_analysis_frame_32+0x208>
    1c75:	033de7        	bltu	a13, a14, 1c7c <fn_analysis_frame_32+0x20c>

00001c78 <fn_analysis_frame_32+0x208>:
    1c78:	0edd           	mov.n	a13, a14
    1c7a:	04cd           	mov.n	a12, a4

00001c7c <fn_analysis_frame_32+0x20c>:
    1c7c:	404010        	ssai	16
    1c7f:	ad5a           	add.n	a10, a13, a5
    1c81:	cc6a           	add.n	a12, a12, a6
    1c83:	62bad0        	saltu	a11, a10, a13
    1c86:	bbca           	add.n	a11, a11, a12
    1c88:	81aba0        	src	a10, a11, a10
    1c8b:	31b0b0        	srai	a11, a11, 16
    1c8e:	ff2565        	call8	ee4 <_saturate32>
    1c91:	09e2a4        	ae_s32ip	a10, a2, 4
    1c94:	774b           	addi.n	a7, a7, 4
    1c96:	330b           	addi.n	a3, a3, -1
    1c98:	f54356        	bnez	a3, 1bf0 <fn_analysis_frame_32+0x180>
    1c9b:	21d8           	l32i.n	a13, a1, 8
    1c9d:	0198           	l32i.n	a9, a1, 0
    1c9f:	61c8           	l32i.n	a12, a1, 24
    1ca1:	ee2de2        	l32i	a14, a13, 0x3b8
    1ca4:	09e9           	s32i.n	a14, a9, 0
    1ca6:	ef2dd2        	l32i	a13, a13, 0x3bc
    1ca9:	19d9           	s32i.n	a13, a9, 4
    1cab:	000786        	j	1ccd <fn_analysis_frame_32+0x25d>

00001cae <fn_analysis_frame_32+0x23e>:
    1cae:	c4cad2        	addi	a13, a10, -60
    1cb1:	300664        	ae_cvtp24a16x2.ll	aep0, a6, a6
    1cb4:	03ad           	mov.n	a10, a3
    1cb6:	601a04        	ae_lq32f.iu	aeq0, a10, 0
    1cb9:	0eae76        	loopgtz	a14, 1ccb <fn_analysis_frame_32+0x25b>
    1cbc:	038214        	ae_mulfq32sp16s.l	aeq2, aeq0, aep0
    1cbf:	366114        	ae_sllisq56s	aeq1, aeq2, 4
    1cc2:	061934        	ae_roundsq32asym	aeq0, aeq1
    1cc5:	624d14        	ae_sq32f.iu	aeq0, a13, 4
    1cc8:	601a14        	ae_lq32f.iu	aeq0, a10, 4

00001ccb <fn_analysis_frame_32+0x25b>:
    1ccb:	1179           	s32i.n	a7, a1, 4

00001ccd <fn_analysis_frame_32+0x25d>:
    1ccd:	1178           	l32i.n	a7, a1, 4
    1ccf:	fcccd2        	addi	a13, a12, -4
    1cd2:	0b2c           	movi.n	a11, 32
    1cd4:	398b           	addi.n	a3, a9, 8
    1cd6:	f0a082        	movi	a8, 240
    1cd9:	f90791        	l32r	a9, f8 (b4c0 <window>)
    1cdc:	20a330        	or	a10, a3, a3
    1cdf:	601a04        	ae_lq32f.iu	aeq0, a10, 0
    1ce2:	448904        	ae_lp16x2f.iu	aep0, a9, 0
    1ce5:	1aa876        	loopgtz	a8, 1d03 <fn_analysis_frame_32+0x293>
    1ce8:	038204        	ae_mulfq32sp16s.h	aeq2, aeq0, aep0
    1ceb:	066934        	ae_roundsq32asym	aeq1, aeq2
    1cee:	625d14        	ae_sq32f.iu	aeq1, a13, 4
    1cf1:	601a14        	ae_lq32f.iu	aeq0, a10, 4
    1cf4:	030214        	ae_mulfq32sp16s.l	aeq0, aeq0, aep0
    1cf7:	06c934        	ae_roundsq32asym	aeq3, aeq0
    1cfa:	627d14        	ae_sq32f.iu	aeq3, a13, 4
    1cfd:	601a14        	ae_lq32f.iu	aeq0, a10, 4
    1d00:	448914        	ae_lp16x2f.iu	aep0, a9, 4

00001d03 <fn_analysis_frame_32+0x293>:
    1d03:	0a0c           	movi.n	a10, 0
    1d05:	08dc92        	addmi	a9, a12, 0x800
    1d08:	80c992        	addi	a9, a9, -128
    1d0b:	f03d           	nop.n
    1d0d:	02ab76        	loopgtz	a11, 1d13 <fn_analysis_frame_32+0x2a3>
    1d10:	09e9a4        	ae_s32ip	a10, a9, 4
    1d13:	0cad           	mov.n	a10, a12
    1d15:	3128           	l32i.n	a2, a1, 12
    1d17:	f8f981        	l32r	a8, fc (4d38 <real_512_fft>)
    1d1a:	4148           	l32i.n	a4, a1, 16
    1d1c:	20b220        	or	a11, a2, a2
    1d1f:	0008e0        	callx8	a8
    1d22:	f8c4b2        	addi	a11, a4, -8
    1d25:	01a1c2        	movi	a12, 0x101
    1d28:	fccaa2        	addi	a10, a10, -4
    1d2b:	209220        	or	a9, a2, a2
    1d2e:	5c8904        	ae_lp24x2f.iu	aep0, a9, 0
    1d31:	8aad           	ae_sext16	a10, a10
    1d33:	111aa6        	blti	a10, 1, 1d48 <fn_analysis_frame_32+0x2d8>
    1d36:	0316a4        	wur.ae_sar	a10
    1d39:	08ac76        	loopgtz	a12, 1d45 <fn_analysis_frame_32+0x2d5>
    1d3c:	0b0084        	ae_sllssp24s	aep0, aep0
    1d3f:	5e8b14        	ae_sp24x2f.iu	aep0, a11, 8
    1d42:	5c8914        	ae_lp24x2f.iu	aep0, a9, 8
    1d45:	000446        	j	1d5a <fn_analysis_frame_32+0x2ea>

00001d48 <fn_analysis_frame_32+0x2d8>:
    1d48:	60e0a0        	neg	a14, a10
    1d4b:	0316e4        	wur.ae_sar	a14
    1d4e:	08ac76        	loopgtz	a12, 1d5a <fn_analysis_frame_32+0x2ea>
    1d51:	0b0394        	ae_srasp24	aep1, aep0
    1d54:	5e9b14        	ae_sp24x2f.iu	aep1, a11, 8
    1d57:	5c8914        	ae_lp24x2f.iu	aep0, a9, 8

00001d5a <fn_analysis_frame_32+0x2ea>:
    1d5a:	07bd           	mov.n	a11, a7
    1d5c:	f8b481        	l32r	a8, 2c (8838 <xt_memcpy>)
    1d5f:	03ad           	mov.n	a10, a3
    1d61:	e0a1c2        	movi	a12, 0x1e0
    1d64:	0008e0        	callx8	a8
    1d67:	f01d           	retw.n

00001d69 <fn_analysis_frame_32+0x2f9>:
    1d69:	000000                                        ...

00001d6c <fn_ini_syn_frame>:
    1d6c:	004136        	entry	a1, 32
    1d6f:	02ad           	mov.n	a10, a2
    1d71:	f8d781        	l32r	a8, d0 (8820 <xt_memset>)
    1d74:	0b0c           	movi.n	a11, 0
    1d76:	e8a1c2        	movi	a12, 0x1e8
    1d79:	0008e0        	callx8	a8
    1d7c:	f26232        	s32i	a3, a2, 0x3c8
    1d7f:	f01d           	retw.n

00001d81 <fn_ini_syn_frame+0x15>:
    1d81:	000000                                        ...

00001d84 <fn_syn_frame>:
    1d84:	004136        	entry	a1, 32
    1d87:	03ad           	mov.n	a10, a3
    1d89:	f8dd81        	l32r	a8, 100 (4e20 <real_512_ifft>)
    1d8c:	20b440        	or	a11, a4, a4
    1d8f:	f22232        	l32i	a3, a2, 0x3c8
    1d92:	0008e0        	callx8	a8
    1d95:	f0a0d2        	movi	a13, 240
    1d98:	ffc582        	addi	a8, a5, -1
    1d9b:	78a0f2        	movi	a15, 120
    1d9e:	209440        	or	a9, a4, a4
    1da1:	04cac2        	addi	a12, a10, 4
    1da4:	fcc3b2        	addi	a11, a3, -4
    1da7:	f8d4a1        	l32r	a10, f8 (b4c0 <window>)
    1daa:	601904        	ae_lq32f.iu	aeq0, a9, 0
    1dad:	8ccd           	ae_sext16	a12, a12
    1daf:	448a04        	ae_lp16x2f.iu	aep0, a10, 0
    1db2:	301ca6        	blti	a12, 1, 1de6 <fn_syn_frame+0x62>
    1db5:	2aad76        	loopgtz	a13, 1de3 <fn_syn_frame+0x5f>
    1db8:	fc24fe8c0f 	{ ae_slaasq56s	aeq0, aeq0, a12; nop }
    1dbd:	030204        	ae_mulfq32sp16s.h	aeq0, aeq0, aep0
    1dc0:	06c844        	ae_satq48s	aeq3, aeq0
    1dc3:	09bf14        	ae_truncp24q48x2	aep1, aeq3, aeq3
    1dc6:	529b14        	ae_sp24f.l.iu	aep1, a11, 4
    1dc9:	609914        	ae_lq32f.iu	aeq2, a9, 4
    1dcc:	fc24feac4f 	{ ae_slaasq56s	aeq1, aeq2, a12; nop }
    1dd1:	030a54        	ae_mulfq32sp16s.l	aeq1, aeq1, aep0
    1dd4:	060944        	ae_satq48s	aeq0, aeq1
    1dd7:	098c04        	ae_truncp24q48x2	aep0, aeq0, aeq0
    1dda:	528b14        	ae_sp24f.l.iu	aep0, a11, 4
    1ddd:	601914        	ae_lq32f.iu	aeq0, a9, 4
    1de0:	448a14        	ae_lp16x2f.iu	aep0, a10, 4

00001de3 <fn_syn_frame+0x5f>:
    1de3:	000b46        	j	1e14 <fn_syn_frame+0x90>

00001de6 <fn_syn_frame+0x62>:
    1de6:	2aad76        	loopgtz	a13, 1e14 <fn_syn_frame+0x90>
    1de9:	fc24fe8c4f 	{ ae_slaasq56s	aeq1, aeq0, a12; nop }
    1dee:	061934        	ae_roundsq32asym	aeq0, aeq1
    1df1:	030204        	ae_mulfq32sp16s.h	aeq0, aeq0, aep0
    1df4:	1b8d34        	ae_roundsp24q48asym	aep3, aeq0
    1df7:	52bb14        	ae_sp24f.l.iu	aep3, a11, 4
    1dfa:	60d914        	ae_lq32f.iu	aeq3, a9, 4
    1dfd:	fc24febc8f 	{ ae_slaasq56s	aeq2, aeq3, a12; nop }
    1e02:	066934        	ae_roundsq32asym	aeq1, aeq2
    1e05:	030a54        	ae_mulfq32sp16s.l	aeq1, aeq1, aep0
    1e08:	1b9d24        	ae_roundsp24q48asym	aep2, aeq1
    1e0b:	52ab14        	ae_sp24f.l.iu	aep2, a11, 4
    1e0e:	601914        	ae_lq32f.iu	aeq0, a9, 4
    1e11:	448a14        	ae_lp16x2f.iu	aep0, a10, 4

00001e14 <fn_syn_frame+0x90>:
    1e14:	f8c4b2        	addi	a11, a4, -8
    1e17:	039d           	mov.n	a9, a3
    1e19:	a28b           	addi.n	a10, a2, 8
    1e1b:	5c8a04        	ae_lp24x2f.iu	aep0, a10, 0
    1e1e:	5c9904        	ae_lp24x2f.iu	aep1, a9, 0
    1e21:	0baf76        	loopgtz	a15, 1e30 <fn_syn_frame+0xac>
    1e24:	078144        	ae_addsp24s	aep4, aep0, aep1
    1e27:	5ecb14        	ae_sp24x2f.iu	aep4, a11, 8
    1e2a:	5c8a14        	ae_lp24x2f.iu	aep0, a10, 8
    1e2d:	5c9914        	ae_lp24x2f.iu	aep1, a9, 8

00001e30 <fn_syn_frame+0xac>:
    1e30:	114856        	bnez	a8, 1f48 <fn_syn_frame+0x1c4>
    1e33:	404010        	ssai	16
    1e36:	04c8           	l32i.n	a12, a4, 0
    1e38:	f8af61        	l32r	a6, f4 (7af1aa <_end+0x7a0a0a>)
    1e3b:	1258           	l32i.n	a5, a2, 4
    1e3d:	02e8           	l32i.n	a14, a2, 0
    1e3f:	f8acf1        	l32r	a15, f0 (15cc64 <_end+0x14e4c4>)
    1e42:	215850        	srai	a5, a5, 8
    1e45:	21e8e0        	srai	a14, a14, 8
    1e48:	82bef0        	mull	a11, a14, a15
    1e4b:	82d560        	mull	a13, a5, a6
    1e4e:	b2eef0        	mulsh	a14, a14, a15
    1e51:	b25560        	mulsh	a5, a5, a6
    1e54:	31ffc0        	srai	a15, a12, 31
    1e57:	060c           	movi.n	a6, 0
    1e59:	81ffc0        	src	a15, a15, a12
    1e5c:	11cc00        	slli	a12, a12, 16
    1e5f:	404f10        	ssai	31
    1e62:	81eeb0        	src	a14, a14, a11
    1e65:	8155d0        	src	a5, a5, a13
    1e68:	11bbf0        	slli	a11, a11, 1
    1e6b:	11ddf0        	slli	a13, a13, 1
    1e6e:	ff5a           	add.n	a15, a15, a5
    1e70:	404810        	ssai	24
    1e73:	f8a451        	l32r	a5, 104 (800000 <_end+0x7f1860>)
    1e76:	dcda           	add.n	a13, a12, a13
    1e78:	c0bdb0        	sub	a11, a13, a11
    1e7b:	62cdc0        	saltu	a12, a13, a12
    1e7e:	ccfa           	add.n	a12, a12, a15
    1e80:	ab5a           	add.n	a10, a11, a5
    1e82:	62ddb0        	saltu	a13, a13, a11
    1e85:	c0cce0        	sub	a12, a12, a14
    1e88:	c0ccd0        	sub	a12, a12, a13
    1e8b:	62bab0        	saltu	a11, a10, a11
    1e8e:	bbca           	add.n	a11, a11, a12
    1e90:	81aba0        	src	a10, a11, a10
    1e93:	31b8b0        	srai	a11, a11, 24
    1e96:	81bba0        	src	a11, a11, a10
    1e99:	11aa80        	slli	a10, a10, 8
    1e9c:	ff07a5        	call8	f18 <_saturate24>
    1e9f:	404010        	ssai	16
    1ea2:	14c8           	l32i.n	a12, a4, 4
    1ea4:	f893f1        	l32r	a15, f0 (15cc64 <_end+0x14e4c4>)
    1ea7:	f89391        	l32r	a9, f4 (7af1aa <_end+0x7a0a0a>)
    1eaa:	04a9           	s32i.n	a10, a4, 0
    1eac:	12e8           	l32i.n	a14, a2, 4
    1eae:	2188a0        	srai	a8, a10, 8
    1eb1:	82d890        	mull	a13, a8, a9
    1eb4:	21e8e0        	srai	a14, a14, 8
    1eb7:	82bef0        	mull	a11, a14, a15
    1eba:	b28890        	mulsh	a8, a8, a9
    1ebd:	b2eef0        	mulsh	a14, a14, a15
    1ec0:	31ffc0        	srai	a15, a12, 31
    1ec3:	81ffc0        	src	a15, a15, a12
    1ec6:	11cc00        	slli	a12, a12, 16
    1ec9:	404f10        	ssai	31
    1ecc:	81eeb0        	src	a14, a14, a11
    1ecf:	8188d0        	src	a8, a8, a13
    1ed2:	ff8a           	add.n	a15, a15, a8
    1ed4:	11bbf0        	slli	a11, a11, 1
    1ed7:	11ddf0        	slli	a13, a13, 1
    1eda:	404810        	ssai	24
    1edd:	dcda           	add.n	a13, a12, a13
    1edf:	62cdc0        	saltu	a12, a13, a12
    1ee2:	c0bdb0        	sub	a11, a13, a11
    1ee5:	ab5a           	add.n	a10, a11, a5
    1ee7:	ccfa           	add.n	a12, a12, a15
    1ee9:	62ddb0        	saltu	a13, a13, a11
    1eec:	c0cce0        	sub	a12, a12, a14
    1eef:	c0ccd0        	sub	a12, a12, a13
    1ef2:	62bab0        	saltu	a11, a10, a11
    1ef5:	cc6a           	add.n	a12, a12, a6
    1ef7:	bbca           	add.n	a11, a11, a12
    1ef9:	81aba0        	src	a10, a11, a10
    1efc:	31b8b0        	srai	a11, a11, 24
    1eff:	81bba0        	src	a11, a11, a10
    1f02:	11aa80        	slli	a10, a10, 8
    1f05:	ff0125        	call8	f18 <_saturate24>
    1f08:	08c492        	addi	a9, a4, 8
    1f0b:	f879c1        	l32r	a12, f0 (15cc64 <_end+0x14e4c4>)
    1f0e:	0164a2        	s32i	a10, a4, 4
    1f11:	f878b1        	l32r	a11, f4 (7af1aa <_end+0x7a0a0a>)
    1f14:	eea0a2        	movi	a10, 238
    1f17:	39bbc4        	ae_movpa24x2	aep3, a11, a12
    1f1a:	50d904        	ae_lp24f.iu	aep5, a9, 0
    1f1d:	5019f4        	ae_lp24f.i	aep1, a9, -4
    1f20:	fcac2e09ef 	{ ae_lp24f.i	aep0, a9, -8; ae_cvtq48p24s.l	aeq0, aep5 }
    1f25:	13aa76        	loopgtz	a10, 1f3c <fn_syn_frame+0x1b8>
    1f28:	011304        	ae_mulafp24s.hh	aeq0, aep1, aep3
    1f2b:	0103b4        	ae_mulsfp24s.ll	aeq0, aep0, aep3

00001f2e <fn_syn_frame+0x1aa>:
    1f2e:	f867ff103f 	{ ae_movp48	aep0, aep1; ae_roundsp24q48asym	aep1, aeq0 }
    1f33:	529904        	ae_sp24f.l.iu	aep1, a9, 0
    1f36:	50e914        	ae_lp24f.iu	aep6, a9, 4
    1f39:	0a0684        	ae_cvtq48p24s.l	aeq0, aep6

00001f3c <fn_syn_frame+0x1b8>:
    1f3c:	ee24e2        	l32i	a14, a4, 0x3b8
    1f3f:	0062e2        	s32i	a14, a2, 0
    1f42:	ef24d2        	l32i	a13, a4, 0x3bc
    1f45:	0162d2        	s32i	a13, a2, 4

00001f48 <fn_syn_frame+0x1c4>:
    1f48:	78a0f2        	movi	a15, 120
    1f4b:	04d392        	addmi	a9, a3, 0x400
    1f4e:	b8c992        	addi	a9, a9, -72
    1f51:	05af76        	loopgtz	a15, 1f5a <fn_syn_frame+0x1d6>
    1f54:	5cf914        	ae_lp24x2f.iu	aep7, a9, 8
    1f57:	5ef214        	ae_sp24x2f.iu	aep7, a2, 8

00001f5a <fn_syn_frame+0x1d6>:
    1f5a:	f01d           	retw.n

00001f5c <fn_ini_calc_sup_gain>:
    1f5c:	008136        	entry	a1, 64
    1f5f:	02ad           	mov.n	a10, a2
    1f61:	f85b81        	l32r	a8, d0 (8820 <xt_memset>)
    1f64:	0b0c           	movi.n	a11, 0
    1f66:	0aa2c2        	movi	a12, 0x20a
    1f69:	0008e0        	callx8	a8
    1f6c:	02ad           	mov.n	a10, a2
    1f6e:	f82f81        	l32r	a8, 2c (8838 <xt_memcpy>)
    1f71:	03bd           	mov.n	a11, a3
    1f73:	6c0c           	movi.n	a12, 6
    1f75:	0008e0        	callx8	a8
    1f78:	0493b2        	l16si	a11, a3, 8
    1f7b:	f84de1        	l32r	a14, b0 (e460 <all_amt_tab>)
    1f7e:	0593c2        	l16si	a12, a3, 10
    1f81:	4bcc           	bnez.n	a11, 1f89 <fn_ini_calc_sup_gain+0x2d>
    1f83:	01a1d2        	movi	a13, 0x101
    1f86:	000586        	j	1fa0 <fn_ini_calc_sup_gain+0x44>

00001f89 <fn_ini_calc_sup_gain+0x2d>:
    1f89:	ab0b           	addi.n	a10, a11, -1
    1f8b:	8aad           	ae_sext16	a10, a10
    1f8d:	a0daa0        	addx4	a13, a10, a10
    1f90:	b0dde0        	addx8	a13, a13, a14
    1f93:	2ddd           	ae_l16si.n	a13, a13, 0
    1f95:	61ad           	ae_s16i.n	a10, a1, 0
    1f97:	a09d20        	addx4	a9, a13, a2
    1f9a:	0cc992        	addi	a9, a9, 12
    1f9d:	016192        	s32i	a9, a1, 4

00001fa0 <fn_ini_calc_sup_gain+0x44>:
    1fa0:	92cb           	addi.n	a9, a2, 12
    1fa2:	00a1a2        	movi	a10, 0x100
    1fa5:	02ad76        	loopgtz	a13, 1fab <fn_ini_calc_sup_gain+0x4f>
    1fa8:	09e9a4        	ae_s32ip	a10, a9, 4

00001fab <fn_ini_calc_sup_gain+0x4f>:
    1fab:	4129           	s32i.n	a2, a1, 16
    1fad:	092b16        	beqz	a11, 2043 <fn_ini_calc_sup_gain+0xe7>
    1fb0:	05ccd6        	bgez	a12, 2010 <fn_ini_calc_sup_gain+0xb4>
    1fb3:	4129           	s32i.n	a2, a1, 16
    1fb5:	021de6        	bgei	a13, 1, 1fbb <fn_ini_calc_sup_gain+0x5f>
    1fb8:	0021c6        	j	2043 <fn_ini_calc_sup_gain+0xe7>
    1fbb:	050c           	movi.n	a5, 0
    1fbd:	0b0c           	movi.n	a11, 0
    1fbf:	1a0c           	movi.n	a10, 1
    1fc1:	3149           	s32i.n	a4, a1, 12
    1fc3:	f85181        	l32r	a8, 108 (887c <__ashldi3>)
    1fc6:	1168           	l32i.n	a6, a1, 4
    1fc8:	212d           	ae_l16si.n	a2, a1, 0
    1fca:	6030c0        	neg	a3, a12
    1fcd:	f77c           	movi.n	a7, -1
    1fcf:	c0c7c0        	sub	a12, a7, a12
    1fd2:	a02220        	addx4	a2, a2, a2
    1fd5:	a07d60        	addx4	a7, a13, a6
    1fd8:	b022e0        	addx8	a2, a2, a14
    1fdb:	0008e0        	callx8	a8
    1fde:	0a4d           	mov.n	a4, a10
    1fe0:	21b9           	s32i.n	a11, a1, 8

00001fe2 <fn_ini_calc_sup_gain+0x86>:
    1fe2:	92a8           	l32i.n	a10, a2, 36
    1fe4:	a5aa           	add.n	a10, a5, a10
    1fe6:	0aa8           	l32i.n	a10, a10, 0
    1fe8:	1713a6        	blti	a3, 1, 2003 <fn_ini_calc_sup_gain+0xa7>
    1feb:	f84881        	l32r	a8, 10c (8894 <__ashrdi3>)
    1fee:	21d8           	l32i.n	a13, a1, 8
    1ff0:	31cfa0        	srai	a12, a10, 31
    1ff3:	9a4a           	add.n	a9, a10, a4
    1ff5:	62b9a0        	saltu	a11, a9, a10
    1ff8:	ccda           	add.n	a12, a12, a13
    1ffa:	bbca           	add.n	a11, a11, a12
    1ffc:	09ad           	mov.n	a10, a9
    1ffe:	03cd           	mov.n	a12, a3
    2000:	0008e0        	callx8	a8

00002003 <fn_ini_calc_sup_gain+0xa7>:
    2003:	554b           	addi.n	a5, a5, 4
    2005:	09e6a4        	ae_s32ip	a10, a6, 4
    2008:	d69677        	bne	a6, a7, 1fe2 <fn_ini_calc_sup_gain+0x86>
    200b:	3148           	l32i.n	a4, a1, 12
    200d:	000c86        	j	2043 <fn_ini_calc_sup_gain+0xe7>

00002010 <fn_ini_calc_sup_gain+0xb4>:
    2010:	4129           	s32i.n	a2, a1, 16
    2012:	2d1da6        	blti	a13, 1, 2043 <fn_ini_calc_sup_gain+0xe7>
    2015:	1168           	l32i.n	a6, a1, 4
    2017:	212d           	ae_l16si.n	a2, a1, 0
    2019:	050c           	movi.n	a5, 0
    201b:	a07d60        	addx4	a7, a13, a6
    201e:	a02220        	addx4	a2, a2, a2
    2021:	b022e0        	addx8	a2, a2, a14

00002024 <fn_ini_calc_sup_gain+0xc8>:
    2024:	92b8           	l32i.n	a11, a2, 36
    2026:	bb5a           	add.n	a11, a11, a5
    2028:	0bb8           	l32i.n	a11, a11, 0
    202a:	0593c2        	l16si	a12, a3, 10
    202d:	f83681        	l32r	a8, 108 (887c <__ashldi3>)
    2030:	0bad           	mov.n	a10, a11
    2032:	31bfb0        	srai	a11, a11, 31
    2035:	0008e0        	callx8	a8
    2038:	feeaa5        	call8	ee4 <_saturate32>
    203b:	554b           	addi.n	a5, a5, 4
    203d:	09e6a4        	ae_s32ip	a10, a6, 4
    2040:	e09677        	bne	a6, a7, 2024 <fn_ini_calc_sup_gain+0xc8>
    2043:	41c8           	l32i.n	a12, a1, 16
    2045:	04dcc2        	addmi	a12, a12, 0x400
    2048:	4c49           	s32i.n	a4, a12, 16
    204a:	f01d           	retw.n

0000204c <fn_calc_sup_gain>:
    204c:	014136        	entry	a1, 160
    204f:	0492b2        	l16si	a11, a2, 8
    2052:	1159           	s32i.n	a5, a1, 4
    2054:	036d           	mov.n	a6, a3
    2056:	abcc           	bnez.n	a11, 2064 <fn_calc_sup_gain+0x18>
    2058:	053d           	mov.n	a3, a5
    205a:	3149           	s32i.n	a4, a1, 12
    205c:	2139           	s32i.n	a3, a1, 8
    205e:	01a132        	movi	a3, 0x101
    2061:	000d46        	j	209a <fn_calc_sup_gain+0x4e>

00002064 <fn_calc_sup_gain+0x18>:
    2064:	f82b81        	l32r	a8, 110 (f4c <mel_filter>)
    2067:	f81261        	l32r	a6, b0 (e460 <all_amt_tab>)
    206a:	03ad           	mov.n	a10, a3
    206c:	7b0b           	addi.n	a7, a11, -1
    206e:	877d           	ae_sext16	a7, a7
    2070:	a03770        	addx4	a3, a7, a7
    2073:	b03360        	addx8	a3, a3, a6
    2076:	233d           	ae_l16si.n	a3, a3, 0
    2078:	04d262        	addmi	a6, a2, 0x400
    207b:	4668           	l32i.n	a6, a6, 16
    207d:	07cd           	mov.n	a12, a7
    207f:	3169           	s32i.n	a6, a1, 12
    2081:	b09360        	addx8	a9, a3, a6
    2084:	2199           	s32i.n	a9, a1, 8
    2086:	a06360        	addx4	a6, a3, a6
    2089:	06bd           	mov.n	a11, a6
    208b:	0008e0        	callx8	a8
    208e:	07cd           	mov.n	a12, a7
    2090:	f82081        	l32r	a8, 110 (f4c <mel_filter>)
    2093:	04ad           	mov.n	a10, a4
    2095:	31b8           	l32i.n	a11, a1, 12
    2097:	0008e0        	callx8	a8

0000209a <fn_calc_sup_gain+0x4e>:
    209a:	229d           	ae_l16si.n	a9, a2, 0
    209c:	029272        	l16si	a7, a2, 4
    209f:	324d           	ae_l16si.n	a4, a2, 2
    20a1:	0a2956        	bnez	a9, 2147 <fn_calc_sup_gain+0xfb>
    20a4:	31e8           	l32i.n	a14, a1, 12
    20a6:	0292c2        	l16si	a12, a2, 4
    20a9:	32bd           	ae_l16si.n	a11, a2, 2
    20ab:	42cb           	addi.n	a4, a2, 12
    20ad:	06fd           	mov.n	a15, a6
    20af:	601f04        	ae_lq32f.iu	aeq0, a15, 0
    20b2:	609404        	ae_lq32f.iu	aeq2, a4, 0
    20b5:	300bc4        	ae_cvtp24a16x2.ll	aep0, a11, a12
    20b8:	560174        	ae_sp24x2s.i	aep0, a1, 56
    20bb:	21c8           	l32i.n	a12, a1, 8
    20bd:	605e04        	ae_lq32f.iu	aeq1, a14, 0
    20c0:	599316        	beqz	a3, 265d <fn_calc_sup_gain+0x611>

000020c3 <fn_calc_sup_gain+0x77>:
    20c3:	01e9c4        	ae_addq56	aeq3, aeq2, aeq1
    20c6:	ff84f0217f 	{ ae_lp24x2.i	aep2, a1, 56; ae_satq48s	aeq3, aeq3 }
    20cb:	03aac4        	ae_mulfq32sp16s.h	aeq3, aeq3, aep2
    20ce:	03a814        	ae_mulafq32sp16s.l	aeq3, aeq0, aep2
    20d1:	1bbd14        	ae_roundsp24q48asym	aep1, aeq3
    20d4:	009ad4        	ae_cvta32p24.h	a10, aep1
    20d7:	fa427f1bef 	{ ae_trunca32q48	a11, aeq1; ae_truncp24q48x2	aep5, aeq0, aeq0 }
    20dc:	3acc           	bnez.n	a10, 20e3 <fn_calc_sup_gain+0x97>
    20de:	0a0c           	movi.n	a10, 0
    20e0:	000bc6        	j	2113 <fn_calc_sup_gain+0xc7>

000020e3 <fn_calc_sup_gain+0x97>:
    20e3:	052ba7        	blt	a11, a10, 20ec <fn_calc_sup_gain+0xa0>
    20e6:	f7dda1        	l32r	a10, 5c (7fff <xtensa_fft8_32b+0x27>)
    20e9:	000986        	j	2113 <fn_calc_sup_gain+0xc7>

000020ec <fn_calc_sup_gain+0xa0>:
    20ec:	364a34        	ae_cvtq48a32s	aeq1, a10
    20ef:	36cb34        	ae_cvtq48a32s	aeq3, a11
    20f2:	40ea80        	nsa	a8, a10
    20f5:	888d           	ae_sext16	a8, a8
    20f7:	fc24feb88f 	{ ae_slaasq56s	aeq2, aeq3, a8; nop }
    20fc:	ff80cf188e 	{ addi	a8, a8, -15; ae_satq48s	aeq3, aeq2 }
    2101:	fc24fe988f 	{ ae_slaasq56s	aeq2, aeq1, a8; nop }
    2106:	fd80ff3aef 	{ ae_trunca32q48	a10, aeq3; ae_satq48s	aeq1, aeq2 }
    210b:	369d04        	ae_trunca32q48	a13, aeq1
    210e:	d2aad0        	quos	a10, a10, a13
    2111:	aaad           	ae_clamps16	a10, a10
    2113:	f7d2b1        	l32r	a11, 5c (7fff <xtensa_fft8_32b+0x27>)
    2116:	039292        	l16si	a9, a2, 6
    2119:	c0bba0        	sub	a11, a11, a10
    211c:	8bbd           	ae_sext16	a11, a11
    211e:	5399b0        	max	a9, a9, a11
    2121:	899d           	ae_sext16	a9, a9
    2123:	306994        	ae_cvtp24a16x2.ll	aep6, a9, a9
    2126:	01e644        	ae_mulfp24s.hh	aeq2, aep6, aep6
    2129:	1bad44        	ae_roundsp24q48asym	aep4, aeq2
    212c:	014d44        	ae_mulfp24s.hh	aeq1, aep4, aep5
    212f:	09cc94        	ae_s16ip	a9, a12, 2
    2132:	1b9d34        	ae_roundsp24q48asym	aep3, aeq1
    2135:	0a0384        	ae_cvtq48p24s.l	aeq0, aep3
    2138:	624404        	ae_sq32f.iu	aeq0, a4, 0
    213b:	609414        	ae_lq32f.iu	aeq2, a4, 4
    213e:	601f14        	ae_lq32f.iu	aeq0, a15, 4
    2141:	605e14        	ae_lq32f.iu	aeq1, a14, 4
    2144:	ffdec6        	j	20c3 <fn_calc_sup_gain+0x77>

00002147 <fn_calc_sup_gain+0xfb>:
    2147:	c90b           	addi.n	a12, a9, -1
    2149:	318c56        	bnez	a12, 2465 <fn_calc_sup_gain+0x419>
    214c:	0213e6        	bgei	a3, 1, 2152 <fn_calc_sup_gain+0x106>
    214f:	014286        	j	265d <fn_calc_sup_gain+0x611>
    2152:	f7ec41        	l32r	a4, 104 (800000 <_end+0x7f1860>)
    2155:	3178           	l32i.n	a7, a1, 12
    2157:	21a8           	l32i.n	a10, a1, 8
    2159:	c169           	s32i.n	a6, a1, 48
    215b:	92cb           	addi.n	a9, a2, 12
    215d:	9199           	s32i.n	a9, a1, 36
    215f:	f7c661        	l32r	a6, 78 (8000 <xtensa_fft8_32b+0x28>)
    2162:	9053a0        	addx2	a5, a3, a10
    2165:	0a3d           	mov.n	a3, a10

00002167 <fn_calc_sup_gain+0x11b>:
    2167:	c1b8           	l32i.n	a11, a1, 48
    2169:	07a8           	l32i.n	a10, a7, 0
    216b:	0bb8           	l32i.n	a11, a11, 0
    216d:	31dfa0        	srai	a13, a10, 31
    2170:	c0aba0        	sub	a10, a11, a10
    2173:	62cba0        	saltu	a12, a11, a10
    2176:	31bfb0        	srai	a11, a11, 31
    2179:	c0bbd0        	sub	a11, a11, a13
    217c:	c0bbc0        	sub	a11, a11, a12
    217f:	fed665        	call8	ee4 <_saturate32>
    2182:	91d8           	l32i.n	a13, a1, 36
    2184:	07e8           	l32i.n	a14, a7, 0
    2186:	0b0c           	movi.n	a11, 0
    2188:	0dd8           	l32i.n	a13, a13, 0
    218a:	3ecc           	bnez.n	a14, 2191 <fn_calc_sup_gain+0x145>
    218c:	0a0c           	movi.n	a10, 0
    218e:	000d46        	j	21c7 <fn_calc_sup_gain+0x17b>

00002191 <fn_calc_sup_gain+0x145>:
    2191:	53aba0        	max	a10, a11, a10
    2194:	21a8a0        	srai	a10, a10, 8
    2197:	052ae7        	blt	a10, a14, 21a0 <fn_calc_sup_gain+0x154>
    219a:	f7b0a1        	l32r	a10, 5c (7fff <xtensa_fft8_32b+0x27>)
    219d:	000986        	j	21c7 <fn_calc_sup_gain+0x17b>

000021a0 <fn_calc_sup_gain+0x154>:
    21a0:	368e34        	ae_cvtq48a32s	aeq2, a14
    21a3:	360a34        	ae_cvtq48a32s	aeq0, a10
    21a6:	40eec0        	nsa	a12, a14
    21a9:	8ccd           	ae_sext16	a12, a12
    21ab:	fc24fe8ccf 	{ ae_slaasq56s	aeq3, aeq0, a12; nop }
    21b0:	fd84cf1cce 	{ addi	a12, a12, -15; ae_satq48s	aeq1, aeq3 }
    21b5:	fc24feac0f 	{ ae_slaasq56s	aeq0, aeq2, a12; nop }
    21ba:	ff00ff1aef 	{ ae_trunca32q48	a10, aeq1; ae_satq48s	aeq3, aeq0 }
    21bf:	36bb04        	ae_trunca32q48	a11, aeq3
    21c2:	d2aab0        	quos	a10, a10, a11
    21c5:	aaad           	ae_clamps16	a10, a10
    21c7:	81a9           	s32i.n	a10, a1, 32
    21c9:	21a8d0        	srai	a10, a13, 8
    21cc:	3ecc           	bnez.n	a14, 21d3 <fn_calc_sup_gain+0x187>
    21ce:	0a0c           	movi.n	a10, 0
    21d0:	000bc6        	j	2203 <fn_calc_sup_gain+0x1b7>

000021d3 <fn_calc_sup_gain+0x187>:
    21d3:	052ae7        	blt	a10, a14, 21dc <fn_calc_sup_gain+0x190>
    21d6:	f7a1a1        	l32r	a10, 5c (7fff <xtensa_fft8_32b+0x27>)
    21d9:	000986        	j	2203 <fn_calc_sup_gain+0x1b7>

000021dc <fn_calc_sup_gain+0x190>:
    21dc:	360e34        	ae_cvtq48a32s	aeq0, a14
    21df:	368a34        	ae_cvtq48a32s	aeq2, a10
    21e2:	40eec0        	nsa	a12, a14
    21e5:	8ccd           	ae_sext16	a12, a12
    21e7:	fc24feac4f 	{ ae_slaasq56s	aeq1, aeq2, a12; nop }
    21ec:	ff04cf1cce 	{ addi	a12, a12, -15; ae_satq48s	aeq3, aeq1 }
    21f1:	fc24fe8c8f 	{ ae_slaasq56s	aeq2, aeq0, a12; nop }
    21f6:	fd80ff3aef 	{ ae_trunca32q48	a10, aeq3; ae_satq48s	aeq1, aeq2 }
    21fb:	369b04        	ae_trunca32q48	a11, aeq1
    21fe:	d2aab0        	quos	a10, a10, a11
    2201:	aaad           	ae_clamps16	a10, a10
    2203:	404f10        	ssai	31
    2206:	81f8           	l32i.n	a15, a1, 32
    2208:	32dd           	ae_l16si.n	a13, a2, 2
    220a:	11ea00        	slli	a14, a10, 16
    220d:	21e8e0        	srai	a14, a14, 8
    2210:	11dd00        	slli	a13, a13, 16
    2213:	21d8d0        	srai	a13, a13, 8
    2216:	82cde0        	mull	a12, a13, a14
    2219:	b2dde0        	mulsh	a13, a13, a14
    221c:	0292e2        	l16si	a14, a2, 4
    221f:	11ff00        	slli	a15, a15, 16
    2222:	21f8f0        	srai	a15, a15, 8
    2225:	11ee00        	slli	a14, a14, 16
    2228:	21e8e0        	srai	a14, a14, 8
    222b:	82bef0        	mull	a11, a14, a15
    222e:	b2eef0        	mulsh	a14, a14, a15
    2231:	81ddc0        	src	a13, a13, a12
    2234:	81eeb0        	src	a14, a14, a11
    2237:	404810        	ssai	24
    223a:	ddea           	add.n	a13, a13, a14
    223c:	11bbf0        	slli	a11, a11, 1
    223f:	90bcb0        	addx2	a11, a12, a11
    2242:	ab4a           	add.n	a10, a11, a4
    2244:	11ccf0        	slli	a12, a12, 1
    2247:	62cbc0        	saltu	a12, a11, a12
    224a:	ccda           	add.n	a12, a12, a13
    224c:	62bab0        	saltu	a11, a10, a11
    224f:	bbca           	add.n	a11, a11, a12
    2251:	81aba0        	src	a10, a11, a10
    2254:	31b8b0        	srai	a11, a11, 24
    2257:	81bba0        	src	a11, a11, a10
    225a:	11aa80        	slli	a10, a10, 8
    225d:	fecba5        	call8	f18 <_saturate24>
    2260:	404700        	ssai	7
    2263:	21f8a0        	srai	a15, a10, 8
    2266:	82baf0        	mull	a11, a10, a15
    2269:	b2caf0        	mulsh	a12, a10, a15
    226c:	b1f9           	s32i.n	a15, a1, 44
    226e:	81bcb0        	src	a11, a12, a11
    2271:	31fff0        	srai	a15, a15, 31
    2274:	a1f9           	s32i.n	a15, a1, 40
    2276:	404010        	ssai	16
    2279:	ab6a           	add.n	a10, a11, a6
    227b:	21c7c0        	srai	a12, a12, 7
    227e:	62bab0        	saltu	a11, a10, a11
    2281:	bbca           	add.n	a11, a11, a12
    2283:	81aba0        	src	a10, a11, a10
    2286:	31b0b0        	srai	a11, a11, 16
    2289:	fec5a5        	call8	ee4 <_saturate32>
    228c:	b1b8           	l32i.n	a11, a1, 44
    228e:	a1d8           	l32i.n	a13, a1, 40
    2290:	41a9           	s32i.n	a10, a1, 16
    2292:	cb6a           	add.n	a12, a11, a6
    2294:	0cad           	mov.n	a10, a12
    2296:	62bcb0        	saltu	a11, a12, a11
    2299:	bbda           	add.n	a11, a11, a13
    229b:	fec4a5        	call8	ee4 <_saturate32>
    229e:	81b8           	l32i.n	a11, a1, 32
    22a0:	51a9           	s32i.n	a10, a1, 20
    22a2:	11cb80        	slli	a12, a11, 8
    22a5:	31b8b0        	srai	a11, a11, 24
    22a8:	0cad           	mov.n	a10, a12
    22aa:	fec3a5        	call8	ee4 <_saturate32>
    22ad:	0acd           	mov.n	a12, a10
    22af:	aa6a           	add.n	a10, a10, a6
    22b1:	62bac0        	saltu	a11, a10, a12
    22b4:	31cfc0        	srai	a12, a12, 31
    22b7:	bbca           	add.n	a11, a11, a12
    22b9:	fec2a5        	call8	ee4 <_saturate32>
    22bc:	a1e8           	l32i.n	a14, a1, 40
    22be:	b1d8           	l32i.n	a13, a1, 44
    22c0:	41c8           	l32i.n	a12, a1, 16
    22c2:	01a9           	s32i.n	a10, a1, 0
    22c4:	71c9           	s32i.n	a12, a1, 28
    22c6:	dcda           	add.n	a13, a12, a13
    22c8:	62bdc0        	saltu	a11, a13, a12
    22cb:	0dad           	mov.n	a10, a13
    22cd:	31cfc0        	srai	a12, a12, 31
    22d0:	61c9           	s32i.n	a12, a1, 24
    22d2:	ccea           	add.n	a12, a12, a14
    22d4:	bbca           	add.n	a11, a11, a12
    22d6:	fec0e5        	call8	ee4 <_saturate32>
    22d9:	0abd           	mov.n	a11, a10
    22db:	31cfa0        	srai	a12, a10, 31
    22de:	ccca           	add.n	a12, a12, a12
    22e0:	aaaa           	add.n	a10, a10, a10
    22e2:	62bab0        	saltu	a11, a10, a11
    22e5:	bbca           	add.n	a11, a11, a12
    22e7:	febfe5        	call8	ee4 <_saturate32>
    22ea:	01e8           	l32i.n	a14, a1, 0
    22ec:	404800        	ssai	8
    22ef:	31cfa0        	srai	a12, a10, 31
    22f2:	3ecc           	bnez.n	a14, 22f9 <fn_calc_sup_gain+0x2ad>
    22f4:	0a0c           	movi.n	a10, 0
    22f6:	000f46        	j	2337 <fn_calc_sup_gain+0x2eb>

000022f9 <fn_calc_sup_gain+0x2ad>:
    22f9:	01dab2        	addmi	a11, a10, 0x100
    22fc:	80cbb2        	addi	a11, a11, -128
    22ff:	62aba0        	saltu	a10, a11, a10
    2302:	aaca           	add.n	a10, a10, a12
    2304:	81aab0        	src	a10, a10, a11
    2307:	052ae7        	blt	a10, a14, 2310 <fn_calc_sup_gain+0x2c4>
    230a:	f754a1        	l32r	a10, 5c (7fff <xtensa_fft8_32b+0x27>)
    230d:	000986        	j	2337 <fn_calc_sup_gain+0x2eb>

00002310 <fn_calc_sup_gain+0x2c4>:
    2310:	368e34        	ae_cvtq48a32s	aeq2, a14
    2313:	360a34        	ae_cvtq48a32s	aeq0, a10
    2316:	40eec0        	nsa	a12, a14
    2319:	8ccd           	ae_sext16	a12, a12
    231b:	fc24fe8ccf 	{ ae_slaasq56s	aeq3, aeq0, a12; nop }
    2320:	fd84cf1cce 	{ addi	a12, a12, -15; ae_satq48s	aeq1, aeq3 }
    2325:	fc24feac0f 	{ ae_slaasq56s	aeq0, aeq2, a12; nop }
    232a:	ff00ff1aef 	{ ae_trunca32q48	a10, aeq1; ae_satq48s	aeq3, aeq0 }
    232f:	36bb04        	ae_trunca32q48	a11, aeq3
    2332:	d2aab0        	quos	a10, a10, a11
    2335:	aaad           	ae_clamps16	a10, a10
    2337:	31bba0        	srai	a11, a10, 27
    233a:	11dab0        	slli	a13, a10, 5
    233d:	0dad           	mov.n	a10, a13
    233f:	feba65        	call8	ee4 <_saturate32>
    2342:	404300        	ssai	3
    2345:	6188           	l32i.n	a8, a1, 24
    2347:	71e8           	l32i.n	a14, a1, 28
    2349:	0abd           	mov.n	a11, a10
    234b:	31cfb0        	srai	a12, a11, 31
    234e:	fe4b           	addi.n	a15, a14, 4
    2350:	62efe0        	saltu	a14, a15, a14
    2353:	ee8a           	add.n	a14, a14, a8
    2355:	81eef0        	src	a14, a14, a15
    2358:	aaea           	add.n	a10, a10, a14
    235a:	31dfe0        	srai	a13, a14, 31
    235d:	ccda           	add.n	a12, a12, a13
    235f:	62bab0        	saltu	a11, a10, a11
    2362:	bbca           	add.n	a11, a11, a12
    2364:	feb7e5        	call8	ee4 <_saturate32>
    2367:	f76b81        	l32r	a8, 114 (d80 <fxsqrt_ie>)
    236a:	0008e0        	callx8	a8
    236d:	0abd           	mov.n	a11, a10
    236f:	11aa70        	slli	a10, a10, 9
    2372:	31b7b0        	srai	a11, a11, 23
    2375:	feb6e5        	call8	ee4 <_saturate32>
    2378:	0abd           	mov.n	a11, a10
    237a:	a1d8           	l32i.n	a13, a1, 40
    237c:	b1a8           	l32i.n	a10, a1, 44
    237e:	31cfb0        	srai	a12, a11, 31
    2381:	ccda           	add.n	a12, a12, a13
    2383:	abaa           	add.n	a10, a11, a10
    2385:	62bab0        	saltu	a11, a10, a11
    2388:	bbca           	add.n	a11, a11, a12
    238a:	feb5a5        	call8	ee4 <_saturate32>
    238d:	51b8           	l32i.n	a11, a1, 20
    238f:	1461a2        	s32i	a10, a1, 80
    2392:	31dfb0        	srai	a13, a11, 31
    2395:	cbba           	add.n	a12, a11, a11
    2397:	0cad           	mov.n	a10, a12
    2399:	ddda           	add.n	a13, a13, a13
    239b:	62bcb0        	saltu	a11, a12, a11
    239e:	bbda           	add.n	a11, a11, a13
    23a0:	feb425        	call8	ee4 <_saturate32>
    23a3:	1421e2        	l32i	a14, a1, 80
    23a6:	3acc           	bnez.n	a10, 23ad <fn_calc_sup_gain+0x361>
    23a8:	0a0c           	movi.n	a10, 0
    23aa:	000bc6        	j	23dd <fn_calc_sup_gain+0x391>

000023ad <fn_calc_sup_gain+0x361>:
    23ad:	052ea7        	blt	a14, a10, 23b6 <fn_calc_sup_gain+0x36a>
    23b0:	f72ba1        	l32r	a10, 5c (7fff <xtensa_fft8_32b+0x27>)
    23b3:	000986        	j	23dd <fn_calc_sup_gain+0x391>

000023b6 <fn_calc_sup_gain+0x36a>:
    23b6:	360a34        	ae_cvtq48a32s	aeq0, a10
    23b9:	368e34        	ae_cvtq48a32s	aeq2, a14
    23bc:	40eac0        	nsa	a12, a10
    23bf:	8ccd           	ae_sext16	a12, a12
    23c1:	fc24feac4f 	{ ae_slaasq56s	aeq1, aeq2, a12; nop }
    23c6:	ff04cf1cce 	{ addi	a12, a12, -15; ae_satq48s	aeq3, aeq1 }
    23cb:	fc24fe8c8f 	{ ae_slaasq56s	aeq2, aeq0, a12; nop }
    23d0:	fd80ff3aef 	{ ae_trunca32q48	a10, aeq3; ae_satq48s	aeq1, aeq2 }
    23d5:	369b04        	ae_trunca32q48	a11, aeq1
    23d8:	d2aab0        	quos	a10, a10, a11
    23db:	aaad           	ae_clamps16	a10, a10
    23dd:	63ad           	ae_s16i.n	a10, a3, 0
    23df:	0392e2        	l16si	a14, a2, 6
    23e2:	03aae7        	bge	a10, a14, 23e9 <fn_calc_sup_gain+0x39d>
    23e5:	0ead           	mov.n	a10, a14
    23e7:	63ed           	ae_s16i.n	a14, a3, 0

000023e9 <fn_calc_sup_gain+0x39d>:
    23e9:	404f10        	ssai	31
    23ec:	11ca00        	slli	a12, a10, 16
    23ef:	21c8c0        	srai	a12, a12, 8
    23f2:	82acc0        	mull	a10, a12, a12
    23f5:	b2ccc0        	mulsh	a12, a12, a12
    23f8:	11baf0        	slli	a11, a10, 1
    23fb:	81cca0        	src	a12, a12, a10
    23fe:	90aa40        	addx2	a10, a10, a4
    2401:	62bab0        	saltu	a11, a10, a11
    2404:	404810        	ssai	24
    2407:	bbca           	add.n	a11, a11, a12
    2409:	81aba0        	src	a10, a11, a10
    240c:	31b8b0        	srai	a11, a11, 24
    240f:	81bba0        	src	a11, a11, a10
    2412:	11aa80        	slli	a10, a10, 8
    2415:	feb025        	call8	f18 <_saturate24>
    2418:	c1c8           	l32i.n	a12, a1, 48
    241a:	0cc8           	l32i.n	a12, a12, 0
    241c:	404f10        	ssai	31
    241f:	21d8a0        	srai	a13, a10, 8
    2422:	21c8c0        	srai	a12, a12, 8
    2425:	82acd0        	mull	a10, a12, a13
    2428:	b2ccd0        	mulsh	a12, a12, a13
    242b:	11baf0        	slli	a11, a10, 1
    242e:	81cca0        	src	a12, a12, a10
    2431:	90aa40        	addx2	a10, a10, a4
    2434:	62bab0        	saltu	a11, a10, a11
    2437:	404810        	ssai	24
    243a:	bbca           	add.n	a11, a11, a12
    243c:	81aba0        	src	a10, a11, a10
    243f:	31b8b0        	srai	a11, a11, 24
    2442:	81bba0        	src	a11, a11, a10
    2445:	11aa80        	slli	a10, a10, 8
    2448:	feace5        	call8	f18 <_saturate24>
    244b:	774b           	addi.n	a7, a7, 4
    244d:	91f8           	l32i.n	a15, a1, 36
    244f:	c1e8           	l32i.n	a14, a1, 48
    2451:	332b           	addi.n	a3, a3, 2
    2453:	c0d350        	sub	a13, a3, a5
    2456:	ee4b           	addi.n	a14, a14, 4
    2458:	09efa4        	ae_s32ip	a10, a15, 4
    245b:	91f9           	s32i.n	a15, a1, 36
    245d:	c1e9           	s32i.n	a14, a1, 48
    245f:	d04d56        	bnez	a13, 2167 <fn_calc_sup_gain+0x11b>
    2462:	007dc6        	j	265d <fn_calc_sup_gain+0x611>

00002465 <fn_calc_sup_gain+0x419>:
    2465:	508604        	ae_lp24f.iu	aep0, a6, 0
    2468:	307474        	ae_cvtp24a16x2.ll	aep7, a4, a7
    246b:	567174        	ae_sp24x2s.i	aep7, a1, 56
    246e:	3148           	l32i.n	a4, a1, 12
    2470:	72cb           	addi.n	a7, a2, 12
    2472:	50a704        	ae_lp24f.iu	aep2, a7, 0
    2475:	fc24ae940f 	{ ae_lp24f.iu	aep1, a4, 0; ae_zeroq56	aeq0 }
    247a:	0213e6        	bgei	a3, 1, 2480 <fn_calc_sup_gain+0x434>
    247d:	007706        	j	265d <fn_calc_sup_gain+0x611>
    2480:	2188           	l32i.n	a8, a1, 8
    2482:	0a4184        	ae_cvtq48p24s.l	aeq1, aep1
    2485:	fe0c11538f 	{ addx2	a5, a3, a8; ae_cvtq48p24s.l	aeq2, aep0 }
    248a:	fa36d3388f 	{ or	a3, a8, a8; ae_subq56	aeq2, aeq2, aeq1 }

0000248f <fn_calc_sup_gain+0x443>:
    248f:	06ca44        	ae_satq48s	aeq3, aeq2
    2492:	098304        	ae_ltq56s	b0, aeq3, aeq0
    2495:	0304a0        	rsr.br	a10
    2498:	d4447f01bf 	{ ae_movq56	aeq2, aeq0; ae_eqq56	b1, aeq1, aeq0 }
    249d:	04a0a0        	extui	a10, a10, 0, 1
    24a0:	1acc           	bnez.n	a10, 24a5 <fn_calc_sup_gain+0x459>
    24a2:	06bb34        	ae_movq56	aeq2, aeq3

000024a5 <fn_calc_sup_gain+0x459>:
    24a5:	030490        	rsr.br	a9
    24a8:	049190        	extui	a9, a9, 1, 1
    24ab:	398c           	beqz.n	a9, 24b2 <fn_calc_sup_gain+0x466>
    24ad:	0a0c           	movi.n	a10, 0
    24af:	000c86        	j	24e5 <fn_calc_sup_gain+0x499>

000024b2 <fn_calc_sup_gain+0x466>:
    24b2:	35a234        	ae_sraiq56	aeq2, aeq2, 8
    24b5:	09a524        	ae_leq56s	b2, aeq1, aeq2
    24b8:	365c04        	ae_nsaq56s	a12, aeq1
    24bb:	f6e8a1        	l32r	a10, 5c (7fff <xtensa_fft8_32b+0x27>)
    24be:	020276        	bf	b2, 24c4 <fn_calc_sup_gain+0x478>
    24c1:	000806        	j	24e5 <fn_calc_sup_gain+0x499>

000024c4 <fn_calc_sup_gain+0x478>:
    24c4:	f8ccc2        	addi	a12, a12, -8
    24c7:	8ccd           	ae_sext16	a12, a12
    24c9:	fc24feaccf 	{ ae_slaasq56s	aeq3, aeq2, a12; nop }
    24ce:	fe84cf1cce 	{ addi	a12, a12, -15; ae_satq48s	aeq2, aeq3 }
    24d3:	fc24fe9ccf 	{ ae_slaasq56s	aeq3, aeq1, a12; nop }
    24d8:	fe84ff2aef 	{ ae_trunca32q48	a10, aeq2; ae_satq48s	aeq2, aeq3 }
    24dd:	36ab04        	ae_trunca32q48	a11, aeq2
    24e0:	d2aab0        	quos	a10, a10, a11
    24e3:	aaad           	ae_clamps16	a10, a10
    24e5:	543174        	ae_lp24x2.i	aep3, a1, 56
    24e8:	f6e4d1        	l32r	a13, 78 (8000 <xtensa_fft8_32b+0x28>)
    24eb:	398c           	beqz.n	a9, 24f2 <fn_calc_sup_gain+0x4a6>
    24ed:	090c           	movi.n	a9, 0
    24ef:	000d06        	j	2527 <fn_calc_sup_gain+0x4db>

000024f2 <fn_calc_sup_gain+0x4a6>:
    24f2:	fe4c3f1caf 	{ ae_nsaq56s	a12, aeq1; ae_cvtq48p24s.l	aeq2, aep2 }
    24f7:	35a234        	ae_sraiq56	aeq2, aeq2, 8
    24fa:	09a534        	ae_leq56s	b3, aeq1, aeq2
    24fd:	f6d791        	l32r	a9, 5c (7fff <xtensa_fft8_32b+0x27>)
    2500:	f8ccc2        	addi	a12, a12, -8
    2503:	020376        	bf	b3, 2509 <fn_calc_sup_gain+0x4bd>
    2506:	000746        	j	2527 <fn_calc_sup_gain+0x4db>

00002509 <fn_calc_sup_gain+0x4bd>:
    2509:	8ccd           	ae_sext16	a12, a12
    250b:	fc24feaccf 	{ ae_slaasq56s	aeq3, aeq2, a12; nop }
    2510:	fe84cf1cce 	{ addi	a12, a12, -15; ae_satq48s	aeq2, aeq3 }
    2515:	fc24fe9ccf 	{ ae_slaasq56s	aeq3, aeq1, a12; nop }
    251a:	fe84ff29ef 	{ ae_trunca32q48	a9, aeq2; ae_satq48s	aeq2, aeq3 }
    251f:	36ab04        	ae_trunca32q48	a11, aeq2
    2522:	d299b0        	quos	a9, a9, a11
    2525:	a99d           	ae_clamps16	a9, a9
    2527:	304994        	ae_cvtp24a16x2.ll	aep4, a9, a9
    252a:	e97098aaaf 	{ ae_cvtp24a16x2.ll	aep2, a10, a10; ae_mulfp24s.hh	aeq2, aep4, aep3 }
    252f:	01a334        	ae_mulafp24s.ll	aeq2, aep2, aep3
    2532:	11ca80        	slli	a12, a10, 8
    2535:	1bad14        	ae_roundsp24q48asym	aep1, aeq2
    2538:	e824fecdff 	{ ae_cvtq48a32s	aeq3, a13; ae_mulfp24s.hh	aeq1, aep1, aep1 }
    253d:	fc2c3eccbf 	{ ae_cvtq48a32s	aeq2, a12; ae_cvtq48p24s.l	aeq0, aep1 }
    2542:	faf63b020f 	{ ae_sraiq56	aeq0, aeq0, 8; ae_addq56	aeq2, aeq2, aeq3 }
    2547:	01cbc4        	ae_addq56	aeq3, aeq0, aeq3
    254a:	fd2c4781be 	{ addi	a11, a1, 120; ae_roundsq32asym	aeq1, aeq1 }
    254f:	f8663a0b9f 	{ ae_sq56s.i	aeq0, a11, -56; ae_addq56	aeq0, aeq0, aeq1 }
    2554:	ff00fa3baf 	{ ae_sq56s.i	aeq3, a11, -48; ae_satq48s	aeq3, aeq0 }
    2559:	fc248000af 	{ movi	a10, 0; ae_zeroq56	aeq0 }
    255e:	d4c2bb32cf 	{ ae_sraiq56	aeq3, aeq3, 8; ae_eqq56	b10, aeq2, aeq0 }
    2563:	ff3c7d8baf 	{ ae_lq56.i	aeq0, a11, -48; ae_roundsq32asym	aeq3, aeq3 }
    2568:	d5dafa0baf 	{ ae_sq56s.i	aeq0, a11, -48; ae_leq56s	b11, aeq2, aeq3 }
    256d:	050a76        	bf	b10, 2576 <fn_calc_sup_gain+0x52a>
    2570:	560bc4        	ae_sp24x2s.i	aep0, a11, -32
    2573:	000d86        	j	25ad <fn_calc_sup_gain+0x561>

00002576 <fn_calc_sup_gain+0x52a>:
    2576:	080b76        	bf	b11, 2582 <fn_calc_sup_gain+0x536>
    2579:	f6b8a1        	l32r	a10, 5c (7fff <xtensa_fft8_32b+0x27>)
    257c:	560bc4        	ae_sp24x2s.i	aep0, a11, -32
    257f:	000a86        	j	25ad <fn_calc_sup_gain+0x561>

00002582 <fn_calc_sup_gain+0x536>:
    2582:	366c04        	ae_nsaq56s	a12, aeq2
    2585:	f8ccc2        	addi	a12, a12, -8
    2588:	8ccd           	ae_sext16	a12, a12
    258a:	fc24febccf 	{ ae_slaasq56s	aeq3, aeq3, a12; nop }
    258f:	ff84cf1cce 	{ addi	a12, a12, -15; ae_satq48s	aeq3, aeq3 }
    2594:	36ba04        	ae_trunca32q48	a10, aeq3
    2597:	fc24feaccf 	{ ae_slaasq56s	aeq3, aeq2, a12; nop }
    259c:	06cb44        	ae_satq48s	aeq3, aeq3
    259f:	36bb04        	ae_trunca32q48	a11, aeq3
    25a2:	d2aab0        	quos	a10, a10, a11
    25a5:	aaad           	ae_clamps16	a10, a10
    25a7:	78c1b2        	addi	a11, a1, 120
    25aa:	560bc4        	ae_sp24x2s.i	aep0, a11, -32
    25ad:	f6d981        	l32r	a8, 114 (d80 <fxsqrt_ie>)
    25b0:	3590f4        	ae_sraiq56	aeq2, aeq1, 3
    25b3:	364a34        	ae_cvtq48a32s	aeq1, a10
    25b6:	fc347a915f 	{ ae_slliq56	aeq1, aeq1, 5; ae_roundsq32asym	aeq0, aeq2 }
    25bb:	0109c4        	ae_addq56	aeq0, aeq0, aeq1
    25be:	368a04        	ae_trunca32q48	a10, aeq0
    25c1:	0008e0        	callx8	a8
    25c4:	78c1b2        	addi	a11, a1, 120
    25c7:	618ba4        	ae_lq56.i	aeq2, a11, -48
    25ca:	fc24baa09f 	{ ae_slliq56	aeq2, aeq2, 1; ae_zeroq56	aeq0 }
    25cf:	064a44        	ae_satq48s	aeq1, aeq2
    25d2:	d4470000cf 	{ movi	a12, 0; ae_eqq56	b12, aeq1, aeq0 }
    25d7:	540bc4        	ae_lp24x2.i	aep0, a11, -32
    25da:	61cb94        	ae_lq56.i	aeq3, a11, -56
    25dd:	060c76        	bf	b12, 25e7 <fn_calc_sup_gain+0x59b>
    25e0:	0a0c           	movi.n	a10, 0
    25e2:	63cd           	ae_s16i.n	a12, a3, 0
    25e4:	001086        	j	262a <fn_calc_sup_gain+0x5de>

000025e7 <fn_calc_sup_gain+0x59b>:
    25e7:	11ea70        	slli	a14, a10, 9
    25ea:	368e34        	ae_cvtq48a32s	aeq2, a14
    25ed:	01fac4        	ae_addq56	aeq3, aeq3, aeq2
    25f0:	068b44        	ae_satq48s	aeq2, aeq3
    25f3:	09a5d4        	ae_leq56s	b13, aeq1, aeq2
    25f6:	f699f1        	l32r	a15, 5c (7fff <xtensa_fft8_32b+0x27>)
    25f9:	f698a1        	l32r	a10, 5c (7fff <xtensa_fft8_32b+0x27>)
    25fc:	040d76        	bf	b13, 2604 <fn_calc_sup_gain+0x5b8>
    25ff:	63fd           	ae_s16i.n	a15, a3, 0
    2601:	000946        	j	262a <fn_calc_sup_gain+0x5de>

00002604 <fn_calc_sup_gain+0x5b8>:
    2604:	365c04        	ae_nsaq56s	a12, aeq1
    2607:	f8ccc2        	addi	a12, a12, -8
    260a:	8ccd           	ae_sext16	a12, a12
    260c:	fc24feaccf 	{ ae_slaasq56s	aeq3, aeq2, a12; nop }
    2611:	fe84cf1cce 	{ addi	a12, a12, -15; ae_satq48s	aeq2, aeq3 }
    2616:	fc24fe9ccf 	{ ae_slaasq56s	aeq3, aeq1, a12; nop }
    261b:	fe84ff2aef 	{ ae_trunca32q48	a10, aeq2; ae_satq48s	aeq2, aeq3 }
    2620:	36ab04        	ae_trunca32q48	a11, aeq2
    2623:	d2aab0        	quos	a10, a10, a11
    2626:	aaad           	ae_clamps16	a10, a10
    2628:	63ad           	ae_s16i.n	a10, a3, 0
    262a:	0392e2        	l16si	a14, a2, 6
    262d:	03aae7        	bge	a10, a14, 2634 <fn_calc_sup_gain+0x5e8>
    2630:	0ead           	mov.n	a10, a14
    2632:	63ed           	ae_s16i.n	a14, a3, 0

00002634 <fn_calc_sup_gain+0x5e8>:
    2634:	307aa4        	ae_cvtp24a16x2.ll	aep7, a10, a10
    2637:	01f774        	ae_mulfp24s.ll	aeq2, aep7, aep7
    263a:	1bad64        	ae_roundsp24q48asym	aep6, aeq2
    263d:	016874        	ae_mulfp24s.ll	aeq1, aep6, aep0
    2640:	fa6fc0233e 	{ addi	a3, a3, 2; ae_roundsp24q48asym	aep5, aeq1 }
    2645:	52d704        	ae_sp24f.l.iu	aep5, a7, 0
    2648:	509414        	ae_lp24f.iu	aep1, a4, 4
    264b:	fd2c2e861f 	{ ae_lp24f.iu	aep0, a6, 4; ae_cvtq48p24s.l	aeq1, aep1 }
    2650:	fe0c15d35f 	{ sub	a13, a3, a5; ae_cvtq48p24s.l	aeq2, aep0 }
    2655:	fa36eea71f 	{ ae_lp24f.iu	aep2, a7, 4; ae_subq56	aeq2, aeq2, aeq1 }
    265a:	e31d56        	bnez	a13, 248f <fn_calc_sup_gain+0x443>
    265d:	0492e2        	l16si	a14, a2, 8
    2660:	ce8c           	beqz.n	a14, 2670 <fn_calc_sup_gain+0x624>
    2662:	02ad           	mov.n	a10, a2
    2664:	31b8           	l32i.n	a11, a1, 12
    2666:	f6ac81        	l32r	a8, 118 (1074 <calc_amt>)
    2669:	21c8           	l32i.n	a12, a1, 8
    266b:	11d8           	l32i.n	a13, a1, 4
    266d:	0008e0        	callx8	a8

00002670 <fn_calc_sup_gain+0x624>:
    2670:	f01d           	retw.n

00002672 <fn_calc_sup_gain+0x626>:
	...

00002674 <fn_ini_win_detection>:
    2674:	004136        	entry	a1, 32
    2677:	02ad           	mov.n	a10, a2
    2679:	f69581        	l32r	a8, d0 (8820 <xt_memset>)
    267c:	0b0c           	movi.n	a11, 0
    267e:	64a2c2        	movi	a12, 0x264
    2681:	0008e0        	callx8	a8
    2684:	03bd           	mov.n	a11, a3
    2686:	f66981        	l32r	a8, 2c (8838 <xt_memcpy>)
    2689:	02ad           	mov.n	a10, a2
    268b:	8c1c           	movi.n	a12, 24
    268d:	0008e0        	callx8	a8
    2690:	f6a3c1        	l32r	a12, 11c (1000000 <_end+0xff1860>)
    2693:	92b8           	l32i.n	a11, a2, 36
    2695:	0292a2        	l16si	a10, a2, 4
    2698:	03d292        	addmi	a9, a2, 0x300
    269b:	bbca           	add.n	a11, a11, a12
    269d:	6e69b2        	s32i	a11, a9, 0x1b8
    26a0:	1952a2        	s16i	a10, a2, 50
    26a3:	1852a2        	s16i	a10, a2, 48
    26a6:	706942        	s32i	a4, a9, 0x1c0
    26a9:	f01d           	retw.n

000026ab <fn_ini_win_detection+0x37>:
	...

000026ac <fn_win_detection>:
    26ac:	00c136        	entry	a1, 96
    26af:	4129           	s32i.n	a2, a1, 16
    26b1:	3169           	s32i.n	a6, a1, 12
    26b3:	1179           	s32i.n	a7, a1, 4
    26b5:	079282        	l16si	a8, a2, 14
    26b8:	0a0c           	movi.n	a10, 0
    26ba:	04a092        	movi	a9, 4
    26bd:	39a994        	ae_movpa24x2	aep2, a9, a9
    26c0:	0061a2        	s32i	a10, a1, 0
    26c3:	10c592        	addi	a9, a5, 16
    26c6:	5c9904        	ae_lp24x2f.iu	aep1, a9, 0
    26c9:	fc208fc88e 	{ addi	a8, a8, -4; ae_zerop48	aep0 }
    26ce:	218180        	srai	a8, a8, 1
    26d1:	0aa876        	loopgtz	a8, 26df <fn_win_detection+0x33>
    26d4:	079214        	ae_addsp24s	aep1, aep1, aep2
    26d7:	0f1194        	ae_sraip24	aep1, aep1, 3
    26da:	d8212f991f 	{ ae_lp24x2f.iu	aep1, a9, 8; ae_addsp24s	aep0, aep0, aep1 }

000026df <fn_win_detection+0x33>:
    26df:	1a88b4        	ae_selp24.hh	aep3, aep0, aep0
    26e2:	078324        	ae_addsp24s	aep2, aep0, aep3
    26e5:	522104        	ae_sp24f.l.i	aep2, a1, 0
    26e8:	01a8           	l32i.n	a10, a1, 0
    26ea:	f67481        	l32r	a8, bc (df0 <fxlog10>)
    26ed:	21a8a0        	srai	a10, a10, 8
    26f0:	0008e0        	callx8	a8
    26f3:	41b8           	l32i.n	a11, a1, 16
    26f5:	f67981        	l32r	a8, dc (6a4d <Voice_WB_TX_Inear_Prcs+0x48d>)
    26f8:	f66051        	l32r	a5, 78 (8000 <xtensa_fft8_32b+0x28>)
    26fb:	029b22        	l16si	a2, a11, 4
    26fe:	d18a80        	mul16s	a8, a10, a8
    2701:	189bb2        	l16si	a11, a11, 48
    2704:	1188f0        	slli	a8, a8, 1
    2707:	885a           	add.n	a8, a8, a5
    2709:	318080        	srai	a8, a8, 16
    270c:	532280        	max	a2, a2, a8
    270f:	822d           	ae_sext16	a2, a2
    2711:	c0a2b0        	sub	a10, a2, a11
    2714:	022b27        	blt	a11, a2, 271a <fn_win_detection+0x6e>
    2717:	00ba06        	j	2a03 <fn_win_detection+0x357>
    271a:	fe7ae5        	call8	ec8 <_saturate16>
    271d:	41c8           	l32i.n	a12, a1, 16
    271f:	039cb2        	l16si	a11, a12, 6
    2722:	d1bba0        	mul16s	a11, a11, a10
    2725:	189ca2        	l16si	a10, a12, 48
    2728:	90bb50        	addx2	a11, a11, a5
    272b:	31b0b0        	srai	a11, a11, 16
    272e:	aaba           	add.n	a10, a10, a11
    2730:	fe7965        	call8	ec8 <_saturate16>

00002733 <fn_win_detection+0x87>:
    2733:	41d8           	l32i.n	a13, a1, 16
    2735:	199dc2        	l16si	a12, a13, 50
    2738:	185da2        	s16i	a10, a13, 48
    273b:	c0a2c0        	sub	a10, a2, a12
    273e:	1b2c27        	blt	a12, a2, 275d <fn_win_detection+0xb1>
    2741:	fe7865        	call8	ec8 <_saturate16>
    2744:	41c8           	l32i.n	a12, a1, 16
    2746:	069cb2        	l16si	a11, a12, 12
    2749:	d1bba0        	mul16s	a11, a11, a10
    274c:	199ca2        	l16si	a10, a12, 50
    274f:	90bb50        	addx2	a11, a11, a5
    2752:	31b0b0        	srai	a11, a11, 16
    2755:	aaba           	add.n	a10, a10, a11
    2757:	fe7725        	call8	ec8 <_saturate16>
    275a:	000606        	j	2776 <fn_win_detection+0xca>

0000275d <fn_win_detection+0xb1>:
    275d:	fe76a5        	call8	ec8 <_saturate16>
    2760:	41c8           	l32i.n	a12, a1, 16
    2762:	059cb2        	l16si	a11, a12, 10
    2765:	d1bba0        	mul16s	a11, a11, a10
    2768:	199ca2        	l16si	a10, a12, 50
    276b:	90bb50        	addx2	a11, a11, a5
    276e:	31b0b0        	srai	a11, a11, 16
    2771:	aaba           	add.n	a10, a10, a11
    2773:	fe7565        	call8	ec8 <_saturate16>

00002776 <fn_win_detection+0xca>:
    2776:	41e8           	l32i.n	a14, a1, 16
    2778:	189ed2        	l16si	a13, a14, 48
    277b:	2ecd           	ae_l16si.n	a12, a14, 0
    277d:	195ea2        	s16i	a10, a14, 50
    2780:	acda           	add.n	a10, a12, a13
    2782:	fe7465        	call8	ec8 <_saturate16>
    2785:	41f8           	l32i.n	a15, a1, 16
    2787:	199ff2        	l16si	a15, a15, 50
    278a:	080c           	movi.n	a8, 0
    278c:	022af7        	blt	a10, a15, 2792 <fn_win_detection+0xe6>
    278f:	00a306        	j	2a1f <fn_win_detection+0x373>
    2792:	190c           	movi.n	a9, 1

00002794 <fn_win_detection+0xe8>:
    2794:	41a8           	l32i.n	a10, a1, 16
    2796:	1a5a92        	s16i	a9, a10, 52
    2799:	1b5a82        	s16i	a8, a10, 54
    279c:	000186        	j	27a6 <fn_win_detection+0xfa>

0000279f <fn_win_detection+0xf3>:
    279f:	41c8           	l32i.n	a12, a1, 16
    27a1:	ba1b           	addi.n	a11, a10, 1
    27a3:	1b5cb2        	s16i	a11, a12, 54
    27a6:	4178           	l32i.n	a7, a1, 16
    27a8:	31a8           	l32i.n	a10, a1, 12
    27aa:	076d           	mov.n	a6, a7
    27ac:	47c8           	l32i.n	a12, a7, 16
    27ae:	9788           	l32i.n	a8, a7, 36
    27b0:	77b8           	l32i.n	a11, a7, 28
    27b2:	38c752        	addi	a5, a7, 56
    27b5:	1a9792        	l16si	a9, a7, 52
    27b8:	02d722        	addmi	a2, a7, 0x200
    27bb:	6a9d           	ae_s16i.n	a9, a10, 0
    27bd:	0a0c           	movi.n	a10, 0
    27bf:	5ca274        	ae_lp24x2f.iu	aep2, a2, 56
    27c2:	509504        	ae_lp24f.iu	aep1, a5, 0
    27c5:	21b8b0        	srai	a11, a11, 8
    27c8:	218e80        	srai	a8, a8, 14
    27cb:	21c8c0        	srai	a12, a12, 8
    27ce:	398cc4        	ae_movpa24x2	aep0, a12, a12
    27d1:	04d882        	addmi	a8, a8, 0x400
    27d4:	5189           	s32i.n	a8, a1, 20
    27d6:	560144        	ae_sp24x2s.i	aep0, a1, 32
    27d9:	0c0c           	movi.n	a12, 0
    27db:	01c9           	s32i.n	a12, a1, 0
    27dd:	39fbc4        	ae_movpa24x2	aep7, a11, a12
    27e0:	567134        	ae_sp24x2s.i	aep7, a1, 24
    27e3:	04bd           	mov.n	a11, a4
    27e5:	5cbb04        	ae_lp24x2f.iu	aep3, a11, 0
    27e8:	03cd           	mov.n	a12, a3
    27ea:	03d742        	addmi	a4, a7, 0x300
    27ed:	3cc442        	addi	a4, a4, 60
    27f0:	5ccc04        	ae_lp24x2f.iu	aep4, a12, 0
    27f3:	01d732        	addmi	a3, a7, 0x100
    27f6:	074c           	movi.n	a7, 64
    27f8:	38c332        	addi	a3, a3, 56
    27fb:	508304        	ae_lp24f.iu	aep0, a3, 0

000027fe <fn_win_detection+0x152>:
    27fe:	545134        	ae_lp24x2.i	aep5, a1, 24
    2801:	07b574        	ae_addsp24s	aep7, aep3, aep5
    2804:	07c564        	ae_addsp24s	aep6, aep4, aep5
    2807:	04e604        	ae_mulzaafp24s.hh.ll	aeq2, aep6, aep6
    280a:	047704        	ae_mulzaafp24s.hh.ll	aeq0, aep7, aep7
    280d:	046f04        	ae_mulzaafp24s.hh.ll	aeq1, aep6, aep7
    2810:	f7f8fac20f 	{ ae_sllisq56s	aeq0, aeq0, 8; ae_mulzsafp24s.hl.lh	aeq3, aep6, aep7 }
    2815:	060844        	ae_satq48s	aeq0, aeq0
    2818:	fa67fae20f 	{ ae_sllisq56s	aeq0, aeq2, 8; ae_roundsp24q48asym	aep5, aeq0 }
    281d:	068844        	ae_satq48s	aeq2, aeq0
    2820:	df16baf20f 	{ ae_sllisq56s	aeq0, aeq3, 8; ae_subsp24s	aep6, aep5, aep0 }
    2825:	fd00fad2cf 	{ ae_sllisq56s	aeq3, aeq1, 8; ae_satq48s	aeq1, aeq0 }
    282a:	1bad74        	ae_roundsp24q48asym	aep7, aeq2
    282d:	07f1d4        	ae_subsp24s	aep5, aep7, aep1
    2830:	fc84f0714f 	{ ae_lp24x2.i	aep7, a1, 32; ae_satq48s	aeq0, aeq3 }
    2835:	01d744        	ae_mulfp24s.hh	aeq2, aep5, aep7
    2838:	01ef44        	ae_mulfp24s.hh	aeq3, aep6, aep7
    283b:	1b8d54        	ae_roundsp24q48asym	aep5, aeq0
    283e:	07d2e4        	ae_subsp24s	aep6, aep5, aep2
    2841:	016744        	ae_mulfp24s.hh	aeq0, aep6, aep7
    2844:	1b9d54        	ae_roundsp24q48asym	aep5, aeq1
    2847:	07d2e4        	ae_subsp24s	aep6, aep5, aep2
    284a:	016f64        	ae_mulfp24s.lh	aeq1, aep6, aep7
    284d:	1bbd54        	ae_roundsp24q48asym	aep5, aeq3
    2850:	078504        	ae_addsp24s	aep0, aep0, aep5
    2853:	1bad74        	ae_roundsp24q48asym	aep7, aeq2
    2856:	1b9d64        	ae_roundsp24q48asym	aep6, aeq1
    2859:	07a664        	ae_addsp24s	aep6, aep2, aep6
    285c:	079754        	ae_addsp24s	aep5, aep1, aep7
    285f:	01d874        	ae_mulfp24s.ll	aeq3, aep5, aep0
    2862:	1b8d74        	ae_roundsp24q48asym	aep7, aeq0
    2865:	dbe97051ee 	{ l32i	a14, a1, 20; ae_addsp24s	aep7, aep2, aep7 }
    286a:	dfdcc100ff 	{ movi	a15, 0x100; ae_selp24.hl	aep7, aep7, aep6 }
    286f:	fe3c76f20f 	{ ae_sp24x2f.iu	aep7, a2, 0; ae_roundsq32asym	aeq2, aeq3 }
    2874:	36ad04        	ae_trunca32q48	a13, aeq2
    2877:	52d504        	ae_sp24f.l.iu	aep5, a5, 0
    287a:	f1fef4830f 	{ ae_sp24f.l.iu	aep0, a3, 0; ae_mulzaafp24s.hh.ll	aeq3, aep7, aep7 }
    287f:	022fd7        	blt	a15, a13, 2885 <fn_win_detection+0x1d9>
    2882:	002c46        	j	2937 <fn_win_detection+0x28b>
    2885:	a1c9           	s32i.n	a12, a1, 40
    2887:	b1b9           	s32i.n	a11, a1, 44
    2889:	3dcc           	bnez.n	a13, 2890 <fn_win_detection+0x1e4>
    288b:	0e0c           	movi.n	a14, 0
    288d:	000d46        	j	28c6 <fn_win_detection+0x21a>

00002890 <fn_win_detection+0x1e4>:
    2890:	067934        	ae_roundsq32asym	aeq1, aeq3
    2893:	369e04        	ae_trunca32q48	a14, aeq1
    2896:	364d34        	ae_cvtq48a32s	aeq1, a13
    2899:	36ce34        	ae_cvtq48a32s	aeq3, a14
    289c:	052ed7        	blt	a14, a13, 28a5 <fn_win_detection+0x1f9>
    289f:	f5efe1        	l32r	a14, 5c (7fff <xtensa_fft8_32b+0x27>)
    28a2:	000806        	j	28c6 <fn_win_detection+0x21a>

000028a5 <fn_win_detection+0x1f9>:
    28a5:	40ed80        	nsa	a8, a13
    28a8:	888d           	ae_sext16	a8, a8
    28aa:	fc24feb88f 	{ ae_slaasq56s	aeq2, aeq3, a8; nop }
    28af:	fc80cf188e 	{ addi	a8, a8, -15; ae_satq48s	aeq0, aeq2 }
    28b4:	fc24fe98cf 	{ ae_slaasq56s	aeq3, aeq1, a8; nop }
    28b9:	fe84ff0eef 	{ ae_trunca32q48	a14, aeq0; ae_satq48s	aeq2, aeq3 }
    28be:	36af04        	ae_trunca32q48	a15, aeq2
    28c1:	d2eef0        	quos	a14, a14, a15
    28c4:	aeed           	ae_clamps16	a14, a14
    28c6:	21a9           	s32i.n	a10, a1, 8

000028c8 <fn_win_detection+0x21c>:
    28c8:	00afb2        	movi	a11, 0xffffff00
    28cb:	11ae00        	slli	a10, a14, 16
    28ce:	7e54e2        	s16i	a14, a4, 252
    28d1:	01c8           	l32i.n	a12, a1, 0
    28d3:	21a8a0        	srai	a10, a10, 8
    28d6:	10aab0        	and	a10, a10, a11
    28d9:	acaa           	add.n	a10, a12, a10
    28db:	62bac0        	saltu	a11, a10, a12
    28de:	31cfc0        	srai	a12, a12, 31
    28e1:	bbca           	add.n	a11, a11, a12
    28e3:	fe6365        	call8	f18 <_saturate24>
    28e6:	21c8           	l32i.n	a12, a1, 8
    28e8:	e6b8           	l32i.n	a11, a6, 56
    28ea:	01a9           	s32i.n	a10, a1, 0
    28ec:	31efc0        	srai	a14, a12, 31
    28ef:	31dfb0        	srai	a13, a11, 31
    28f2:	cbca           	add.n	a12, a11, a12
    28f4:	0cad           	mov.n	a10, a12
    28f6:	ddea           	add.n	a13, a13, a14
    28f8:	62bcb0        	saltu	a11, a12, a11
    28fb:	bbda           	add.n	a11, a11, a13
    28fd:	fe61a5        	call8	f18 <_saturate24>
    2900:	664b           	addi.n	a6, a6, 4
    2902:	442b           	addi.n	a4, a4, 2
    2904:	5ca214        	ae_lp24x2f.iu	aep2, a2, 8
    2907:	509514        	ae_lp24f.iu	aep1, a5, 4
    290a:	508314        	ae_lp24f.iu	aep0, a3, 4
    290d:	a1c8           	l32i.n	a12, a1, 40
    290f:	b1b8           	l32i.n	a11, a1, 44
    2911:	770b           	addi.n	a7, a7, -1
    2913:	5ccc14        	ae_lp24x2f.iu	aep4, a12, 8
    2916:	5cbb14        	ae_lp24x2f.iu	aep3, a11, 8
    2919:	ee1756        	bnez	a7, 27fe <fn_win_detection+0x152>
    291c:	00aff2        	movi	a15, 0xffffff00
    291f:	21e6a0        	srai	a14, a10, 6
    2922:	10eef0        	and	a14, a14, a15
    2925:	41f8           	l32i.n	a15, a1, 16
    2927:	aff8           	l32i.n	a15, a15, 40
    2929:	f5f641        	l32r	a4, 104 (800000 <_end+0x7f1860>)
    292c:	050c           	movi.n	a5, 0
    292e:	02aef7        	bge	a14, a15, 2934 <fn_win_detection+0x288>
    2931:	0022c6        	j	29c0 <fn_win_detection+0x314>
    2934:	000206        	j	2940 <fn_win_detection+0x294>

00002937 <fn_win_detection+0x28b>:
    2937:	a1c9           	s32i.n	a12, a1, 40
    2939:	b1b9           	s32i.n	a11, a1, 44
    293b:	21a9           	s32i.n	a10, a1, 8
    293d:	ffe1c6        	j	28c8 <fn_win_detection+0x21c>

00002940 <fn_win_detection+0x294>:
    2940:	4138           	l32i.n	a3, a1, 16
    2942:	03d332        	addmi	a3, a3, 0x300
    2945:	6e23c2        	l32i	a12, a3, 0x1b8
    2948:	309182        	l16si	a8, a1, 96
    294b:	c0c332        	addi	a3, a3, -64
    294e:	0cad           	mov.n	a10, a12
    2950:	771866        	bnei	a8, 1, 29cb <fn_win_detection+0x31f>
    2953:	0188           	l32i.n	a8, a1, 0
    2955:	31dfc0        	srai	a13, a12, 31
    2958:	31bf80        	srai	a11, a8, 31
    295b:	c0a8c0        	sub	a10, a8, a12
    295e:	c0bbd0        	sub	a11, a11, a13
    2961:	62d8a0        	saltu	a13, a8, a10
    2964:	c0bbd0        	sub	a11, a11, a13
    2967:	022c87        	blt	a12, a8, 296d <fn_win_detection+0x2c1>
    296a:	004c06        	j	2a9e <fn_win_detection+0x3f2>
    296d:	fe5aa5        	call8	f18 <_saturate24>
    2970:	41c8           	l32i.n	a12, a1, 16
    2972:	5cc8           	l32i.n	a12, a12, 20
    2974:	404f10        	ssai	31
    2977:	21d8a0        	srai	a13, a10, 8
    297a:	21c8c0        	srai	a12, a12, 8
    297d:	82acd0        	mull	a10, a12, a13
    2980:	b2ccd0        	mulsh	a12, a12, a13
    2983:	11baf0        	slli	a11, a10, 1
    2986:	81cca0        	src	a12, a12, a10
    2989:	cc5a           	add.n	a12, a12, a5
    298b:	90aa40        	addx2	a10, a10, a4
    298e:	62bab0        	saltu	a11, a10, a11
    2991:	404810        	ssai	24
    2994:	bbca           	add.n	a11, a11, a12
    2996:	81aba0        	src	a10, a11, a10
    2999:	31b8b0        	srai	a11, a11, 24
    299c:	81bba0        	src	a11, a11, a10
    299f:	11aa80        	slli	a10, a10, 8
    29a2:	fe5765        	call8	f18 <_saturate24>
    29a5:	7e23b2        	l32i	a11, a3, 0x1f8
    29a8:	31dfa0        	srai	a13, a10, 31
    29ab:	31cfb0        	srai	a12, a11, 31
    29ae:	ccda           	add.n	a12, a12, a13
    29b0:	abaa           	add.n	a10, a11, a10
    29b2:	62bab0        	saltu	a11, a10, a11
    29b5:	bbca           	add.n	a11, a11, a12
    29b7:	fe5625        	call8	f18 <_saturate24>

000029ba <fn_win_detection+0x30e>:
    29ba:	7e63a2        	s32i	a10, a3, 0x1f8
    29bd:	000286        	j	29cb <fn_win_detection+0x31f>

000029c0 <fn_win_detection+0x314>:
    29c0:	41a8           	l32i.n	a10, a1, 16
    29c2:	03daa2        	addmi	a10, a10, 0x300
    29c5:	c0ca32        	addi	a3, a10, -64
    29c8:	6e2aa2        	l32i	a10, a10, 0x1b8

000029cb <fn_win_detection+0x31f>:
    29cb:	41c8           	l32i.n	a12, a1, 16
    29cd:	8cc8           	l32i.n	a12, a12, 32
    29cf:	11b8           	l32i.n	a11, a1, 4
    29d1:	4198           	l32i.n	a9, a1, 16
    29d3:	24aac7        	bge	a10, a12, 29fb <fn_win_detection+0x34f>
    29d6:	2a0c           	movi.n	a10, 2

000029d8 <fn_win_detection+0x32c>:
    29d8:	6bad           	ae_s16i.n	a10, a11, 0
    29da:	01b8           	l32i.n	a11, a1, 0
    29dc:	7f23a2        	l32i	a10, a3, 0x1fc
    29df:	582ab7        	blt	a10, a11, 2a3b <fn_win_detection+0x38f>
    29e2:	7f63b2        	s32i	a11, a3, 0x1fc
    29e5:	0bad           	mov.n	a10, a11

000029e7 <fn_win_detection+0x33b>:
    29e7:	41d8           	l32i.n	a13, a1, 16
    29e9:	bdd8           	l32i.n	a13, a13, 44
    29eb:	802382        	l32i	a8, a3, 0x200
    29ee:	05ada7        	bge	a13, a10, 29f7 <fn_win_detection+0x34b>
    29f1:	31f8           	l32i.n	a15, a1, 12
    29f3:	0e0c           	movi.n	a14, 0
    29f5:	6fed           	ae_s16i.n	a14, a15, 0

000029f7 <fn_win_detection+0x34b>:
    29f7:	08b9           	s32i.n	a11, a8, 0
    29f9:	f01d           	retw.n

000029fb <fn_win_detection+0x34f>:
    29fb:	9998           	l32i.n	a9, a9, 36
    29fd:	72aa90        	salt	a10, a10, a9
    2a00:	fff506        	j	29d8 <fn_win_detection+0x32c>

00002a03 <fn_win_detection+0x357>:
    2a03:	fe4c65        	call8	ec8 <_saturate16>
    2a06:	41c8           	l32i.n	a12, a1, 16
    2a08:	049cb2        	l16si	a11, a12, 8
    2a0b:	d1bba0        	mul16s	a11, a11, a10
    2a0e:	189ca2        	l16si	a10, a12, 48
    2a11:	90bb50        	addx2	a11, a11, a5
    2a14:	31b0b0        	srai	a11, a11, 16
    2a17:	aaba           	add.n	a10, a10, a11
    2a19:	fe4ae5        	call8	ec8 <_saturate16>
    2a1c:	ff44c6        	j	2733 <fn_win_detection+0x87>

00002a1f <fn_win_detection+0x373>:
    2a1f:	41a8           	l32i.n	a10, a1, 16
    2a21:	1a9ac2        	l16si	a12, a10, 52
    2a24:	1b9aa2        	l16si	a10, a10, 54
    2a27:	cc0b           	addi.n	a12, a12, -1
    2a29:	d72c56        	bnez	a12, 279f <fn_win_detection+0xf3>
    2a2c:	41b8           	l32i.n	a11, a1, 16
    2a2e:	3bbd           	ae_l16si.n	a11, a11, 2
    2a30:	022ba7        	blt	a11, a10, 2a36 <fn_win_detection+0x38a>
    2a33:	ff5a06        	j	279f <fn_win_detection+0xf3>
    2a36:	090c           	movi.n	a9, 0
    2a38:	ff5606        	j	2794 <fn_win_detection+0xe8>

00002a3b <fn_win_detection+0x38f>:
    2a3b:	31dfa0        	srai	a13, a10, 31
    2a3e:	c0aba0        	sub	a10, a11, a10
    2a41:	62cba0        	saltu	a12, a11, a10
    2a44:	31bfb0        	srai	a11, a11, 31
    2a47:	c0bbd0        	sub	a11, a11, a13
    2a4a:	c0bbc0        	sub	a11, a11, a12
    2a4d:	fe4ca5        	call8	f18 <_saturate24>
    2a50:	f5b4d1        	l32r	a13, 120 (19999a <_end+0x18b1fa>)
    2a53:	404f10        	ssai	31
    2a56:	21c8a0        	srai	a12, a10, 8
    2a59:	82bcd0        	mull	a11, a12, a13
    2a5c:	b2ccd0        	mulsh	a12, a12, a13
    2a5f:	90ab40        	addx2	a10, a11, a4
    2a62:	81ccb0        	src	a12, a12, a11
    2a65:	cc5a           	add.n	a12, a12, a5
    2a67:	11bbf0        	slli	a11, a11, 1
    2a6a:	62bab0        	saltu	a11, a10, a11
    2a6d:	404810        	ssai	24
    2a70:	bbca           	add.n	a11, a11, a12
    2a72:	81aba0        	src	a10, a11, a10
    2a75:	31b8b0        	srai	a11, a11, 24
    2a78:	81bba0        	src	a11, a11, a10
    2a7b:	11aa80        	slli	a10, a10, 8
    2a7e:	fe49a5        	call8	f18 <_saturate24>
    2a81:	7f23b2        	l32i	a11, a3, 0x1fc
    2a84:	31dfa0        	srai	a13, a10, 31
    2a87:	31cfb0        	srai	a12, a11, 31
    2a8a:	ccda           	add.n	a12, a12, a13
    2a8c:	abaa           	add.n	a10, a11, a10
    2a8e:	62bab0        	saltu	a11, a10, a11
    2a91:	bbca           	add.n	a11, a11, a12
    2a93:	fe4865        	call8	f18 <_saturate24>
    2a96:	7f63a2        	s32i	a10, a3, 0x1fc
    2a99:	01b8           	l32i.n	a11, a1, 0
    2a9b:	ffd206        	j	29e7 <fn_win_detection+0x33b>

00002a9e <fn_win_detection+0x3f2>:
    2a9e:	fe47a5        	call8	f18 <_saturate24>
    2aa1:	41c8           	l32i.n	a12, a1, 16
    2aa3:	6cc8           	l32i.n	a12, a12, 24
    2aa5:	404f10        	ssai	31
    2aa8:	21d8a0        	srai	a13, a10, 8
    2aab:	21c8c0        	srai	a12, a12, 8
    2aae:	82acd0        	mull	a10, a12, a13
    2ab1:	b2ccd0        	mulsh	a12, a12, a13
    2ab4:	11baf0        	slli	a11, a10, 1
    2ab7:	81cca0        	src	a12, a12, a10
    2aba:	cc5a           	add.n	a12, a12, a5
    2abc:	90aa40        	addx2	a10, a10, a4
    2abf:	62bab0        	saltu	a11, a10, a11
    2ac2:	404810        	ssai	24
    2ac5:	bbca           	add.n	a11, a11, a12
    2ac7:	81aba0        	src	a10, a11, a10
    2aca:	31b8b0        	srai	a11, a11, 24
    2acd:	81bba0        	src	a11, a11, a10
    2ad0:	11aa80        	slli	a10, a10, 8
    2ad3:	fe4465        	call8	f18 <_saturate24>
    2ad6:	7e23b2        	l32i	a11, a3, 0x1f8
    2ad9:	31dfa0        	srai	a13, a10, 31
    2adc:	31cfb0        	srai	a12, a11, 31
    2adf:	ccda           	add.n	a12, a12, a13
    2ae1:	abaa           	add.n	a10, a11, a10
    2ae3:	62bab0        	saltu	a11, a10, a11
    2ae6:	bbca           	add.n	a11, a11, a12
    2ae8:	fe42e5        	call8	f18 <_saturate24>
    2aeb:	ffb2c6        	j	29ba <fn_win_detection+0x30e>

00002aee <fn_win_detection+0x442>:
	...

00002af0 <fn_calc_pow>:
    2af0:	004136        	entry	a1, 32
    2af3:	fcc332        	addi	a3, a3, -4
    2af6:	5c8204        	ae_lp24x2f.iu	aep0, a2, 0
    2af9:	c06540        	sub	a6, a5, a4
    2afc:	f03d           	nop.n
    2afe:	11a676        	loopgtz	a6, 2b13 <fn_calc_pow+0x23>
    2b01:	048804        	ae_mulzaafp24s.hh.ll	aeq3, aep0, aep0
    2b04:	36b114        	ae_sllisq56s	aeq2, aeq3, 4
    2b07:	064a44        	ae_satq48s	aeq1, aeq2
    2b0a:	061934        	ae_roundsq32asym	aeq0, aeq1
    2b0d:	624314        	ae_sq32f.iu	aeq0, a3, 4
    2b10:	5c8214        	ae_lp24x2f.iu	aep0, a2, 8

00002b13 <fn_calc_pow+0x23>:
    2b13:	f01d           	retw.n

00002b15 <fn_calc_pow+0x25>:
    2b15:	000000                                        ...

00002b18 <fn_low_bin_noise_est>:
    2b18:	008136        	entry	a1, 64
    2b1b:	05fd           	mov.n	a15, a5
    2b1d:	860b           	addi.n	a8, a6, -1
    2b1f:	1139           	s32i.n	a3, a1, 4
    2b21:	04d262        	addmi	a6, a2, 0x400
    2b24:	2826a2        	l32i	a10, a6, 160
    2b27:	3d96d2        	l16si	a13, a6, 122
    2b2a:	0149           	s32i.n	a4, a1, 0
    2b2c:	80c672        	addi	a7, a6, -128
    2b2f:	b0bda0        	addx8	a11, a13, a10
    2b32:	31b9           	s32i.n	a11, a1, 12
    2b34:	0de856        	bnez	a8, 2c16 <fn_low_bin_noise_est+0xfe>
    2b37:	f54941        	l32r	a4, 5c (7fff <xtensa_fft8_32b+0x27>)
    2b3a:	fe7c           	movi.n	a14, -1
    2b3c:	4196c2        	l16si	a12, a6, 130
    2b3f:	050c           	movi.n	a5, 0
    2b41:	f57031        	l32r	a3, 104 (800000 <_end+0x7f1860>)
    2b44:	04c5c0        	extui	a12, a12, 5, 1
    2b47:	118c16        	beqz	a12, 2c63 <fn_low_bin_noise_est+0x14b>
    2b4a:	021de6        	bgei	a13, 1, 2b50 <fn_low_bin_noise_est+0x38>
    2b4d:	0031c6        	j	2c18 <fn_low_bin_noise_est+0x100>
    2b50:	056d           	mov.n	a6, a5
    2b52:	0fcd           	mov.n	a12, a15
    2b54:	41a9           	s32i.n	a10, a1, 16
    2b56:	51a9           	s32i.n	a10, a1, 20
    2b58:	03d222        	addmi	a2, a2, 0x300
    2b5b:	fcc222        	addi	a2, a2, -4

00002b5e <fn_low_bin_noise_est+0x46>:
    2b5e:	7e9282        	l16si	a8, a2, 252
    2b61:	0cd8           	l32i.n	a13, a12, 0
    2b63:	21c9           	s32i.n	a12, a1, 8
    2b65:	118800        	slli	a8, a8, 16
    2b68:	21d8d0        	srai	a13, a13, 8
    2b6b:	218880        	srai	a8, a8, 8
    2b6e:	82fd80        	mull	a15, a13, a8
    2b71:	b2dd80        	mulsh	a13, a13, a8
    2b74:	404b10        	ssai	27
    2b77:	81ddf0        	src	a13, a13, a15
    2b7a:	11ffb0        	slli	a15, a15, 5
    2b7d:	0d2d47        	blt	a13, a4, 2b8e <fn_low_bin_noise_est+0x76>
    2b80:	049d47        	bne	a13, a4, 2b88 <fn_low_bin_noise_est+0x70>
    2b83:	21c9           	s32i.n	a12, a1, 8
    2b85:	053fe7        	bltu	a15, a14, 2b8e <fn_low_bin_noise_est+0x76>

00002b88 <fn_low_bin_noise_est+0x70>:
    2b88:	0efd           	mov.n	a15, a14
    2b8a:	04dd           	mov.n	a13, a4
    2b8c:	21c9           	s32i.n	a12, a1, 8

00002b8e <fn_low_bin_noise_est+0x76>:
    2b8e:	404810        	ssai	24
    2b91:	af3a           	add.n	a10, a15, a3
    2b93:	cd5a           	add.n	a12, a13, a5
    2b95:	62baf0        	saltu	a11, a10, a15
    2b98:	bbca           	add.n	a11, a11, a12
    2b9a:	81aba0        	src	a10, a11, a10
    2b9d:	31b8b0        	srai	a11, a11, 24
    2ba0:	81bba0        	src	a11, a11, a10
    2ba3:	11aa80        	slli	a10, a10, 8
    2ba6:	fe3725        	call8	f18 <_saturate24>
    2ba9:	404b10        	ssai	27
    2bac:	41d8           	l32i.n	a13, a1, 16
    2bae:	21c8           	l32i.n	a12, a1, 8
    2bb0:	7e92e2        	l16si	a14, a2, 252
    2bb3:	0da9           	s32i.n	a10, a13, 0
    2bb5:	1cc8           	l32i.n	a12, a12, 4
    2bb7:	11ee00        	slli	a14, a14, 16
    2bba:	21e8e0        	srai	a14, a14, 8
    2bbd:	21c8c0        	srai	a12, a12, 8
    2bc0:	82dce0        	mull	a13, a12, a14
    2bc3:	b2cce0        	mulsh	a12, a12, a14
    2bc6:	fe7c           	movi.n	a14, -1
    2bc8:	81ccd0        	src	a12, a12, a13
    2bcb:	11ddb0        	slli	a13, a13, 5
    2bce:	092c47        	blt	a12, a4, 2bdb <fn_low_bin_noise_est+0xc3>
    2bd1:	029c47        	bne	a12, a4, 2bd7 <fn_low_bin_noise_est+0xbf>
    2bd4:	033de7        	bltu	a13, a14, 2bdb <fn_low_bin_noise_est+0xc3>

00002bd7 <fn_low_bin_noise_est+0xbf>:
    2bd7:	0edd           	mov.n	a13, a14
    2bd9:	04cd           	mov.n	a12, a4

00002bdb <fn_low_bin_noise_est+0xc3>:
    2bdb:	404810        	ssai	24
    2bde:	ad3a           	add.n	a10, a13, a3
    2be0:	cc5a           	add.n	a12, a12, a5
    2be2:	62bad0        	saltu	a11, a10, a13
    2be5:	bbca           	add.n	a11, a11, a12
    2be7:	81aba0        	src	a10, a11, a10
    2bea:	31b8b0        	srai	a11, a11, 24
    2bed:	81bba0        	src	a11, a11, a10
    2bf0:	11aa80        	slli	a10, a10, 8
    2bf3:	fe3265        	call8	f18 <_saturate24>
    2bf6:	fe7c           	movi.n	a14, -1
    2bf8:	222b           	addi.n	a2, a2, 2
    2bfa:	7d97d2        	l16si	a13, a7, 250
    2bfd:	41f8           	l32i.n	a15, a1, 16
    2bff:	21c8           	l32i.n	a12, a1, 8
    2c01:	661b           	addi.n	a6, a6, 1
    2c03:	1fa9           	s32i.n	a10, a15, 4
    2c05:	cc8b           	addi.n	a12, a12, 8
    2c07:	ff8b           	addi.n	a15, a15, 8
    2c09:	41f9           	s32i.n	a15, a1, 16
    2c0b:	02a6d7        	bge	a6, a13, 2c11 <fn_low_bin_noise_est+0xf9>
    2c0e:	ffd306        	j	2b5e <fn_low_bin_noise_est+0x46>
    2c11:	51a8           	l32i.n	a10, a1, 20
    2c13:	000046        	j	2c18 <fn_low_bin_noise_est+0x100>

00002c16 <fn_low_bin_noise_est+0xfe>:
    2c16:	05ad           	mov.n	a10, a5

00002c18 <fn_low_bin_noise_est+0x100>:
    2c18:	3128           	l32i.n	a2, a1, 12
    2c1a:	f54281        	l32r	a8, 124 (2af0 <fn_calc_pow>)
    2c1d:	0c0c           	movi.n	a12, 0
    2c1f:	02bd           	mov.n	a11, a2
    2c21:	0008e0        	callx8	a8
    2c24:	7d9792        	l16si	a9, a7, 250
    2c27:	1138           	l32i.n	a3, a1, 4
    2c29:	0148           	l32i.n	a4, a1, 0
    2c2b:	3219a6        	blti	a9, 1, 2c61 <fn_low_bin_noise_est+0x149>
    2c2e:	00a152        	movi	a5, 0x100
    2c31:	060c           	movi.n	a6, 0

00002c33 <fn_low_bin_noise_est+0x11b>:
    2c33:	02a8           	l32i.n	a10, a2, 0
    2c35:	04b8           	l32i.n	a11, a4, 0
    2c37:	31dfa0        	srai	a13, a10, 31
    2c3a:	c0aba0        	sub	a10, a11, a10
    2c3d:	62cba0        	saltu	a12, a11, a10
    2c40:	31bfb0        	srai	a11, a11, 31
    2c43:	c0bbd0        	sub	a11, a11, a13
    2c46:	c0bbc0        	sub	a11, a11, a12
    2c49:	fe2ce5        	call8	f18 <_saturate24>
    2c4c:	03a9           	s32i.n	a10, a3, 0
    2c4e:	224b           	addi.n	a2, a2, 4
    2c50:	7d97b2        	l16si	a11, a7, 250
    2c53:	444b           	addi.n	a4, a4, 4
    2c55:	661b           	addi.n	a6, a6, 1
    2c57:	011ae6        	bgei	a10, 1, 2c5c <fn_low_bin_noise_est+0x144>
    2c5a:	0359           	s32i.n	a5, a3, 0

00002c5c <fn_low_bin_noise_est+0x144>:
    2c5c:	334b           	addi.n	a3, a3, 4
    2c5e:	d126b7        	blt	a6, a11, 2c33 <fn_low_bin_noise_est+0x11b>

00002c61 <fn_low_bin_noise_est+0x149>:
    2c61:	f01d           	retw.n

00002c63 <fn_low_bin_noise_est+0x14b>:
    2c63:	3e9692        	l16si	a9, a6, 124
    2c66:	0a2d           	mov.n	a2, a10
    2c68:	060c           	movi.n	a6, 0
    2c6a:	1619a6        	blti	a9, 1, 2c84 <fn_low_bin_noise_est+0x16c>
    2c6d:	0f5d           	mov.n	a5, a15
    2c6f:	11d9f0        	slli	a13, a9, 1

00002c72 <fn_low_bin_noise_est+0x15a>:
    2c72:	661b           	addi.n	a6, a6, 1
    2c74:	0588           	l32i.n	a8, a5, 0
    2c76:	09e284        	ae_s32ip	a8, a2, 4
    2c79:	554b           	addi.n	a5, a5, 4
    2c7b:	f326d7        	blt	a6, a13, 2c72 <fn_low_bin_noise_est+0x15a>
    2c7e:	7d97d2        	l16si	a13, a7, 250
    2c81:	000046        	j	2c86 <fn_low_bin_noise_est+0x16e>

00002c84 <fn_low_bin_noise_est+0x16c>:
    2c84:	056d           	mov.n	a6, a5

00002c86 <fn_low_bin_noise_est+0x16e>:
    2c86:	119df0        	slli	a9, a13, 1
    2c89:	8ba697        	bge	a6, a9, 2c18 <fn_low_bin_noise_est+0x100>
    2c8c:	a026a0        	addx4	a2, a6, a10
    2c8f:	a056f0        	addx4	a5, a6, a15
    2c92:	51a9           	s32i.n	a10, a1, 20

00002c94 <fn_low_bin_noise_est+0x17c>:
    2c94:	7c97f2        	l16si	a15, a7, 248
    2c97:	05c8           	l32i.n	a12, a5, 0
    2c99:	11ff00        	slli	a15, a15, 16
    2c9c:	21c8c0        	srai	a12, a12, 8
    2c9f:	21f8f0        	srai	a15, a15, 8
    2ca2:	82dcf0        	mull	a13, a12, a15
    2ca5:	b2ccf0        	mulsh	a12, a12, a15
    2ca8:	404b10        	ssai	27
    2cab:	81ccd0        	src	a12, a12, a13
    2cae:	11ddb0        	slli	a13, a13, 5
    2cb1:	092c47        	blt	a12, a4, 2cbe <fn_low_bin_noise_est+0x1a6>
    2cb4:	029c47        	bne	a12, a4, 2cba <fn_low_bin_noise_est+0x1a2>
    2cb7:	033de7        	bltu	a13, a14, 2cbe <fn_low_bin_noise_est+0x1a6>

00002cba <fn_low_bin_noise_est+0x1a2>:
    2cba:	0edd           	mov.n	a13, a14
    2cbc:	04cd           	mov.n	a12, a4

00002cbe <fn_low_bin_noise_est+0x1a6>:
    2cbe:	ad3a           	add.n	a10, a13, a3
    2cc0:	404810        	ssai	24
    2cc3:	62bad0        	saltu	a11, a10, a13
    2cc6:	bbca           	add.n	a11, a11, a12
    2cc8:	81aba0        	src	a10, a11, a10
    2ccb:	31b8b0        	srai	a11, a11, 24
    2cce:	81bba0        	src	a11, a11, a10
    2cd1:	11aa80        	slli	a10, a10, 8
    2cd4:	fe2425        	call8	f18 <_saturate24>
    2cd7:	fe7c           	movi.n	a14, -1
    2cd9:	09e2a4        	ae_s32ip	a10, a2, 4
    2cdc:	7d97d2        	l16si	a13, a7, 250
    2cdf:	554b           	addi.n	a5, a5, 4
    2ce1:	661b           	addi.n	a6, a6, 1
    2ce3:	11fdf0        	slli	a15, a13, 1
    2ce6:	aa26f7        	blt	a6, a15, 2c94 <fn_low_bin_noise_est+0x17c>
    2ce9:	51a8           	l32i.n	a10, a1, 20
    2ceb:	ffca46        	j	2c18 <fn_low_bin_noise_est+0x100>

00002cee <fn_low_bin_noise_est+0x1d6>:
	...

00002cf0 <fn_low_bin_compensate_phase>:
    2cf0:	008136        	entry	a1, 64
    2cf3:	045d           	mov.n	a5, a4
    2cf5:	03d282        	addmi	a8, a2, 0x300
    2cf8:	5c8304        	ae_lp24x2f.iu	aep0, a3, 0
    2cfb:	560124        	ae_sp24x2s.i	aep0, a1, 16
    2cfe:	7cc892        	addi	a9, a8, 124
    2d01:	bd9882        	l16si	a8, a8, 0x17a
    2d04:	2199           	s32i.n	a9, a1, 8
    2d06:	5c8504        	ae_lp24x2f.iu	aep0, a5, 0
    2d09:	0218e6        	bgei	a8, 1, 2d0f <fn_low_bin_compensate_phase+0x1f>
    2d0c:	003d46        	j	2e05 <fn_low_bin_compensate_phase+0x115>
    2d0f:	060c           	movi.n	a6, 0

00002d11 <fn_low_bin_compensate_phase+0x21>:
    2d11:	048004        	ae_mulzaafp24s.hh.ll	aeq2, aep0, aep0
    2d14:	f50081        	l32r	a8, 114 (d80 <fxsqrt_ie>)
    2d17:	366054        	ae_sllisq56s	aeq1, aeq2, 1
    2d1a:	060944        	ae_satq48s	aeq0, aeq1
    2d1d:	1b8d14        	ae_roundsp24q48asym	aep1, aeq0
    2d20:	4e1104        	ae_sp24s.l.i	aep1, a1, 0
    2d23:	01a8           	l32i.n	a10, a1, 0
    2d25:	0008e0        	callx8	a8
    2d28:	0abd           	mov.n	a11, a10
    2d2a:	120c           	movi.n	a2, 1
    2d2c:	01aad0        	slli	a10, a10, 19
    2d2f:	21bdb0        	srai	a11, a11, 13
    2d32:	fe1b25        	call8	ee4 <_saturate32>
    2d35:	04b8           	l32i.n	a11, a4, 0
    2d37:	53a2a0        	max	a10, a2, a10
    2d3a:	3acc           	bnez.n	a10, 2d41 <fn_low_bin_compensate_phase+0x51>
    2d3c:	020c           	movi.n	a2, 0
    2d3e:	000bc6        	j	2d71 <fn_low_bin_compensate_phase+0x81>

00002d41 <fn_low_bin_compensate_phase+0x51>:
    2d41:	052ba7        	blt	a11, a10, 2d4a <fn_low_bin_compensate_phase+0x5a>
    2d44:	f4c621        	l32r	a2, 5c (7fff <xtensa_fft8_32b+0x27>)
    2d47:	000986        	j	2d71 <fn_low_bin_compensate_phase+0x81>

00002d4a <fn_low_bin_compensate_phase+0x5a>:
    2d4a:	368a34        	ae_cvtq48a32s	aeq2, a10
    2d4d:	360b34        	ae_cvtq48a32s	aeq0, a11
    2d50:	40ea90        	nsa	a9, a10
    2d53:	899d           	ae_sext16	a9, a9
    2d55:	fc24fe89cf 	{ ae_slaasq56s	aeq3, aeq0, a9; nop }
    2d5a:	fd84cf199e 	{ addi	a9, a9, -15; ae_satq48s	aeq1, aeq3 }
    2d5f:	fc24fea90f 	{ ae_slaasq56s	aeq0, aeq2, a9; nop }
    2d64:	ff00ff12ef 	{ ae_trunca32q48	a2, aeq1; ae_satq48s	aeq3, aeq0 }
    2d69:	36b804        	ae_trunca32q48	a8, aeq3
    2d6c:	d22280        	quos	a2, a2, a8
    2d6f:	a22d           	ae_clamps16	a2, a2
    2d71:	027d           	mov.n	a7, a2
    2d73:	14b8           	l32i.n	a11, a4, 4
    2d75:	3acc           	bnez.n	a10, 2d7c <fn_low_bin_compensate_phase+0x8c>
    2d77:	020c           	movi.n	a2, 0
    2d79:	000bc6        	j	2dac <fn_low_bin_compensate_phase+0xbc>

00002d7c <fn_low_bin_compensate_phase+0x8c>:
    2d7c:	052ba7        	blt	a11, a10, 2d85 <fn_low_bin_compensate_phase+0x95>
    2d7f:	f4b721        	l32r	a2, 5c (7fff <xtensa_fft8_32b+0x27>)
    2d82:	000986        	j	2dac <fn_low_bin_compensate_phase+0xbc>

00002d85 <fn_low_bin_compensate_phase+0x95>:
    2d85:	360a34        	ae_cvtq48a32s	aeq0, a10
    2d88:	368b34        	ae_cvtq48a32s	aeq2, a11
    2d8b:	40ea90        	nsa	a9, a10
    2d8e:	899d           	ae_sext16	a9, a9
    2d90:	fc24fea94f 	{ ae_slaasq56s	aeq1, aeq2, a9; nop }
    2d95:	ff04cf199e 	{ addi	a9, a9, -15; ae_satq48s	aeq3, aeq1 }
    2d9a:	fc24fe898f 	{ ae_slaasq56s	aeq2, aeq0, a9; nop }
    2d9f:	fd80ff32ef 	{ ae_trunca32q48	a2, aeq3; ae_satq48s	aeq1, aeq2 }
    2da4:	369804        	ae_trunca32q48	a8, aeq1
    2da7:	d22280        	quos	a2, a2, a8
    2daa:	a22d           	ae_clamps16	a2, a2
    2dac:	543124        	ae_lp24x2.i	aep3, a1, 16
    2daf:	043b04        	ae_mulzaafp24s.hh.ll	aeq1, aep3, aep3
    2db2:	f4d881        	l32r	a8, 114 (d80 <fxsqrt_ie>)
    2db5:	361054        	ae_sllisq56s	aeq0, aeq1, 1
    2db8:	06c844        	ae_satq48s	aeq3, aeq0
    2dbb:	f97f80419e 	{ addi	a9, a1, 4; ae_roundsp24q48asym	aep2, aeq3 }
    2dc0:	4e2904        	ae_sp24s.l.i	aep2, a9, 0
    2dc3:	11a8           	l32i.n	a10, a1, 4
    2dc5:	0008e0        	callx8	a8
    2dc8:	301774        	ae_cvtp24a16x2.ll	aep1, a7, a7
    2dcb:	307aa4        	ae_cvtp24a16x2.ll	aep7, a10, a10
    2dce:	eb3dd8822f 	{ ae_cvtp24a16x2.ll	aep0, a2, a2; ae_mulfp24s.ll	aeq3, aep7, aep1 }
    2dd3:	01f074        	ae_mulfp24s.ll	aeq2, aep7, aep0
    2dd6:	3670d4        	ae_sllisq56s	aeq1, aeq3, 3
    2dd9:	fe04fae03f 	{ ae_sllisq56s	aeq0, aeq2, 3; ae_satq48s	aeq2, aeq1 }
    2dde:	06c844        	ae_satq48s	aeq3, aeq0
    2de1:	fb7f80844e 	{ addi	a4, a4, 8; ae_roundsp24q48asym	aep6, aeq3 }
    2de6:	fa77c0166e 	{ addi	a6, a6, 1; ae_roundsp24q48asym	aep5, aeq2 }
    2deb:	ded57021ae 	{ l32i	a10, a1, 8; ae_selp24.hh	aep5, aep5, aep6 }
    2df0:	5ed304        	ae_sp24x2f.iu	aep5, a3, 0
    2df3:	5c8514        	ae_lp24x2f.iu	aep0, a5, 8
    2df6:	7f9aa2        	l16si	a10, a10, 254
    2df9:	5cc314        	ae_lp24x2f.iu	aep4, a3, 8
    2dfc:	564124        	ae_sp24x2s.i	aep4, a1, 16
    2dff:	02a6a7        	bge	a6, a10, 2e05 <fn_low_bin_compensate_phase+0x115>
    2e02:	ffc2c6        	j	2d11 <fn_low_bin_compensate_phase+0x21>

00002e05 <fn_low_bin_compensate_phase+0x115>:
    2e05:	f01d           	retw.n

00002e07 <fn_low_bin_compensate_phase+0x117>:
	...

00002e08 <fn_calc_zp_gain>:
    2e08:	008136        	entry	a1, 64
    2e0b:	5c8304        	ae_lp24x2f.iu	aep0, a3, 0
    2e0e:	070c           	movi.n	a7, 0
    2e10:	5129           	s32i.n	a2, a1, 20
    2e12:	2159           	s32i.n	a5, a1, 8
    2e14:	049d           	mov.n	a9, a4
    2e16:	0cd262        	addmi	a6, a2, 0xc00
    2e19:	664b           	addi.n	a6, a6, 4
    2e1b:	01a142        	movi	a4, 0x101
    2e1e:	750c           	movi.n	a5, 7
    2e20:	1199           	s32i.n	a9, a1, 4
    2e22:	fcc222        	addi	a2, a2, -4
    2e25:	3129           	s32i.n	a2, a1, 12

00002e27 <fn_calc_zp_gain+0x1f>:
    2e27:	048804        	ae_mulzaafp24s.hh.ll	aeq3, aep0, aep0
    2e2a:	36b054        	ae_sllisq56s	aeq2, aeq3, 1
    2e2d:	066934        	ae_roundsq32asym	aeq1, aeq2
    2e30:	369b04        	ae_trunca32q48	a11, aeq1
    2e33:	f4bd81        	l32r	a8, 128 (ad4 <HIFI_sqrt_ie>)
    2e36:	40ebc0        	nsa	a12, a11
    2e39:	8ccd           	ae_sext16	a12, a12
    2e3b:	c0a5c0        	sub	a10, a5, a12
    2e3e:	401c00        	ssl	a12
    2e41:	a1bb00        	sll	a11, a11
    2e44:	0008e0        	callx8	a8
    2e47:	771b           	addi.n	a7, a7, 1
    2e49:	40ebd0        	nsa	a13, a11
    2e4c:	fc248feaae 	{ addi	a10, a10, -2; ae_zeroq56	aeq0 }
    2e51:	8aad           	ae_sext16	a10, a10
    2e53:	8ddd           	ae_sext16	a13, a13
    2e55:	05ada7        	bge	a13, a10, 2e5e <fn_calc_zp_gain+0x56>
    2e58:	f47ed1        	l32r	a13, 50 (7fffffff <_end+0x7fff185f>)
    2e5b:	000506        	j	2e73 <fn_calc_zp_gain+0x6b>

00002e5e <fn_calc_zp_gain+0x56>:
    2e5e:	0b1ae6        	bgei	a10, 1, 2e6d <fn_calc_zp_gain+0x65>
    2e61:	60c0a0        	neg	a12, a10
    2e64:	400c00        	ssr	a12
    2e67:	b1d0b0        	sra	a13, a11
    2e6a:	000146        	j	2e73 <fn_calc_zp_gain+0x6b>

00002e6d <fn_calc_zp_gain+0x65>:
    2e6d:	401a00        	ssl	a10
    2e70:	a1db00        	sll	a13, a11

00002e73 <fn_calc_zp_gain+0x6b>:
    2e73:	364d34        	ae_cvtq48a32s	aeq1, a13
    2e76:	625614        	ae_sq32f.iu	aeq1, a6, 4
    2e79:	625214        	ae_sq32f.iu	aeq1, a2, 4
    2e7c:	624614        	ae_sq32f.iu	aeq0, a6, 4
    2e7f:	5c8314        	ae_lp24x2f.iu	aep0, a3, 8
    2e82:	a19747        	bne	a7, a4, 2e27 <fn_calc_zp_gain+0x1f>
    2e85:	51a8           	l32i.n	a10, a1, 20
    2e87:	f49e81        	l32r	a8, 100 (4e20 <real_512_ifft>)
    2e8a:	04dab2        	addmi	a11, a10, 0x400
    2e8d:	0cdaa2        	addmi	a10, a10, 0xc00
    2e90:	bb8b           	addi.n	a11, a11, 8
    2e92:	41b9           	s32i.n	a11, a1, 16
    2e94:	aa8b           	addi.n	a10, a10, 8
    2e96:	01a9           	s32i.n	a10, a1, 0
    2e98:	0008e0        	callx8	a8
    2e9b:	00a2d2        	movi	a13, 0x200
    2e9e:	573c           	movi.n	a7, 53
    2ea0:	6ba0f2        	movi	a15, 107
    2ea3:	5138           	l32i.n	a3, a1, 20
    2ea5:	4198           	l32i.n	a9, a1, 16
    2ea7:	fecac2        	addi	a12, a10, -2
    2eaa:	8ccd           	ae_sext16	a12, a12
    2eac:	601904        	ae_lq32f.iu	aeq0, a9, 0
    2eaf:	03d332        	addmi	a3, a3, 0x300
    2eb2:	e0c332        	addi	a3, a3, -32
    2eb5:	131ca6        	blti	a12, 1, 2ecc <fn_calc_zp_gain+0xc4>
    2eb8:	0dad76        	loopgtz	a13, 2ec9 <fn_calc_zp_gain+0xc1>
    2ebb:	fc24fe8ccf 	{ ae_slaasq56s	aeq3, aeq0, a12; nop }
    2ec0:	068b44        	ae_satq48s	aeq2, aeq3
    2ec3:	626904        	ae_sq32f.iu	aeq2, a9, 0
    2ec6:	601914        	ae_lq32f.iu	aeq0, a9, 4

00002ec9 <fn_calc_zp_gain+0xc1>:
    2ec9:	000486        	j	2edf <fn_calc_zp_gain+0xd7>

00002ecc <fn_calc_zp_gain+0xc4>:
    2ecc:	f03d           	nop.n
    2ece:	0dad76        	loopgtz	a13, 2edf <fn_calc_zp_gain+0xd7>
    2ed1:	fc24fe8c4f 	{ ae_slaasq56s	aeq1, aeq0, a12; nop }
    2ed6:	061934        	ae_roundsq32asym	aeq0, aeq1
    2ed9:	624904        	ae_sq32f.iu	aeq0, a9, 0
    2edc:	601914        	ae_lq32f.iu	aeq0, a9, 4

00002edf <fn_calc_zp_gain+0xd7>:
    2edf:	5c3c           	movi.n	a12, 53
    2ee1:	f492d1        	l32r	a13, 12c (fffe7961 <_end+0xfffd91c1>)
    2ee4:	f03d           	nop.n
    2ee6:	0daf76        	loopgtz	a15, 2ef7 <fn_calc_zp_gain+0xef>
    2ee9:	7f23e2        	l32i	a14, a3, 0x1fc
    2eec:	334b           	addi.n	a3, a3, 4
    2eee:	03ade7        	bge	a13, a14, 2ef5 <fn_calc_zp_gain+0xed>
    2ef1:	0edd           	mov.n	a13, a14
    2ef3:	07cd           	mov.n	a12, a7

00002ef5 <fn_calc_zp_gain+0xed>:
    2ef5:	771b           	addi.n	a7, a7, 1

00002ef7 <fn_calc_zp_gain+0xef>:
    2ef7:	5138           	l32i.n	a3, a1, 20
    2ef9:	f48d21        	l32r	a2, 130 (e540 <scale_tab>)
    2efc:	461c           	movi.n	a6, 20
    2efe:	6169           	s32i.n	a6, a1, 24
    2f00:	907c20        	addx2	a7, a12, a2
    2f03:	a06c30        	addx4	a6, a12, a3
    2f06:	02d662        	addmi	a6, a6, 0x200
    2f09:	02d332        	addmi	a3, a3, 0x200
    2f0c:	33cb           	addi.n	a3, a3, 12
    2f0e:	66cb           	addi.n	a6, a6, 12

00002f10 <fn_calc_zp_gain+0x108>:
    2f10:	22bd           	ae_l16si.n	a11, a2, 0
    2f12:	11ab30        	slli	a10, a11, 13
    2f15:	31b3b0        	srai	a11, a11, 19
    2f18:	fdfca5        	call8	ee4 <_saturate32>
    2f1b:	27bd           	ae_l16si.n	a11, a7, 0
    2f1d:	0a4d           	mov.n	a4, a10
    2f1f:	11cb10        	slli	a12, a11, 15
    2f22:	31b1b0        	srai	a11, a11, 17
    2f25:	0cad           	mov.n	a10, a12
    2f27:	fdfbe5        	call8	ee4 <_saturate32>
    2f2a:	fe7c           	movi.n	a14, -1
    2f2c:	3acc           	bnez.n	a10, 2f33 <fn_calc_zp_gain+0x12b>
    2f2e:	0c0c           	movi.n	a12, 0
    2f30:	000bc6        	j	2f63 <fn_calc_zp_gain+0x15b>

00002f33 <fn_calc_zp_gain+0x12b>:
    2f33:	0524a7        	blt	a4, a10, 2f3c <fn_calc_zp_gain+0x134>
    2f36:	f449c1        	l32r	a12, 5c (7fff <xtensa_fft8_32b+0x27>)
    2f39:	000986        	j	2f63 <fn_calc_zp_gain+0x15b>

00002f3c <fn_calc_zp_gain+0x134>:
    2f3c:	364a34        	ae_cvtq48a32s	aeq1, a10
    2f3f:	36c434        	ae_cvtq48a32s	aeq3, a4
    2f42:	40eaf0        	nsa	a15, a10
    2f45:	8ffd           	ae_sext16	a15, a15
    2f47:	fc24febf8f 	{ ae_slaasq56s	aeq2, aeq3, a15; nop }
    2f4c:	fc80cf1ffe 	{ addi	a15, a15, -15; ae_satq48s	aeq0, aeq2 }
    2f51:	fc24fe9fcf 	{ ae_slaasq56s	aeq3, aeq1, a15; nop }
    2f56:	fe84ff0cef 	{ ae_trunca32q48	a12, aeq0; ae_satq48s	aeq2, aeq3 }
    2f5b:	36ad04        	ae_trunca32q48	a13, aeq2
    2f5e:	d2ccd0        	quos	a12, a12, a13
    2f61:	accd           	ae_clamps16	a12, a12
    2f63:	7f26f2        	l32i	a15, a6, 0x1fc
    2f66:	404d10        	ssai	29
    2f69:	f43c81        	l32r	a8, 5c (7fff <xtensa_fft8_32b+0x27>)
    2f6c:	82dcf0        	mull	a13, a12, a15
    2f6f:	b2ccf0        	mulsh	a12, a12, a15
    2f72:	08fd           	mov.n	a15, a8
    2f74:	81ccd0        	src	a12, a12, a13
    2f77:	11ddd0        	slli	a13, a13, 3
    2f7a:	092c87        	blt	a12, a8, 2f87 <fn_calc_zp_gain+0x17f>
    2f7d:	029c87        	bne	a12, a8, 2f83 <fn_calc_zp_gain+0x17b>
    2f80:	033de7        	bltu	a13, a14, 2f87 <fn_calc_zp_gain+0x17f>

00002f83 <fn_calc_zp_gain+0x17b>:
    2f83:	0fcd           	mov.n	a12, a15
    2f85:	0edd           	mov.n	a13, a14

00002f87 <fn_calc_zp_gain+0x17f>:
    2f87:	f43c41        	l32r	a4, 78 (8000 <xtensa_fft8_32b+0x28>)
    2f8a:	404010        	ssai	16
    2f8d:	ad4a           	add.n	a10, a13, a4
    2f8f:	62bad0        	saltu	a11, a10, a13
    2f92:	bbca           	add.n	a11, a11, a12
    2f94:	81aba0        	src	a10, a11, a10
    2f97:	31b0b0        	srai	a11, a11, 16
    2f9a:	fdf4a5        	call8	ee4 <_saturate32>
    2f9d:	664b           	addi.n	a6, a6, 4
    2f9f:	772b           	addi.n	a7, a7, 2
    2fa1:	6188           	l32i.n	a8, a1, 24
    2fa3:	222b           	addi.n	a2, a2, 2
    2fa5:	7f23f2        	l32i	a15, a3, 0x1fc
    2fa8:	880b           	addi.n	a8, a8, -1
    2faa:	6189           	s32i.n	a8, a1, 24
    2fac:	02aaf7        	bge	a10, a15, 2fb2 <fn_calc_zp_gain+0x1aa>
    2faf:	7f63a2        	s32i	a10, a3, 0x1fc

00002fb2 <fn_calc_zp_gain+0x1aa>:
    2fb2:	334b           	addi.n	a3, a3, 4
    2fb4:	f58856        	bnez	a8, 2f10 <fn_calc_zp_gain+0x108>
    2fb7:	5138           	l32i.n	a3, a1, 20
    2fb9:	3198           	l32i.n	a9, a1, 12
    2fbb:	3a1c           	movi.n	a10, 19
    2fbd:	02d332        	addmi	a3, a3, 0x200
    2fc0:	0ad992        	addmi	a9, a9, 0xa00
    2fc3:	0cc992        	addi	a9, a9, 12
    2fc6:	10c332        	addi	a3, a3, 16
    2fc9:	0aaa76        	loopgtz	a10, 2fd7 <fn_calc_zp_gain+0x1cf>
    2fcc:	7f23a2        	l32i	a10, a3, 0x1fc
    2fcf:	fcc992        	addi	a9, a9, -4
    2fd2:	8069a2        	s32i	a10, a9, 0x200
    2fd5:	334b           	addi.n	a3, a3, 4

00002fd7 <fn_calc_zp_gain+0x1cf>:
    2fd7:	0138           	l32i.n	a3, a1, 0
    2fd9:	f44881        	l32r	a8, fc (4d38 <real_512_fft>)
    2fdc:	41a8           	l32i.n	a10, a1, 16
    2fde:	03bd           	mov.n	a11, a3
    2fe0:	0008e0        	callx8	a8
    2fe3:	02a292        	movi	a9, 0x202
    2fe6:	036d           	mov.n	a6, a3
    2fe8:	601604        	ae_lq32f.iu	aeq0, a6, 0
    2feb:	131aa6        	blti	a10, 1, 3002 <fn_calc_zp_gain+0x1fa>
    2fee:	0da976        	loopgtz	a9, 2fff <fn_calc_zp_gain+0x1f7>
    2ff1:	fc24fe8a4f 	{ ae_slaasq56s	aeq1, aeq0, a10; nop }
    2ff6:	060944        	ae_satq48s	aeq0, aeq1
    2ff9:	624604        	ae_sq32f.iu	aeq0, a6, 0
    2ffc:	601614        	ae_lq32f.iu	aeq0, a6, 4
    2fff:	0004c6        	j	3016 <fn_calc_zp_gain+0x20e>

00003002 <fn_calc_zp_gain+0x1fa>:
    3002:	0020f0        	nop
    3005:	0da976        	loopgtz	a9, 3016 <fn_calc_zp_gain+0x20e>
    3008:	fc24fe8acf 	{ ae_slaasq56s	aeq3, aeq0, a10; nop }
    300d:	06b934        	ae_roundsq32asym	aeq2, aeq3
    3010:	626604        	ae_sq32f.iu	aeq2, a6, 0
    3013:	601614        	ae_lq32f.iu	aeq0, a6, 4

00003016 <fn_calc_zp_gain+0x20e>:
    3016:	01a132        	movi	a3, 0x101
    3019:	5128           	l32i.n	a2, a1, 20
    301b:	0168           	l32i.n	a6, a1, 0
    301d:	1148           	l32i.n	a4, a1, 4
    301f:	2178           	l32i.n	a7, a1, 8
    3021:	5c8604        	ae_lp24x2f.iu	aep0, a6, 0

00003024 <fn_calc_zp_gain+0x21c>:
    3024:	048004        	ae_mulzaafp24s.hh.ll	aeq2, aep0, aep0
    3027:	366054        	ae_sllisq56s	aeq1, aeq2, 1
    302a:	061934        	ae_roundsq32asym	aeq0, aeq1
    302d:	368b04        	ae_trunca32q48	a11, aeq0
    3030:	f43e81        	l32r	a8, 128 (ad4 <HIFI_sqrt_ie>)
    3033:	40ebc0        	nsa	a12, a11
    3036:	8ccd           	ae_sext16	a12, a12
    3038:	c0a5c0        	sub	a10, a5, a12
    303b:	401c00        	ssl	a12
    303e:	a1bb00        	sll	a11, a11
    3041:	0008e0        	callx8	a8
    3044:	40ebd0        	nsa	a13, a11
    3047:	fecaa2        	addi	a10, a10, -2
    304a:	8aad           	ae_sext16	a10, a10
    304c:	8ddd           	ae_sext16	a13, a13
    304e:	05ada7        	bge	a13, a10, 3057 <fn_calc_zp_gain+0x24f>
    3051:	f3ffa1        	l32r	a10, 50 (7fffffff <_end+0x7fff185f>)
    3054:	000506        	j	306c <fn_calc_zp_gain+0x264>

00003057 <fn_calc_zp_gain+0x24f>:
    3057:	0b1ae6        	bgei	a10, 1, 3066 <fn_calc_zp_gain+0x25e>
    305a:	60c0a0        	neg	a12, a10
    305d:	400c00        	ssr	a12
    3060:	b1a0b0        	sra	a10, a11
    3063:	000146        	j	306c <fn_calc_zp_gain+0x264>

00003066 <fn_calc_zp_gain+0x25e>:
    3066:	401a00        	ssl	a10
    3069:	a1ab00        	sll	a10, a11

0000306c <fn_calc_zp_gain+0x264>:
    306c:	02b8           	l32i.n	a11, a2, 0
    306e:	330b           	addi.n	a3, a3, -1
    3070:	224b           	addi.n	a2, a2, 4
    3072:	3bcc           	bnez.n	a11, 3079 <fn_calc_zp_gain+0x271>
    3074:	0c0c           	movi.n	a12, 0
    3076:	000bc6        	j	30a9 <fn_calc_zp_gain+0x2a1>

00003079 <fn_calc_zp_gain+0x271>:
    3079:	052ab7        	blt	a10, a11, 3082 <fn_calc_zp_gain+0x27a>
    307c:	f3f8c1        	l32r	a12, 5c (7fff <xtensa_fft8_32b+0x27>)
    307f:	000986        	j	30a9 <fn_calc_zp_gain+0x2a1>

00003082 <fn_calc_zp_gain+0x27a>:
    3082:	368b34        	ae_cvtq48a32s	aeq2, a11
    3085:	360a34        	ae_cvtq48a32s	aeq0, a10
    3088:	40ebe0        	nsa	a14, a11
    308b:	8eed           	ae_sext16	a14, a14
    308d:	fc24fe8ecf 	{ ae_slaasq56s	aeq3, aeq0, a14; nop }
    3092:	fd84cf1eee 	{ addi	a14, a14, -15; ae_satq48s	aeq1, aeq3 }
    3097:	fc24feae0f 	{ ae_slaasq56s	aeq0, aeq2, a14; nop }
    309c:	ff00ff1cef 	{ ae_trunca32q48	a12, aeq1; ae_satq48s	aeq3, aeq0 }
    30a1:	36bd04        	ae_trunca32q48	a13, aeq3
    30a4:	d2ccd0        	quos	a12, a12, a13
    30a7:	accd           	ae_clamps16	a12, a12
    30a9:	53f7c0        	max	a15, a7, a12
    30ac:	09c4f4        	ae_s16ip	a15, a4, 2
    30af:	5c8614        	ae_lp24x2f.iu	aep0, a6, 8
    30b2:	f6e356        	bnez	a3, 3024 <fn_calc_zp_gain+0x21c>
    30b5:	f01d           	retw.n

000030b7 <fn_calc_zp_gain+0x2af>:
	...

000030b8 <fn_ini_pitch_detection>:
    30b8:	004136        	entry	a1, 32
    30bb:	02ad           	mov.n	a10, a2
    30bd:	f40481        	l32r	a8, d0 (8820 <xt_memset>)
    30c0:	0b0c           	movi.n	a11, 0
    30c2:	2c1c           	movi.n	a12, 18
    30c4:	0008e0        	callx8	a8
    30c7:	03bd           	mov.n	a11, a3
    30c9:	f3d881        	l32r	a8, 2c (8838 <xt_memcpy>)
    30cc:	02ad           	mov.n	a10, a2
    30ce:	ec0c           	movi.n	a12, 14
    30d0:	0008e0        	callx8	a8
    30d3:	8249           	s32i.n	a4, a2, 32
    30d5:	f01d           	retw.n

000030d7 <fn_ini_pitch_detection+0x1f>:
	...

000030d8 <fn_pitch_detection>:
    30d8:	006136        	entry	a1, 48
    30db:	039d           	mov.n	a9, a3
    30dd:	8238           	l32i.n	a3, a2, 32
    30df:	0a9282        	l16si	a8, a2, 20
    30e2:	2139           	s32i.n	a3, a1, 8
    30e4:	08d3a2        	addmi	a10, a3, 0x800
    30e7:	31a9           	s32i.n	a10, a1, 12
    30e9:	5418a6        	blti	a8, 1, 3141 <fn_pitch_detection+0x69>
    30ec:	050c           	movi.n	a5, 0
    30ee:	2168           	l32i.n	a6, a1, 8
    30f0:	093d           	mov.n	a3, a9

000030f2 <fn_pitch_detection+0x1a>:
    30f2:	03a8           	l32i.n	a10, a3, 0
    30f4:	f3f281        	l32r	a8, bc (df0 <fxlog10>)
    30f7:	aa1b           	addi.n	a10, a10, 1
    30f9:	0008e0        	callx8	a8
    30fc:	f40eb1        	l32r	a11, 134 (ffffcb05 <_end+0xfffee365>)
    30ff:	aaba           	add.n	a10, a10, a11
    3101:	fddc65        	call8	ec8 <_saturate16>
    3104:	f3ddd1        	l32r	a13, 78 (8000 <xtensa_fft8_32b+0x28>)
    3107:	f40cc1        	l32r	a12, 138 (6a4d3c26 <_end+0x6a4c5486>)
    310a:	0a7d           	mov.n	a7, a10
    310c:	404f10        	ssai	31
    310f:	82aac0        	mull	a10, a10, a12
    3112:	b2c7c0        	mulsh	a12, a7, a12
    3115:	11baf0        	slli	a11, a10, 1
    3118:	81cca0        	src	a12, a12, a10
    311b:	90aad0        	addx2	a10, a10, a13
    311e:	404010        	ssai	16
    3121:	62bab0        	saltu	a11, a10, a11
    3124:	bbca           	add.n	a11, a11, a12
    3126:	81aba0        	src	a10, a11, a10
    3129:	31b0b0        	srai	a11, a11, 16
    312c:	fddb65        	call8	ee4 <_saturate32>
    312f:	09e6a4        	ae_s32ip	a10, a6, 4
    3132:	0a92d2        	l16si	a13, a2, 20
    3135:	334b           	addi.n	a3, a3, 4
    3137:	551b           	addi.n	a5, a5, 1
    3139:	b525d7        	blt	a5, a13, 30f2 <fn_pitch_detection+0x1a>
    313c:	617d           	ae_s16i.n	a7, a1, 0
    313e:	0000c6        	j	3145 <fn_pitch_detection+0x6d>

00003141 <fn_pitch_detection+0x69>:
    3141:	050c           	movi.n	a5, 0
    3143:	2139           	s32i.n	a3, a1, 8

00003145 <fn_pitch_detection+0x6d>:
    3145:	3178           	l32i.n	a7, a1, 12
    3147:	2138           	l32i.n	a3, a1, 8
    3149:	ffa182        	movi	a8, 0x1ff
    314c:	00a1e2        	movi	a14, 0x100
    314f:	142e57        	blt	a14, a5, 3167 <fn_pitch_detection+0x8f>
    3152:	f3fa91        	l32r	a9, 13c (c0000000 <_end+0xbfff1860>)
    3155:	a06530        	addx4	a6, a5, a3
    3158:	01a1f2        	movi	a15, 0x101
    315b:	c0ff50        	sub	a15, a15, a5
    315e:	02af76        	loopgtz	a15, 3164 <fn_pitch_detection+0x8c>
    3161:	09e694        	ae_s32ip	a9, a6, 4

00003164 <fn_pitch_detection+0x8c>:
    3164:	01a152        	movi	a5, 0x101

00003167 <fn_pitch_detection+0x8f>:
    3167:	1f2857        	blt	a8, a5, 318a <fn_pitch_detection+0xb2>
    316a:	a06530        	addx4	a6, a5, a3
    316d:	1195e0        	slli	a9, a5, 2
    3170:	00a2a2        	movi	a10, 0x200
    3173:	c0aa50        	sub	a10, a10, a5
    3176:	c09390        	sub	a9, a3, a9
    3179:	06d992        	addmi	a9, a9, 0x600
    317c:	f03d           	nop.n
    317e:	08aa76        	loopgtz	a10, 318a <fn_pitch_detection+0xb2>
    3181:	fcc992        	addi	a9, a9, -4
    3184:	8129b2        	l32i	a11, a9, 0x204
    3187:	09e6b4        	ae_s32ip	a11, a6, 4

0000318a <fn_pitch_detection+0xb2>:
    318a:	f3dc81        	l32r	a8, fc (4d38 <real_512_fft>)
    318d:	03ad           	mov.n	a10, a3
    318f:	07bd           	mov.n	a11, a7
    3191:	0008e0        	callx8	a8
    3194:	049252        	l16si	a5, a2, 8
    3197:	0a6d           	mov.n	a6, a10
    3199:	059292        	l16si	a9, a2, 10
    319c:	b0b570        	addx8	a11, a5, a7
    319f:	a0c530        	addx4	a12, a5, a3
    31a2:	fcccc2        	addi	a12, a12, -4
    31a5:	5c8b04        	ae_lp24x2f.iu	aep0, a11, 0
    31a8:	34a597        	bge	a5, a9, 31e0 <fn_pitch_detection+0x108>
    31ab:	010844        	ae_mulfp24s.hh	aeq1, aep0, aep0
    31ae:	e203cc19af 	{ movi	a10, 0xfffffc19; ae_mulafp24s.ll	aeq1, aep0, aep0 }
    31b3:	217d           	ae_l16si.n	a7, a1, 0
    31b5:	355074        	ae_sraiq56	aeq1, aeq1, 1

000031b8 <fn_pitch_detection+0xe0>:
    31b8:	061934        	ae_roundsq32asym	aeq0, aeq1
    31bb:	624c14        	ae_sq32f.iu	aeq0, a12, 4
    31be:	368d04        	ae_trunca32q48	a13, aeq0
    31c1:	5c8b14        	ae_lp24x2f.iu	aep0, a11, 8
    31c4:	010844        	ae_mulfp24s.hh	aeq1, aep0, aep0
    31c7:	03aad7        	bge	a10, a13, 31ce <fn_pitch_detection+0xf6>
    31ca:	0dad           	mov.n	a10, a13
    31cc:	057d           	mov.n	a7, a5

000031ce <fn_pitch_detection+0xf6>:
    31ce:	e203e052de 	{ l16si	a13, a2, 10; ae_mulafp24s.ll	aeq1, aep0, aep0 }
    31d3:	551b           	addi.n	a5, a5, 1
    31d5:	355074        	ae_sraiq56	aeq1, aeq1, 1
    31d8:	dc25d7        	blt	a5, a13, 31b8 <fn_pitch_detection+0xe0>
    31db:	617d           	ae_s16i.n	a7, a1, 0
    31dd:	000086        	j	31e3 <fn_pitch_detection+0x10b>

000031e0 <fn_pitch_detection+0x108>:
    31e0:	19aca2        	movi	a10, 0xfffffc19

000031e3 <fn_pitch_detection+0x10b>:
    31e3:	f3cc81        	l32r	a8, 114 (d80 <fxsqrt_ie>)
    31e6:	0008e0        	callx8	a8
    31e9:	31bfa0        	srai	a11, a10, 31
    31ec:	565b           	addi.n	a5, a6, 5
    31ee:	f3c681        	l32r	a8, 108 (887c <__ashldi3>)
    31f1:	855d           	ae_sext16	a5, a5
    31f3:	05cd           	mov.n	a12, a5
    31f5:	0008e0        	callx8	a8
    31f8:	fdcea5        	call8	ee4 <_saturate32>
    31fb:	0288           	l32i.n	a8, a2, 0
    31fd:	0faa87        	bge	a10, a8, 3210 <fn_pitch_detection+0x138>
    3200:	1298           	l32i.n	a9, a2, 4
    3202:	052a97        	blt	a10, a9, 320b <fn_pitch_detection+0x133>
    3205:	0e92a2        	l16si	a10, a2, 28
    3208:	115a56        	bnez	a10, 3321 <fn_pitch_detection+0x249>

0000320b <fn_pitch_detection+0x133>:
    320b:	070c           	movi.n	a7, 0
    320d:	000046        	j	3212 <fn_pitch_detection+0x13a>

00003210 <fn_pitch_detection+0x138>:
    3210:	217d           	ae_l16si.n	a7, a1, 0

00003212 <fn_pitch_detection+0x13a>:
    3212:	0e5272        	s16i	a7, a2, 28
    3215:	27cc           	bnez.n	a7, 321b <fn_pitch_detection+0x143>
    3217:	020c           	movi.n	a2, 0
    3219:	f01d           	retw.n

0000321b <fn_pitch_detection+0x143>:
    321b:	049d           	mov.n	a9, a4
    321d:	01a1a2        	movi	a10, 0x101
    3220:	05aa76        	loopgtz	a10, 3229 <fn_pitch_detection+0x151>
    3223:	0892b2        	l16si	a11, a2, 16
    3226:	09c9b4        	ae_s16ip	a11, a9, 2

00003229 <fn_pitch_detection+0x151>:
    3229:	04ae82        	movi	a8, 0xfffffe04
    322c:	a03730        	addx4	a3, a7, a3
    322f:	338a           	add.n	a3, a3, a8
    3231:	8023a2        	l32i	a10, a3, 0x200
    3234:	7e23b2        	l32i	a11, a3, 0x1f8
    3237:	31dfa0        	srai	a13, a10, 31
    323a:	31cfb0        	srai	a12, a11, 31
    323d:	abaa           	add.n	a10, a11, a10
    323f:	ccda           	add.n	a12, a12, a13
    3241:	62bab0        	saltu	a11, a10, a11
    3244:	bbca           	add.n	a11, a11, a12
    3246:	fdc9e5        	call8	ee4 <_saturate32>
    3249:	7f2392        	l32i	a9, a3, 0x1fc
    324c:	0a5d           	mov.n	a5, a10
    324e:	404f10        	ssai	31
    3251:	31bf90        	srai	a11, a9, 31
    3254:	81bb90        	src	a11, a11, a9
    3257:	1199f0        	slli	a9, a9, 1
    325a:	09ad           	mov.n	a10, a9
    325c:	fdc865        	call8	ee4 <_saturate32>
    325f:	31bf50        	srai	a11, a5, 31
    3262:	0add           	mov.n	a13, a10
    3264:	31dfd0        	srai	a13, a13, 31
    3267:	c0a5a0        	sub	a10, a5, a10
    326a:	62c5a0        	saltu	a12, a5, a10
    326d:	c0bbd0        	sub	a11, a11, a13
    3270:	c0bbc0        	sub	a11, a11, a12
    3273:	fdc725        	call8	ee4 <_saturate32>
    3276:	8023e2        	l32i	a14, a3, 0x200
    3279:	7e23b2        	l32i	a11, a3, 0x1f8
    327c:	0a3d           	mov.n	a3, a10
    327e:	31dfe0        	srai	a13, a14, 31
    3281:	c0ebe0        	sub	a14, a11, a14
    3284:	62cbe0        	saltu	a12, a11, a14
    3287:	0ead           	mov.n	a10, a14
    3289:	31bfb0        	srai	a11, a11, 31
    328c:	c0bbd0        	sub	a11, a11, a13
    328f:	c0bbc0        	sub	a11, a11, a12
    3292:	fdc525        	call8	ee4 <_saturate32>
    3295:	0d92b2        	l16si	a11, a2, 26
    3298:	f3aad1        	l32r	a13, 140 (200000 <_end+0x1f1860>)
    329b:	11f790        	slli	a15, a7, 7
    329e:	11ea90        	slli	a14, a10, 7
    32a1:	d2ee30        	quos	a14, a14, a3
    32a4:	eefa           	add.n	a14, a14, a15
    32a6:	d2dde0        	quos	a13, a13, a14
    32a9:	2f0c           	movi.n	a15, 2
    32ab:	0e2c           	movi.n	a14, 32
    32ad:	10cdc2        	addi	a12, a13, 16
    32b0:	d2f7f0        	quos	a15, a7, a15
    32b3:	8ffd           	ae_sext16	a15, a15
    32b5:	ff0b           	addi.n	a15, a15, -1
    32b7:	d2cce0        	quos	a12, a12, a14
    32ba:	8ccd           	ae_sext16	a12, a12
    32bc:	04afe2        	movi	a14, -252
    32bf:	909c40        	addx2	a9, a12, a4
    32c2:	99ea           	add.n	a9, a9, a14
    32c4:	7d59b2        	s16i	a11, a9, 250
    32c7:	0992a2        	l16si	a10, a2, 18
    32ca:	7e59a2        	s16i	a10, a9, 252
    32cd:	80add0        	add	a10, a13, a13
    32d0:	0d9282        	l16si	a8, a2, 26
    32d3:	7f5982        	s16i	a8, a9, 254
    32d6:	10caa2        	addi	a10, a10, 16
    32d9:	25af76        	loopgtz	a15, 3302 <fn_pitch_detection+0x22a>
    32dc:	0c9292        	l16si	a9, a2, 24
    32df:	0c2c           	movi.n	a12, 32
    32e1:	d2cac0        	quos	a12, a10, a12
    32e4:	8ccd           	ae_sext16	a12, a12
    32e6:	90bc40        	addx2	a11, a12, a4
    32e9:	bbea           	add.n	a11, a11, a14
    32eb:	7d5b92        	s16i	a9, a11, 250
    32ee:	079282        	l16si	a8, a2, 14
    32f1:	7e5b82        	s16i	a8, a11, 252
    32f4:	0b92f2        	l16si	a15, a2, 22
    32f7:	aada           	add.n	a10, a10, a13
    32f9:	05acf7        	bge	a12, a15, 3302 <fn_pitch_detection+0x22a>
    32fc:	0c92f2        	l16si	a15, a2, 24
    32ff:	7f5bf2        	s16i	a15, a11, 254

00003302 <fn_pitch_detection+0x22a>:
    3302:	072d           	mov.n	a2, a7
    3304:	02cc52        	addi	a5, a12, 2
    3307:	fea082        	movi	a8, 254
    330a:	1128c7        	blt	a8, a12, 331f <fn_pitch_detection+0x247>
    330d:	f34da1        	l32r	a10, 44 (1000 <inv_mel_filter+0x4>)
    3310:	909540        	addx2	a9, a5, a4
    3313:	ffa0b2        	movi	a11, 255
    3316:	c0bbc0        	sub	a11, a11, a12
    3319:	02ab76        	loopgtz	a11, 331f <fn_pitch_detection+0x247>
    331c:	09c9a4        	ae_s16ip	a10, a9, 2

0000331f <fn_pitch_detection+0x247>:
    331f:	f01d           	retw.n

00003321 <fn_pitch_detection+0x249>:
    3321:	217d           	ae_l16si.n	a7, a1, 0
    3323:	0692c2        	l16si	a12, a2, 12
    3326:	c0da70        	sub	a13, a10, a7
    3329:	60d1d0        	abs	a13, a13
    332c:	022cd7        	blt	a12, a13, 3332 <fn_pitch_detection+0x25a>
    332f:	ffb7c6        	j	3212 <fn_pitch_detection+0x13a>
    3332:	060c           	movi.n	a6, 0
    3334:	1159           	s32i.n	a5, a1, 4
    3336:	4e1c           	movi.n	a14, 20
    3338:	a09730        	addx4	a9, a7, a3
    333b:	d8c992        	addi	a9, a9, -40
    333e:	02ae76        	loopgtz	a14, 3344 <fn_pitch_detection+0x26c>
    3341:	09e964        	ae_s32ip	a6, a9, 4

00003344 <fn_pitch_detection+0x26c>:
    3344:	0592a2        	l16si	a10, a2, 10
    3347:	049252        	l16si	a5, a2, 8
    334a:	20a5a7        	bge	a5, a10, 336e <fn_pitch_detection+0x296>
    334d:	a0b530        	addx4	a11, a5, a3
    3350:	1d0c           	movi.n	a13, 1
    3352:	c0ca50        	sub	a12, a10, a5
    3355:	19aca2        	movi	a10, 0xfffffc19
    3358:	53ccd0        	max	a12, a12, a13
    335b:	0cac76        	loopgtz	a12, 336b <fn_pitch_detection+0x293>
    335e:	0bd8           	l32i.n	a13, a11, 0
    3360:	bb4b           	addi.n	a11, a11, 4
    3362:	03aad7        	bge	a10, a13, 3369 <fn_pitch_detection+0x291>
    3365:	0dad           	mov.n	a10, a13
    3367:	857d           	ae_sext16	a7, a5

00003369 <fn_pitch_detection+0x291>:
    3369:	551b           	addi.n	a5, a5, 1

0000336b <fn_pitch_detection+0x293>:
    336b:	000086        	j	3371 <fn_pitch_detection+0x299>

0000336e <fn_pitch_detection+0x296>:
    336e:	19aca2        	movi	a10, 0xfffffc19

00003371 <fn_pitch_detection+0x299>:
    3371:	f36881        	l32r	a8, 114 (d80 <fxsqrt_ie>)
    3374:	0008e0        	callx8	a8
    3377:	f36481        	l32r	a8, 108 (887c <__ashldi3>)
    337a:	11c8           	l32i.n	a12, a1, 4
    337c:	31bfa0        	srai	a11, a10, 31
    337f:	0008e0        	callx8	a8
    3382:	fdb625        	call8	ee4 <_saturate32>
    3385:	12c8           	l32i.n	a12, a2, 4
    3387:	0e92e2        	l16si	a14, a2, 28
    338a:	0692d2        	l16si	a13, a2, 12
    338d:	72cac0        	salt	a12, a10, a12
    3390:	c0ee70        	sub	a14, a14, a7
    3393:	60e1e0        	abs	a14, a14
    3396:	72dde0        	salt	a13, a13, a14
    3399:	9376d0        	movnez	a7, a6, a13
    339c:	877d           	ae_sext16	a7, a7
    339e:	9376c0        	movnez	a7, a6, a12
    33a1:	ff9b46        	j	3212 <fn_pitch_detection+0x13a>

000033a4 <fn_ini_mic_chk_status>:
    33a4:	004136        	entry	a1, 32
    33a7:	02ad           	mov.n	a10, a2
    33a9:	f34981        	l32r	a8, d0 (8820 <xt_memset>)
    33ac:	0b0c           	movi.n	a11, 0
    33ae:	9c0c           	movi.n	a12, 9
    33b0:	0008e0        	callx8	a8
    33b3:	02ad           	mov.n	a10, a2
    33b5:	f31d81        	l32r	a8, 2c (8838 <xt_memcpy>)
    33b8:	03bd           	mov.n	a11, a3
    33ba:	6c0c           	movi.n	a12, 6
    33bc:	0008e0        	callx8	a8
    33bf:	339d           	ae_l16si.n	a9, a3, 2
    33c1:	02d992        	addmi	a9, a9, 0x200
    33c4:	9ac992        	addi	a9, a9, -102
    33c7:	075292        	s16i	a9, a2, 14
    33ca:	f01d           	retw.n

000033cc <fn_mic_chk_status>:
    33cc:	006136        	entry	a1, 48
    33cf:	027d           	mov.n	a7, a2
    33d1:	860b           	addi.n	a8, a6, -1
    33d3:	042d           	mov.n	a2, a4
    33d5:	107856        	bnez	a8, 34e0 <fn_mic_chk_status+0x114>
    33d8:	ffc592        	addi	a9, a5, -1
    33db:	101956        	bnez	a9, 34e0 <fn_mic_chk_status+0x114>
    33de:	40a0a2        	movi	a10, 64
    33e1:	609304        	ae_lq32f.iu	aeq2, a3, 0
    33e4:	00a2b2        	movi	a11, 0x200
    33e7:	fc2493944f 	{ or	a9, a4, a4; ae_zeroq56	aeq0 }
    33ec:	630114        	ae_sq56s.i	aeq0, a1, 8
    33ef:	60d904        	ae_lq32f.iu	aeq3, a9, 0
    33f2:	300bb4        	ae_cvtp24a16x2.ll	aep0, a11, a11
    33f5:	420104        	ae_sp16f.l.i	aep0, a1, 0
    33f8:	fd046c010f 	{ ae_lp16f.i	aep0, a1, 0; ae_movq56	aeq1, aeq0 }
    33fd:	0daa76        	loopgtz	a10, 340e <fn_mic_chk_status+0x42>
    3400:	0308d4        	ae_mulafq32sp16s.l	aeq1, aeq3, aep0
    3403:	f682bd791f 	{ ae_lq32f.iu	aeq3, a9, 4; ae_mulafq32sp16s.l	aeq0, aeq2, aep0 }
    3408:	609314        	ae_lq32f.iu	aeq2, a3, 4
    340b:	630114        	ae_sq56s.i	aeq0, a1, 8

0000340e <fn_mic_chk_status+0x42>:
    340e:	f32b81        	l32r	a8, bc (df0 <fxlog10>)
    3411:	369a04        	ae_trunca32q48	a10, aeq1
    3414:	0008e0        	callx8	a8
    3417:	610114        	ae_lq56.i	aeq0, a1, 8
    341a:	368904        	ae_trunca32q48	a9, aeq0
    341d:	f32781        	l32r	a8, bc (df0 <fxlog10>)
    3420:	0a3d           	mov.n	a3, a10
    3422:	20a990        	or	a10, a9, a9
    3425:	0008e0        	callx8	a8
    3428:	c0a3a0        	sub	a10, a3, a10
    342b:	fda9e5        	call8	ec8 <_saturate16>
    342e:	0397b2        	l16si	a11, a7, 6
    3431:	029792        	l16si	a9, a7, 4
    3434:	fd24933aaf 	{ or	a3, a10, a10; ae_zeroq56	aeq1 }
    3439:	f302a1        	l32r	a10, 44 (1000 <inv_mel_filter+0x4>)
    343c:	631114        	ae_sq56s.i	aeq1, a1, 8
    343f:	301aa4        	ae_cvtp24a16x2.ll	aep1, a10, a10
    3442:	08a0a2        	movi	a10, 8
    3445:	a09920        	addx4	a9, a9, a2
    3448:	a0bb20        	addx4	a11, a11, a2
    344b:	609b04        	ae_lq32f.iu	aeq2, a11, 0
    344e:	60d904        	ae_lq32f.iu	aeq3, a9, 0
    3451:	421114        	ae_sp16f.l.i	aep1, a1, 2
    3454:	fc0c6c011f 	{ ae_lp16f.i	aep0, a1, 2; ae_movq56	aeq0, aeq1 }
    3459:	0daa76        	loopgtz	a10, 346a <fn_mic_chk_status+0x9e>
    345c:	0308d4        	ae_mulafq32sp16s.l	aeq1, aeq3, aep0
    345f:	f682bd791f 	{ ae_lq32f.iu	aeq3, a9, 4; ae_mulafq32sp16s.l	aeq0, aeq2, aep0 }
    3464:	609b14        	ae_lq32f.iu	aeq2, a11, 4
    3467:	630114        	ae_sq56s.i	aeq0, a1, 8
    346a:	f31481        	l32r	a8, bc (df0 <fxlog10>)
    346d:	369a04        	ae_trunca32q48	a10, aeq1
    3470:	0008e0        	callx8	a8
    3473:	614114        	ae_lq56.i	aeq1, a1, 8
    3476:	369904        	ae_trunca32q48	a9, aeq1
    3479:	f31081        	l32r	a8, bc (df0 <fxlog10>)
    347c:	0a2d           	mov.n	a2, a10
    347e:	09ad           	mov.n	a10, a9
    3480:	0008e0        	callx8	a8
    3483:	c0a2a0        	sub	a10, a2, a10
    3486:	fda425        	call8	ec8 <_saturate16>
    3489:	0697b2        	l16si	a11, a7, 12
    348c:	0a2d           	mov.n	a2, a10
    348e:	c0a3b0        	sub	a10, a3, a11
    3491:	fda365        	call8	ec8 <_saturate16>
    3494:	0497b2        	l16si	a11, a7, 8
    3497:	d1bba0        	mul16s	a11, a11, a10
    349a:	0697a2        	l16si	a10, a7, 12
    349d:	11bbf0        	slli	a11, a11, 1
    34a0:	31b0b0        	srai	a11, a11, 16
    34a3:	aaba           	add.n	a10, a10, a11
    34a5:	fda225        	call8	ec8 <_saturate16>
    34a8:	0797c2        	l16si	a12, a7, 14
    34ab:	0657a2        	s16i	a10, a7, 12
    34ae:	c0a2c0        	sub	a10, a2, a12
    34b1:	fda165        	call8	ec8 <_saturate16>
    34b4:	0597b2        	l16si	a11, a7, 10
    34b7:	d1bba0        	mul16s	a11, a11, a10
    34ba:	0797a2        	l16si	a10, a7, 14
    34bd:	11bbf0        	slli	a11, a11, 1
    34c0:	31b0b0        	srai	a11, a11, 16
    34c3:	aaba           	add.n	a10, a10, a11
    34c5:	fda025        	call8	ec8 <_saturate16>
    34c8:	0757a2        	s16i	a10, a7, 14
    34cb:	0697d2        	l16si	a13, a7, 12
    34ce:	27cd           	ae_l16si.n	a12, a7, 0
    34d0:	0897b2        	l16si	a11, a7, 16
    34d3:	378d           	ae_l16si.n	a8, a7, 2
    34d5:	12acd7        	bge	a12, a13, 34eb <fn_mic_chk_status+0x11f>
    34d8:	1e0c           	movi.n	a14, 1
    34da:	20bbe0        	or	a11, a11, a14
    34dd:	0003c6        	j	34f0 <fn_mic_chk_status+0x124>

000034e0 <fn_mic_chk_status+0x114>:
    34e0:	368c           	beqz.n	a6, 34e7 <fn_mic_chk_status+0x11b>
    34e2:	089722        	l16si	a2, a7, 16
    34e5:	f01d           	retw.n

000034e7 <fn_mic_chk_status+0x11b>:
    34e7:	420c           	movi.n	a2, 4
    34e9:	f01d           	retw.n

000034eb <fn_mic_chk_status+0x11f>:
    34eb:	ef7c           	movi.n	a15, -2
    34ed:	10bbf0        	and	a11, a11, a15

000034f0 <fn_mic_chk_status+0x124>:
    34f0:	0857b2        	s16i	a11, a7, 16
    34f3:	07aa87        	bge	a10, a8, 34fe <fn_mic_chk_status+0x132>
    34f6:	220c           	movi.n	a2, 2
    34f8:	202b20        	or	a2, a11, a2
    34fb:	000106        	j	3503 <fn_mic_chk_status+0x137>

000034fe <fn_mic_chk_status+0x132>:
    34fe:	d27c           	movi.n	a2, -3
    3500:	102b20        	and	a2, a11, a2

00003503 <fn_mic_chk_status+0x137>:
    3503:	085722        	s16i	a2, a7, 16
    3506:	f01d           	retw.n

00003508 <biquad_sec>:
    3508:	004136        	entry	a1, 32
    350b:	1488           	l32i.n	a8, a4, 4
    350d:	404700        	ssai	7
    3510:	34e8           	l32i.n	a14, a4, 12
    3512:	0498           	l32i.n	a9, a4, 0
    3514:	24a8           	l32i.n	a10, a4, 8
    3516:	43f8           	l32i.n	a15, a3, 16
    3518:	13c8           	l32i.n	a12, a3, 4
    351a:	33b8           	l32i.n	a11, a3, 12
    351c:	21f8f0        	srai	a15, a15, 8
    351f:	21c8c0        	srai	a12, a12, 8
    3522:	21b8b0        	srai	a11, a11, 8
    3525:	825ab0        	mull	a5, a10, a11
    3528:	8269c0        	mull	a6, a9, a12
    352b:	82def0        	mull	a13, a14, a15
    352e:	b299c0        	mulsh	a9, a9, a12
    3531:	b2eef0        	mulsh	a14, a14, a15
    3534:	b2aab0        	mulsh	a10, a10, a11
    3537:	23b8           	l32i.n	a11, a3, 8
    3539:	815a50        	src	a5, a10, a5
    353c:	81ded0        	src	a13, a14, a13
    353f:	816960        	src	a6, a9, a6
    3542:	21e7e0        	srai	a14, a14, 7
    3545:	219790        	srai	a9, a9, 7
    3548:	21b8b0        	srai	a11, a11, 8
    354b:	21a7a0        	srai	a10, a10, 7
    354e:	82c8b0        	mull	a12, a8, a11
    3551:	b288b0        	mulsh	a8, a8, a11
    3554:	03b8           	l32i.n	a11, a3, 0
    3556:	aaaa           	add.n	a10, a10, a10
    3558:	81c8c0        	src	a12, a8, a12
    355b:	21b8b0        	srai	a11, a11, 8
    355e:	82f2b0        	mull	a15, a2, a11
    3561:	b2b2b0        	mulsh	a11, a2, a11
    3564:	218780        	srai	a8, a8, 7
    3567:	81fbf0        	src	a15, a11, a15
    356a:	404010        	ssai	16
    356d:	21b7b0        	srai	a11, a11, 7
    3570:	f6fa           	add.n	a15, a6, a15
    3572:	626f60        	saltu	a6, a15, a6
    3575:	99ba           	add.n	a9, a9, a11
    3577:	cfca           	add.n	a12, a15, a12
    3579:	b55a           	add.n	a11, a5, a5
    357b:	62fcf0        	saltu	a15, a12, a15
    357e:	625b50        	saltu	a5, a11, a5
    3581:	669a           	add.n	a6, a6, a9
    3583:	668a           	add.n	a6, a6, a8
    3585:	55aa           	add.n	a5, a5, a10
    3587:	bcba           	add.n	a11, a12, a11
    3589:	f2bba1        	l32r	a10, 78 (8000 <xtensa_fft8_32b+0x28>)
    358c:	62cbc0        	saltu	a12, a11, a12
    358f:	ff6a           	add.n	a15, a15, a6
    3591:	ff5a           	add.n	a15, a15, a5
    3593:	ccfa           	add.n	a12, a12, a15
    3595:	adaa           	add.n	a10, a13, a10
    3597:	62dad0        	saltu	a13, a10, a13
    359a:	abaa           	add.n	a10, a11, a10
    359c:	ddea           	add.n	a13, a13, a14
    359e:	ccda           	add.n	a12, a12, a13
    35a0:	62bab0        	saltu	a11, a10, a11
    35a3:	bbca           	add.n	a11, a11, a12
    35a5:	81aba0        	src	a10, a11, a10
    35a8:	31b0b0        	srai	a11, a11, 16
    35ab:	fd93a5        	call8	ee4 <_saturate32>
    35ae:	24c8           	l32i.n	a12, a4, 8
    35b0:	04d8           	l32i.n	a13, a4, 0
    35b2:	14d9           	s32i.n	a13, a4, 4
    35b4:	34c9           	s32i.n	a12, a4, 12
    35b6:	0429           	s32i.n	a2, a4, 0
    35b8:	24a9           	s32i.n	a10, a4, 8
    35ba:	0a2d           	mov.n	a2, a10
    35bc:	f01d           	retw.n

000035be <biquad_sec+0xb6>:
	...

000035c0 <fn_ini_over_subtract>:
    35c0:	004136        	entry	a1, 32
    35c3:	02ad           	mov.n	a10, a2
    35c5:	f2c281        	l32r	a8, d0 (8820 <xt_memset>)
    35c8:	0b0c           	movi.n	a11, 0
    35ca:	ac3c           	movi.n	a12, 58
    35cc:	0008e0        	callx8	a8
    35cf:	f01d           	retw.n

000035d1 <fn_ini_over_subtract+0x11>:
    35d1:	000000                                        ...

000035d4 <fn_over_subtract>:
    35d4:	008136        	entry	a1, 64
    35d7:	0e0c           	movi.n	a14, 0
    35d9:	4169           	s32i.n	a6, a1, 16
    35db:	02ad           	mov.n	a10, a2
    35dd:	680c           	movi.n	a8, 6
    35df:	f2d971        	l32r	a7, 144 (e6b0 <biquad_coef>)
    35e2:	40b304        	ae_lp16f.iu	aep3, a3, 0
    35e5:	f2cb           	addi.n	a15, a2, 12
    35e7:	0149           	s32i.n	a4, a1, 0
    35e9:	05dd           	mov.n	a13, a5
    35eb:	f0a042        	movi	a4, 240
    35ee:	51d9           	s32i.n	a13, a1, 20
    35f0:	fc24939fff 	{ or	a9, a15, a15; ae_zeroq56	aeq0 }
    35f5:	630114        	ae_sq56s.i	aeq0, a1, 8
    35f8:	fc6c13b77f 	{ or	a11, a7, a7; ae_cvtq48p24s.l	aeq0, aep3 }

000035fd <fn_over_subtract+0x29>:
    35fd:	40b314        	ae_lp16f.iu	aep3, a3, 2
    3600:	ee1b           	addi.n	a14, a14, 1
    3602:	44a876        	loopgtz	a8, 364a <fn_over_subtract+0x76>
    3605:	3a88           	l32i.n	a8, a10, 12
    3607:	368504        	ae_trunca32q48	a5, aeq0
    360a:	09cd           	mov.n	a12, a9
    360c:	0bdd           	mov.n	a13, a11
    360e:	10c992        	addi	a9, a9, 16
    3611:	18cbb2        	addi	a11, a11, 24
    3614:	605c04        	ae_lq32f.iu	aeq1, a12, 0
    3617:	5cdd04        	ae_lp24x2f.iu	aep5, a13, 0
    361a:	5ccd14        	ae_lp24x2f.iu	aep4, a13, 8
    361d:	f8143d7c1f 	{ ae_lq32f.iu	aeq3, a12, 4; ae_mulfq32sp24s.h	aeq0, aeq0, aep5 }
    3622:	f4d7bd5c1f 	{ ae_lq32f.iu	aeq2, a12, 4; ae_mulafq32sp24s.l	aeq0, aeq1, aep5 }
    3627:	f653afad1f 	{ ae_lp24x2f.iu	aep2, a13, 8; ae_mulafq32sp24s.h	aeq0, aeq3, aep4 }
    362c:	f6d2b05ade 	{ l32i	a13, a10, 20; ae_mulafq32sp24s.l	aeq0, aeq2, aep4 }
    3631:	f6d2bd3c1f 	{ ae_lq32f.iu	aeq1, a12, 4; ae_mulafq32sp24s.l	aeq0, aeq2, aep4 }
    3636:	f44b944a8f 	{ s32i.n	a8, a10, 16; ae_mulafq32sp24s.h	aeq0, aeq1, aep2 }
    363b:	6ad9           	s32i.n	a13, a10, 24
    363d:	fc24543a5f 	{ s32i.n	a5, a10, 12; ae_roundsq32asym	aeq0, aeq0 }
    3642:	368c04        	ae_trunca32q48	a12, aeq0
    3645:	5ac9           	s32i.n	a12, a10, 20
    3647:	10caa2        	addi	a10, a10, 16

0000364a <fn_over_subtract+0x76>:
    364a:	0f9d           	mov.n	a9, a15
    364c:	07bd           	mov.n	a11, a7
    364e:	ff00bdc11f 	{ ae_lq56.i	aeq2, a1, 8; ae_absq56	aeq3, aeq0 }
    3653:	fbf613a22f 	{ or	a10, a2, a2; ae_addq56	aeq3, aeq2, aeq3 }
    3658:	fe3c40068f 	{ movi	a8, 6; ae_roundsq32asym	aeq2, aeq3 }
    365d:	fc6c3a211f 	{ ae_sq56s.i	aeq2, a1, 8; ae_cvtq48p24s.l	aeq0, aep3 }
    3662:	979e47        	bne	a14, a4, 35fd <fn_over_subtract+0x29>
    3665:	12a8           	l32i.n	a10, a2, 4
    3667:	610114        	ae_lq56.i	aeq0, a1, 8
    366a:	368304        	ae_trunca32q48	a3, aeq0
    366d:	31bfa0        	srai	a11, a10, 31
    3670:	317f30        	srai	a7, a3, 31
    3673:	c0a3a0        	sub	a10, a3, a10
    3676:	62c3a0        	saltu	a12, a3, a10
    3679:	c0b7b0        	sub	a11, a7, a11
    367c:	c0bbc0        	sub	a11, a11, a12
    367f:	fd8665        	call8	ee4 <_saturate32>
    3682:	31bfa0        	srai	a11, a10, 31
    3685:	ca8b           	addi.n	a12, a10, 8
    3687:	404400        	ssai	4
    368a:	62aca0        	saltu	a10, a12, a10
    368d:	aaba           	add.n	a10, a10, a11
    368f:	12b8           	l32i.n	a11, a2, 4
    3691:	81aac0        	src	a10, a10, a12
    3694:	31dfa0        	srai	a13, a10, 31
    3697:	31cfb0        	srai	a12, a11, 31
    369a:	ccda           	add.n	a12, a12, a13
    369c:	abaa           	add.n	a10, a11, a10
    369e:	62bab0        	saltu	a11, a10, a11
    36a1:	bbca           	add.n	a11, a11, a12
    36a3:	fd8425        	call8	ee4 <_saturate32>
    36a6:	02c8           	l32i.n	a12, a2, 0
    36a8:	12a9           	s32i.n	a10, a2, 4
    36aa:	31bfc0        	srai	a11, a12, 31
    36ad:	c0b7b0        	sub	a11, a7, a11
    36b0:	c0a3c0        	sub	a10, a3, a12
    36b3:	62d3a0        	saltu	a13, a3, a10
    36b6:	c0bbd0        	sub	a11, a11, a13
    36b9:	3fac37        	bge	a12, a3, 36fc <fn_over_subtract+0x128>
    36bc:	fd8265        	call8	ee4 <_saturate32>
    36bf:	404800        	ssai	8
    36c2:	01dac2        	addmi	a12, a10, 0x100
    36c5:	31bfa0        	srai	a11, a10, 31
    36c8:	80ccc2        	addi	a12, a12, -128
    36cb:	62aca0        	saltu	a10, a12, a10
    36ce:	aaba           	add.n	a10, a10, a11
    36d0:	02b8           	l32i.n	a11, a2, 0
    36d2:	81aac0        	src	a10, a10, a12
    36d5:	31dfa0        	srai	a13, a10, 31
    36d8:	31cfb0        	srai	a12, a11, 31
    36db:	ccda           	add.n	a12, a12, a13
    36dd:	abaa           	add.n	a10, a11, a10
    36df:	62bab0        	saltu	a11, a10, a11
    36e2:	bbca           	add.n	a11, a11, a12
    36e4:	fd7fe5        	call8	ee4 <_saturate32>

000036e7 <fn_over_subtract+0x113>:
    36e7:	12e8           	l32i.n	a14, a2, 4
    36e9:	f297d1        	l32r	a13, 148 (a3d70a <_end+0xa2ef6a>)
    36ec:	02a9           	s32i.n	a10, a2, 0
    36ee:	f29761        	l32r	a6, 14c (2000 <fn_ini_calc_sup_gain+0xa4>)
    36f1:	31ade7        	bge	a13, a14, 3726 <fn_over_subtract+0x152>
    36f4:	1b1a56        	bnez	a10, 38a9 <fn_over_subtract+0x2d5>
    36f7:	0c0c           	movi.n	a12, 0
    36f9:	001546        	j	3752 <fn_over_subtract+0x17e>

000036fc <fn_over_subtract+0x128>:
    36fc:	fd7e65        	call8	ee4 <_saturate32>
    36ff:	31bfa0        	srai	a11, a10, 31
    3702:	ca8b           	addi.n	a12, a10, 8
    3704:	404400        	ssai	4
    3707:	62aca0        	saltu	a10, a12, a10
    370a:	aaba           	add.n	a10, a10, a11
    370c:	02b8           	l32i.n	a11, a2, 0
    370e:	81aac0        	src	a10, a10, a12
    3711:	31dfa0        	srai	a13, a10, 31
    3714:	31cfb0        	srai	a12, a11, 31
    3717:	ccda           	add.n	a12, a12, a13
    3719:	abaa           	add.n	a10, a11, a10
    371b:	62bab0        	saltu	a11, a10, a11
    371e:	bbca           	add.n	a11, a11, a12
    3720:	fd7c25        	call8	ee4 <_saturate32>
    3723:	fff006        	j	36e7 <fn_over_subtract+0x113>

00003726 <fn_over_subtract+0x152>:
    3726:	06cd           	mov.n	a12, a6
    3728:	000986        	j	3752 <fn_over_subtract+0x17e>

0000372b <fn_over_subtract+0x157>:
    372b:	360a34        	ae_cvtq48a32s	aeq0, a10
    372e:	368b34        	ae_cvtq48a32s	aeq2, a11
    3731:	40eae0        	nsa	a14, a10
    3734:	8eed           	ae_sext16	a14, a14
    3736:	fc24feae4f 	{ ae_slaasq56s	aeq1, aeq2, a14; nop }
    373b:	ff04cf1eee 	{ addi	a14, a14, -15; ae_satq48s	aeq3, aeq1 }
    3740:	fc24fe8e8f 	{ ae_slaasq56s	aeq2, aeq0, a14; nop }
    3745:	fd80ff3cef 	{ ae_trunca32q48	a12, aeq3; ae_satq48s	aeq1, aeq2 }
    374a:	369d04        	ae_trunca32q48	a13, aeq1
    374d:	d2ccd0        	quos	a12, a12, a13
    3750:	accd           	ae_clamps16	a12, a12

00003752 <fn_over_subtract+0x17e>:
    3752:	f27fa1        	l32r	a10, 150 (1fff <fn_ini_calc_sup_gain+0xa3>)
    3755:	3652c2        	s16i	a12, a2, 108
    3758:	022ac7        	blt	a10, a12, 375e <fn_over_subtract+0x18a>
    375b:	365262        	s16i	a6, a2, 108

0000375e <fn_over_subtract+0x18a>:
    375e:	0158           	l32i.n	a5, a1, 0
    3760:	070c           	movi.n	a7, 0
    3762:	2239           	s32i.n	a3, a2, 8
    3764:	04d542        	addmi	a4, a5, 0x400
    3767:	c0c442        	addi	a4, a4, -64
    376a:	03d552        	addmi	a5, a5, 0x300
    376d:	80c552        	addi	a5, a5, -128
    3770:	053d           	mov.n	a3, a5

00003772 <fn_over_subtract+0x19e>:
    3772:	03d8           	l32i.n	a13, a3, 0
    3774:	31cf70        	srai	a12, a7, 31
    3777:	404600        	ssai	6
    377a:	31ffd0        	srai	a15, a13, 31
    377d:	20cde2        	addi	a14, a13, 32
    3780:	62ded0        	saltu	a13, a14, a13
    3783:	ddfa           	add.n	a13, a13, a15
    3785:	81dde0        	src	a13, a13, a14
    3788:	a7da           	add.n	a10, a7, a13
    378a:	62ba70        	saltu	a11, a10, a7
    378d:	31dfd0        	srai	a13, a13, 31
    3790:	ccda           	add.n	a12, a12, a13
    3792:	bbca           	add.n	a11, a11, a12
    3794:	fd74e5        	call8	ee4 <_saturate32>
    3797:	0a7d           	mov.n	a7, a10
    3799:	334b           	addi.n	a3, a3, 4
    379b:	d39347        	bne	a3, a4, 3772 <fn_over_subtract+0x19e>
    379e:	0138           	l32i.n	a3, a1, 0
    37a0:	040c           	movi.n	a4, 0
    37a2:	01d332        	addmi	a3, a3, 0x100
    37a5:	40c332        	addi	a3, a3, 64

000037a8 <fn_over_subtract+0x1d4>:
    37a8:	03d8           	l32i.n	a13, a3, 0
    37aa:	31cf40        	srai	a12, a4, 31
    37ad:	404600        	ssai	6
    37b0:	31ffd0        	srai	a15, a13, 31
    37b3:	20cde2        	addi	a14, a13, 32
    37b6:	62ded0        	saltu	a13, a14, a13
    37b9:	ddfa           	add.n	a13, a13, a15
    37bb:	81dde0        	src	a13, a13, a14
    37be:	a4da           	add.n	a10, a4, a13
    37c0:	62ba40        	saltu	a11, a10, a4
    37c3:	31dfd0        	srai	a13, a13, 31
    37c6:	ccda           	add.n	a12, a12, a13
    37c8:	bbca           	add.n	a11, a11, a12
    37ca:	fd71a5        	call8	ee4 <_saturate32>
    37cd:	0a4d           	mov.n	a4, a10
    37cf:	334b           	addi.n	a3, a3, 4
    37d1:	d39357        	bne	a3, a5, 37a8 <fn_over_subtract+0x1d4>
    37d4:	31df40        	srai	a13, a4, 31
    37d7:	31bf70        	srai	a11, a7, 31
    37da:	c0a7a0        	sub	a10, a7, a10
    37dd:	62c7a0        	saltu	a12, a7, a10
    37e0:	c0bbd0        	sub	a11, a11, a13
    37e3:	c0bbc0        	sub	a11, a11, a12
    37e6:	fd6fe5        	call8	ee4 <_saturate32>
    37e9:	4138           	l32i.n	a3, a1, 16
    37eb:	5158           	l32i.n	a5, a1, 20
    37ed:	f258b1        	l32r	a11, 150 (1fff <fn_ini_calc_sup_gain+0xa3>)
    37f0:	f259f1        	l32r	a15, 154 (2800000 <_end+0x27f1860>)
    37f3:	0e0c           	movi.n	a14, 0
    37f5:	0a7d           	mov.n	a7, a10
    37f7:	72faf0        	salt	a15, a10, a15
    37fa:	937ef0        	movnez	a7, a14, a15
    37fd:	34cc           	bnez.n	a4, 3804 <fn_over_subtract+0x230>
    37ff:	0c0c           	movi.n	a12, 0
    3801:	000fc6        	j	3844 <fn_over_subtract+0x270>

00003804 <fn_over_subtract+0x230>:
    3804:	404200        	ssai	2
    3807:	31df70        	srai	a13, a7, 31
    380a:	c72b           	addi.n	a12, a7, 2
    380c:	62ac70        	saltu	a10, a12, a7
    380f:	aada           	add.n	a10, a10, a13
    3811:	81aac0        	src	a10, a10, a12
    3814:	052a47        	blt	a10, a4, 381d <fn_over_subtract+0x249>
    3817:	f211c1        	l32r	a12, 5c (7fff <xtensa_fft8_32b+0x27>)
    381a:	000986        	j	3844 <fn_over_subtract+0x270>

0000381d <fn_over_subtract+0x249>:
    381d:	368434        	ae_cvtq48a32s	aeq2, a4
    3820:	360a34        	ae_cvtq48a32s	aeq0, a10
    3823:	40e4e0        	nsa	a14, a4
    3826:	8eed           	ae_sext16	a14, a14
    3828:	fc24fe8ecf 	{ ae_slaasq56s	aeq3, aeq0, a14; nop }
    382d:	fd84cf1eee 	{ addi	a14, a14, -15; ae_satq48s	aeq1, aeq3 }
    3832:	fc24feae0f 	{ ae_slaasq56s	aeq0, aeq2, a14; nop }
    3837:	ff00ff1cef 	{ ae_trunca32q48	a12, aeq1; ae_satq48s	aeq3, aeq0 }
    383c:	36bd04        	ae_trunca32q48	a13, aeq3
    383f:	d2ccd0        	quos	a12, a12, a13
    3842:	accd           	ae_clamps16	a12, a12
    3844:	3752c2        	s16i	a12, a2, 110
    3847:	052bc7        	blt	a11, a12, 3850 <fn_over_subtract+0x27c>
    384a:	375262        	s16i	a6, a2, 110
    384d:	f23fc1        	l32r	a12, 14c (2000 <fn_ini_calc_sup_gain+0xa4>)

00003850 <fn_over_subtract+0x27c>:
    3850:	3692b2        	l16si	a11, a2, 108
    3853:	3892a2        	l16si	a10, a2, 112
    3856:	53bbc0        	max	a11, a11, a12
    3859:	8bbd           	ae_sext16	a11, a11
    385b:	1aaba7        	bge	a11, a10, 3879 <fn_over_subtract+0x2a5>
    385e:	c0aba0        	sub	a10, a11, a10
    3861:	fd6665        	call8	ec8 <_saturate16>
    3864:	ba8b           	addi.n	a11, a10, 8
    3866:	3892a2        	l16si	a10, a2, 112
    3869:	21b4b0        	srai	a11, a11, 4
    386c:	8bbd           	ae_sext16	a11, a11
    386e:	aaba           	add.n	a10, a10, a11
    3870:	fd6565        	call8	ec8 <_saturate16>
    3873:	3852a2        	s16i	a10, a2, 112
    3876:	000106        	j	387e <fn_over_subtract+0x2aa>

00003879 <fn_over_subtract+0x2a5>:
    3879:	0bad           	mov.n	a10, a11
    387b:	3852b2        	s16i	a11, a2, 112

0000387e <fn_over_subtract+0x2aa>:
    387e:	300aa4        	ae_cvtp24a16x2.ll	aep0, a10, a10
    3881:	00a1c2        	movi	a12, 0x100
    3884:	a0a350        	addx4	a10, a3, a5
    3887:	601a04        	ae_lq32f.iu	aeq0, a10, 0
    388a:	192c37        	blt	a12, a3, 38a7 <fn_over_subtract+0x2d3>
    388d:	01a1d2        	movi	a13, 0x101
    3890:	c0dd30        	sub	a13, a13, a3
    3893:	f03d           	nop.n
    3895:	0ead76        	loopgtz	a13, 38a7 <fn_over_subtract+0x2d3>
    3898:	038214        	ae_mulfq32sp16s.l	aeq2, aeq0, aep0
    389b:	35a094        	ae_slliq56	aeq2, aeq2, 2
    389e:	066934        	ae_roundsq32asym	aeq1, aeq2
    38a1:	625a04        	ae_sq32f.iu	aeq1, a10, 0
    38a4:	601a14        	ae_lq32f.iu	aeq0, a10, 4

000038a7 <fn_over_subtract+0x2d3>:
    38a7:	f01d           	retw.n

000038a9 <fn_over_subtract+0x2d5>:
    38a9:	404200        	ssai	2
    38ac:	c32b           	addi.n	a12, a3, 2
    38ae:	62bc30        	saltu	a11, a12, a3
    38b1:	bb7a           	add.n	a11, a11, a7
    38b3:	81bbc0        	src	a11, a11, a12
    38b6:	02aba7        	bge	a11, a10, 38bc <fn_over_subtract+0x2e8>
    38b9:	ff9b86        	j	372b <fn_over_subtract+0x157>
    38bc:	f1e8c1        	l32r	a12, 5c (7fff <xtensa_fft8_32b+0x27>)
    38bf:	ffa3c6        	j	3752 <fn_over_subtract+0x17e>

000038c2 <fn_over_subtract+0x2ee>:
	...

000038c4 <fn_ini_noise_cancellation>:
    38c4:	004136        	entry	a1, 32
    38c7:	02ad           	mov.n	a10, a2
    38c9:	f20181        	l32r	a8, d0 (8820 <xt_memset>)
    38cc:	0b0c           	movi.n	a11, 0
    38ce:	f222c1        	l32r	a12, 158 (98c <RX_ECNR_PARA_init>)
    38d1:	0008e0        	callx8	a8
    38d4:	12d292        	addmi	a9, a2, 0x1200
    38d7:	875942        	s16i	a4, a9, 0x10e
    38da:	426932        	s32i	a3, a9, 0x108
    38dd:	885952        	s16i	a5, a9, 0x110
    38e0:	f01d           	retw.n

000038e2 <fn_ini_noise_cancellation+0x1e>:
	...

000038e4 <dot_prod_q31>:
    38e4:	004136        	entry	a1, 32
    38e7:	03d8           	l32i.n	a13, a3, 0
    38e9:	02b8           	l32i.n	a11, a2, 0
    38eb:	404f10        	ssai	31
    38ee:	21d8d0        	srai	a13, a13, 8
    38f1:	21b8b0        	srai	a11, a11, 8
    38f4:	82cbd0        	mull	a12, a11, a13
    38f7:	b2bbd0        	mulsh	a11, a11, a13
    38fa:	11acf0        	slli	a10, a12, 1
    38fd:	81bbc0        	src	a11, a11, a12
    3900:	2924a6        	blti	a4, 2, 392d <dot_prod_q31+0x49>
    3903:	924b           	addi.n	a9, a2, 4
    3905:	e40b           	addi.n	a14, a4, -1
    3907:	22ae76        	loopgtz	a14, 392d <dot_prod_q31+0x49>
    390a:	09c8           	l32i.n	a12, a9, 0
    390c:	13d8           	l32i.n	a13, a3, 4
    390e:	334b           	addi.n	a3, a3, 4
    3910:	994b           	addi.n	a9, a9, 4
    3912:	21d8d0        	srai	a13, a13, 8
    3915:	21c8c0        	srai	a12, a12, 8
    3918:	82ecd0        	mull	a14, a12, a13
    391b:	b2ccd0        	mulsh	a12, a12, a13
    391e:	90dea0        	addx2	a13, a14, a10
    3921:	62fda0        	saltu	a15, a13, a10
    3924:	81cce0        	src	a12, a12, a14
    3927:	0dad           	mov.n	a10, a13
    3929:	bbca           	add.n	a11, a11, a12
    392b:	bfba           	add.n	a11, a15, a11

0000392d <dot_prod_q31+0x49>:
    392d:	f1d2c1        	l32r	a12, 78 (8000 <xtensa_fft8_32b+0x28>)
    3930:	404010        	ssai	16
    3933:	caca           	add.n	a12, a10, a12
    3935:	62dca0        	saltu	a13, a12, a10
    3938:	bdba           	add.n	a11, a13, a11
    393a:	81abc0        	src	a10, a11, a12
    393d:	31b0b0        	srai	a11, a11, 16
    3940:	fd5a25        	call8	ee4 <_saturate32>
    3943:	0a2d           	mov.n	a2, a10
    3945:	f01d           	retw.n

00003947 <dot_prod_q31+0x63>:
	...

00003948 <fn_noise_cancellation>:
    3948:	010136        	entry	a1, 128
    394b:	0c0c           	movi.n	a12, 0
    394d:	2b0c           	movi.n	a11, 2
    394f:	5159           	s32i.n	a5, a1, 20
    3951:	126122        	s32i	a2, a1, 72
    3954:	116142        	s32i	a4, a1, 68
    3957:	052d           	mov.n	a2, a5
    3959:	122142        	l32i	a4, a1, 72
    395c:	035d           	mov.n	a5, a3
    395e:	409504        	ae_lp16f.iu	aep1, a5, 0
    3961:	561174        	ae_sp24x2s.i	aep1, a1, 56
    3964:	2159           	s32i.n	a5, a1, 8
    3966:	04dd           	mov.n	a13, a4
    3968:	112152        	l32i	a5, a1, 68
    396b:	08d472        	addmi	a7, a4, 0x800
    396e:	12d482        	addmi	a8, a4, 0x1200
    3971:	28c4e2        	addi	a14, a4, 40
    3974:	f48b           	addi.n	a15, a4, 8
    3976:	61f9           	s32i.n	a15, a1, 24
    3978:	71e9           	s32i.n	a14, a1, 28
    397a:	10c882        	addi	a8, a8, 16
    397d:	c4c772        	addi	a7, a7, -60
    3980:	a179           	s32i.n	a7, a1, 40
    3982:	9189           	s32i.n	a8, a1, 36
    3984:	f1f6e1        	l32r	a14, 15c (e740 <nc_biquad_coef>)
    3987:	f0a082        	movi	a8, 240
    398a:	408504        	ae_lp16f.iu	aep0, a5, 0
    398d:	560164        	ae_sp24x2s.i	aep0, a1, 48
    3990:	b189           	s32i.n	a8, a1, 44

00003992 <fn_noise_cancellation+0x4a>:
    3992:	540164        	ae_lp24x2.i	aep0, a1, 48
    3995:	2198           	l32i.n	a9, a1, 8
    3997:	61f8           	l32i.n	a15, a1, 24
    3999:	541174        	ae_lp24x2.i	aep1, a1, 56
    399c:	fd2c2c991f 	{ ae_lp16f.iu	aep1, a9, 2; ae_cvtq48p24s.l	aeq1, aep1 }
    39a1:	2199           	s32i.n	a9, a1, 8
    39a3:	561174        	ae_sp24x2s.i	aep1, a1, 56
    39a6:	4eab76        	loopgtz	a11, 39f8 <fn_noise_cancellation+0xb0>
    39a9:	369604        	ae_trunca32q48	a6, aeq1
    39ac:	78c1b2        	addi	a11, a1, 120
    39af:	0f3d           	mov.n	a3, a15
    39b1:	0e8d           	mov.n	a8, a14
    39b3:	10cff2        	addi	a15, a15, 16
    39b6:	18cee2        	addi	a14, a14, 24
    39b9:	609304        	ae_lq32f.iu	aeq2, a3, 0
    39bc:	5cd804        	ae_lp24x2f.iu	aep5, a8, 0
    39bf:	5cc814        	ae_lp24x2f.iu	aep4, a8, 8
    39c2:	60d314        	ae_lq32f.iu	aeq3, a3, 4
    39c5:	633bb4        	ae_sq56s.i	aeq3, a11, -40
    39c8:	5cb814        	ae_lp24x2f.iu	aep3, a8, 8
    39cb:	f815702d8e 	{ l32i	a8, a13, 8; ae_mulfq32sp24s.h	aeq1, aeq1, aep5 }
    39d0:	f6d6fd8bbf 	{ ae_lq56.i	aeq0, a11, -40; ae_mulafq32sp24s.l	aeq1, aeq2, aep5 }
    39d5:	f452fd731f 	{ ae_lq32f.iu	aeq3, a3, 4; ae_mulafq32sp24s.h	aeq1, aeq0, aep4 }
    39da:	f6d3fd531f 	{ ae_lq32f.iu	aeq2, a3, 4; ae_mulafq32sp24s.l	aeq1, aeq3, aep4 }
    39df:	f6d3f04d3e 	{ l32i	a3, a13, 16; ae_mulafq32sp24s.l	aeq1, aeq3, aep4 }
    39e4:	f64ed45d3f 	{ s32i.n	a3, a13, 20; ae_mulafq32sp24s.h	aeq1, aeq2, aep3 }
    39e9:	3d89           	s32i.n	a8, a13, 12
    39eb:	fd2c542d6f 	{ s32i.n	a6, a13, 8; ae_roundsq32asym	aeq1, aeq1 }
    39f0:	369604        	ae_trunca32q48	a6, aeq1
    39f3:	4d69           	s32i.n	a6, a13, 16
    39f5:	10cdd2        	addi	a13, a13, 16

000039f8 <fn_noise_cancellation+0xb0>:
    39f8:	71f8           	l32i.n	a15, a1, 28
    39fa:	04dd           	mov.n	a13, a4
    39fc:	f1d8e1        	l32r	a14, 15c (e740 <nc_biquad_coef>)
    39ff:	1061c2        	s32i	a12, a1, 64
    3a02:	280c           	movi.n	a8, 2
    3a04:	0769           	s32i.n	a6, a7, 0

00003a06 <fn_noise_cancellation+0xbe>:
    3a06:	fd0c2c851f 	{ ae_lp16f.iu	aep0, a5, 2; ae_cvtq48p24s.l	aeq1, aep0 }
    3a0b:	560164        	ae_sp24x2s.i	aep0, a1, 48
    3a0e:	4da876        	loopgtz	a8, 3a5f <fn_noise_cancellation+0x117>
