
Build/lib/pisplit_ecnr_position_independent.splitload.lib:     file format elf32-xtensa-le


Disassembly of section .text:

00000000 <_init-0x6b0>:
       0:	00000704 00009208 0000be10 0000b4a4     ................
      10:	00000000 0000b48c 00000000 0000be14     ................
      20:	0000be2c 0000a1c0 00002b50 0000a1dc     ,.......P+......
      30:	00002c68 0000a1f4 0000349c 0000a20c     h,.......4......
      40:	00003f24 0000a228 0000621c 0000a23c     $?..(....b..<...
      50:	00003e74 0000a254 00005f30 0000a268     t>..T...0_..h...
      60:	00003ecc 0000a280 00003f94 0000a2a0     .>.......?......
      70:	00005a84 0000a2bc 00009038 0000a2cc     .Z......8.......
      80:	00002b58 0000a2e8 00003fe8 0000a30c     X+.......?......
      90:	00002b48 0000b4b0 0000bb75 00001930     H+......u...0...
      a0:	000008b8 0000be30 89442379 0000b880     ....0...y#D.....
      b0:	0000b580 7fffffff 0000b5f0 80000000     ................
      c0:	00008000 00009228 0000be38 00009240     ....(...8...@...
      d0:	000a0000 dacccccd 00000960 00009290     ........`.......
      e0:	fc000000 c1600000 00009174 00b33333     ......`.t...33..
      f0:	ff4ccccd 00800000 00009054 7fff0000     ..L.....T.......
     100:	7e1401ec 7fe70019 000043d4 0000b860     ...~.....C..`...
     110:	00004000 00005b33 00000a48 33334ccd     .@..3[..H....L33
     120:	00147ae1 00000900 00002168 00010000     .z......h!......
     130:	00078000 002ccccd 00466666 00533333     ......,.ffF.33S.
     140:	005851ec 005ae148 005ccccd 00600000     .QX.H.Z...\...`.
     150:	fffe0000 0000828f 00030000 00020000     ................
     160:	0000c148 004ccccd 006ccccd 0059999a     H.....L...l...Y.
     170:	0070a3d7 00733333 00003fff 00000fb8     ..p.33s..?......
     180:	0039999a 005d70a4 00014000 00666666     ..9..p]..@..fff.
     190:	007e147b 00100000 007fbe77 000ccccd     {.~.....w.......
     1a0:	00005514 000054d0 00001418 000aaaab     .U...T..........
     1b0:	000092c8 000054f8 0000091c 05000000     .....T..........
     1c0:	00002078 0c000000 01000000 00435e51     x ..........Q^C.
     1d0:	0099999a 00cccccd 0159999a 13ffffff     ..........Y.....
     1e0:	02000000 0a8f5c28 2eb851ec 1f000000     ....(\...Q......
     1f0:	0bffffff 005a8200 c28f0000 cccd0000     ......Z.........
     200:	00400000 0ccd0000 e6660000 f3330000     ..@.......f...3.
     210:	199a0000 33330000 3d710000 0000fff7     ......33..q=....
     220:	00002440 00002428 00001928 00007fff     @$..($..(.......
     230:	00200000 002aaa00 0000b4f0 0000b4f4     .. ...*.........
     240:	00080000 000081c0 000080b8 000024b8     .............$..
     250:	00002514 0000b508 00002598 00007100     .%.......%...q..
     260:	00008f54 00002bd4 00001834 00002b80     T....+..4....+..
     270:	00002b94 0000223c 00005fc4 00002ba8     .+..<"..._...+..
     280:	0000be34 00002000 000040e8 0000595c     4.... ...@..\Y..
     290:	00002c44 0000b70c 0000b700 0000b520     D,.......... ...
     2a0:	0000b71c 0000b75c 0000b7a0 0000b720     ....\....... ...
     2b0:	00001a24 00001a26 00001a28 00001a2a     $...&...(...*...
     2c0:	007fffff 00011111 00004d10 00006f70     .........M..po..
     2d0:	000033c8 00002df0 00002f4c 00002e6c     .3...-..L/..l...
     2e0:	00002fc8 000030fc 00003160 0000264c     ./...0..`1..L&..
     2f0:	00002884 0000317c 00003074 00002edc     .(..|1..t0......
     300:	000044ac 0000475c 00003288 00004a20     .D..\G...2.. J..
     310:	000048d0 00004e00 0000339c 00004f74     .H...N...3..tO..
     320:	00002c08 00005304 00005474 0000329c     .,...S..tT...2..
     330:	00004ca0 00002b04 000023f0 00006004     .L...+...#...`..
     340:	00003324 00001830 000032b8 00002f90     $3..0....2.../..
     350:	00007020 0000625c 00003e60 00005f74      p..\b..`>..t_..
     360:	10000000 00001000 00004080 0000b50c     .........@......
     370:	40000000 0e390000 3eb80000 18000000     ...@..9....>....
     380:	0d330000 00006000 00001770 00004090     ..3..`..p....@..
     390:	000040d4 000040ac 00006398 ffff8000     .@...@...c......
     3a0:	000ccccc 00393e4b 00155555 00175e97     ....K>9.UU...^..
     3b0:	00003ff8 0000489c 00004450 000043f4     .?...H..PD...C..
     3c0:	3fff0000 c0010000 0000b528 0000b518     ...?....(.......
     3d0:	00006ccd 0000b51c 00007efa 00000fff     .l.......~......
     3e0:	0000b510 00007e00 00004666 00003b00     .....~..fF...;..
     3f0:	00004a3d 000043d7 00007fae 00000800     =J...C..........
     400:	000055aa 00007080 000057d4 00007070     .U...p...W..pp..
     410:	00005a5a 00005894 00003f24 00007f80     ZZ...X..$?......
     420:	0000a4a0 0000a320 0000a6b0 0000a900     .... ...........
     430:	0000a740 0000ab10 0000ab60 0000ad40     @.......`...@...
     440:	0000af50 007fff00 00000a88 00005b64     P...........d[..
     450:	00005b28 00005b54 0000b8c0 00005b74     ([..T[......t[..
     460:	0000bae0 ffffb800 b8000000 00000970     ............p...
     470:	00008fdc 00005cd0 0000705c 00001a38     .....\..\p..8...
     480:	000071f0 00001a90 000073b0 000074dc     .q.......s...t..
     490:	00007814 00007934 00007c14 000007d8     .x..4y...|......
     4a0:	00007ef8 0000bd00 00006088 000062ac     .~.......`...b..
     4b0:	00038e39 00035e51 0000b082 00008978     9...Q^......x...
     4c0:	7f5c00a4 7ff00010 00008c28 20000000     ..\.....(...... 
     4d0:	04000000 0000b782 00007c28 00007998     ........(|...y..
     4e0:	0000e666 000071c8 0000b872 1b333333     f....q..r...333.
     4f0:	2666599a 46666666 007ccccd 1e666666     .Yf&fffF..|.fff.
     500:	30000000 7ccd0333 00007000 23333333     ...03..|.p..333#
     510:	40004000 7eb80148 00333333 6666199a     .@.@H..~333...ff
     520:	1ccccccd 00005000 599a2666 00266666     .....P..f&.Yff&.
     530:	00001999 00003333 7fbe0042 7f1b00e5     ....33..B.......
     540:	00006300 6ccd1333 5999999a 799a0666     .c..3..l...Yf..y
     550:	00500000 034ccccd fe800000 003fffff     ..P...L.......?.
     560:	ffa66666 50000000 0000b780 ff800000     ff.....P........
     570:	01eb851f 0059999b 04cccccd 0000228e     ......Y......"..
     580:	00000999 0000b560 00480000 0000e000     ....`.....H.....
     590:	00007666 000064d4 00007638 75c30a3d     fv...d..8v..=..u
     5a0:	00006350 0000b084 0000b088 0000b8b0     Pc..............
     5b0:	0000b56c 0000b568 000e38e4 0000b8a0     l...h....8......
     5c0:	00124925 00000a98 00000fa8 000079e8     %I...........y..
     5d0:	00007a04 00007afc 80000001 00005a82     .z...z.......Z..
     5e0:	000083e4 0000af7c 00008258 000081e0     ....|...X.......
     5f0:	00008410 000085f4 00008620 00008650     ........ ...P...
     600:	000086a8 0000867c 0000af80 0000871c     ....|...........
     610:	000086f0 00008944 000088d0 003eb852     ....D.......R.>.
     620:	00333334 00266667 0019999a 0000599a     433.gf&......Y..
     630:	ffc147ae ffcccccc ffd99999 ffe66666     .G..........ff..
     640:	fff33333 ffe00000 ffc00000 06400000     33............@.
     650:	016db22c 00028f5d 0effffff 077fffff     ,.m.]...........
     660:	0021eb86 11000000 15000000 00666667     ..!.........gff.
     670:	cb333333 00008c10 fb333333 f4000000     333.....333.....
     680:	04cccccc 00008a20 13000000 00008ad8     .... ...........
     690:	00008b50 0399999a 02999999 00008ee8     P...............
     6a0:	7ff00000 0000b294 0000b490 000006c8     ................

000006b0 <_init>:
     6b0:	008136        	entry	a1, 64
     6b3:	fe5381        	l32r	a8, 0 (704 <frame_dummy>)
     6b6:	f03d           	nop.n
     6b8:	0008e0        	callx8	a8
     6bb:	fe5281        	l32r	a8, 4 (9208 <__do_global_ctors_aux>)
     6be:	f03d           	nop.n
     6c0:	0008e0        	callx8	a8
     6c3:	f01d           	retw.n

000006c5 <_init+0x15>:
     6c5:	000000                                        ...

000006c8 <__do_global_dtors_aux>:
     6c8:	004136        	entry	a1, 32
     6cb:	fe4f31        	l32r	a3, 8 (be10 <__bss_start>)
     6ce:	000382        	l8ui	a8, a3, 0
     6d1:	d8ec           	bnez.n	a8, 702 <__do_global_dtors_aux+0x3a>
     6d3:	fe4e21        	l32r	a2, c (b4a4 <p$3519_6_1>)
     6d6:	02b8           	l32i.n	a11, a2, 0
     6d8:	0ba8           	l32i.n	a10, a11, 0
     6da:	ca8c           	beqz.n	a10, 6ea <__do_global_dtors_aux+0x22>

000006dc <__do_global_dtors_aux+0x14>:
     6dc:	9b4b           	addi.n	a9, a11, 4
     6de:	0299           	s32i.n	a9, a2, 0
     6e0:	000ae0        	callx8	a10
     6e3:	02b8           	l32i.n	a11, a2, 0
     6e5:	0ba8           	l32i.n	a10, a11, 0
     6e7:	ff1a56        	bnez	a10, 6dc <__do_global_dtors_aux+0x14>

000006ea <__do_global_dtors_aux+0x22>:
     6ea:	fe49a1        	l32r	a10, 10 (0 <_text_start>)
     6ed:	0b0c           	movi.n	a11, 0
     6ef:	081ab7        	beq	a10, a11, 6fb <__do_global_dtors_aux+0x33>
     6f2:	fe48a1        	l32r	a10, 14 (b48c <__EH_FRAME_BEGIN___44>)
     6f5:	fe4681        	l32r	a8, 10 (0 <_text_start>)
     6f8:	0008e0        	callx8	a8

000006fb <__do_global_dtors_aux+0x33>:
     6fb:	1c0c           	movi.n	a12, 1
     6fd:	0043c2        	s8i	a12, a3, 0
     700:	f01d           	retw.n

00000702 <__do_global_dtors_aux+0x3a>:
     702:	f01d           	retw.n

00000704 <frame_dummy>:
     704:	004136        	entry	a1, 32
     707:	fe4481        	l32r	a8, 18 (0 <_text_start>)
     70a:	090c           	movi.n	a9, 0
     70c:	0b1897        	beq	a8, a9, 71b <frame_dummy+0x17>
     70f:	fe41a1        	l32r	a10, 14 (b48c <__EH_FRAME_BEGIN___44>)
     712:	fe42b1        	l32r	a11, 1c (be14 <object$3538_8_1>)
     715:	fe4081        	l32r	a8, 18 (0 <_text_start>)
     718:	0008e0        	callx8	a8

0000071b <frame_dummy+0x17>:
     71b:	f01d           	retw.n

0000071d <frame_dummy+0x19>:
     71d:	000000                                        ...

00000720 <_start>:
     720:	004136        	entry	a1, 32
     723:	fe40a1        	l32r	a10, 24 (a1c0 <_DYNAMIC+0xcc0>)
     726:	fe3e31        	l32r	a3, 20 (be2c <printf_ptr>)
     729:	0288           	l32i.n	a8, a2, 0
     72b:	fe3fb1        	l32r	a11, 28 (2b50 <get_aec_nr_memsize>)
     72e:	0389           	s32i.n	a8, a3, 0
     730:	0008e0        	callx8	a8
     733:	0388           	l32i.n	a8, a3, 0
     735:	fe3da1        	l32r	a10, 2c (a1dc <_DYNAMIC+0xcdc>)
     738:	fe3eb1        	l32r	a11, 30 (2c68 <Voice_WB_TX_Init>)
     73b:	0008e0        	callx8	a8
     73e:	0388           	l32i.n	a8, a3, 0
     740:	fe3da1        	l32r	a10, 34 (a1f4 <_DYNAMIC+0xcf4>)
     743:	fe3db1        	l32r	a11, 38 (349c <Voice_WB_TX_Prcs>)
     746:	0008e0        	callx8	a8
     749:	0388           	l32i.n	a8, a3, 0
     74b:	fe3ca1        	l32r	a10, 3c (a20c <_DYNAMIC+0xd0c>)
     74e:	fe3cb1        	l32r	a11, 40 (3f24 <EC_REF_GAIN_READBACK>)
     751:	0008e0        	callx8	a8
     754:	0388           	l32i.n	a8, a3, 0
     756:	fe3ba1        	l32r	a10, 44 (a228 <_DYNAMIC+0xd28>)
     759:	fe3bb1        	l32r	a11, 48 (621c <NB_RX_NR_init>)
     75c:	0008e0        	callx8	a8
     75f:	0388           	l32i.n	a8, a3, 0
     761:	fe3aa1        	l32r	a10, 4c (a23c <_DYNAMIC+0xd3c>)
     764:	fe3bb1        	l32r	a11, 50 (3e74 <Voice_NB_RX_Prcs>)
     767:	0008e0        	callx8	a8
     76a:	0388           	l32i.n	a8, a3, 0
     76c:	fe3aa1        	l32r	a10, 54 (a254 <_DYNAMIC+0xd54>)
     76f:	fe3ab1        	l32r	a11, 58 (5f30 <WB_RX_NR_init>)
     772:	0008e0        	callx8	a8
     775:	0388           	l32i.n	a8, a3, 0
     777:	fe39a1        	l32r	a10, 5c (a268 <_DYNAMIC+0xd68>)
     77a:	fe39b1        	l32r	a11, 60 (3ecc <Voice_WB_RX_Prcs>)
     77d:	0008e0        	callx8	a8
     780:	0388           	l32i.n	a8, a3, 0
     782:	fe38a1        	l32r	a10, 64 (a280 <_DYNAMIC+0xd80>)
     785:	fe38b1        	l32r	a11, 68 (3f94 <EC_PreLim_Coef_READBACK>)
     788:	0008e0        	callx8	a8
     78b:	0388           	l32i.n	a8, a3, 0
     78d:	fe37a1        	l32r	a10, 6c (a2a0 <_DYNAMIC+0xda0>)
     790:	fe38b1        	l32r	a11, 70 (5a84 <AEC_NR_Write_FLASH>)
     793:	0008e0        	callx8	a8
     796:	0388           	l32i.n	a8, a3, 0
     798:	fe37a1        	l32r	a10, 74 (a2bc <_DYNAMIC+0xdbc>)
     79b:	fe37b1        	l32r	a11, 78 (9038 <EQ_update>)
     79e:	0008e0        	callx8	a8
     7a1:	0388           	l32i.n	a8, a3, 0
     7a3:	fe36a1        	l32r	a10, 7c (a2cc <_DYNAMIC+0xdcc>)
     7a6:	fe36b1        	l32r	a11, 80 (2b58 <get_txnr_pitch_last>)
     7a9:	0008e0        	callx8	a8
     7ac:	0388           	l32i.n	a8, a3, 0
     7ae:	fe35a1        	l32r	a10, 84 (a2e8 <_DYNAMIC+0xde8>)
     7b1:	fe35b1        	l32r	a11, 88 (3fe8 <DaulMIC_power_Coef_READBACK>)
     7b4:	0008e0        	callx8	a8
     7b7:	0388           	l32i.n	a8, a3, 0
     7b9:	fe34a1        	l32r	a10, 8c (a30c <_DYNAMIC+0xe0c>)
     7bc:	fe35b1        	l32r	a11, 90 (2b48 <get_ECNR_SVN>)
     7bf:	0008e0        	callx8	a8
     7c2:	fe3421        	l32r	a2, 94 (b4b0 <export_parameter_array>)
     7c5:	f01d           	retw.n

000007c7 <_start+0xa7>:
	...

000007c8 <my_rand>:
     7c8:	004136        	entry	a1, 32
     7cb:	fe3331        	l32r	a3, 98 (bb75 <win_rx_512_v3+0x95>)
     7ce:	d12230        	mul16s	a2, a2, a3
     7d1:	822d           	ae_sext16	a2, a2
     7d3:	f01d           	retw.n

000007d5 <my_rand+0xd>:
     7d5:	000000                                        ...

000007d8 <comfort_noise_gen_wb>:
     7d8:	008136        	entry	a1, 64
     7db:	1129           	s32i.n	a2, a1, 4
     7dd:	fcc3a2        	addi	a10, a3, -4
     7e0:	380c           	movi.n	a8, 3
     7e2:	0bd292        	addmi	a9, a2, 0xb00
     7e5:	fc20a7d99e 	{ l16si	a9, a9, 250; ae_zerop48	aep0 }
     7ea:	02a876        	loopgtz	a8, 7f0 <comfort_noise_gen_wb+0x18>
     7ed:	468a14        	ae_sp16x2f.iu	aep0, a10, 4

000007f0 <comfort_noise_gen_wb+0x18>:
     7f0:	0199           	s32i.n	a9, a1, 0
     7f2:	fe2a71        	l32r	a7, 9c (1930 <Pitch_by_Corel+0x518>)
     7f5:	1188           	l32i.n	a8, a1, 4
     7f7:	030c           	movi.n	a3, 0
     7f9:	5a2b           	addi.n	a5, a10, 2
     7fb:	06d822        	addmi	a2, a8, 0x600
     7fe:	02d842        	addmi	a4, a8, 0x200
     801:	11d862        	addmi	a6, a8, 0x1100
     804:	c4c662        	addi	a6, a6, -60
     807:	74c442        	addi	a4, a4, 116
     80a:	14d882        	addmi	a8, a8, 0x1400
     80d:	4028b2        	l32i	a11, a8, 0x100
     810:	360b34        	ae_cvtq48a32s	aeq0, a11
     813:	f94202c22e 	{ addi	a2, a2, 44; ae_truncp24q48x2	aep2, aeq0, aeq0 }
     818:	f88800888e 	{ addi	a8, a8, 8; ae_mulfq32sp24s.l	aeq0, aeq0, aep2 }
     81d:	2189           	s32i.n	a8, a1, 8
     81f:	f84277212f 	{ ae_sp24x2s.i	aep2, a1, 16; ae_truncp24q48x2	aep1, aeq0, aeq0 }
     824:	561134        	ae_sp24x2s.i	aep1, a1, 24

00000827 <comfort_noise_gen_wb+0x4f>:
     827:	fe1e81        	l32r	a8, a0 (8b8 <HIFI_sqrt>)
     82a:	01a8           	l32i.n	a10, a1, 0
     82c:	7f24b2        	l32i	a11, a4, 0x1fc
     82f:	0008e0        	callx8	a8
     832:	fe1cd1        	l32r	a13, a4 (be30 <p_ecnr_mem>)
     835:	444b           	addi.n	a4, a4, 4
     837:	2198           	l32i.n	a9, a1, 8
     839:	0de8           	l32i.n	a14, a13, 0
     83b:	0bfd           	mov.n	a15, a11
     83d:	fe1ab1        	l32r	a11, a8 (89442379 <_end+0x8943653d>)
     840:	ee7a           	add.n	a14, a14, a7
     842:	7f9ec2        	l16si	a12, a14, 254
     845:	360f34        	ae_cvtq48a32s	aeq0, a15
     848:	819992        	l16si	a9, a9, 0x102
     84b:	82bcb0        	mull	a11, a12, a11
     84e:	7f5eb2        	s16i	a11, a14, 254
     851:	408614        	ae_lp16f.iu	aep0, a6, 2
     854:	1f2397        	blt	a3, a9, 877 <comfort_noise_gen_wb+0x9f>
     857:	11f8           	l32i.n	a15, a1, 4
     859:	350ff2        	l8ui	a15, a15, 53
     85c:	fe1481        	l32r	a8, ac (b880 <wb_sb_ptn>)
     85f:	14a3f7        	bge	a3, a15, 877 <comfort_noise_gen_wb+0x9f>
     862:	089882        	l16si	a8, a8, 16
     865:	543124        	ae_lp24x2.i	aep3, a1, 16
     868:	544134        	ae_lp24x2.i	aep4, a1, 24
     86b:	05a387        	bge	a3, a8, 874 <comfort_noise_gen_wb+0x9c>
     86e:	083524        	ae_mulfq32sp24s.l	aeq0, aeq0, aep3
     871:	000086        	j	877 <comfort_noise_gen_wb+0x9f>

00000874 <comfort_noise_gen_wb+0x9c>:
     874:	084524        	ae_mulfq32sp24s.l	aeq0, aeq0, aep4
     877:	fe0891        	l32r	a9, 98 (bb75 <win_rx_512_v3+0x95>)
     87a:	829c90        	mull	a9, a12, a9
     87d:	3079b4        	ae_cvtp24a16x2.ll	aep7, a9, a11
     880:	037a14        	ae_mulfq32sp16s.l	aeq1, aeq0, aep7
     883:	03fa04        	ae_mulfq32sp16s.h	aeq3, aeq0, aep7
     886:	030a54        	ae_mulfq32sp16s.l	aeq1, aeq1, aep0
     889:	038ad4        	ae_mulfq32sp16s.l	aeq3, aeq3, aep0
     88c:	fc24fe9a8f 	{ ae_slaasq56s	aeq2, aeq1, a10; nop }
     891:	fc24feba4f 	{ ae_slaasq56s	aeq1, aeq3, a10; nop }
     896:	fbf380133e 	{ addi	a3, a3, 1; ae_roundsp16q48sym	aep6, aeq2 }
     89b:	faebf2e51f 	{ ae_sp16f.l.iu	aep6, a5, 2; ae_roundsp16q48sym	aep5, aeq1 }
     8a0:	42d514        	ae_sp16f.l.iu	aep5, a5, 2
     8a3:	809427        	bne	a4, a2, 827 <comfort_noise_gen_wb+0x4f>
     8a6:	fec5a2        	addi	a10, a5, -2
     8a9:	fc20800fbf 	{ movi	a11, 15; ae_zerop48	aep0 }
     8ae:	02ab76        	loopgtz	a11, 8b4 <comfort_noise_gen_wb+0xdc>
     8b1:	468a14        	ae_sp16x2f.iu	aep0, a10, 4

000008b4 <comfort_noise_gen_wb+0xdc>:
     8b4:	f01d           	retw.n

000008b6 <comfort_noise_gen_wb+0xde>:
	...

000008b8 <HIFI_sqrt>:
     8b8:	006136        	entry	a1, 48
     8bb:	035d           	mov.n	a5, a3
     8bd:	030c           	movi.n	a3, 0
     8bf:	1139           	s32i.n	a3, a1, 4
     8c1:	0139           	s32i.n	a3, a1, 0
     8c3:	0715e6        	bgei	a5, 1, 8ce <HIFI_sqrt+0x16>
     8c6:	0139           	s32i.n	a3, a1, 0

000008c8 <HIFI_sqrt+0x10>:
     8c8:	1139           	s32i.n	a3, a1, 4
     8ca:	0128           	l32i.n	a2, a1, 0
     8cc:	f01d           	retw.n

000008ce <HIFI_sqrt+0x16>:
     8ce:	fdf881        	l32r	a8, b0 (b580 <TABLE_SQRT>)
     8d1:	40e5a0        	nsa	a10, a5
     8d4:	c042a0        	sub	a4, a2, a10
     8d7:	401a00        	ssl	a10
     8da:	a19500        	sll	a9, a5
     8dd:	046040        	extui	a6, a4, 0, 1
     8e0:	400600        	ssr	a6
     8e3:	b19090        	sra	a9, a9
     8e6:	419990        	srli	a9, a9, 9
     8e9:	317090        	srai	a7, a9, 16
     8ec:	300994        	ae_cvtp24a16x2.ll	aep0, a9, a9
     8ef:	f0c772        	addi	a7, a7, -16
     8f2:	537730        	max	a7, a7, a3
     8f5:	907780        	addx2	a7, a7, a8
     8f8:	278d           	ae_l16si.n	a8, a7, 0
     8fa:	377d           	ae_l16si.n	a7, a7, 2
     8fc:	346a           	add.n	a3, a4, a6
     8fe:	213130        	srai	a3, a3, 1
     901:	c07780        	sub	a7, a7, a8
     904:	118800        	slli	a8, a8, 16
     907:	117700        	slli	a7, a7, 16
     90a:	364734        	ae_cvtq48a32s	aeq1, a7
     90d:	360834        	ae_cvtq48a32s	aeq0, a8
     910:	030174        	ae_mulaq32sp16u.l	aeq0, aeq1, aep0
     913:	0139           	s32i.n	a3, a1, 0
     915:	368304        	ae_trunca32q48	a3, aeq0
     918:	ffeb06        	j	8c8 <HIFI_sqrt+0x10>

0000091b <HIFI_sqrt+0x63>:
	...

0000091c <Log2_norm>:
     91c:	004136        	entry	a1, 32
     91f:	3212a6        	blti	a2, 1, 955 <Log2_norm+0x39>
     922:	046c           	movi.n	a4, -32
     924:	2da437        	bge	a4, a3, 955 <Log2_norm+0x39>
     927:	052c           	movi.n	a5, 32
     929:	04a537        	bge	a5, a3, 931 <Log2_norm+0x15>
     92c:	fde221        	l32r	a2, b4 (7fffffff <_end+0x7fff41c3>)
     92f:	f01d           	retw.n

00000931 <Log2_norm+0x15>:
     931:	fde141        	l32r	a4, b8 (b5f0 <TABLE_LOG2_1530>)
     934:	558820        	extui	a8, a2, 24, 6
     937:	1188e0        	slli	a8, a8, 2
     93a:	603484        	ae_lq32f.xu	aeq0, a4, a8
     93d:	604414        	ae_lq32f.i	aeq1, a4, 4
     940:	f92ae2022f 	{ ae_movpa24x2	aep0, a2, a2; ae_subq56	aeq1, aeq1, aeq0 }
     945:	030174        	ae_mulaq32sp16u.l	aeq0, aeq1, aep0
     948:	368204        	ae_trunca32q48	a2, aeq0
     94b:	014360        	slli	a4, a3, 26
     94e:	212520        	srai	a2, a2, 5
     951:	224a           	add.n	a2, a2, a4
     953:	f01d           	retw.n

00000955 <Log2_norm+0x39>:
     955:	fdd921        	l32r	a2, bc (80000000 <_end+0x7fff41c4>)
     958:	f01d           	retw.n

0000095a <Log2_norm+0x3e>:
     95a:	00000000 41360000                                ......

00000960 <COMPL_S16x2_fun>:
     960:	004136        	entry	a1, 32
     963:	fdd731        	l32r	a3, c0 (8000 <ifft_wo+0x108>)
     966:	c03320        	sub	a3, a3, a2
     969:	113300        	slli	a3, a3, 16
     96c:	223a           	add.n	a2, a2, a3
     96e:	f01d           	retw.n

00000970 <PD_INIT>:
     970:	004136        	entry	a1, 32
     973:	fdcc41        	l32r	a4, a4 (be30 <p_ecnr_mem>)
     976:	0b0c           	movi.n	a11, 0
     978:	0438           	l32i.n	a3, a4, 0
     97a:	f0a2c2        	movi	a12, 0x2f0
     97d:	fdd181        	l32r	a8, c4 (9228 <xt_memset>)
     980:	55d332        	addmi	a3, a3, 0x5500
     983:	d0c332        	addi	a3, a3, -48
     986:	03ad           	mov.n	a10, a3
     988:	0008e0        	callx8	a8
     98b:	fdcf51        	l32r	a5, c8 (be38 <aec_nr_para>)
     98e:	03ad           	mov.n	a10, a3
     990:	05b8           	l32i.n	a11, a5, 0
     992:	7c0c           	movi.n	a12, 7
     994:	fdce81        	l32r	a8, cc (9240 <xt_memcpy>)
     997:	01dbb2        	addmi	a11, a11, 0x100
     99a:	a4cbb2        	addi	a11, a11, -92
     99d:	0008e0        	callx8	a8
     9a0:	fdcc81        	l32r	a8, d0 (a0000 <_end+0x941c4>)
     9a3:	03d3c2        	addmi	a12, a3, 0x300
     9a6:	0578           	l32i.n	a7, a5, 0
     9a8:	05d3f2        	addmi	a15, a3, 0x500
     9ab:	01d3b2        	addmi	a11, a3, 0x100
     9ae:	02d392        	addmi	a9, a3, 0x200
     9b1:	58c992        	addi	a9, a9, 88
     9b4:	38cba2        	addi	a10, a11, 56
     9b7:	ff8b           	addi.n	a15, a15, 8
     9b9:	58cbb2        	addi	a11, a11, 88
     9bc:	c79752        	l16si	a5, a7, 0x18e
     9bf:	c89762        	l16si	a6, a7, 0x190
     9c2:	085362        	s16i	a6, a3, 16
     9c5:	075352        	s16i	a5, a3, 14
     9c8:	160c           	movi.n	a6, 1
     9ca:	04d352        	addmi	a5, a3, 0x400
     9cd:	f26af2        	s32i	a15, a10, 0x3c8
     9d0:	a8c5d2        	addi	a13, a5, -88
     9d3:	50c5e2        	addi	a14, a5, 80
     9d6:	f46a92        	s32i	a9, a10, 0x3d0
     9d9:	f56ac2        	s32i	a12, a10, 0x3d4
     9dc:	0b9d           	mov.n	a9, a11
     9de:	8c2c           	movi.n	a12, 40
     9e0:	f76ae2        	s32i	a14, a10, 0x3dc
     9e3:	f66ad2        	s32i	a13, a10, 0x3d8
     9e6:	956382        	s32i	a8, a3, 0x254
     9e9:	556382        	s32i	a8, a3, 0x154
     9ec:	fdb2a1        	l32r	a10, b4 (7fffffff <_end+0x7fff41c3>)
     9ef:	8c5562        	s16i	a6, a5, 0x118
     9f2:	68c552        	addi	a5, a5, 104
     9f5:	02ac76        	loopgtz	a12, 9fb <PD_INIT+0x8b>
     9f8:	09e9a4        	ae_s32ip	a10, a9, 4

000009fb <PD_INIT+0x8b>:
     9fb:	3c0c           	movi.n	a12, 3
     9fd:	fdb381        	l32r	a8, cc (9240 <xt_memcpy>)
     a00:	779792        	l16si	a9, a7, 238
     a03:	7697d2        	l16si	a13, a7, 236
     a06:	060c           	movi.n	a6, 0
     a08:	04f8           	l32i.n	a15, a4, 0
     a0a:	2765b2        	s32i	a11, a5, 156
     a0d:	06d3a2        	addmi	a10, a3, 0x600
     a10:	d0caa2        	addi	a10, a10, -48
     a13:	01d7b2        	addmi	a11, a7, 0x100
     a16:	f2cbb2        	addi	a11, a11, -14
     a19:	29dfe2        	addmi	a14, a15, 0x2900
     a1c:	b8cee2        	addi	a14, a14, -72
     a1f:	19dff2        	addmi	a15, a15, 0x1900
     a22:	9a5f62        	s16i	a6, a15, 0x134
     a25:	596f22        	s32i	a2, a15, 0x164
     a28:	5a6fe2        	s32i	a14, a15, 0x168
     a2b:	b055d2        	s16i	a13, a5, 0x160
     a2e:	b15592        	s16i	a9, a5, 0x162
     a31:	0008e0        	callx8	a8
     a34:	0cd282        	addmi	a8, a2, 0xc00
     a37:	08d292        	addmi	a9, a2, 0x800
     a3a:	566592        	s32i	a9, a5, 0x158
     a3d:	b8c882        	addi	a8, a8, -72
     a40:	556582        	s32i	a8, a5, 0x154
     a43:	f01d           	retw.n

00000a45 <PD_INIT+0xd5>:
     a45:	000000                                        ...

00000a48 <wind_noise_alpha>:
     a48:	004136        	entry	a1, 32
     a4b:	fd9d81        	l32r	a8, c0 (8000 <ifft_wo+0x108>)
     a4e:	949d           	ae_zext16	a9, a4
     a50:	957d           	ae_zext16	a7, a5
     a52:	827670        	mull	a7, a6, a7
     a55:	829690        	mull	a9, a6, a9
     a58:	f47e70        	extui	a7, a7, 14, 16
     a5b:	f49e90        	extui	a9, a9, 14, 16
     a5e:	c0a890        	sub	a10, a8, a9
     a61:	11aa00        	slli	a10, a10, 16
     a64:	c08870        	sub	a8, a8, a7
     a67:	118800        	slli	a8, a8, 16
     a6a:	59aa           	add.n	a5, a9, a10
     a6c:	678a           	add.n	a6, a7, a8
     a6e:	982c           	movi.n	a8, 41
     a70:	0c13a6        	blti	a3, 1, a80 <wind_noise_alpha+0x38>
     a73:	024d           	mov.n	a4, a2
     a75:	02a376        	loopgtz	a3, a7b <wind_noise_alpha+0x33>
     a78:	09e454        	ae_s32ip	a5, a4, 4

00000a7b <wind_noise_alpha+0x33>:
     a7b:	0000c6        	j	a82 <wind_noise_alpha+0x3a>

00000a7e <wind_noise_alpha+0x36>:
	...

00000a80 <wind_noise_alpha+0x38>:
     a80:	030c           	movi.n	a3, 0

00000a82 <wind_noise_alpha+0x3a>:
     a82:	0d2837        	blt	a8, a3, a93 <wind_noise_alpha+0x4b>
     a85:	a04320        	addx4	a4, a3, a2
     a88:	a92c           	movi.n	a9, 42
     a8a:	c09930        	sub	a9, a9, a3
     a8d:	02a976        	loopgtz	a9, a93 <wind_noise_alpha+0x4b>
     a90:	09e464        	ae_s32ip	a6, a4, 4

00000a93 <wind_noise_alpha+0x4b>:
     a93:	f01d           	retw.n

00000a95 <wind_noise_alpha+0x4d>:
     a95:	000000                                        ...

00000a98 <PD_Noise_Est>:
     a98:	00a136        	entry	a1, 80
     a9b:	9129           	s32i.n	a2, a1, 36
     a9d:	380c           	movi.n	a8, 3
     a9f:	fd81b1        	l32r	a11, a4 (be30 <p_ecnr_mem>)
     aa2:	14d272        	addmi	a7, a2, 0x1400
     aa5:	3a2792        	l32i	a9, a7, 232
     aa8:	fcc772        	addi	a7, a7, -4
     aab:	002ba2        	l32i	a10, a11, 0
     aae:	10c992        	addi	a9, a9, 16
     ab1:	601914        	ae_lq32f.iu	aeq0, a9, 4
     ab4:	605914        	ae_lq32f.iu	aeq1, a9, 4
     ab7:	55da62        	addmi	a6, a10, 0x5500
     aba:	d0c662        	addi	a6, a6, -48
     abd:	04a876        	loopgtz	a8, ac5 <PD_Noise_Est+0x2d>
     ac0:	f8663d391f 	{ ae_lq32f.iu	aeq1, a9, 4; ae_addq56	aeq0, aeq0, aeq1 }

00000ac5 <PD_Noise_Est+0x2d>:
     ac5:	04d632        	addmi	a3, a6, 0x400
     ac8:	3580b4        	ae_sraiq56	aeq2, aeq0, 2
     acb:	5bdaa2        	addmi	a10, a10, 0x5b00
     ace:	06d692        	addmi	a9, a6, 0x600
     ad1:	d8c992        	addi	a9, a9, -40
     ad4:	accaa2        	addi	a10, a10, -84
     ad7:	622a04        	ae_sq32f.i	aeq2, a10, 0
     ada:	604904        	ae_lq32f.i	aeq1, a9, 0
     add:	f9ea00002f 	{ movi	a2, 0; ae_addq56	aeq1, aeq1, aeq2 }
     ae2:	355074        	ae_sraiq56	aeq1, aeq1, 1
     ae5:	621904        	ae_sq32f.i	aeq1, a9, 0
     ae8:	a6a8           	l32i.n	a10, a6, 40
     aea:	e65322        	s16i	a2, a3, 0x1cc
     aed:	e79392        	l16si	a9, a3, 0x1ce
     af0:	171aa6        	blti	a10, 1, b0b <PD_Noise_Est+0x73>
     af3:	7123c2        	l32i	a12, a3, 0x1c4
     af6:	0e2ca6        	blti	a12, 2, b08 <PD_Noise_Est+0x70>
     af9:	e593a2        	l16si	a10, a3, 0x1ca
     afc:	f0c992        	addi	a9, a9, -16
     aff:	11aaf0        	slli	a10, a10, 1
     b02:	4399a0        	min	a9, a9, a10
     b05:	000686        	j	b23 <PD_Noise_Est+0x8b>

00000b08 <PD_Noise_Est+0x70>:
     b08:	081ae6        	bgei	a10, 1, b14 <PD_Noise_Est+0x7c>

00000b0b <PD_Noise_Est+0x73>:
     b0b:	7123c2        	l32i	a12, a3, 0x1c4
     b0e:	021ce6        	bgei	a12, 1, b14 <PD_Noise_Est+0x7c>
     b11:	010b86        	j	f43 <PD_Noise_Est+0x4ab>

00000b14 <PD_Noise_Est+0x7c>:
     b14:	7723d2        	l32i	a13, a3, 0x1dc
     b17:	051de6        	bgei	a13, 1, b20 <PD_Noise_Est+0x88>
     b1a:	fec992        	addi	a9, a9, -2
     b1d:	000086        	j	b23 <PD_Noise_Est+0x8b>

00000b20 <PD_Noise_Est+0x88>:
     b20:	f8c992        	addi	a9, a9, -8

00000b23 <PD_Noise_Est+0x8b>:
     b23:	fe3c           	movi.n	a14, 63
     b25:	53d920        	max	a13, a9, a2
     b28:	0bc8           	l32i.n	a12, a11, 0
     b2a:	43dde0        	min	a13, a13, a14
     b2d:	e753d2        	s16i	a13, a3, 0x1ce
     b30:	19dcc2        	addmi	a12, a12, 0x1900
     b33:	989ce2        	l16si	a14, a12, 0x130
     b36:	34ccb2        	addi	a11, a12, 52
     b39:	9a9cc2        	l16si	a12, a12, 0x134
     b3c:	004ed6        	bgez	a14, b44 <PD_Noise_Est+0xac>
     b3f:	0c0c           	movi.n	a12, 0
     b41:	000606        	j	b5d <PD_Noise_Est+0xc5>

00000b44 <PD_Noise_Est+0xac>:
     b44:	a6f8           	l32i.n	a15, a6, 40
     b46:	021fe6        	bgei	a15, 1, b4c <PD_Noise_Est+0xb4>
     b49:	00c606        	j	e65 <PD_Noise_Est+0x3cd>
     b4c:	91d8           	l32i.n	a13, a1, 36
     b4e:	149da2        	l16si	a10, a13, 40
     b51:	139dd2        	l16si	a13, a13, 38
     b54:	022da7        	blt	a13, a10, b5a <PD_Noise_Est+0xc2>
     b57:	00a506        	j	def <PD_Noise_Est+0x357>
     b5a:	d8ccc2        	addi	a12, a12, -40

00000b5d <PD_Noise_Est+0xc5>:
     b5d:	ffa0d2        	movi	a13, 255
     b60:	53cc20        	max	a12, a12, a2
     b63:	a6e8           	l32i.n	a14, a6, 40
     b65:	43ccd0        	min	a12, a12, a13
     b68:	805bc2        	s16i	a12, a11, 0x100
     b6b:	021ee6        	bgei	a14, 1, b71 <PD_Noise_Est+0xd9>
     b6e:	00a946        	j	e17 <PD_Noise_Est+0x37f>
     b71:	91e8           	l32i.n	a14, a1, 36
     b73:	149ef2        	l16si	a15, a14, 40
     b76:	139ee2        	l16si	a14, a14, 38
     b79:	5169           	s32i.n	a6, a1, 20
     b7b:	b179           	s32i.n	a7, a1, 44
     b7d:	022ef7        	blt	a14, a15, b83 <PD_Noise_Est+0xeb>
     b80:	0054c6        	j	cd7 <PD_Noise_Est+0x23f>
     b83:	3f0c           	movi.n	a15, 3
     b85:	9198           	l32i.n	a9, a1, 36
     b87:	5a0c           	movi.n	a10, 5
     b89:	e653a2        	s16i	a10, a3, 0x1cc
     b8c:	04d992        	addmi	a9, a9, 0x400
     b8f:	48c992        	addi	a9, a9, 72
     b92:	601914        	ae_lq32f.iu	aeq0, a9, 4
     b95:	605914        	ae_lq32f.iu	aeq1, a9, 4
     b98:	04af76        	loopgtz	a15, ba0 <PD_Noise_Est+0x108>
     b9b:	f8663d391f 	{ ae_lq32f.iu	aeq1, a9, 4; ae_addq56	aeq0, aeq0, aeq1 }

00000ba0 <PD_Noise_Est+0x108>:
     ba0:	35c0b4        	ae_sraiq56	aeq3, aeq0, 2
     ba3:	fd4cb1        	l32r	a11, d4 (dacccccd <_end+0xdacc0e91>)
     ba6:	364b34        	ae_cvtq48a32s	aeq1, a11
     ba9:	099704        	ae_leq56s	b0, aeq3, aeq1
     bac:	080076        	bf	b0, bb8 <PD_Noise_Est+0x120>
     baf:	050c           	movi.n	a5, 0
     bb1:	040c           	movi.n	a4, 0
     bb3:	5169           	s32i.n	a6, a1, 20
     bb5:	000706        	j	bd5 <PD_Noise_Est+0x13d>

00000bb8 <PD_Noise_Est+0x120>:
     bb8:	fd4881        	l32r	a8, d8 (960 <COMPL_S16x2_fun>)
     bbb:	e493a2        	l16si	a10, a3, 0x1c8
     bbe:	0008e0        	callx8	a8
     bc1:	e493b2        	l16si	a11, a3, 0x1c8
     bc4:	0a4d           	mov.n	a4, a10
     bc6:	fd4481        	l32r	a8, d8 (960 <COMPL_S16x2_fun>)
     bc9:	ab2b           	addi.n	a10, a11, 2
     bcb:	21a2a0        	srai	a10, a10, 2
     bce:	0008e0        	callx8	a8
     bd1:	0a5d           	mov.n	a5, a10
     bd3:	5169           	s32i.n	a6, a1, 20

00000bd5 <PD_Noise_Est+0x13d>:
     bd5:	5168           	l32i.n	a6, a1, 20
     bd7:	a668           	l32i.n	a6, a6, 40
     bd9:	fd4081        	l32r	a8, dc (9290 <__floatsidf>)
     bdc:	fd41a1        	l32r	a10, e0 (fc000000 <_end+0xfbff41c4>)
     bdf:	662b           	addi.n	a6, a6, 2
     be1:	216260        	srai	a6, a6, 2
     be4:	a6aa           	add.n	a10, a6, a10
     be6:	71a9           	s32i.n	a10, a1, 28
     be8:	61a9           	s32i.n	a10, a1, 24
     bea:	0008e0        	callx8	a8
     bed:	fd3e81        	l32r	a8, e8 (9174 <__ltdf2>)
     bf0:	fd3dd1        	l32r	a13, e4 (c1600000 <_end+0xc15f41c4>)
     bf3:	0c0c           	movi.n	a12, 0
     bf5:	0008e0        	callx8	a8
     bf8:	7198           	l32i.n	a9, a1, 28
     bfa:	61f8           	l32i.n	a15, a1, 24
     bfc:	996a           	add.n	a9, a9, a6
     bfe:	a3f9a0        	movltz	a15, a9, a10
     c01:	fd3aa1        	l32r	a10, ec (b33333 <_end+0xb274f7>)
     c04:	fd3bc1        	l32r	a12, f0 (ff4ccccd <_end+0xff4c0e91>)
     c07:	292fa7        	blt	a15, a10, c34 <PD_Noise_Est+0x19c>
     c0a:	0a0c           	movi.n	a10, 0
     c0c:	6f23d2        	l32i	a13, a3, 0x1bc
     c0f:	7023e2        	l32i	a14, a3, 0x1c0
     c12:	bfca           	add.n	a11, a15, a12
     c14:	81b9           	s32i.n	a11, a1, 32
     c16:	0b0c           	movi.n	a11, 0

00000c18 <PD_Noise_Est+0x180>:
     c18:	caea           	add.n	a12, a10, a14
     c1a:	8daa           	add.n	a8, a13, a10
     c1c:	0849           	s32i.n	a4, a8, 0
     c1e:	0c98           	l32i.n	a9, a12, 0
     c20:	bb1b           	addi.n	a11, a11, 1
     c22:	1199f0        	slli	a9, a9, 1
     c25:	0c99           	s32i.n	a9, a12, 0
     c27:	81c8           	l32i.n	a12, a1, 32
     c29:	aa4b           	addi.n	a10, a10, 4
     c2b:	018b80        	slli	a8, a11, 24
     c2e:	e6ac87        	bge	a12, a8, c18 <PD_Noise_Est+0x180>
     c31:	000046        	j	c36 <PD_Noise_Est+0x19e>

00000c34 <PD_Noise_Est+0x19c>:
     c34:	0b0c           	movi.n	a11, 0

00000c36 <PD_Noise_Est+0x19e>:
     c36:	b179           	s32i.n	a7, a1, 44
     c38:	fd1de1        	l32r	a14, ac (b880 <wb_sb_ptn>)
     c3b:	51a8           	l32i.n	a10, a1, 20
     c3d:	6f23d2        	l32i	a13, a3, 0x1bc
     c40:	e693c2        	l16si	a12, a3, 0x1cc
     c43:	059aa2        	l16si	a10, a10, 10
     c46:	a0dbd0        	addx4	a13, a11, a13
     c49:	90cce0        	addx2	a12, a12, a14
     c4c:	2ccd           	ae_l16si.n	a12, a12, 0
     c4e:	0d59           	s32i.n	a5, a13, 0
     c50:	11aae0        	slli	a10, a10, 2
     c53:	bc2b           	addi.n	a11, a12, 2
     c55:	01bb80        	slli	a11, a11, 24
     c58:	7b2bf7        	blt	a11, a15, cd7 <PD_Noise_Est+0x23f>
     c5b:	41a9           	s32i.n	a10, a1, 16
     c5d:	fd2321        	l32r	a2, ec (b33333 <_end+0xb274f7>)
     c60:	fd25c1        	l32r	a12, f4 (800000 <_end+0x7f41c4>)
     c63:	fd23d1        	l32r	a13, f0 (ff4ccccd <_end+0xff4c0e91>)
     c66:	2f2a           	add.n	a2, a15, a2
     c68:	7fca           	add.n	a7, a15, a12
     c6a:	dfda           	add.n	a13, a15, a13
     c6c:	cbca           	add.n	a12, a11, a12
     c6e:	a1c9           	s32i.n	a12, a1, 40
     c70:	0b0c           	movi.n	a11, 0

00000c72 <PD_Noise_Est+0x1da>:
     c72:	4198           	l32i.n	a9, a1, 16
     c74:	7023a2        	l32i	a10, a3, 0x1c0
     c77:	6f23e2        	l32i	a14, a3, 0x1bc
     c7a:	31f870        	srai	a15, a7, 24
     c7d:	a0afa0        	addx4	a10, a15, a10
     c80:	a0cfe0        	addx4	a12, a15, a14
     c83:	0cb9           	s32i.n	a11, a12, 0
     c85:	0a99           	s32i.n	a9, a10, 0
     c87:	cf1b           	addi.n	a12, a15, 1
     c89:	0cbd           	mov.n	a11, a12
     c8b:	018c80        	slli	a8, a12, 24
     c8e:	11ace0        	slli	a10, a12, 2
     c91:	08a827        	bge	a8, a2, c9d <PD_Noise_Est+0x205>
     c94:	bf2b           	addi.n	a11, a15, 2
     c96:	aa4b           	addi.n	a10, a10, 4
     c98:	a08ce0        	addx4	a8, a12, a14
     c9b:	0859           	s32i.n	a5, a8, 0

00000c9d <PD_Noise_Est+0x205>:
     c9d:	776a           	add.n	a7, a7, a6
     c9f:	226a           	add.n	a2, a2, a6
     ca1:	019b80        	slli	a9, a11, 24
     ca4:	dd6a           	add.n	a13, a13, a6
     ca6:	1f2d97        	blt	a13, a9, cc9 <PD_Noise_Est+0x231>
     ca9:	6f23f2        	l32i	a15, a3, 0x1bc
     cac:	7023e2        	l32i	a14, a3, 0x1c0

00000caf <PD_Noise_Est+0x217>:
     caf:	bb1b           	addi.n	a11, a11, 1
     cb1:	cfaa           	add.n	a12, a15, a10
     cb3:	9aea           	add.n	a9, a10, a14
     cb5:	0c49           	s32i.n	a4, a12, 0
     cb7:	0988           	l32i.n	a8, a9, 0
     cb9:	aa4b           	addi.n	a10, a10, 4
     cbb:	01cb80        	slli	a12, a11, 24
     cbe:	1188f0        	slli	a8, a8, 1
     cc1:	0989           	s32i.n	a8, a9, 0
     cc3:	e8adc7        	bge	a13, a12, caf <PD_Noise_Est+0x217>
     cc6:	11abe0        	slli	a10, a11, 2

00000cc9 <PD_Noise_Est+0x231>:
     cc9:	6f23f2        	l32i	a15, a3, 0x1bc
     ccc:	0b0c           	movi.n	a11, 0
     cce:	a1e8           	l32i.n	a14, a1, 40
     cd0:	ffaa           	add.n	a15, a15, a10
     cd2:	0f59           	s32i.n	a5, a15, 0
     cd4:	9aae77        	bge	a14, a7, c72 <PD_Noise_Est+0x1da>

00000cd7 <PD_Noise_Est+0x23f>:
     cd7:	91a8           	l32i.n	a10, a1, 36
     cd9:	b178           	l32i.n	a7, a1, 44
     cdb:	020c           	movi.n	a2, 0
     cdd:	171aa2        	l16ui	a10, a10, 46
     ce0:	5168           	l32i.n	a6, a1, 20
     ce2:	481c           	movi.n	a8, 20
     ce4:	6b38a7        	bltu	a8, a10, d53 <PD_Noise_Est+0x2bb>
     ce7:	027ab6        	bltui	a10, 7, ced <PD_Noise_Est+0x255>
     cea:	004286        	j	df8 <PD_Noise_Est+0x360>
     ced:	91a8           	l32i.n	a10, a1, 36
     cef:	0cdaa2        	addmi	a10, a10, 0xc00
     cf2:	e8caa2        	addi	a10, a10, -24
     cf5:	0001c6        	j	d00 <PD_Noise_Est+0x268>

00000cf8 <PD_Noise_Est+0x260>:
     cf8:	91a8           	l32i.n	a10, a1, 36
     cfa:	0cdaa2        	addmi	a10, a10, 0xc00
     cfd:	f0caa2        	addi	a10, a10, -16

00000d00 <PD_Noise_Est+0x268>:
     d00:	e693b2        	l16si	a11, a3, 0x1cc
     d03:	2add           	ae_l16si.n	a13, a10, 0
     d05:	8c0c           	movi.n	a12, 8
     d07:	482cb7        	blt	a12, a11, d53 <PD_Noise_Est+0x2bb>
     d0a:	11ebe0        	slli	a14, a11, 2
     d0d:	fce7f1        	l32r	a15, ac (b880 <wb_sb_ptn>)
     d10:	fcecc1        	l32r	a12, c0 (8000 <ifft_wo+0x108>)
     d13:	442c           	movi.n	a4, 36
     d15:	90fbf0        	addx2	a15, a11, a15

00000d18 <PD_Noise_Est+0x280>:
     d18:	3b2782        	l32i	a8, a7, 236
     d1b:	88ea           	add.n	a8, a8, a14
     d1d:	0888           	l32i.n	a8, a8, 0
     d1f:	ee4b           	addi.n	a14, a14, 4
     d21:	2918e6        	bgei	a8, 1, d4e <PD_Noise_Est+0x2b6>
     d24:	2f5d           	ae_l16si.n	a5, a15, 0
     d26:	3fad           	ae_l16si.n	a10, a15, 2
     d28:	180c           	movi.n	a8, 1
     d2a:	1195e0        	slli	a9, a5, 2
     d2d:	1da5a7        	bge	a5, a10, d4e <PD_Noise_Est+0x2b6>
     d30:	c0ba50        	sub	a11, a10, a5
     d33:	6f23a2        	l32i	a10, a3, 0x1bc
     d36:	53bb80        	max	a11, a11, a8
     d39:	11ab76        	loopgtz	a11, d4e <PD_Noise_Est+0x2b6>
     d3c:	59aa           	add.n	a5, a9, a10
     d3e:	45bd           	ae_l16ui.n	a11, a5, 0
     d40:	994b           	addi.n	a9, a9, 4
     d42:	bdba           	add.n	a11, a13, a11
     d44:	c08cb0        	sub	a8, a12, a11
     d47:	118800        	slli	a8, a8, 16
     d4a:	bb8a           	add.n	a11, a11, a8
     d4c:	05b9           	s32i.n	a11, a5, 0
     d4e:	ff2b           	addi.n	a15, a15, 2
     d50:	c49e47        	bne	a14, a4, d18 <PD_Noise_Est+0x280>
     d53:	1996a2        	l16si	a10, a6, 50
     d56:	012a96        	bltz	a10, d6c <PD_Noise_Est+0x2d4>
     d59:	91c8           	l32i.n	a12, a1, 36
     d5b:	021cc2        	l16ui	a12, a12, 4
     d5e:	90ccc0        	addx2	a12, a12, a12
     d61:	11cce0        	slli	a12, a12, 2
     d64:	04aac7        	bge	a10, a12, d6c <PD_Noise_Est+0x2d4>
     d67:	ba1b           	addi.n	a11, a10, 1
     d69:	000046        	j	d6e <PD_Noise_Est+0x2d6>

00000d6c <PD_Noise_Est+0x2d4>:
     d6c:	fb7c           	movi.n	a11, -1

00000d6e <PD_Noise_Est+0x2d6>:
     d6e:	a6a8           	l32i.n	a10, a6, 40
     d70:	1956b2        	s16i	a11, a6, 50
     d73:	9a8c           	beqz.n	a10, d80 <PD_Noise_Est+0x2e8>
     d75:	7623d2        	l32i	a13, a3, 0x1d8
     d78:	03cdd6        	bgez	a13, db8 <PD_Noise_Est+0x320>
     d7b:	1a96e2        	l16si	a14, a6, 52
     d7e:	6efc           	bnez.n	a14, db8 <PD_Noise_Est+0x320>

00000d80 <PD_Noise_Est+0x2e8>:
     d80:	7123f2        	l32i	a15, a3, 0x1c4
     d83:	312fe6        	bgei	a15, 2, db8 <PD_Noise_Est+0x320>
     d86:	e79392        	l16si	a9, a3, 0x1ce
     d89:	e59382        	l16si	a8, a3, 0x1ca
     d8c:	28a897        	bge	a8, a9, db8 <PD_Noise_Est+0x320>
     d8f:	11cbd6        	bgez	a11, eaf <PD_Noise_Est+0x417>
     d92:	91b8           	l32i.n	a11, a1, 36
     d94:	7723a2        	l32i	a10, a3, 0x1dc
     d97:	0796c2        	l16si	a12, a6, 14
     d9a:	0b9be2        	l16si	a14, a11, 22
     d9d:	0a9bd2        	l16si	a13, a11, 20
     da0:	0c9bb2        	l16si	a11, a11, 24
     da3:	fcd581        	l32r	a8, f8 (9054 <cal_wind_score>)
     da6:	ddea           	add.n	a13, a13, a14
     da8:	bbda           	add.n	a11, a11, a13
     daa:	8bbd           	ae_sext16	a11, a11
     dac:	61bd           	ae_s16i.n	a11, a1, 0
     dae:	0008e0        	callx8	a8
     db1:	0aed           	mov.n	a14, a10
     db3:	a6a8           	l32i.n	a10, a6, 40
     db5:	003e46        	j	eb2 <PD_Noise_Est+0x41a>

00000db8 <PD_Noise_Est+0x320>:
     db8:	fcd1b1        	l32r	a11, fc (7fff0000 <_end+0x7ffe41c4>)

00000dbb <PD_Noise_Est+0x323>:
     dbb:	c18b           	addi.n	a12, a1, 8
     dbd:	fcd281        	l32r	a8, 108 (43d4 <siir_safr>)
     dc0:	fcd0a1        	l32r	a10, 100 (7e1401ec <_end+0x7e1343b0>)
     dc3:	fcd091        	l32r	a9, 104 (7fe70019 <_end+0x7fe641dd>)
     dc6:	2199           	s32i.n	a9, a1, 8
     dc8:	31a9           	s32i.n	a10, a1, 12
     dca:	4227a2        	l32i	a10, a7, 0x108
     dcd:	0008e0        	callx8	a8
     dd0:	4267a2        	s32i	a10, a7, 0x108
     dd3:	1a96c2        	l16si	a12, a6, 52
     dd6:	a6d8           	l32i.n	a13, a6, 40
     dd8:	3e0c           	movi.n	a14, 3
     dda:	bc0b           	addi.n	a11, a12, -1
     ddc:	53bb20        	max	a11, a11, a2
     ddf:	cc1b           	addi.n	a12, a12, 1
     de1:	020c           	movi.n	a2, 0
     de3:	43cce0        	min	a12, a12, a14
     de6:	93bcd0        	movnez	a11, a12, a13
     de9:	1a56b2        	s16i	a11, a6, 52
     dec:	f01d           	retw.n

00000dee <PD_Noise_Est+0x356>:
	...

00000def <PD_Noise_Est+0x357>:
     def:	169da7        	bne	a13, a10, e09 <PD_Noise_Est+0x371>
     df2:	faccc2        	addi	a12, a12, -6
     df5:	ff5906        	j	b5d <PD_Noise_Est+0xc5>

00000df8 <PD_Noise_Est+0x360>:
     df8:	02bab6        	bltui	a10, 16, dfe <PD_Noise_Est+0x366>
     dfb:	ffbe46        	j	cf8 <PD_Noise_Est+0x260>
     dfe:	91a8           	l32i.n	a10, a1, 36
     e00:	0cdaa2        	addmi	a10, a10, 0xc00
     e03:	eccaa2        	addi	a10, a10, -20
     e06:	ffbd86        	j	d00 <PD_Noise_Est+0x268>

00000e09 <PD_Noise_Est+0x371>:
     e09:	ed0b           	addi.n	a14, a13, -1
     e0b:	c0eae0        	sub	a14, a10, a14
     e0e:	d4be56        	bnez	a14, b5d <PD_Noise_Est+0xc5>
     e11:	feccc2        	addi	a12, a12, -2
     e14:	ff5146        	j	b5d <PD_Noise_Est+0xc5>

00000e17 <PD_Noise_Est+0x37f>:
     e17:	0696f2        	l16si	a15, a6, 12
     e1a:	5169           	s32i.n	a6, a1, 20
     e1c:	b179           	s32i.n	a7, a1, 44
     e1e:	02acf7        	bge	a12, a15, e24 <PD_Noise_Est+0x38c>
     e21:	ffac86        	j	cd7 <PD_Noise_Est+0x23f>
     e24:	7023a2        	l32i	a10, a3, 0x1c0
     e27:	400644        	ae_lp16f.i	aep0, a6, 8
     e2a:	4c1a04        	ae_lp24.i	aep1, a10, 0
     e2d:	028174        	ae_mulp24s.ll	aeq2, aep0, aep1
     e30:	36ab04        	ae_trunca32q48	a11, aeq2
     e33:	090c           	movi.n	a9, 0
     e35:	eea082        	movi	a8, 238
     e38:	bb2b           	addi.n	a11, a11, 2
     e3a:	21b2b0        	srai	a11, a11, 2
     e3d:	05a876        	loopgtz	a8, e46 <PD_Noise_Est+0x3ae>
     e40:	da9a           	add.n	a13, a10, a9
     e42:	0db9           	s32i.n	a11, a13, 0
     e44:	994b           	addi.n	a9, a9, 4

00000e46 <PD_Noise_Est+0x3ae>:
     e46:	0396e2        	l16si	a14, a6, 6
     e49:	5169           	s32i.n	a6, a1, 20
     e4b:	b179           	s32i.n	a7, a1, 44
     e4d:	02ace7        	bge	a12, a14, e53 <PD_Noise_Est+0x3bb>
     e50:	ffa0c6        	j	cd7 <PD_Noise_Est+0x23f>
     e53:	7123f2        	l32i	a15, a3, 0x1c4
     e56:	332fe6        	bgei	a15, 2, e8d <PD_Noise_Est+0x3f5>
     e59:	fc9f81        	l32r	a8, d8 (960 <COMPL_S16x2_fun>)
     e5c:	ea93a2        	l16si	a10, a3, 0x1d4
     e5f:	0008e0        	callx8	a8
     e62:	000c06        	j	e96 <PD_Noise_Est+0x3fe>

00000e65 <PD_Noise_Est+0x3cd>:
     e65:	712392        	l32i	a9, a3, 0x1c4
     e68:	0229a6        	blti	a9, 2, e6e <PD_Noise_Est+0x3d6>
     e6b:	ff3b86        	j	b5d <PD_Noise_Est+0xc5>
     e6e:	fca7e1        	l32r	a14, 10c (b860 <wb_score_bands>)
     e71:	91a8           	l32i.n	a10, a1, 36
     e73:	099ed2        	l16si	a13, a14, 18
     e76:	3efd           	ae_l16si.n	a15, a14, 2
     e78:	029ee2        	l16si	a14, a14, 4
     e7b:	171aa2        	l16ui	a10, a10, 46
     e7e:	ffda           	add.n	a15, a15, a13
     e80:	eefa           	add.n	a14, a14, a15
     e82:	02aae7        	bge	a10, a14, e88 <PD_Noise_Est+0x3f0>
     e85:	003986        	j	f6f <PD_Noise_Est+0x4d7>
     e88:	cc2b           	addi.n	a12, a12, 2
     e8a:	ff33c6        	j	b5d <PD_Noise_Est+0xc5>

00000e8d <PD_Noise_Est+0x3f5>:
     e8d:	fc9281        	l32r	a8, d8 (960 <COMPL_S16x2_fun>)
     e90:	e993a2        	l16si	a10, a3, 0x1d2
     e93:	0008e0        	callx8	a8

00000e96 <PD_Noise_Est+0x3fe>:
     e96:	090c           	movi.n	a9, 0
     e98:	6f23b2        	l32i	a11, a3, 0x1bc
     e9b:	eea0c2        	movi	a12, 238
     e9e:	05ac76        	loopgtz	a12, ea7 <PD_Noise_Est+0x40f>
     ea1:	db9a           	add.n	a13, a11, a9
     ea3:	0da9           	s32i.n	a10, a13, 0
     ea5:	994b           	addi.n	a9, a9, 4

00000ea7 <PD_Noise_Est+0x40f>:
     ea7:	5169           	s32i.n	a6, a1, 20
     ea9:	b179           	s32i.n	a7, a1, 44
     eab:	ff8a06        	j	cd7 <PD_Noise_Est+0x23f>

00000eae <PD_Noise_Est+0x416>:
	...

00000eaf <PD_Noise_Est+0x417>:
     eaf:	fc98e1        	l32r	a14, 110 (4000 <find_phase+0x8>)

00000eb2 <PD_Noise_Est+0x41a>:
     eb2:	40def2        	addmi	a15, a14, 0x4000
     eb5:	ff0b           	addi.n	a15, a15, -1
     eb7:	61fd           	ae_s16i.n	a15, a1, 0
     eb9:	9aec           	bnez.n	a10, ee6 <PD_Noise_Est+0x44e>
     ebb:	7023c2        	l32i	a12, a3, 0x1c0
     ebe:	400104        	ae_lp16f.i	aep0, a1, 0
     ec1:	8697b2        	l16si	a11, a7, 0x10c
     ec4:	fccca2        	addi	a10, a12, -4
     ec7:	600c04        	ae_lq32f.i	aeq0, a12, 0
     eca:	431ba6        	blti	a11, 1, f11 <PD_Noise_Est+0x479>
     ecd:	050c           	movi.n	a5, 0

00000ecf <PD_Noise_Est+0x437>:
     ecf:	038a14        	ae_mulfq32sp16s.l	aeq3, aeq0, aep0
     ed2:	601c14        	ae_lq32f.iu	aeq0, a12, 4
     ed5:	35f054        	ae_slliq56	aeq3, aeq3, 1
     ed8:	627a14        	ae_sq32f.iu	aeq3, a10, 4
     edb:	8697b2        	l16si	a11, a7, 0x10c
     ede:	551b           	addi.n	a5, a5, 1
     ee0:	eb25b7        	blt	a5, a11, ecf <PD_Noise_Est+0x437>
     ee3:	000a86        	j	f11 <PD_Noise_Est+0x479>

00000ee6 <PD_Noise_Est+0x44e>:
     ee6:	090c           	movi.n	a9, 0
     ee8:	91c8           	l32i.n	a12, a1, 36
     eea:	7023a2        	l32i	a10, a3, 0x1c0
     eed:	403104        	ae_lp16f.i	aep3, a1, 0
     ef0:	1cccc2        	addi	a12, a12, 28
     ef3:	402c04        	ae_lp16f.i	aep2, a12, 0
     ef6:	e868802a8f 	{ movi	a8, 42; ae_mulfp24s.hh	aeq0, aep2, aep3 }
     efb:	b14b           	addi.n	a11, a1, 4
     efd:	3502f4        	ae_sraiq56	aeq0, aeq0, 11
     f00:	620b04        	ae_sq32f.i	aeq0, a11, 0
     f03:	11b8           	l32i.n	a11, a1, 4
     f05:	05a876        	loopgtz	a8, f0e <PD_Noise_Est+0x476>
     f08:	da9a           	add.n	a13, a10, a9
     f0a:	0db9           	s32i.n	a11, a13, 0
     f0c:	994b           	addi.n	a9, a9, 4

00000f0e <PD_Noise_Est+0x476>:
     f0e:	8697b2        	l16si	a11, a7, 0x10c

00000f11 <PD_Noise_Est+0x479>:
     f11:	6f23a2        	l32i	a10, a3, 0x1bc
     f14:	fc8081        	l32r	a8, 114 (5b33 <fill_vad_thrd_Nbands+0xb>)
     f17:	91d8           	l32i.n	a13, a1, 36
     f19:	e593c2        	l16si	a12, a3, 0x1ca
     f1c:	e793f2        	l16si	a15, a3, 0x1ce
     f1f:	0addd2        	addmi	a13, a13, 0xa00
     f22:	d18c80        	mul16s	a8, a12, a8
     f25:	11ff30        	slli	a15, a15, 13
     f28:	28a8f7        	bge	a8, a15, f54 <PD_Noise_Est+0x4bc>
     f2b:	fc7b81        	l32r	a8, 118 (a48 <wind_noise_alpha>)
     f2e:	7a2dd2        	l32i	a13, a13, 0x1e8
     f31:	fc7ac1        	l32r	a12, 11c (33334ccd <_end+0x33328e91>)
     f34:	0008e0        	callx8	a8
     f37:	e893b2        	l16si	a11, a3, 0x1d0
     f3a:	d1bbb0        	mul16s	a11, a11, a11
     f3d:	11bbf0        	slli	a11, a11, 1
     f40:	ff9dc6        	j	dbb <PD_Noise_Est+0x323>

00000f43 <PD_Noise_Est+0x4ab>:
     f43:	3b27a2        	l32i	a10, a7, 236
     f46:	1ac8           	l32i.n	a12, a10, 4
     f48:	0aa8           	l32i.n	a10, a10, 0
     f4a:	daca           	add.n	a13, a10, a12
     f4c:	451da6        	blti	a13, 1, f95 <PD_Noise_Est+0x4fd>
     f4f:	992b           	addi.n	a9, a9, 2
     f51:	fef386        	j	b23 <PD_Noise_Est+0x8b>

00000f54 <PD_Noise_Est+0x4bc>:
     f54:	118c20        	slli	a8, a12, 14
     f57:	1ca8f7        	bge	a8, a15, f77 <PD_Noise_Est+0x4df>
     f5a:	fc6f81        	l32r	a8, 118 (a48 <wind_noise_alpha>)
     f5d:	7a2dc2        	l32i	a12, a13, 0x1e8
     f60:	7b2dd2        	l32i	a13, a13, 0x1ec
     f63:	0008e0        	callx8	a8
     f66:	e893b2        	l16si	a11, a3, 0x1d0
     f69:	11bb00        	slli	a11, a11, 16
     f6c:	ff92c6        	j	dbb <PD_Noise_Est+0x323>

00000f6f <PD_Noise_Est+0x4d7>:
     f6f:	162ad7        	blt	a10, a13, f89 <PD_Noise_Est+0x4f1>
     f72:	cc1b           	addi.n	a12, a12, 1
     f74:	fef946        	j	b5d <PD_Noise_Est+0xc5>

00000f77 <PD_Noise_Est+0x4df>:
     f77:	fc6881        	l32r	a8, 118 (a48 <wind_noise_alpha>)
     f7a:	7b2dc2        	l32i	a12, a13, 0x1ec
     f7d:	7c2dd2        	l32i	a13, a13, 0x1f0
     f80:	0008e0        	callx8	a8
     f83:	fc5eb1        	l32r	a11, fc (7fff0000 <_end+0x7ffe41c4>)
     f86:	ff8c46        	j	dbb <PD_Noise_Est+0x323>

00000f89 <PD_Noise_Est+0x4f1>:
     f89:	e8cc92        	addi	a9, a12, -24
     f8c:	feccc2        	addi	a12, a12, -2
     f8f:	83c9a0        	moveqz	a12, a9, a10
     f92:	fef1c6        	j	b5d <PD_Noise_Est+0xc5>

00000f95 <PD_Noise_Est+0x4fd>:
     f95:	021ae6        	bgei	a10, 1, f9b <PD_Noise_Est+0x503>
     f98:	041ca6        	blti	a12, 1, fa0 <PD_Noise_Est+0x508>

00000f9b <PD_Noise_Est+0x503>:
     f9b:	991b           	addi.n	a9, a9, 1
     f9d:	fee086        	j	b23 <PD_Noise_Est+0x8b>

00000fa0 <PD_Noise_Est+0x508>:
     fa0:	990b           	addi.n	a9, a9, -1
     fa2:	fedf46        	j	b23 <PD_Noise_Est+0x8b>

00000fa5 <PD_Noise_Est+0x50d>:
     fa5:	000000                                        ...

00000fa8 <PD_Noise_Gain>:
     fa8:	004136        	entry	a1, 32
     fab:	fc3e21        	l32r	a2, a4 (be30 <p_ecnr_mem>)
     fae:	0228           	l32i.n	a2, a2, 0
     fb0:	5ad222        	addmi	a2, a2, 0x5a00
     fb3:	4e9222        	l16si	a2, a2, 156
     fb6:	f01d           	retw.n

00000fb8 <voiced_decision>:
     fb8:	00c136        	entry	a1, 96
     fbb:	fc3a91        	l32r	a9, a4 (be30 <p_ecnr_mem>)
     fbe:	0998           	l32i.n	a9, a9, 0
     fc0:	0a0c           	movi.n	a10, 0
     fc2:	d139           	s32i.n	a3, a1, 52
     fc4:	1ad992        	addmi	a9, a9, 0x1a00
     fc7:	192992        	l32i	a9, a9, 100
     fca:	782c           	movi.n	a8, 39
     fcc:	7199           	s32i.n	a9, a1, 28
     fce:	09cd           	mov.n	a12, a9
     fd0:	01d992        	addmi	a9, a9, 0x100
     fd3:	ecc972        	addi	a7, a9, -20
     fd6:	9cc9b2        	addi	a11, a9, -100
     fd9:	91b9           	s32i.n	a11, a1, 36
     fdb:	14c992        	addi	a9, a9, 20
     fde:	02a876        	loopgtz	a8, fe4 <voiced_decision+0x2c>
     fe1:	09cca4        	ae_s16ip	a10, a12, 2

00000fe4 <voiced_decision+0x2c>:
     fe4:	07cd           	mov.n	a12, a7
     fe6:	09dd           	mov.n	a13, a9
     fe8:	91e8           	l32i.n	a14, a1, 36
     fea:	14a0b2        	movi	a11, 20
     fed:	08ab76        	loopgtz	a11, ff9 <voiced_decision+0x41>
     ff0:	09eea4        	ae_s32ip	a10, a14, 4
     ff3:	09cca4        	ae_s16ip	a10, a12, 2
     ff6:	09cda4        	ae_s16ip	a10, a13, 2
     ff9:	2a62a2        	s32i	a10, a2, 168
     ffc:	040c           	movi.n	a4, 0
     ffe:	050c           	movi.n	a5, 0
    1000:	6199           	s32i.n	a9, a1, 24
    1002:	01d2d2        	addmi	a13, a2, 0x100
    1005:	160c           	movi.n	a6, 1
    1007:	9522f2        	l32i	a15, a2, 0x254
    100a:	4e3c           	movi.n	a14, 52
    100c:	fc4581        	l32r	a8, 120 (147ae1 <_end+0x13bca5>)
    100f:	398884        	ae_movpa24x2	aep0, a8, a8
    1012:	60e1e4        	ae_lq32f.x	aeq3, a1, a14
    1015:	364f34        	ae_cvtq48a32s	aeq1, a15
    1018:	fb017ed69f 	{ ae_sraaq56	aeq2, aeq1, a6; ae_mulfq32sp24s.h	aeq3, aeq3, aep0 }
    101d:	f8ea4acdde 	{ addi	a13, a13, -84; ae_addsq56s	aeq0, aeq1, aeq2 }
    1022:	fbe70027ef 	{ movi	a14, 39; ae_maxq56s	aeq3, aeq3, aeq0 }
    1027:	623104        	ae_sq32f.i	aeq3, a1, 0

0000102a <voiced_decision+0x72>:
    102a:	609d14        	ae_lq32f.iu	aeq2, a13, 4
    102d:	d6d43eca3f 	{ ae_cvtq48a32s	aeq0, a10; ae_ltq56s	b0, aeq3, aeq2 }
    1032:	5b0c           	movi.n	a11, 5
    1034:	f4cd92        	addi	a9, a13, -12
    1037:	1b0076        	bf	b0, 1056 <voiced_decision+0x9e>
    103a:	05ab76        	loopgtz	a11, 1043 <voiced_decision+0x8b>
    103d:	605914        	ae_lq32f.iu	aeq1, a9, 4
    1040:	0101c4        	ae_maxq56s	aeq0, aeq1, aeq0

00001043 <voiced_decision+0x8b>:
    1043:	098a14        	ae_eqq56	b1, aeq2, aeq0
    1046:	7198           	l32i.n	a9, a1, 28
    1048:	841b           	addi.n	a8, a4, 1
    104a:	080176        	bf	b1, 1056 <voiced_decision+0x9e>
    104d:	909590        	addx2	a9, a5, a9
    1050:	698d           	ae_s16i.n	a8, a9, 0
    1052:	551b           	addi.n	a5, a5, 1
    1054:	855d           	ae_sext16	a5, a5
    1056:	441b           	addi.n	a4, a4, 1
    1058:	ce94e7        	bne	a4, a14, 102a <voiced_decision+0x72>
    105b:	c50b           	addi.n	a12, a5, -1
    105d:	8ccd           	ae_sext16	a12, a12
    105f:	0251c2        	s16i	a12, a1, 4
    1062:	021ce6        	bgei	a12, 1, 1068 <voiced_decision+0xb0>
    1065:	002a06        	j	1111 <voiced_decision+0x159>
    1068:	7138           	l32i.n	a3, a1, 28
    106a:	040c           	movi.n	a4, 0
    106c:	050c           	movi.n	a5, 0
    106e:	fc14d1        	l32r	a13, c0 (8000 <ifft_wo+0x108>)
    1071:	360d34        	ae_cvtq48a32s	aeq0, a13

00001074 <voiced_decision+0xbc>:
    1074:	23bd           	ae_l16si.n	a11, a3, 0
    1076:	33fd           	ae_l16si.n	a15, a3, 2
    1078:	fd0455ffbf 	{ sub	a15, a15, a11; ae_movq56	aeq1, aeq0 }
    107d:	3e1f66        	bnei	a15, 1, 10bf <voiced_decision+0x107>
    1080:	332b           	addi.n	a3, a3, 2
    1082:	441b           	addi.n	a4, a4, 1
    1084:	1ba4c7        	bge	a4, a12, 10a3 <voiced_decision+0xeb>
    1087:	c08c40        	sub	a8, a12, a4
    108a:	10a876        	loopgtz	a8, 109e <voiced_decision+0xe6>
    108d:	23ad           	ae_l16si.n	a10, a3, 0
    108f:	339d           	ae_l16si.n	a9, a3, 2
    1091:	c099a0        	sub	a9, a9, a10
    1094:	0b1966        	bnei	a9, 1, 10a3 <voiced_decision+0xeb>
    1097:	441b           	addi.n	a4, a4, 1
    1099:	f96a40233e 	{ addi	a3, a3, 2; ae_addsq56s	aeq1, aeq1, aeq0 }

0000109e <voiced_decision+0xe6>:
    109e:	7138           	l32i.n	a3, a1, 28
    10a0:	903430        	addx2	a3, a4, a3
    10a3:	402304        	ae_lp16f.i	aep2, a3, 0
    10a6:	fc1f91        	l32r	a9, 124 (900 <HIFI_sqrt+0x48>)
    10a9:	39b994        	ae_movpa24x2	aep3, a9, a9
    10ac:	07a314        	ae_addsp24s	aep1, aep2, aep3
    10af:	0ac984        	ae_cvtq48p24s.h	aeq3, aep1
    10b2:	fa5e80818e 	{ addi	a8, a1, 8; ae_subsq56s	aeq2, aeq3, aeq1 }
    10b7:	622804        	ae_sq32f.i	aeq2, a8, 0
    10ba:	21a8           	l32i.n	a10, a1, 8
    10bc:	0006c6        	j	10db <voiced_decision+0x123>

000010bf <voiced_decision+0x107>:
    10bf:	9c0c           	movi.n	a12, 9
    10c1:	a0ab20        	addx4	a10, a11, a2
    10c4:	fc1981        	l32r	a8, 128 (2168 <Xfrac_num_pd_td32>)
    10c7:	01daa2        	addmi	a10, a10, 0x100
    10ca:	accaa2        	addi	a10, a10, -84
    10cd:	0008e0        	callx8	a8
    10d0:	0291c2        	l16si	a12, a1, 4
    10d3:	21a9           	s32i.n	a10, a1, 8
    10d5:	fbfad1        	l32r	a13, c0 (8000 <ifft_wo+0x108>)
    10d8:	360d34        	ae_cvtq48a32s	aeq0, a13

000010db <voiced_decision+0x123>:
    10db:	332b           	addi.n	a3, a3, 2
    10dd:	441b           	addi.n	a4, a4, 1
    10df:	9198           	l32i.n	a9, a1, 36
    10e1:	d18b           	addi.n	a13, a1, 8
    10e3:	604d04        	ae_lq32f.i	aeq1, a13, 0
    10e6:	faeb80c1be 	{ addi	a11, a1, 12; ae_roundsp16q48sym	aep4, aeq1 }
    10eb:	a09590        	addx4	a9, a5, a9
    10ee:	424b04        	ae_sp16f.l.i	aep4, a11, 0
    10f1:	069182        	l16si	a8, a1, 12
    10f4:	09a9           	s32i.n	a10, a9, 0
    10f6:	909570        	addx2	a9, a5, a7
    10f9:	a08820        	addx4	a8, a8, a2
    10fc:	222882        	l32i	a8, a8, 136
    10ff:	551b           	addi.n	a5, a5, 1
    1101:	855d           	ae_sext16	a5, a5
    1103:	318080        	srai	a8, a8, 16
    1106:	698d           	ae_s16i.n	a8, a9, 0
    1108:	02a4c7        	bge	a4, a12, 110e <voiced_decision+0x156>
    110b:	ffd946        	j	1074 <voiced_decision+0xbc>
    110e:	0000c6        	j	1115 <voiced_decision+0x15d>

00001111 <voiced_decision+0x159>:
    1111:	040c           	movi.n	a4, 0
    1113:	050c           	movi.n	a5, 0

00001115 <voiced_decision+0x15d>:
    1115:	449c47        	bne	a12, a4, 115d <voiced_decision+0x1a5>
    1118:	71a8           	l32i.n	a10, a1, 28
    111a:	90a4a0        	addx2	a10, a4, a10
    111d:	2aad           	ae_l16si.n	a10, a10, 0
    111f:	9c0c           	movi.n	a12, 9
    1121:	fc0181        	l32r	a8, 128 (2168 <Xfrac_num_pd_td32>)
    1124:	0abd           	mov.n	a11, a10
    1126:	a0aa20        	addx4	a10, a10, a2
    1129:	01daa2        	addmi	a10, a10, 0x100
    112c:	accaa2        	addi	a10, a10, -84
    112f:	0008e0        	callx8	a8
    1132:	90c570        	addx2	a12, a5, a7
    1135:	91d8           	l32i.n	a13, a1, 36
    1137:	21a9           	s32i.n	a10, a1, 8
    1139:	f18b           	addi.n	a15, a1, 8
    113b:	608f04        	ae_lq32f.i	aeq2, a15, 0
    113e:	faf3c0c1ee 	{ addi	a14, a1, 12; ae_roundsp16q48sym	aep5, aeq2 }
    1143:	425e04        	ae_sp16f.l.i	aep5, a14, 0
    1146:	0691b2        	l16si	a11, a1, 12
    1149:	a0d5d0        	addx4	a13, a5, a13
    114c:	0da9           	s32i.n	a10, a13, 0
    114e:	a0bb20        	addx4	a11, a11, a2
    1151:	222bb2        	l32i	a11, a11, 136
    1154:	551b           	addi.n	a5, a5, 1
    1156:	855d           	ae_sext16	a5, a5
    1158:	31b0b0        	srai	a11, a11, 16
    115b:	6cbd           	ae_s16i.n	a11, a12, 0

0000115d <voiced_decision+0x1a5>:
    115d:	fbf3a1        	l32r	a10, 12c (10000 <_end+0x41c4>)
    1160:	04d232        	addmi	a3, a2, 0x400
    1163:	1cc332        	addi	a3, a3, 28
    1166:	0215e6        	bgei	a5, 1, 116c <voiced_decision+0x1b4>
    1169:	007006        	j	132d <voiced_decision+0x375>
    116c:	61d8           	l32i.n	a13, a1, 24
    116e:	02a576        	loopgtz	a5, 1174 <voiced_decision+0x1bc>
    1171:	09cd64        	ae_s16ip	a6, a13, 2

00001174 <voiced_decision+0x1bc>:
    1174:	7e9382        	l16si	a8, a3, 252
    1177:	0218e6        	bgei	a8, 1, 117d <voiced_decision+0x1c5>
    117a:	006706        	j	131a <voiced_decision+0x362>
    117d:	91e8           	l32i.n	a14, a1, 36
    117f:	61d8           	l32i.n	a13, a1, 24
    1181:	07cd           	mov.n	a12, a7
    1183:	fbea81        	l32r	a8, 12c (10000 <_end+0x41c4>)
    1186:	10c242        	addi	a4, a2, 16
    1189:	03d2a2        	addmi	a10, a2, 0x300
    118c:	fbe9b1        	l32r	a11, 130 (78000 <_end+0x6c1c4>)
    118f:	398bb4        	ae_movpa24x2	aep0, a11, a11
    1192:	70caa2        	addi	a10, a10, 112
    1195:	8149           	s32i.n	a4, a1, 32
    1197:	364834        	ae_cvtq48a32s	aeq1, a8
    119a:	040c           	movi.n	a4, 0

0000119c <voiced_decision+0x1e4>:
    119c:	155516        	beqz	a5, 12f5 <voiced_decision+0x33d>
    119f:	152596        	bltz	a5, 12f5 <voiced_decision+0x33d>
    11a2:	17a576        	loopgtz	a5, 11bd <voiced_decision+0x205>
    11a5:	030150        	rsr.lend	a5
    11a8:	130050        	wsr.lbeg	a5
    11ab:	38c552        	addi	a5, a5, 56
    11ae:	01d552        	addmi	a5, a5, 0x100
    11b1:	130150        	wsr.lend	a5
    11b4:	002000        	isync
    11b7:	030250        	rsr.lcount	a5
    11ba:	01c552        	addi	a5, a5, 1
    11bd:	7e93b2        	l16si	a11, a3, 252
    11c0:	600e04        	ae_lq32f.i	aeq0, a14, 0
    11c3:	bb0b           	addi.n	a11, a11, -1
    11c5:	19a4b7        	bge	a4, a11, 11e2 <voiced_decision+0x22a>
    11c8:	030204        	ae_mulfq32sp16s.h	aeq0, aeq0, aep0
    11cb:	0110c4        	ae_maxq56s	aeq0, aeq0, aeq1
    11ce:	ff10b00efe 	{ l32i	a15, a14, 0; ae_negq56	aeq3, aeq0 }
    11d3:	004b06        	j	1303 <voiced_decision+0x34b>

000011d6 <voiced_decision+0x21e>:
    11d6:	a0a420        	addx4	a10, a4, a2
    11d9:	03daa2        	addmi	a10, a10, 0x300
    11dc:	70caa2        	addi	a10, a10, 112
    11df:	0001c6        	j	11ea <voiced_decision+0x232>

000011e2 <voiced_decision+0x22a>:
    11e2:	030204        	ae_mulfq32sp16s.h	aeq0, aeq0, aep0
    11e5:	f86b300efe 	{ l32i	a15, a14, 0; ae_maxq56s	aeq0, aeq0, aeq1 }

000011ea <voiced_decision+0x232>:
    11ea:	7f2a92        	l32i	a9, a10, 0x1fc
    11ed:	c099f0        	sub	a9, a9, a15

000011f0 <voiced_decision+0x238>:
    11f0:	10c1b2        	addi	a11, a1, 16
    11f3:	60f190        	abs	a15, a9
    11f6:	41f9           	s32i.n	a15, a1, 16
    11f8:	60cb04        	ae_lq32f.i	aeq3, a11, 0
    11fb:	d5c4804eee 	{ addi	a14, a14, 4; ae_leq56s	b2, aeq3, aeq0 }
    1200:	8198           	l32i.n	a9, a1, 32
    1202:	fbccb1        	l32r	a11, 134 (2ccccd <_end+0x2c0e91>)
    1205:	021276        	bt	b2, 120b <voiced_decision+0x253>
    1208:	0038c6        	j	12ef <voiced_decision+0x337>
    120b:	407c04        	ae_lp16f.i	aep7, a12, 0
    120e:	42a582        	movi	a8, 0x542
    1211:	401904        	ae_lp16f.i	aep1, a9, 0
    1214:	909420        	addx2	a9, a4, a2
    1217:	412984        	ae_lp16f.x	aep2, a9, a8
    121a:	e844ba015f 	{ ae_sq56s.i	aeq0, a1, 40; ae_mulfp24s.hh	aeq0, aep1, aep2 }
    121f:	0a8f84        	ae_cvtq48p24s.h	aeq2, aep7
    1222:	f8e7e26bbf 	{ ae_movpa24x2	aep6, a11, a11; ae_roundsp24q48sym	aep1, aeq0 }
    1227:	016144        	ae_mulfp24s.hh	aeq0, aep6, aep1
    122a:	35a074        	ae_sraiq56	aeq2, aeq2, 1
    122d:	098284        	ae_ltq56s	b8, aeq2, aeq0
    1230:	fbc2f1        	l32r	a15, 138 (466666 <_end+0x45a82a>)
    1233:	610154        	ae_lq56.i	aeq0, a1, 40
    1236:	040876        	bf	b8, 123e <voiced_decision+0x286>
    1239:	6d6d           	ae_s16i.n	a6, a13, 0
    123b:	000806        	j	125f <voiced_decision+0x2a7>

0000123e <voiced_decision+0x286>:
    123e:	39bff4        	ae_movpa24x2	aep3, a15, a15
    1241:	e82cba015f 	{ ae_sq56s.i	aeq0, a1, 40; ae_mulfp24s.hh	aeq0, aep3, aep1 }
    1246:	04d992        	addmi	a9, a9, 0x400
    1249:	d6c381c99e 	{ addi	a9, a9, 28; ae_ltq56s	b14, aeq2, aeq0 }
    124e:	7f9992        	l16si	a9, a9, 254
    1251:	610154        	ae_lq56.i	aeq0, a1, 40
    1254:	190e76        	bf	b14, 1271 <voiced_decision+0x2b9>
    1257:	fbc992        	addi	a9, a9, -5

0000125a <voiced_decision+0x2a2>:
    125a:	539960        	max	a9, a9, a6

0000125d <voiced_decision+0x2a5>:
    125d:	6d9d           	ae_s16i.n	a9, a13, 0
    125f:	7e9382        	l16si	a8, a3, 252
    1262:	880b           	addi.n	a8, a8, -1
    1264:	022487        	blt	a4, a8, 126a <voiced_decision+0x2b2>
    1267:	002186        	j	12f1 <voiced_decision+0x339>
    126a:	441b           	addi.n	a4, a4, 1
    126c:	aa4b           	addi.n	a10, a10, 4
    126e:	001fc6        	j	12f1 <voiced_decision+0x339>

00001271 <voiced_decision+0x2b9>:
    1271:	fbb2b1        	l32r	a11, 13c (533333 <_end+0x5274f7>)
    1274:	39cbb4        	ae_movpa24x2	aep4, a11, a11
    1277:	e830ba015f 	{ ae_sq56s.i	aeq0, a1, 40; ae_mulfp24s.hh	aeq0, aep4, aep1 }
    127c:	fbb1f1        	l32r	a15, 140 (5851ec <_end+0x5793b0>)
    127f:	098244        	ae_ltq56s	b4, aeq2, aeq0
    1282:	39dff4        	ae_movpa24x2	aep5, a15, a15
    1285:	610154        	ae_lq56.i	aeq0, a1, 40
    1288:	050476        	bf	b4, 1291 <voiced_decision+0x2d9>
    128b:	fcc992        	addi	a9, a9, -4
    128e:	fff206        	j	125a <voiced_decision+0x2a2>

00001291 <voiced_decision+0x2d9>:
    1291:	e834ba015f 	{ ae_sq56s.i	aeq0, a1, 40; ae_mulfp24s.hh	aeq0, aep5, aep1 }
    1296:	fbab81        	l32r	a8, 144 (5ae148 <_end+0x5a230c>)
    1299:	0982a4        	ae_ltq56s	b10, aeq2, aeq0
    129c:	39e884        	ae_movpa24x2	aep6, a8, a8
    129f:	610154        	ae_lq56.i	aeq0, a1, 40
    12a2:	050a76        	bf	b10, 12ab <voiced_decision+0x2f3>
    12a5:	fec992        	addi	a9, a9, -2
    12a8:	ffeb86        	j	125a <voiced_decision+0x2a2>

000012ab <voiced_decision+0x2f3>:
    12ab:	e838ba015f 	{ ae_sq56s.i	aeq0, a1, 40; ae_mulfp24s.hh	aeq0, aep6, aep1 }
    12b0:	fba6b1        	l32r	a11, 148 (5ccccd <_end+0x5c0e91>)
    12b3:	098204        	ae_ltq56s	b0, aeq2, aeq0
    12b6:	39fbb4        	ae_movpa24x2	aep7, a11, a11
    12b9:	610154        	ae_lq56.i	aeq0, a1, 40
    12bc:	040076        	bf	b0, 12c4 <voiced_decision+0x30c>
    12bf:	990b           	addi.n	a9, a9, -1
    12c1:	ffe546        	j	125a <voiced_decision+0x2a2>

000012c4 <voiced_decision+0x30c>:
    12c4:	e83cba015f 	{ ae_sq56s.i	aeq0, a1, 40; ae_mulfp24s.hh	aeq0, aep7, aep1 }
    12c9:	fba081        	l32r	a8, 14c (600000 <_end+0x5f41c4>)
    12cc:	d6c1bd815f 	{ ae_lq56.i	aeq0, a1, 40; ae_ltq56s	b6, aeq2, aeq0 }
    12d1:	399884        	ae_movpa24x2	aep1, a8, a8
    12d4:	f90400198e 	{ addi	a8, a9, 1; ae_mulfq32sp24s.h	aeq2, aeq0, aep1 }
    12d9:	801676        	bt	b6, 125d <voiced_decision+0x2a5>
    12dc:	d5d5cff9fe 	{ addi	a15, a9, -1; ae_leq56s	b7, aeq3, aeq2 }
    12e1:	53ff60        	max	a15, a15, a6
    12e4:	091c           	movi.n	a9, 16
    12e6:	439890        	min	a9, a8, a9
    12e9:	c39f70        	movf	a9, a15, b7
    12ec:	ffdb46        	j	125d <voiced_decision+0x2a5>

000012ef <voiced_decision+0x337>:
    12ef:	6d6d           	ae_s16i.n	a6, a13, 0

000012f1 <voiced_decision+0x339>:
    12f1:	dd2b           	addi.n	a13, a13, 2
    12f3:	cc2b           	addi.n	a12, a12, 2

000012f5 <voiced_decision+0x33d>:
    12f5:	000846        	j	131a <voiced_decision+0x362>

000012f8 <voiced_decision+0x340>:
	...

000012f9 <voiced_decision+0x341>:
    12f9:	aa4b           	addi.n	a10, a10, 4
    12fb:	441b           	addi.n	a4, a4, 1
    12fd:	0224b7        	blt	a4, a11, 1303 <voiced_decision+0x34b>
    1300:	ffb486        	j	11d6 <voiced_decision+0x21e>

00001303 <voiced_decision+0x34b>:
    1303:	7f2a92        	l32i	a9, a10, 0x1fc
    1306:	10c182        	addi	a8, a1, 16
    1309:	c099f0        	sub	a9, a9, a15
    130c:	4199           	s32i.n	a9, a1, 16
    130e:	608804        	ae_lq32f.i	aeq2, a8, 0
    1311:	09a384        	ae_ltq56s	b8, aeq3, aeq2
    1314:	e10876        	bf	b8, 12f9 <voiced_decision+0x341>
    1317:	ffb546        	j	11f0 <voiced_decision+0x238>

0000131a <voiced_decision+0x362>:
    131a:	61b8           	l32i.n	a11, a1, 24
    131c:	05cd           	mov.n	a12, a5
    131e:	fb6b81        	l32r	a8, cc (9240 <xt_memcpy>)
    1321:	05d2a2        	addmi	a10, a2, 0x500
    1324:	1acaa2        	addi	a10, a10, 26
    1327:	0008e0        	callx8	a8
    132a:	fb80a1        	l32r	a10, 12c (10000 <_end+0x41c4>)

0000132d <voiced_decision+0x375>:
    132d:	7e5352        	s16i	a5, a3, 252
    1330:	03dd           	mov.n	a13, a3
    1332:	608104        	ae_lq32f.i	aeq2, a1, 0
    1335:	fb87f1        	l32r	a15, 154 (828f <xtensa_fft8_32b+0x37>)
    1338:	fb8841        	l32r	a4, 158 (30000 <_end+0x241c4>)
    133b:	fb75b1        	l32r	a11, 110 (4000 <find_phase+0x8>)
    133e:	fb84c1        	l32r	a12, 150 (fffe0000 <_end+0xfffd41c4>)
    1341:	fb8661        	l32r	a6, 15c (20000 <_end+0x141c4>)
    1344:	364c34        	ae_cvtq48a32s	aeq1, a12
    1347:	07cd           	mov.n	a12, a7
    1349:	78a576        	loopgtz	a5, 13c5 <voiced_decision+0x40d>
    134c:	400c04        	ae_lp16f.i	aep0, a12, 0
    134f:	7f9de2        	l16si	a14, a13, 254
    1352:	dd2b           	addi.n	a13, a13, 2
    1354:	cc2b           	addi.n	a12, a12, 2
    1356:	3e3ea6        	blti	a14, 3, 1398 <voiced_decision+0x3e0>
    1359:	880c           	movi.n	a8, 8
    135b:	16a8e7        	bge	a8, a14, 1375 <voiced_decision+0x3bd>
    135e:	fc043ae0ef 	{ ae_sllisq56s	aeq3, aeq2, 2; ae_cvtq48p24s.h	aeq0, aep0 }
    1363:	06fa14        	ae_subsq56s	aeq3, aeq3, aeq2
    1366:	098394        	ae_ltq56s	b9, aeq3, aeq0
    1369:	360434        	ae_cvtq48a32s	aeq0, a4
    136c:	050976        	bf	b9, 1375 <voiced_decision+0x3bd>
    136f:	065804        	ae_addsq56s	aeq1, aeq1, aeq0
    1372:	001246        	j	13bf <voiced_decision+0x407>

00001375 <voiced_decision+0x3bd>:
    1375:	166ea6        	blti	a14, 6, 138f <voiced_decision+0x3d7>
    1378:	fc043b20df 	{ ae_sraiq56	aeq3, aeq2, 1; ae_cvtq48p24s.h	aeq0, aep0 }
    137d:	06fa04        	ae_addsq56s	aeq3, aeq3, aeq2
    1380:	0983a4        	ae_ltq56s	b10, aeq3, aeq0
    1383:	360634        	ae_cvtq48a32s	aeq0, a6
    1386:	050a76        	bf	b10, 138f <voiced_decision+0x3d7>
    1389:	065804        	ae_addsq56s	aeq1, aeq1, aeq0
    138c:	000bc6        	j	13bf <voiced_decision+0x407>

0000138f <voiced_decision+0x3d7>:
    138f:	36ca34        	ae_cvtq48a32s	aeq3, a10
    1392:	065b04        	ae_addsq56s	aeq1, aeq1, aeq3
    1395:	000986        	j	13bf <voiced_decision+0x407>

00001398 <voiced_decision+0x3e0>:
    1398:	1d1e66        	bnei	a14, 1, 13b9 <voiced_decision+0x401>
    139b:	302bb4        	ae_cvtp24a16x2.ll	aep2, a11, a11
    139e:	36e054        	ae_sllisq56s	aeq3, aeq2, 1
    13a1:	03a884        	ae_mulafq32sp16s.h	aeq3, aeq2, aep2
    13a4:	0a0884        	ae_cvtq48p24s.h	aeq0, aep0
    13a7:	09b0b4        	ae_ltq56s	b11, aeq0, aeq3
    13aa:	fb6d91        	l32r	a9, 160 (c148 <_end+0x30c>)
    13ad:	360934        	ae_cvtq48a32s	aeq0, a9
    13b0:	050b76        	bf	b11, 13b9 <voiced_decision+0x401>
    13b3:	065814        	ae_subsq56s	aeq1, aeq1, aeq0
    13b6:	000146        	j	13bf <voiced_decision+0x407>

000013b9 <voiced_decision+0x401>:
    13b9:	36cf34        	ae_cvtq48a32s	aeq3, a15
    13bc:	065b14        	ae_subsq56s	aeq1, aeq1, aeq3
    13bf:	14c1e2        	addi	a14, a1, 20
    13c2:	621e04        	ae_sq32f.i	aeq1, a14, 0

000013c5 <voiced_decision+0x40d>:
    13c5:	91b8           	l32i.n	a11, a1, 36

000013c7 <voiced_decision+0x40f>:
    13c7:	fb4181        	l32r	a8, cc (9240 <xt_memcpy>)
    13ca:	6a2392        	l32i	a9, a3, 0x1a8
    13cd:	8e7c           	movi.n	a14, -8
    13cf:	8f0c           	movi.n	a15, 8
    13d1:	11c5e0        	slli	a12, a5, 2
    13d4:	05d2a2        	addmi	a10, a2, 0x500
    13d7:	f9ebc041de 	{ addi	a13, a1, 4; ae_roundsp16q48sym	aep3, aeq1 }
    13dc:	423d04        	ae_sp16f.l.i	aep3, a13, 0
    13df:	0291d2        	l16si	a13, a1, 4
    13e2:	6ccaa2        	addi	a10, a10, 108
    13e5:	41c1c0        	srli	a12, a12, 1
    13e8:	43ddf0        	min	a13, a13, a15
    13eb:	53dde0        	max	a13, a13, a14
    13ee:	51d9           	s32i.n	a13, a1, 20
    13f0:	99da           	add.n	a9, a9, a13
    13f2:	0d1c           	movi.n	a13, 16
    13f4:	4399d0        	min	a9, a9, a13
    13f7:	4199           	s32i.n	a9, a1, 16
    13f9:	0d0c           	movi.n	a13, 0
    13fb:	5399d0        	max	a9, a9, a13
    13fe:	6a6392        	s32i	a9, a3, 0x1a8
    1401:	0008e0        	callx8	a8
    1404:	05cd           	mov.n	a12, a5
    1406:	07bd           	mov.n	a11, a7
    1408:	fb3181        	l32r	a8, cc (9240 <xt_memcpy>)
    140b:	05d2a2        	addmi	a10, a2, 0x500
    140e:	42caa2        	addi	a10, a10, 66
    1411:	0008e0        	callx8	a8
    1414:	f01d           	retw.n

00001416 <voiced_decision+0x45e>:
	...

00001418 <Pitch_by_Corel>:
    1418:	010136        	entry	a1, 128
    141b:	e81c           	movi.n	a8, 30
    141d:	05d352        	addmi	a5, a3, 0x500
    1420:	fb5141        	l32r	a4, 164 (4ccccd <_end+0x4c0e91>)
    1423:	03d3f2        	addmi	a15, a3, 0x300
    1426:	62c292        	addi	a9, a2, 98
    1429:	e199           	s32i.n	a9, a1, 56
    142b:	b1f9           	s32i.n	a15, a1, 44
    142d:	802fb2        	l32i	a11, a15, 0x200
    1430:	39a444        	ae_movpa24x2	aep2, a4, a4
    1433:	18c562        	addi	a6, a5, 24
    1436:	440c           	movi.n	a4, 4
    1438:	f3f760        	wur.ae_cend0	a6
    143b:	558b           	addi.n	a5, a5, 8
    143d:	f3f650        	wur.ae_cbegin0	a5
    1440:	0be8           	l32i.n	a14, a11, 0
    1442:	060c           	movi.n	a6, 0
    1444:	aca052        	movi	a5, 172
    1447:	fccee2        	addi	a14, a14, -4
    144a:	fc24fb8b4f 	{ ae_lq32f.c	aeq0, a11, a4; nop }
    144f:	0bd8           	l32i.n	a13, a11, 0
    1451:	fc24fbeb4f 	{ ae_lq32f.c	aeq3, a11, a4; nop }
    1456:	0bc8           	l32i.n	a12, a11, 0
    1458:	fccdd2        	addi	a13, a13, -4
    145b:	fc24fbcb4f 	{ ae_lq32f.c	aeq2, a11, a4; nop }
    1460:	0ba8           	l32i.n	a10, a11, 0
    1462:	fcccc2        	addi	a12, a12, -4
    1465:	fc24fbab4f 	{ ae_lq32f.c	aeq1, a11, a4; nop }
    146a:	fc24fb8b4f 	{ ae_lq32f.c	aeq0, a11, a4; nop }
    146f:	fccaa2        	addi	a10, a10, -4
    1472:	806fb2        	s32i	a11, a15, 0x200
    1475:	040c           	movi.n	a4, 0
    1477:	af2c           	movi.n	a15, 42
    1479:	1174f0        	slli	a7, a4, 1
    147c:	0b0c           	movi.n	a11, 0
    147e:	01b9           	s32i.n	a11, a1, 0
    1480:	ff2495727f 	{ sub	a7, a2, a7; ae_zeroq56	aeq3 }
    1485:	fc1c45077e 	{ addi	a7, a7, 80; ae_movq56	aeq0, aeq3 }

0000148a <Pitch_by_Corel+0x72>:
    148a:	e198           	l32i.n	a9, a1, 56
    148c:	608e14        	ae_lq32f.i	aeq2, a14, 4
    148f:	604d14        	ae_lq32f.i	aeq1, a13, 4
    1492:	408914        	ae_lp16f.iu	aep0, a9, 2
    1495:	07a876        	loopgtz	a8, 14a0 <Pitch_by_Corel+0x88>
    1498:	409714        	ae_lp16f.iu	aep1, a7, 2
    149b:	e420ac891f 	{ ae_lp16f.iu	aep0, a9, 2; ae_mulafs56p24s.hh	aeq0, aep0, aep1 }

000014a0 <Pitch_by_Corel+0x88>:
    14a0:	a08430        	addx4	a8, a4, a3
    14a3:	350174        	ae_sraiq56	aeq0, aeq0, 5
    14a6:	060934        	ae_roundsq32asym	aeq0, aeq0
    14a9:	068a04        	ae_addsq56s	aeq2, aeq0, aeq2

000014ac <Pitch_by_Corel+0x94>:
    14ac:	fa767d2c1f 	{ ae_lq32f.i	aeq1, a12, 4; ae_addsq56s	aeq2, aeq2, aeq1 }
    14b1:	fa767d2a1f 	{ ae_lq32f.i	aeq1, a10, 4; ae_addsq56s	aeq2, aeq2, aeq1 }
    14b6:	066904        	ae_addsq56s	aeq1, aeq2, aeq1
    14b9:	369194        	ae_sllisq56s	aeq2, aeq1, 6
    14bc:	066934        	ae_roundsq32asym	aeq1, aeq2
    14bf:	62d854        	ae_sq32f.xu	aeq1, a8, a5
    14c2:	0878           	l32i.n	a7, a8, 0
    14c4:	f9680ffffe 	{ addi	a15, a15, -1; ae_mulrfq32sp24s.h	aeq2, aeq0, aep2 }
    14c9:	537760        	max	a7, a7, a6
    14cc:	0879           	s32i.n	a7, a8, 0
    14ce:	626e14        	ae_sq32f.iu	aeq2, a14, 4
    14d1:	fc1c7d3d1f 	{ ae_lq32f.iu	aeq1, a13, 4; ae_movq56	aeq0, aeq3 }
    14d6:	f869401e8f 	{ movi	a8, 30; ae_mulrfq32sp24s.h	aeq1, aeq1, aep2 }
    14db:	0bab77        	bge	a11, a7, 14ea <Pitch_by_Corel+0xd2>
    14de:	0824a6        	blti	a4, 2, 14ea <Pitch_by_Corel+0xd2>
    14e1:	792c           	movi.n	a9, 39
    14e3:	032947        	blt	a9, a4, 14ea <Pitch_by_Corel+0xd2>
    14e6:	07bd           	mov.n	a11, a7
    14e8:	0179           	s32i.n	a7, a1, 0
    14ea:	621d04        	ae_sq32f.i	aeq1, a13, 0
    14ed:	441b           	addi.n	a4, a4, 1
    14ef:	844d           	ae_sext16	a4, a4
    14f1:	609c14        	ae_lq32f.iu	aeq2, a12, 4
    14f4:	08a494        	ae_mulrfq32sp24s.h	aeq2, aeq2, aep2
    14f7:	1174f0        	slli	a7, a4, 1
    14fa:	622c04        	ae_sq32f.i	aeq2, a12, 0
    14fd:	605a14        	ae_lq32f.iu	aeq1, a10, 4
    1500:	f86955727f 	{ sub	a7, a2, a7; ae_mulrfq32sp24s.h	aeq1, aeq1, aep2 }
    1505:	50c772        	addi	a7, a7, 80
    1508:	621a04        	ae_sq32f.i	aeq1, a10, 0
    150b:	f7bf56        	bnez	a15, 148a <Pitch_by_Corel+0x72>
    150e:	fb09d1        	l32r	a13, 134 (2ccccd <_end+0x2c0e91>)
    1511:	60c104        	ae_lq32f.i	aeq3, a1, 0
    1514:	01d3c2        	addmi	a12, a3, 0x100
    1517:	54ccc2        	addi	a12, a12, 84
    151a:	600c04        	ae_lq32f.i	aeq0, a12, 0
    151d:	06b814        	ae_subsq56s	aeq2, aeq3, aeq0
    1520:	fd80e22ddf 	{ ae_movpa24x2	aep2, a13, a13; ae_satq48s	aeq1, aeq2 }
    1525:	d469b0b18e 	{ l32i	a8, a1, 44; ae_mularfq32sp24s.h	aeq0, aeq1, aep2 }
    152a:	02d3a2        	addmi	a10, a3, 0x200
    152d:	ff00c50aae 	{ addi	a10, a10, 80; ae_satq48s	aeq3, aeq0 }
    1532:	623c04        	ae_sq32f.i	aeq3, a12, 0
    1535:	5523e2        	l32i	a14, a3, 0x154
    1538:	7e2892        	l32i	a9, a8, 0x1f8
    153b:	8d2c           	movi.n	a13, 40
    153d:	0a13c2        	l16ui	a12, a3, 20
    1540:	4399e0        	min	a9, a9, a14
    1543:	7e6892        	s32i	a9, a8, 0x1f8
    1546:	687cb6        	bltui	a12, 7, 15b2 <Pitch_by_Corel+0x19a>
    1549:	1199           	s32i.n	a9, a1, 4
    154b:	040c           	movi.n	a4, 0
    154d:	10ad76        	loopgtz	a13, 1561 <Pitch_by_Corel+0x149>
    1550:	a0f430        	addx4	a15, a4, a3
    1553:	ff5a           	add.n	a15, a15, a5
    1555:	2b2ff2        	l32i	a15, a15, 172
    1558:	441b           	addi.n	a4, a4, 1
    155a:	844d           	ae_sext16	a4, a4
    155c:	439f90        	min	a9, a15, a9
    155f:	1199           	s32i.n	a9, a1, 4

00001561 <Pitch_by_Corel+0x149>:
    1561:	fad4c1        	l32r	a12, b4 (7fffffff <_end+0x7fff41c3>)
    1564:	05d3e2        	addmi	a14, a3, 0x500
    1567:	fb0081        	l32r	a8, 168 (6ccccd <_end+0x6c0e91>)
    156a:	604a04        	ae_lq32f.i	aeq1, a10, 0
    156d:	01d3f2        	addmi	a15, a3, 0x100
    1570:	02d392        	addmi	a9, a3, 0x200
    1573:	d14b           	addi.n	a13, a1, 4
    1575:	608d04        	ae_lq32f.i	aeq2, a13, 0
    1578:	f8c992        	addi	a9, a9, -8
    157b:	58cff2        	addi	a15, a15, 88
    157e:	f3f6f0        	wur.ae_cbegin0	a15
    1581:	f3f790        	wur.ae_cend0	a9
    1584:	061a14        	ae_subsq56s	aeq0, aeq1, aeq2
    1587:	ff00e2388f 	{ ae_movpa24x2	aep3, a8, a8; ae_satq48s	aeq3, aeq0 }
    158c:	08b2d4        	ae_mularfq32sp24s.h	aeq2, aeq3, aep3
    158f:	b198           	l32i.n	a9, a1, 44
    1591:	064a44        	ae_satq48s	aeq1, aeq2
    1594:	621a04        	ae_sq32f.i	aeq1, a10, 0
    1597:	812982        	l32i	a8, a9, 0x204
    159a:	4d0c           	movi.n	a13, 4
    159c:	601ee4        	ae_lq32f.iu	aeq0, a14, -8
    159f:	fc24f808df 	{ ae_sq32f.c	aeq0, a8, a13; nop }
    15a4:	816982        	s32i	a8, a9, 0x204
    15a7:	7e69c2        	s32i	a12, a9, 0x1f8
    15aa:	0a5362        	s16i	a6, a3, 20
    15ad:	000186        	j	15b7 <Pitch_by_Corel+0x19f>

000015b0 <Pitch_by_Corel+0x198>:
	...

000015b2 <Pitch_by_Corel+0x19a>:
    15b2:	ec1b           	addi.n	a14, a12, 1
    15b4:	0a53e2        	s16i	a14, a3, 20

000015b7 <Pitch_by_Corel+0x19f>:
    15b7:	608a04        	ae_lq32f.i	aeq2, a10, 0
    15ba:	02d3c2        	addmi	a12, a3, 0x200
    15bd:	faebd1        	l32r	a13, 16c (59999a <_end+0x58db5e>)
    15c0:	398dd4        	ae_movpa24x2	aep0, a13, a13
    15c3:	fb00054cce 	{ addi	a12, a12, 84; ae_mulfq32sp24s.h	aeq2, aeq2, aep0 }
    15c8:	600c04        	ae_lq32f.i	aeq0, a12, 0
    15cb:	09a004        	ae_ltq56s	b0, aeq0, aeq2
    15ce:	21b9           	s32i.n	a11, a1, 8
    15d0:	fae871        	l32r	a7, 170 (70a3d7 <_end+0x6fe59b>)
    15d3:	021076        	bt	b0, 15d9 <Pitch_by_Corel+0x1c1>
    15d6:	00b9c6        	j	18c1 <Pitch_by_Corel+0x4a9>
    15d9:	fae6e1        	l32r	a14, 174 (733333 <_end+0x7274f7>)
    15dc:	399ee4        	ae_movpa24x2	aep1, a14, a14

000015df <Pitch_by_Corel+0x1c7>:
    15df:	942392        	l32i	a9, a3, 0x250

000015e2 <Pitch_by_Corel+0x1ca>:
    15e2:	2199           	s32i.n	a9, a1, 8
    15e4:	000086        	j	15ea <Pitch_by_Corel+0x1d2>

000015e7 <Pitch_by_Corel+0x1cf>:
    15e7:	399dd4        	ae_movpa24x2	aep1, a13, a13
    15ea:	608c04        	ae_lq32f.i	aeq2, a12, 0
    15ed:	918b           	addi.n	a9, a1, 8
    15ef:	60c904        	ae_lq32f.i	aeq3, a9, 0
    15f2:	066b14        	ae_subsq56s	aeq1, aeq2, aeq3
    15f5:	060944        	ae_satq48s	aeq0, aeq1
    15f8:	089a24        	ae_mulafq32sp24s.h	aeq3, aeq0, aep1
    15fb:	fadff1        	l32r	a15, 178 (3fff <find_phase+0x7>)
    15fe:	064b44        	ae_satq48s	aeq1, aeq3
    1601:	069834        	ae_roundsq32sym	aeq2, aeq1
    1604:	622c04        	ae_sq32f.i	aeq2, a12, 0
    1607:	952382        	l32i	a8, a3, 0x254
    160a:	fac1a1        	l32r	a10, 110 (4000 <find_phase+0x8>)
    160d:	360a34        	ae_cvtq48a32s	aeq0, a10
    1610:	f86b104f8e 	{ blt	a15, a8, 1618 <Pitch_by_Corel+0x200>; ae_maxq56s	aeq0, aeq0, aeq1 }
    1615:	9563a2        	s32i	a10, a3, 0x254

00001618 <Pitch_by_Corel+0x200>:
    1618:	faa3a1        	l32r	a10, a4 (be30 <p_ecnr_mem>)
    161b:	fad881        	l32r	a8, 17c (fb8 <voiced_decision>)
    161e:	0aa8           	l32i.n	a10, a10, 0
    1620:	78c192        	addi	a9, a1, 120
    1623:	6309b4        	ae_sq56s.i	aeq0, a9, -40
    1626:	55daa2        	addmi	a10, a10, 0x5500
    1629:	d0caa2        	addi	a10, a10, -48
    162c:	0008e0        	callx8	a8
    162f:	fa9d91        	l32r	a9, a4 (be30 <p_ecnr_mem>)
    1632:	040c           	movi.n	a4, 0
    1634:	78c1b2        	addi	a11, a1, 120
    1637:	0998           	l32i.n	a9, a9, 0
    1639:	610bb4        	ae_lq56.i	aeq0, a11, -40
    163c:	ab0c           	movi.n	a11, 10
    163e:	18d992        	addmi	a9, a9, 0x1800
    1641:	68c9a2        	addi	a10, a9, 104
    1644:	91a9           	s32i.n	a10, a1, 36
    1646:	992992        	l32i	a9, a9, 0x264
    1649:	08ab76        	loopgtz	a11, 1655 <Pitch_by_Corel+0x23d>
    164c:	a08490        	addx4	a8, a4, a9
    164f:	0869           	s32i.n	a6, a8, 0
    1651:	441b           	addi.n	a4, a4, 1
    1653:	844d           	ae_sext16	a4, a4

00001655 <Pitch_by_Corel+0x23d>:
    1655:	9198           	l32i.n	a9, a1, 36
    1657:	7f2992        	l32i	a9, a9, 0x1fc
    165a:	040c           	movi.n	a4, 0
    165c:	aa2c           	movi.n	a10, 42
    165e:	28c992        	addi	a9, a9, 40
    1661:	0caa76        	loopgtz	a10, 1671 <Pitch_by_Corel+0x259>
    1664:	908430        	addx2	a8, a4, a3
    1667:	441b           	addi.n	a4, a4, 1
    1669:	fc1882        	l16ui	a8, a8, 0x1f8
    166c:	09c984        	ae_s16ip	a8, a9, 2
    166f:	844d           	ae_sext16	a4, a4
    1671:	6e2c           	movi.n	a14, 38
    1673:	090c           	movi.n	a9, 0
    1675:	240c           	movi.n	a4, 2
    1677:	04aff2        	movi	a15, -252
    167a:	91d8           	l32i.n	a13, a1, 36
    167c:	234b           	addi.n	a2, a3, 4
    167e:	102382        	l32i	a8, a3, 64
    1681:	c35a           	add.n	a12, a3, a5
    1683:	0cad           	mov.n	a10, a12
    1685:	6389           	s32i.n	a8, a3, 24
    1687:	a129           	s32i.n	a2, a1, 40
    1689:	7f2dd2        	l32i	a13, a13, 0x1fc
    168c:	020c           	movi.n	a2, 0
    168e:	580c           	movi.n	a8, 5
    1690:	2ccdd2        	addi	a13, a13, 44
    1693:	80ddf0        	add	a13, a13, a15
    1696:	90f430        	addx2	a15, a4, a3

00001699 <Pitch_by_Corel+0x281>:
    1699:	404304        	ae_lp16f.i	aep4, a3, 0
    169c:	d572efcfbe 	{ l16si	a11, a15, 0x1f8; ae_mulfq32sp16u.h	aeq3, aeq0, aep4 }
    16a1:	06a876        	loopgtz	a8, 16ab <Pitch_by_Corel+0x293>
    16a4:	0a88           	l32i.n	a8, a10, 0
    16a6:	aa4b           	addi.n	a10, a10, 4
    16a8:	539890        	max	a9, a8, a9

000016ab <Pitch_by_Corel+0x293>:
    16ab:	a0a430        	addx4	a10, a4, a3
    16ae:	607a54        	ae_lq32f.xu	aeq1, a10, a5
    16b1:	3590f4        	ae_sraiq56	aeq2, aeq1, 3
    16b4:	09a314        	ae_ltq56s	b1, aeq3, aeq2
    16b7:	ee0b           	addi.n	a14, a14, -1
    16b9:	cc4b           	addi.n	a12, a12, 4
    16bb:	210176        	bf	b1, 16e0 <Pitch_by_Corel+0x2c8>
    16be:	0a88           	l32i.n	a8, a10, 0
    16c0:	c08890        	sub	a8, a8, a9
    16c3:	17c856        	bnez	a8, 1843 <Pitch_by_Corel+0x42b>
    16c6:	7e9d92        	l16si	a9, a13, 252
    16c9:	60c104        	ae_lq32f.i	aeq3, a1, 0
    16cc:	39b774        	ae_movpa24x2	aep3, a7, a7
    16cf:	17f956        	bnez	a9, 1852 <Pitch_by_Corel+0x43a>
    16d2:	7d9da2        	l16si	a10, a13, 250
    16d5:	021ae6        	bgei	a10, 1, 16db <Pitch_by_Corel+0x2c3>
    16d8:	005b06        	j	1848 <Pitch_by_Corel+0x430>
    16db:	0abd           	mov.n	a11, a10
    16dd:	005c46        	j	1852 <Pitch_by_Corel+0x43a>

000016e0 <Pitch_by_Corel+0x2c8>:
    16e0:	06bd           	mov.n	a11, a6
    16e2:	000446        	j	16f7 <Pitch_by_Corel+0x2df>

000016e5 <Pitch_by_Corel+0x2cd>:
    16e5:	60c104        	ae_lq32f.i	aeq3, a1, 0
    16e8:	08dce4        	ae_mulfq32sp24s.h	aeq3, aeq3, aep5
    16eb:	099324        	ae_ltq56s	b2, aeq3, aeq1
    16ee:	fbcbb2        	addi	a11, a11, -5
    16f1:	53b6b0        	max	a11, a6, a11
    16f4:	c3b920        	movf	a11, a9, b2

000016f7 <Pitch_by_Corel+0x2df>:
    16f7:	dd2b           	addi.n	a13, a13, 2
    16f9:	0cad           	mov.n	a10, a12
    16fb:	090c           	movi.n	a9, 0
    16fd:	580c           	movi.n	a8, 5
    16ff:	fc5fb2        	s16i	a11, a15, 0x1f8
    1702:	441b           	addi.n	a4, a4, 1
    1704:	844d           	ae_sext16	a4, a4
    1706:	90f430        	addx2	a15, a4, a3
    1709:	f8ce56        	bnez	a14, 1699 <Pitch_by_Corel+0x281>
    170c:	14c182        	addi	a8, a1, 20
    170f:	10c192        	addi	a9, a1, 16
    1712:	400304        	ae_lp16f.i	aep0, a3, 0
    1715:	d462ec731f 	{ ae_lp16f.i	aep7, a3, 2; ae_mulfq32sp16u.h	aeq1, aeq0, aep0 }
    171a:	fa9aa1        	l32r	a10, 184 (5d70a4 <_end+0x5cb268>)
    171d:	d47fe26aaf 	{ ae_movpa24x2	aep6, a10, a10; ae_mulfq32sp16u.h	aeq1, aeq1, aep7 }
    1722:	600104        	ae_lq32f.i	aeq0, a1, 0
    1725:	f9793b010f 	{ ae_sraiq56	aeq0, aeq0, 4; ae_mulrfq32sp24s.h	aeq2, aeq1, aep6 }
    172a:	621904        	ae_sq32f.i	aeq1, a9, 0
    172d:	622804        	ae_sq32f.i	aeq2, a8, 0
    1730:	27f216        	beqz	a2, 19b3 <Pitch_by_Corel+0x59b>
    1733:	098534        	ae_leq56s	b3, aeq1, aeq0
    1736:	111376        	bt	b3, 174b <Pitch_by_Corel+0x333>
    1739:	098644        	ae_leq56s	b4, aeq2, aeq0
    173c:	0913a2        	l16ui	a10, a3, 18
    173f:	021476        	bt	b4, 1745 <Pitch_by_Corel+0x32d>
    1742:	0088c6        	j	1969 <Pitch_by_Corel+0x551>
    1745:	022af6        	bgeui	a10, 2, 174b <Pitch_by_Corel+0x333>
    1748:	008746        	j	1969 <Pitch_by_Corel+0x551>

0000174b <Pitch_by_Corel+0x333>:
    174b:	600104        	ae_lq32f.i	aeq0, a1, 0
    174e:	fa8ed1        	l32r	a13, 188 (14000 <_end+0x81c4>)
    1751:	0212e6        	bgei	a2, 1, 1757 <Pitch_by_Corel+0x33f>
    1754:	006106        	j	18dc <Pitch_by_Corel+0x4c4>
    1757:	040c           	movi.n	a4, 0
    1759:	91c8           	l32i.n	a12, a1, 36
    175b:	fa84f1        	l32r	a15, 16c (59999a <_end+0x58db5e>)
    175e:	399ff4        	ae_movpa24x2	aep1, a15, a15
    1761:	f9040781ee 	{ addi	a14, a1, 120; ae_mulfq32sp24s.h	aeq2, aeq0, aep1 }
    1766:	7f2cc2        	l32i	a12, a12, 0x1fc
    1769:	632ea4        	ae_sq56s.i	aeq2, a14, -48

0000176c <Pitch_by_Corel+0x354>:
    176c:	90b4c0        	addx2	a11, a4, a12
    176f:	2bbd           	ae_l16si.n	a11, a11, 0
    1771:	1174f0        	slli	a7, a4, 1
    1774:	909b30        	addx2	a9, a11, a3
    1777:	fc19e2        	l16ui	a14, a9, 0x1f8
    177a:	78c1f2        	addi	a15, a1, 120
    177d:	61cfa4        	ae_lq56.i	aeq3, a15, -48
    1780:	026ef6        	bgeui	a14, 6, 1786 <Pitch_by_Corel+0x36e>
    1783:	002bc6        	j	1836 <Pitch_by_Corel+0x41e>
    1786:	a0eb30        	addx4	a14, a11, a3
    1789:	c1e9           	s32i.n	a14, a1, 48
    178b:	603e54        	ae_lq32f.xu	aeq0, a14, a5
    178e:	098354        	ae_ltq56s	b5, aeq3, aeq0
    1791:	8199           	s32i.n	a9, a1, 32
    1793:	d1e9           	s32i.n	a14, a1, 52
    1795:	021576        	bt	b5, 179b <Pitch_by_Corel+0x383>
    1798:	002686        	j	1836 <Pitch_by_Corel+0x41e>
    179b:	21b9           	s32i.n	a11, a1, 8
    179d:	fa6281        	l32r	a8, 128 (2168 <Xfrac_num_pd_td32>)
    17a0:	0ead           	mov.n	a10, a14
    17a2:	9c0c           	movi.n	a12, 9
    17a4:	0008e0        	callx8	a8
    17a7:	63c8           	l32i.n	a12, a3, 24
    17a9:	61a9           	s32i.n	a10, a1, 24
    17ab:	fa77d1        	l32r	a13, 188 (14000 <_end+0x81c4>)
    17ae:	26bc16        	beqz	a12, 1a1d <Pitch_by_Corel+0x605>
    17b1:	c09ca0        	sub	a9, a12, a10
    17b4:	022d97        	blt	a13, a9, 17ba <Pitch_by_Corel+0x3a2>
    17b7:	009886        	j	1a1d <Pitch_by_Corel+0x605>
    17ba:	b1b8           	l32i.n	a11, a1, 44
    17bc:	fe1bb2        	l16ui	a11, a11, 0x1fc
    17bf:	90cb30        	addx2	a12, a11, a3
    17c2:	fb1ca2        	l16ui	a10, a12, 0x1f6
    17c5:	ae0c           	movi.n	a14, 10
    17c7:	9b0b           	addi.n	a9, a11, -1
    17c9:	30bea7        	bgeu	a14, a10, 17fd <Pitch_by_Corel+0x3e5>

000017cc <Pitch_by_Corel+0x3b4>:
    17cc:	99bd           	ae_zext16	a11, a9

000017ce <Pitch_by_Corel+0x3b6>:
    17ce:	90eb30        	addx2	a14, a11, a3
    17d1:	fc1ee2        	l16ui	a14, a14, 0x1f8
    17d4:	ac0c           	movi.n	a12, 10
    17d6:	a0bb30        	addx4	a11, a11, a3
    17d9:	023ce7        	bltu	a12, a14, 17df <Pitch_by_Corel+0x3c7>
    17dc:	008f46        	j	1a1d <Pitch_by_Corel+0x605>
    17df:	c1c8           	l32i.n	a12, a1, 48
    17e1:	2b2bf2        	l32i	a15, a11, 172
    17e4:	2b2cc2        	l32i	a12, a12, 172
    17e7:	4188           	l32i.n	a8, a1, 16
    17e9:	3b2cf7        	blt	a12, a15, 1828 <Pitch_by_Corel+0x410>
    17ec:	21f5c0        	srai	a15, a12, 5
    17ef:	352f87        	blt	a15, a8, 1828 <Pitch_by_Corel+0x410>
    17f2:	8198           	l32i.n	a9, a1, 32
    17f4:	fc1992        	l16ui	a9, a9, 0x1f8
    17f7:	0d6926        	beqi	a9, 6, 1808 <Pitch_by_Corel+0x3f0>
    17fa:	0087c6        	j	1a1d <Pitch_by_Corel+0x605>

000017fd <Pitch_by_Corel+0x3e5>:
    17fd:	fd1ca2        	l16ui	a10, a12, 0x1fa
    1800:	9b1b           	addi.n	a9, a11, 1
    1802:	c8bea7        	bgeu	a14, a10, 17ce <Pitch_by_Corel+0x3b6>
    1805:	fff0c6        	j	17cc <Pitch_by_Corel+0x3b4>

00001808 <Pitch_by_Corel+0x3f0>:
    1808:	02aef6        	bgeui	a14, 12, 180e <Pitch_by_Corel+0x3f6>
    180b:	008386        	j	1a1d <Pitch_by_Corel+0x605>
    180e:	d1e8           	l32i.n	a14, a1, 52
    1810:	fa5fc1        	l32r	a12, 18c (666666 <_end+0x65a82a>)
    1813:	39acc4        	ae_movpa24x2	aep2, a12, a12
    1816:	604e04        	ae_lq32f.i	aeq1, a14, 0
    1819:	082c54        	ae_mulrfq32sp24s.h	aeq1, aeq1, aep2
    181c:	60ab54        	ae_lq32f.x	aeq2, a11, a5
    181f:	09a164        	ae_ltq56s	b6, aeq1, aeq2
    1822:	021676        	bt	b6, 1828 <Pitch_by_Corel+0x410>
    1825:	007d06        	j	1a1d <Pitch_by_Corel+0x605>

00001828 <Pitch_by_Corel+0x410>:
    1828:	fa1fc1        	l32r	a12, a4 (be30 <p_ecnr_mem>)
    182b:	0cc8           	l32i.n	a12, a12, 0
    182d:	18dcc2        	addmi	a12, a12, 0x1800
    1830:	68ccc2        	addi	a12, a12, 104
    1833:	7f2cc2        	l32i	a12, a12, 0x1fc

00001836 <Pitch_by_Corel+0x41e>:
    1836:	441b           	addi.n	a4, a4, 1
    1838:	844d           	ae_sext16	a4, a4
    183a:	c0e420        	sub	a14, a4, a2
    183d:	f2be56        	bnez	a14, 176c <Pitch_by_Corel+0x354>
    1840:	0027c6        	j	18e3 <Pitch_by_Corel+0x4cb>

00001843 <Pitch_by_Corel+0x42b>:
    1843:	06bd           	mov.n	a11, a6
    1845:	ffab86        	j	16f7 <Pitch_by_Corel+0x2df>

00001848 <Pitch_by_Corel+0x430>:
    1848:	69cc           	bnez.n	a9, 1852 <Pitch_by_Corel+0x43a>
    184a:	7f9d92        	l16si	a9, a13, 254
    184d:	0119a6        	blti	a9, 1, 1852 <Pitch_by_Corel+0x43a>
    1850:	09bd           	mov.n	a11, a9
    1852:	a198           	l32i.n	a9, a1, 40
    1854:	404904        	ae_lp16f.i	aep4, a9, 0
    1857:	03cae4        	ae_mulfq32sp16u.h	aeq3, aeq3, aep4
    185a:	03c2e4        	ae_mulfq32sp16u.h	aeq2, aeq3, aep4
    185d:	78c182        	addi	a8, a1, 120
    1860:	fb0c3a289f 	{ ae_sq56s.i	aeq2, a8, -56; ae_mulfq32sp24s.h	aeq2, aeq2, aep3 }
    1865:	a21b           	addi.n	a10, a2, 1
    1867:	d6c9c0009f 	{ movi	a9, 0; ae_ltq56s	b7, aeq2, aeq1 }
    186c:	fa4581        	l32r	a8, 180 (39999a <_end+0x38db5e>)
    186f:	d6ce22588f 	{ ae_movpa24x2	aep5, a8, a8; ae_ltq56s	b8, aeq3, aeq1 }
    1874:	021776        	bt	b7, 187a <Pitch_by_Corel+0x462>
    1877:	ff9a86        	j	16e5 <Pitch_by_Corel+0x2cd>
    187a:	9188           	l32i.n	a8, a1, 36
    187c:	7f2882        	l32i	a8, a8, 0x1fc
    187f:	9b2b           	addi.n	a9, a11, 2
    1881:	902280        	addx2	a2, a2, a8
    1884:	624d           	ae_s16i.n	a4, a2, 0
    1886:	9a2d           	ae_zext16	a2, a10
    1888:	090876        	bf	b8, 1895 <Pitch_by_Corel+0x47d>

0000188b <Pitch_by_Corel+0x473>:
    188b:	89bd           	ae_sext16	a11, a9

0000188d <Pitch_by_Corel+0x475>:
    188d:	491c           	movi.n	a9, 20
    188f:	43bb90        	min	a11, a11, a9
    1892:	ff9846        	j	16f7 <Pitch_by_Corel+0x2df>

00001895 <Pitch_by_Corel+0x47d>:
    1895:	78c1a2        	addi	a10, a1, 120
    1898:	618a94        	ae_lq56.i	aeq2, a10, -56
    189b:	099294        	ae_ltq56s	b9, aeq2, aeq1
    189e:	9b1b           	addi.n	a9, a11, 1
    18a0:	61ca94        	ae_lq56.i	aeq3, a10, -56
    18a3:	020976        	bf	b9, 18a9 <Pitch_by_Corel+0x491>
    18a6:	fff846        	j	188b <Pitch_by_Corel+0x473>

000018a9 <Pitch_by_Corel+0x491>:
    18a9:	fa3291        	l32r	a9, 174 (733333 <_end+0x7274f7>)
    18ac:	39d994        	ae_movpa24x2	aep5, a9, a9
    18af:	08dce4        	ae_mulfq32sp24s.h	aeq3, aeq3, aep5
    18b2:	09b1a4        	ae_ltq56s	b10, aeq1, aeq3
    18b5:	fecb92        	addi	a9, a11, -2
    18b8:	539690        	max	a9, a6, a9
    18bb:	ce0a76        	bf	b10, 188d <Pitch_by_Corel+0x475>
    18be:	fff246        	j	188b <Pitch_by_Corel+0x473>

000018c1 <Pitch_by_Corel+0x4a9>:
    18c1:	39e774        	ae_movpa24x2	aep6, a7, a7
    18c4:	604a04        	ae_lq32f.i	aeq1, a10, 0
    18c7:	086c64        	ae_mulfq32sp24s.h	aeq1, aeq1, aep6
    18ca:	0990b4        	ae_ltq56s	b11, aeq0, aeq1
    18cd:	fa30d1        	l32r	a13, 190 (7e147b <_end+0x7d563f>)
    18d0:	021b76        	bt	b11, 18d6 <Pitch_by_Corel+0x4be>
    18d3:	002d06        	j	198b <Pitch_by_Corel+0x573>
    18d6:	399dd4        	ae_movpa24x2	aep1, a13, a13
    18d9:	ff4086        	j	15df <Pitch_by_Corel+0x1c7>

000018dc <Pitch_by_Corel+0x4c4>:
    18dc:	91c8           	l32i.n	a12, a1, 36
    18de:	040c           	movi.n	a4, 0
    18e0:	7f2cc2        	l32i	a12, a12, 0x1fc

000018e3 <Pitch_by_Corel+0x4cb>:
    18e3:	1174f0        	slli	a7, a4, 1

000018e6 <Pitch_by_Corel+0x4ce>:
    18e6:	b7ca           	add.n	a11, a7, a12
    18e8:	2bbd           	ae_l16si.n	a11, a11, 0
    18ea:	90eb30        	addx2	a14, a11, a3
    18ed:	fc1ee2        	l16ui	a14, a14, 0x1f8
    18f0:	0913a2        	l16ui	a10, a3, 18
    18f3:	027ef6        	bgeui	a14, 7, 18f9 <Pitch_by_Corel+0x4e1>
    18f6:	002006        	j	197a <Pitch_by_Corel+0x562>
    18f9:	61e8           	l32i.n	a14, a1, 24
    18fb:	63c8           	l32i.n	a12, a3, 24
    18fd:	9bbd           	ae_zext16	a11, a11
    18ff:	0e51b2        	s16i	a11, a1, 28
    1902:	c0fce0        	sub	a15, a12, a14
    1905:	60f1f0        	abs	a15, a15
    1908:	30adf7        	bge	a13, a15, 193c <Pitch_by_Corel+0x524>
    190b:	023af6        	bgeui	a10, 3, 1911 <Pitch_by_Corel+0x4f9>
    190e:	004706        	j	1a2e <Pitch_by_Corel+0x616>
    1911:	4181e0        	srli	a8, a14, 1
    1914:	c08c80        	sub	a8, a12, a8
    1917:	608180        	abs	a8, a8
    191a:	02ad87        	bge	a13, a8, 1920 <Pitch_by_Corel+0x508>
    191d:	004346        	j	1a2e <Pitch_by_Corel+0x616>
    1920:	18c1d2        	addi	a13, a1, 24
    1923:	608d04        	ae_lq32f.i	aeq2, a13, 0
    1926:	35a074        	ae_sraiq56	aeq2, aeq2, 1
    1929:	fbf3c1c1ce 	{ addi	a12, a1, 28; ae_roundsp16q48sym	aep7, aeq2 }
    192e:	427c04        	ae_sp16f.l.i	aep7, a12, 0
    1931:	0e11b2        	l16ui	a11, a1, 28
    1934:	f7cbb2        	addi	a11, a11, -9
    1937:	9bbd           	ae_zext16	a11, a11
    1939:	0e51b2        	s16i	a11, a1, 28

0000193c <Pitch_by_Corel+0x524>:
    193c:	9a1b           	addi.n	a9, a10, 1

0000193e <Pitch_by_Corel+0x526>:
    193e:	b1e8           	l32i.n	a14, a1, 44
    1940:	095392        	s16i	a9, a3, 18
    1943:	fe1ee2        	l16ui	a14, a14, 0x1fc
    1946:	07de16        	beqz	a14, 19c7 <Pitch_by_Corel+0x5af>
    1949:	7369           	s32i.n	a6, a3, 28

0000194b <Pitch_by_Corel+0x533>:
    194b:	b1f8           	l32i.n	a15, a1, 44
    194d:	fe5fb2        	s16i	a11, a15, 0x1fc
    1950:	0b9c           	beqz.n	a11, 1964 <Pitch_by_Corel+0x54c>
    1952:	9c0c           	movi.n	a12, 9
    1954:	f9f581        	l32r	a8, 128 (2168 <Xfrac_num_pd_td32>)
    1957:	a0ab30        	addx4	a10, a11, a3
    195a:	aa5a           	add.n	a10, a10, a5
    195c:	0008e0        	callx8	a8

0000195f <Pitch_by_Corel+0x547>:
    195f:	1063a2        	s32i	a10, a3, 64
    1962:	f01d           	retw.n

00001964 <Pitch_by_Corel+0x54c>:
    1964:	06ad           	mov.n	a10, a6
    1966:	fffd46        	j	195f <Pitch_by_Corel+0x547>

00001969 <Pitch_by_Corel+0x551>:
    1969:	3acc           	bnez.n	a10, 1970 <Pitch_by_Corel+0x558>
    196b:	b1b8           	l32i.n	a11, a1, 44
    196d:	fe5b62        	s16i	a6, a11, 0x1fc

00001970 <Pitch_by_Corel+0x558>:
    1970:	069d           	mov.n	a9, a6
    1972:	0b0c           	movi.n	a11, 0
    1974:	0e51b2        	s16i	a11, a1, 28
    1977:	fff0c6        	j	193e <Pitch_by_Corel+0x526>

0000197a <Pitch_by_Corel+0x562>:
    197a:	3acc           	bnez.n	a10, 1981 <Pitch_by_Corel+0x569>
    197c:	b1c8           	l32i.n	a12, a1, 44
    197e:	fe5c62        	s16i	a6, a12, 0x1fc

00001981 <Pitch_by_Corel+0x569>:
    1981:	069d           	mov.n	a9, a6
    1983:	0b0c           	movi.n	a11, 0
    1985:	0e51b2        	s16i	a11, a1, 28
    1988:	ffec86        	j	193e <Pitch_by_Corel+0x526>

0000198b <Pitch_by_Corel+0x573>:
    198b:	600a04        	ae_lq32f.i	aeq0, a10, 0
    198e:	fa01f1        	l32r	a15, 194 (100000 <_end+0xf41c4>)
    1991:	399ff4        	ae_movpa24x2	aep1, a15, a15
    1994:	081214        	ae_mularfq32sp24s.h	aeq0, aeq0, aep1
    1997:	ff00c0c1ee 	{ addi	a14, a1, 12; ae_satq48s	aeq3, aeq0 }
    199c:	623e04        	ae_sq32f.i	aeq3, a14, 0
    199f:	31a8           	l32i.n	a10, a1, 12
    19a1:	022ab7        	blt	a10, a11, 19a7 <Pitch_by_Corel+0x58f>
    19a4:	ff0fc6        	j	15e7 <Pitch_by_Corel+0x1cf>
    19a7:	0a9d           	mov.n	a9, a10
    19a9:	f9fb81        	l32r	a8, 198 (7fbe77 <_end+0x7f003b>)
    19ac:	399884        	ae_movpa24x2	aep1, a8, a8
    19af:	ff0bc6        	j	15e2 <Pitch_by_Corel+0x1ca>

000019b2 <Pitch_by_Corel+0x59a>:
	...

000019b3 <Pitch_by_Corel+0x59b>:
    19b3:	091392        	l16ui	a9, a3, 18
    19b6:	39cc           	bnez.n	a9, 19bd <Pitch_by_Corel+0x5a5>
    19b8:	b1a8           	l32i.n	a10, a1, 44
    19ba:	fe5a62        	s16i	a6, a10, 0x1fc

000019bd <Pitch_by_Corel+0x5a5>:
    19bd:	069d           	mov.n	a9, a6
    19bf:	0b0c           	movi.n	a11, 0
    19c1:	0e51b2        	s16i	a11, a1, 28
    19c4:	ffdd86        	j	193e <Pitch_by_Corel+0x526>

000019c7 <Pitch_by_Corel+0x5af>:
    19c7:	6369           	s32i.n	a6, a3, 24
    19c9:	0a0c           	movi.n	a10, 0
    19cb:	0b0c           	movi.n	a11, 0
    19cd:	040c           	movi.n	a4, 0
    19cf:	bc2c           	movi.n	a12, 43
    19d1:	10ac76        	loopgtz	a12, 19e5 <Pitch_by_Corel+0x5cd>
    19d4:	90c430        	addx2	a12, a4, a3
    19d7:	fc1cc2        	l16ui	a12, a12, 0x1f8
    19da:	03bac7        	bgeu	a10, a12, 19e1 <Pitch_by_Corel+0x5c9>
    19dd:	0cad           	mov.n	a10, a12
    19df:	04bd           	mov.n	a11, a4

000019e1 <Pitch_by_Corel+0x5c9>:
    19e1:	441b           	addi.n	a4, a4, 1
    19e3:	844d           	ae_sext16	a4, a4

000019e5 <Pitch_by_Corel+0x5cd>:
    19e5:	2f4ab6        	bltui	a10, 4, 1a18 <Pitch_by_Corel+0x600>
    19e8:	a0ab30        	addx4	a10, a11, a3
    19eb:	10c1c2        	addi	a12, a1, 16
    19ee:	f9ebd1        	l32r	a13, 19c (ccccd <_end+0xc0e91>)
    19f1:	39add4        	ae_movpa24x2	aep2, a13, a13
    19f4:	60cc04        	ae_lq32f.i	aeq3, a12, 0
    19f7:	08aad4        	ae_mularfq32sp24s.h	aeq3, aeq3, aep2
    19fa:	60ba54        	ae_lq32f.xu	aeq2, a10, a5
    19fd:	fd84fb218f 	{ ae_sraiq56	aeq2, aeq2, 4; ae_satq48s	aeq1, aeq3 }
    1a02:	09a1c4        	ae_ltq56s	b12, aeq1, aeq2
    1a05:	0f0c76        	bf	b12, 1a18 <Pitch_by_Corel+0x600>
    1a08:	f9c881        	l32r	a8, 128 (2168 <Xfrac_num_pd_td32>)
    1a0b:	9c0c           	movi.n	a12, 9
    1a0d:	0008e0        	callx8	a8

00001a10 <Pitch_by_Corel+0x5f8>:
    1a10:	73a9           	s32i.n	a10, a3, 28
    1a12:	0e11b2        	l16ui	a11, a1, 28
    1a15:	ffcc86        	j	194b <Pitch_by_Corel+0x533>

00001a18 <Pitch_by_Corel+0x600>:
    1a18:	06ad           	mov.n	a10, a6
    1a1a:	fffc86        	j	1a10 <Pitch_by_Corel+0x5f8>

00001a1d <Pitch_by_Corel+0x605>:
    1a1d:	f9a1c1        	l32r	a12, a4 (be30 <p_ecnr_mem>)
    1a20:	0cc8           	l32i.n	a12, a12, 0
    1a22:	18dcc2        	addmi	a12, a12, 0x1800
    1a25:	68ccc2        	addi	a12, a12, 104
    1a28:	7f2cc2        	l32i	a12, a12, 0x1fc
    1a2b:	ffadc6        	j	18e6 <Pitch_by_Corel+0x4ce>

00001a2e <Pitch_by_Corel+0x616>:
    1a2e:	b1d8           	l32i.n	a13, a1, 44
    1a30:	069d           	mov.n	a9, a6
    1a32:	fe5d62        	s16i	a6, a13, 0x1fc
    1a35:	ffc146        	j	193e <Pitch_by_Corel+0x526>

00001a38 <PD_TD_prcs>:
    1a38:	004136        	entry	a1, 32
    1a3b:	f99a31        	l32r	a3, a4 (be30 <p_ecnr_mem>)
    1a3e:	f9d841        	l32r	a4, 1a0 (5514 <beam2_mid_band+0xa0>)
    1a41:	03b8           	l32i.n	a11, a3, 0
    1a43:	2c3c           	movi.n	a12, 50
    1a45:	f9a181        	l32r	a8, cc (9240 <xt_memcpy>)
    1a48:	18db22        	addmi	a2, a11, 0x1800
    1a4b:	9a2222        	l32i	a2, a2, 0x268
    1a4e:	55dbb2        	addmi	a11, a11, 0x5500
    1a51:	14cbb2        	addi	a11, a11, 20
    1a54:	9cc222        	addi	a2, a2, -100
    1a57:	02ad           	mov.n	a10, a2
    1a59:	0008e0        	callx8	a8
    1a5c:	f9d251        	l32r	a5, 1a4 (54d0 <beam2_mid_band+0x5c>)
    1a5f:	03b8           	l32i.n	a11, a3, 0
    1a61:	02ad           	mov.n	a10, a2
    1a63:	f9d181        	l32r	a8, 1a8 (1418 <Pitch_by_Corel>)
    1a66:	55dbb2        	addmi	a11, a11, 0x5500
    1a69:	d0cbb2        	addi	a11, a11, -48
    1a6c:	0008e0        	callx8	a8
    1a6f:	03b8           	l32i.n	a11, a3, 0
    1a71:	f9cd81        	l32r	a8, 1a8 (1418 <Pitch_by_Corel>)
    1a74:	3cc2a2        	addi	a10, a2, 60
    1a77:	bb5a           	add.n	a11, a11, a5
    1a79:	0008e0        	callx8	a8
    1a7c:	78c2b2        	addi	a11, a2, 120
    1a7f:	03a8           	l32i.n	a10, a3, 0
    1a81:	f99281        	l32r	a8, cc (9240 <xt_memcpy>)
    1a84:	2c3c           	movi.n	a12, 50
    1a86:	aa4a           	add.n	a10, a10, a4
    1a88:	0008e0        	callx8	a8
    1a8b:	f01d           	retw.n

00001a8d <PD_TD_prcs+0x55>:
    1a8d:	000000                                        ...

00001a90 <pitch_by_harmonic>:
    1a90:	00c136        	entry	a1, 96
    1a93:	f9c661        	l32r	a6, 1ac (aaaab <_end+0x9ec6f>)
    1a96:	03bd           	mov.n	a11, a3
    1a98:	024d           	mov.n	a4, a2
    1a9a:	f98231        	l32r	a3, a4 (be30 <p_ecnr_mem>)
    1a9d:	0258           	l32i.n	a5, a2, 0
    1a9f:	080c           	movi.n	a8, 0
    1aa1:	0338           	l32i.n	a3, a3, 0
    1aa3:	a1b9           	s32i.n	a11, a1, 40
    1aa5:	145282        	s16i	a8, a2, 40
    1aa8:	55d372        	addmi	a7, a3, 0x5500
    1aab:	53d3e2        	addmi	a14, a3, 0x5300
    1aae:	7a2ed2        	l32i	a13, a14, 0x1e8
    1ab1:	d0c772        	addi	a7, a7, -48
    1ab4:	ecce22        	addi	a2, a14, -20
    1ab7:	46bd16        	beqz	a13, 1f26 <pitch_by_harmonic+0x496>
    1aba:	f980b1        	l32r	a11, bc (80000000 <_end+0x7fff41c4>)
    1abd:	11cd20        	slli	a12, a13, 14
    1ac0:	f9bc81        	l32r	a8, 1b0 (92c8 <__udivdi3>)
    1ac3:	0a0c           	movi.n	a10, 0
    1ac5:	d5d2d0        	extui	a13, a13, 18, 14
    1ac8:	0008e0        	callx8	a8
    1acb:	1c0c           	movi.n	a12, 1
    1acd:	ee3c           	movi.n	a14, 62
    1acf:	01a9           	s32i.n	a10, a1, 0
    1ad1:	02d292        	addmi	a9, a2, 0x200
    1ad4:	8322b2        	l32i	a11, a2, 0x20c
    1ad7:	5d0c           	movi.n	a13, 5
    1ad9:	0859d2        	s16i	a13, a9, 16
    1adc:	021be6        	bgei	a11, 1, 1ae2 <pitch_by_harmonic+0x52>
    1adf:	015cc6        	j	2056 <pitch_by_harmonic+0x5c6>
    1ae2:	f9b4f1        	l32r	a15, 1b4 (54f8 <beam2_mid_band+0x84>)
    1ae5:	398664        	ae_movpa24x2	aep0, a6, a6
    1ae8:	60a3f4        	ae_lq32f.x	aeq2, a3, a15
    1aeb:	fa003d210f 	{ ae_lq32f.i	aeq1, a1, 0; ae_mulfq32sp24s.h	aeq0, aeq2, aep0 }
    1af0:	06da14        	ae_subsq56s	aeq3, aeq1, aeq2
    1af3:	068b44        	ae_satq48s	aeq2, aeq3
    1af6:	067a24        	ae_abssq56s	aeq1, aeq2
    1af9:	099004        	ae_ltq56s	b0, aeq0, aeq1
    1afc:	021076        	bt	b0, 1b02 <pitch_by_harmonic+0x72>
    1aff:	013e06        	j	1ffb <pitch_by_harmonic+0x56b>
    1b02:	0a9982        	l16si	a8, a9, 20
    1b05:	4d3c           	movi.n	a13, 52
    1b07:	0959d2        	s16i	a13, a9, 18
    1b0a:	0338a6        	blti	a8, 3, 1b11 <pitch_by_harmonic+0x81>
    1b0d:	0bad           	mov.n	a10, a11
    1b0f:	01b9           	s32i.n	a11, a1, 0

00001b11 <pitch_by_harmonic+0x81>:
    1b11:	219aa0        	srai	a9, a10, 10
    1b14:	02d2e2        	addmi	a14, a2, 0x200
    1b17:	0d5ec2        	s16i	a12, a14, 26

00001b1a <pitch_by_harmonic+0x8a>:
    1b1a:	826292        	s32i	a9, a2, 0x208
    1b1d:	8162a2        	s32i	a10, a2, 0x204
    1b20:	000106        	j	1b28 <pitch_by_harmonic+0x98>

00001b23 <pitch_by_harmonic+0x93>:
    1b23:	0a0c           	movi.n	a10, 0
    1b25:	7c6ea2        	s32i	a10, a14, 0x1f0

00001b28 <pitch_by_harmonic+0x98>:
    1b28:	021ae6        	bgei	a10, 1, 1b2e <pitch_by_harmonic+0x9e>
    1b2b:	014cc6        	j	2062 <pitch_by_harmonic+0x5d2>
    1b2e:	030c           	movi.n	a3, 0
    1b30:	9149           	s32i.n	a4, a1, 36
    1b32:	a168           	l32i.n	a6, a1, 40
    1b34:	0bd422        	addmi	a2, a4, 0xb00
    1b37:	fcc222        	addi	a2, a2, -4
    1b3a:	a06650        	addx4	a6, a6, a5

00001b3d <pitch_by_harmonic+0xad>:
    1b3d:	1143e0        	slli	a4, a3, 2
    1b40:	a0a350        	addx4	a10, a3, a5
    1b43:	1aa8           	l32i.n	a10, a10, 4
    1b45:	7e92b2        	l16si	a11, a2, 252
    1b48:	f99c81        	l32r	a8, 1b8 (91c <Log2_norm>)
    1b4b:	40eac0        	nsa	a12, a10
    1b4e:	c0bbc0        	sub	a11, a11, a12
    1b51:	401c00        	ssl	a12
    1b54:	a1aa00        	sll	a10, a10
    1b57:	0008e0        	callx8	a8
    1b5a:	1b4c           	movi.n	a11, 65
    1b5c:	331b           	addi.n	a3, a3, 1
    1b5e:	846a           	add.n	a8, a4, a6
    1b60:	08a9           	s32i.n	a10, a8, 0
    1b62:	833d           	ae_sext16	a3, a3
    1b64:	d593b7        	bne	a3, a11, 1b3d <pitch_by_harmonic+0xad>
    1b67:	8169           	s32i.n	a6, a1, 32
    1b69:	84a1c2        	movi	a12, 0x184
    1b6c:	04a192        	movi	a9, 0x104
    1b6f:	1797a2        	l16si	a10, a7, 46
    1b72:	1697b2        	l16si	a11, a7, 44
    1b75:	080c           	movi.n	a8, 0
    1b77:	1d5782        	s16i	a8, a7, 58
    1b7a:	1c5782        	s16i	a8, a7, 56
    1b7d:	a04b60        	addx4	a4, a11, a6
    1b80:	fcc442        	addi	a4, a4, -4
    1b83:	c0aab0        	sub	a10, a10, a11
    1b86:	8aad           	ae_sext16	a10, a10
    1b88:	c1a9           	s32i.n	a10, a1, 48
    1b8a:	021ae6        	bgei	a10, 1, 1b90 <pitch_by_harmonic+0x100>
    1b8d:	002fc6        	j	1c50 <pitch_by_harmonic+0x1c0>
    1b90:	f98b21        	l32r	a2, 1bc (5000000 <_end+0x4ff41c4>)
    1b93:	050c           	movi.n	a5, 0
    1b95:	8169           	s32i.n	a6, a1, 32
    1b97:	04ae32        	movi	a3, 0xfffffe04
    1b9a:	343a           	add.n	a3, a4, a3

00001b9c <pitch_by_harmonic+0x10c>:
    1b9c:	f98981        	l32r	a8, 1c0 (2078 <XMAX6>)
    1b9f:	f4c4a2        	addi	a10, a4, -12
    1ba2:	0008e0        	callx8	a8
    1ba5:	f98681        	l32r	a8, 1c0 (2078 <XMAX6>)
    1ba8:	0a6d           	mov.n	a6, a10
    1baa:	f8c4a2        	addi	a10, a4, -8
    1bad:	0008e0        	callx8	a8
    1bb0:	7f23b2        	l32i	a11, a3, 0x1fc
    1bb3:	8123e2        	l32i	a14, a3, 0x204
    1bb6:	7d2392        	l32i	a9, a3, 0x1f4
    1bb9:	0216b7        	beq	a6, a11, 1bbf <pitch_by_harmonic+0x12f>
    1bbc:	1f9ab7        	bne	a10, a11, 1bdf <pitch_by_harmonic+0x14f>

00001bbf <pitch_by_harmonic+0x12f>:
    1bbf:	992a           	add.n	a9, a9, a2
    1bc1:	0a29b7        	blt	a9, a11, 1bcf <pitch_by_harmonic+0x13f>
    1bc4:	f980d1        	l32r	a13, 1c4 (c000000 <_end+0xbff41c4>)
    1bc7:	7e23c2        	l32i	a12, a3, 0x1f8
    1bca:	ccda           	add.n	a12, a12, a13
    1bcc:	0facb7        	bge	a12, a11, 1bdf <pitch_by_harmonic+0x14f>

00001bcf <pitch_by_harmonic+0x13f>:
    1bcf:	ee2a           	add.n	a14, a14, a2
    1bd1:	242eb7        	blt	a14, a11, 1bf9 <pitch_by_harmonic+0x169>
    1bd4:	f97c81        	l32r	a8, 1c4 (c000000 <_end+0xbff41c4>)
    1bd7:	8023f2        	l32i	a15, a3, 0x200
    1bda:	ff8a           	add.n	a15, a15, a8
    1bdc:	192fb7        	blt	a15, a11, 1bf9 <pitch_by_harmonic+0x169>
    1bdf:	6798           	l32i.n	a9, a7, 24
    1be1:	53c6a0        	max	a12, a6, a10
    1be4:	052916        	beqz	a9, 1c3a <pitch_by_harmonic+0x1aa>
    1be7:	4f9bc7        	bne	a11, a12, 1c3a <pitch_by_harmonic+0x1aa>
    1bea:	8323e2        	l32i	a14, a3, 0x20c
    1bed:	7b23d2        	l32i	a13, a3, 0x1ec
    1bf0:	43dde0        	min	a13, a13, a14
    1bf3:	43adb7        	bge	a13, a11, 1c3a <pitch_by_harmonic+0x1aa>
    1bf6:	000846        	j	1c1b <pitch_by_harmonic+0x18b>

00001bf9 <pitch_by_harmonic+0x169>:
    1bf9:	04ad           	mov.n	a10, a4
    1bfb:	1697b2        	l16si	a11, a7, 44
    1bfe:	f94a81        	l32r	a8, 128 (2168 <Xfrac_num_pd_td32>)
    1c01:	1c0c           	movi.n	a12, 1
    1c03:	bb5a           	add.n	a11, a11, a5
    1c05:	0008e0        	callx8	a8
    1c08:	81d8           	l32i.n	a13, a1, 32
    1c0a:	1d97c2        	l16si	a12, a7, 58
    1c0d:	a0dcd0        	addx4	a13, a12, a13
    1c10:	416da2        	s32i	a10, a13, 0x104
    1c13:	cc1b           	addi.n	a12, a12, 1
    1c15:	1d57c2        	s16i	a12, a7, 58
    1c18:	000786        	j	1c3a <pitch_by_harmonic+0x1aa>

00001c1b <pitch_by_harmonic+0x18b>:
    1c1b:	04ad           	mov.n	a10, a4
    1c1d:	1697b2        	l16si	a11, a7, 44
    1c20:	f94281        	l32r	a8, 128 (2168 <Xfrac_num_pd_td32>)
    1c23:	1c0c           	movi.n	a12, 1
    1c25:	bb5a           	add.n	a11, a11, a5
    1c27:	0008e0        	callx8	a8
    1c2a:	81d8           	l32i.n	a13, a1, 32
    1c2c:	1c97c2        	l16si	a12, a7, 56
    1c2f:	a0dcd0        	addx4	a13, a12, a13
    1c32:	616da2        	s32i	a10, a13, 0x184
    1c35:	cc1b           	addi.n	a12, a12, 1
    1c37:	1c57c2        	s16i	a12, a7, 56
    1c3a:	444b           	addi.n	a4, a4, 4
    1c3c:	334b           	addi.n	a3, a3, 4
    1c3e:	c1e8           	l32i.n	a14, a1, 48
    1c40:	551b           	addi.n	a5, a5, 1
    1c42:	855d           	ae_sext16	a5, a5
    1c44:	c0ee50        	sub	a14, a14, a5
    1c47:	f51e56        	bnez	a14, 1b9c <pitch_by_harmonic+0x10c>
    1c4a:	04a192        	movi	a9, 0x104
    1c4d:	84a1c2        	movi	a12, 0x184

00001c50 <pitch_by_harmonic+0x1c0>:
    1c50:	1d9782        	l16si	a8, a7, 58
    1c53:	8168           	l32i.n	a6, a1, 32
    1c55:	0218e6        	bgei	a8, 1, 1c5b <pitch_by_harmonic+0x1cb>
    1c58:	0104c6        	j	206f <pitch_by_harmonic+0x5df>
    1c5b:	f95ce1        	l32r	a14, 1cc (435e51 <_end+0x42a015>)
    1c5e:	f95ab1        	l32r	a11, 1c8 (1000000 <_end+0xff41c4>)
    1c61:	020c           	movi.n	a2, 0
    1c63:	150c           	movi.n	a5, 1
    1c65:	d69a           	add.n	a13, a6, a9
    1c67:	f6ca           	add.n	a15, a6, a12
    1c69:	1f5752        	s16i	a5, a7, 62
    1c6c:	1e5722        	s16i	a2, a7, 60
    1c6f:	b1f9           	s32i.n	a15, a1, 44
    1c71:	20c7c2        	addi	a12, a7, 32
    1c74:	24c722        	addi	a2, a7, 36
    1c77:	050c           	movi.n	a5, 0

00001c79 <pitch_by_harmonic+0x1e9>:
    1c79:	0215e6        	bgei	a5, 1, 1c7f <pitch_by_harmonic+0x1ef>
    1c7c:	0039c6        	j	1d67 <pitch_by_harmonic+0x2d7>
    1c7f:	8798           	l32i.n	a9, a7, 32
    1c81:	60cdf4        	ae_lq32f.i	aeq3, a13, -4
    1c84:	608d04        	ae_lq32f.i	aeq2, a13, 0
    1c87:	f9d68081ae 	{ addi	a10, a1, 8; ae_subsq56s	aeq1, aeq2, aeq3 }
    1c8c:	355064        	ae_srliq56	aeq1, aeq1, 1
    1c8f:	621a04        	ae_sq32f.i	aeq1, a10, 0
    1c92:	2188           	l32i.n	a8, a1, 8
    1c94:	31cb           	addi.n	a3, a1, 12
    1c96:	214c90        	srai	a4, a9, 12
    1c99:	d28840        	quos	a8, a8, a4
    1c9c:	3189           	s32i.n	a8, a1, 12
    1c9e:	608304        	ae_lq32f.i	aeq2, a3, 0
    1ca1:	3623d4        	ae_sllisq56s	aeq0, aeq2, 15
    1ca4:	f8e3fd6c0f 	{ ae_lq32f.i	aeq3, a12, 0; ae_roundsp16q48sym	aep1, aeq0 }
    1ca9:	039bc4        	ae_mulq32sp16s.h	aeq3, aeq3, aep1
    1cac:	369294        	ae_sllisq56s	aeq2, aeq1, 10
    1caf:	3633d4        	ae_sllisq56s	aeq0, aeq3, 15
    1cb2:	06ca14        	ae_subsq56s	aeq3, aeq0, aeq2
    1cb5:	ff84becbbf 	{ ae_cvtq48a32s	aeq2, a11; ae_absq56	aeq3, aeq3 }
    1cba:	09a314        	ae_ltq56s	b1, aeq3, aeq2
    1cbd:	10c1f2        	addi	a15, a1, 16
    1cc0:	421f04        	ae_sp16f.l.i	aep1, a15, 0
    1cc3:	2b0176        	bf	b1, 1cf2 <pitch_by_harmonic+0x262>
    1cc6:	0891a2        	l16si	a10, a1, 16
    1cc9:	1b9792        	l16si	a9, a7, 54
    1ccc:	361054        	ae_sllisq56s	aeq0, aeq1, 1
    1ccf:	99aa           	add.n	a9, a9, a10
    1cd1:	1b5792        	s16i	a9, a7, 54
    1cd4:	60c204        	ae_lq32f.i	aeq3, a2, 0
    1cd7:	06b804        	ae_addsq56s	aeq2, aeq3, aeq0
    1cda:	060a44        	ae_satq48s	aeq0, aeq2
    1cdd:	620204        	ae_sq32f.i	aeq0, a2, 0
    1ce0:	1b9782        	l16si	a8, a7, 54
    1ce3:	97f8           	l32i.n	a15, a7, 36
    1ce5:	130c           	movi.n	a3, 1
    1ce7:	d2ff80        	quos	a15, a15, a8
    1cea:	11ff60        	slli	a15, a15, 10
    1ced:	87f9           	s32i.n	a15, a7, 32
    1cef:	001e06        	j	1d6b <pitch_by_harmonic+0x2db>

00001cf2 <pitch_by_harmonic+0x262>:
    1cf2:	6a25a6        	blti	a5, 2, 1d60 <pitch_by_harmonic+0x2d0>
    1cf5:	604de4        	ae_lq32f.i	aeq1, a13, -8
    1cf8:	600d04        	ae_lq32f.i	aeq0, a13, 0
    1cfb:	06c914        	ae_subsq56s	aeq3, aeq0, aeq1
    1cfe:	35f064        	ae_srliq56	aeq3, aeq3, 1
    1d01:	623a04        	ae_sq32f.i	aeq3, a10, 0
    1d04:	2188           	l32i.n	a8, a1, 8
    1d06:	d28840        	quos	a8, a8, a4
    1d09:	3189           	s32i.n	a8, a1, 12
    1d0b:	600304        	ae_lq32f.i	aeq0, a3, 0
    1d0e:	3643d4        	ae_sllisq56s	aeq1, aeq0, 15
    1d11:	f9ebbd0c0f 	{ ae_lq32f.i	aeq0, a12, 0; ae_roundsp16q48sym	aep2, aeq1 }
    1d16:	032304        	ae_mulq32sp16s.h	aeq0, aeq0, aep2
    1d19:	367294        	ae_sllisq56s	aeq1, aeq3, 10
    1d1c:	3603d4        	ae_sllisq56s	aeq0, aeq0, 15
    1d1f:	064914        	ae_subsq56s	aeq1, aeq0, aeq1
    1d22:	fd0480003f 	{ movi	a3, 0; ae_absq56	aeq1, aeq1 }
    1d27:	d654b22f0f 	{ ae_sp16f.l.i	aep2, a15, 0; ae_ltq56s	b2, aeq1, aeq2 }
    1d2c:	09fd           	mov.n	a15, a9
    1d2e:	0891a2        	l16si	a10, a1, 16
    1d31:	280276        	bf	b2, 1d5d <pitch_by_harmonic+0x2cd>
    1d34:	1b9792        	l16si	a9, a7, 54
    1d37:	36b054        	ae_sllisq56s	aeq2, aeq3, 1
    1d3a:	99aa           	add.n	a9, a9, a10
    1d3c:	1b5792        	s16i	a9, a7, 54
    1d3f:	604204        	ae_lq32f.i	aeq1, a2, 0
    1d42:	061a04        	ae_addsq56s	aeq0, aeq1, aeq2
    1d45:	068844        	ae_satq48s	aeq2, aeq0
    1d48:	622204        	ae_sq32f.i	aeq2, a2, 0
    1d4b:	1b9782        	l16si	a8, a7, 54
    1d4e:	97f8           	l32i.n	a15, a7, 36
    1d50:	130c           	movi.n	a3, 1
    1d52:	d2ff80        	quos	a15, a15, a8
    1d55:	11ff60        	slli	a15, a15, 10
    1d58:	87f9           	s32i.n	a15, a7, 32
    1d5a:	000346        	j	1d6b <pitch_by_harmonic+0x2db>

00001d5d <pitch_by_harmonic+0x2cd>:
    1d5d:	000286        	j	1d6b <pitch_by_harmonic+0x2db>

00001d60 <pitch_by_harmonic+0x2d0>:
    1d60:	09fd           	mov.n	a15, a9
    1d62:	030c           	movi.n	a3, 0
    1d64:	0000c6        	j	1d6b <pitch_by_harmonic+0x2db>

00001d67 <pitch_by_harmonic+0x2d7>:
    1d67:	87f8           	l32i.n	a15, a7, 32
    1d69:	030c           	movi.n	a3, 0

00001d6b <pitch_by_harmonic+0x2db>:
    1d6b:	f917b1        	l32r	a11, 1c8 (1000000 <_end+0xff41c4>)
    1d6e:	1cc142        	addi	a4, a1, 28
    1d71:	60cc04        	ae_lq32f.i	aeq3, a12, 0
    1d74:	18c182        	addi	a8, a1, 24
    1d77:	14c1a2        	addi	a10, a1, 20
    1d7a:	219bf0        	srai	a9, a15, 11
    1d7d:	a0f560        	addx4	a15, a5, a6
    1d80:	412ff2        	l32i	a15, a15, 0x104
    1d83:	51f9           	s32i.n	a15, a1, 20
    1d85:	604a04        	ae_lq32f.i	aeq1, a10, 0
    1d88:	d29f90        	quos	a9, a15, a9
    1d8b:	6199           	s32i.n	a9, a1, 24
    1d8d:	608804        	ae_lq32f.i	aeq2, a8, 0
    1d90:	3623d4        	ae_sllisq56s	aeq0, aeq2, 15
    1d93:	f9e3fad29f 	{ ae_sllisq56s	aeq2, aeq1, 9; ae_roundsp16q48sym	aep3, aeq0 }
    1d98:	fb2d72340f 	{ ae_sp16f.l.i	aep3, a4, 0; ae_mulq32sp16s.h	aeq3, aeq3, aep3 }
    1d9d:	0e9192        	l16si	a9, a1, 28
    1da0:	3673d4        	ae_sllisq56s	aeq1, aeq3, 15
    1da3:	061a14        	ae_subsq56s	aeq0, aeq1, aeq2
    1da6:	061864        	ae_absq56	aeq0, aeq0
    1da9:	081966        	bnei	a9, 1, 1db5 <pitch_by_harmonic+0x325>
    1dac:	f90981        	l32r	a8, 1d0 (99999a <_end+0x98db5e>)
    1daf:	364834        	ae_cvtq48a32s	aeq1, a8
    1db2:	000386        	j	1dc4 <pitch_by_harmonic+0x334>

00001db5 <pitch_by_harmonic+0x325>:
    1db5:	082966        	bnei	a9, 2, 1dc1 <pitch_by_harmonic+0x331>
    1db8:	f907a1        	l32r	a10, 1d4 (cccccd <_end+0xcc0e91>)
    1dbb:	364a34        	ae_cvtq48a32s	aeq1, a10
    1dbe:	000086        	j	1dc4 <pitch_by_harmonic+0x334>

00001dc1 <pitch_by_harmonic+0x331>:
    1dc1:	364b34        	ae_cvtq48a32s	aeq1, a11
    1dc4:	438c           	beqz.n	a3, 1dcc <pitch_by_harmonic+0x33c>
    1dc6:	39cee4        	ae_movpa24x2	aep4, a14, a14
    1dc9:	084514        	ae_mulrfq32sp24s.l	aeq0, aeq0, aep4

00001dcc <pitch_by_harmonic+0x33c>:
    1dcc:	d648c04dde 	{ addi	a13, a13, 4; ae_ltq56s	b3, aeq0, aeq1 }
    1dd1:	551b           	addi.n	a5, a5, 1
    1dd3:	855d           	ae_sext16	a5, a5
    1dd5:	3c0376        	bf	b3, 1e15 <pitch_by_harmonic+0x385>
    1dd8:	2629a6        	blti	a9, 2, 1e02 <pitch_by_harmonic+0x372>
    1ddb:	1b97a2        	l16si	a10, a7, 54
    1dde:	14c1f2        	addi	a15, a1, 20
    1de1:	608f04        	ae_lq32f.i	aeq2, a15, 0
    1de4:	aa9a           	add.n	a10, a10, a9
    1de6:	1b57a2        	s16i	a10, a7, 54
    1de9:	604204        	ae_lq32f.i	aeq1, a2, 0
    1dec:	061a04        	ae_addsq56s	aeq0, aeq1, aeq2
    1def:	06c844        	ae_satq48s	aeq3, aeq0
    1df2:	623204        	ae_sq32f.i	aeq3, a2, 0
    1df5:	1b9782        	l16si	a8, a7, 54
    1df8:	97f8           	l32i.n	a15, a7, 36
    1dfa:	d2ff80        	quos	a15, a15, a8
    1dfd:	11ff60        	slli	a15, a15, 10
    1e00:	87f9           	s32i.n	a15, a7, 32

00001e02 <pitch_by_harmonic+0x372>:
    1e02:	1e9782        	l16si	a8, a7, 60
    1e05:	881b           	addi.n	a8, a8, 1
    1e07:	1e5782        	s16i	a8, a7, 60
    1e0a:	156907        	bbci	a9, 0, 1e23 <pitch_by_harmonic+0x393>
    1e0d:	090c           	movi.n	a9, 0
    1e0f:	1f5792        	s16i	a9, a7, 62
    1e12:	000346        	j	1e23 <pitch_by_harmonic+0x393>

00001e15 <pitch_by_harmonic+0x385>:
    1e15:	1c97a2        	l16si	a10, a7, 56
    1e18:	a08a60        	addx4	a8, a10, a6
    1e1b:	6168f2        	s32i	a15, a8, 0x184
    1e1e:	aa1b           	addi.n	a10, a10, 1
    1e20:	1c57a2        	s16i	a10, a7, 56

00001e23 <pitch_by_harmonic+0x393>:
    1e23:	1d9792        	l16si	a9, a7, 58
    1e26:	02a597        	bge	a5, a9, 1e2c <pitch_by_harmonic+0x39c>
    1e29:	ff9306        	j	1c79 <pitch_by_harmonic+0x1e9>
    1e2c:	91a8           	l32i.n	a10, a1, 36
    1e2e:	1c9782        	l16si	a8, a7, 56
    1e31:	1e9792        	l16si	a9, a7, 60
    1e34:	145a92        	s16i	a9, a10, 40
    1e37:	6318a6        	blti	a8, 1, 1e9e <pitch_by_harmonic+0x40e>
    1e3a:	050c           	movi.n	a5, 0
    1e3c:	b1b8           	l32i.n	a11, a1, 44
    1e3e:	f8e6d1        	l32r	a13, 1d8 (159999a <_end+0x158db5e>)
    1e41:	368d34        	ae_cvtq48a32s	aeq2, a13

00001e44 <pitch_by_harmonic+0x3b4>:
    1e44:	60cc04        	ae_lq32f.i	aeq3, a12, 0
    1e47:	18c182        	addi	a8, a1, 24
    1e4a:	87a8           	l32i.n	a10, a7, 32
    1e4c:	0b98           	l32i.n	a9, a11, 0
    1e4e:	5199           	s32i.n	a9, a1, 20
    1e50:	21aba0        	srai	a10, a10, 11
    1e53:	d299a0        	quos	a9, a9, a10
    1e56:	6199           	s32i.n	a9, a1, 24
    1e58:	604804        	ae_lq32f.i	aeq1, a8, 0
    1e5b:	3613d4        	ae_sllisq56s	aeq0, aeq1, 15
    1e5e:	fae3c141fe 	{ addi	a15, a1, 20; ae_roundsp16q48sym	aep5, aeq0 }
    1e63:	fb357d0f0f 	{ ae_lq32f.i	aeq0, a15, 0; ae_mulq32sp16s.h	aeq3, aeq3, aep5 }
    1e68:	364254        	ae_sllisq56s	aeq1, aeq0, 9
    1e6b:	3633d4        	ae_sllisq56s	aeq0, aeq3, 15
    1e6e:	fb4680155e 	{ addi	a5, a5, 1; ae_subsq56s	aeq3, aeq0, aeq1 }
    1e73:	ff8481c1ee 	{ addi	a14, a1, 28; ae_absq56	aeq3, aeq3 }
    1e78:	d6d5004bbe 	{ addi	a11, a11, 4; ae_ltq56s	b4, aeq3, aeq2 }
    1e7d:	1c9782        	l16si	a8, a7, 56
    1e80:	425e04        	ae_sp16f.l.i	aep5, a14, 0
    1e83:	120476        	bf	b4, 1e99 <pitch_by_harmonic+0x409>
    1e86:	1e97e2        	l16si	a14, a7, 60
    1e89:	0f0c           	movi.n	a15, 0
    1e8b:	0e91d2        	l16si	a13, a1, 28
    1e8e:	ee1b           	addi.n	a14, a14, 1
    1e90:	1e57e2        	s16i	a14, a7, 60
    1e93:	026d07        	bbci	a13, 0, 1e99 <pitch_by_harmonic+0x409>
    1e96:	1f57f2        	s16i	a15, a7, 62
    1e99:	855d           	ae_sext16	a5, a5
    1e9b:	a52587        	blt	a5, a8, 1e44 <pitch_by_harmonic+0x3b4>

00001e9e <pitch_by_harmonic+0x40e>:
    1e9e:	1f97b2        	l16si	a11, a7, 62
    1ea1:	1e97a2        	l16si	a10, a7, 60
    1ea4:	133b16        	beqz	a11, 1fdb <pitch_by_harmonic+0x54b>
    1ea7:	7798           	l32i.n	a9, a7, 28
    1ea9:	09dc           	bnez.n	a9, 1ebd <pitch_by_harmonic+0x42d>
    1eab:	1e9782        	l16si	a8, a7, 60
    1eae:	0958e6        	bgei	a8, 5, 1ebb <pitch_by_harmonic+0x42b>

00001eb1 <pitch_by_harmonic+0x421>:
    1eb1:	0b0c           	movi.n	a11, 0
    1eb3:	090c           	movi.n	a9, 0
    1eb5:	1f5792        	s16i	a9, a7, 62
    1eb8:	000d06        	j	1ef0 <pitch_by_harmonic+0x460>

00001ebb <pitch_by_harmonic+0x42b>:
    1ebb:	198c           	beqz.n	a9, 1ec0 <pitch_by_harmonic+0x430>

00001ebd <pitch_by_harmonic+0x42d>:
    1ebd:	f03aa6        	blti	a10, 3, 1eb1 <pitch_by_harmonic+0x421>
    1ec0:	87f8           	l32i.n	a15, a7, 32
    1ec2:	f8c6d1        	l32r	a13, 1dc (13ffffff <_end+0x13ff41c3>)
    1ec5:	e82df7        	blt	a13, a15, 1eb1 <pitch_by_harmonic+0x421>
    1ec8:	1897e2        	l16si	a14, a7, 48
    1ecb:	1c3ea6        	blti	a14, 3, 1eeb <pitch_by_harmonic+0x45b>
    1ece:	600c04        	ae_lq32f.i	aeq0, a12, 0
    1ed1:	f8b681        	l32r	a8, 1ac (aaaab <_end+0x9ec6f>)
    1ed4:	28c792        	addi	a9, a7, 40
    1ed7:	604904        	ae_lq32f.i	aeq1, a9, 0
    1eda:	fa46a2688f 	{ ae_movpa24x2	aep6, a8, a8; ae_subsq56s	aeq2, aeq0, aeq1 }
    1edf:	08ec64        	ae_mulfq32sp24s.h	aeq3, aeq1, aep6
    1ee2:	069a64        	ae_absq56	aeq2, aeq2
    1ee5:	09b654        	ae_leq56s	b5, aeq2, aeq3
    1ee8:	c51576        	bt	b5, 1eb1 <pitch_by_harmonic+0x421>
    1eeb:	11aff0        	slli	a10, a15, 1
    1eee:	87a9           	s32i.n	a10, a7, 32
    1ef0:	0e7b16        	beqz	a11, 1fdb <pitch_by_harmonic+0x54b>
    1ef3:	87f8           	l32i.n	a15, a7, 32

00001ef5 <pitch_by_harmonic+0x465>:
    1ef5:	281fa6        	blti	a15, 1, 1f21 <pitch_by_harmonic+0x491>
    1ef8:	600c04        	ae_lq32f.i	aeq0, a12, 0
    1efb:	f8acd1        	l32r	a13, 1ac (aaaab <_end+0x9ec6f>)
    1efe:	28c7b2        	addi	a11, a7, 40
    1f01:	604b04        	ae_lq32f.i	aeq1, a11, 0
    1f04:	fa46a27ddf 	{ ae_movpa24x2	aep7, a13, a13; ae_subsq56s	aeq2, aeq0, aeq1 }
    1f09:	08fd54        	ae_mulrfq32sp24s.l	aeq3, aeq1, aep7
    1f0c:	069a64        	ae_absq56	aeq2, aeq2
    1f0f:	09b264        	ae_ltq56s	b6, aeq2, aeq3
    1f12:	0b0676        	bf	b6, 1f21 <pitch_by_harmonic+0x491>
    1f15:	189792        	l16si	a9, a7, 48
    1f18:	991b           	addi.n	a9, a9, 1

00001f1a <pitch_by_harmonic+0x48a>:
    1f1a:	185792        	s16i	a9, a7, 48
    1f1d:	a7f9           	s32i.n	a15, a7, 40
    1f1f:	f01d           	retw.n

00001f21 <pitch_by_harmonic+0x491>:
    1f21:	090c           	movi.n	a9, 0
    1f23:	fffcc6        	j	1f1a <pitch_by_harmonic+0x48a>

00001f26 <pitch_by_harmonic+0x496>:
    1f26:	7b2eb2        	l32i	a11, a14, 0x1ec
    1f29:	bf6b16        	beqz	a11, 1b23 <pitch_by_harmonic+0x93>
    1f2c:	11cb20        	slli	a12, a11, 14
    1f2f:	d5d2b0        	extui	a13, a11, 18, 14
    1f32:	f89f81        	l32r	a8, 1b0 (92c8 <__udivdi3>)
    1f35:	0a0c           	movi.n	a10, 0
    1f37:	f861b1        	l32r	a11, bc (80000000 <_end+0x7fff41c4>)
    1f3a:	0008e0        	callx8	a8
    1f3d:	f8a891        	l32r	a9, 1e0 (2000000 <_end+0x1ff41c4>)
    1f40:	01a9           	s32i.n	a10, a1, 0
    1f42:	f89ca1        	l32r	a10, 1b4 (54f8 <beam2_mid_band+0x84>)
    1f45:	608104        	ae_lq32f.i	aeq2, a1, 0
    1f48:	35a074        	ae_sraiq56	aeq2, aeq2, 1
    1f4b:	60e3a4        	ae_lq32f.x	aeq3, a3, a10
    1f4e:	066b14        	ae_subsq56s	aeq1, aeq2, aeq3
    1f51:	060944        	ae_satq48s	aeq0, aeq1
    1f54:	fe08bec9ff 	{ ae_cvtq48a32s	aeq3, a9; ae_abssq56s	aeq2, aeq0 }
    1f59:	09b274        	ae_ltq56s	b7, aeq2, aeq3
    1f5c:	1c0c           	movi.n	a12, 1
    1f5e:	0b0776        	bf	b7, 1f6d <pitch_by_harmonic+0x4dd>
    1f61:	60c104        	ae_lq32f.i	aeq3, a1, 0
    1f64:	35f074        	ae_sraiq56	aeq3, aeq3, 1
    1f67:	623104        	ae_sq32f.i	aeq3, a1, 0
    1f6a:	000a06        	j	1f96 <pitch_by_harmonic+0x506>

00001f6d <pitch_by_harmonic+0x4dd>:
    1f6d:	f891e1        	l32r	a14, 1b4 (54f8 <beam2_mid_band+0x84>)
    1f70:	f896d1        	l32r	a13, 1c8 (1000000 <_end+0xff41c4>)
    1f73:	600104        	ae_lq32f.i	aeq0, a1, 0
    1f76:	6063e4        	ae_lq32f.x	aeq1, a3, a14
    1f79:	355074        	ae_sraiq56	aeq1, aeq1, 1
    1f7c:	06c914        	ae_subsq56s	aeq3, aeq0, aeq1
    1f7f:	068b44        	ae_satq48s	aeq2, aeq3
    1f82:	fc88becd7f 	{ ae_cvtq48a32s	aeq1, a13; ae_abssq56s	aeq0, aeq2 }
    1f87:	099084        	ae_ltq56s	b8, aeq0, aeq1
    1f8a:	080876        	bf	b8, 1f96 <pitch_by_harmonic+0x506>
    1f8d:	60c104        	ae_lq32f.i	aeq3, a1, 0
    1f90:	36b054        	ae_sllisq56s	aeq2, aeq3, 1
    1f93:	622104        	ae_sq32f.i	aeq2, a1, 0
    1f96:	d92c           	movi.n	a9, 45
    1f98:	3b2c           	movi.n	a11, 35
    1f9a:	604104        	ae_lq32f.i	aeq1, a1, 0
    1f9d:	01a8           	l32i.n	a10, a1, 0
    1f9f:	02d282        	addmi	a8, a2, 0x200
    1fa2:	00a7d2        	movi	a13, 0x700
    1fa5:	399dd4        	ae_movpa24x2	aep1, a13, a13
    1fa8:	0d58c2        	s16i	a12, a8, 26
    1fab:	8162a2        	s32i	a10, a2, 0x204
    1fae:	f8054041fe 	{ addi	a15, a1, 4; ae_mulfq32sp24s.h	aeq1, aeq1, aep1 }
    1fb3:	21eaa0        	srai	a14, a10, 10
    1fb6:	361154        	ae_sllisq56s	aeq0, aeq1, 5
    1fb9:	f8e38009df 	{ movi	a13, 9; ae_roundsp16q48sym	aep0, aeq0 }
    1fbe:	420f04        	ae_sp16f.l.i	aep0, a15, 0
    1fc1:	0291f2        	l16si	a15, a1, 4
    1fc4:	8262e2        	s32i	a14, a2, 0x208
    1fc7:	0858d2        	s16i	a13, a8, 16
    1fca:	53ffb0        	max	a15, a15, a11
    1fcd:	8ffd           	ae_sext16	a15, a15
    1fcf:	43ff90        	min	a15, a15, a9
    1fd2:	0251f2        	s16i	a15, a1, 4
    1fd5:	0958f2        	s16i	a15, a8, 18
    1fd8:	fed306        	j	1b28 <pitch_by_harmonic+0x98>

00001fdb <pitch_by_harmonic+0x54b>:
    1fdb:	1e9792        	l16si	a9, a7, 60
    1fde:	2c39a6        	blti	a9, 3, 200e <pitch_by_harmonic+0x57e>
    1fe1:	87f8           	l32i.n	a15, a7, 32
    1fe3:	f880e1        	l32r	a14, 1e4 (a8f5c28 <_end+0xa8e9dec>)
    1fe6:	08aef7        	bge	a14, a15, 1ff2 <pitch_by_harmonic+0x562>
    1fe9:	f87f81        	l32r	a8, 1e8 (2eb851ec <_end+0x2eb793b0>)
    1fec:	0228f7        	blt	a8, a15, 1ff2 <pitch_by_harmonic+0x562>
    1fef:	ffc086        	j	1ef5 <pitch_by_harmonic+0x465>

00001ff2 <pitch_by_harmonic+0x562>:
    1ff2:	0f0c           	movi.n	a15, 0
    1ff4:	090c           	movi.n	a9, 0
    1ff6:	8799           	s32i.n	a9, a7, 32
    1ff8:	ffbe46        	j	1ef5 <pitch_by_harmonic+0x465>

00001ffb <pitch_by_harmonic+0x56b>:
    1ffb:	0959e2        	s16i	a14, a9, 18
    1ffe:	2f0c           	movi.n	a15, 2
    2000:	abaa           	add.n	a10, a11, a10
    2002:	0d59f2        	s16i	a15, a9, 26
    2005:	219aa0        	srai	a9, a10, 10
    2008:	11a970        	slli	a10, a9, 9
    200b:	fec2c6        	j	1b1a <pitch_by_harmonic+0x8a>

0000200e <pitch_by_harmonic+0x57e>:
    200e:	3b2966        	bnei	a9, 2, 204d <pitch_by_harmonic+0x5bd>
    2011:	189782        	l16si	a8, a7, 48
    2014:	c8ac           	beqz.n	a8, 2044 <pitch_by_harmonic+0x5b4>
    2016:	87f8           	l32i.n	a15, a7, 32
    2018:	f87591        	l32r	a9, 1ec (1f000000 <_end+0x1eff41c4>)
    201b:	2529f7        	blt	a9, a15, 2044 <pitch_by_harmonic+0x5b4>
    201e:	f874a1        	l32r	a10, 1f0 (bffffff <_end+0xbff41c3>)
    2021:	1faaf7        	bge	a10, a15, 2044 <pitch_by_harmonic+0x5b4>
    2024:	600c04        	ae_lq32f.i	aeq0, a12, 0
    2027:	f861b1        	l32r	a11, 1ac (aaaab <_end+0x9ec6f>)
    202a:	28c7d2        	addi	a13, a7, 40
    202d:	604d04        	ae_lq32f.i	aeq1, a13, 0
    2030:	fb46a22bbf 	{ ae_movpa24x2	aep2, a11, a11; ae_subsq56s	aeq3, aeq0, aeq1 }
    2035:	08a554        	ae_mulrfq32sp24s.l	aeq2, aeq1, aep2
    2038:	06db64        	ae_absq56	aeq3, aeq3
    203b:	09b294        	ae_ltq56s	b9, aeq2, aeq3
    203e:	021976        	bt	b9, 2044 <pitch_by_harmonic+0x5b4>
    2041:	ffac06        	j	1ef5 <pitch_by_harmonic+0x465>

00002044 <pitch_by_harmonic+0x5b4>:
    2044:	0f0c           	movi.n	a15, 0
    2046:	0e0c           	movi.n	a14, 0
    2048:	87e9           	s32i.n	a14, a7, 32
    204a:	ffa9c6        	j	1ef5 <pitch_by_harmonic+0x465>

0000204d <pitch_by_harmonic+0x5bd>:
    204d:	0f0c           	movi.n	a15, 0
    204f:	87f9           	s32i.n	a15, a7, 32
    2051:	0f0c           	movi.n	a15, 0
    2053:	ffa786        	j	1ef5 <pitch_by_harmonic+0x465>

00002056 <pitch_by_harmonic+0x5c6>:
    2056:	0959e2        	s16i	a14, a9, 18
    2059:	0d59c2        	s16i	a12, a9, 26
    205c:	219aa0        	srai	a9, a10, 10
    205f:	feadc6        	j	1b1a <pitch_by_harmonic+0x8a>

00002062 <pitch_by_harmonic+0x5d2>:
    2062:	02d292        	addmi	a9, a2, 0x200
    2065:	080c           	movi.n	a8, 0
    2067:	836282        	s32i	a8, a2, 0x20c
    206a:	0a5982        	s16i	a8, a9, 20
    206d:	f01d           	retw.n

0000206f <pitch_by_harmonic+0x5df>:
    206f:	0f0c           	movi.n	a15, 0
    2071:	0f9d           	mov.n	a9, a15
    2073:	ffa8c6        	j	1f1a <pitch_by_harmonic+0x48a>

00002076 <pitch_by_harmonic+0x5e6>:
	...

00002078 <XMAX6>:
    2078:	004136        	entry	a1, 32
    207b:	0248           	l32i.n	a4, a2, 0
    207d:	530c           	movi.n	a3, 5
    207f:	06a376        	loopgtz	a3, 2089 <XMAX6+0x11>
    2082:	1288           	l32i.n	a8, a2, 4
    2084:	224b           	addi.n	a2, a2, 4
    2086:	534480        	max	a4, a4, a8

00002089 <XMAX6+0x11>:
    2089:	042d           	mov.n	a2, a4
    208b:	f01d           	retw.n

0000208d <XMAX6+0x15>:
    208d:	000000                                        ...

00002090 <Xfrac_num_pd_td16>:
    2090:	008136        	entry	a1, 64
    2093:	5139           	s32i.n	a3, a1, 20
    2095:	4b1c           	movi.n	a11, 20
    2097:	f85781        	l32r	a8, 1f4 (5a8200 <_end+0x59c3c4>)
    209a:	4002f4        	ae_lp16f.i	aep0, a2, -2
    209d:	ff042c221f 	{ ae_lp16f.i	aep2, a2, 2; ae_cvtq48p24s.h	aeq3, aep0 }
    20a2:	fd442c120f 	{ ae_lp16f.i	aep1, a2, 0; ae_cvtq48p24s.h	aeq1, aep2 }
    20a7:	fe240081ae 	{ addi	a10, a1, 8; ae_cvtq48p24s.h	aeq2, aep1 }
    20ac:	f856a2188f 	{ ae_movpa24x2	aep1, a8, a8; ae_subsq56s	aeq0, aeq2, aeq1 }
    20b1:	f80440415e 	{ addi	a5, a1, 4; ae_mulfq32sp24s.h	aeq1, aeq0, aep1 }
    20b6:	f8d6b9810f 	{ ae_sq32f.i	aeq0, a1, 0; ae_subsq56s	aeq0, aeq2, aeq3 }
    20bb:	d64810c43f 	{ add	a12, a4, a3; ae_ltq56s	b0, aeq0, aeq1 }
    20c0:	11cc00        	slli	a12, a12, 16
    20c3:	f98439850f 	{ ae_sq32f.i	aeq0, a5, 0; ae_mulfq32sp24s.l	aeq2, aeq0, aep1 }
    20c8:	2e0076        	bf	b0, 20fa <Xfrac_num_pd_td16+0x6a>
    20cb:	604104        	ae_lq32f.i	aeq1, a1, 0
    20ce:	f83191        	l32r	a9, 194 (100000 <_end+0xf41c4>)
    20d1:	39b994        	ae_movpa24x2	aep3, a9, a9
    20d4:	083d64        	ae_mulfq32sp24s.l	aeq1, aeq1, aep3
    20d7:	099014        	ae_ltq56s	b1, aeq0, aeq1
    20da:	300176        	bf	b1, 210e <Xfrac_num_pd_td16+0x7e>
    20dd:	f84621        	l32r	a2, 1f8 (c28f0000 <_end+0xc28e41c4>)

000020e0 <Xfrac_num_pd_td16+0x50>:
    20e0:	2129           	s32i.n	a2, a1, 8
    20e2:	51c9           	s32i.n	a12, a1, 20
    20e4:	600a04        	ae_lq32f.i	aeq0, a10, 0
    20e7:	3503f4        	ae_sraiq56	aeq0, aeq0, 15
    20ea:	60e1b4        	ae_lq32f.x	aeq3, a1, a11
    20ed:	01f8c4        	ae_addq56	aeq3, aeq3, aeq0
    20f0:	06b834        	ae_roundsq32sym	aeq2, aeq3
    20f3:	622a04        	ae_sq32f.i	aeq2, a10, 0
    20f6:	2128           	l32i.n	a2, a1, 8
    20f8:	f01d           	retw.n

000020fa <Xfrac_num_pd_td16+0x6a>:
    20fa:	604104        	ae_lq32f.i	aeq1, a1, 0
    20fd:	d6c880002f 	{ movi	a2, 0; ae_ltq56s	b2, aeq2, aeq1 }
    2102:	f83fd1        	l32r	a13, 200 (400000 <_end+0x3f41c4>)
    2105:	39cdd4        	ae_movpa24x2	aep4, a13, a13
    2108:	170276        	bf	b2, 2123 <Xfrac_num_pd_td16+0x93>
    210b:	fff446        	j	20e0 <Xfrac_num_pd_td16+0x50>

0000210e <Xfrac_num_pd_td16+0x7e>:
    210e:	369054        	ae_sllisq56s	aeq2, aeq1, 1
    2111:	06ca44        	ae_satq48s	aeq3, aeq2
    2114:	09b034        	ae_ltq56s	b3, aeq0, aeq3
    2117:	f83921        	l32r	a2, 1fc (cccd0000 <_end+0xcccc41c4>)
    211a:	f83be1        	l32r	a14, 208 (e6660000 <_end+0xe66541c4>)
    211d:	170376        	bf	b3, 2138 <Xfrac_num_pd_td16+0xa8>
    2120:	ffef06        	j	20e0 <Xfrac_num_pd_td16+0x50>

00002123 <Xfrac_num_pd_td16+0x93>:
    2123:	084524        	ae_mulfq32sp24s.l	aeq0, aeq0, aep4
    2126:	f83721        	l32r	a2, 204 (ccd0000 <_end+0xccc41c4>)
    2129:	099044        	ae_ltq56s	b4, aeq0, aeq1
    212c:	35c074        	ae_sraiq56	aeq3, aeq0, 1
    212f:	099364        	ae_ltq56s	b6, aeq3, aeq1
    2132:	140476        	bf	b4, 214a <Xfrac_num_pd_td16+0xba>
    2135:	ffe9c6        	j	20e0 <Xfrac_num_pd_td16+0x50>

00002138 <Xfrac_num_pd_td16+0xa8>:
    2138:	f83521        	l32r	a2, 20c (f3330000 <_end+0xf33241c4>)
    213b:	369094        	ae_sllisq56s	aeq2, aeq1, 2
    213e:	06ca44        	ae_satq48s	aeq3, aeq2
    2141:	09b054        	ae_ltq56s	b5, aeq0, aeq3
    2144:	d32e50        	movt	a2, a14, b5
    2147:	ffe546        	j	20e0 <Xfrac_num_pd_td16+0x50>

0000214a <Xfrac_num_pd_td16+0xba>:
    214a:	050676        	bf	b6, 2153 <Xfrac_num_pd_td16+0xc3>
    214d:	f83021        	l32r	a2, 210 (199a0000 <_end+0x199941c4>)
    2150:	ffe306        	j	20e0 <Xfrac_num_pd_td16+0x50>

00002153 <Xfrac_num_pd_td16+0xc3>:
    2153:	f830f1        	l32r	a15, 214 (33330000 <_end+0x333241c4>)
    2156:	f83021        	l32r	a2, 218 (3d710000 <_end+0x3d7041c4>)
    2159:	3580b4        	ae_sraiq56	aeq2, aeq0, 2
    215c:	099274        	ae_ltq56s	b7, aeq2, aeq1
    215f:	d32f70        	movt	a2, a15, b7
    2162:	ffde86        	j	20e0 <Xfrac_num_pd_td16+0x50>

00002165 <Xfrac_num_pd_td16+0xd5>:
    2165:	000000                                        ...

00002168 <Xfrac_num_pd_td32>:
    2168:	008136        	entry	a1, 64
    216b:	5139           	s32i.n	a3, a1, 20
    216d:	4b1c           	movi.n	a11, 20
    216f:	a18b           	addi.n	a10, a1, 8
    2171:	60c214        	ae_lq32f.i	aeq3, a2, 4
    2174:	608204        	ae_lq32f.i	aeq2, a2, 0
    2177:	f81f81        	l32r	a8, 1f4 (5a8200 <_end+0x59c3c4>)
    217a:	398884        	ae_movpa24x2	aep0, a8, a8
    217d:	f9d6bd62ff 	{ ae_lq32f.i	aeq3, a2, -4; ae_subsq56s	aeq1, aeq2, aeq3 }
    2182:	f80179910f 	{ ae_sq32f.i	aeq1, a1, 0; ae_mulfq32sp24s.h	aeq1, aeq1, aep0 }
    2187:	f8d680415e 	{ addi	a5, a1, 4; ae_subsq56s	aeq0, aeq2, aeq3 }
    218c:	d64810c43f 	{ add	a12, a4, a3; ae_ltq56s	b0, aeq0, aeq1 }
    2191:	11cc00        	slli	a12, a12, 16
    2194:	f98039850f 	{ ae_sq32f.i	aeq0, a5, 0; ae_mulfq32sp24s.l	aeq2, aeq0, aep0 }
    2199:	2e0076        	bf	b0, 21cb <Xfrac_num_pd_td32+0x63>
    219c:	604104        	ae_lq32f.i	aeq1, a1, 0
    219f:	f7fd91        	l32r	a9, 194 (100000 <_end+0xf41c4>)
    21a2:	398994        	ae_movpa24x2	aep0, a9, a9
    21a5:	080d64        	ae_mulfq32sp24s.l	aeq1, aeq1, aep0
    21a8:	099014        	ae_ltq56s	b1, aeq0, aeq1
    21ab:	300176        	bf	b1, 21df <Xfrac_num_pd_td32+0x77>
    21ae:	f81221        	l32r	a2, 1f8 (c28f0000 <_end+0xc28e41c4>)

000021b1 <Xfrac_num_pd_td32+0x49>:
    21b1:	2129           	s32i.n	a2, a1, 8
    21b3:	51c9           	s32i.n	a12, a1, 20
    21b5:	600a04        	ae_lq32f.i	aeq0, a10, 0
    21b8:	3503f4        	ae_sraiq56	aeq0, aeq0, 15
    21bb:	60e1b4        	ae_lq32f.x	aeq3, a1, a11
    21be:	01f8c4        	ae_addq56	aeq3, aeq3, aeq0
    21c1:	06b834        	ae_roundsq32sym	aeq2, aeq3
    21c4:	622a04        	ae_sq32f.i	aeq2, a10, 0
    21c7:	2128           	l32i.n	a2, a1, 8
    21c9:	f01d           	retw.n

000021cb <Xfrac_num_pd_td32+0x63>:
    21cb:	604104        	ae_lq32f.i	aeq1, a1, 0
    21ce:	d6c880002f 	{ movi	a2, 0; ae_ltq56s	b2, aeq2, aeq1 }
    21d3:	f80bd1        	l32r	a13, 200 (400000 <_end+0x3f41c4>)
    21d6:	399dd4        	ae_movpa24x2	aep1, a13, a13
    21d9:	170276        	bf	b2, 21f4 <Xfrac_num_pd_td32+0x8c>
    21dc:	fff446        	j	21b1 <Xfrac_num_pd_td32+0x49>

000021df <Xfrac_num_pd_td32+0x77>:
    21df:	369054        	ae_sllisq56s	aeq2, aeq1, 1
    21e2:	06ca44        	ae_satq48s	aeq3, aeq2
    21e5:	09b034        	ae_ltq56s	b3, aeq0, aeq3
    21e8:	f80521        	l32r	a2, 1fc (cccd0000 <_end+0xcccc41c4>)
    21eb:	f807e1        	l32r	a14, 208 (e6660000 <_end+0xe66541c4>)
    21ee:	140376        	bf	b3, 2206 <Xfrac_num_pd_td32+0x9e>
    21f1:	ffef06        	j	21b1 <Xfrac_num_pd_td32+0x49>

000021f4 <Xfrac_num_pd_td32+0x8c>:
    21f4:	081524        	ae_mulfq32sp24s.l	aeq0, aeq0, aep1
    21f7:	099044        	ae_ltq56s	b4, aeq0, aeq1
    21fa:	f80221        	l32r	a2, 204 (ccd0000 <_end+0xccc41c4>)
    21fd:	358074        	ae_sraiq56	aeq2, aeq0, 1
    2200:	140476        	bf	b4, 2218 <Xfrac_num_pd_td32+0xb0>
    2203:	ffea86        	j	21b1 <Xfrac_num_pd_td32+0x49>

00002206 <Xfrac_num_pd_td32+0x9e>:
    2206:	f80121        	l32r	a2, 20c (f3330000 <_end+0xf33241c4>)
    2209:	369094        	ae_sllisq56s	aeq2, aeq1, 2
    220c:	06ca44        	ae_satq48s	aeq3, aeq2
    220f:	09b054        	ae_ltq56s	b5, aeq0, aeq3
    2212:	d32e50        	movt	a2, a14, b5
    2215:	ffe606        	j	21b1 <Xfrac_num_pd_td32+0x49>

00002218 <Xfrac_num_pd_td32+0xb0>:
    2218:	06ca44        	ae_satq48s	aeq3, aeq2
    221b:	099364        	ae_ltq56s	b6, aeq3, aeq1
    221e:	f7fc21        	l32r	a2, 210 (199a0000 <_end+0x199941c4>)
    2221:	f7fcf1        	l32r	a15, 214 (33330000 <_end+0x333241c4>)
    2224:	020676        	bf	b6, 222a <Xfrac_num_pd_td32+0xc2>
    2227:	ffe186        	j	21b1 <Xfrac_num_pd_td32+0x49>

0000222a <Xfrac_num_pd_td32+0xc2>:
    222a:	f7fb21        	l32r	a2, 218 (3d710000 <_end+0x3d7041c4>)
    222d:	3580b4        	ae_sraiq56	aeq2, aeq0, 2
    2230:	06ca44        	ae_satq48s	aeq3, aeq2
    2233:	099374        	ae_ltq56s	b7, aeq3, aeq1
    2236:	d32f70        	movt	a2, a15, b7
    2239:	ffdd06        	j	21b1 <Xfrac_num_pd_td32+0x49>

0000223c <SBAEC_INIT>:
    223c:	008136        	entry	a1, 64
    223f:	f79951        	l32r	a5, a4 (be30 <p_ecnr_mem>)
    2242:	0b0c           	movi.n	a11, 0
    2244:	0548           	l32i.n	a4, a5, 0
    2246:	c0a0c2        	movi	a12, 192
    2249:	f79e81        	l32r	a8, c4 (9228 <xt_memset>)
    224c:	3dd422        	addmi	a2, a4, 0x3d00
    224f:	10c272        	addi	a7, a2, 16
    2252:	3ed442        	addmi	a4, a4, 0x3e00
    2255:	d0c262        	addi	a6, a2, -48
    2258:	5169           	s32i.n	a6, a1, 20
    225a:	90c442        	addi	a4, a4, -112
    225d:	50c262        	addi	a6, a2, 80
    2260:	88c222        	addi	a2, a2, -120
    2263:	02ad           	mov.n	a10, a2
    2265:	0008e0        	callx8	a8
    2268:	0b0c           	movi.n	a11, 0
    226a:	05a8           	l32i.n	a10, a5, 0
    226c:	c0a4c2        	movi	a12, 0x4c0
    226f:	f79581        	l32r	a8, c4 (9228 <xt_memset>)
    2272:	1adaa2        	addmi	a10, a10, 0x1a00
    2275:	70caa2        	addi	a10, a10, 112
    2278:	0008e0        	callx8	a8
    227b:	f79331        	l32r	a3, c8 (be38 <aec_nr_para>)
    227e:	8d1c           	movi.n	a13, 24
    2280:	03b8           	l32i.n	a11, a3, 0
    2282:	ce0c           	movi.n	a14, 12
    2284:	01d2a2        	addmi	a10, a2, 0x100
    2287:	041bc2        	l16ui	a12, a11, 8
    228a:	d0caa2        	addi	a10, a10, -48
    228d:	41a9           	s32i.n	a10, a1, 16
    228f:	10ece0        	and	a14, a12, a14
    2292:	13ae66        	bnei	a14, 12, 22a9 <SBAEC_INIT+0x6d>
    2295:	f7e191        	l32r	a9, 21c (fff7 <_end+0x41bb>)
    2298:	7f1c           	movi.n	a15, 23
    229a:	131b82        	l16ui	a8, a11, 38
    229d:	10cc90        	and	a12, a12, a9
    22a0:	045bc2        	s16i	a12, a11, 8
    22a3:	02bf87        	bgeu	a15, a8, 22a9 <SBAEC_INIT+0x6d>
    22a6:	135bd2        	s16i	a13, a11, 38
    22a9:	094c           	movi.n	a9, 64
    22ab:	67ec37        	bbsi	a12, 3, 2316 <SBAEC_INIT+0xda>
    22ae:	e39bc2        	l16si	a12, a11, 0x1c6
    22b1:	1cdc           	bnez.n	a12, 22c6 <SBAEC_INIT+0x8a>
    22b3:	b25292        	s16i	a9, a2, 0x164
    22b6:	b452d2        	s16i	a13, a2, 0x168
    22b9:	0c2c           	movi.n	a12, 32
    22bb:	0e3c           	movi.n	a14, 48
    22bd:	b352e2        	s16i	a14, a2, 0x166
    22c0:	b552c2        	s16i	a12, a2, 0x16a
    22c3:	001906        	j	232b <SBAEC_INIT+0xef>

000022c6 <SBAEC_INIT+0x8a>:
    22c6:	131bf2        	l16ui	a15, a11, 38
    22c9:	3484c0        	extui	a8, a12, 4, 4
    22cc:	3490c0        	extui	a9, a12, 0, 4
    22cf:	991b           	addi.n	a9, a9, 1
    22d1:	881b           	addi.n	a8, a8, 1
    22d3:	1188d0        	slli	a8, a8, 3
    22d6:	1199e0        	slli	a9, a9, 2
    22d9:	b25292        	s16i	a9, a2, 0x164
    22dc:	b35282        	s16i	a8, a2, 0x166
    22df:	899d           	ae_sext16	a9, a9
    22e1:	43ff90        	min	a15, a15, a9
    22e4:	888d           	ae_sext16	a8, a8
    22e6:	290c           	movi.n	a9, 2
    22e8:	d28890        	quos	a8, a8, a9
    22eb:	888d           	ae_sext16	a8, a8
    22ed:	43ff80        	min	a15, a15, a8
    22f0:	3488c0        	extui	a8, a12, 8, 4
    22f3:	881b           	addi.n	a8, a8, 1
    22f5:	1188e0        	slli	a8, a8, 2
    22f8:	b45282        	s16i	a8, a2, 0x168
    22fb:	888d           	ae_sext16	a8, a8
    22fd:	43ff80        	min	a15, a15, a8
    2300:	348cc0        	extui	a8, a12, 12, 4
    2303:	881b           	addi.n	a8, a8, 1
    2305:	1188e0        	slli	a8, a8, 2
    2308:	b55282        	s16i	a8, a2, 0x16a
    230b:	888d           	ae_sext16	a8, a8
    230d:	43ff80        	min	a15, a15, a8
    2310:	135bf2        	s16i	a15, a11, 38
    2313:	000506        	j	232b <SBAEC_INIT+0xef>

00002316 <SBAEC_INIT+0xda>:
    2316:	b45292        	s16i	a9, a2, 0x168
    2319:	60a0a2        	movi	a10, 96
    231c:	c0a0c2        	movi	a12, 192
    231f:	00a1d2        	movi	a13, 0x100
    2322:	b252d2        	s16i	a13, a2, 0x164
    2325:	b352c2        	s16i	a12, a2, 0x166
    2328:	b552a2        	s16i	a10, a2, 0x16a

0000232b <SBAEC_INIT+0xef>:
    232b:	bbeb           	addi.n	a11, a11, 14
    232d:	f76781        	l32r	a8, cc (9240 <xt_memcpy>)
    2330:	a22b           	addi.n	a10, a2, 2
    2332:	ec0c           	movi.n	a12, 14
    2334:	0008e0        	callx8	a8
    2337:	02ed           	mov.n	a14, a2
    2339:	03b8           	l32i.n	a11, a3, 0
    233b:	f7b981        	l32r	a8, 220 (2440 <Fill_CH_MEM_WB>)
    233e:	05f8           	l32i.n	a15, a5, 0
    2340:	061ba2        	l16ui	a10, a11, 12
    2343:	d81bc2        	l16ui	a12, a11, 0x1b0
    2346:	d99bd2        	l16si	a13, a11, 0x1b2
    2349:	24df92        	addmi	a9, a15, 0x2400
    234c:	f0c992        	addi	a9, a9, -16
    234f:	1152d2        	s16i	a13, a2, 34
    2352:	1052c2        	s16i	a12, a2, 32
    2355:	1adff2        	addmi	a15, a15, 0x1a00
    2358:	70cff2        	addi	a15, a15, 112
    235b:	06cd           	mov.n	a12, a6
    235d:	04dd           	mov.n	a13, a4
    235f:	c61bb2        	l16ui	a11, a11, 0x18c
    2362:	11aac0        	slli	a10, a10, 4
    2365:	92a9           	s32i.n	a10, a2, 36
    2367:	0f52b2        	s16i	a11, a2, 30
    236a:	51a8           	l32i.n	a10, a1, 20
    236c:	07bd           	mov.n	a11, a7
    236e:	0199           	s32i.n	a9, a1, 0
    2370:	0008e0        	callx8	a8
    2373:	51a8           	l32i.n	a10, a1, 20
    2375:	b292b2        	l16si	a11, a2, 0x164
    2378:	1d0c           	movi.n	a13, 1
    237a:	03c8           	l32i.n	a12, a3, 0
    237c:	05e8           	l32i.n	a14, a5, 0
    237e:	f7a981        	l32r	a8, 224 (2428 <Fill_sbco>)
    2381:	169cc2        	l16si	a12, a12, 44
    2384:	19dee2        	addmi	a14, a14, 0x1900
    2387:	542e92        	l32i	a9, a14, 0x150
    238a:	e499           	s32i.n	a9, a4, 56
    238c:	502ee2        	l32i	a14, a14, 0x140
    238f:	d4e9           	s32i.n	a14, a4, 52
    2391:	0008e0        	callx8	a8
    2394:	07ad           	mov.n	a10, a7
    2396:	f7a381        	l32r	a8, 224 (2428 <Fill_sbco>)
    2399:	03c8           	l32i.n	a12, a3, 0
    239b:	b392b2        	l16si	a11, a2, 0x166
    239e:	2d0c           	movi.n	a13, 2
    23a0:	179cc2        	l16si	a12, a12, 46
    23a3:	d2bbd0        	quos	a11, a11, a13
    23a6:	8bbd           	ae_sext16	a11, a11
    23a8:	1d0c           	movi.n	a13, 1
    23aa:	0008e0        	callx8	a8
    23ad:	06ad           	mov.n	a10, a6
    23af:	b492b2        	l16si	a11, a2, 0x168
    23b2:	03c8           	l32i.n	a12, a3, 0
    23b4:	f79c81        	l32r	a8, 224 (2428 <Fill_sbco>)
    23b7:	1d0c           	movi.n	a13, 1
    23b9:	189cc2        	l16si	a12, a12, 48
    23bc:	0008e0        	callx8	a8
    23bf:	04ad           	mov.n	a10, a4
    23c1:	4168           	l32i.n	a6, a1, 16
    23c3:	f79971        	l32r	a7, 228 (1928 <Pitch_by_Corel+0x510>)
    23c6:	b592b2        	l16si	a11, a2, 0x16a
    23c9:	03c8           	l32i.n	a12, a3, 0
    23cb:	f79681        	l32r	a8, 224 (2428 <Fill_sbco>)
    23ce:	1d0c           	movi.n	a13, 1
    23d0:	199cc2        	l16si	a12, a12, 50
    23d3:	0008e0        	callx8	a8
    23d6:	05e8           	l32i.n	a14, a5, 0
    23d8:	03f8           	l32i.n	a15, a3, 0
    23da:	ee7a           	add.n	a14, a14, a7
    23dc:	151fc2        	l16ui	a12, a15, 42
    23df:	021fb2        	l16ui	a11, a15, 4
    23e2:	041fd2        	l16ui	a13, a15, 8
    23e5:	231fa2        	l16ui	a10, a15, 70
    23e8:	051f92        	l16ui	a9, a15, 10
    23eb:	0480d0        	extui	a8, a13, 0, 1
    23ee:	14d1d0        	extui	a13, a13, 1, 2
    23f1:	a45282        	s16i	a8, a2, 0x148
    23f4:	dc1ff2        	l16ui	a15, a15, 0x1b8
    23f7:	f78d81        	l32r	a8, 22c (7fff <ifft_wo+0x107>)
    23fa:	7d5ec2        	s16i	a12, a14, 250
    23fd:	825ed2        	s16i	a13, a14, 0x104
    2400:	62bd           	ae_s16i.n	a11, a2, 0
    2402:	a652a2        	s16i	a10, a2, 0x14c
    2405:	a55292        	s16i	a9, a2, 0x14a
    2408:	155282        	s16i	a8, a2, 42
    240b:	7e46f2        	s8i	a15, a6, 126
    240e:	03d8           	l32i.n	a13, a3, 0
    2410:	dc1dd2        	l16ui	a13, a13, 0x1b8
    2413:	442ee2        	l32i	a14, a14, 0x110
    2416:	2466e2        	s32i	a14, a6, 144
    2419:	41d8d0        	srli	a13, a13, 8
    241c:	7f46d2        	s8i	a13, a6, 127
    241f:	f01d           	retw.n

00002421 <SBAEC_INIT+0x1e5>:
    2421:	00000000 36000000                                .......

00002428 <Fill_sbco>:
    2428:	004136        	entry	a1, 32
    242b:	115232        	s16i	a3, a2, 34
    242e:	125252        	s16i	a5, a2, 36
    2431:	118400        	slli	a8, a4, 16
    2434:	f77e61        	l32r	a6, 22c (7fff <ifft_wo+0x107>)
    2437:	105262        	s16i	a6, a2, 32
    243a:	5289           	s32i.n	a8, a2, 20
    243c:	4289           	s32i.n	a8, a2, 16
    243e:	f01d           	retw.n

00002440 <Fill_CH_MEM_WB>:
    2440:	004136        	entry	a1, 32
    2443:	8188           	l32i.n	a8, a1, 32
    2445:	b596e2        	l16si	a14, a6, 0x16a
    2448:	b496a2        	l16si	a10, a6, 0x168
    244b:	b296c2        	l16si	a12, a6, 0x164
    244e:	b396b2        	l16si	a11, a6, 0x166
    2451:	a279           	s32i.n	a7, a2, 40
    2453:	909c70        	addx2	a9, a12, a7
    2456:	a399           	s32i.n	a9, a3, 40
    2458:	90db90        	addx2	a13, a11, a9
    245b:	a4d9           	s32i.n	a13, a4, 40
    245d:	90dad0        	addx2	a13, a10, a13
    2460:	a5d9           	s32i.n	a13, a5, 40
    2462:	90eed0        	addx2	a14, a14, a13
    2465:	90cce0        	addx2	a12, a12, a14
    2468:	90bbc0        	addx2	a11, a11, a12
    246b:	90aab0        	addx2	a10, a10, a11
    246e:	b2e9           	s32i.n	a14, a2, 44
    2470:	a2f8           	l32i.n	a15, a2, 40
    2472:	a4e8           	l32i.n	a14, a4, 40
    2474:	b3c9           	s32i.n	a12, a3, 44
    2476:	b4b9           	s32i.n	a11, a4, 44
    2478:	28c8c2        	addi	a12, a8, 40
    247b:	50c8b2        	addi	a11, a8, 80
    247e:	b5a9           	s32i.n	a10, a5, 44
    2480:	c399           	s32i.n	a9, a3, 48
    2482:	64c8a2        	addi	a10, a8, 100
    2485:	78c892        	addi	a9, a8, 120
    2488:	c2f9           	s32i.n	a15, a2, 48
    248a:	c4e9           	s32i.n	a14, a4, 48
    248c:	c5d9           	s32i.n	a13, a5, 48
    248e:	d389           	s32i.n	a8, a3, 52
    2490:	f3c9           	s32i.n	a12, a3, 60
    2492:	01d882        	addmi	a8, a8, 0x100
    2495:	d2b9           	s32i.n	a11, a2, 52
    2497:	8cc8c2        	addi	a12, a8, -116
    249a:	a0c8b2        	addi	a11, a8, -96
    249d:	d4a9           	s32i.n	a10, a4, 52
    249f:	f299           	s32i.n	a9, a2, 60
    24a1:	c8c8a2        	addi	a10, a8, -56
    24a4:	f0c892        	addi	a9, a8, -16
    24a7:	f4c9           	s32i.n	a12, a4, 60
    24a9:	884b           	addi.n	a8, a8, 4
    24ab:	f5b9           	s32i.n	a11, a5, 60
    24ad:	e3a9           	s32i.n	a10, a3, 56
    24af:	e299           	s32i.n	a9, a2, 56
    24b1:	e489           	s32i.n	a8, a4, 56
    24b3:	f01d           	retw.n

000024b5 <Fill_CH_MEM_WB+0x75>:
    24b5:	000000                                        ...

000024b8 <common_x_pow>:
    24b8:	006136        	entry	a1, 48
    24bb:	f75f91        	l32r	a9, 238 (b4f0 <immediate_num>)
    24be:	36c434        	ae_cvtq48a32s	aeq3, a4
    24c1:	fe84bec33f 	{ ae_cvtq48a32s	aeq0, a3; ae_absq56	aeq2, aeq3 }
    24c6:	065864        	ae_absq56	aeq1, aeq0
    24c9:	d65413622f 	{ or	a6, a2, a2; ae_ltq56s	b0, aeq1, aeq2 }
    24ce:	f75851        	l32r	a5, 230 (200000 <_end+0x1f41c4>)
    24d1:	441904        	ae_lp16x2f.i	aep1, a9, 0
    24d4:	200076        	bf	b0, 24f8 <common_x_pow+0x40>
    24d7:	fb36fec57f 	{ ae_cvtq48a32s	aeq1, a5; ae_subq56	aeq3, aeq2, aeq1 }
    24dc:	d65d80012f 	{ movi	a2, 1; ae_ltq56s	b6, aeq1, aeq3 }
    24e1:	f75481        	l32r	a8, 234 (2aaa00 <_end+0x29ebc4>)
    24e4:	ff0462088f 	{ ae_movpa24x2	aep0, a8, a8; ae_movq56	aeq3, aeq0 }
    24e9:	080676        	bf	b6, 24f5 <common_x_pow+0x3d>
    24ec:	030a14        	ae_mulfq32sp16s.l	aeq1, aeq0, aep0
    24ef:	06d934        	ae_roundsq32asym	aeq3, aeq1
    24f2:	ffffc6        	j	24f5 <common_x_pow+0x3d>

000024f5 <common_x_pow+0x3d>:
    24f5:	000046        	j	24fa <common_x_pow+0x42>

000024f8 <common_x_pow+0x40>:
    24f8:	020c           	movi.n	a2, 0

000024fa <common_x_pow+0x42>:
    24fa:	608624        	ae_lq32f.i	aeq2, a6, 8
    24fd:	0f243d263f 	{ ae_lq32f.i	aeq1, a6, 12; ae_mulzaafq32sp16s.lh	aeq2, aeq2, aep1, aeq0, aep1 }
    2502:	c11974        	ae_mulzaafq32sp16s.lh	aeq1, aeq1, aep1, aeq3, aep1
    2505:	06a934        	ae_roundsq32asym	aeq2, aeq2
    2508:	fe2c79a62f 	{ ae_sq32f.i	aeq2, a6, 8; ae_roundsq32asym	aeq2, aeq1 }
    250d:	622634        	ae_sq32f.i	aeq2, a6, 12
    2510:	f01d           	retw.n

00002512 <common_x_pow+0x5a>:
	...

00002514 <ref_gain_adapt>:
    2514:	004136        	entry	a1, 32
    2517:	f74691        	l32r	a9, 230 (200000 <_end+0x1f41c4>)
    251a:	5378           	l32i.n	a7, a3, 20
    251c:	f74881        	l32r	a8, 23c (b4f4 <immediate_num+0x4>)
    251f:	360734        	ae_cvtq48a32s	aeq0, a7
    2522:	0205d6        	bgez	a5, 2546 <ref_gain_adapt+0x32>
    2525:	440804        	ae_lp16x2f.i	aep0, a8, 0
    2528:	059262        	l16si	a6, a2, 10
    252b:	368434        	ae_cvtq48a32s	aeq2, a4
    252e:	038a84        	ae_mulfq32sp16s.h	aeq3, aeq2, aep0
    2531:	116600        	slli	a6, a6, 16
    2534:	364634        	ae_cvtq48a32s	aeq1, a6
    2537:	09b104        	ae_ltq56s	b0, aeq1, aeq3
    253a:	1e0076        	bf	b0, 255c <ref_gain_adapt+0x48>
    253d:	a10004        	ae_mulzaafq32sp16s.ll	aeq0, aeq0, aep0, aeq0, aep0

00002540 <ref_gain_adapt+0x2c>:
    2540:	060934        	ae_roundsq32asym	aeq0, aeq0
    2543:	368704        	ae_trunca32q48	a7, aeq0

00002546 <ref_gain_adapt+0x32>:
    2546:	608344        	ae_lq32f.i	aeq2, a3, 16
    2549:	539790        	max	a9, a7, a9
    254c:	5399           	s32i.n	a9, a3, 20
    254e:	440844        	ae_lp16x2f.i	aep0, a8, 16
    2551:	c18084        	ae_mulzaafq32sp16s.lh	aeq2, aeq2, aep0, aeq0, aep0
    2554:	066934        	ae_roundsq32asym	aeq1, aeq2
    2557:	621344        	ae_sq32f.i	aeq1, a3, 16
    255a:	f01d           	retw.n

0000255c <ref_gain_adapt+0x48>:
    255c:	440814        	ae_lp16x2f.i	aep0, a8, 4
    255f:	038a84        	ae_mulfq32sp16s.h	aeq3, aeq2, aep0
    2562:	09b114        	ae_ltq56s	b1, aeq1, aeq3
    2565:	050176        	bf	b1, 256e <ref_gain_adapt+0x5a>
    2568:	a10004        	ae_mulzaafq32sp16s.ll	aeq0, aeq0, aep0, aeq0, aep0
    256b:	fff446        	j	2540 <ref_gain_adapt+0x2c>

0000256e <ref_gain_adapt+0x5a>:
    256e:	440824        	ae_lp16x2f.i	aep0, a8, 8
    2571:	038a44        	ae_mulfq32sp16s.h	aeq3, aeq1, aep0
    2574:	09b224        	ae_ltq56s	b2, aeq2, aeq3
    2577:	d5e36d183f 	{ ae_lp16x2f.i	aep1, a8, 12; ae_mulfq32sp16s.l	aeq3, aeq1, aep0 }
    257c:	c00276        	bf	b2, 2540 <ref_gain_adapt+0x2c>
    257f:	09a334        	ae_ltq56s	b3, aeq3, aeq2
    2582:	01d2b2        	addmi	a11, a2, 0x100
    2585:	3a0c           	movi.n	a10, 3
    2587:	051376        	bt	b3, 2590 <ref_gain_adapt+0x7c>
    258a:	4e0bb2        	l8ui	a11, a11, 78
    258d:	af0ab7        	bnone	a10, a11, 2540 <ref_gain_adapt+0x2c>

00002590 <ref_gain_adapt+0x7c>:
    2590:	031214        	ae_mulfq32sp16s.l	aeq0, aeq0, aep1
    2593:	ffea46        	j	2540 <ref_gain_adapt+0x2c>

00002596 <ref_gain_adapt+0x82>:
	...

00002598 <aec_post_calc>:
    2598:	006136        	entry	a1, 48
    259b:	f72991        	l32r	a9, 240 (80000 <_end+0x741c4>)
    259e:	f6e3a1        	l32r	a10, 12c (10000 <_end+0x41c4>)
    25a1:	5d4466        	bnei	a4, 4, 2602 <aec_post_calc+0x6a>
    25a4:	364934        	ae_cvtq48a32s	aeq1, a9
    25a7:	20c2d2        	addi	a13, a2, 32
    25aa:	400d04        	ae_lp16f.i	aep0, a13, 0
    25ad:	d4e3f023be 	{ l32i	a11, a3, 8; ae_mulfq32sp16u.l	aeq1, aeq1, aep0 }
    25b2:	360a34        	ae_cvtq48a32s	aeq0, a10
    25b5:	621104        	ae_sq32f.i	aeq1, a1, 0
    25b8:	d4e2b001ce 	{ l32i	a12, a1, 0; ae_mulfq32sp16u.l	aeq0, aeq0, aep0 }
    25bd:	620104        	ae_sq32f.i	aeq0, a1, 0
    25c0:	53bbc0        	max	a11, a11, a12

000025c3 <aec_post_calc+0x2b>:
    25c3:	01c8           	l32i.n	a12, a1, 0
    25c5:	33a8           	l32i.n	a10, a3, 12
    25c7:	f71f81        	l32r	a8, 244 (81c0 <airoha_divide_limit_1>)
    25ca:	53aac0        	max	a10, a10, a12
    25cd:	43aba0        	min	a10, a11, a10
    25d0:	0008e0        	callx8	a8
    25d3:	4c2244        	ae_lp24.i	aep2, a2, 16
    25d6:	379aa4        	ae_truncp24a32x2	aep1, a10, a10
    25d9:	60c364        	ae_lq32f.i	aeq3, a3, 24
    25dc:	019a34        	ae_mulafp24s.ll	aeq3, aep1, aep2
    25df:	fe3c7d037f 	{ ae_lq32f.i	aeq0, a3, 28; ae_roundsq32asym	aeq2, aeq3 }
    25e4:	622364        	ae_sq32f.i	aeq2, a3, 24
    25e7:	1792e2        	l16si	a14, a2, 46
    25ea:	0292d2        	l16si	a13, a2, 4
    25ed:	403274        	ae_lp16f.i	aep3, a2, 14
    25f0:	f866a162fe 	{ l16si	a15, a2, 44; ae_movp48	aep0, aep1 }
    25f5:	2bade7        	bge	a13, a14, 2624 <aec_post_calc+0x8c>
    25f8:	0a9292        	l16si	a9, a2, 20
    25fb:	411fe6        	bgei	a15, 1, 2640 <aec_post_calc+0xa8>
    25fe:	001006        	j	2642 <aec_post_calc+0xaa>

00002601 <aec_post_calc+0x69>:
	...

00002602 <aec_post_calc+0x6a>:
    2602:	364934        	ae_cvtq48a32s	aeq1, a9
    2605:	1ec2d2        	addi	a13, a2, 30
    2608:	401d04        	ae_lp16f.i	aep1, a13, 0
    260b:	d4e7f023be 	{ l32i	a11, a3, 8; ae_mulfq32sp16u.l	aeq1, aeq1, aep1 }
    2610:	360a34        	ae_cvtq48a32s	aeq0, a10
    2613:	621104        	ae_sq32f.i	aeq1, a1, 0
    2616:	d4e6b001ce 	{ l32i	a12, a1, 0; ae_mulfq32sp16u.l	aeq0, aeq0, aep1 }
    261b:	620104        	ae_sq32f.i	aeq0, a1, 0
    261e:	53bbc0        	max	a11, a11, a12
    2621:	ffe786        	j	25c3 <aec_post_calc+0x2b>

00002624 <aec_post_calc+0x8c>:
    2624:	0b9292        	l16si	a9, a2, 22
    2627:	e90b           	addi.n	a14, a9, -1
    2629:	05ae76        	loopgtz	a14, 2632 <aec_post_calc+0x9a>
    262c:	018174        	ae_mulfp24s.ll	aeq2, aep0, aep1
    262f:	1bad04        	ae_roundsp24q48asym	aep0, aeq2

00002632 <aec_post_calc+0x9a>:
    2632:	070b34        	ae_maxp24s	aep3, aep0, aep3
    2635:	013234        	ae_mulafp24s.ll	aeq0, aep3, aep2
    2638:	06c934        	ae_roundsq32asym	aeq3, aeq0
    263b:	623374        	ae_sq32f.i	aeq3, a3, 28
    263e:	f01d           	retw.n

00002640 <aec_post_calc+0xa8>:
    2640:	992b           	addi.n	a9, a9, 2

00002642 <aec_post_calc+0xaa>:
    2642:	031694        	wur.ae_sar	a9
    2645:	0b1084        	ae_sllssp24s	aep0, aep1
    2648:	fff986        	j	2632 <aec_post_calc+0x9a>

0000264b <aec_post_calc+0xb3>:
	...

0000264c <subband_aec_block>:
    264c:	008136        	entry	a1, 64
    264f:	06cd           	mov.n	a12, a6
    2651:	c3d8           	l32i.n	a13, a3, 48
    2653:	60c344        	ae_lq32f.i	aeq3, a3, 16
    2656:	4e0c           	movi.n	a14, 4
    2658:	119382        	l16si	a8, a3, 34
    265b:	e3b8           	l32i.n	a11, a3, 56
    265d:	5822a2        	l32i	a10, a2, 0x160
    2660:	290c           	movi.n	a9, 2
    2662:	0a23f2        	l32i	a15, a3, 40
    2665:	f3f6f0        	wur.ae_cbegin0	a15
    2668:	d29490        	quos	a9, a4, a9
    266b:	fccaa2        	addi	a10, a10, -4
    266e:	440b04        	ae_lp16x2f.i	aep0, a11, 0
    2671:	fc249188ff 	{ addx2	a8, a8, a15; ae_zeroq56	aeq0 }
    2676:	f3f780        	wur.ae_cend0	a8
    2679:	19a976        	loopgtz	a9, 2696 <subband_aec_block+0x4a>
    267c:	a180f4        	ae_mulzaafq32sp16s.ll	aeq2, aeq3, aep0, aeq3, aep0
    267f:	b108f4        	ae_mulzaafq32sp16s.hh	aeq1, aeq3, aep0, aeq3, aep0
    2682:	f9739abdef 	{ ae_lp16x2f.c	aep3, a13, a14; ae_roundsp16q48asym	aep2, aeq2 }
    2687:	f86bed8b1f 	{ ae_lp16x2f.iu	aep0, a11, 4; ae_roundsp16q48asym	aep1, aeq1 }
    268c:	f06e3e125f 	{ ae_selp24.hl	aep1, aep1, aep2; ae_mulssfp24s.hh.ll	aeq0, aep3, aep3 }
    2691:	e224339a1f 	{ ae_sp16x2f.iu	aep1, a10, 4; ae_mulaafp24s.hh.ll	aeq0, aep1, aep1 }

00002696 <subband_aec_block+0x4a>:
    2696:	31c9           	s32i.n	a12, a1, 12
    2698:	35c234        	ae_sraiq56	aeq3, aeq0, 8
    269b:	618304        	ae_lq56.i	aeq2, a3, 0
    269e:	faf63092ae 	{ l32i	a10, a2, 36; ae_addq56	aeq2, aeq2, aeq3 }
    26a3:	fc80feca7f 	{ ae_cvtq48a32s	aeq1, a10; ae_satq48s	aeq0, aeq2 }
    26a8:	f86b14219f 	{ s32i.n	a9, a1, 8; ae_maxq56s	aeq0, aeq0, aeq1 }
    26ad:	630304        	ae_sq56s.i	aeq0, a3, 0
    26b0:	0125d6        	bgez	a5, 26c6 <subband_aec_block+0x7a>
    26b3:	1093a2        	l16si	a10, a3, 32
    26b6:	f6e481        	l32r	a8, 248 (80b8 <airoha_divide>)
    26b9:	368b04        	ae_trunca32q48	a11, aeq0
    26bc:	11aa70        	slli	a10, a10, 9
    26bf:	0008e0        	callx8	a8
    26c2:	01b9           	s32i.n	a11, a1, 0
    26c4:	11a9           	s32i.n	a10, a1, 4

000026c6 <subband_aec_block+0x7a>:
    26c6:	270c           	movi.n	a7, 2
    26c8:	c3a8           	l32i.n	a10, a3, 48
    26ca:	119362        	l16si	a6, a3, 34
    26cd:	0f2392        	l32i	a9, a3, 60
    26d0:	5822d2        	l32i	a13, a2, 0x160
    26d3:	0b23c2        	l32i	a12, a3, 44
    26d6:	0d23e2        	l32i	a14, a3, 52
    26d9:	fecdd2        	addi	a13, a13, -2
    26dc:	feccc2        	addi	a12, a12, -2
    26df:	feceb2        	addi	a11, a14, -2
    26e2:	fec9f2        	addi	a15, a9, -2
    26e5:	5e14a6        	blti	a4, 1, 2747 <subband_aec_block+0xfb>
    26e8:	00a0e2        	movi	a14, 0

000026eb <subband_aec_block+0x9f>:
    26eb:	0c9d           	mov.n	a9, a12
    26ed:	40dd14        	ae_lp16f.iu	aep5, a13, 2
    26f0:	fc24e2da7f 	{ ae_sp16f.l.c	aep5, a10, a7; nop }
    26f5:	40cb14        	ae_lp16f.iu	aep4, a11, 2
    26f8:	fc8c2c891f 	{ ae_lp16f.iu	aep0, a9, 2; ae_cvtq48p24s.l	aeq0, aep4 }
    26fd:	09a676        	loopgtz	a6, 270a <subband_aec_block+0xbe>
    2700:	fc24d96a7f 	{ ae_lp16f.c	aep6, a10, a7; nop }
    2705:	eec1ac891f 	{ ae_lp16f.iu	aep0, a9, 2; ae_mulsfp24s.ll	aeq0, aep0, aep6 }

0000270a <subband_aec_block+0xbe>:
    270a:	f863801eee 	{ addi	a14, a14, 1; ae_roundsp16q48asym	aep0, aeq0 }
    270f:	428f14        	ae_sp16f.l.iu	aep0, a15, 2
    2712:	02a5d6        	bgez	a5, 2740 <subband_aec_block+0xf4>
    2715:	002192        	l32i	a9, a1, 0
    2718:	364934        	ae_cvtq48a32s	aeq1, a9
    271b:	d4e370118e 	{ l32i	a8, a1, 4; ae_mulfq32sp16s.l	aeq1, aeq1, aep0 }
    2720:	209cc0        	or	a9, a12, a12
    2723:	fc24fe980f 	{ ae_slaasq56s	aeq0, aeq1, a8; nop }
    2728:	f967ac891f 	{ ae_lp16f.iu	aep0, a9, 2; ae_roundsp24q48asym	aep2, aeq0 }
    272d:	0fa676        	loopgtz	a6, 2740 <subband_aec_block+0xf4>

00002730 <subband_aec_block+0xe4>:
    2730:	fe0c190a7f 	{ ae_lp16f.c	aep0, a10, a7; ae_cvtq48p24s.l	aeq2, aep0 }
    2735:	01a034        	ae_mulafp24s.ll	aeq2, aep2, aep0
    2738:	fb73ec891f 	{ ae_lp16f.iu	aep0, a9, 2; ae_roundsp16q48asym	aep7, aeq2 }
    273d:	4279f4        	ae_sp16f.l.i	aep7, a9, -2
    2740:	a794e7        	bne	a4, a14, 26eb <subband_aec_block+0x9f>
    2743:	d3e8           	l32i.n	a14, a3, 52
    2745:	f398           	l32i.n	a9, a3, 60

00002747 <subband_aec_block+0xfb>:
    2747:	c3a9           	s32i.n	a10, a3, 48
    2749:	21b8           	l32i.n	a11, a1, 8
    274b:	fc248fc99e 	{ addi	a9, a9, -4; ae_zeroq56	aeq0 }
    2750:	fd044fceae 	{ addi	a10, a14, -4; ae_movq56	aeq1, aeq0 }
    2755:	0aab76        	loopgtz	a11, 2763 <subband_aec_block+0x117>
    2758:	449a14        	ae_lp16x2f.iu	aep1, a10, 4
    275b:	e2246da91f 	{ ae_lp16x2f.iu	aep2, a9, 4; ae_mulaafp24s.hh.ll	aeq1, aep1, aep1 }
    2760:	051204        	ae_mulaafp24s.hh.ll	aeq0, aep1, aep2

00002763 <subband_aec_block+0x117>:
    2763:	03ad           	mov.n	a10, a3
    2765:	f6b981        	l32r	a8, 24c (24b8 <common_x_pow>)
    2768:	359134        	ae_sraiq56	aeq2, aeq1, 4

0000276b <subband_aec_block+0x11f>:
    276b:	fc347b014f 	{ ae_sraiq56	aeq1, aeq0, 4; ae_roundsq32asym	aeq0, aeq2 }
    2770:	ff2c7f0bef 	{ ae_trunca32q48	a11, aeq0; ae_roundsq32asym	aeq3, aeq1 }
    2775:	36bc04        	ae_trunca32q48	a12, aeq3
    2778:	0008e0        	callx8	a8
    277b:	aa8c           	beqz.n	a10, 2789 <subband_aec_block+0x13d>
    277d:	04cd           	mov.n	a12, a4
    277f:	f65381        	l32r	a8, cc (9240 <xt_memcpy>)
    2782:	f3a8           	l32i.n	a10, a3, 60
    2784:	d3b8           	l32i.n	a11, a3, 52
    2786:	0008e0        	callx8	a8

00002789 <subband_aec_block+0x13d>:
    2789:	2d0c           	movi.n	a13, 2
    278b:	b3c8           	l32i.n	a12, a3, 44
    278d:	0d92a2        	l16si	a10, a2, 26
    2790:	fc24a1139e 	{ l16si	a9, a3, 34; ae_zeroq56	aeq0 }
    2795:	630124        	ae_sq56s.i	aeq0, a1, 16
    2798:	11baf0        	slli	a11, a10, 1
    279b:	9099c0        	addx2	a9, a9, a12
    279e:	d2aad0        	quos	a10, a10, a13
    27a1:	8aad           	ae_sext16	a10, a10
    27a3:	c099b0        	sub	a9, a9, a11
    27a6:	fcc992        	addi	a9, a9, -4
    27a9:	08aa76        	loopgtz	a10, 27b5 <subband_aec_block+0x169>
    27ac:	44b914        	ae_lp16x2f.iu	aep3, a9, 4
    27af:	053304        	ae_mulaafp24s.hh.ll	aeq0, aep3, aep3
    27b2:	630124        	ae_sq56s.i	aeq0, a1, 16

000027b5 <subband_aec_block+0x169>:
    27b5:	f6a381        	l32r	a8, 244 (81c0 <airoha_divide_limit_1>)
    27b8:	33a8           	l32i.n	a10, a3, 12
    27ba:	61c124        	ae_lq56.i	aeq3, a1, 16
    27bd:	3530b4        	ae_sraiq56	aeq0, aeq3, 2
    27c0:	ff244000bf 	{ movi	a11, 0; ae_roundsq32asym	aeq3, aeq0 }
    27c5:	53aab0        	max	a10, a10, a11
    27c8:	633124        	ae_sq56s.i	aeq3, a1, 16
    27cb:	23b8           	l32i.n	a11, a3, 8
    27cd:	0008e0        	callx8	a8
    27d0:	610124        	ae_lq56.i	aeq0, a1, 16
    27d3:	0492f2        	l16si	a15, a2, 8
    27d6:	f695e1        	l32r	a14, 22c (7fff <ifft_wo+0x107>)
    27d9:	3180a0        	srai	a8, a10, 16
    27dc:	1293b2        	l16si	a11, a3, 36
    27df:	c0ee80        	sub	a14, a14, a8
    27e2:	53eef0        	max	a14, a14, a15
    27e5:	256b17        	bbci	a11, 1, 280e <subband_aec_block+0x1c2>
    27e8:	05dd           	mov.n	a13, a5
    27ea:	02ad           	mov.n	a10, a2
    27ec:	03bd           	mov.n	a11, a3
    27ee:	039292        	l16si	a9, a2, 6
    27f1:	368404        	ae_trunca32q48	a4, aeq0
    27f4:	f69781        	l32r	a8, 250 (2514 <ref_gain_adapt>)
    27f7:	8299e0        	mull	a9, a9, a14
    27fa:	04cd           	mov.n	a12, a4
    27fc:	40d992        	addmi	a9, a9, 0x4000
    27ff:	219f90        	srai	a9, a9, 15
    2802:	105392        	s16i	a9, a3, 32
    2805:	0008e0        	callx8	a8
    2808:	1293b2        	l16si	a11, a3, 36
    280b:	000146        	j	2814 <subband_aec_block+0x1c8>

0000280e <subband_aec_block+0x1c2>:
    280e:	1053e2        	s16i	a14, a3, 32
    2811:	368404        	ae_trunca32q48	a4, aeq0

00002814 <subband_aec_block+0x1c8>:
    2814:	0592a2        	l16si	a10, a2, 10
    2817:	11aa00        	slli	a10, a10, 16
    281a:	54aa47        	bge	a10, a4, 2872 <subband_aec_block+0x226>
    281d:	f68da1        	l32r	a10, 254 (b508 <immediate_num+0x18>)
    2820:	0692c2        	l16si	a12, a2, 12
    2823:	20bb70        	or	a11, a11, a7
    2826:	1253b2        	s16i	a11, a3, 36
    2829:	11cc00        	slli	a12, a12, 16
    282c:	05ac47        	bge	a12, a4, 2835 <subband_aec_block+0x1e9>
    282f:	403a04        	ae_lp16f.i	aep3, a10, 0
    2832:	000086        	j	2838 <subband_aec_block+0x1ec>

00002835 <subband_aec_block+0x1e9>:
    2835:	403a14        	ae_lp16f.i	aep3, a10, 2

00002838 <subband_aec_block+0x1ec>:
    2838:	b3e8           	l32i.n	a14, a3, 44
    283a:	0d92d2        	l16si	a13, a2, 26
    283d:	1193a2        	l16si	a10, a3, 34
    2840:	2f0c           	movi.n	a15, 2
    2842:	11cdf0        	slli	a12, a13, 1
    2845:	90aae0        	addx2	a10, a10, a14
    2848:	d2ddf0        	quos	a13, a13, a15
    284b:	8ddd           	ae_sext16	a13, a13
    284d:	c0aac0        	sub	a10, a10, a12
    2850:	feca92        	addi	a9, a10, -2
    2853:	440a04        	ae_lp16x2f.i	aep0, a10, 0
    2856:	181da6        	blti	a13, 1, 2872 <subband_aec_block+0x226>
    2859:	12ad76        	loopgtz	a13, 286f <subband_aec_block+0x223>
    285c:	018354        	ae_mulfp24s.hl	aeq2, aep0, aep3
    285f:	010b74        	ae_mulfp24s.ll	aeq1, aep0, aep3
    2862:	fa73ed8a1f 	{ ae_lp16x2f.iu	aep0, a10, 4; ae_roundsp16q48asym	aep5, aeq2 }
    2867:	fa6bb2d91f 	{ ae_sp16f.l.iu	aep5, a9, 2; ae_roundsp16q48asym	aep4, aeq1 }
    286c:	42c914        	ae_sp16f.l.iu	aep4, a9, 2

0000286f <subband_aec_block+0x223>:
    286f:	1293b2        	l16si	a11, a3, 36
    2872:	0b6b07        	bbci	a11, 0, 2881 <subband_aec_block+0x235>
    2875:	03bd           	mov.n	a11, a3
    2877:	f67881        	l32r	a8, 258 (2598 <aec_post_calc>)
    287a:	02ad           	mov.n	a10, a2
    287c:	31c8           	l32i.n	a12, a1, 12
    287e:	0008e0        	callx8	a8

00002881 <subband_aec_block+0x235>:
    2881:	f01d           	retw.n

00002883 <subband_aec_block+0x237>:
	...

00002884 <subband_aec_mid_channel>:
    2884:	008136        	entry	a1, 64
    2887:	c398           	l32i.n	a9, a3, 48
    2889:	60c344        	ae_lq32f.i	aeq3, a3, 16
    288c:	460c           	movi.n	a6, 4
    288e:	2159           	s32i.n	a5, a1, 8
    2890:	a80c           	movi.n	a8, 10
    2892:	1193c2        	l16si	a12, a3, 34
    2895:	a3d8           	l32i.n	a13, a3, 40
    2897:	5822b2        	l32i	a11, a2, 0x160
    289a:	f3f6d0        	wur.ae_cbegin0	a13
    289d:	a0ccd0        	addx4	a12, a12, a13
    28a0:	e3d8           	l32i.n	a13, a3, 56
    28a2:	fccbb2        	addi	a11, a11, -4
    28a5:	f3f7c0        	wur.ae_cend0	a12
    28a8:	fc24ad0d0f 	{ ae_lp16x2f.i	aep0, a13, 0; ae_zeroq56	aeq0 }
    28ad:	19a876        	loopgtz	a8, 28ca <subband_aec_mid_channel+0x46>
    28b0:	a180f4        	ae_mulzaafq32sp16s.ll	aeq2, aeq3, aep0, aeq3, aep0
    28b3:	b108f4        	ae_mulzaafq32sp16s.hh	aeq1, aeq3, aep0, aeq3, aep0
    28b6:	f9739ab96f 	{ ae_lp16x2f.c	aep3, a9, a6; ae_roundsp16q48asym	aep2, aeq2 }
    28bb:	f86bed8d1f 	{ ae_lp16x2f.iu	aep0, a13, 4; ae_roundsp16q48asym	aep1, aeq1 }
    28c0:	f06e3e125f 	{ ae_selp24.hl	aep1, aep1, aep2; ae_mulssfp24s.hh.ll	aeq0, aep3, aep3 }
    28c5:	e224339b1f 	{ ae_sp16x2f.iu	aep1, a11, 4; ae_mulaafp24s.hh.ll	aeq0, aep1, aep1 }

000028ca <subband_aec_mid_channel+0x46>:
    28ca:	92e8           	l32i.n	a14, a2, 36
    28cc:	35c1b4        	ae_sraiq56	aeq3, aeq0, 6
    28cf:	618304        	ae_lq56.i	aeq2, a3, 0
    28d2:	01abc4        	ae_addq56	aeq2, aeq2, aeq3
    28d5:	11eee0        	slli	a14, a14, 2
    28d8:	fc80fece7f 	{ ae_cvtq48a32s	aeq1, a14; ae_satq48s	aeq0, aeq2 }
    28dd:	0110c4        	ae_maxq56s	aeq0, aeq0, aeq1
    28e0:	630304        	ae_sq56s.i	aeq0, a3, 0
    28e3:	0174d6        	bgez	a4, 28fe <subband_aec_mid_channel+0x7a>
    28e6:	1093a2        	l16si	a10, a3, 32
    28e9:	f65781        	l32r	a8, 248 (80b8 <airoha_divide>)
    28ec:	368b04        	ae_trunca32q48	a11, aeq0
    28ef:	11aa50        	slli	a10, a10, 11
    28f2:	0008e0        	callx8	a8
    28f5:	0bed           	mov.n	a14, a11
    28f7:	0add           	mov.n	a13, a10
    28f9:	000046        	j	28fe <subband_aec_mid_channel+0x7a>

000028fc <subband_aec_mid_channel+0x78>:
	...

000028fe <subband_aec_mid_channel+0x7a>:
    28fe:	c398           	l32i.n	a9, a3, 48
    2900:	119352        	l16si	a5, a3, 34
    2903:	a70c           	movi.n	a7, 10
    2905:	11e9           	s32i.n	a14, a1, 4
    2907:	01d9           	s32i.n	a13, a1, 0
    2909:	b3c8           	l32i.n	a12, a3, 44
    290b:	d3f8           	l32i.n	a15, a3, 52
    290d:	f3a8           	l32i.n	a10, a3, 60
    290f:	5822b2        	l32i	a11, a2, 0x160
    2912:	fccff2        	addi	a15, a15, -4
    2915:	fecaa2        	addi	a10, a10, -2
    2918:	fccbb2        	addi	a11, a11, -4
    291b:	fecc82        	addi	a8, a12, -2
    291e:	3189           	s32i.n	a8, a1, 12

00002920 <subband_aec_mid_channel+0x9c>:
    2920:	44db14        	ae_lp16x2f.iu	aep5, a11, 4
    2923:	fc24e4596f 	{ ae_sp16x2f.c	aep5, a9, a6; nop }
    2928:	44cf14        	ae_lp16x2f.iu	aep4, a15, 4
    292b:	fd8413dccf 	{ or	a13, a12, a12; ae_cvtq48p24s.h	aeq1, aep4 }
    2930:	fc8c2d0c0f 	{ ae_lp16x2f.i	aep0, a12, 0; ae_cvtq48p24s.l	aeq0, aep4 }
    2935:	0ca576        	loopgtz	a5, 2945 <subband_aec_mid_channel+0xc1>
    2938:	fc24dae96f 	{ ae_lp16x2f.c	aep6, a9, a6; nop }
    293d:	050ec4        	ae_mulssfp24s.hh.ll	aeq1, aep0, aep6
    2940:	eec02d8d1f 	{ ae_lp16x2f.iu	aep0, a13, 4; ae_mulsafp24s.hl.lh	aeq0, aep0, aep6 }

00002945 <subband_aec_mid_channel+0xc1>:
    2945:	f86b8ff77e 	{ addi	a7, a7, -1; ae_roundsp16q48asym	aep0, aeq1 }
    294a:	f963f28a1f 	{ ae_sp16f.l.iu	aep0, a10, 2; ae_roundsp16q48asym	aep3, aeq0 }
    294f:	42ba14        	ae_sp16f.l.iu	aep3, a10, 2
    2952:	0454d6        	bgez	a4, 299b <subband_aec_mid_channel+0x117>
    2955:	11d8           	l32i.n	a13, a1, 4
    2957:	368d34        	ae_cvtq48a32s	aeq2, a13
    295a:	038a94        	ae_mulfq32sp16s.l	aeq3, aeq2, aep0
    295d:	d7ee30018e 	{ l32i	a8, a1, 0; ae_mulfq32sp16s.l	aeq2, aeq2, aep3 }
    2962:	fc24feb80f 	{ ae_slaasq56s	aeq0, aeq3, a8; nop }
    2967:	fc24fea84f 	{ ae_slaasq56s	aeq1, aeq2, a8; nop }
    296c:	fa6fb031ee 	{ l32i	a14, a1, 12; ae_roundsp24q48asym	aep4, aeq1 }
    2971:	f967d3dccf 	{ or	a13, a12, a12; ae_roundsp24q48asym	aep3, aeq0 }
    2976:	dd8ced0c0f 	{ ae_lp16x2f.i	aep0, a12, 0; ae_selp24.hl	aep3, aep3, aep4 }
    297b:	f03d           	nop.n
    297d:	1aa576        	loopgtz	a5, 299b <subband_aec_mid_channel+0x117>
    2980:	0ac084        	ae_cvtq48p24s.l	aeq3, aep0
    2983:	fc041af96f 	{ ae_lp16x2f.c	aep7, a9, a6; ae_cvtq48p24s.h	aeq0, aep0 }
    2988:	053704        	ae_mulaafp24s.hh.ll	aeq0, aep3, aep7
    298b:	05bf54        	ae_mulasfp24s.hl.lh	aeq3, aep3, aep7
    298e:	fb63ad8d1f 	{ ae_lp16x2f.iu	aep0, a13, 4; ae_roundsp16q48asym	aep6, aeq0 }
    2993:	fa7bf2ee1f 	{ ae_sp16f.l.iu	aep6, a14, 2; ae_roundsp16q48asym	aep5, aeq3 }
    2998:	42de14        	ae_sp16f.l.iu	aep5, a14, 2
    299b:	f81756        	bnez	a7, 2920 <subband_aec_mid_channel+0x9c>
    299e:	ae0c           	movi.n	a14, 10
    29a0:	d3f8           	l32i.n	a15, a3, 52
    29a2:	c399           	s32i.n	a9, a3, 48
    29a4:	fe24b0f39e 	{ l32i	a9, a3, 60; ae_zeroq56	aeq2 }
    29a9:	632124        	ae_sq56s.i	aeq2, a1, 16
    29ac:	fd146d0f0f 	{ ae_lp16x2f.i	aep0, a15, 0; ae_movq56	aeq1, aeq2 }
    29b1:	fc146d390f 	{ ae_lp16x2f.i	aep3, a9, 0; ae_movq56	aeq0, aeq2 }
    29b6:	10ae76        	loopgtz	a14, 29ca <subband_aec_mid_channel+0x146>
    29b9:	050004        	ae_mulaafp24s.hh.ll	aeq0, aep0, aep0
    29bc:	050b04        	ae_mulaafp24s.hh.ll	aeq1, aep0, aep3

000029bf <subband_aec_mid_channel+0x13b>:
    29bf:	eb602db91f 	{ ae_lp16x2f.iu	aep3, a9, 4; ae_mulasfp24s.hl.lh	aeq2, aep0, aep3 }
    29c4:	630124        	ae_sq56s.i	aeq0, a1, 16
    29c7:	448f14        	ae_lp16x2f.iu	aep0, a15, 4

000029ca <subband_aec_mid_channel+0x146>:
    29ca:	f5b581        	l32r	a8, a0 (8b8 <HIFI_sqrt>)
    29cd:	35a134        	ae_sraiq56	aeq2, aeq2, 4
    29d0:	f877fb114f 	{ ae_sraiq56	aeq1, aeq1, 4; ae_roundsp24q48asym	aep1, aeq2 }
    29d5:	1b9d04        	ae_roundsp24q48asym	aep0, aeq1
    29d8:	dc20bda12f 	{ ae_lq56.i	aeq1, a1, 16; ae_selp24.hl	aep0, aep0, aep1 }
    29dd:	f002bb118f 	{ ae_sraiq56	aeq2, aeq1, 4; ae_mulzaafp24s.hh.ll	aeq0, aep0, aep0 }
    29e2:	fd344000af 	{ movi	a10, 0; ae_roundsq32asym	aeq1, aeq2 }
    29e7:	ff247a112f 	{ ae_sq56s.i	aeq1, a1, 16; ae_roundsq32asym	aeq3, aeq0 }
    29ec:	36bb04        	ae_trunca32q48	a11, aeq3
    29ef:	0008e0        	callx8	a8
    29f2:	f61681        	l32r	a8, 24c (24b8 <common_x_pow>)
    29f5:	614124        	ae_lq56.i	aeq1, a1, 16
    29f8:	368b34        	ae_cvtq48a32s	aeq2, a11
    29fb:	fc24feaa0f 	{ ae_slaasq56s	aeq0, aeq2, a10; nop }
    2a00:	369b04        	ae_trunca32q48	a11, aeq1
    2a03:	ff2453a33f 	{ or	a10, a3, a3; ae_roundsq32asym	aeq3, aeq0 }
    2a08:	36bc04        	ae_trunca32q48	a12, aeq3
    2a0b:	0008e0        	callx8	a8
    2a0e:	ca8c           	beqz.n	a10, 2a1e <subband_aec_mid_channel+0x19a>
    2a10:	f3a8           	l32i.n	a10, a3, 60
    2a12:	f5ae81        	l32r	a8, cc (9240 <xt_memcpy>)
    2a15:	0d23b2        	l32i	a11, a3, 52
    2a18:	14a0c2        	movi	a12, 20
    2a1b:	0008e0        	callx8	a8

00002a1e <subband_aec_mid_channel+0x19a>:
    2a1e:	0d92a2        	l16si	a10, a2, 26
    2a21:	119392        	l16si	a9, a3, 34
    2a24:	fc24b0b3be 	{ l32i	a11, a3, 44; ae_zeroq56	aeq0 }
    2a29:	630134        	ae_sq56s.i	aeq0, a1, 24
    2a2c:	c099a0        	sub	a9, a9, a10
    2a2f:	a099b0        	addx4	a9, a9, a11
    2a32:	fcc992        	addi	a9, a9, -4
    2a35:	08aa76        	loopgtz	a10, 2a41 <subband_aec_mid_channel+0x1bd>
    2a38:	44a914        	ae_lp16x2f.iu	aep2, a9, 4
    2a3b:	052204        	ae_mulaafp24s.hh.ll	aeq0, aep2, aep2
    2a3e:	630134        	ae_sq56s.i	aeq0, a1, 24

00002a41 <subband_aec_mid_channel+0x1bd>:
    2a41:	33a8           	l32i.n	a10, a3, 12
    2a43:	f60081        	l32r	a8, 244 (81c0 <airoha_divide_limit_1>)
    2a46:	61c134        	ae_lq56.i	aeq3, a1, 24
    2a49:	3530b4        	ae_sraiq56	aeq0, aeq3, 2
    2a4c:	ff247023be 	{ l32i	a11, a3, 8; ae_roundsq32asym	aeq3, aeq0 }
    2a51:	633134        	ae_sq56s.i	aeq3, a1, 24
    2a54:	0008e0        	callx8	a8
    2a57:	610134        	ae_lq56.i	aeq0, a1, 24
    2a5a:	1293b2        	l16si	a11, a3, 36
    2a5d:	f5f3e1        	l32r	a14, 22c (7fff <ifft_wo+0x107>)
    2a60:	0492f2        	l16si	a15, a2, 8
    2a63:	3160a0        	srai	a6, a10, 16
    2a66:	c0ee60        	sub	a14, a14, a6
    2a69:	53eef0        	max	a14, a14, a15
    2a6c:	260c           	movi.n	a6, 2
    2a6e:	266b17        	bbci	a11, 1, 2a98 <subband_aec_mid_channel+0x214>
    2a71:	02ad           	mov.n	a10, a2
    2a73:	03bd           	mov.n	a11, a3
    2a75:	04dd           	mov.n	a13, a4
    2a77:	039292        	l16si	a9, a2, 6
    2a7a:	368404        	ae_trunca32q48	a4, aeq0
    2a7d:	f5f481        	l32r	a8, 250 (2514 <ref_gain_adapt>)
    2a80:	8299e0        	mull	a9, a9, a14
    2a83:	04cd           	mov.n	a12, a4
    2a85:	40d992        	addmi	a9, a9, 0x4000
    2a88:	219f90        	srai	a9, a9, 15
    2a8b:	105392        	s16i	a9, a3, 32
    2a8e:	0008e0        	callx8	a8
    2a91:	1293b2        	l16si	a11, a3, 36
    2a94:	000186        	j	2a9e <subband_aec_mid_channel+0x21a>

00002a97 <subband_aec_mid_channel+0x213>:
	...

00002a98 <subband_aec_mid_channel+0x214>:
    2a98:	1053e2        	s16i	a14, a3, 32
    2a9b:	368404        	ae_trunca32q48	a4, aeq0

00002a9e <subband_aec_mid_channel+0x21a>:
    2a9e:	0592a2        	l16si	a10, a2, 10
    2aa1:	11aa00        	slli	a10, a10, 16
    2aa4:	4aaa47        	bge	a10, a4, 2af2 <subband_aec_mid_channel+0x26e>
    2aa7:	f5eba1        	l32r	a10, 254 (b508 <immediate_num+0x18>)
    2aaa:	0692c2        	l16si	a12, a2, 12
    2aad:	20bb60        	or	a11, a11, a6
    2ab0:	1253b2        	s16i	a11, a3, 36
    2ab3:	11cc00        	slli	a12, a12, 16
    2ab6:	05ac47        	bge	a12, a4, 2abf <subband_aec_mid_channel+0x23b>
    2ab9:	403a04        	ae_lp16f.i	aep3, a10, 0
    2abc:	000086        	j	2ac2 <subband_aec_mid_channel+0x23e>

00002abf <subband_aec_mid_channel+0x23b>:
    2abf:	403a14        	ae_lp16f.i	aep3, a10, 2

00002ac2 <subband_aec_mid_channel+0x23e>:
    2ac2:	0d92d2        	l16si	a13, a2, 26
    2ac5:	1193a2        	l16si	a10, a3, 34
    2ac8:	b3c8           	l32i.n	a12, a3, 44
    2aca:	c0aad0        	sub	a10, a10, a13
    2acd:	a0aac0        	addx4	a10, a10, a12
    2ad0:	feca92        	addi	a9, a10, -2
    2ad3:	440a04        	ae_lp16x2f.i	aep0, a10, 0
    2ad6:	181da6        	blti	a13, 1, 2af2 <subband_aec_mid_channel+0x26e>
    2ad9:	12ad76        	loopgtz	a13, 2aef <subband_aec_mid_channel+0x26b>
    2adc:	018354        	ae_mulfp24s.hl	aeq2, aep0, aep3
    2adf:	010b74        	ae_mulfp24s.ll	aeq1, aep0, aep3
    2ae2:	fa73ed8a1f 	{ ae_lp16x2f.iu	aep0, a10, 4; ae_roundsp16q48asym	aep5, aeq2 }
    2ae7:	fa6bb2d91f 	{ ae_sp16f.l.iu	aep5, a9, 2; ae_roundsp16q48asym	aep4, aeq1 }
    2aec:	42c914        	ae_sp16f.l.iu	aep4, a9, 2

00002aef <subband_aec_mid_channel+0x26b>:
    2aef:	1293b2        	l16si	a11, a3, 36
    2af2:	0b6b07        	bbci	a11, 0, 2b01 <subband_aec_mid_channel+0x27d>
    2af5:	03bd           	mov.n	a11, a3
    2af7:	f5d881        	l32r	a8, 258 (2598 <aec_post_calc>)
    2afa:	02ad           	mov.n	a10, a2
    2afc:	21c8           	l32i.n	a12, a1, 8
    2afe:	0008e0        	callx8	a8

00002b01 <subband_aec_mid_channel+0x27d>:
    2b01:	f01d           	retw.n

00002b03 <subband_aec_mid_channel+0x27f>:
	...

00002b04 <dt_detect>:
    2b04:	004136        	entry	a1, 32
    2b07:	0c9242        	l16si	a4, a2, 24
    2b0a:	179262        	l16si	a6, a2, 46
    2b0d:	189282        	l16si	a8, a2, 48
    2b10:	114400        	slli	a4, a4, 16
    2b13:	19a437        	bge	a4, a3, 2b30 <dt_detect+0x2c>
    2b16:	054c           	movi.n	a5, 64
    2b18:	14a587        	bge	a5, a8, 2b30 <dt_detect+0x2c>
    2b1b:	169232        	l16si	a3, a2, 44
    2b1e:	0e9252        	l16si	a5, a2, 28
    2b21:	662b           	addi.n	a6, a6, 2
    2b23:	334b           	addi.n	a3, a3, 4
    2b25:	433350        	min	a3, a3, a5
    2b28:	833d           	ae_sext16	a3, a3
    2b2a:	165232        	s16i	a3, a2, 44
    2b2d:	0002c6        	j	2b3c <dt_detect+0x38>

00002b30 <dt_detect+0x2c>:
    2b30:	660b           	addi.n	a6, a6, -1
    2b32:	030c           	movi.n	a3, 0
    2b34:	0e9252        	l16si	a5, a2, 28
    2b37:	040c           	movi.n	a4, 0
    2b39:	165242        	s16i	a4, a2, 44

00002b3c <dt_detect+0x38>:
    2b3c:	538630        	max	a8, a6, a3
    2b3f:	438850        	min	a8, a8, a5
    2b42:	175282        	s16i	a8, a2, 46
    2b45:	f01d           	retw.n

00002b47 <dt_detect+0x43>:
	...

00002b48 <get_ECNR_SVN>:
    2b48:	004136        	entry	a1, 32
    2b4b:	1ca422        	movi	a2, 0x41c
    2b4e:	f01d           	retw.n

00002b50 <get_aec_nr_memsize>:
    2b50:	004136        	entry	a1, 32
    2b53:	f5c221        	l32r	a2, 25c (7100 <two_mic_WB_NR_proc+0xe0>)
    2b56:	f01d           	retw.n

00002b58 <get_txnr_pitch_last>:
    2b58:	004136        	entry	a1, 32
    2b5b:	f55221        	l32r	a2, a4 (be30 <p_ecnr_mem>)
    2b5e:	0228           	l32i.n	a2, a2, 0
    2b60:	1ad232        	addmi	a3, a2, 0x1a00
    2b63:	169332        	l16si	a3, a3, 44
    2b66:	0b2366        	bnei	a3, 2, 2b75 <get_txnr_pitch_last+0x1d>
    2b69:	37d222        	addmi	a2, a2, 0x3700
    2b6c:	0228           	l32i.n	a2, a2, 0

00002b6e <get_txnr_pitch_last+0x16>:
    2b6e:	130c           	movi.n	a3, 1
    2b70:	932320        	movnez	a2, a3, a2
    2b73:	f01d           	retw.n

00002b75 <get_txnr_pitch_last+0x1d>:
    2b75:	54d222        	addmi	a2, a2, 0x5400
    2b78:	3e2222        	l32i	a2, a2, 248
    2b7b:	fffbc6        	j	2b6e <get_txnr_pitch_last+0x16>

00002b7e <get_txnr_pitch_last+0x26>:
	...

00002b80 <sb_ana_init>:
    2b80:	004136        	entry	a1, 32
    2b83:	0b0c           	movi.n	a11, 0
    2b85:	ec1c           	movi.n	a12, 30
    2b87:	f54f81        	l32r	a8, c4 (9228 <xt_memset>)
    2b8a:	a24b           	addi.n	a10, a2, 4
    2b8c:	02a9           	s32i.n	a10, a2, 0
    2b8e:	0008e0        	callx8	a8
    2b91:	f01d           	retw.n

00002b93 <sb_ana_init+0x13>:
	...

00002b94 <sb_syn_init>:
    2b94:	004136        	entry	a1, 32
    2b97:	0b0c           	movi.n	a11, 0
    2b99:	cc3c           	movi.n	a12, 60
    2b9b:	f54a81        	l32r	a8, c4 (9228 <xt_memset>)
    2b9e:	a24b           	addi.n	a10, a2, 4
    2ba0:	02a9           	s32i.n	a10, a2, 0
    2ba2:	0008e0        	callx8	a8
    2ba5:	f01d           	retw.n

00002ba7 <sb_syn_init+0x13>:
	...

00002ba8 <AVC_init>:
    2ba8:	004136        	entry	a1, 32
    2bab:	f54781        	l32r	a8, c8 (be38 <aec_nr_para>)
    2bae:	f54451        	l32r	a5, c0 (8000 <ifft_wo+0x108>)
    2bb1:	0888           	l32i.n	a8, a8, 0
    2bb3:	030c           	movi.n	a3, 0
    2bb5:	2239           	s32i.n	a3, a2, 8
    2bb7:	1e1842        	l16ui	a4, a8, 60
    2bba:	1f1892        	l16ui	a9, a8, 62
    2bbd:	025292        	s16i	a9, a2, 4
    2bc0:	201882        	l16ui	a8, a8, 64
    2bc3:	035282        	s16i	a8, a2, 6
    2bc6:	c05540        	sub	a5, a5, a4
    2bc9:	115500        	slli	a5, a5, 16
    2bcc:	445a           	add.n	a4, a4, a5
    2bce:	0249           	s32i.n	a4, a2, 0
    2bd0:	f01d           	retw.n

00002bd2 <AVC_init+0x2a>:
	...

00002bd4 <HP_coef_setup>:
    2bd4:	004136        	entry	a1, 32
    2bd7:	02ad           	mov.n	a10, a2
    2bd9:	f53c81        	l32r	a8, cc (9240 <xt_memcpy>)
    2bdc:	03bd           	mov.n	a11, a3
    2bde:	4c0c           	movi.n	a12, 4
    2be0:	0008e0        	callx8	a8
    2be3:	a2cb           	addi.n	a10, a2, 12
    2be5:	f53981        	l32r	a8, cc (9240 <xt_memcpy>)
    2be8:	b38b           	addi.n	a11, a3, 8
    2bea:	ac0c           	movi.n	a12, 10
    2bec:	0008e0        	callx8	a8
    2bef:	1cc3b2        	addi	a11, a3, 28
    2bf2:	f53681        	l32r	a8, cc (9240 <xt_memcpy>)
    2bf5:	24c2a2        	addi	a10, a2, 36
    2bf8:	8c0c           	movi.n	a12, 8
    2bfa:	0008e0        	callx8	a8
    2bfd:	7298           	l32i.n	a9, a2, 28
    2bff:	12a8           	l32i.n	a10, a2, 4
    2c01:	22a9           	s32i.n	a10, a2, 8
    2c03:	8299           	s32i.n	a9, a2, 32
    2c05:	f01d           	retw.n

00002c07 <HP_coef_setup+0x33>:
	...

00002c08 <main_err_alpha>:
    2c08:	004136        	entry	a1, 32
    2c0b:	a40c           	movi.n	a4, 10
    2c0d:	f53b71        	l32r	a7, fc (7fff0000 <_end+0x7ffe41c4>)
    2c10:	0258           	l32i.n	a5, a2, 0
    2c12:	f52b61        	l32r	a6, c0 (8000 <ifft_wo+0x108>)
    2c15:	032222        	l32i	a2, a2, 12
    2c18:	fec552        	addi	a5, a5, -2
    2c1b:	c06630        	sub	a6, a6, a3
    2c1e:	408204        	ae_lp16f.iu	aep0, a2, 0
    2c21:	116600        	slli	a6, a6, 16
    2c24:	806360        	add	a6, a3, a6
    2c27:	836730        	moveqz	a6, a7, a3
    2c2a:	309664        	ae_cvtp24a16x2.lh	aep1, a6, a6
    2c2d:	10a476        	loopgtz	a4, 2c41 <main_err_alpha+0x39>
    2c30:	e804aca51f 	{ ae_lp16f.iu	aep2, a5, 2; ae_mulfp24s.hh	aeq0, aep1, aep0 }
    2c35:	011234        	ae_mulafp24s.ll	aeq0, aep1, aep2
    2c38:	1b8f04        	ae_roundsp16q48asym	aep0, aeq0
    2c3b:	420504        	ae_sp16f.l.i	aep0, a5, 0
    2c3e:	408214        	ae_lp16f.iu	aep0, a2, 2

00002c41 <main_err_alpha+0x39>:
    2c41:	f01d           	retw.n

00002c43 <main_err_alpha+0x3b>:
	...

00002c44 <tx_ref_vad_init>:
    2c44:	004136        	entry	a1, 32
    2c47:	02ad           	mov.n	a10, a2
    2c49:	f51e81        	l32r	a8, c4 (9228 <xt_memset>)
    2c4c:	0b0c           	movi.n	a11, 0
    2c4e:	ec0c           	movi.n	a12, 14
    2c50:	0008e0        	callx8	a8
    2c53:	02ad           	mov.n	a10, a2
    2c55:	7c0c           	movi.n	a12, 7
    2c57:	f51d81        	l32r	a8, cc (9240 <xt_memcpy>)
    2c5a:	02d3b2        	addmi	a11, a3, 0x200
    2c5d:	c8cbb2        	addi	a11, a11, -56
    2c60:	0008e0        	callx8	a8
    2c63:	f01d           	retw.n

00002c65 <tx_ref_vad_init+0x21>:
    2c65:	000000                                        ...

00002c68 <Voice_WB_TX_Init>:
    2c68:	004136        	entry	a1, 32
    2c6b:	02ad           	mov.n	a10, a2
    2c6d:	06cd           	mov.n	a12, a6
    2c6f:	f50d21        	l32r	a2, a4 (be30 <p_ecnr_mem>)
    2c72:	f57b81        	l32r	a8, 260 (8f54 <TX_ECNR_PARA_init>)
    2c75:	05bd           	mov.n	a11, a5
    2c77:	0249           	s32i.n	a4, a2, 0
    2c79:	0008e0        	callx8	a8
    2c7c:	f51341        	l32r	a4, c8 (be38 <aec_nr_para>)
    2c7f:	02a8           	l32i.n	a10, a2, 0
    2c81:	f57881        	l32r	a8, 264 (2bd4 <HP_coef_setup>)
    2c84:	04b8           	l32i.n	a11, a4, 0
    2c86:	18daa2        	addmi	a10, a10, 0x1800
    2c89:	e8caa2        	addi	a10, a10, -24
    2c8c:	01dbb2        	addmi	a11, a11, 0x100
    2c8f:	bb8b           	addi.n	a11, a11, 8
    2c91:	0008e0        	callx8	a8
    2c94:	0b0c           	movi.n	a11, 0
    2c96:	02a8           	l32i.n	a10, a2, 0
    2c98:	ac0c           	movi.n	a12, 10
    2c9a:	f50a81        	l32r	a8, c4 (9228 <xt_memset>)
    2c9d:	18daa2        	addmi	a10, a10, 0x1800
    2ca0:	1ccaa2        	addi	a10, a10, 28
    2ca3:	0008e0        	callx8	a8
    2ca6:	f57051        	l32r	a5, 268 (1834 <Pitch_by_Corel+0x41c>)
    2ca9:	0b0c           	movi.n	a11, 0
    2cab:	02a8           	l32i.n	a10, a2, 0
    2cad:	f0a0c2        	movi	a12, 240
    2cb0:	f50581        	l32r	a8, c4 (9228 <xt_memset>)
    2cb3:	18daa2        	addmi	a10, a10, 0x1800
    2cb6:	34caa2        	addi	a10, a10, 52
    2cb9:	0008e0        	callx8	a8
    2cbc:	02a8           	l32i.n	a10, a2, 0
    2cbe:	f56b81        	l32r	a8, 26c (2b80 <sb_ana_init>)
    2cc1:	3edaa2        	addmi	a10, a10, 0x3e00
    2cc4:	aa8b           	addi.n	a10, a10, 8
    2cc6:	0008e0        	callx8	a8
    2cc9:	02a8           	l32i.n	a10, a2, 0
    2ccb:	f56881        	l32r	a8, 26c (2b80 <sb_ana_init>)
    2cce:	3edaa2        	addmi	a10, a10, 0x3e00
    2cd1:	48caa2        	addi	a10, a10, 72
    2cd4:	0008e0        	callx8	a8
    2cd7:	02a8           	l32i.n	a10, a2, 0
    2cd9:	f56581        	l32r	a8, 270 (2b94 <sb_syn_init>)
    2cdc:	3fdaa2        	addmi	a10, a10, 0x3f00
    2cdf:	c8caa2        	addi	a10, a10, -56
    2ce2:	0008e0        	callx8	a8
    2ce5:	04d8           	l32i.n	a13, a4, 0
    2ce7:	02b8           	l32i.n	a11, a2, 0
    2ce9:	f56281        	l32r	a8, 274 (223c <SBAEC_INIT>)
    2cec:	0d98           	l32i.n	a9, a13, 0
    2cee:	18db62        	addmi	a6, a11, 0x1800
    2cf1:	331df2        	l16ui	a15, a13, 102
    2cf4:	ab5a           	add.n	a10, a11, a5
    2cf6:	2cdbc2        	addmi	a12, a11, 0x2c00
    2cf9:	f0ccc2        	addi	a12, a12, -16
    2cfc:	ffdae2        	addmi	a14, a10, 0xffffff00
    2cff:	1856f2        	s16i	a15, a6, 48
    2d02:	341dd2        	l16ui	a13, a13, 104
    2d05:	78c992        	addi	a9, a9, 120
    2d08:	2edbb2        	addmi	a11, a11, 0x2e00
    2d0b:	d0cbb2        	addi	a11, a11, -48
    2d0e:	78c9f2        	addi	a15, a9, 120
    2d11:	50c962        	addi	a6, a9, 80
    2d14:	7f5ed2        	s16i	a13, a14, 254
    2d17:	816a92        	s32i	a9, a10, 0x204
    2d1a:	8a6ac2        	s32i	a12, a10, 0x228
    2d1d:	826a62        	s32i	a6, a10, 0x208
    2d20:	836af2        	s32i	a15, a10, 0x20c
    2d23:	8b6ab2        	s32i	a11, a10, 0x22c
    2d26:	78cfc2        	addi	a12, a15, 120
    2d29:	50cfd2        	addi	a13, a15, 80
    2d2c:	28cfe2        	addi	a14, a15, 40
    2d2f:	846ae2        	s32i	a14, a10, 0x210
    2d32:	856ad2        	s32i	a13, a10, 0x214
    2d35:	866ac2        	s32i	a12, a10, 0x218
    2d38:	78cc92        	addi	a9, a12, 120
    2d3b:	50ccb2        	addi	a11, a12, 80
    2d3e:	896ab2        	s32i	a11, a10, 0x224
    2d41:	886a92        	s32i	a9, a10, 0x220
    2d44:	28ccc2        	addi	a12, a12, 40
    2d47:	876ac2        	s32i	a12, a10, 0x21c
    2d4a:	0008e0        	callx8	a8
    2d4d:	f54a81        	l32r	a8, 278 (5fc4 <WB_TX_NR_init>)
    2d50:	0008e0        	callx8	a8
    2d53:	02a8           	l32i.n	a10, a2, 0
    2d55:	f54981        	l32r	a8, 27c (2ba8 <AVC_init>)
    2d58:	31daa2        	addmi	a10, a10, 0x3100
    2d5b:	d8caa2        	addi	a10, a10, -40
    2d5e:	0008e0        	callx8	a8
    2d61:	1b0c           	movi.n	a11, 1
    2d63:	f547e1        	l32r	a14, 280 (be34 <avc_vol>)
    2d66:	02a8           	l32i.n	a10, a2, 0
    2d68:	f547d1        	l32r	a13, 284 (2000 <pitch_by_harmonic+0x570>)
    2d6b:	6edd           	ae_s16i.n	a13, a14, 0
    2d6d:	ca5a           	add.n	a12, a10, a5
    2d6f:	1ada92        	addmi	a9, a10, 0x1a00
    2d72:	14c992        	addi	a9, a9, 20
    2d75:	fe5cb2        	s16i	a11, a12, 0x1fc
    2d78:	00a4b2        	movi	a11, 0x400
    2d7b:	7c0c           	movi.n	a12, 7
    2d7d:	02ac76        	loopgtz	a12, 2d83 <Voice_WB_TX_Init+0x11b>
    2d80:	09c9b4        	ae_s16ip	a11, a9, 2

00002d83 <Voice_WB_TX_Init+0x11b>:
    2d83:	0b0c           	movi.n	a11, 0
    2d85:	0c5c           	movi.n	a12, 80
    2d87:	f4cf81        	l32r	a8, c4 (9228 <xt_memset>)
    2d8a:	30daa2        	addmi	a10, a10, 0x3000
    2d8d:	f0caa2        	addi	a10, a10, -16
    2d90:	0008e0        	callx8	a8
    2d93:	0b0c           	movi.n	a11, 0
    2d95:	02a8           	l32i.n	a10, a2, 0
    2d97:	4c2c           	movi.n	a12, 36
    2d99:	f4ca81        	l32r	a8, c4 (9228 <xt_memset>)
    2d9c:	31daa2        	addmi	a10, a10, 0x3100
    2d9f:	90caa2        	addi	a10, a10, -112
    2da2:	0008e0        	callx8	a8
    2da5:	02a8           	l32i.n	a10, a2, 0
    2da7:	ba5a           	add.n	a11, a10, a5
    2da9:	fc9bb2        	l16si	a11, a11, 0x1f8
    2dac:	252b66        	bnei	a11, 2, 2dd5 <Voice_WB_TX_Init+0x16d>
    2daf:	f53681        	l32r	a8, 288 (40e8 <TWO_MIC_WB_init>)
    2db2:	04a8           	l32i.n	a10, a4, 0
    2db4:	0008e0        	callx8	a8
    2db7:	02a8           	l32i.n	a10, a2, 0
    2db9:	f52c81        	l32r	a8, 26c (2b80 <sb_ana_init>)
    2dbc:	3fdaa2        	addmi	a10, a10, 0x3f00
    2dbf:	88caa2        	addi	a10, a10, -120
    2dc2:	0008e0        	callx8	a8
    2dc5:	02a8           	l32i.n	a10, a2, 0
    2dc7:	f52a81        	l32r	a8, 270 (2b94 <sb_syn_init>)
    2dca:	3fdaa2        	addmi	a10, a10, 0x3f00
    2dcd:	44caa2        	addi	a10, a10, 68
    2dd0:	0008e0        	callx8	a8
    2dd3:	02a8           	l32i.n	a10, a2, 0

00002dd5 <Voice_WB_TX_Init+0x16d>:
    2dd5:	f52d81        	l32r	a8, 28c (595c <FLASH_REF_GAIN_Preload>)
    2dd8:	03bd           	mov.n	a11, a3
    2dda:	0008e0        	callx8	a8
    2ddd:	02a8           	l32i.n	a10, a2, 0
    2ddf:	04b8           	l32i.n	a11, a4, 0
    2de1:	f52b81        	l32r	a8, 290 (2c44 <tx_ref_vad_init>)
    2de4:	71daa2        	addmi	a10, a10, 0x7100
    2de7:	e4caa2        	addi	a10, a10, -28
    2dea:	0008e0        	callx8	a8
    2ded:	f01d           	retw.n

00002def <Voice_WB_TX_Init+0x187>:
	...

00002df0 <mic240_delay>:
    2df0:	004136        	entry	a1, 32
    2df3:	02ad           	mov.n	a10, a2
    2df5:	f4b581        	l32r	a8, cc (9240 <xt_memcpy>)
    2df8:	04bd           	mov.n	a11, a4
    2dfa:	05cd           	mov.n	a12, a5
    2dfc:	0008e0        	callx8	a8
    2dff:	03bd           	mov.n	a11, a3
    2e01:	90a520        	addx2	a10, a5, a2
    2e04:	f0a0c2        	movi	a12, 240
    2e07:	f4b181        	l32r	a8, cc (9240 <xt_memcpy>)
    2e0a:	c0cc50        	sub	a12, a12, a5
    2e0d:	1125f0        	slli	a2, a5, 1
    2e10:	0008e0        	callx8	a8
    2e13:	05cd           	mov.n	a12, a5
    2e15:	04ad           	mov.n	a10, a4
    2e17:	c0b320        	sub	a11, a3, a2
    2e1a:	f4ac81        	l32r	a8, cc (9240 <xt_memcpy>)
    2e1d:	02dbb2        	addmi	a11, a11, 0x200
    2e20:	e0cbb2        	addi	a11, a11, -32
    2e23:	0008e0        	callx8	a8
    2e26:	f01d           	retw.n

00002e28 <sbiir>:
    2e28:	004136        	entry	a1, 32
    2e2b:	4c1404        	ae_lp24.i	aep1, a4, 0
    2e2e:	5c7304        	ae_lp24x2f.i	aep7, a3, 0
    2e31:	fdec2c020f 	{ ae_lp16f.i	aep0, a2, 0; ae_cvtq48p24s.l	aeq1, aep7 }
    2e36:	fee43e079f 	{ ae_selp24.hl	aep2, aep0, aep7; ae_cvtq48p24s.h	aeq2, aep7 }
    2e3b:	059244        	ae_mulasfp24s.hh.ll	aeq2, aep1, aep2
    2e3e:	5c3314        	ae_lp24x2f.i	aep3, a3, 8
    2e41:	fa77b4030f 	{ ae_sp24f.l.i	aep0, a3, 0; ae_roundsp24q48asym	aep4, aeq2 }
    2e46:	df71b1541f 	{ ae_lp24.i	aep5, a4, 4; ae_selp24.lh	aep6, aep4, aep3 }
    2e4b:	055e44        	ae_mulasfp24s.hh.ll	aeq1, aep5, aep6
    2e4e:	0a0b84        	ae_cvtq48p24s.h	aeq0, aep3
    2e51:	f86ff4431f 	{ ae_sp24f.l.i	aep4, a3, 4; ae_roundsp24q48asym	aep1, aeq1 }
    2e56:	dd6671242f 	{ ae_lp24.i	aep2, a4, 8; ae_selp24.ll	aep3, aep1, aep3 }
    2e5b:	052344        	ae_mulasfp24s.hh.ll	aeq0, aep2, aep3
    2e5e:	f867b4132f 	{ ae_sp24f.l.i	aep1, a3, 8; ae_roundsp24q48asym	aep0, aeq0 }
    2e63:	520334        	ae_sp24f.l.i	aep0, a3, 12
    2e66:	348204        	ae_movap24s.l	a2, aep0
    2e69:	f01d           	retw.n

00002e6b <sbiir+0x43>:
	...

00002e6c <tx_downsample_by2>:
    2e6c:	008136        	entry	a1, 64
    2e6f:	fec332        	addi	a3, a3, -2
    2e72:	440404        	ae_lp16x2f.i	aep0, a4, 0
    2e75:	0169           	s32i.n	a6, a1, 0
    2e77:	f50781        	l32r	a8, 294 (b70c <wb_r01+0xc>)
    2e7a:	fec272        	addi	a7, a2, -2
    2e7d:	10c5a2        	addi	a10, a5, 16
    2e80:	600604        	ae_lq32f.i	aeq0, a6, 0
    2e83:	630124        	ae_sq56s.i	aeq0, a1, 16
    2e86:	21a9           	s32i.n	a10, a1, 8
    2e88:	020c           	movi.n	a2, 0
    2e8a:	1189           	s32i.n	a8, a1, 4
    2e8c:	056d           	mov.n	a6, a5

00002e8e <tx_downsample_by2+0x22>:
    2e8e:	06bd           	mov.n	a11, a6
    2e90:	614124        	ae_lq56.i	aeq1, a1, 16
    2e93:	e20053a44f 	{ or	a10, a4, a4; ae_mulaafp24s.hh.ll	aeq1, aep0, aep0 }
    2e98:	11c8           	l32i.n	a12, a1, 4
    2e9a:	631124        	ae_sq56s.i	aeq1, a1, 16
    2e9d:	fff8a5        	call8	2e28 <sbiir>
    2ea0:	21b8           	l32i.n	a11, a1, 8
    2ea2:	0a5d           	mov.n	a5, a10
    2ea4:	f4fdc1        	l32r	a12, 298 (b700 <wb_r01>)
    2ea7:	a42b           	addi.n	a10, a4, 2
    2ea9:	fff7e5        	call8	2e28 <sbiir>
    2eac:	4e1c           	movi.n	a14, 20
    2eae:	221b           	addi.n	a2, a2, 1
    2eb0:	f5aa           	add.n	a15, a5, a10
    2eb2:	c08a50        	sub	a8, a10, a5
    2eb5:	218180        	srai	a8, a8, 1
    2eb8:	21f1f0        	srai	a15, a15, 1
    2ebb:	39bf84        	ae_movpa24x2	aep3, a15, a8
    2ebe:	f9eead841f 	{ ae_lp16x2f.iu	aep0, a4, 4; ae_roundsp16asym	aep2, aep3 }
    2ec3:	dc4972a31f 	{ ae_sp16f.l.iu	aep2, a3, 2; ae_selp24.hh	aep1, aep2, aep2 }
    2ec8:	429714        	ae_sp16f.l.iu	aep1, a7, 2
    2ecb:	bf92e7        	bne	a2, a14, 2e8e <tx_downsample_by2+0x22>
    2ece:	0198           	l32i.n	a9, a1, 0
    2ed0:	61c124        	ae_lq56.i	aeq3, a1, 16
    2ed3:	06b934        	ae_roundsq32asym	aeq2, aeq3
    2ed6:	622904        	ae_sq32f.i	aeq2, a9, 0
    2ed9:	f01d           	retw.n

00002edb <tx_downsample_by2+0x6f>:
	...

00002edc <tx_upsample_by2>:
    2edc:	00a136        	entry	a1, 80
    2edf:	401204        	ae_lp16f.i	aep1, a2, 0
    2ee2:	400304        	ae_lp16f.i	aep0, a3, 0
    2ee5:	1169           	s32i.n	a6, a1, 4
    2ee7:	f4eb81        	l32r	a8, 294 (b70c <wb_r01+0xc>)
    2eea:	fcc472        	addi	a7, a4, -4
    2eed:	10c5a2        	addi	a10, a5, 16
    2ef0:	c12b           	addi.n	a12, a1, 2
    2ef2:	600604        	ae_lq32f.i	aeq0, a6, 0
    2ef5:	630134        	ae_sq56s.i	aeq0, a1, 24
    2ef8:	21c9           	s32i.n	a12, a1, 8
    2efa:	31a9           	s32i.n	a10, a1, 12
    2efc:	040c           	movi.n	a4, 0
    2efe:	4189           	s32i.n	a8, a1, 16
    2f00:	056d           	mov.n	a6, a5

00002f02 <tx_upsample_by2+0x26>:
    2f02:	06bd           	mov.n	a11, a6
    2f04:	f4e5c1        	l32r	a12, 298 (b700 <wb_r01>)
    2f07:	d9053da13f 	{ ae_lq56.i	aeq1, a1, 24; ae_addsp24s	aep2, aep1, aep0 }
    2f0c:	e24bf021ae 	{ l32i	a10, a1, 8; ae_mulafp24s.ll	aeq1, aep2, aep2 }
    2f11:	dc06b2210f 	{ ae_sp16f.l.i	aep2, a1, 0; ae_subsp24s	aep0, aep1, aep0 }
    2f16:	420114        	ae_sp16f.l.i	aep0, a1, 2
    2f19:	631134        	ae_sq56s.i	aeq1, a1, 24
    2f1c:	fff0a5        	call8	2e28 <sbiir>
    2f1f:	31b8           	l32i.n	a11, a1, 12
    2f21:	0a5d           	mov.n	a5, a10
    2f23:	41c8           	l32i.n	a12, a1, 16
    2f25:	01ad           	mov.n	a10, a1
    2f27:	fff025        	call8	2e28 <sbiir>
    2f2a:	442b           	addi.n	a4, a4, 2
    2f2c:	782c           	movi.n	a8, 39
    2f2e:	408314        	ae_lp16f.iu	aep0, a3, 2
    2f31:	39c5a4        	ae_movpa24x2	aep4, a5, a10
    2f34:	f9f2ec921f 	{ ae_lp16f.iu	aep1, a2, 2; ae_roundsp16asym	aep3, aep4 }
    2f39:	46b714        	ae_sp16x2f.iu	aep3, a7, 4
    2f3c:	c2a847        	bge	a8, a4, 2f02 <tx_upsample_by2+0x26>
    2f3f:	1198           	l32i.n	a9, a1, 4
    2f41:	61c134        	ae_lq56.i	aeq3, a1, 24
    2f44:	06b934        	ae_roundsq32asym	aeq2, aeq3
    2f47:	622904        	ae_sq32f.i	aeq2, a9, 0
    2f4a:	f01d           	retw.n

00002f4c <emph_filter_N>:
    2f4c:	004136        	entry	a1, 32
    2f4f:	442304        	ae_lp16x2f.i	aep2, a3, 0
    2f52:	02a062        	movi	a6, 2
    2f55:	440404        	ae_lp16x2f.i	aep0, a4, 0
    2f58:	d26560        	quos	a6, a5, a6
    2f5b:	fcc252        	addi	a5, a2, -4
    2f5e:	fec222        	addi	a2, a2, -2
    2f61:	23a676        	loopgtz	a6, 2f88 <emph_filter_N+0x3c>
    2f64:	44b514        	ae_lp16x2f.iu	aep3, a5, 4
    2f67:	0a4b84        	ae_cvtq48p24s.h	aeq1, aep3
    2f6a:	0a0384        	ae_cvtq48p24s.l	aeq0, aep3
    2f6d:	012304        	ae_mulafp24s.hh	aeq0, aep2, aep3
    2f70:	012804        	ae_mulafp24s.hh	aeq1, aep2, aep0
    2f73:	e2087e384f 	{ ae_selp24.hh	aep5, aep3, aep0; ae_mulaafp24s.hh.ll	aeq1, aep2, aep0 }
    2f78:	052504        	ae_mulaafp24s.hh.ll	aeq0, aep2, aep5
    2f7b:	1b9f44        	ae_roundsp16q48asym	aep4, aeq1
    2f7e:	f863f2c21f 	{ ae_sp16f.l.iu	aep4, a2, 2; ae_roundsp16q48asym	aep1, aeq0 }
    2f83:	dc6db2921f 	{ ae_sp16f.l.iu	aep1, a2, 2; ae_selp24.lh	aep0, aep3, aep3 }

00002f88 <emph_filter_N+0x3c>:
    2f88:	460404        	ae_sp16x2f.i	aep0, a4, 0
    2f8b:	f01d           	retw.n

00002f8d <emph_filter_N+0x41>:
    2f8d:	000000                                        ...

00002f90 <deemph_filter_N>:
    2f90:	004136        	entry	a1, 32
    2f93:	600414        	ae_lq32f.i	aeq0, a4, 4
    2f96:	400204        	ae_lp16f.i	aep0, a2, 0
    2f99:	f4c061        	l32r	a6, 29c (b520 <immediate_num+0x30>)
    2f9c:	442304        	ae_lp16x2f.i	aep2, a3, 0
    2f9f:	604404        	ae_lq32f.i	aeq1, a4, 0
    2fa2:	9949ad360f 	{ ae_lp16x2f.i	aep3, a6, 0; ae_mulzssfq32sp16s.hh	aeq2, aeq1, aep2, aeq1, aep2 }
    2fa7:	14a576        	loopgtz	a5, 2fbf <deemph_filter_N+0x2f>
    2faa:	03a414        	ae_mulsfq32sp16s.l	aeq2, aeq0, aep2
    2fad:	0583c4        	ae_mulssfp24s.hh.ll	aeq2, aep0, aep3
    2fb0:	fd347f113f 	{ ae_movq56	aeq0, aeq1; ae_roundsq32asym	aeq1, aeq2 }
    2fb5:	f86bec821f 	{ ae_lp16f.iu	aep0, a2, 2; ae_roundsp16q48asym	aep1, aeq1 }
    2fba:	9949b212ff 	{ ae_sp16f.l.i	aep1, a2, -2; ae_mulzssfq32sp16s.hh	aeq2, aeq1, aep2, aeq1, aep2 }

00002fbf <deemph_filter_N+0x2f>:
    2fbf:	621404        	ae_sq32f.i	aeq1, a4, 0
    2fc2:	620414        	ae_sq32f.i	aeq0, a4, 4
    2fc5:	f01d           	retw.n

00002fc7 <deemph_filter_N+0x37>:
	...

00002fc8 <analy_3band>:
    2fc8:	006136        	entry	a1, 48
    2fcb:	7f0c           	movi.n	a15, 7
    2fcd:	f4b4e1        	l32r	a14, 2a0 (b71c <wb_r01+0x1c>)
    2fd0:	fcc4b2        	addi	a11, a4, -4
    2fd3:	f4b4d1        	l32r	a13, 2a4 (b75c <sb_g10+0x3c>)
    2fd6:	24c2c2        	addi	a12, a2, 36
    2fd9:	834b           	addi.n	a8, a3, 4
    2fdb:	fec692        	addi	a9, a6, -2
    2fde:	fec5a2        	addi	a10, a5, -2
    2fe1:	40c372        	addi	a7, a3, 64
    2fe4:	450c           	movi.n	a5, 4
    2fe6:	f3f770        	wur.ae_cend0	a7
    2fe9:	fcc262        	addi	a6, a2, -4
    2fec:	f3f680        	wur.ae_cbegin0	a8
    2fef:	0328           	l32i.n	a2, a3, 0
    2ff1:	ff24934ddf 	{ or	a4, a13, a13; ae_zeroq56	aeq3 }
    2ff6:	fd1c538eef 	{ or	a8, a14, a14; ae_movq56	aeq1, aeq3 }

00002ffb <analy_3band+0x33>:
    2ffb:	443614        	ae_lp16x2f.i	aep3, a6, 4
    2ffe:	fc24e4325f 	{ ae_sp16x2f.c	aep3, a2, a5; nop }
    3003:	fc24da925f 	{ ae_lp16x2f.c	aep1, a2, a5; nop }
    3008:	44a814        	ae_lp16x2f.iu	aep2, a8, 4
    300b:	eb29ad841f 	{ ae_lp16x2f.iu	aep0, a4, 4; ae_mulfp24s.ll	aeq2, aep2, aep1 }
    3010:	ea2180466e 	{ addi	a6, a6, 4; ae_mulfp24s.ll	aeq0, aep0, aep1 }
    3015:	27af76        	loopgtz	a15, 3040 <analy_3band+0x78>
    3018:	fc24da825f 	{ ae_lp16x2f.c	aep0, a2, a5; nop }
    301d:	449414        	ae_lp16x2f.iu	aep1, a4, 4
    3020:	011034        	ae_mulafp24s.ll	aeq0, aep1, aep0
    3023:	e2066df81f 	{ ae_lp16x2f.iu	aep7, a8, 4; ae_mulafp24s.hh	aeq1, aep1, aep0 }
    3028:	e31f9ad25f 	{ ae_lp16x2f.c	aep5, a2, a5; ae_mulafp24s.ll	aeq2, aep7, aep0 }
    302d:	e31e6de81f 	{ ae_lp16x2f.iu	aep6, a8, 4; ae_mulafp24s.hh	aeq3, aep7, aep0 }
    3032:	01ed04        	ae_mulafp24s.hh	aeq3, aep6, aep5
    3035:	e3bbadc41f 	{ ae_lp16x2f.iu	aep4, a4, 4; ae_mulafp24s.ll	aeq2, aep6, aep5 }
    303a:	014d04        	ae_mulafp24s.hh	aeq1, aep4, aep5
    303d:	014534        	ae_mulafp24s.ll	aeq0, aep4, aep5

00003040 <analy_3band+0x78>:
    3040:	7f0c           	movi.n	a15, 7
    3042:	f963d34ddf 	{ or	a4, a13, a13; ae_roundsp16q48asym	aep3, aeq0 }
    3047:	f8f6138eef 	{ or	a8, a14, a14; ae_addq56	aeq0, aeq2, aeq3 }
    304c:	f96bbb001f 	{ ae_sraiq56	aeq0, aeq0, 1; ae_roundsp16q48asym	aep2, aeq1 }
    3051:	f867f2b91f 	{ ae_sp16f.l.iu	aep3, a9, 2; ae_roundsp24q48asym	aep1, aeq0 }
    3056:	f8b6f2a91f 	{ ae_sp16f.l.iu	aep2, a9, 2; ae_subq56	aeq0, aeq2, aeq3 }
    305b:	ff24bb001f 	{ ae_sraiq56	aeq0, aeq0, 1; ae_zeroq56	aeq3 }
    3060:	f863b49b1f 	{ ae_sp24f.l.iu	aep1, a11, 4; ae_roundsp16q48asym	aep0, aeq0 }
    3065:	fd1c728a1f 	{ ae_sp16f.l.iu	aep0, a10, 2; ae_movq56	aeq1, aeq3 }
    306a:	8d96c7        	bne	a6, a12, 2ffb <analy_3band+0x33>
    306d:	0329           	s32i.n	a2, a3, 0
    306f:	f01d           	retw.n

00003071 <analy_3band+0xa9>:
    3071:	000000                                        ...

00003074 <synth_3band>:
    3074:	004136        	entry	a1, 32
    3077:	080c           	movi.n	a8, 0
    3079:	7cc572        	addi	a7, a5, 124
    307c:	b54b           	addi.n	a11, a5, 4
    307e:	fec692        	addi	a9, a6, -2
    3081:	fec2c2        	addi	a12, a2, -2
    3084:	fcc4a2        	addi	a10, a4, -4
    3087:	fec3d2        	addi	a13, a3, -2
    308a:	0548           	l32i.n	a4, a5, 0
    308c:	f48731        	l32r	a3, 2a8 (b7a0 <sb_h2ir_v2>)
    308f:	f48721        	l32r	a2, 2ac (b720 <sb_g10>)
    3092:	fe2480046f 	{ movi	a6, 4; ae_zeroq56	aeq2 }
    3097:	f3f6b0        	wur.ae_cbegin0	a11
    309a:	f3f770        	wur.ae_cend0	a7
    309d:	fd147f213f 	{ ae_movq56	aeq0, aeq2; ae_movq56	aeq1, aeq2 }

000030a2 <synth_3band+0x2e>:
    30a2:	40cd14        	ae_lp16f.iu	aep4, a13, 2
    30a5:	40bc14        	ae_lp16f.iu	aep3, a12, 2
    30a8:	dd8e80188e 	{ addi	a8, a8, 1; ae_subsp24s	aep2, aep3, aep4 }
    30ad:	d88d400fef 	{ movi	a14, 15; ae_addsp24s	aep1, aep3, aep4 }
    30b2:	dc466d8a1f 	{ ae_lp16x2f.iu	aep0, a10, 4; ae_selp24.ll	aep1, aep1, aep2 }
    30b7:	fc24e4146f 	{ ae_sp16x2f.c	aep1, a4, a6; nop }
    30bc:	fc24e4046f 	{ ae_sp16x2f.c	aep0, a4, a6; nop }
    30c1:	441204        	ae_lp16x2f.i	aep1, a2, 0
    30c4:	440304        	ae_lp16x2f.i	aep0, a3, 0
    30c7:	16ae76        	loopgtz	a14, 30e1 <synth_3band+0x6d>
    30ca:	fc24dae46f 	{ ae_lp16x2f.c	aep6, a4, a6; nop }
    30cf:	011e04        	ae_mulafp24s.hh	aeq1, aep1, aep6
    30d2:	e2c79ad46f 	{ ae_lp16x2f.c	aep5, a4, a6; ae_mulafp24s.ll	aeq0, aep1, aep6 }
    30d7:	eea0ad921f 	{ ae_lp16x2f.iu	aep1, a2, 4; ae_mulsfp24s.hl	aeq0, aep0, aep5 }
    30dc:	e2a2ed831f 	{ ae_lp16x2f.iu	aep0, a3, 4; ae_mulafp24s.lh	aeq1, aep0, aep5 }

000030e1 <synth_3band+0x6d>:
    30e1:	fb6bcc422e 	{ addi	a2, a2, -60; ae_roundsp16q48asym	aep7, aeq1 }
    30e6:	f8638c433e 	{ addi	a3, a3, -60; ae_roundsp16q48asym	aep0, aeq0 }
    30eb:	fc1472891f 	{ ae_sp16f.l.iu	aep0, a9, 2; ae_movq56	aeq0, aeq2 }
    30f0:	fd1472f91f 	{ ae_sp16f.l.iu	aep7, a9, 2; ae_movq56	aeq1, aeq2 }
    30f5:	a99866        	bnei	a8, 10, 30a2 <synth_3band+0x2e>
    30f8:	0549           	s32i.n	a4, a5, 0
    30fa:	f01d           	retw.n

000030fc <biquad_2cascade_24bitTx>:
    30fc:	004136        	entry	a1, 32
    30ff:	542304        	ae_lp24x2.i	aep2, a3, 0
    3102:	541314        	ae_lp24x2.i	aep1, a3, 8
    3105:	18c482        	addi	a8, a4, 24
    3108:	540324        	ae_lp24x2.i	aep0, a3, 16
    310b:	fcc242        	addi	a4, a2, -4
    310e:	fec522        	addi	a2, a5, -2
    3111:	40a676        	loopgtz	a6, 3155 <biquad_2cascade_24bitTx+0x59>
    3114:	5468d4        	ae_lp24x2.i	aep6, a8, -24
    3117:	50f414        	ae_lp24f.iu	aep7, a4, 4
    311a:	5438e4        	ae_lp24x2.i	aep3, a8, -16
    311d:	f14ebe72af 	{ ae_selp24.lh	aep2, aep7, aep2; ae_mulzaafp24s.hh.ll	aeq2, aep3, aep2 }
    3122:	e3583058ff 	{ ae_lp24x2.i	aep5, a8, -8; ae_mulaafp24s.hh.ll	aeq2, aep6, aep2 }
    3127:	01d184        	ae_mulsfp24s.hh	aeq2, aep5, aep1
    312a:	f13630481f 	{ ae_lp24x2.i	aep4, a8, 8; ae_mulssfp24s.hh.ll	aeq2, aep5, aep1 }
    312f:	044904        	ae_mulzaafp24s.hh.ll	aeq1, aep4, aep1
    3132:	1bad34        	ae_roundsp24q48asym	aep3, aeq2
    3135:	dc2df0780f 	{ ae_lp24x2.i	aep7, a8, 0; ae_selp24.lh	aep1, aep3, aep1 }
    313a:	e23c70682f 	{ ae_lp24x2.i	aep6, a8, 16; ae_mulaafp24s.hh.ll	aeq1, aep7, aep1 }
    313f:	016884        	ae_mulsfp24s.hh	aeq1, aep6, aep0
    3142:	0568c4        	ae_mulssfp24s.hh.ll	aeq1, aep6, aep0
    3145:	fa6fb1586f 	{ ae_lp24.i	aep5, a8, 24; ae_roundsp24q48asym	aep4, aeq1 }
    314a:	045404        	ae_mulzaafp24s.hh.ll	aeq0, aep5, aep4
    314d:	1b8f34        	ae_roundsp16q48asym	aep3, aeq0
    3150:	dc11b2b21f 	{ ae_sp16f.l.iu	aep3, a2, 2; ae_selp24.lh	aep0, aep4, aep0 }

00003155 <biquad_2cascade_24bitTx+0x59>:
    3155:	562304        	ae_sp24x2s.i	aep2, a3, 0
    3158:	561314        	ae_sp24x2s.i	aep1, a3, 8
    315b:	560324        	ae_sp24x2s.i	aep0, a3, 16
    315e:	f01d           	retw.n

00003160 <conv_24_to_16>:
    3160:	004136        	entry	a1, 32
    3163:	f8c252        	addi	a5, a2, -8
    3166:	540c           	movi.n	a4, 5
    3168:	fcc322        	addi	a2, a3, -4
    316b:	f03d           	nop.n
    316d:	08a476        	loopgtz	a4, 3179 <conv_24_to_16+0x19>
    3170:	5c9514        	ae_lp24x2f.iu	aep1, a5, 8
    3173:	091184        	ae_roundsp16asym	aep0, aep1
    3176:	468214        	ae_sp16x2f.iu	aep0, a2, 4

00003179 <conv_24_to_16+0x19>:
    3179:	f01d           	retw.n

0000317b <conv_24_to_16+0x1b>:
	...

0000317c <gain_after_ec>:
    317c:	006136        	entry	a1, 48
    317f:	441404        	ae_lp16x2f.i	aep1, a4, 0
    3182:	440504        	ae_lp16x2f.i	aep0, a5, 0
    3185:	05cd           	mov.n	a12, a5
    3187:	04dd           	mov.n	a13, a4
    3189:	a70c           	movi.n	a7, 10
    318b:	fec3f2        	addi	a15, a3, -2
    318e:	f3c5e1        	l32r	a14, a4 (be30 <p_ecnr_mem>)
    3191:	fec5a2        	addi	a10, a5, -2
    3194:	fec4b2        	addi	a11, a4, -2
    3197:	fec292        	addi	a9, a2, -2
    319a:	2199           	s32i.n	a9, a1, 8
    319c:	01b9           	s32i.n	a11, a1, 0
    319e:	11a9           	s32i.n	a10, a1, 4
    31a0:	002e82        	l32i	a8, a14, 0
    31a3:	203990        	or	a3, a9, a9
    31a6:	202ff0        	or	a2, a15, a15
    31a9:	1ad882        	addmi	a8, a8, 0x1a00
    31ac:	22c882        	addi	a8, a8, 34
    31af:	404804        	ae_lp16f.i	aep4, a8, 0
    31b2:	208ff0        	or	a8, a15, a15
    31b5:	47a776        	loopgtz	a7, 3200 <gain_after_ec+0x84>
    31b8:	eb11ecf31f 	{ ae_lp16f.iu	aep7, a3, 2; ae_mulfp24s.ll	aeq3, aep4, aep0 }
    31bd:	e830acd21f 	{ ae_lp16f.iu	aep5, a2, 2; ae_mulfp24s.hh	aeq0, aep4, aep1 }
    31c2:	ea31ed9d1f 	{ ae_lp16x2f.iu	aep1, a13, 4; ae_mulfp24s.ll	aeq1, aep4, aep1 }
    31c7:	35f114        	ae_slliq56	aeq3, aeq3, 4
    31ca:	e910ba914f 	{ ae_slliq56	aeq1, aeq1, 4; ae_mulfp24s.hh	aeq2, aep4, aep0 }
    31cf:	f9ebfa810f 	{ ae_slliq56	aeq0, aeq0, 4; ae_roundsp16q48sym	aep3, aeq1 }
    31d4:	fbe3baa18f 	{ ae_slliq56	aeq2, aeq2, 4; ae_roundsp16q48sym	aep6, aeq0 }
    31d9:	eab1b2eb1f 	{ ae_sp16f.l.iu	aep6, a11, 2; ae_mulfp24s.ll	aeq0, aep4, aep5 }
    31de:	eaf1f2bb1f 	{ ae_sp16f.l.iu	aep3, a11, 2; ae_mulfp24s.ll	aeq1, aep4, aep7 }
    31e3:	350114        	ae_slliq56	aeq0, aeq0, 4
    31e6:	355114        	ae_slliq56	aeq1, aeq1, 4
    31e9:	f9f3ad8c1f 	{ ae_lp16x2f.iu	aep0, a12, 4; ae_roundsp16q48sym	aep2, aeq2 }
    31ee:	fbfbb2aa1f 	{ ae_sp16f.l.iu	aep2, a10, 2; ae_roundsp16q48sym	aep6, aeq3 }
    31f3:	f9ebf2ea1f 	{ ae_sp16f.l.iu	aep6, a10, 2; ae_roundsp16q48sym	aep3, aeq1 }
    31f8:	f9e3b2b91f 	{ ae_sp16f.l.iu	aep3, a9, 2; ae_roundsp16q48sym	aep2, aeq0 }
    31fd:	42a814        	ae_sp16f.l.iu	aep2, a8, 2

00003200 <gain_after_ec+0x84>:
    3200:	960b           	addi.n	a9, a6, -1
    3202:	07e956        	bnez	a9, 3284 <gain_after_ec+0x108>
    3205:	f42b61        	l32r	a6, 2b4 (1a26 <Pitch_by_Corel+0x60e>)
    3208:	11a8           	l32i.n	a10, a1, 4
    320a:	01b8           	l32i.n	a11, a1, 0
    320c:	a70c           	movi.n	a7, 10
    320e:	2198           	l32i.n	a9, a1, 8
    3210:	04dd           	mov.n	a13, a4
    3212:	441404        	ae_lp16x2f.i	aep1, a4, 0
    3215:	05cd           	mov.n	a12, a5
    3217:	0f8d           	mov.n	a8, a15
    3219:	440504        	ae_lp16x2f.i	aep0, a5, 0
    321c:	f425f1        	l32r	a15, 2b0 (1a24 <Pitch_by_Corel+0x60c>)
    321f:	082d           	mov.n	a2, a8
    3221:	f42551        	l32r	a5, 2b8 (1a28 <Pitch_by_Corel+0x610>)
    3224:	f42641        	l32r	a4, 2bc (1a2a <Pitch_by_Corel+0x612>)
    3227:	093d           	mov.n	a3, a9
    3229:	57a776        	loopgtz	a7, 3284 <gain_after_ec+0x108>
    322c:	0e78           	l32i.n	a7, a14, 0
    322e:	40d214        	ae_lp16f.iu	aep5, a2, 2
    3231:	414764        	ae_lp16f.x	aep4, a7, a6
    3234:	ea1199f74f 	{ ae_lp16f.x	aep7, a7, a4; ae_mulfp24s.ll	aeq0, aep4, aep0 }
    3239:	ea3deca31f 	{ ae_lp16f.iu	aep2, a3, 2; ae_mulfp24s.ll	aeq1, aep7, aep1 }

0000323e <gain_after_ec+0xc2>:
    323e:	e93cad9d1f 	{ ae_lp16x2f.iu	aep1, a13, 4; ae_mulfp24s.hh	aeq2, aep7, aep1 }
    3243:	350094        	ae_slliq56	aeq0, aeq0, 2
    3246:	35a094        	ae_slliq56	aeq2, aeq2, 2
    3249:	fbf3ba906f 	{ ae_slliq56	aeq1, aeq1, 2; ae_roundsp16q48sym	aep6, aeq2 }
    324e:	f9ebf2eb1f 	{ ae_sp16f.l.iu	aep6, a11, 2; ae_roundsp16q48sym	aep3, aeq1 }
    3253:	e910f2bb1f 	{ ae_sp16f.l.iu	aep3, a11, 2; ae_mulfp24s.hh	aeq3, aep4, aep0 }
    3258:	0e78           	l32i.n	a7, a14, 0
    325a:	35f094        	ae_slliq56	aeq3, aeq3, 2
    325d:	448c14        	ae_lp16x2f.iu	aep0, a12, 4
    3260:	fbfb99c75f 	{ ae_lp16f.x	aep4, a7, a5; ae_roundsp16q48sym	aep6, aeq3 }
    3265:	f9e3d9f7ff 	{ ae_lp16f.x	aep7, a7, a15; ae_roundsp16q48sym	aep3, aeq0 }
    326a:	eb5db2ea1f 	{ ae_sp16f.l.iu	aep6, a10, 2; ae_mulfp24s.ll	aeq2, aep7, aep2 }
    326f:	eab1f2ba1f 	{ ae_sp16f.l.iu	aep3, a10, 2; ae_mulfp24s.ll	aeq1, aep4, aep5 }
    3274:	35a094        	ae_slliq56	aeq2, aeq2, 2
    3277:	f9f3ba906f 	{ ae_slliq56	aeq1, aeq1, 2; ae_roundsp16q48sym	aep2, aeq2 }
    327c:	fbebf2a91f 	{ ae_sp16f.l.iu	aep2, a9, 2; ae_roundsp16q48sym	aep7, aeq1 }
    3281:	42f814        	ae_sp16f.l.iu	aep7, a8, 2

00003284 <gain_after_ec+0x108>:
    3284:	f01d           	retw.n

00003286 <gain_after_ec+0x10a>:
	...

00003288 <adjust_phase>:
    3288:	004136        	entry	a1, 32
    328b:	301334        	ae_cvtp24a16x2.ll	aep1, a3, a3
    328e:	360234        	ae_cvtq48a32s	aeq0, a2
    3291:	a11104        	ae_mulzaafq32sp16s.ll	aeq0, aeq0, aep1, aeq0, aep1
    3294:	1b8f04        	ae_roundsp16q48asym	aep0, aeq0
    3297:	0002d4        	ae_cvta32p24.l	a2, aep0
    329a:	f01d           	retw.n

0000329c <adjust_bib_state>:
    329c:	004136        	entry	a1, 32
    329f:	fcc242        	addi	a4, a2, -4
    32a2:	600204        	ae_lq32f.i	aeq0, a2, 0
    32a5:	830c           	movi.n	a3, 8
    32a7:	0aa376        	loopgtz	a3, 32b5 <adjust_bib_state+0x19>
    32aa:	350074        	ae_sraiq56	aeq0, aeq0, 1
    32ad:	f867bd121f 	{ ae_lq32f.iu	aeq0, a2, 4; ae_roundsp24q48asym	aep0, aeq0 }
    32b2:	528414        	ae_sp24f.l.iu	aep0, a4, 4

000032b5 <adjust_bib_state+0x19>:
    32b5:	f01d           	retw.n

000032b7 <adjust_bib_state+0x1b>:
	...

000032b8 <aec_post_prcs>:
    32b8:	004136        	entry	a1, 32
    32bb:	159282        	l16si	a8, a2, 42
    32be:	01d272        	addmi	a7, a2, 0x100
    32c1:	28c292        	addi	a9, a2, 40
    32c4:	f3ff51        	l32r	a5, 2c0 (7fffff <_end+0x7f41c3>)
    32c7:	39b554        	ae_movpa24x2	aep3, a5, a5
    32ca:	406904        	ae_lp16f.i	aep6, a9, 0
    32cd:	4ac762        	addi	a6, a7, 74
    32d0:	302884        	ae_cvtp24a16x2.ll	aep2, a8, a8
    32d3:	4cc772        	addi	a7, a7, 76
    32d6:	149282        	l16si	a8, a2, 40
    32d9:	155282        	s16i	a8, a2, 42
    32dc:	400704        	ae_lp16f.i	aep0, a7, 0
    32df:	de5aec760f 	{ ae_lp16f.i	aep7, a6, 0; ae_subsp24s	aep5, aep6, aep2 }
    32e4:	ea1d8fe42e 	{ addi	a2, a4, -2; ae_mulfp24s.ll	aeq0, aep7, aep0 }
    32e9:	ce3440004f 	{ movi	a4, 0; ae_sraip24	aep5, aep5, 4 }
    32ee:	fa67ac030f 	{ ae_lp16f.i	aep0, a3, 0; ae_roundsp24q48asym	aep4, aeq0 }

000032f3 <aec_post_prcs+0x3b>:
    32f3:	07a524        	ae_addsp24s	aep2, aep2, aep5
    32f6:	07b294        	ae_subsp24s	aep1, aep3, aep2
    32f9:	011c74        	ae_mulfp24s.ll	aeq1, aep1, aep4
    32fc:	441b           	addi.n	a4, a4, 1
    32fe:	355094        	ae_slliq56	aeq1, aeq1, 2
    3301:	fd2c400f9f 	{ movi	a9, 15; ae_roundsq32asym	aeq1, aeq1 }
    3306:	12a976        	loopgtz	a9, 331c <aec_post_prcs+0x64>
    3309:	01a874        	ae_mulfp24s.ll	aeq3, aep2, aep0
    330c:	fe3c6cf21f 	{ ae_lp16f.iu	aep7, a2, 2; ae_roundsq32asym	aeq2, aeq3 }
    3311:	03f054        	ae_mulafq32sp16s.l	aeq2, aeq1, aep7
    3314:	fb73ac831f 	{ ae_lp16f.iu	aep0, a3, 2; ae_roundsp16q48asym	aep6, aeq2 }
    3319:	4263f4        	ae_sp16f.l.i	aep6, a3, -2

0000331c <aec_post_prcs+0x64>:
    331c:	d3b466        	bnei	a4, 16, 32f3 <aec_post_prcs+0x3b>
    331f:	f01d           	retw.n

00003321 <aec_post_prcs+0x69>:
    3321:	000000                                        ...

00003324 <AVC_prcs>:
    3324:	004136        	entry	a1, 32
    3327:	440304        	ae_lp16x2f.i	aep0, a3, 0
    332a:	fc2480788f 	{ movi	a8, 120; ae_zeroq56	aeq0 }
    332f:	04a876        	loopgtz	a8, 3337 <AVC_prcs+0x13>
    3332:	e2002d831f 	{ ae_lp16x2f.iu	aep0, a3, 4; ae_mulaafp24s.hh.ll	aeq0, aep0, aep0 }

00003337 <AVC_prcs+0x13>:
    3337:	3581f4        	ae_sraiq56	aeq2, aeq0, 7
    333a:	f3e291        	l32r	a9, 2c4 (11111 <_end+0x52d5>)
    333d:	fd3462099f 	{ ae_movpa24x2	aep0, a9, a9; ae_roundsq32asym	aeq1, aeq2 }
    3342:	080d64        	ae_mulfq32sp24s.l	aeq1, aeq1, aep0
    3345:	f35681        	l32r	a8, a0 (8b8 <HIFI_sqrt>)
    3348:	3551d4        	ae_slliq56	aeq1, aeq1, 7
    334b:	fc2c4000af 	{ movi	a10, 0; ae_roundsq32asym	aeq0, aeq1 }
    3350:	368b04        	ae_trunca32q48	a11, aeq0
    3353:	0008e0        	callx8	a8
    3356:	f3bc81        	l32r	a8, 248 (80b8 <airoha_divide>)
    3359:	604224        	ae_lq32f.i	aeq1, a2, 8
    335c:	368b34        	ae_cvtq48a32s	aeq2, a11
    335f:	441204        	ae_lp16x2f.i	aep1, a2, 0
    3362:	0292b2        	l16si	a11, a2, 4
    3365:	fc24feaa0f 	{ ae_slaasq56s	aeq0, aeq2, a10; nop }
    336a:	c11114        	ae_mulzaafq32sp16s.lh	aeq0, aeq0, aep1, aeq1, aep1
    336d:	11bb00        	slli	a11, a11, 16
    3370:	06c934        	ae_roundsq32asym	aeq3, aeq0
    3373:	36ba04        	ae_trunca32q48	a10, aeq3
    3376:	22a9           	s32i.n	a10, a2, 8
    3378:	0008e0        	callx8	a8
    337b:	f3c291        	l32r	a9, 284 (2000 <pitch_by_harmonic+0x570>)
    337e:	fecaa2        	addi	a10, a10, -2
    3381:	360b34        	ae_cvtq48a32s	aeq0, a11
    3384:	fc24fe8acf 	{ ae_slaasq56s	aeq3, aeq0, a10; nop }
    3389:	f97ba0328e 	{ l16si	a8, a2, 6; ae_roundsp16q48asym	aep2, aeq3 }
    338e:	362224        	ae_trunca16p24s.l	a2, aep2
    3391:	532290        	max	a2, a2, a9
    3394:	432280        	min	a2, a2, a8
    3397:	f01d           	retw.n

00003399 <AVC_prcs+0x75>:
    3399:	000000                                        ...

0000339c <gain_ref>:
    339c:	004136        	entry	a1, 32
    339f:	303334        	ae_cvtp24a16x2.ll	aep3, a3, a3
    33a2:	fcc222        	addi	a2, a2, -4
    33a5:	448214        	ae_lp16x2f.iu	aep0, a2, 4
    33a8:	17a476        	loopgtz	a4, 33c3 <gain_ref+0x27>
    33ab:	010b54        	ae_mulfp24s.hl	aeq1, aep0, aep3
    33ae:	ea61ad821f 	{ ae_lp16x2f.iu	aep0, a2, 4; ae_mulfp24s.ll	aeq0, aep0, aep3 }
    33b3:	355094        	ae_slliq56	aeq1, aeq1, 2
    33b6:	f96bba802f 	{ ae_slliq56	aeq0, aeq0, 2; ae_roundsp16q48asym	aep2, aeq1 }
    33bb:	f863f222ef 	{ ae_sp16f.l.i	aep2, a2, -4; ae_roundsp16q48asym	aep1, aeq0 }
    33c0:	4212f4        	ae_sp16f.l.i	aep1, a2, -2

000033c3 <gain_ref+0x27>:
    33c3:	f01d           	retw.n

000033c5 <gain_ref+0x29>:
    33c5:	000000                                        ...

000033c8 <TxRef_VAD>:
    33c8:	006136        	entry	a1, 48
    33cb:	00a0a2        	movi	a10, 0
    33ce:	f0a082        	movi	a8, 240
    33d1:	08a876        	loopgtz	a8, 33dd <TxRef_VAD+0x15>
    33d4:	239d           	ae_l16si.n	a9, a3, 0
    33d6:	332b           	addi.n	a3, a3, 2
    33d8:	609190        	abs	a9, a9
    33db:	aa9a           	add.n	a10, a10, a9

000033dd <TxRef_VAD+0x15>:
    33dd:	eaac           	beqz.n	a10, 340f <TxRef_VAD+0x47>
    33df:	f37681        	l32r	a8, 1b8 (91c <Log2_norm>)
    33e2:	7b1c           	movi.n	a11, 23
    33e4:	40eac0        	nsa	a12, a10
    33e7:	401c00        	ssl	a12
    33ea:	a1aa00        	sll	a10, a10
    33ed:	c0bbc0        	sub	a11, a11, a12
    33f0:	0008e0        	callx8	a8
    33f3:	f3b581        	l32r	a8, 2c8 (4d10 <mag_calibration+0x70>)
    33f6:	f33131        	l32r	a3, bc (80000000 <_end+0x7fff41c4>)
    33f9:	829a80        	mull	a9, a10, a8
    33fc:	b28a80        	mulsh	a8, a10, a8
    33ff:	393a           	add.n	a3, a9, a3
    3401:	623390        	saltu	a3, a3, a9
    3404:	338a           	add.n	a3, a3, a8
    3406:	0ad332        	addmi	a3, a3, 0xa00
    3409:	a2c332        	addi	a3, a3, -94
    340c:	000046        	j	3411 <TxRef_VAD+0x49>

0000340f <TxRef_VAD+0x47>:
    340f:	030c           	movi.n	a3, 0

00003411 <TxRef_VAD+0x49>:
    3411:	f33d81        	l32r	a8, 108 (43d4 <siir_safr>)
    3414:	0392a2        	l16si	a10, a2, 6
    3417:	029292        	l16si	a9, a2, 4
    341a:	f32941        	l32r	a4, c0 (8000 <ifft_wo+0x108>)
    341d:	0492b2        	l16si	a11, a2, 8
    3420:	533930        	max	a3, a9, a3
    3423:	c0c4a0        	sub	a12, a4, a10
    3426:	11cc00        	slli	a12, a12, 16
    3429:	aaca           	add.n	a10, a10, a12
    342b:	01a9           	s32i.n	a10, a1, 0
    342d:	c0c4b0        	sub	a12, a4, a11
    3430:	11cc00        	slli	a12, a12, 16
    3433:	bbca           	add.n	a11, a11, a12
    3435:	11b9           	s32i.n	a11, a1, 4
    3437:	01cd           	mov.n	a12, a1
    3439:	03bd           	mov.n	a11, a3
    343b:	42a8           	l32i.n	a10, a2, 16
    343d:	0008e0        	callx8	a8
    3440:	01cd           	mov.n	a12, a1
    3442:	059292        	l16si	a9, a2, 10
    3445:	42a9           	s32i.n	a10, a2, 16
    3447:	f33081        	l32r	a8, 108 (43d4 <siir_safr>)
    344a:	0692a2        	l16si	a10, a2, 12
    344d:	c0b490        	sub	a11, a4, a9
    3450:	11bb00        	slli	a11, a11, 16
    3453:	99ba           	add.n	a9, a9, a11
    3455:	0199           	s32i.n	a9, a1, 0
    3457:	c0b4a0        	sub	a11, a4, a10
    345a:	11bb00        	slli	a11, a11, 16
    345d:	aaba           	add.n	a10, a10, a11
    345f:	03bd           	mov.n	a11, a3
    3461:	11a9           	s32i.n	a10, a1, 4
    3463:	52a8           	l32i.n	a10, a2, 20
    3465:	0008e0        	callx8	a8
    3468:	42e8           	l32i.n	a14, a2, 16
    346a:	52a9           	s32i.n	a10, a2, 20
    346c:	22cd           	ae_l16si.n	a12, a2, 0
    346e:	0add           	mov.n	a13, a10
    3470:	0a0c           	movi.n	a10, 0
    3472:	ccea           	add.n	a12, a12, a14
    3474:	0cacd7        	bge	a12, a13, 3484 <TxRef_VAD+0xbc>
    3477:	190c           	movi.n	a9, 1

00003479 <TxRef_VAD+0xb1>:
    3479:	0c5292        	s16i	a9, a2, 24

0000347c <TxRef_VAD+0xb4>:
    347c:	0d52a2        	s16i	a10, a2, 26
    347f:	0c9222        	l16si	a2, a2, 24
    3482:	f01d           	retw.n

00003484 <TxRef_VAD+0xbc>:
    3484:	0c92f2        	l16si	a15, a2, 24
    3487:	0d92b2        	l16si	a11, a2, 26
    348a:	091f66        	bnei	a15, 1, 3497 <TxRef_VAD+0xcf>
    348d:	328d           	ae_l16si.n	a8, a2, 2
    348f:	0a9d           	mov.n	a9, a10
    3491:	02a8b7        	bge	a8, a11, 3497 <TxRef_VAD+0xcf>
    3494:	fff846        	j	3479 <TxRef_VAD+0xb1>

00003497 <TxRef_VAD+0xcf>:
    3497:	ab1b           	addi.n	a10, a11, 1
    3499:	fff7c6        	j	347c <TxRef_VAD+0xb4>

0000349c <Voice_WB_TX_Prcs>:
    349c:	022136        	entry	a1, 0x110
    349f:	04bd           	mov.n	a11, a4
    34a1:	f30041        	l32r	a4, a4 (be30 <p_ecnr_mem>)
    34a4:	266162        	s32i	a6, a1, 152
    34a7:	04f8           	l32i.n	a15, a4, 0
    34a9:	02cd           	mov.n	a12, a2
    34ab:	f37561        	l32r	a6, 280 (be34 <avc_vol>)
    34ae:	40dfa2        	addmi	a10, a15, 0x4000
    34b1:	3ddf82        	addmi	a8, a15, 0x3d00
    34b4:	37df22        	addmi	a2, a15, 0x3700
    34b7:	2cdf92        	addmi	a9, a15, 0x2c00
    34ba:	f0c992        	addi	a9, a9, -16
    34bd:	28c222        	addi	a2, a2, 40
    34c0:	88c872        	addi	a7, a8, -120
    34c3:	681882        	l16ui	a8, a8, 208
    34c6:	c0caa2        	addi	a10, a10, -64
    34c9:	2d61a2        	s32i	a10, a1, 180
    34cc:	18cc           	bnez.n	a8, 34d1 <Voice_WB_TX_Prcs+0x35>
    34ce:	024dc6        	j	3e09 <Voice_WB_TX_Prcs+0x96d>
    34d1:	0c6d           	mov.n	a6, a12
    34d3:	1661b2        	s32i	a11, a1, 88
    34d6:	176192        	s32i	a9, a1, 92
    34d9:	70df82        	addmi	a8, a15, 0x7000
    34dc:	386132        	s32i	a3, a1, 224
    34df:	19dfe2        	addmi	a14, a15, 0x1900
    34e2:	f37a31        	l32r	a3, 2cc (6f70 <two_mic_WB_NR_NSN_proc+0xa9c>)
    34e5:	582ea2        	l32i	a10, a14, 0x160
    34e8:	3961a2        	s32i	a10, a1, 228
    34eb:	729882        	l16si	a8, a8, 228
    34ee:	572ea2        	l32i	a10, a14, 0x15c
    34f1:	3661a2        	s32i	a10, a1, 216
    34f4:	789c           	beqz.n	a8, 350f <Voice_WB_TX_Prcs+0x73>
    34f6:	f37681        	l32r	a8, 2d0 (33c8 <TxRef_VAD>)
    34f9:	71dfa2        	addmi	a10, a15, 0x7100
    34fc:	e4caa2        	addi	a10, a10, -28
    34ff:	0008e0        	callx8	a8
    3502:	04f8           	l32i.n	a15, a4, 0
    3504:	1621b2        	l32i	a11, a1, 88
    3507:	df3a           	add.n	a13, a15, a3
    3509:	19dfe2        	addmi	a14, a15, 0x1900
    350c:	000ac6        	j	353b <Voice_WB_TX_Prcs+0x9f>

0000350f <Voice_WB_TX_Prcs+0x73>:
    350f:	6a0c           	movi.n	a10, 6
    3511:	1adf92        	addmi	a9, a15, 0x1a00
    3514:	14c992        	addi	a9, a9, 20
    3517:	04aa76        	loopgtz	a10, 351f <Voice_WB_TX_Prcs+0x83>
    351a:	39ad           	ae_l16si.n	a10, a9, 2
    351c:	09c9a4        	ae_s16ip	a10, a9, 2

0000351f <Voice_WB_TX_Prcs+0x83>:
    351f:	999e82        	l16si	a8, a14, 0x132
    3522:	df3a           	add.n	a13, a15, a3
    3524:	118890        	slli	a8, a8, 7
    3527:	698d           	ae_s16i.n	a8, a9, 0
    3529:	7e1dc2        	l16ui	a12, a13, 252
    352c:	90ccf0        	addx2	a12, a12, a15
    352f:	1adcc2        	addmi	a12, a12, 0x1a00
    3532:	0a9cc2        	l16si	a12, a12, 20
    3535:	ffa3a2        	movi	a10, 0x3ff
    3538:	72aac0        	salt	a10, a10, a12

0000353b <Voice_WB_TX_Prcs+0x9f>:
    353b:	989e32        	l16si	a3, a14, 0x130
    353e:	3aac           	beqz.n	a10, 3565 <Voice_WB_TX_Prcs+0xc9>
    3540:	1897a2        	l16si	a10, a7, 48
    3543:	096c           	movi.n	a9, -32
    3545:	0ba937        	bge	a9, a3, 3554 <Voice_WB_TX_Prcs+0xb8>
    3548:	f87c           	movi.n	a8, -1
    354a:	330b           	addi.n	a3, a3, -1
    354c:	433380        	min	a3, a3, a8
    354f:	833d           	ae_sext16	a3, a3
    3551:	985e32        	s16i	a3, a14, 0x130

00003554 <Voice_WB_TX_Prcs+0xb8>:
    3554:	ffa192        	movi	a9, 0x1ff
    3557:	1929a7        	blt	a9, a10, 3574 <Voice_WB_TX_Prcs+0xd8>
    355a:	989e32        	l16si	a3, a14, 0x130
    355d:	ca1b           	addi.n	a12, a10, 1
    355f:	1857c2        	s16i	a12, a7, 48
    3562:	000386        	j	3574 <Voice_WB_TX_Prcs+0xd8>

00003565 <Voice_WB_TX_Prcs+0xc9>:
    3565:	0bc3e6        	bgei	a3, 32, 3574 <Voice_WB_TX_Prcs+0xd8>
    3568:	180c           	movi.n	a8, 1
    356a:	331b           	addi.n	a3, a3, 1
    356c:	533380        	max	a3, a3, a8
    356f:	833d           	ae_sext16	a3, a3
    3571:	985e32        	s16i	a3, a14, 0x130
    3574:	7f1dd2        	l16ui	a13, a13, 254
    3577:	1721a2        	l32i	a10, a1, 92
    357a:	3a6152        	s32i	a5, a1, 232
    357d:	f35581        	l32r	a8, 2d4 (2df0 <mic240_delay>)
    3580:	18dfc2        	addmi	a12, a15, 0x1800
    3583:	090c           	movi.n	a9, 0
    3585:	186792        	s32i	a9, a7, 96
    3588:	286792        	s32i	a9, a7, 160
    358b:	386792        	s32i	a9, a7, 224
    358e:	486792        	s32i	a9, a7, 0x120
    3591:	196792        	s32i	a9, a7, 100
    3594:	296792        	s32i	a9, a7, 164
    3597:	396792        	s32i	a9, a7, 228
    359a:	496792        	s32i	a9, a7, 0x124
    359d:	34ccc2        	addi	a12, a12, 52
    35a0:	0008e0        	callx8	a8
    35a3:	172152        	l32i	a5, a1, 92
    35a6:	10c1a2        	addi	a10, a1, 16
    35a9:	f2c681        	l32r	a8, c4 (9228 <xt_memset>)
    35ac:	0b0c           	movi.n	a11, 0
    35ae:	ac0c           	movi.n	a12, 10
    35b0:	0008e0        	callx8	a8
    35b3:	080c           	movi.n	a8, 0
    35b5:	78c2a2        	addi	a10, a2, 120
    35b8:	48c7e2        	addi	a14, a7, 72
    35bb:	38c192        	addi	a9, a1, 56
    35be:	14c1b2        	addi	a11, a1, 20
    35c1:	1cc1d2        	addi	a13, a1, 28
    35c4:	18c1f2        	addi	a15, a1, 24
    35c7:	0c0c           	movi.n	a12, 0
    35c9:	3761c2        	s32i	a12, a1, 220
    35cc:	2e61f2        	s32i	a15, a1, 184
    35cf:	3361d2        	s32i	a13, a1, 204
    35d2:	1f61b2        	s32i	a11, a1, 124
    35d5:	1a6192        	s32i	a9, a1, 104
    35d8:	2f61e2        	s32i	a14, a1, 188
    35db:	1961a2        	s32i	a10, a1, 100
    35de:	c25282        	s16i	a8, a2, 0x184
    35e1:	03d2a2        	addmi	a10, a2, 0x300
    35e4:	40c182        	addi	a8, a1, 64
    35e7:	0e0c           	movi.n	a14, 0
    35e9:	04d292        	addmi	a9, a2, 0x400
    35ec:	0b0c           	movi.n	a11, 0
    35ee:	0d0c           	movi.n	a13, 0
    35f0:	20c1f2        	addi	a15, a1, 32
    35f3:	0c0c           	movi.n	a12, 0
    35f5:	2a61c2        	s32i	a12, a1, 168
    35f8:	1d61f2        	s32i	a15, a1, 116
    35fb:	2961d2        	s32i	a13, a1, 164
    35fe:	2b61b2        	s32i	a11, a1, 172
    3601:	e8c992        	addi	a9, a9, -24
    3604:	2c61e2        	s32i	a14, a1, 176
    3607:	1c6182        	s32i	a8, a1, 112
    360a:	02d2e2        	addmi	a14, a2, 0x200
    360d:	01d782        	addmi	a8, a7, 0x100
    3610:	286192        	s32i	a9, a1, 160
    3613:	01d2b2        	addmi	a11, a2, 0x100
    3616:	6d0c           	movi.n	a13, 6
    3618:	3461d2        	s32i	a13, a1, 208
    361b:	b0cbf2        	addi	a15, a11, -80
    361e:	a8cac2        	addi	a12, a10, -88
    3621:	0b9d           	mov.n	a9, a11
    3623:	2761c2        	s32i	a12, a1, 156
    3626:	3561f2        	s32i	a15, a1, 212
    3629:	48caa2        	addi	a10, a10, 72
    362c:	2561a2        	s32i	a10, a1, 148
    362f:	08fd           	mov.n	a15, a8
    3631:	a8ced2        	addi	a13, a14, -88
    3634:	c8c8c2        	addi	a12, a8, -56
    3637:	a8c992        	addi	a9, a9, -88
    363a:	90cbb2        	addi	a11, a11, -112
    363d:	1b61b2        	s32i	a11, a1, 108
    3640:	186192        	s32i	a9, a1, 96
    3643:	3061c2        	s32i	a12, a1, 192
    3646:	2061d2        	s32i	a13, a1, 128
    3649:	88cff2        	addi	a15, a15, -120
    364c:	3261f2        	s32i	a15, a1, 200
    364f:	0edd           	mov.n	a13, a14
    3651:	0ecd           	mov.n	a12, a14
    3653:	888b           	addi.n	a8, a8, 8
    3655:	316182        	s32i	a8, a1, 196
    3658:	68ccc2        	addi	a12, a12, 104
    365b:	28cdd2        	addi	a13, a13, 40
    365e:	2261d2        	s32i	a13, a1, 136
    3661:	2361c2        	s32i	a12, a1, 140
    3664:	e8cee2        	addi	a14, a14, -24
    3667:	2161e2        	s32i	a14, a1, 132

0000366a <Voice_WB_TX_Prcs+0x1ce>:
    366a:	06ad           	mov.n	a10, a6
    366c:	04c8           	l32i.n	a12, a4, 0
    366e:	8d2c           	movi.n	a13, 40
    3670:	f31a81        	l32r	a8, 2d8 (2f4c <emph_filter_N>)
    3673:	18dcb2        	addmi	a11, a12, 0x1800
    3676:	30cbb2        	addi	a11, a11, 48
    3679:	18dcc2        	addmi	a12, a12, 0x1800
    367c:	1cccc2        	addi	a12, a12, 28
    367f:	0008e0        	callx8	a8
    3682:	05ad           	mov.n	a10, a5
    3684:	04c8           	l32i.n	a12, a4, 0
    3686:	8d2c           	movi.n	a13, 40
    3688:	f31481        	l32r	a8, 2d8 (2f4c <emph_filter_N>)
    368b:	18dcb2        	addmi	a11, a12, 0x1800
    368e:	30cbb2        	addi	a11, a11, 48
    3691:	18dcc2        	addmi	a12, a12, 0x1800
    3694:	20ccc2        	addi	a12, a12, 32
    3697:	0008e0        	callx8	a8
    369a:	06cd           	mov.n	a12, a6
    369c:	04b8           	l32i.n	a11, a4, 0
    369e:	10c1e2        	addi	a14, a1, 16
    36a1:	f30e81        	l32r	a8, 2dc (2e6c <tx_downsample_by2>)
    36a4:	30dbd2        	addmi	a13, a11, 0x3000
    36a7:	19dbb2        	addmi	a11, a11, 0x1900
    36aa:	f0cdd2        	addi	a13, a13, -16
    36ad:	4f2ba2        	l32i	a10, a11, 0x13c
    36b0:	502bb2        	l32i	a11, a11, 0x140
    36b3:	0008e0        	callx8	a8
    36b6:	05cd           	mov.n	a12, a5
    36b8:	04b8           	l32i.n	a11, a4, 0
    36ba:	2e21e2        	l32i	a14, a1, 184
    36bd:	f30781        	l32r	a8, 2dc (2e6c <tx_downsample_by2>)
    36c0:	30dbd2        	addmi	a13, a11, 0x3000
    36c3:	19dbb2        	addmi	a11, a11, 0x1900
    36c6:	10cdd2        	addi	a13, a13, 16
    36c9:	532ba2        	l32i	a10, a11, 0x14c
    36cc:	542bb2        	l32i	a11, a11, 0x150
    36cf:	0008e0        	callx8	a8
    36d2:	3f27d2        	l32i	a13, a7, 252
    36d5:	04c8           	l32i.n	a12, a4, 0
    36d7:	2f27e2        	l32i	a14, a7, 188
    36da:	f30181        	l32r	a8, 2e0 (2fc8 <analy_3band>)
    36dd:	3edcb2        	addmi	a11, a12, 0x3e00
    36e0:	19dcc2        	addmi	a12, a12, 0x1900
    36e3:	bb8b           	addi.n	a11, a11, 8
    36e5:	4f2ca2        	l32i	a10, a12, 0x13c
    36e8:	4e2cc2        	l32i	a12, a12, 0x138
    36eb:	0008e0        	callx8	a8
    36ee:	1f27d2        	l32i	a13, a7, 124
    36f1:	04a8           	l32i.n	a10, a4, 0
    36f3:	ae0c           	movi.n	a14, 10
    36f5:	f2fb81        	l32r	a8, 2e4 (30fc <biquad_2cascade_24bitTx>)
    36f8:	18dac2        	addmi	a12, a10, 0x1800
    36fb:	31dab2        	addmi	a11, a10, 0x3100
    36fe:	90cbb2        	addi	a11, a11, -112
    3701:	e8ccc2        	addi	a12, a12, -24
    3704:	1adaa2        	addmi	a10, a10, 0x1a00
    3707:	eaa8           	l32i.n	a10, a10, 56
    3709:	0008e0        	callx8	a8
    370c:	4027d2        	l32i	a13, a7, 0x100
    370f:	04c8           	l32i.n	a12, a4, 0
    3711:	3027e2        	l32i	a14, a7, 192
    3714:	f2f381        	l32r	a8, 2e0 (2fc8 <analy_3band>)
    3717:	3edcb2        	addmi	a11, a12, 0x3e00
    371a:	19dcc2        	addmi	a12, a12, 0x1900
    371d:	48cbb2        	addi	a11, a11, 72
    3720:	532ca2        	l32i	a10, a12, 0x14c
    3723:	4e2cc2        	l32i	a12, a12, 0x138
    3726:	0008e0        	callx8	a8
    3729:	04a8           	l32i.n	a10, a4, 0
    372b:	2027b2        	l32i	a11, a7, 128
    372e:	f2ee81        	l32r	a8, 2e8 (3160 <conv_24_to_16>)
    3731:	1adaa2        	addmi	a10, a10, 0x1a00
    3734:	eaa8           	l32i.n	a10, a10, 56
    3736:	0008e0        	callx8	a8
    3739:	07ad           	mov.n	a10, a7
    373b:	2f21b2        	l32i	a11, a1, 188
    373e:	ac0c           	movi.n	a12, 10
    3740:	f2eb81        	l32r	a8, 2ec (264c <subband_aec_block>)
    3743:	03dd           	mov.n	a13, a3
    3745:	1e0c           	movi.n	a14, 1
    3747:	0008e0        	callx8	a8
    374a:	07ad           	mov.n	a10, a7
    374c:	3021b2        	l32i	a11, a1, 192
    374f:	ac0c           	movi.n	a12, 10
    3751:	f2e681        	l32r	a8, 2ec (264c <subband_aec_block>)
    3754:	03dd           	mov.n	a13, a3
    3756:	3e0c           	movi.n	a14, 3
    3758:	0008e0        	callx8	a8
    375b:	07ad           	mov.n	a10, a7
    375d:	3121b2        	l32i	a11, a1, 196
    3760:	4c1c           	movi.n	a12, 20
    3762:	f2e281        	l32r	a8, 2ec (264c <subband_aec_block>)
    3765:	03dd           	mov.n	a13, a3
    3767:	4e0c           	movi.n	a14, 4
    3769:	0008e0        	callx8	a8
    376c:	07ad           	mov.n	a10, a7
    376e:	3221b2        	l32i	a11, a1, 200
    3771:	f2df81        	l32r	a8, 2f0 (2884 <subband_aec_mid_channel>)
    3774:	03cd           	mov.n	a12, a3
    3776:	2d0c           	movi.n	a13, 2
    3778:	0008e0        	callx8	a8
    377b:	2127a2        	l32i	a10, a7, 132
    377e:	4127b2        	l32i	a11, a7, 0x104
    3781:	5127c2        	l32i	a12, a7, 0x144
    3784:	f2dc81        	l32r	a8, 2f4 (317c <gain_after_ec>)
    3787:	3127d2        	l32i	a13, a7, 196
    378a:	0e0c           	movi.n	a14, 0
    378c:	0008e0        	callx8	a8
    378f:	04f8           	l32i.n	a15, a4, 0
    3791:	19dfe2        	addmi	a14, a15, 0x1900
    3794:	969e92        	l16si	a9, a14, 0x12c
    3797:	fec992        	addi	a9, a9, -2
    379a:	409956        	bnez	a9, 3ba7 <Voice_WB_TX_Prcs+0x70b>
    379d:	3821a2        	l32i	a10, a1, 224
    37a0:	8d2c           	movi.n	a13, 40
    37a2:	18dfc2        	addmi	a12, a15, 0x1800
    37a5:	18dfb2        	addmi	a11, a15, 0x1800
    37a8:	f2cc81        	l32r	a8, 2d8 (2f4c <emph_filter_N>)
    37ab:	30cbb2        	addi	a11, a11, 48
    37ae:	24ccc2        	addi	a12, a12, 36
    37b1:	0008e0        	callx8	a8
    37b4:	3821c2        	l32i	a12, a1, 224
    37b7:	04b8           	l32i.n	a11, a4, 0
    37b9:	1f21e2        	l32i	a14, a1, 124
    37bc:	f2c881        	l32r	a8, 2dc (2e6c <tx_downsample_by2>)
    37bf:	30dbd2        	addmi	a13, a11, 0x3000
    37c2:	19dbb2        	addmi	a11, a11, 0x1900
    37c5:	30cdd2        	addi	a13, a13, 48
    37c8:	512ba2        	l32i	a10, a11, 0x144
    37cb:	522bb2        	l32i	a11, a11, 0x148
    37ce:	0008e0        	callx8	a8
    37d1:	04c8           	l32i.n	a12, a4, 0
    37d3:	f2c381        	l32r	a8, 2e0 (2fc8 <analy_3band>)
    37d6:	37dce2        	addmi	a14, a12, 0x3700
    37d9:	3fdcb2        	addmi	a11, a12, 0x3f00
    37dc:	88cbb2        	addi	a11, a11, -120
    37df:	68cee2        	addi	a14, a14, 104
    37e2:	772ed2        	l32i	a13, a14, 0x1dc
    37e5:	19dcc2        	addmi	a12, a12, 0x1900
    37e8:	512ca2        	l32i	a10, a12, 0x144
    37eb:	972ee2        	l32i	a14, a14, 0x25c
    37ee:	4e2cc2        	l32i	a12, a12, 0x138
    37f1:	0008e0        	callx8	a8
    37f4:	04a8           	l32i.n	a10, a4, 0
    37f6:	ae0c           	movi.n	a14, 10
    37f8:	f2bb81        	l32r	a8, 2e4 (30fc <biquad_2cascade_24bitTx>)
    37fb:	37dad2        	addmi	a13, a10, 0x3700
    37fe:	18dac2        	addmi	a12, a10, 0x1800
    3801:	31dab2        	addmi	a11, a10, 0x3100
    3804:	a8cbb2        	addi	a11, a11, -88
    3807:	e8ccc2        	addi	a12, a12, -24
    380a:	68cdd2        	addi	a13, a13, 104
    380d:	672dd2        	l32i	a13, a13, 0x19c
    3810:	1adaa2        	addmi	a10, a10, 0x1a00
    3813:	eaa8           	l32i.n	a10, a10, 56
    3815:	0008e0        	callx8	a8
    3818:	07ad           	mov.n	a10, a7
    381a:	2021b2        	l32i	a11, a1, 128
    381d:	ac0c           	movi.n	a12, 10
    381f:	f2b381        	l32r	a8, 2ec (264c <subband_aec_block>)
    3822:	03dd           	mov.n	a13, a3
    3824:	1e0c           	movi.n	a14, 1
    3826:	0008e0        	callx8	a8
    3829:	07ad           	mov.n	a10, a7
    382b:	2121b2        	l32i	a11, a1, 132
    382e:	ac0c           	movi.n	a12, 10
    3830:	f2af81        	l32r	a8, 2ec (264c <subband_aec_block>)
    3833:	03dd           	mov.n	a13, a3
    3835:	3e0c           	movi.n	a14, 3
    3837:	0008e0        	callx8	a8
    383a:	07ad           	mov.n	a10, a7
    383c:	2221b2        	l32i	a11, a1, 136
    383f:	4c1c           	movi.n	a12, 20
    3841:	f2aa81        	l32r	a8, 2ec (264c <subband_aec_block>)
    3844:	03dd           	mov.n	a13, a3
    3846:	4e0c           	movi.n	a14, 4
    3848:	0008e0        	callx8	a8
    384b:	07ad           	mov.n	a10, a7
    384d:	2321b2        	l32i	a11, a1, 140
    3850:	f2a881        	l32r	a8, 2f0 (2884 <subband_aec_mid_channel>)
    3853:	03cd           	mov.n	a12, a3
    3855:	2d0c           	movi.n	a13, 2
    3857:	0008e0        	callx8	a8
    385a:	3521d2        	l32i	a13, a1, 212
    385d:	1e0c           	movi.n	a14, 1
    385f:	f2a581        	l32r	a8, 2f4 (317c <gain_after_ec>)
    3862:	4d2da2        	l32i	a10, a13, 0x134
    3865:	5d2db2        	l32i	a11, a13, 0x174
    3868:	6d2dc2        	l32i	a12, a13, 0x1b4
    386b:	7d2dd2        	l32i	a13, a13, 0x1f4
    386e:	0008e0        	callx8	a8
    3871:	04f8           	l32i.n	a15, a4, 0
    3873:	19dfe2        	addmi	a14, a15, 0x1900
    3876:	9b9e82        	l16si	a8, a14, 0x136
    3879:	3d68e7        	bbci	a8, 14, 38ba <Voice_WB_TX_Prcs+0x41e>
    387c:	562ee2        	l32i	a14, a14, 0x158
    387f:	f29e81        	l32r	a8, 2f8 (3074 <synth_3band>)
    3882:	3521c2        	l32i	a12, a1, 212
    3885:	3fdfd2        	addmi	a13, a15, 0x3f00
    3888:	c8cdd2        	addi	a13, a13, -56
    388b:	4d2ca2        	l32i	a10, a12, 0x134
    388e:	5d2cb2        	l32i	a11, a12, 0x174
    3891:	7d2cc2        	l32i	a12, a12, 0x1f4
    3894:	0008e0        	callx8	a8
    3897:	3921c2        	l32i	a12, a1, 228
    389a:	3321e2        	l32i	a14, a1, 204
    389d:	3521b2        	l32i	a11, a1, 212
    38a0:	04a8           	l32i.n	a10, a4, 0
    38a2:	f29681        	l32r	a8, 2fc (2edc <tx_upsample_by2>)
    38a5:	6d2bb2        	l32i	a11, a11, 0x1b4
    38a8:	30dad2        	addmi	a13, a10, 0x3000
    38ab:	50cdd2        	addi	a13, a13, 80
    38ae:	1adaa2        	addmi	a10, a10, 0x1a00
    38b1:	162aa2        	l32i	a10, a10, 88
    38b4:	0008e0        	callx8	a8
    38b7:	00d086        	j	3bfd <Voice_WB_TX_Prcs+0x761>

000038ba <Voice_WB_TX_Prcs+0x41e>:
    38ba:	02ad           	mov.n	a10, a2
    38bc:	f29181        	l32r	a8, 300 (44ac <prelim_filter>)
    38bf:	30c1b2        	addi	a11, a1, 48
    38c2:	50c1c2        	addi	a12, a1, 80
    38c5:	0008e0        	callx8	a8
    38c8:	02ad           	mov.n	a10, a2
    38ca:	1921b2        	l32i	a11, a1, 100
    38cd:	f28d81        	l32r	a8, 304 (475c <prelim_filter3>)
    38d0:	3c0c           	movi.n	a12, 3
    38d2:	1a21d2        	l32i	a13, a1, 104
    38d5:	0008e0        	callx8	a8
    38d8:	02ad           	mov.n	a10, a2
    38da:	1b21b2        	l32i	a11, a1, 108
    38dd:	f28981        	l32r	a8, 304 (475c <prelim_filter3>)
    38e0:	4c0c           	movi.n	a12, 4
    38e2:	1c21d2        	l32i	a13, a1, 112
    38e5:	0008e0        	callx8	a8
    38e8:	c1a8           	l32i.n	a10, a1, 48
    38ea:	f28781        	l32r	a8, 308 (3288 <adjust_phase>)
    38ed:	2a92b2        	l16si	a11, a2, 84
    38f0:	2461b2        	s32i	a11, a1, 144
    38f3:	0008e0        	callx8	a8
    38f6:	c1a9           	s32i.n	a10, a1, 48
    38f8:	f28481        	l32r	a8, 308 (3288 <adjust_phase>)
    38fb:	2421b2        	l32i	a11, a1, 144
    38fe:	e1a8           	l32i.n	a10, a1, 56
    3900:	0008e0        	callx8	a8
    3903:	e1a9           	s32i.n	a10, a1, 56
    3905:	f28081        	l32r	a8, 308 (3288 <adjust_phase>)
    3908:	2421b2        	l32i	a11, a1, 144
    390b:	1021a2        	l32i	a10, a1, 64
    390e:	0008e0        	callx8	a8
    3911:	0a92b2        	l16si	a11, a2, 20
    3914:	109292        	l16si	a9, a2, 32
    3917:	1061a2        	s32i	a10, a1, 64
    391a:	dd7c           	movi.n	a13, -3
    391c:	24a9b7        	bge	a9, a11, 3944 <Voice_WB_TX_Prcs+0x4a8>
    391f:	02ad           	mov.n	a10, a2
    3921:	f27a81        	l32r	a8, 30c (4a20 <cali_power>)
    3924:	1821b2        	l32i	a11, a1, 96
    3927:	30c1c2        	addi	a12, a1, 48
    392a:	0008e0        	callx8	a8
    392d:	f27881        	l32r	a8, 310 (48d0 <cali_module_short>)
    3930:	02ad           	mov.n	a10, a2
    3932:	30c1b2        	addi	a11, a1, 48
    3935:	0008e0        	callx8	a8
    3938:	6592d2        	l16si	a13, a2, 202
    393b:	689292        	l16si	a9, a2, 208
    393e:	1e6192        	s32i	a9, a1, 120
    3941:	000506        	j	3959 <Voice_WB_TX_Prcs+0x4bd>

00003944 <Voice_WB_TX_Prcs+0x4a8>:
    3944:	0b0c           	movi.n	a11, 0
    3946:	0a0c           	movi.n	a10, 0
    3948:	dc7c           	movi.n	a12, -3
    394a:	6552c2        	s16i	a12, a2, 202
    394d:	1e61a2        	s32i	a10, a1, 120
    3950:	6952b2        	s16i	a11, a2, 210
    3953:	6752b2        	s16i	a11, a2, 206
    3956:	6852b2        	s16i	a11, a2, 208

00003959 <Voice_WB_TX_Prcs+0x4bd>:
    3959:	6992a2        	l16si	a10, a2, 210
    395c:	2a2192        	l32i	a9, a1, 168
    395f:	679282        	l16si	a8, a2, 206
    3962:	2921e2        	l32i	a14, a1, 164
    3965:	2b21c2        	l32i	a12, a1, 172
    3968:	cc12b2        	l16ui	a11, a2, 0x198
    396b:	0f2c           	movi.n	a15, 32
    396d:	ccda           	add.n	a12, a12, a13
    396f:	63bbf0        	minu	a11, a11, a15
    3972:	1e21d2        	l32i	a13, a1, 120
    3975:	c0ffb0        	sub	a15, a15, a11
    3978:	ee8a           	add.n	a14, a14, a8
    397a:	2b61c2        	s32i	a12, a1, 172
    397d:	99aa           	add.n	a9, a9, a10
    397f:	2a6192        	s32i	a9, a1, 168
    3982:	02ad           	mov.n	a10, a2
    3984:	2c21c2        	l32i	a12, a1, 176
    3987:	2961e2        	s32i	a14, a1, 164
    398a:	82b8b0        	mull	a11, a8, a11
    398d:	0e0c           	movi.n	a14, 0
    398f:	f26181        	l32r	a8, 314 (4e00 <beam1_proc>)
    3992:	82ddf0        	mull	a13, a13, a15
    3995:	1f0c           	movi.n	a15, 1
    3997:	bbda           	add.n	a11, a11, a13
    3999:	6592d2        	l16si	a13, a2, 202
    399c:	ccba           	add.n	a12, a12, a11
    399e:	2c61c2        	s32i	a12, a1, 176
    39a1:	10cbb2        	addi	a11, a11, 16
    39a4:	21b5b0        	srai	a11, a11, 5
    39a7:	aa22c2        	l32i	a12, a2, 0x2a8
    39aa:	6852b2        	s16i	a11, a2, 208
    39ad:	2721b2        	l32i	a11, a1, 156
    39b0:	0008e0        	callx8	a8
    39b3:	02ad           	mov.n	a10, a2
    39b5:	2521b2        	l32i	a11, a1, 148
    39b8:	d422c2        	l32i	a12, a2, 0x350
    39bb:	6792d2        	l16si	a13, a2, 206
    39be:	f25581        	l32r	a8, 314 (4e00 <beam1_proc>)
    39c1:	0e0c           	movi.n	a14, 0
    39c3:	0f0c           	movi.n	a15, 0
    39c5:	0008e0        	callx8	a8
    39c8:	02ad           	mov.n	a10, a2
    39ca:	2821b2        	l32i	a11, a1, 160
    39cd:	fc22c2        	l32i	a12, a2, 0x3f0
    39d0:	6892d2        	l16si	a13, a2, 208
    39d3:	f25081        	l32r	a8, 314 (4e00 <beam1_proc>)
    39d6:	0e0c           	movi.n	a14, 0
    39d8:	0f0c           	movi.n	a15, 0
    39da:	0008e0        	callx8	a8
    39dd:	02ad           	mov.n	a10, a2
    39df:	2821b2        	l32i	a11, a1, 160
    39e2:	fc22c2        	l32i	a12, a2, 0x3f0
    39e5:	6892d2        	l16si	a13, a2, 208
    39e8:	f24b81        	l32r	a8, 314 (4e00 <beam1_proc>)
    39eb:	ae0c           	movi.n	a14, 10
    39ed:	0f0c           	movi.n	a15, 0
    39ef:	0008e0        	callx8	a8
    39f2:	d322a2        	l32i	a10, a2, 0x34c
    39f5:	f24881        	l32r	a8, 318 (339c <gain_ref>)
    39f8:	0492b2        	l16si	a11, a2, 8
    39fb:	5c0c           	movi.n	a12, 5
    39fd:	0008e0        	callx8	a8
    3a00:	fb22a2        	l32i	a10, a2, 0x3ec
    3a03:	f24581        	l32r	a8, 318 (339c <gain_ref>)
    3a06:	0592b2        	l16si	a11, a2, 10
    3a09:	ac0c           	movi.n	a12, 10
    3a0b:	0008e0        	callx8	a8
    3a0e:	04e8           	l32i.n	a14, a4, 0
    3a10:	19dee2        	addmi	a14, a14, 0x1900
    3a13:	5b2e92        	l32i	a9, a14, 0x16c
    3a16:	3521b2        	l32i	a11, a1, 212
    3a19:	06d992        	addmi	a9, a9, 0x600
    3a1c:	1e9992        	l16si	a9, a9, 60
    3a1f:	7e2bb2        	l32i	a11, a11, 0x1f8
    3a22:	052916        	beqz	a9, 3a78 <Voice_WB_TX_Prcs+0x5dc>
    3a25:	3521a2        	l32i	a10, a1, 212
    3a28:	f1a981        	l32r	a8, cc (9240 <xt_memcpy>)
    3a2b:	ac0c           	movi.n	a12, 10
    3a2d:	812aa2        	l32i	a10, a10, 0x204
    3a30:	0008e0        	callx8	a8
    3a33:	8e1c           	movi.n	a14, 24
    3a35:	f23981        	l32r	a8, 31c (4f74 <beam2_proc>)
    3a38:	0a0c           	movi.n	a10, 0
    3a3a:	2891f2        	l16si	a15, a1, 80
    3a3d:	3521c2        	l32i	a12, a1, 212
    3a40:	04b8           	l32i.n	a11, a4, 0
    3a42:	190c           	movi.n	a9, 1
    3a44:	0d9cd2        	l16si	a13, a12, 26
    3a47:	1adbb2        	addmi	a11, a11, 0x1a00
    3a4a:	7e2cc2        	l32i	a12, a12, 0x1f8
    3a4d:	189bb2        	l16si	a11, a11, 48
    3a50:	2199           	s32i.n	a9, a1, 8
    3a52:	01b9           	s32i.n	a11, a1, 0
    3a54:	11a9           	s32i.n	a10, a1, 4
    3a56:	2721b2        	l32i	a11, a1, 156
    3a59:	02ad           	mov.n	a10, a2
    3a5b:	0008e0        	callx8	a8
    3a5e:	04b8           	l32i.n	a11, a4, 0
    3a60:	1adbb2        	addmi	a11, a11, 0x1a00
    3a63:	1b2bb2        	l32i	a11, a11, 108
    3a66:	2721a2        	l32i	a10, a1, 156
    3a69:	f22d81        	l32r	a8, 320 (2c08 <main_err_alpha>)
    3a6c:	06dbb2        	addmi	a11, a11, 0x600
    3a6f:	1d9bb2        	l16si	a11, a11, 58
    3a72:	0008e0        	callx8	a8
    3a75:	000906        	j	3a9d <Voice_WB_TX_Prcs+0x601>

00003a78 <Voice_WB_TX_Prcs+0x5dc>:
    3a78:	f22981        	l32r	a8, 31c (4f74 <beam2_proc>)
    3a7b:	0a0c           	movi.n	a10, 0
    3a7d:	2891f2        	l16si	a15, a1, 80
    3a80:	190c           	movi.n	a9, 1
    3a82:	0bcd           	mov.n	a12, a11
    3a84:	3521d2        	l32i	a13, a1, 212
    3a87:	989eb2        	l16si	a11, a14, 0x130
    3a8a:	8e1c           	movi.n	a14, 24
    3a8c:	0d9dd2        	l16si	a13, a13, 26
    3a8f:	2199           	s32i.n	a9, a1, 8
    3a91:	11a9           	s32i.n	a10, a1, 4
    3a93:	01b9           	s32i.n	a11, a1, 0
    3a95:	02ad           	mov.n	a10, a2
    3a97:	2721b2        	l32i	a11, a1, 156
    3a9a:	0008e0        	callx8	a8

00003a9d <Voice_WB_TX_Prcs+0x601>:
    3a9d:	8e1c           	movi.n	a14, 24
    3a9f:	f1e3f1        	l32r	a15, 22c (7fff <ifft_wo+0x107>)
    3aa2:	f21e81        	l32r	a8, 31c (4f74 <beam2_proc>)
    3aa5:	0b1c           	movi.n	a11, 16
    3aa7:	0a0c           	movi.n	a10, 0
    3aa9:	6792d2        	l16si	a13, a2, 206
    3aac:	d422c2        	l32i	a12, a2, 0x350
    3aaf:	390c           	movi.n	a9, 3
    3ab1:	2199           	s32i.n	a9, a1, 8
    3ab3:	11a9           	s32i.n	a10, a1, 4
    3ab5:	01b9           	s32i.n	a11, a1, 0
    3ab7:	02ad           	mov.n	a10, a2
    3ab9:	2521b2        	l32i	a11, a1, 148
    3abc:	0008e0        	callx8	a8
    3abf:	9e1c           	movi.n	a14, 25
    3ac1:	f1daf1        	l32r	a15, 22c (7fff <ifft_wo+0x107>)
    3ac4:	f21681        	l32r	a8, 31c (4f74 <beam2_proc>)
    3ac7:	0b1c           	movi.n	a11, 16
    3ac9:	0a0c           	movi.n	a10, 0
    3acb:	6892d2        	l16si	a13, a2, 208
    3ace:	fc22c2        	l32i	a12, a2, 0x3f0
    3ad1:	490c           	movi.n	a9, 4
    3ad3:	2199           	s32i.n	a9, a1, 8
    3ad5:	11a9           	s32i.n	a10, a1, 4
    3ad7:	01b9           	s32i.n	a11, a1, 0
    3ad9:	02ad           	mov.n	a10, a2
    3adb:	2821b2        	l32i	a11, a1, 160
    3ade:	0008e0        	callx8	a8
    3ae1:	9e1c           	movi.n	a14, 25
    3ae3:	f1d2f1        	l32r	a15, 22c (7fff <ifft_wo+0x107>)
    3ae6:	f20d81        	l32r	a8, 31c (4f74 <beam2_proc>)
    3ae9:	0b1c           	movi.n	a11, 16
    3aeb:	aa0c           	movi.n	a10, 10
    3aed:	6892d2        	l16si	a13, a2, 208
    3af0:	fc22c2        	l32i	a12, a2, 0x3f0
    3af3:	490c           	movi.n	a9, 4
    3af5:	2199           	s32i.n	a9, a1, 8
    3af7:	11a9           	s32i.n	a10, a1, 4
    3af9:	01b9           	s32i.n	a11, a1, 0
    3afb:	02ad           	mov.n	a10, a2
    3afd:	2821b2        	l32i	a11, a1, 160
    3b00:	0008e0        	callx8	a8
    3b03:	f20881        	l32r	a8, 324 (5304 <beam1_mid_band>)
    3b06:	02ad           	mov.n	a10, a2
    3b08:	0008e0        	callx8	a8
    3b0b:	0392b2        	l16si	a11, a2, 6
    3b0e:	3521a2        	l32i	a10, a1, 212
    3b11:	f20181        	l32r	a8, 318 (339c <gain_ref>)
    3b14:	ac0c           	movi.n	a12, 10
    3b16:	f72aa2        	l32i	a10, a10, 0x3dc
    3b19:	0008e0        	callx8	a8
    3b1c:	f20381        	l32r	a8, 328 (5474 <beam2_mid_band>)
    3b1f:	02ad           	mov.n	a10, a2
    3b21:	0008e0        	callx8	a8
    3b24:	3521c2        	l32i	a12, a1, 212
    3b27:	f1f481        	l32r	a8, 2f8 (3074 <synth_3band>)
    3b2a:	04e8           	l32i.n	a14, a4, 0
    3b2c:	7e2ca2        	l32i	a10, a12, 0x1f8
    3b2f:	a62cb2        	l32i	a11, a12, 0x298
    3b32:	3fded2        	addmi	a13, a14, 0x3f00
    3b35:	c8cdd2        	addi	a13, a13, -56
    3b38:	1adee2        	addmi	a14, a14, 0x1a00
    3b3b:	f62cc2        	l32i	a12, a12, 0x3d8
    3b3e:	162ee2        	l32i	a14, a14, 88
    3b41:	0008e0        	callx8	a8
    3b44:	3521c2        	l32i	a12, a1, 212
    3b47:	f1ec81        	l32r	a8, 2f8 (3074 <synth_3band>)
    3b4a:	04e8           	l32i.n	a14, a4, 0
    3b4c:	802ca2        	l32i	a10, a12, 0x200
    3b4f:	a82cb2        	l32i	a11, a12, 0x2a0
    3b52:	3fded2        	addmi	a13, a14, 0x3f00
    3b55:	44cdd2        	addi	a13, a13, 68
    3b58:	1adee2        	addmi	a14, a14, 0x1a00
    3b5b:	f82cc2        	l32i	a12, a12, 0x3e0
    3b5e:	152ee2        	l32i	a14, a14, 84
    3b61:	0008e0        	callx8	a8
    3b64:	3921c2        	l32i	a12, a1, 228
    3b67:	3321e2        	l32i	a14, a1, 204
    3b6a:	3521b2        	l32i	a11, a1, 212
    3b6d:	04a8           	l32i.n	a10, a4, 0
    3b6f:	f1e381        	l32r	a8, 2fc (2edc <tx_upsample_by2>)
    3b72:	ce2bb2        	l32i	a11, a11, 0x338
    3b75:	30dad2        	addmi	a13, a10, 0x3000
    3b78:	50cdd2        	addi	a13, a13, 80
    3b7b:	1adaa2        	addmi	a10, a10, 0x1a00
    3b7e:	162aa2        	l32i	a10, a10, 88
    3b81:	0008e0        	callx8	a8
    3b84:	3621c2        	l32i	a12, a1, 216
    3b87:	1d21e2        	l32i	a14, a1, 116
    3b8a:	3521b2        	l32i	a11, a1, 212
    3b8d:	04a8           	l32i.n	a10, a4, 0
    3b8f:	f1db81        	l32r	a8, 2fc (2edc <tx_upsample_by2>)
    3b92:	d02bb2        	l32i	a11, a11, 0x340
    3b95:	30dad2        	addmi	a13, a10, 0x3000
    3b98:	70cdd2        	addi	a13, a13, 112
    3b9b:	1adaa2        	addmi	a10, a10, 0x1a00
    3b9e:	152aa2        	l32i	a10, a10, 84
    3ba1:	0008e0        	callx8	a8
    3ba4:	001546        	j	3bfd <Voice_WB_TX_Prcs+0x761>

00003ba7 <Voice_WB_TX_Prcs+0x70b>:
    3ba7:	562ee2        	l32i	a14, a14, 0x158
    3baa:	2127a2        	l32i	a10, a7, 132
    3bad:	4127b2        	l32i	a11, a7, 0x104
    3bb0:	3127c2        	l32i	a12, a7, 196
    3bb3:	f1d181        	l32r	a8, 2f8 (3074 <synth_3band>)
    3bb6:	3fdfd2        	addmi	a13, a15, 0x3f00
    3bb9:	c8cdd2        	addi	a13, a13, -56
    3bbc:	0008e0        	callx8	a8
    3bbf:	2d21e2        	l32i	a14, a1, 180
    3bc2:	320ee2        	l8ui	a14, a14, 50
    3bc5:	176e17        	bbci	a14, 1, 3be0 <Voice_WB_TX_Prcs+0x744>
    3bc8:	04d8           	l32i.n	a13, a4, 0
    3bca:	2127b2        	l32i	a11, a7, 132
    3bcd:	3721a2        	l32i	a10, a1, 220
    3bd0:	1addd2        	addmi	a13, a13, 0x1a00
    3bd3:	1a2dd2        	l32i	a13, a13, 104
    3bd6:	f13d81        	l32r	a8, cc (9240 <xt_memcpy>)
    3bd9:	ac0c           	movi.n	a12, 10
    3bdb:	aada           	add.n	a10, a10, a13
    3bdd:	0008e0        	callx8	a8

00003be0 <Voice_WB_TX_Prcs+0x744>:
    3be0:	5127b2        	l32i	a11, a7, 0x144
    3be3:	3921c2        	l32i	a12, a1, 228
    3be6:	04a8           	l32i.n	a10, a4, 0
    3be8:	3321e2        	l32i	a14, a1, 204
    3beb:	f1c481        	l32r	a8, 2fc (2edc <tx_upsample_by2>)
    3bee:	30dad2        	addmi	a13, a10, 0x3000
    3bf1:	50cdd2        	addi	a13, a13, 80
    3bf4:	1adaa2        	addmi	a10, a10, 0x1a00
    3bf7:	162aa2        	l32i	a10, a10, 88
    3bfa:	0008e0        	callx8	a8

00003bfd <Voice_WB_TX_Prcs+0x761>:
    3bfd:	50c662        	addi	a6, a6, 80
    3c00:	50c552        	addi	a5, a5, 80
    3c03:	3821a2        	l32i	a10, a1, 224
    3c06:	392192        	l32i	a9, a1, 228
    3c09:	3421e2        	l32i	a14, a1, 208
    3c0c:	3721f2        	l32i	a15, a1, 220
    3c0f:	362182        	l32i	a8, a1, 216
    3c12:	ee0b           	addi.n	a14, a14, -1
    3c14:	14cff2        	addi	a15, a15, 20
    3c17:	50c882        	addi	a8, a8, 80
    3c1a:	50c992        	addi	a9, a9, 80
    3c1d:	50caa2        	addi	a10, a10, 80
    3c20:	3861a2        	s32i	a10, a1, 224
    3c23:	396192        	s32i	a9, a1, 228
    3c26:	366182        	s32i	a8, a1, 216
    3c29:	3761f2        	s32i	a15, a1, 220
    3c2c:	3461e2        	s32i	a14, a1, 208
    3c2f:	a37e56        	bnez	a14, 366a <Voice_WB_TX_Prcs+0x1ce>
    3c32:	41c8           	l32i.n	a12, a1, 16
    3c34:	f137b1        	l32r	a11, 110 (4000 <find_phase+0x8>)
    3c37:	0d2bc7        	blt	a11, a12, 3c48 <Voice_WB_TX_Prcs+0x7ac>
    3c3a:	04a8           	l32i.n	a10, a4, 0
    3c3c:	f1bc81        	l32r	a8, 32c (329c <adjust_bib_state>)
    3c3f:	30daa2        	addmi	a10, a10, 0x3000
    3c42:	f0caa2        	addi	a10, a10, -16
    3c45:	0008e0        	callx8	a8

00003c48 <Voice_WB_TX_Prcs+0x7ac>:
    3c48:	71c8           	l32i.n	a12, a1, 28
    3c4a:	f13131        	l32r	a3, 110 (4000 <find_phase+0x8>)
    3c4d:	3a2152        	l32i	a5, a1, 232
    3c50:	f18c61        	l32r	a6, 280 (be34 <avc_vol>)
    3c53:	0d23c7        	blt	a3, a12, 3c64 <Voice_WB_TX_Prcs+0x7c8>
    3c56:	04a8           	l32i.n	a10, a4, 0
    3c58:	f1b581        	l32r	a8, 32c (329c <adjust_bib_state>)
    3c5b:	30daa2        	addmi	a10, a10, 0x3000
    3c5e:	50caa2        	addi	a10, a10, 80
    3c61:	0008e0        	callx8	a8

00003c64 <Voice_WB_TX_Prcs+0x7c8>:
    3c64:	61c8           	l32i.n	a12, a1, 24
    3c66:	0d23c7        	blt	a3, a12, 3c77 <Voice_WB_TX_Prcs+0x7db>
    3c69:	04a8           	l32i.n	a10, a4, 0
    3c6b:	f1b081        	l32r	a8, 32c (329c <adjust_bib_state>)
    3c6e:	30daa2        	addmi	a10, a10, 0x3000
    3c71:	10caa2        	addi	a10, a10, 16
    3c74:	0008e0        	callx8	a8

00003c77 <Voice_WB_TX_Prcs+0x7db>:
    3c77:	04f8           	l32i.n	a15, a4, 0
    3c79:	1adfc2        	addmi	a12, a15, 0x1a00
    3c7c:	169cc2        	l16si	a12, a12, 44
    3c7f:	022c26        	beqi	a12, 2, 3c85 <Voice_WB_TX_Prcs+0x7e9>
    3c82:	002206        	j	3d0e <Voice_WB_TX_Prcs+0x872>
    3c85:	51d8           	l32i.n	a13, a1, 20
    3c87:	0b23d7        	blt	a3, a13, 3c96 <Voice_WB_TX_Prcs+0x7fa>
    3c8a:	f1a881        	l32r	a8, 32c (329c <adjust_bib_state>)
    3c8d:	30dfa2        	addmi	a10, a15, 0x3000
    3c90:	30caa2        	addi	a10, a10, 48
    3c93:	0008e0        	callx8	a8

00003c96 <Voice_WB_TX_Prcs+0x7fa>:
    3c96:	81b8           	l32i.n	a11, a1, 32
    3c98:	0d23b7        	blt	a3, a11, 3ca9 <Voice_WB_TX_Prcs+0x80d>
    3c9b:	04a8           	l32i.n	a10, a4, 0
    3c9d:	f1a381        	l32r	a8, 32c (329c <adjust_bib_state>)
    3ca0:	30daa2        	addmi	a10, a10, 0x3000
    3ca3:	70caa2        	addi	a10, a10, 112
    3ca6:	0008e0        	callx8	a8

00003ca9 <Voice_WB_TX_Prcs+0x80d>:
    3ca9:	2c21c2        	l32i	a12, a1, 176
    3cac:	079292        	l16si	a9, a2, 14
    3caf:	10ccd2        	addi	a13, a12, 16
    3cb2:	21c5d0        	srai	a12, a13, 5
    3cb5:	2c61c2        	s32i	a12, a1, 176
    3cb8:	021926        	beqi	a9, 1, 3cbe <Voice_WB_TX_Prcs+0x822>
    3cbb:	3f2966        	bnei	a9, 2, 3cfe <Voice_WB_TX_Prcs+0x862>

00003cbe <Voice_WB_TX_Prcs+0x822>:
    3cbe:	6c92e2        	l16si	a14, a2, 216
    3cc1:	392ea6        	blti	a14, 2, 3cfe <Voice_WB_TX_Prcs+0x862>
    3cc4:	2a21f2        	l32i	a15, a1, 168
    3cc7:	cd92a2        	l16si	a10, a2, 0x19a
    3cca:	c29282        	l16si	a8, a2, 0x184
    3ccd:	f11791        	l32r	a9, 12c (10000 <_end+0x41c4>)
    3cd0:	2b21b2        	l32i	a11, a1, 172
    3cd3:	d188a0        	mul16s	a8, a8, a10
    3cd6:	f0faa1        	l32r	a10, c0 (8000 <ifft_wo+0x108>)
    3cd9:	40d8c2        	addmi	a12, a8, 0x4000
    3cdc:	21cfc0        	srai	a12, a12, 15
    3cdf:	a8aa           	add.n	a10, a8, a10
    3ce1:	bbca           	add.n	a11, a11, a12
    3ce3:	2b61b2        	s32i	a11, a1, 172
    3ce6:	31a0a0        	srai	a10, a10, 16
    3ce9:	908880        	addx2	a8, a8, a8
    3cec:	889a           	add.n	a8, a8, a9
    3cee:	318180        	srai	a8, a8, 17
    3cf1:	292192        	l32i	a9, a1, 164
    3cf4:	ff8a           	add.n	a15, a15, a8
    3cf6:	2a61f2        	s32i	a15, a1, 168
    3cf9:	99aa           	add.n	a9, a9, a10
    3cfb:	296192        	s32i	a9, a1, 164
    3cfe:	f18c81        	l32r	a8, 330 (4ca0 <mag_calibration>)
    3d01:	02ad           	mov.n	a10, a2
    3d03:	0008e0        	callx8	a8
    3d06:	090c           	movi.n	a9, 0
    3d08:	136292        	s32i	a9, a2, 76
    3d0b:	146292        	s32i	a9, a2, 80

00003d0e <Voice_WB_TX_Prcs+0x872>:
    3d0e:	01d7e2        	addmi	a14, a7, 0x100
    3d11:	22c732        	addi	a3, a7, 34
    3d14:	400304        	ae_lp16f.i	aep0, a3, 0
    3d17:	20cee2        	addi	a14, a14, 32
    3d1a:	600e04        	ae_lq32f.i	aeq0, a14, 0
    3d1d:	d4e23187be 	{ l32i	a11, a7, 96; ae_mulfq32sp16s.l	aeq0, aeq0, aep0 }
    3d22:	54c1d2        	addi	a13, a1, 84
    3d25:	620d04        	ae_sq32f.i	aeq0, a13, 0
    3d28:	1521c2        	l32i	a12, a1, 84
    3d2b:	f18281        	l32r	a8, 334 (2b04 <dt_detect>)
    3d2e:	07ad           	mov.n	a10, a7
    3d30:	53bbc0        	max	a11, a11, a12
    3d33:	0008e0        	callx8	a8
    3d36:	0488           	l32i.n	a8, a4, 0
    3d38:	28c7d2        	addi	a13, a7, 40
    3d3b:	37fd           	ae_l16si.n	a15, a7, 2
    3d3d:	1ad882        	addmi	a8, a8, 0x1a00
    3d40:	189882        	l16si	a8, a8, 48
    3d43:	f0ee91        	l32r	a9, fc (7fff0000 <_end+0x7ffe41c4>)
    3d46:	360934        	ae_cvtq48a32s	aeq0, a9
    3d49:	02af87        	bge	a15, a8, 3d4f <Voice_WB_TX_Prcs+0x8b3>
    3d4c:	000586        	j	3d66 <Voice_WB_TX_Prcs+0x8ca>

00003d4f <Voice_WB_TX_Prcs+0x8b3>:
    3d4f:	401304        	ae_lp16f.i	aep1, a3, 0
    3d52:	01d7b2        	addmi	a11, a7, 0x100
    3d55:	24cbb2        	addi	a11, a11, 36
    3d58:	600b04        	ae_lq32f.i	aeq0, a11, 0
    3d5b:	d4e60647ae 	{ addi	a10, a7, 100; ae_mulfq32sp16s.l	aeq0, aeq0, aep1 }
    3d60:	604a04        	ae_lq32f.i	aeq1, a10, 0
    3d63:	0110c4        	ae_maxq56s	aeq0, aeq0, aeq1

00003d66 <Voice_WB_TX_Prcs+0x8ca>:
    3d66:	1b8f24        	ae_roundsp16q48asym	aep2, aeq0
    3d69:	422d04        	ae_sp16f.l.i	aep2, a13, 0
    3d6c:	04f8           	l32i.n	a15, a4, 0
    3d6e:	19dfe2        	addmi	a14, a15, 0x1900
    3d71:	969ec2        	l16si	a12, a14, 0x12c
    3d74:	f17131        	l32r	a3, 338 (23f0 <SBAEC_INIT+0x1b4>)
    3d77:	392c66        	bnei	a12, 2, 3db4 <Voice_WB_TX_Prcs+0x918>
    3d7a:	582eb2        	l32i	a11, a14, 0x160
    3d7d:	2b21d2        	l32i	a13, a1, 172
    3d80:	2a21c2        	l32i	a12, a1, 168
    3d83:	5b2ea2        	l32i	a10, a14, 0x16c
    3d86:	9b9e82        	l16si	a8, a14, 0x136
    3d89:	6c9292        	l16si	a9, a2, 216
    3d8c:	055a92        	s16i	a9, a10, 10
    3d8f:	048e80        	extui	a8, a8, 14, 1
    3d92:	025ac2        	s16i	a12, a10, 4
    3d95:	7add           	ae_s16i.n	a13, a10, 2
    3d97:	2c21c2        	l32i	a12, a1, 176
    3d9a:	2921d2        	l32i	a13, a1, 164
    3d9d:	035ad2        	s16i	a13, a10, 6
    3da0:	045ac2        	s16i	a12, a10, 8
    3da3:	0a5816        	beqz	a8, 3e4c <Voice_WB_TX_Prcs+0x9b0>
    3da6:	f0c981        	l32r	a8, cc (9240 <xt_memcpy>)
    3da9:	05ad           	mov.n	a10, a5
    3dab:	f0a0c2        	movi	a12, 240
    3dae:	0008e0        	callx8	a8
    3db1:	000586        	j	3dcb <Voice_WB_TX_Prcs+0x92f>

00003db4 <Voice_WB_TX_Prcs+0x918>:
    3db4:	582eb2        	l32i	a11, a14, 0x160
    3db7:	05cd           	mov.n	a12, a5
    3db9:	24dfd2        	addmi	a13, a15, 0x2400
    3dbc:	40dfa2        	addmi	a10, a15, 0x4000
    3dbf:	f15f81        	l32r	a8, 33c (6004 <WB_NR_frame_process>)
    3dc2:	c0caa2        	addi	a10, a10, -64
    3dc5:	f0cdd2        	addi	a13, a13, -16
    3dc8:	0008e0        	callx8	a8

00003dcb <Voice_WB_TX_Prcs+0x92f>:
    3dcb:	04a8           	l32i.n	a10, a4, 0
    3dcd:	f15c81        	l32r	a8, 340 (3324 <AVC_prcs>)
    3dd0:	ba3a           	add.n	a11, a10, a3
    3dd2:	31daa2        	addmi	a10, a10, 0x3100
    3dd5:	d8caa2        	addi	a10, a10, -40
    3dd8:	0008e0        	callx8	a8
    3ddb:	f15a21        	l32r	a2, 344 (1830 <Pitch_by_Corel+0x418>)
    3dde:	05bd           	mov.n	a11, a5
    3de0:	04c8           	l32i.n	a12, a4, 0
    3de2:	66ad           	ae_s16i.n	a10, a6, 0
    3de4:	f15981        	l32r	a8, 348 (32b8 <aec_post_prcs>)
    3de7:	07ad           	mov.n	a10, a7
    3de9:	cc3a           	add.n	a12, a12, a3
    3deb:	0008e0        	callx8	a8
    3dee:	05ad           	mov.n	a10, a5
    3df0:	04c8           	l32i.n	a12, a4, 0
    3df2:	f0a0d2        	movi	a13, 240
    3df5:	f15581        	l32r	a8, 34c (2f90 <deemph_filter_N>)
    3df8:	bc2a           	add.n	a11, a12, a2
    3dfa:	18dcc2        	addmi	a12, a12, 0x1800
    3dfd:	28ccc2        	addi	a12, a12, 40
    3e00:	0008e0        	callx8	a8
    3e03:	04f8           	l32i.n	a15, a4, 0
    3e05:	000486        	j	3e1b <Voice_WB_TX_Prcs+0x97f>

00003e08 <Voice_WB_TX_Prcs+0x96c>:
	...

00003e09 <Voice_WB_TX_Prcs+0x96d>:
    3e09:	f0a0d2        	movi	a13, 240
    3e0c:	f11ee1        	l32r	a14, 284 (2000 <pitch_by_harmonic+0x570>)
    3e0f:	66ed           	ae_s16i.n	a14, a6, 0
    3e11:	06ad76        	loopgtz	a13, 3e1b <Voice_WB_TX_Prcs+0x97f>
    3e14:	2c8d           	ae_l16si.n	a8, a12, 0
    3e16:	09c584        	ae_s16ip	a8, a5, 2
    3e19:	cc2b           	addi.n	a12, a12, 2

00003e1b <Voice_WB_TX_Prcs+0x97f>:
    3e1b:	2621c2        	l32i	a12, a1, 152
    3e1e:	3cdfd2        	addmi	a13, a15, 0x3c00
    3e21:	3fdf92        	addmi	a9, a15, 0x3f00
    3e24:	19dfe2        	addmi	a14, a15, 0x1900
    3e27:	969ea2        	l16si	a10, a14, 0x12c
    3e2a:	771992        	l16ui	a9, a9, 238
    3e2d:	449dd2        	l16si	a13, a13, 136
    3e30:	6cdd           	ae_s16i.n	a13, a12, 0
    3e32:	1199b0        	slli	a9, a9, 5
    3e35:	ffd992        	addmi	a9, a9, 0xffffff00
    3e38:	072a66        	bnei	a10, 2, 3e43 <Voice_WB_TX_Prcs+0x9a7>
    3e3b:	5b2ea2        	l32i	a10, a14, 0x16c
    3e3e:	069aa2        	l16si	a10, a10, 12
    3e41:	9a9a           	add.n	a9, a10, a9

00003e43 <Voice_WB_TX_Prcs+0x9a7>:
    3e43:	7c9d           	ae_s16i.n	a9, a12, 2
    3e45:	26bd           	ae_l16si.n	a11, a6, 0
    3e47:	025cb2        	s16i	a11, a12, 4
    3e4a:	f01d           	retw.n

00003e4c <Voice_WB_TX_Prcs+0x9b0>:
    3e4c:	572ea2        	l32i	a10, a14, 0x15c
    3e4f:	05cd           	mov.n	a12, a5
    3e51:	f13f81        	l32r	a8, 350 (7020 <two_mic_WB_NR_proc>)
    3e54:	24dfd2        	addmi	a13, a15, 0x2400
    3e57:	f0cdd2        	addi	a13, a13, -16
    3e5a:	0008e0        	callx8	a8
    3e5d:	ffda86        	j	3dcb <Voice_WB_TX_Prcs+0x92f>

00003e60 <conv_16_to_24_x2>:
    3e60:	004136        	entry	a1, 32
    3e63:	f8c332        	addi	a3, a3, -8
    3e66:	fcc222        	addi	a2, a2, -4
    3e69:	05a476        	loopgtz	a4, 3e72 <conv_16_to_24_x2+0x12>
    3e6c:	448214        	ae_lp16x2f.iu	aep0, a2, 4
    3e6f:	5e8314        	ae_sp24x2f.iu	aep0, a3, 8

00003e72 <conv_16_to_24_x2+0x12>:
    3e72:	f01d           	retw.n

00003e74 <Voice_NB_RX_Prcs>:
    3e74:	004136        	entry	a1, 32
    3e77:	f08b41        	l32r	a4, a4 (be30 <p_ecnr_mem>)
    3e7a:	0438           	l32i.n	a3, a4, 0
    3e7c:	3dd382        	addmi	a8, a3, 0x3d00
    3e7f:	681882        	l16ui	a8, a8, 208
    3e82:	888c           	beqz.n	a8, 3e8e <Voice_NB_RX_Prcs+0x1a>
    3e84:	f13481        	l32r	a8, 354 (625c <NB_RX_NR_frame_process>)
    3e87:	02ad           	mov.n	a10, a2
    3e89:	0008e0        	callx8	a8
    3e8c:	0438           	l32i.n	a3, a4, 0

00003e8e <Voice_NB_RX_Prcs+0x1a>:
    3e8e:	5bd3a2        	addmi	a10, a3, 0x5b00
    3e91:	19d3b2        	addmi	a11, a3, 0x1900
    3e94:	9b9b92        	l16si	a9, a11, 0x136
    3e97:	231aa2        	l16ui	a10, a10, 70
    3e9a:	995ba2        	s16i	a10, a11, 0x132
    3e9d:	2669d7        	bbci	a9, 13, 3ec7 <Voice_NB_RX_Prcs+0x53>
    3ea0:	02ad           	mov.n	a10, a2
    3ea2:	f12d81        	l32r	a8, 358 (3e60 <conv_16_to_24_x2>)
    3ea5:	03bd           	mov.n	a11, a3
    3ea7:	cc3c           	movi.n	a12, 60
    3ea9:	0008e0        	callx8	a8
    3eac:	02dd           	mov.n	a13, a2
    3eae:	03ad           	mov.n	a10, a3
    3eb0:	04b8           	l32i.n	a11, a4, 0
    3eb2:	78a0e2        	movi	a14, 120
    3eb5:	f10b81        	l32r	a8, 2e4 (30fc <biquad_2cascade_24bitTx>)
    3eb8:	70dbc2        	addmi	a12, a11, 0x7000
    3ebb:	28ccc2        	addi	a12, a12, 40
    3ebe:	31dbb2        	addmi	a11, a11, 0x3100
    3ec1:	c0cbb2        	addi	a11, a11, -64
    3ec4:	0008e0        	callx8	a8

00003ec7 <Voice_NB_RX_Prcs+0x53>:
    3ec7:	f01d           	retw.n

00003ec9 <Voice_NB_RX_Prcs+0x55>:
    3ec9:	000000                                        ...

00003ecc <Voice_WB_RX_Prcs>:
    3ecc:	004136        	entry	a1, 32
    3ecf:	f07541        	l32r	a4, a4 (be30 <p_ecnr_mem>)
    3ed2:	0438           	l32i.n	a3, a4, 0
    3ed4:	3dd382        	addmi	a8, a3, 0x3d00
    3ed7:	681882        	l16ui	a8, a8, 208
    3eda:	888c           	beqz.n	a8, 3ee6 <Voice_WB_RX_Prcs+0x1a>
    3edc:	f12081        	l32r	a8, 35c (5f74 <WB_RX_NR_frame_process>)
    3edf:	02ad           	mov.n	a10, a2
    3ee1:	0008e0        	callx8	a8
    3ee4:	0438           	l32i.n	a3, a4, 0

00003ee6 <Voice_WB_RX_Prcs+0x1a>:
    3ee6:	5bd3a2        	addmi	a10, a3, 0x5b00
    3ee9:	19d3b2        	addmi	a11, a3, 0x1900
    3eec:	9b9b92        	l16si	a9, a11, 0x136
    3eef:	231aa2        	l16ui	a10, a10, 70
    3ef2:	995ba2        	s16i	a10, a11, 0x132
    3ef5:	2769d7        	bbci	a9, 13, 3f20 <Voice_WB_RX_Prcs+0x54>
    3ef8:	02ad           	mov.n	a10, a2
    3efa:	f11781        	l32r	a8, 358 (3e60 <conv_16_to_24_x2>)
    3efd:	03bd           	mov.n	a11, a3
    3eff:	78a0c2        	movi	a12, 120
    3f02:	0008e0        	callx8	a8
    3f05:	02dd           	mov.n	a13, a2
    3f07:	03ad           	mov.n	a10, a3
    3f09:	04b8           	l32i.n	a11, a4, 0
    3f0b:	f0a0e2        	movi	a14, 240
    3f0e:	f0f581        	l32r	a8, 2e4 (30fc <biquad_2cascade_24bitTx>)
    3f11:	70dbc2        	addmi	a12, a11, 0x7000
    3f14:	28ccc2        	addi	a12, a12, 40
    3f17:	31dbb2        	addmi	a11, a11, 0x3100
    3f1a:	c0cbb2        	addi	a11, a11, -64
    3f1d:	0008e0        	callx8	a8

00003f20 <Voice_WB_RX_Prcs+0x54>:
    3f20:	f01d           	retw.n

00003f22 <Voice_WB_RX_Prcs+0x56>:
	...

00003f24 <EC_REF_GAIN_READBACK>:
    3f24:	004136        	entry	a1, 32
    3f27:	f05f61        	l32r	a6, a4 (be30 <p_ecnr_mem>)
    3f2a:	0668           	l32i.n	a6, a6, 0
    3f2c:	1ad632        	addmi	a3, a6, 0x1a00
    3f2f:	3bd672        	addmi	a7, a6, 0x3b00
    3f32:	782782        	l32i	a8, a7, 0x1e0
    3f35:	a82742        	l32i	a4, a7, 0x2a0
    3f38:	982752        	l32i	a5, a7, 0x260
    3f3b:	882772        	l32i	a7, a7, 0x220
    3f3e:	318080        	srai	a8, a8, 16
    3f41:	315050        	srai	a5, a5, 16
    3f44:	314040        	srai	a4, a4, 16
    3f47:	035242        	s16i	a4, a2, 6
    3f4a:	025252        	s16i	a5, a2, 4
    3f4d:	628d           	ae_s16i.n	a8, a2, 0
    3f4f:	317070        	srai	a7, a7, 16
    3f52:	727d           	ae_s16i.n	a7, a2, 2
    3f54:	169332        	l16si	a3, a3, 44
    3f57:	040c           	movi.n	a4, 0
    3f59:	282366        	bnei	a3, 2, 3f85 <EC_REF_GAIN_READBACK+0x61>
    3f5c:	37d682        	addmi	a8, a6, 0x3700
    3f5f:	982842        	l32i	a4, a8, 0x260
    3f62:	882872        	l32i	a7, a8, 0x220
    3f65:	782892        	l32i	a9, a8, 0x1e0
    3f68:	314040        	srai	a4, a4, 16
    3f6b:	317070        	srai	a7, a7, 16
    3f6e:	319090        	srai	a9, a9, 16
    3f71:	a82882        	l32i	a8, a8, 0x2a0
    3f74:	045292        	s16i	a9, a2, 8
    3f77:	065272        	s16i	a7, a2, 12
    3f7a:	318080        	srai	a8, a8, 16
    3f7d:	055282        	s16i	a8, a2, 10

00003f80 <EC_REF_GAIN_READBACK+0x5c>:
    3f80:	075242        	s16i	a4, a2, 14
    3f83:	f01d           	retw.n

00003f85 <EC_REF_GAIN_READBACK+0x61>:
    3f85:	045242        	s16i	a4, a2, 8
    3f88:	055242        	s16i	a4, a2, 10
    3f8b:	065242        	s16i	a4, a2, 12
    3f8e:	fffb86        	j	3f80 <EC_REF_GAIN_READBACK+0x5c>

00003f91 <EC_REF_GAIN_READBACK+0x6d>:
    3f91:	000000                                        ...

00003f94 <EC_PreLim_Coef_READBACK>:
    3f94:	004136        	entry	a1, 32
    3f97:	f04361        	l32r	a6, a4 (be30 <p_ecnr_mem>)
    3f9a:	024d           	mov.n	a4, a2
    3f9c:	0668           	l32i.n	a6, a6, 0
    3f9e:	390c           	movi.n	a9, 3
    3fa0:	03a032        	movi	a3, 3
    3fa3:	35d652        	addmi	a5, a6, 0x3500
    3fa6:	50c552        	addi	a5, a5, 80
    3fa9:	0aa376        	loopgtz	a3, 3fb7 <EC_PreLim_Coef_READBACK+0x23>
    3fac:	7f2582        	l32i	a8, a5, 0x1fc
    3faf:	554b           	addi.n	a5, a5, 4
    3fb1:	318080        	srai	a8, a8, 16
    3fb4:	09c484        	ae_s16ip	a8, a4, 2

00003fb7 <EC_PreLim_Coef_READBACK+0x23>:
    3fb7:	426b           	addi.n	a4, a2, 6
    3fb9:	36d652        	addmi	a5, a6, 0x3600
    3fbc:	a8c552        	addi	a5, a5, -88
    3fbf:	22cb           	addi.n	a2, a2, 12
    3fc1:	0aa976        	loopgtz	a9, 3fcf <EC_PreLim_Coef_READBACK+0x3b>
    3fc4:	7f2582        	l32i	a8, a5, 0x1fc
    3fc7:	554b           	addi.n	a5, a5, 4
    3fc9:	318080        	srai	a8, a8, 16
    3fcc:	09c484        	ae_s16ip	a8, a4, 2
    3fcf:	390c           	movi.n	a9, 3
    3fd1:	36d642        	addmi	a4, a6, 0x3600
    3fd4:	c0c442        	addi	a4, a4, -64
    3fd7:	0aa976        	loopgtz	a9, 3fe5 <EC_PreLim_Coef_READBACK+0x51>
    3fda:	7f2482        	l32i	a8, a4, 0x1fc
    3fdd:	444b           	addi.n	a4, a4, 4
    3fdf:	318080        	srai	a8, a8, 16
    3fe2:	09c284        	ae_s16ip	a8, a2, 2
    3fe5:	f01d           	retw.n

00003fe7 <EC_PreLim_Coef_READBACK+0x53>:
	...

00003fe8 <DaulMIC_power_Coef_READBACK>:
    3fe8:	004136        	entry	a1, 32
    3feb:	f02e21        	l32r	a2, a4 (be30 <p_ecnr_mem>)
    3fee:	0228           	l32i.n	a2, a2, 0
    3ff0:	38d222        	addmi	a2, a2, 0x3800
    3ff3:	589222        	l16si	a2, a2, 176
    3ff6:	f01d           	retw.n

00003ff8 <find_phase>:
    3ff8:	004136        	entry	a1, 32
    3ffb:	345030        	extui	a5, a3, 0, 4
    3ffe:	75cc           	bnez.n	a5, 4009 <find_phase+0x11>
    4000:	600204        	ae_lq32f.i	aeq0, a2, 0
    4003:	064b34        	ae_movq56	aeq1, aeq0
    4006:	000ac6        	j	4035 <find_phase+0x3d>

00004009 <find_phase+0x11>:
    4009:	081566        	bnei	a5, 1, 4015 <find_phase+0x1d>
    400c:	600214        	ae_lq32f.i	aeq0, a2, 4
    400f:	064b34        	ae_movq56	aeq1, aeq0
    4012:	0007c6        	j	4035 <find_phase+0x3d>

00004015 <find_phase+0x1d>:
    4015:	082566        	bnei	a5, 2, 4021 <find_phase+0x29>
    4018:	600224        	ae_lq32f.i	aeq0, a2, 8
    401b:	064b34        	ae_movq56	aeq1, aeq0
    401e:	0004c6        	j	4035 <find_phase+0x3d>

00004021 <find_phase+0x29>:
    4021:	243566        	bnei	a5, 3, 4049 <find_phase+0x51>
    4024:	604214        	ae_lq32f.i	aeq1, a2, 4
    4027:	600204        	ae_lq32f.i	aeq0, a2, 0
    402a:	0001c6        	j	4035 <find_phase+0x3d>

0000402d <find_phase+0x35>:
    402d:	604224        	ae_lq32f.i	aeq1, a2, 8
    4030:	fd14bd021f 	{ ae_lq32f.i	aeq0, a2, 4; ae_negq56	aeq1, aeq1 }

00004035 <find_phase+0x3d>:
    4035:	0109c4        	ae_addq56	aeq0, aeq0, aeq1
    4038:	350074        	ae_sraiq56	aeq0, aeq0, 1
    403b:	026347        	bbci	a3, 4, 4041 <find_phase+0x49>
    403e:	060824        	ae_negq56	aeq0, aeq0

00004041 <find_phase+0x49>:
    4041:	064934        	ae_roundsq32asym	aeq1, aeq0
    4044:	369204        	ae_trunca32q48	a2, aeq1
    4047:	f01d           	retw.n

00004049 <find_phase+0x51>:
    4049:	0a4566        	bnei	a5, 4, 4057 <find_phase+0x5f>
    404c:	604214        	ae_lq32f.i	aeq1, a2, 4
    404f:	fd14bd020f 	{ ae_lq32f.i	aeq0, a2, 0; ae_negq56	aeq1, aeq1 }
    4054:	fff746        	j	4035 <find_phase+0x3d>

00004057 <find_phase+0x5f>:
    4057:	085566        	bnei	a5, 5, 4063 <find_phase+0x6b>
    405a:	604224        	ae_lq32f.i	aeq1, a2, 8
    405d:	600204        	ae_lq32f.i	aeq0, a2, 0
    4060:	fff446        	j	4035 <find_phase+0x3d>

00004063 <find_phase+0x6b>:
    4063:	0a6566        	bnei	a5, 6, 4071 <find_phase+0x79>
    4066:	604224        	ae_lq32f.i	aeq1, a2, 8
    4069:	fd14bd020f 	{ ae_lq32f.i	aeq0, a2, 0; ae_negq56	aeq1, aeq1 }
    406e:	fff0c6        	j	4035 <find_phase+0x3d>

00004071 <find_phase+0x79>:
    4071:	b87566        	bnei	a5, 7, 402d <find_phase+0x35>
    4074:	604224        	ae_lq32f.i	aeq1, a2, 8
    4077:	600214        	ae_lq32f.i	aeq0, a2, 4
    407a:	ffedc6        	j	4035 <find_phase+0x3d>

0000407d <find_phase+0x85>:
    407d:	000000                                        ...

00004080 <memset_S16>:
    4080:	004136        	entry	a1, 32
    4083:	f03d           	nop.n
    4085:	02a476        	loopgtz	a4, 408b <memset_S16+0xb>
    4088:	09c234        	ae_s16ip	a3, a2, 2

0000408b <memset_S16+0xb>:
    408b:	f01d           	retw.n

0000408d <memset_S16+0xd>:
    408d:	000000                                        ...

00004090 <beam2_setup>:
    4090:	004136        	entry	a1, 32
    4093:	1c5232        	s16i	a3, a2, 56
    4096:	40c2a2        	addi	a10, a2, 64
    4099:	f0b2b1        	l32r	a11, 364 (1000 <voiced_decision+0x48>)
    409c:	cc0c           	movi.n	a12, 12
    409e:	f0b281        	l32r	a8, 368 (4080 <memset_S16>)
    40a1:	f0af91        	l32r	a9, 360 (10000000 <_end+0xfff41c4>)
    40a4:	a299           	s32i.n	a9, a2, 40
    40a6:	0008e0        	callx8	a8
    40a9:	f01d           	retw.n

000040ab <beam2_setup+0x1b>:
	...

000040ac <cal_vad_thrd_x1>:
    40ac:	004136        	entry	a1, 32
    40af:	f0af51        	l32r	a5, 36c (b50c <immediate_num+0x1c>)
    40b2:	445304        	ae_lp16x2f.i	aep5, a3, 0
    40b5:	443204        	ae_lp16x2f.i	aep3, a2, 0
    40b8:	dead2d250f 	{ ae_lp16x2f.i	aep2, a5, 0; ae_selp24.hh	aep4, aep3, aep5 }
    40bd:	f08afe35ff 	{ ae_selp24.ll	aep3, aep3, aep5; ae_mulzaafp24s.hh.ll	aeq1, aep2, aep4 }
    40c2:	042304        	ae_mulzaafp24s.hh.ll	aeq0, aep2, aep3
    40c5:	1b9f14        	ae_roundsp16q48asym	aep1, aeq1
    40c8:	f863b2140f 	{ ae_sp16f.l.i	aep1, a4, 0; ae_roundsp16q48asym	aep0, aeq0 }
    40cd:	420414        	ae_sp16f.l.i	aep0, a4, 2
    40d0:	f01d           	retw.n

000040d2 <cal_vad_thrd_x1+0x26>:
	...

000040d4 <CH13_cb_setup>:
    40d4:	004136        	entry	a1, 32
    40d7:	18c282        	addi	a8, a2, 24
    40da:	01d232        	addmi	a3, a2, 0x100
    40dd:	90c332        	addi	a3, a3, -112
    40e0:	166232        	s32i	a3, a2, 88
    40e3:	4289           	s32i.n	a8, a2, 16
    40e5:	f01d           	retw.n

000040e7 <CH13_cb_setup+0x13>:
	...

000040e8 <TWO_MIC_WB_init>:
    40e8:	008136        	entry	a1, 64
    40eb:	efee41        	l32r	a4, a4 (be30 <p_ecnr_mem>)
    40ee:	0b0c           	movi.n	a11, 0
    40f0:	0448           	l32i.n	a4, a4, 0
    40f2:	b0a2c2        	movi	a12, 0x2b0
    40f5:	eff381        	l32r	a8, c4 (9228 <xt_memset>)
    40f8:	37d432        	addmi	a3, a4, 0x3700
    40fb:	28c332        	addi	a3, a3, 40
    40fe:	3dd442        	addmi	a4, a4, 0x3d00
    4101:	88c442        	addi	a4, a4, -120
    4104:	03ad           	mov.n	a10, a3
    4106:	0008e0        	callx8	a8
    4109:	04ed           	mov.n	a14, a4
    410b:	b39472        	l16si	a7, a4, 0x166
    410e:	b59482        	l16si	a8, a4, 0x16a
    4111:	efe451        	l32r	a5, a4 (be30 <p_ecnr_mem>)
    4114:	b49462        	l16si	a6, a4, 0x168
    4117:	b294f2        	l16si	a15, a4, 0x164
    411a:	0558           	l32i.n	a5, a5, 0
    411c:	668a           	add.n	a6, a6, a8
    411e:	ff7a           	add.n	a15, a15, a7
    4120:	f04081        	l32r	a8, 220 (2440 <Fill_CH_MEM_WB>)
    4123:	ff6a           	add.n	a15, a15, a6
    4125:	a0ff50        	addx4	a15, a15, a5
    4128:	25d562        	addmi	a6, a5, 0x2500
    412b:	668b           	addi.n	a6, a6, 8
    412d:	1adff2        	addmi	a15, a15, 0x1a00
    4130:	70cff2        	addi	a15, a15, 112
    4133:	0169           	s32i.n	a6, a1, 0
    4135:	02d352        	addmi	a5, a3, 0x200
    4138:	057d           	mov.n	a7, a5
    413a:	a8c5a2        	addi	a10, a5, -88
    413d:	41a9           	s32i.n	a10, a1, 16
    413f:	056d           	mov.n	a6, a5
    4141:	68c772        	addi	a7, a7, 104
    4144:	07bd           	mov.n	a11, a7
    4146:	e8c662        	addi	a6, a6, -24
    4149:	06cd           	mov.n	a12, a6
    414b:	28c552        	addi	a5, a5, 40
    414e:	05dd           	mov.n	a13, a5
    4150:	0008e0        	callx8	a8
    4153:	41a8           	l32i.n	a10, a1, 16
    4155:	efd3e1        	l32r	a14, a4 (be30 <p_ecnr_mem>)
    4158:	b294b2        	l16si	a11, a4, 0x164
    415b:	1a92c2        	l16si	a12, a2, 52
    415e:	0ee8           	l32i.n	a14, a14, 0
    4160:	0d0c           	movi.n	a13, 0
    4162:	f03081        	l32r	a8, 224 (2428 <Fill_sbco>)
    4165:	18dee2        	addmi	a14, a14, 0x1800
    4168:	942e92        	l32i	a9, a14, 0x250
    416b:	986392        	s32i	a9, a3, 0x260
    416e:	922ee2        	l32i	a14, a14, 0x248
    4171:	9763e2        	s32i	a14, a3, 0x25c
    4174:	0008e0        	callx8	a8
    4177:	07ad           	mov.n	a10, a7
    4179:	0d0c           	movi.n	a13, 0
    417b:	b394b2        	l16si	a11, a4, 0x166
    417e:	f02981        	l32r	a8, 224 (2428 <Fill_sbco>)
    4181:	2c0c           	movi.n	a12, 2
    4183:	d2bbc0        	quos	a11, a11, a12
    4186:	8bbd           	ae_sext16	a11, a11
    4188:	1b92c2        	l16si	a12, a2, 54
    418b:	0008e0        	callx8	a8
    418e:	06ad           	mov.n	a10, a6
    4190:	b494b2        	l16si	a11, a4, 0x168
    4193:	f02481        	l32r	a8, 224 (2428 <Fill_sbco>)
    4196:	1c92c2        	l16si	a12, a2, 56
    4199:	0d0c           	movi.n	a13, 0
    419b:	0008e0        	callx8	a8
    419e:	05ad           	mov.n	a10, a5
    41a0:	b594b2        	l16si	a11, a4, 0x16a
    41a3:	f02081        	l32r	a8, 224 (2428 <Fill_sbco>)
    41a6:	1d92c2        	l16si	a12, a2, 58
    41a9:	0d0c           	movi.n	a13, 0
    41ab:	0008e0        	callx8	a8
    41ae:	4c0c           	movi.n	a12, 4
    41b0:	efc781        	l32r	a8, cc (9240 <xt_memcpy>)
    41b3:	3024b2        	l32i	a11, a4, 192
    41b6:	2024a2        	l32i	a10, a4, 128
    41b9:	7863a2        	s32i	a10, a3, 0x1e0
    41bc:	a863b2        	s32i	a11, a3, 0x2a0
    41bf:	a3eb           	addi.n	a10, a3, 14
    41c1:	01d2b2        	addmi	a11, a2, 0x100
    41c4:	402492        	l32i	a9, a4, 0x100
    41c7:	886392        	s32i	a9, a3, 0x220
    41ca:	b4cbb2        	addi	a11, a11, -76
    41cd:	0008e0        	callx8	a8
    41d0:	4c0c           	movi.n	a12, 4
    41d2:	efbe81        	l32r	a8, cc (9240 <xt_memcpy>)
    41d5:	5f1292        	l16ui	a9, a2, 190
    41d8:	5e12f2        	l16ui	a15, a2, 188
    41db:	01d362        	addmi	a6, a3, 0x100
    41de:	01d2b2        	addmi	a11, a2, 0x100
    41e1:	04d3e2        	addmi	a14, a3, 0x400
    41e4:	5cce72        	addi	a7, a14, 92
    41e7:	c0cbb2        	addi	a11, a11, -64
    41ea:	a8c662        	addi	a6, a6, -88
    41ed:	06ad           	mov.n	a10, a6
    41ef:	74d8f0        	extui	a13, a15, 8, 8
    41f2:	34f0f0        	extui	a15, a15, 0, 4
    41f5:	0b53f2        	s16i	a15, a3, 22
    41f8:	ad5ed2        	s16i	a13, a14, 0x15a
    41fb:	705392        	s16i	a9, a3, 224
    41fe:	0008e0        	callx8	a8
    4201:	8c0c           	movi.n	a12, 8
    4203:	efb281        	l32r	a8, cc (9240 <xt_memcpy>)
    4206:	01d352        	addmi	a5, a3, 0x100
    4209:	01d2b2        	addmi	a11, a2, 0x100
    420c:	c8cbb2        	addi	a11, a11, -56
    420f:	b8c552        	addi	a5, a5, -72
    4212:	05ad           	mov.n	a10, a5
    4214:	0008e0        	callx8	a8
    4217:	efad81        	l32r	a8, cc (9240 <xt_memcpy>)
    421a:	6f12a2        	l16ui	a10, a2, 222
    421d:	701292        	l16ui	a9, a2, 224
    4220:	6c12b2        	l16ui	a11, a2, 216
    4223:	6e12d2        	l16ui	a13, a2, 220
    4226:	6d12c2        	l16ui	a12, a2, 218
    4229:	8057d2        	s16i	a13, a7, 0x100
    422c:	2b53c2        	s16i	a12, a3, 86
    422f:	6c0c           	movi.n	a12, 6
    4231:	7e57b2        	s16i	a11, a7, 252
    4234:	065392        	s16i	a9, a3, 12
    4237:	6453a2        	s16i	a10, a3, 200
    423a:	02d2b2        	addmi	a11, a2, 0x200
    423d:	a4cbb2        	addi	a11, a11, -92
    4240:	03ad           	mov.n	a10, a3
    4242:	0008e0        	callx8	a8
    4245:	3c0c           	movi.n	a12, 3
    4247:	02d2b2        	addmi	a11, a2, 0x200
    424a:	02d3a2        	addmi	a10, a3, 0x200
    424d:	ef9f81        	l32r	a8, cc (9240 <xt_memcpy>)
    4250:	9ccaa2        	addi	a10, a10, -100
    4253:	bb6b           	addi.n	a11, a11, 6
    4255:	0008e0        	callx8	a8
    4258:	f047a1        	l32r	a10, 374 (e390000 <_end+0xe3841c4>)
    425b:	f04781        	l32r	a8, 378 (3eb80000 <_end+0x3eb741c4>)
    425e:	eff4b1        	l32r	a11, 230 (200000 <_end+0x1f41c4>)
    4261:	40c392        	addi	a9, a3, 64
    4264:	f043c1        	l32r	a12, 370 (40000000 <_end+0x3fff41c4>)
    4267:	f047d1        	l32r	a13, 384 (6000 <WB_TX_NR_frame_process+0x1c>)
    426a:	f045e1        	l32r	a14, 380 (d330000 <_end+0xd3241c4>)
    426d:	f043f1        	l32r	a15, 37c (18000000 <_end+0x17ff41c4>)
    4270:	5e63f2        	s32i	a15, a3, 0x178
    4273:	5d63e2        	s32i	a14, a3, 0x174
    4276:	2a53d2        	s16i	a13, a3, 84
    4279:	4363c2        	s32i	a12, a3, 0x10c
    427c:	4a63c2        	s32i	a12, a3, 0x128
    427f:	5363c2        	s32i	a12, a3, 0x14c
    4282:	5a63c2        	s32i	a12, a3, 0x168
    4285:	196392        	s32i	a9, a3, 100
    4288:	1663b2        	s32i	a11, a3, 88
    428b:	376382        	s32i	a8, a3, 220
    428e:	1863a2        	s32i	a10, a3, 96
    4291:	f03581        	l32r	a8, 368 (4080 <memset_S16>)
    4294:	01d3a2        	addmi	a10, a3, 0x100
    4297:	88cab2        	addi	a11, a10, -120
    429a:	a0ca92        	addi	a9, a10, -96
    429d:	246392        	s32i	a9, a3, 144
    42a0:	1e63b2        	s32i	a11, a3, 120
    42a3:	10caa2        	addi	a10, a10, 16
    42a6:	f038c1        	l32r	a12, 388 (1770 <Pitch_by_Corel+0x358>)
    42a9:	ef99b1        	l32r	a11, 110 (4000 <find_phase+0x8>)
    42ac:	c553c2        	s16i	a12, a3, 0x18a
    42af:	cc0c           	movi.n	a12, 12
    42b1:	0008e0        	callx8	a8
    42b4:	a923b2        	l32i	a11, a3, 0x2a4
    42b7:	03d3a2        	addmi	a10, a3, 0x300
    42ba:	2d0c           	movi.n	a13, 2
    42bc:	6f92c2        	l16si	a12, a2, 222
    42bf:	312492        	l32i	a9, a4, 196
    42c2:	512482        	l32i	a8, a4, 0x144
    42c5:	7923f2        	l32i	a15, a3, 0x1e4
    42c8:	2124e2        	l32i	a14, a4, 132
    42cb:	ac63e2        	s32i	a14, a3, 0x2b0
    42ce:	ab63f2        	s32i	a15, a3, 0x2ac
    42d1:	8923e2        	l32i	a14, a3, 0x224
    42d4:	9923f2        	l32i	a15, a3, 0x264
    42d7:	412442        	l32i	a4, a4, 0x104
    42da:	d2ccd0        	quos	a12, a12, a13
    42dd:	6653c2        	s16i	a12, a3, 204
    42e0:	646a92        	s32i	a9, a10, 0x190
    42e3:	636ab2        	s32i	a11, a10, 0x18c
    42e6:	0298           	l32i.n	a9, a2, 0
    42e8:	fb63f2        	s32i	a15, a3, 0x3ec
    42eb:	d363e2        	s32i	a14, a3, 0x34c
    42ee:	fc6382        	s32i	a8, a3, 0x3f0
    42f1:	d46342        	s32i	a4, a3, 0x350
    42f4:	f02681        	l32r	a8, 38c (4090 <beam2_setup>)
    42f7:	94ca42        	addi	a4, a10, -108
    42fa:	50c9b2        	addi	a11, a9, 80
    42fd:	3cc9c2        	addi	a12, a9, 60
    4300:	28c9d2        	addi	a13, a9, 40
    4303:	626a92        	s32i	a9, a10, 0x188
    4306:	aa63d2        	s32i	a13, a3, 0x2a8
    4309:	d263c2        	s32i	a12, a3, 0x348
    430c:	fa63b2        	s32i	a11, a3, 0x3e8
    430f:	e0caa2        	addi	a10, a10, -32
    4312:	7292b2        	l16si	a11, a2, 228
    4315:	64c992        	addi	a9, a9, 100
    4318:	ad6392        	s32i	a9, a3, 0x2b4
    431b:	0008e0        	callx8	a8
    431e:	7492b2        	l16si	a11, a2, 232
    4321:	f01a81        	l32r	a8, 38c (4090 <beam2_setup>)
    4324:	04d3a2        	addmi	a10, a3, 0x400
    4327:	80caa2        	addi	a10, a10, -128
    432a:	0008e0        	callx8	a8
    432d:	7592b2        	l16si	a11, a2, 234
    4330:	f01781        	l32r	a8, 38c (4090 <beam2_setup>)
    4333:	04d3a2        	addmi	a10, a3, 0x400
    4336:	20caa2        	addi	a10, a10, 32
    4339:	0008e0        	callx8	a8
    433c:	cc0c           	movi.n	a12, 12
    433e:	f00a81        	l32r	a8, 368 (4080 <memset_S16>)
    4341:	f00791        	l32r	a9, 360 (10000000 <_end+0xfff41c4>)
    4344:	04d3a2        	addmi	a10, a3, 0x400
    4347:	7392b2        	l16si	a11, a2, 230
    434a:	755ab2        	s16i	a11, a10, 234
    434d:	3b6a92        	s32i	a9, a10, 236
    4350:	f005b1        	l32r	a11, 364 (1000 <voiced_decision+0x48>)
    4353:	05d3a2        	addmi	a10, a3, 0x500
    4356:	0008e0        	callx8	a8
    4359:	f00d81        	l32r	a8, 390 (40d4 <CH13_cb_setup>)
    435c:	03d3a2        	addmi	a10, a3, 0x300
    435f:	a8caa2        	addi	a10, a10, -88
    4362:	0008e0        	callx8	a8
    4365:	f00a81        	l32r	a8, 390 (40d4 <CH13_cb_setup>)
    4368:	03d3a2        	addmi	a10, a3, 0x300
    436b:	48caa2        	addi	a10, a10, 72
    436e:	0008e0        	callx8	a8
    4371:	f00781        	l32r	a8, 390 (40d4 <CH13_cb_setup>)
    4374:	04d3a2        	addmi	a10, a3, 0x400
    4377:	e8caa2        	addi	a10, a10, -24
    437a:	0008e0        	callx8	a8
    437d:	05bd           	mov.n	a11, a5
    437f:	b4a072        	movi	a7, 180
    4382:	f00481        	l32r	a8, 394 (40ac <cal_vad_thrd_x1>)
    4385:	05d392        	addmi	a9, a3, 0x500
    4388:	01d3c2        	addmi	a12, a3, 0x100
    438b:	b0ccc2        	addi	a12, a12, -80
    438e:	a0c9a2        	addi	a10, a9, -96
    4391:	8064a2        	s32i	a10, a4, 0x200
    4394:	18c992        	addi	a9, a9, 24
    4397:	06ad           	mov.n	a10, a6
    4399:	936492        	s32i	a9, a4, 0x24c
    439c:	0008e0        	callx8	a8
    439f:	c37a           	add.n	a12, a3, a7
    43a1:	01d3b2        	addmi	a11, a3, 0x100
    43a4:	01d3a2        	addmi	a10, a3, 0x100
    43a7:	effb81        	l32r	a8, 394 (40ac <cal_vad_thrd_x1>)
    43aa:	accaa2        	addi	a10, a10, -84
    43ad:	bccbb2        	addi	a11, a11, -68
    43b0:	0008e0        	callx8	a8
    43b3:	8c0c           	movi.n	a12, 8
    43b5:	02d2b2        	addmi	a11, a2, 0x200
    43b8:	02d3a2        	addmi	a10, a3, 0x200
    43bb:	ef4481        	l32r	a8, cc (9240 <xt_memcpy>)
    43be:	8ccaa2        	addi	a10, a10, -116
    43c1:	94cbb2        	addi	a11, a11, -108
    43c4:	0008e0        	callx8	a8
    43c7:	eff481        	l32r	a8, 398 (6398 <two_mic_WB_NR_init>)
    43ca:	02ad           	mov.n	a10, a2
    43cc:	0008e0        	callx8	a8
    43cf:	f01d           	retw.n

000043d1 <TWO_MIC_WB_init+0x2e9>:
    43d1:	000000                                        ...

000043d4 <siir_safr>:
    43d4:	004136        	entry	a1, 32
    43d7:	368334        	ae_cvtq48a32s	aeq2, a3
    43da:	364234        	ae_cvtq48a32s	aeq1, a2
    43dd:	05a237        	bge	a2, a3, 43e6 <siir_safr+0x12>
    43e0:	440404        	ae_lp16x2f.i	aep0, a4, 0
    43e3:	000086        	j	43e9 <siir_safr+0x15>

000043e6 <siir_safr+0x12>:
    43e6:	440414        	ae_lp16x2f.i	aep0, a4, 4

000043e9 <siir_safr+0x15>:
    43e9:	c10864        	ae_mulzaafq32sp16s.lh	aeq1, aeq1, aep0, aeq2, aep0
    43ec:	061934        	ae_roundsq32asym	aeq0, aeq1
    43ef:	368204        	ae_trunca32q48	a2, aeq0
    43f2:	f01d           	retw.n

000043f4 <take_min_four>:
    43f4:	004136        	entry	a1, 32
    43f7:	228d           	ae_l16si.n	a8, a2, 0
    43f9:	3f23a6        	blti	a3, 2, 443c <take_min_four+0x48>
    43fc:	ef8c91        	l32r	a9, 22c (7fff <ifft_wo+0x107>)
    43ff:	ef8b61        	l32r	a6, 22c (7fff <ifft_wo+0x107>)
    4402:	ef8a71        	l32r	a7, 22c (7fff <ifft_wo+0x107>)
    4405:	222b           	addi.n	a2, a2, 2
    4407:	430b           	addi.n	a4, a3, -1
    4409:	2ca476        	loopgtz	a4, 4439 <take_min_four+0x45>
    440c:	223d           	ae_l16si.n	a3, a2, 0
    440e:	222b           	addi.n	a2, a2, 2
    4410:	0aa387        	bge	a3, a8, 441e <take_min_four+0x2a>
    4413:	069d           	mov.n	a9, a6
    4415:	076d           	mov.n	a6, a7
    4417:	087d           	mov.n	a7, a8
    4419:	038d           	mov.n	a8, a3
    441b:	000606        	j	4437 <take_min_four+0x43>

0000441e <take_min_four+0x2a>:
    441e:	08a377        	bge	a3, a7, 442a <take_min_four+0x36>
    4421:	069d           	mov.n	a9, a6
    4423:	076d           	mov.n	a6, a7
    4425:	037d           	mov.n	a7, a3
    4427:	000306        	j	4437 <take_min_four+0x43>

0000442a <take_min_four+0x36>:
    442a:	06a367        	bge	a3, a6, 4434 <take_min_four+0x40>
    442d:	069d           	mov.n	a9, a6
    442f:	036d           	mov.n	a6, a3
    4431:	000086        	j	4437 <take_min_four+0x43>

00004434 <take_min_four+0x40>:
    4434:	439390        	min	a9, a3, a9
    4437:	f03d           	nop.n

00004439 <take_min_four+0x45>:
    4439:	000206        	j	4445 <take_min_four+0x51>

0000443c <take_min_four+0x48>:
    443c:	ef7c61        	l32r	a6, 22c (7fff <ifft_wo+0x107>)
    443f:	ef7b91        	l32r	a9, 22c (7fff <ifft_wo+0x107>)
    4442:	ef7a71        	l32r	a7, 22c (7fff <ifft_wo+0x107>)

00004445 <take_min_four+0x51>:
    4445:	469a           	add.n	a4, a6, a9
    4447:	287a           	add.n	a2, a8, a7
    4449:	224a           	add.n	a2, a2, a4
    444b:	112220        	slli	a2, a2, 14
    444e:	f01d           	retw.n

00004450 <take_max_four>:
    4450:	004136        	entry	a1, 32
    4453:	228d           	ae_l16si.n	a8, a2, 0
    4455:	3f23a6        	blti	a3, 2, 4498 <take_max_four+0x48>
    4458:	efd191        	l32r	a9, 39c (ffff8000 <_end+0xfffec1c4>)
    445b:	efd061        	l32r	a6, 39c (ffff8000 <_end+0xfffec1c4>)
    445e:	efcf71        	l32r	a7, 39c (ffff8000 <_end+0xfffec1c4>)
    4461:	222b           	addi.n	a2, a2, 2
    4463:	430b           	addi.n	a4, a3, -1
    4465:	2ca476        	loopgtz	a4, 4495 <take_max_four+0x45>
    4468:	223d           	ae_l16si.n	a3, a2, 0
    446a:	222b           	addi.n	a2, a2, 2
    446c:	0aa837        	bge	a8, a3, 447a <take_max_four+0x2a>
    446f:	069d           	mov.n	a9, a6
    4471:	076d           	mov.n	a6, a7
    4473:	087d           	mov.n	a7, a8
    4475:	038d           	mov.n	a8, a3
    4477:	000606        	j	4493 <take_max_four+0x43>

0000447a <take_max_four+0x2a>:
    447a:	08a737        	bge	a7, a3, 4486 <take_max_four+0x36>
    447d:	069d           	mov.n	a9, a6
    447f:	076d           	mov.n	a6, a7
    4481:	037d           	mov.n	a7, a3
    4483:	000306        	j	4493 <take_max_four+0x43>

00004486 <take_max_four+0x36>:
    4486:	06a637        	bge	a6, a3, 4490 <take_max_four+0x40>
    4489:	069d           	mov.n	a9, a6
    448b:	036d           	mov.n	a6, a3
    448d:	000086        	j	4493 <take_max_four+0x43>

00004490 <take_max_four+0x40>:
    4490:	539390        	max	a9, a3, a9
    4493:	f03d           	nop.n

00004495 <take_max_four+0x45>:
    4495:	000206        	j	44a1 <take_max_four+0x51>

00004498 <take_max_four+0x48>:
    4498:	efc161        	l32r	a6, 39c (ffff8000 <_end+0xfffec1c4>)
    449b:	efc091        	l32r	a9, 39c (ffff8000 <_end+0xfffec1c4>)
    449e:	efbf71        	l32r	a7, 39c (ffff8000 <_end+0xfffec1c4>)

000044a1 <take_max_four+0x51>:
    44a1:	469a           	add.n	a4, a6, a9
    44a3:	287a           	add.n	a2, a8, a7
    44a5:	224a           	add.n	a2, a2, a4
    44a7:	112220        	slli	a2, a2, 14
    44aa:	f01d           	retw.n

000044ac <prelim_filter>:
    44ac:	012136        	entry	a1, 144
    44af:	01ad           	mov.n	a10, a1
    44b1:	0b0c           	movi.n	a11, 0
    44b3:	6c0c           	movi.n	a12, 6
    44b5:	f139           	s32i.n	a3, a1, 60
    44b7:	ef0381        	l32r	a8, c4 (9228 <xt_memset>)
    44ba:	78c192        	addi	a9, a1, 120
    44bd:	126122        	s32i	a2, a1, 72
    44c0:	02fd           	mov.n	a15, a2
    44c2:	04dd           	mov.n	a13, a4
    44c4:	e1d9           	s32i.n	a13, a1, 56
    44c6:	ab2f72        	l32i	a7, a15, 0x2ac
    44c9:	192f62        	l32i	a6, a15, 100
    44cc:	24cf52        	addi	a5, a15, 36
    44cf:	40c242        	addi	a4, a2, 64
    44d2:	f3f640        	wur.ae_cbegin0	a4
    44d5:	46c222        	addi	a2, a2, 70
    44d8:	f3f720        	wur.ae_cend0	a2
    44db:	aa2f42        	l32i	a4, a15, 0x2a8
    44de:	ac2f22        	l32i	a2, a15, 0x2b0
    44e1:	22cff2        	addi	a15, a15, 34
    44e4:	1061f2        	s32i	a15, a1, 64
    44e7:	400f04        	ae_lp16f.i	aep0, a15, 0
    44ea:	5609b4        	ae_sp24x2s.i	aep0, a9, -40
    44ed:	0008e0        	callx8	a8
    44f0:	3e0c           	movi.n	a14, 3
    44f2:	0aa092        	movi	a9, 10
    44f5:	fec732        	addi	a3, a7, -2
    44f8:	fcc1b2        	addi	a11, a1, -4
    44fb:	fec2c2        	addi	a12, a2, -2
    44fe:	78c1d2        	addi	a13, a1, 120
    4501:	541db4        	ae_lp24x2.i	aep1, a13, -40
    4504:	0d61c2        	s32i	a12, a1, 52
    4507:	1161b2        	s32i	a11, a1, 68
    450a:	0ec122        	addi	a2, a1, 14
    450d:	02a072        	movi	a7, 2
    4510:	fe2494c19f 	{ s32i.n	a9, a1, 48; ae_zeroq56	aeq2 }
    4515:	fc147f217f 	{ ae_movq56	aeq1, aeq2; ae_movq56	aeq0, aeq2 }

0000451a <prelim_filter+0x6e>:
    451a:	402314        	ae_lp16f.i	aep2, a3, 2
    451d:	fc24e2a67f 	{ ae_sp16f.l.c	aep2, a6, a7; nop }
    4522:	60c504        	ae_lq32f.i	aeq3, a5, 0
    4525:	0cae76        	loopgtz	a14, 4535 <prelim_filter+0x89>
    4528:	fc24d9367f 	{ ae_lp16f.c	aep3, a6, a7; nop }
    452d:	0330d4        	ae_mulafq32sp16s.l	aeq0, aeq3, aep3
    4530:	e26ffd751f 	{ ae_lq32f.iu	aeq3, a5, 4; ae_mulafp24s.ll	aeq1, aep3, aep3 }

00004535 <prelim_filter+0x89>:
    4535:	ef4481        	l32r	a8, 248 (80b8 <airoha_divide>)
    4538:	eef6c1        	l32r	a12, 110 (4000 <find_phase+0x8>)
    453b:	fe2c3b106f 	{ ae_sraiq56	aeq1, aeq1, 2; ae_cvtq48p24s.l	aeq2, aep1 }
    4540:	fd2c7a80df 	{ ae_slliq56	aeq3, aeq0, 1; ae_roundsq32asym	aeq1, aeq1 }
    4545:	0138c4        	ae_addq56	aeq0, aeq3, aeq0
    4548:	f832f2140f 	{ ae_sp16f.l.i	aep1, a4, 0; ae_subq56	aeq0, aeq2, aeq0 }
    454d:	fa63bf1bef 	{ ae_trunca32q48	a11, aeq1; ae_roundsp16q48asym	aep4, aeq0 }
    4552:	004ad4        	ae_cvta32p24.l	a10, aep4
    4555:	424214        	ae_sp16f.l.i	aep4, a2, 2
    4558:	53bbc0        	max	a11, a11, a12
    455b:	21a6a0        	srai	a10, a10, 6
    455e:	0008e0        	callx8	a8
    4561:	d1c8           	l32i.n	a12, a1, 52
    4563:	f0c552        	addi	a5, a5, -16
    4566:	442b           	addi.n	a4, a4, 2
    4568:	222b           	addi.n	a2, a2, 2
    456a:	332b           	addi.n	a3, a3, 2
    456c:	3d0c           	movi.n	a13, 3
    456e:	c198           	l32i.n	a9, a1, 48
    4570:	ef8ce1        	l32r	a14, 3a0 (ccccc <_end+0xc0e90>)
    4573:	360b34        	ae_cvtq48a32s	aeq0, a11
    4576:	fc24fe8acf 	{ ae_slaasq56s	aeq3, aeq0, a10; nop }
    457b:	398ee4        	ae_movpa24x2	aep0, a14, a14
    457e:	1121a2        	l32i	a10, a1, 68
    4581:	3e0c           	movi.n	a14, 3
    4583:	fe248ff99e 	{ addi	a9, a9, -1; ae_zeroq56	aeq2 }
    4588:	f87fd4c19f 	{ s32i.n	a9, a1, 48; ae_roundsp24q48asym	aep1, aeq3 }
    458d:	1aad76        	loopgtz	a13, 45ab <prelim_filter+0xff>
    4590:	fc24d9567f 	{ ae_lp16f.c	aep5, a6, a7; nop }
    4595:	605514        	ae_lq32f.iu	aeq1, a5, 4
    4598:	011d34        	ae_mulafp24s.ll	aeq1, aep1, aep5
    459b:	fc2c7d7a1f 	{ ae_lq32f.iu	aeq3, a10, 4; ae_roundsq32asym	aeq0, aeq1 }
    45a0:	088b24        	ae_mulafq32sp24s.l	aeq3, aeq0, aep0
    45a3:	fd3c79850f 	{ ae_sq32f.i	aeq0, a5, 0; ae_roundsq32asym	aeq1, aeq3 }
    45a8:	621a04        	ae_sq32f.i	aeq1, a10, 0
    45ab:	f8c552        	addi	a5, a5, -8
    45ae:	fd146c9c1f 	{ ae_lp16f.iu	aep1, a12, 2; ae_movq56	aeq1, aeq2 }
    45b3:	fc1454d1cf 	{ s32i.n	a12, a1, 52; ae_movq56	aeq0, aeq2 }
    45b8:	f5e956        	bnez	a9, 451a <prelim_filter+0x6e>
    45bb:	af0c           	movi.n	a15, 10
    45bd:	1221a2        	l32i	a10, a1, 72
    45c0:	1021b2        	l32i	a11, a1, 64
    45c3:	10c192        	addi	a9, a1, 16
    45c6:	196a62        	s32i	a6, a10, 100
    45c9:	421b04        	ae_sp16f.l.i	aep1, a11, 0
    45cc:	401904        	ae_lp16f.i	aep1, a9, 0
    45cf:	aa2aa2        	l32i	a10, a10, 0x2a8
    45d2:	ef74b1        	l32r	a11, 3a4 (393e4b <_end+0x38800f>)
    45d5:	fd24a20bbf 	{ ae_movpa24x2	aep0, a11, a11; ae_zeroq56	aeq1 }
    45da:	fc0c4feaae 	{ addi	a10, a10, -2; ae_movq56	aeq0, aeq1 }
    45df:	15af76        	loopgtz	a15, 45f8 <prelim_filter+0x14c>

000045e2 <prelim_filter+0x136>:
    45e2:	eb21ec9a1f 	{ ae_lp16f.iu	aep1, a10, 2; ae_mulfp24s.ll	aeq3, aep0, aep1 }
    45e7:	018174        	ae_mulfp24s.ll	aeq2, aep0, aep1
    45ea:	1bbd74        	ae_roundsp24q48asym	aep7, aeq3
    45ed:	017f34        	ae_mulafp24s.ll	aeq1, aep7, aep7
    45f0:	1bad64        	ae_roundsp24q48asym	aep6, aeq2
    45f3:	e2dbac991f 	{ ae_lp16f.iu	aep1, a9, 2; ae_mulafp24s.ll	aeq0, aep6, aep6 }

000045f8 <prelim_filter+0x14c>:
    45f8:	eecd91        	l32r	a9, 12c (10000 <_end+0x41c4>)
    45fb:	1221f2        	l32i	a15, a1, 72
    45fe:	ef5ba1        	l32r	a10, 36c (b50c <immediate_num+0x1c>)
    4601:	fc244781be 	{ addi	a11, a1, 120; ae_roundsq32asym	aeq0, aeq0 }
    4606:	630bd4        	ae_sq56s.i	aeq0, a11, -24
    4609:	443a04        	ae_lp16x2f.i	aep3, a10, 0
    460c:	5ccf82        	addi	a8, a15, 92
    460f:	fe2c7d680f 	{ ae_lq32f.i	aeq3, a8, 0; ae_roundsq32asym	aeq2, aeq1 }
    4614:	0f6ec58ffe 	{ addi	a15, a15, 88; ae_mulzaafq32sp16s.lh	aeq3, aeq2, aep3, aeq3, aep3 }
    4619:	fa32fd2f0f 	{ ae_lq32f.i	aeq1, a15, 0; ae_subq56	aeq2, aeq2, aeq0 }

0000461e <prelim_filter+0x172>:
    461e:	0c6cfec93f 	{ ae_cvtq48a32s	aeq0, a9; ae_mulzaafq32sp16s.lh	aeq1, aeq0, aep3, aeq1, aep3 }
    4623:	09a054        	ae_ltq56s	b5, aeq0, aeq2
    4626:	06b934        	ae_roundsq32asym	aeq2, aeq3
    4629:	fc2c79a80f 	{ ae_sq32f.i	aeq2, a8, 0; ae_roundsq32asym	aeq0, aeq1 }
    462e:	620f04        	ae_sq32f.i	aeq0, a15, 0
    4631:	610bd4        	ae_lq56.i	aeq0, a11, -24
    4634:	2c0576        	bf	b5, 4664 <prelim_filter+0x1b8>
    4637:	580c           	movi.n	a8, 5
    4639:	1221a2        	l32i	a10, a1, 72
    463c:	10c192        	addi	a9, a1, 16
    463f:	80a0b2        	movi	a11, 128
    4642:	aa2aa2        	l32i	a10, a10, 0x2a8
    4645:	399bb4        	ae_movpa24x2	aep1, a11, a11
    4648:	440904        	ae_lp16x2f.i	aep0, a9, 0
    464b:	fccaa2        	addi	a10, a10, -4
    464e:	12a876        	loopgtz	a8, 4664 <prelim_filter+0x1b8>
    4651:	cf00edea1f 	{ ae_lp16x2f.iu	aep6, a10, 4; ae_sraip24	aep7, aep0, 1 }
    4656:	0f60e4        	ae_sraip24	aep6, aep6, 1
    4659:	07e754        	ae_addsp24s	aep5, aep6, aep7
    465c:	da352d891f 	{ ae_lp16x2f.iu	aep0, a9, 4; ae_addsp24s	aep4, aep5, aep1 }
    4661:	4649f4        	ae_sp16x2f.i	aep4, a9, -4

00004664 <prelim_filter+0x1b8>:
    4664:	1221a2        	l32i	a10, a1, 72
    4667:	ef50c1        	l32r	a12, 3a8 (155555 <_end+0x149719>)
    466a:	39fcc4        	ae_movpa24x2	aep7, a12, a12
    466d:	4ccab2        	addi	a11, a10, 76
    4670:	60cb04        	ae_lq32f.i	aeq3, a11, 0
    4673:	08fb24        	ae_mulafq32sp24s.l	aeq3, aeq0, aep7
    4676:	eef381        	l32r	a8, 244 (81c0 <airoha_divide_limit_1>)
    4679:	06b934        	ae_roundsq32asym	aeq2, aeq3
    467c:	622b04        	ae_sq32f.i	aeq2, a11, 0
    467f:	0b9ac2        	l16si	a12, a10, 22
    4682:	162ab2        	l32i	a11, a10, 88
    4685:	172aa2        	l32i	a10, a10, 92
    4688:	11cc20        	slli	a12, a12, 14
    468b:	53bbc0        	max	a11, a11, a12
    468e:	0008e0        	callx8	a8
    4691:	1221b2        	l32i	a11, a1, 72
    4694:	ef46c1        	l32r	a12, 3ac (175e97 <_end+0x16a05b>)
    4697:	379aa4        	ae_truncp24a32x2	aep1, a10, a10
    469a:	f8e6820bde 	{ addi	a13, a11, 32; ae_roundsp16asym	aep0, aep1 }
    469f:	420d04        	ae_sp16f.l.i	aep0, a13, 0
    46a2:	398cc4        	ae_movpa24x2	aep0, a12, a12
    46a5:	ad0c           	movi.n	a13, 10
    46a7:	ab2b72        	l32i	a7, a11, 0x2ac
    46aa:	50cbb2        	addi	a11, a11, 80
    46ad:	60cb04        	ae_lq32f.i	aeq3, a11, 0
    46b0:	401704        	ae_lp16f.i	aep1, a7, 0
    46b3:	f03d           	nop.n
    46b5:	0aad76        	loopgtz	a13, 46c3 <prelim_filter+0x217>
    46b8:	010174        	ae_mulfp24s.ll	aeq0, aep0, aep1
    46bb:	1b8d24        	ae_roundsp24q48asym	aep2, aeq0
    46be:	e34bec971f 	{ ae_lp16f.iu	aep1, a7, 2; ae_mulafp24s.ll	aeq3, aep2, aep2 }

000046c3 <prelim_filter+0x217>:
    46c3:	067934        	ae_roundsq32asym	aeq1, aeq3
    46c6:	621b04        	ae_sq32f.i	aeq1, a11, 0
    46c9:	1221b2        	l32i	a11, a1, 72
    46cc:	ef3981        	l32r	a8, 3b0 (3ff8 <find_phase>)
    46cf:	01ad           	mov.n	a10, a1
    46d1:	2b9bb2        	l16si	a11, a11, 86
    46d4:	0008e0        	callx8	a8
    46d7:	1221d2        	l32i	a13, a1, 72
    46da:	162dd2        	l32i	a13, a13, 88
    46dd:	0a5d           	mov.n	a5, a10
    46df:	ffa3c2        	movi	a12, 0x3ff
    46e2:	64acd7        	bge	a12, a13, 474a <prelim_filter+0x29e>
    46e5:	1221a2        	l32i	a10, a1, 72
    46e8:	089ab2        	l16si	a11, a10, 16
    46eb:	109aa2        	l16si	a10, a10, 32
    46ee:	c0aab0        	sub	a10, a10, a11
    46f1:	061ae6        	bgei	a10, 1, 46fb <prelim_filter+0x24f>
    46f4:	eece91        	l32r	a9, 22c (7fff <ifft_wo+0x107>)
    46f7:	001286        	j	4745 <prelim_filter+0x299>

000046fa <prelim_filter+0x24e>:
	...

000046fb <prelim_filter+0x24f>:
    46fb:	1221b2        	l32i	a11, a1, 72
    46fe:	099bb2        	l16si	a11, a11, 18
    4701:	1eaab7        	bge	a10, a11, 4723 <prelim_filter+0x277>
    4704:	eed081        	l32r	a8, 244 (81c0 <airoha_divide_limit_1>)
    4707:	0008e0        	callx8	a8
    470a:	37aaa4        	ae_truncp24a32x2	aep2, a10, a10
    470d:	10c192        	addi	a9, a1, 16
    4710:	401904        	ae_lp16f.i	aep1, a9, 0
    4713:	aa0c           	movi.n	a10, 10
    4715:	0aaa76        	loopgtz	a10, 4723 <prelim_filter+0x277>
    4718:	019274        	ae_mulfp24s.ll	aeq2, aep1, aep2
    471b:	f973ec991f 	{ ae_lp16f.iu	aep1, a9, 2; ae_roundsp16q48asym	aep3, aeq2 }
    4720:	4239f4        	ae_sp16f.l.i	aep3, a9, -2

00004723 <prelim_filter+0x277>:
    4723:	1221a2        	l32i	a10, a1, 72
    4726:	05a0b2        	movi	a11, 5
    4729:	aa2aa2        	l32i	a10, a10, 0x2a8
    472c:	10c192        	addi	a9, a1, 16
    472f:	440904        	ae_lp16x2f.i	aep0, a9, 0
    4732:	fccaa2        	addi	a10, a10, -4
    4735:	0aab76        	loopgtz	a11, 4743 <prelim_filter+0x297>
    4738:	44da14        	ae_lp16x2f.iu	aep5, a10, 4
    473b:	de16ad891f 	{ ae_lp16x2f.iu	aep0, a9, 4; ae_subsp24s	aep4, aep5, aep0 }
    4740:	464a04        	ae_sp16x2f.i	aep4, a10, 0

00004743 <prelim_filter+0x297>:
    4743:	090c           	movi.n	a9, 0

00004745 <prelim_filter+0x299>:
    4745:	1a0c           	movi.n	a10, 1
    4747:	000106        	j	474f <prelim_filter+0x2a3>

0000474a <prelim_filter+0x29e>:
    474a:	0a0c           	movi.n	a10, 0
    474c:	eeb891        	l32r	a9, 22c (7fff <ifft_wo+0x107>)

0000474f <prelim_filter+0x2a3>:
    474f:	f1c8           	l32i.n	a12, a1, 60
    4751:	e1b8           	l32i.n	a11, a1, 56
    4753:	0c59           	s32i.n	a5, a12, 0
    4755:	1ca9           	s32i.n	a10, a12, 4
    4757:	6b9d           	ae_s16i.n	a9, a11, 0
    4759:	f01d           	retw.n

0000475b <prelim_filter+0x2af>:
	...

0000475c <prelim_filter3>:
    475c:	00a136        	entry	a1, 80
    475f:	6139           	s32i.n	a3, a1, 24
    4761:	1159           	s32i.n	a5, a1, 4
    4763:	2b9292        	l16si	a9, a2, 86
    4766:	183466        	bnei	a4, 3, 4782 <prelim_filter3+0x26>
    4769:	d422a2        	l32i	a10, a2, 0x350
    476c:	250c           	movi.n	a5, 2
    476e:	ab0c           	movi.n	a11, 10
    4770:	eefdc1        	l32r	a12, 364 (1000 <voiced_decision+0x48>)
    4773:	21d590        	srai	a13, a9, 5
    4776:	01c9           	s32i.n	a12, a1, 0
    4778:	71b9           	s32i.n	a11, a1, 28
    477a:	41d9           	s32i.n	a13, a1, 16
    477c:	d32292        	l32i	a9, a2, 0x34c
    477f:	000546        	j	4798 <prelim_filter3+0x3c>

00004782 <prelim_filter3+0x26>:
    4782:	fc22a2        	l32i	a10, a2, 0x3f0
    4785:	4e1c           	movi.n	a14, 20
    4787:	215a90        	srai	a5, a9, 10
    478a:	ee61f1        	l32r	a15, 110 (4000 <find_phase+0x8>)
    478d:	fb2292        	l32i	a9, a2, 0x3ec
    4790:	01f9           	s32i.n	a15, a1, 0
    4792:	71e9           	s32i.n	a14, a1, 28
    4794:	4159           	s32i.n	a5, a1, 16
    4796:	550c           	movi.n	a5, 5

00004798 <prelim_filter3+0x3c>:
    4798:	6128           	l32i.n	a2, a1, 24
    479a:	51a9           	s32i.n	a10, a1, 20
    479c:	7188           	l32i.n	a8, a1, 28
    479e:	10c242        	addi	a4, a2, 16
    47a1:	16c2b2        	addi	a11, a2, 22
    47a4:	31b9           	s32i.n	a11, a1, 12
    47a6:	f3f7b0        	wur.ae_cend0	a11
    47a9:	f3f640        	wur.ae_cbegin0	a4
    47ac:	401b04        	ae_lp16f.i	aep1, a11, 0
    47af:	0248           	l32i.n	a4, a2, 0
    47b1:	224b           	addi.n	a2, a2, 4
    47b3:	2129           	s32i.n	a2, a1, 8
    47b5:	0218e6        	bgei	a8, 1, 47bb <prelim_filter3+0x5f>
    47b8:	002406        	j	484c <prelim_filter3+0xf0>
    47bb:	fec972        	addi	a7, a9, -2
    47be:	feca32        	addi	a3, a10, -2
    47c1:	260c           	movi.n	a6, 2
    47c3:	90a890        	addx2	a10, a8, a9
    47c6:	fe2480038f 	{ movi	a8, 3; ae_zeroq56	aeq2 }
    47cb:	fd144feaae 	{ addi	a10, a10, -2; ae_movq56	aeq1, aeq2 }
    47d0:	fc145481af 	{ s32i.n	a10, a1, 32; ae_movq56	aeq0, aeq2 }

000047d5 <prelim_filter3+0x79>:
    47d5:	400714        	ae_lp16f.i	aep0, a7, 2
    47d8:	fc24e2846f 	{ ae_sp16f.l.c	aep0, a4, a6; nop }
    47dd:	60c204        	ae_lq32f.i	aeq3, a2, 0
    47e0:	0ca876        	loopgtz	a8, 47f0 <prelim_filter3+0x94>
    47e3:	fc24d9246f 	{ ae_lp16f.c	aep2, a4, a6; nop }
    47e8:	0320d4        	ae_mulafq32sp16s.l	aeq0, aeq3, aep2
    47eb:	e24bfd721f 	{ ae_lq32f.iu	aeq3, a2, 4; ae_mulafp24s.ll	aeq1, aep2, aep2 }

000047f0 <prelim_filter3+0x94>:
    47f0:	ee9581        	l32r	a8, 244 (81c0 <airoha_divide_limit_1>)
    47f3:	400500        	ssr	a5
    47f6:	fe2c3a80df 	{ ae_slliq56	aeq3, aeq0, 1; ae_cvtq48p24s.l	aeq2, aep1 }
    47fb:	0138c4        	ae_addq56	aeq0, aeq3, aeq0
    47fe:	012cc4        	ae_subq56	aeq0, aeq2, aeq0
    4801:	f963fb106f 	{ ae_sraiq56	aeq1, aeq1, 2; ae_roundsp16q48asym	aep3, aeq0 }
    4806:	003ad4        	ae_cvta32p24.l	a10, aep3
    4809:	065934        	ae_roundsq32asym	aeq1, aeq1
    480c:	369b04        	ae_trunca32q48	a11, aeq1
    480f:	b1a0a0        	sra	a10, a10
    4812:	0008e0        	callx8	a8
    4815:	379aa4        	ae_truncp24a32x2	aep1, a10, a10
    4818:	60d2d4        	ae_lq32f.iu	aeq3, a2, -12
    481b:	81c8           	l32i.n	a12, a1, 32
    481d:	380c           	movi.n	a8, 3
    481f:	fe2480277e 	{ addi	a7, a7, 2; ae_zeroq56	aeq2 }
    4824:	fd144003bf 	{ movi	a11, 3; ae_movq56	aeq1, aeq2 }
    4829:	f03d           	nop.n
    482b:	f03d           	nop.n
    482d:	10ab76        	loopgtz	a11, 4841 <prelim_filter3+0xe5>
    4830:	fc24d9446f 	{ ae_lp16f.c	aep4, a4, a6; nop }
    4835:	019c34        	ae_mulafp24s.ll	aeq3, aep1, aep4
    4838:	063934        	ae_roundsq32asym	aeq0, aeq3
    483b:	620204        	ae_sq32f.i	aeq0, a2, 0
    483e:	60d214        	ae_lq32f.iu	aeq3, a2, 4
    4841:	f4c222        	addi	a2, a2, -12
    4844:	fc146c931f 	{ ae_lp16f.iu	aep1, a3, 2; ae_movq56	aeq0, aeq2 }
    4849:	8897c7        	bne	a7, a12, 47d5 <prelim_filter3+0x79>

0000484c <prelim_filter3+0xf0>:
    484c:	61f8           	l32i.n	a15, a1, 24
    484e:	31e8           	l32i.n	a14, a1, 12
    4850:	71d8           	l32i.n	a13, a1, 28
    4852:	006f42        	s32i	a4, a15, 0
    4855:	421e04        	ae_sp16f.l.i	aep1, a14, 0
    4858:	fc24b051ee 	{ l32i	a14, a1, 20; ae_zeroq56	aeq0 }
    485d:	630154        	ae_sq56s.i	aeq0, a1, 40
    4860:	21d1d0        	srai	a13, a13, 1
    4863:	209ee0        	or	a9, a14, a14
    4866:	440e04        	ae_lp16x2f.i	aep0, a14, 0
    4869:	08ad76        	loopgtz	a13, 4875 <prelim_filter3+0x119>
    486c:	050004        	ae_mulaafp24s.hh.ll	aeq0, aep0, aep0
    486f:	448914        	ae_lp16x2f.iu	aep0, a9, 4
    4872:	630154        	ae_sq56s.i	aeq0, a1, 40

00004875 <prelim_filter3+0x119>:
    4875:	0128           	l32i.n	a2, a1, 0
    4877:	1138           	l32i.n	a3, a1, 4
    4879:	21a8           	l32i.n	a10, a1, 8
    487b:	618154        	ae_lq56.i	aeq2, a1, 40
    487e:	eecc81        	l32r	a8, 3b0 (3ff8 <find_phase>)
    4881:	fe347041be 	{ l32i	a11, a1, 16; ae_roundsq32asym	aeq2, aeq2 }
    4886:	632154        	ae_sq56s.i	aeq2, a1, 40
    4889:	0008e0        	callx8	a8
    488c:	61c154        	ae_lq56.i	aeq3, a1, 40
    488f:	36b904        	ae_trunca32q48	a9, aeq3
    4892:	03a9           	s32i.n	a10, a3, 0
    4894:	729290        	salt	a9, a2, a9
    4897:	1399           	s32i.n	a9, a3, 4
    4899:	f01d           	retw.n

0000489b <prelim_filter3+0x13f>:
	...

0000489c <cm_short_vad>:
    489c:	004136        	entry	a1, 32
    489f:	234d           	ae_l16si.n	a4, a3, 0
    48a1:	335d           	ae_l16si.n	a5, a3, 2
    48a3:	029382        	l16si	a8, a3, 4
    48a6:	04a427        	bge	a4, a2, 48ae <cm_short_vad+0x12>
    48a9:	430c           	movi.n	a3, 4
    48ab:	000706        	j	48cb <cm_short_vad+0x2f>

000048ae <cm_short_vad+0x12>:
    48ae:	04a527        	bge	a5, a2, 48b6 <cm_short_vad+0x1a>
    48b1:	230c           	movi.n	a3, 2
    48b3:	000506        	j	48cb <cm_short_vad+0x2f>

000048b6 <cm_short_vad+0x1a>:
    48b6:	04a827        	bge	a8, a2, 48be <cm_short_vad+0x22>
    48b9:	030c           	movi.n	a3, 0
    48bb:	000306        	j	48cb <cm_short_vad+0x2f>

000048be <cm_short_vad+0x22>:
    48be:	0393a2        	l16si	a10, a3, 6
    48c1:	e97c           	movi.n	a9, -2
    48c3:	c37c           	movi.n	a3, -4
    48c5:	72aa20        	salt	a10, a10, a2
    48c8:	9339a0        	movnez	a3, a9, a10
    48cb:	032d           	mov.n	a2, a3
    48cd:	f01d           	retw.n

000048cf <cm_short_vad+0x33>:
	...

000048d0 <cali_module_short>:
    48d0:	004136        	entry	a1, 32
    48d3:	edf481        	l32r	a8, a4 (be30 <p_ecnr_mem>)
    48d6:	0888           	l32i.n	a8, a8, 0
    48d8:	19d882        	addmi	a8, a8, 0x1900
    48db:	989882        	l16si	a8, a8, 0x130
    48de:	040c           	movi.n	a4, 0
    48e0:	0228e6        	bgei	a8, 2, 48e6 <cali_module_short+0x16>
    48e3:	003586        	j	49bd <cali_module_short+0xed>
    48e6:	1398           	l32i.n	a9, a3, 4
    48e8:	03a8           	l32i.n	a10, a3, 0
    48ea:	0219e6        	bgei	a9, 1, 48f0 <cali_module_short+0x20>
    48ed:	003a06        	j	49d9 <cali_module_short+0x109>
    48f0:	5592c2        	l16si	a12, a2, 170
    48f3:	6692b2        	l16si	a11, a2, 204
    48f6:	31a0a0        	srai	a10, a10, 16
    48f9:	3caca7        	bge	a12, a10, 4939 <cali_module_short+0x69>
    48fc:	5492c2        	l16si	a12, a2, 168
    48ff:	6492e2        	l16si	a14, a2, 200
    4902:	6c92d2        	l16si	a13, a2, 216
    4905:	06aca7        	bge	a12, a10, 490f <cali_module_short+0x3f>
    4908:	bb4b           	addi.n	a11, a11, 4
    490a:	4a0c           	movi.n	a10, 4
    490c:	0000c6        	j	4913 <cali_module_short+0x43>

0000490f <cali_module_short+0x3f>:
    490f:	bb3b           	addi.n	a11, a11, 3
    4911:	2a0c           	movi.n	a10, 2

00004913 <cali_module_short+0x43>:
    4913:	43bbe0        	min	a11, a11, a14
    4916:	382de6        	bgei	a13, 2, 4952 <cali_module_short+0x82>
    4919:	6b9292        	l16si	a9, a2, 214
    491c:	991b           	addi.n	a9, a9, 1
    491e:	899d           	ae_sext16	a9, a9
    4920:	6b5292        	s16i	a9, a2, 214
    4923:	02c9e6        	bgei	a9, 32, 4929 <cali_module_short+0x59>
    4926:	002d06        	j	49de <cali_module_short+0x10e>
    4929:	fed9e2        	addmi	a14, a9, 0xfffffe00
    492c:	2d0c           	movi.n	a13, 2
    492e:	1c0c           	movi.n	a12, 1
    4930:	83cde0        	moveqz	a12, a13, a14
    4933:	6c52c2        	s16i	a12, a2, 216
    4936:	000606        	j	4952 <cali_module_short+0x82>

00004939 <cali_module_short+0x69>:
    4939:	5692f2        	l16si	a15, a2, 172
    493c:	5792c2        	l16si	a12, a2, 174
    493f:	022fa7        	blt	a15, a10, 4945 <cali_module_short+0x75>
    4942:	0020c6        	j	49c9 <cali_module_short+0xf9>
    4945:	04ad           	mov.n	a10, a4
    4947:	0001c6        	j	4952 <cali_module_short+0x82>

0000494a <cali_module_short+0x7a>:
    494a:	ca7c           	movi.n	a10, -4
    494c:	f9cbb2        	addi	a11, a11, -7
    494f:	53bb40        	max	a11, a11, a4

00004952 <cali_module_short+0x82>:
    4952:	6652b2        	s16i	a11, a2, 204

00004955 <cali_module_short+0x85>:
    4955:	6552a2        	s16i	a10, a2, 202
    4958:	33c8           	l32i.n	a12, a3, 12
    495a:	591ca6        	blti	a12, 1, 49b7 <cali_module_short+0xe7>
    495d:	23a8           	l32i.n	a10, a3, 8
    495f:	01d2b2        	addmi	a11, a2, 0x100
    4962:	ee9481        	l32r	a8, 3b4 (489c <cm_short_vad>)
    4965:	b8cbb2        	addi	a11, a11, -72
    4968:	31a0a0        	srai	a10, a10, 16
    496b:	0008e0        	callx8	a8
    496e:	13b8           	l32i.n	a11, a3, 4
    4970:	6752a2        	s16i	a10, a2, 206
    4973:	201ba6        	blti	a11, 1, 4997 <cali_module_short+0xc7>
    4976:	ee8f81        	l32r	a8, 3b4 (489c <cm_short_vad>)
    4979:	ee7c91        	l32r	a9, 36c (b50c <immediate_num+0x1c>)
    497c:	23b8           	l32i.n	a11, a3, 8
    497e:	03a8           	l32i.n	a10, a3, 0
    4980:	37aab4        	ae_truncp24a32x2	aep2, a10, a11
    4983:	441904        	ae_lp16x2f.i	aep1, a9, 0
    4986:	041204        	ae_mulzaafp24s.hh.ll	aeq0, aep1, aep2
    4989:	01d2b2        	addmi	a11, a2, 0x100
    498c:	f8638b0bbe 	{ addi	a11, a11, -80; ae_roundsp16q48asym	aep0, aeq0 }
    4991:	360a24        	ae_trunca16p24s.l	a10, aep0
    4994:	0008e0        	callx8	a8

00004997 <cali_module_short+0xc7>:
    4997:	6952a2        	s16i	a10, a2, 210
    499a:	53c8           	l32i.n	a12, a3, 20
    499c:	121ca6        	blti	a12, 1, 49b2 <cali_module_short+0xe2>
    499f:	43a8           	l32i.n	a10, a3, 16
    49a1:	01d2b2        	addmi	a11, a2, 0x100
    49a4:	ee8481        	l32r	a8, 3b4 (489c <cm_short_vad>)
    49a7:	c0cbb2        	addi	a11, a11, -64
    49aa:	31a0a0        	srai	a10, a10, 16
    49ad:	0008e0        	callx8	a8
    49b0:	0a4d           	mov.n	a4, a10

000049b2 <cali_module_short+0xe2>:
    49b2:	685242        	s16i	a4, a2, 208
    49b5:	f01d           	retw.n

000049b7 <cali_module_short+0xe7>:
    49b7:	675242        	s16i	a4, a2, 206
    49ba:	fff646        	j	4997 <cali_module_short+0xc7>

000049bd <cali_module_short+0xed>:
    49bd:	655242        	s16i	a4, a2, 202
    49c0:	695242        	s16i	a4, a2, 210
    49c3:	675242        	s16i	a4, a2, 206
    49c6:	fffa06        	j	49b2 <cali_module_short+0xe2>

000049c9 <cali_module_short+0xf9>:
    49c9:	022ca7        	blt	a12, a10, 49cf <cali_module_short+0xff>
    49cc:	ffde86        	j	494a <cali_module_short+0x7a>
    49cf:	ea7c           	movi.n	a10, -2
    49d1:	bb0b           	addi.n	a11, a11, -1
    49d3:	53bb40        	max	a11, a11, a4
    49d6:	ffde06        	j	4952 <cali_module_short+0x82>

000049d9 <cali_module_short+0x109>:
    49d9:	04ad           	mov.n	a10, a4
    49db:	ffdd86        	j	4955 <cali_module_short+0x85>

000049de <cali_module_short+0x10e>:
    49de:	04d2d2        	addmi	a13, a2, 0x400
    49e1:	ac9dd2        	l16si	a13, a13, 0x158
    49e4:	1622c2        	l32i	a12, a2, 88
    49e7:	11dd60        	slli	a13, a13, 10
    49ea:	022cd7        	blt	a12, a13, 49f0 <cali_module_short+0x120>
    49ed:	ffd846        	j	4952 <cali_module_short+0x82>
    49f0:	6b5242        	s16i	a4, a2, 214
    49f3:	ffd6c6        	j	4952 <cali_module_short+0x82>

000049f6 <cali_module_short+0x126>:
	...

000049f8 <LH_34_1_setup>:
    49f8:	004136        	entry	a1, 32
    49fb:	1348           	l32i.n	a4, a3, 4
    49fd:	0338           	l32i.n	a3, a3, 0
    49ff:	0258           	l32i.n	a5, a2, 0
    4a01:	0a2426        	beqi	a4, 2, 4a0f <LH_34_1_setup+0x17>
    4a04:	313030        	srai	a3, a3, 16
    4a07:	f8d332        	addmi	a3, a3, 0xfffff800
    4a0a:	a33d           	ae_clamps16	a3, a3
    4a0c:	113300        	slli	a3, a3, 16

00004a0f <LH_34_1_setup+0x17>:
    4a0f:	8248           	l32i.n	a4, a2, 32
    4a11:	535530        	max	a5, a5, a3
    4a14:	0259           	s32i.n	a5, a2, 0
    4a16:	434430        	min	a4, a4, a3
    4a19:	8249           	s32i.n	a4, a2, 32
    4a1b:	f01d           	retw.n

00004a1d <LH_34_1_setup+0x25>:
    4a1d:	000000                                        ...

00004a20 <cali_power>:
    4a20:	006136        	entry	a1, 48
    4a23:	eda081        	l32r	a8, a4 (be30 <p_ecnr_mem>)
    4a26:	0888           	l32i.n	a8, a8, 0
    4a28:	19d882        	addmi	a8, a8, 0x1900
    4a2b:	989882        	l16si	a8, a8, 0x130
    4a2e:	0228e6        	bgei	a8, 2, 4a34 <cali_power+0x14>
    4a31:	009106        	j	4c79 <cali_power+0x259>
    4a34:	7293b2        	l16si	a11, a3, 228
    4a37:	1c93a2        	l16si	a10, a3, 56
    4a3a:	300ab4        	ae_cvtp24a16x2.ll	aep0, a10, a11
    4a3d:	010044        	ae_mulfp24s.hh	aeq0, aep0, aep0
    4a40:	6c93d2        	l16si	a13, a3, 216
    4a43:	d4e230149e 	{ l32i	a9, a4, 4; ae_mulfq32sp16s.l	aeq0, aeq0, aep0 }
    4a48:	5c0c           	movi.n	a12, 5
    4a4a:	f863801dde 	{ addi	a13, a13, 1; ae_roundsp16q48asym	aep0, aeq0 }
    4a4f:	0219e6        	bgei	a9, 1, 4a55 <cali_power+0x35>
    4a52:	009086        	j	4c98 <cali_power+0x278>
    4a55:	560104        	ae_sp24x2s.i	aep0, a1, 0
    4a58:	ac22a2        	l32i	a10, a2, 0x2b0
    4a5b:	ab2292        	l32i	a9, a2, 0x2ac
    4a5e:	64d0d0        	extui	a13, a13, 0, 7
    4a61:	6c53d2        	s16i	a13, a3, 216
    4a64:	fc248fc99e 	{ addi	a9, a9, -4; ae_zeroq56	aeq0 }
    4a69:	fd046d1a0f 	{ ae_lp16x2f.i	aep1, a10, 0; ae_movq56	aeq1, aeq0 }
    4a6e:	09ac76        	loopgtz	a12, 4a7b <cali_power+0x5b>
    4a71:	e2246d991f 	{ ae_lp16x2f.iu	aep1, a9, 4; ae_mulaafp24s.hh.ll	aeq1, aep1, aep1 }
    4a76:	e2242d9a1f 	{ ae_lp16x2f.iu	aep1, a10, 4; ae_mulaafp24s.hh.ll	aeq0, aep1, aep1 }

00004a7b <cali_power+0x5b>:
    4a7b:	ee3a41        	l32r	a4, 364 (1000 <voiced_decision+0x48>)
    4a7e:	7393d2        	l16si	a13, a3, 230
    4a81:	ed8fe1        	l32r	a14, c0 (8000 <ifft_wo+0x108>)
    4a84:	35d0b4        	ae_sraiq56	aeq3, aeq1, 2
    4a87:	01d3c2        	addmi	a12, a3, 0x100
    4a8a:	3540b4        	ae_sraiq56	aeq1, aeq0, 2
    4a8d:	0cbd           	mov.n	a11, a12
    4a8f:	c8cbb2        	addi	a11, a11, -56
    4a92:	c4ccc2        	addi	a12, a12, -60
    4a95:	600c04        	ae_lq32f.i	aeq0, a12, 0
    4a98:	fe3c55eedf 	{ sub	a14, a14, a13; ae_roundsq32asym	aeq2, aeq3 }
    4a9d:	fd2c58adef 	{ ae_cvtp24a16x2.ll	aep2, a13, a14; ae_roundsq32asym	aeq1, aeq1 }
    4aa2:	0c4a3d6b0f 	{ ae_lq32f.i	aeq3, a11, 0; ae_mulzaafq32sp16s.lh	aeq0, aeq0, aep2, aeq2, aep2 }
    4aa7:	c1aad4        	ae_mulzaafq32sp16s.lh	aeq3, aeq3, aep2, aeq1, aep2
    4aaa:	068934        	ae_roundsq32asym	aeq2, aeq0
    4aad:	fd3c79ac0f 	{ ae_sq32f.i	aeq2, a12, 0; ae_roundsq32asym	aeq1, aeq3 }
    4ab2:	621b04        	ae_sq32f.i	aeq1, a11, 0
    4ab5:	3123a2        	l32i	a10, a3, 196
    4ab8:	3223b2        	l32i	a11, a3, 200
    4abb:	ede281        	l32r	a8, 244 (81c0 <airoha_divide_limit_1>)
    4abe:	21a3a0        	srai	a10, a10, 3
    4ac1:	53b4b0        	max	a11, a4, a11
    4ac4:	0008e0        	callx8	a8
    4ac7:	020c           	movi.n	a2, 0
    4ac9:	2123b2        	l32i	a11, a3, 132
    4acc:	0a5d           	mov.n	a5, a10
    4ace:	6c93d2        	l16si	a13, a3, 216
    4ad1:	2923a2        	l32i	a10, a3, 164
    4ad4:	53bb50        	max	a11, a11, a5
    4ad7:	2163b2        	s32i	a11, a3, 132
    4ada:	43aa50        	min	a10, a10, a5
    4add:	2963a2        	s32i	a10, a3, 164
    4ae0:	04fd56        	bnez	a13, 4b33 <cali_power+0x113>
    4ae3:	ee3581        	l32r	a8, 3b8 (4450 <take_max_four>)
    4ae6:	6d9372        	l16si	a7, a3, 218
    4ae9:	37daa4        	ae_truncp24a32x2	aep5, a10, a10
    4aec:	37ebb4        	ae_truncp24a32x2	aep6, a11, a11
    4aef:	01d362        	addmi	a6, a3, 0x100
    4af2:	cb0c           	movi.n	a11, 12
    4af4:	88c6a2        	addi	a10, a6, -120
    4af7:	fafa8a866e 	{ addi	a6, a6, -88; ae_roundsp16asym	aep4, aep6 }
    4afc:	1197f0        	slli	a9, a7, 1
    4aff:	f9f6e34a9f 	{ ae_sp16f.l.x	aep4, a10, a9; ae_roundsp16asym	aep3, aep5 }
    4b04:	433694        	ae_sp16f.l.x	aep3, a6, a9
    4b07:	0008e0        	callx8	a8
    4b0a:	2863a2        	s32i	a10, a3, 160
    4b0d:	ee2b81        	l32r	a8, 3bc (43f4 <take_min_four>)
    4b10:	cb0c           	movi.n	a11, 12
    4b12:	06ad           	mov.n	a10, a6
    4b14:	0008e0        	callx8	a8
    4b17:	971b           	addi.n	a9, a7, 1
    4b19:	3063a2        	s32i	a10, a3, 192
    4b1c:	ab0c           	movi.n	a11, 10
    4b1e:	ee28c1        	l32r	a12, 3c0 (3fff0000 <_end+0x3ffe41c4>)
    4b21:	ee28d1        	l32r	a13, 3c4 (c0010000 <_end+0xc00041c4>)
    4b24:	2163d2        	s32i	a13, a3, 132
    4b27:	2963c2        	s32i	a12, a3, 164
    4b2a:	72ab70        	salt	a10, a11, a7
    4b2d:	9392a0        	movnez	a9, a2, a10
    4b30:	6d5392        	s16i	a9, a3, 218

00004b33 <cali_power+0x113>:
    4b33:	3223e2        	l32i	a14, a3, 200
    4b36:	547104        	ae_lp24x2.i	aep7, a1, 0
    4b39:	01d392        	addmi	a9, a3, 0x100
    4b3c:	0224e7        	blt	a4, a14, 4b42 <cali_power+0x122>
    4b3f:	0022c6        	j	4bce <cali_power+0x1ae>
    4b42:	360534        	ae_cvtq48a32s	aeq0, a5
    4b45:	d4fe4c09fe 	{ addi	a15, a9, -64; ae_mulfq32sp16s.l	aeq1, aeq0, aep7 }
    4b4a:	608f04        	ae_lq32f.i	aeq2, a15, 0
    4b4d:	d6c800cc6f 	{ movi	a6, 204; ae_ltq56s	b0, aeq2, aeq1 }
    4b52:	d0a072        	movi	a7, 208
    4b55:	ee1c41        	l32r	a4, 3c8 (b528 <immediate_num+0x38>)
    4b58:	260076        	bf	b0, 4b82 <cali_power+0x162>
    4b5b:	ccc9c2        	addi	a12, a9, -52
    4b5e:	d0c9d2        	addi	a13, a9, -48
    4b61:	445424        	ae_lp16x2f.i	aep5, a4, 8
    4b64:	446404        	ae_lp16x2f.i	aep6, a4, 0
    4b67:	fe2c7d6d0f 	{ ae_lq32f.i	aeq3, a13, 0; ae_roundsq32asym	aeq2, aeq1 }
    4b6c:	0fd97d0c0f 	{ ae_lq32f.i	aeq0, a12, 0; ae_mulzaafq32sp16s.lh	aeq3, aeq3, aep6, aeq0, aep6 }
    4b71:	c15524        	ae_mulzaafq32sp16s.lh	aeq0, aeq0, aep5, aeq2, aep5
    4b74:	06b934        	ae_roundsq32asym	aeq2, aeq3
    4b77:	ff2479ad0f 	{ ae_sq32f.i	aeq2, a13, 0; ae_roundsq32asym	aeq3, aeq0 }
    4b7c:	623c04        	ae_sq32f.i	aeq3, a12, 0
    4b7f:	0012c6        	j	4bce <cali_power+0x1ae>

00004b82 <cali_power+0x162>:
    4b82:	547104        	ae_lp24x2.i	aep7, a1, 0
    4b85:	a0c9e2        	addi	a14, a9, -96
    4b88:	604e04        	ae_lq32f.i	aeq1, a14, 0
    4b8b:	037a54        	ae_mulfq32sp16s.l	aeq1, aeq1, aep7
    4b8e:	099014        	ae_ltq56s	b1, aeq0, aeq1
    4b91:	630114        	ae_sq56s.i	aeq0, a1, 8
    4b94:	360176        	bf	b1, 4bce <cali_power+0x1ae>
    4b97:	05ad           	mov.n	a10, a5
    4b99:	edab81        	l32r	a8, 248 (80b8 <airoha_divide>)
    4b9c:	540104        	ae_lp24x2.i	aep0, a1, 0
    4b9f:	000bd4        	ae_cvta32p24.l	a11, aep0
    4ba2:	0008e0        	callx8	a8
    4ba5:	441404        	ae_lp16x2f.i	aep1, a4, 0
    4ba8:	442414        	ae_lp16x2f.i	aep2, a4, 4
    4bab:	606374        	ae_lq32f.x	aeq1, a3, a7
    4bae:	360b34        	ae_cvtq48a32s	aeq0, a11
    4bb1:	fc24fe8acf 	{ ae_slaasq56s	aeq3, aeq0, a10; nop }
    4bb6:	fe3c7d811f 	{ ae_lq56.i	aeq0, a1, 8; ae_roundsq32asym	aeq2, aeq3 }
    4bbb:	0c4b7bf36f 	{ ae_lq32f.x	aeq3, a3, a6; ae_mulzaafq32sp16s.lh	aeq1, aeq1, aep2, aeq2, aep2 }
    4bc0:	c199c4        	ae_mulzaafq32sp16s.lh	aeq3, aeq3, aep1, aeq0, aep1
    4bc3:	061934        	ae_roundsq32asym	aeq0, aeq1
    4bc6:	fe3c78437f 	{ ae_sq32f.x	aeq0, a3, a7; ae_roundsq32asym	aeq2, aeq3 }
    4bcb:	62a364        	ae_sq32f.x	aeq2, a3, a6
    4bce:	3323c2        	l32i	a12, a3, 204
    4bd1:	ed9c81        	l32r	a8, 244 (81c0 <airoha_divide_limit_1>)
    4bd4:	3423b2        	l32i	a11, a3, 208
    4bd7:	c0a5c0        	sub	a10, a5, a12
    4bda:	21a1a0        	srai	a10, a10, 1
    4bdd:	c0bbc0        	sub	a11, a11, a12
    4be0:	0008e0        	callx8	a8
    4be3:	31b0a0        	srai	a11, a10, 16
    4be6:	7693e2        	l16si	a14, a3, 236
    4be9:	01d3d2        	addmi	a13, a3, 0x100
    4bec:	d4cdd2        	addi	a13, a13, -44
    4bef:	11ce00        	slli	a12, a14, 16
    4bf2:	312ac7        	blt	a10, a12, 4c27 <cali_power+0x207>
    4bf5:	749382        	l16si	a8, a3, 232
    4bf8:	c0fbe0        	sub	a15, a11, a14
    4bfb:	303f84        	ae_cvtp24a16x2.ll	aep3, a15, a8
    4bfe:	013b44        	ae_mulfp24s.hh	aeq1, aep3, aep3
    4c01:	033a54        	ae_mulfq32sp16s.l	aeq1, aeq1, aep3
    4c04:	3613d4        	ae_sllisq56s	aeq0, aeq1, 15
    4c07:	ff247d4d0f 	{ ae_lq32f.i	aeq2, a13, 0; ae_roundsq32asym	aeq3, aeq0 }
    4c0c:	35f174        	ae_sraiq56	aeq3, aeq3, 5
    4c0f:	01abc4        	ae_addq56	aeq2, aeq2, aeq3
    4c12:	066934        	ae_roundsq32asym	aeq1, aeq2
    4c15:	621d04        	ae_sq32f.i	aeq1, a13, 0
    4c18:	7693c2        	l16si	a12, a3, 236
    4c1b:	6f5322        	s16i	a2, a3, 222
    4c1e:	352392        	l32i	a9, a3, 212
    4c21:	11cc00        	slli	a12, a12, 16
    4c24:	000b06        	j	4c54 <cali_power+0x234>

00004c27 <cali_power+0x207>:
    4c27:	6f93e2        	l16si	a14, a3, 222
    4c2a:	7593f2        	l16si	a15, a3, 234
    4c2d:	882c           	movi.n	a8, 40
    4c2f:	ee1b           	addi.n	a14, a14, 1
    4c31:	8eed           	ae_sext16	a14, a14
    4c33:	43ee80        	min	a14, a14, a8
    4c36:	6f53e2        	s16i	a14, a3, 222
    4c39:	304ef4        	ae_cvtp24a16x2.ll	aep4, a14, a15
    4c3c:	014c54        	ae_mulfp24s.hl	aeq1, aep4, aep4
    4c3f:	60cd04        	ae_lq32f.i	aeq3, a13, 0
    4c42:	361294        	ae_sllisq56s	aeq0, aeq1, 10
    4c45:	01fcc4        	ae_subq56	aeq3, aeq3, aeq0
    4c48:	06b934        	ae_roundsq32asym	aeq2, aeq3
    4c4b:	36a904        	ae_trunca32q48	a9, aeq2
    4c4e:	539920        	max	a9, a9, a2
    4c51:	356392        	s32i	a9, a3, 212

00004c54 <cali_power+0x234>:
    4c54:	edc781        	l32r	a8, 370 (40000000 <_end+0x3fff41c4>)
    4c57:	21f190        	srai	a15, a9, 1
    4c5a:	ff8a           	add.n	a15, a15, a8
    4c5c:	37daf4        	ae_truncp24a32x2	aep5, a10, a15
    4c5f:	015564        	ae_mulfp24s.lh	aeq0, aep5, aep5
    4c62:	368c34        	ae_cvtq48a32s	aeq2, a12
    4c65:	350054        	ae_slliq56	aeq0, aeq0, 1
    4c68:	098624        	ae_leq56s	b2, aeq2, aeq0
    4c6b:	110276        	bf	b2, 4c80 <cali_power+0x260>
    4c6e:	6e9392        	l16si	a9, a3, 220
    4c71:	994b           	addi.n	a9, a9, 4

00004c73 <cali_power+0x253>:
    4c73:	6e5392        	s16i	a9, a3, 220
    4c76:	000046        	j	4c7b <cali_power+0x25b>

00004c79 <cali_power+0x259>:
    4c79:	0b0c           	movi.n	a11, 0

00004c7b <cali_power+0x25b>:
    4c7b:	7053b2        	s16i	a11, a3, 224
    4c7e:	f01d           	retw.n

00004c80 <cali_power+0x260>:
    4c80:	7793a2        	l16si	a10, a3, 238
    4c83:	11aa00        	slli	a10, a10, 16
    4c86:	364a34        	ae_cvtq48a32s	aeq1, a10
    4c89:	099034        	ae_ltq56s	b3, aeq0, aeq1
    4c8c:	eb0376        	bf	b3, 4c7b <cali_power+0x25b>
    4c8f:	6e9392        	l16si	a9, a3, 220
    4c92:	fcc992        	addi	a9, a9, -4
    4c95:	fff686        	j	4c73 <cali_power+0x253>

00004c98 <cali_power+0x278>:
    4c98:	0b0c           	movi.n	a11, 0
    4c9a:	fff746        	j	4c7b <cali_power+0x25b>

00004c9d <cali_power+0x27d>:
    4c9d:	000000                                        ...

00004ca0 <mag_calibration>:
    4ca0:	004136        	entry	a1, 32
    4ca3:	edcac1        	l32r	a12, 3cc (b518 <immediate_num+0x28>)
    4ca6:	01d2b2        	addmi	a11, a2, 0x100
    4ca9:	4cc2d2        	addi	a13, a2, 76
    4cac:	604d04        	ae_lq32f.i	aeq1, a13, 0
    4caf:	601b94        	ae_lq32f.iu	aeq0, a11, -28
    4cb2:	440c04        	ae_lp16x2f.i	aep0, a12, 0
    4cb5:	c10014        	ae_mulzaafq32sp16s.lh	aeq0, aeq0, aep0, aeq1, aep0
    4cb8:	01d292        	addmi	a9, a2, 0x100
    4cbb:	ff244502ae 	{ addi	a10, a2, 80; ae_roundsq32asym	aeq3, aeq0 }
    4cc0:	623b04        	ae_sq32f.i	aeq3, a11, 0
    4cc3:	608a04        	ae_lq32f.i	aeq2, a10, 0
    4cc6:	6059a4        	ae_lq32f.iu	aeq1, a9, -24
    4cc9:	c10864        	ae_mulzaafq32sp16s.lh	aeq1, aeq1, aep0, aeq2, aep0
    4ccc:	eda681        	l32r	a8, 364 (1000 <voiced_decision+0x48>)
    4ccf:	061934        	ae_roundsq32asym	aeq0, aeq1
    4cd2:	620904        	ae_sq32f.i	aeq0, a9, 0
    4cd5:	3922b2        	l32i	a11, a2, 228
    4cd8:	0228b7        	blt	a8, a11, 4cde <mag_calibration+0x3e>
    4cdb:	0047c6        	j	4dfe <mag_calibration+0x15e>
    4cde:	3a22a2        	l32i	a10, a2, 232
    4ce1:	ed5881        	l32r	a8, 244 (81c0 <airoha_divide_limit_1>)
    4ce4:	21a2a0        	srai	a10, a10, 2
    4ce7:	0008e0        	callx8	a8
    4cea:	37aaa4        	ae_truncp24a32x2	aep2, a10, a10
    4ced:	02d2c2        	addmi	a12, a2, 0x200
    4cf0:	f8eac8acce 	{ addi	a12, a12, -118; ae_roundsp16asym	aep1, aep2 }
    4cf5:	421c04        	ae_sp16f.l.i	aep1, a12, 0
    4cf8:	6a92b2        	l16si	a11, a2, 212
    4cfb:	bb1b           	addi.n	a11, a11, 1
    4cfd:	8bbd           	ae_sext16	a11, a11
    4cff:	6a52b2        	s16i	a11, a2, 212
    4d02:	e0cbb2        	addi	a11, a11, -32
    4d05:	0ddb56        	bnez	a11, 4de6 <mag_calibration+0x146>
    4d08:	cb0c           	movi.n	a11, 12
    4d0a:	edab81        	l32r	a8, 3b8 (4450 <take_max_four>)
    4d0d:	3b2292        	l32i	a9, a2, 236
    4d10:	7192a2        	l16si	a10, a2, 226
    4d13:	040c           	movi.n	a4, 0
    4d15:	6a5242        	s16i	a4, a2, 212
    4d18:	90aa20        	addx2	a10, a10, a2
    4d1b:	319090        	srai	a9, a9, 16
    4d1e:	785a92        	s16i	a9, a10, 240
    4d21:	01d2a2        	addmi	a10, a2, 0x100
    4d24:	f0caa2        	addi	a10, a10, -16
    4d27:	0008e0        	callx8	a8
    4d2a:	eda481        	l32r	a8, 3bc (43f4 <take_min_four>)
    4d2d:	432292        	l32i	a9, a2, 0x10c
    4d30:	0abd           	mov.n	a11, a10
    4d32:	4262b2        	s32i	a11, a2, 0x108
    4d35:	7192a2        	l16si	a10, a2, 226
    4d38:	cb0c           	movi.n	a11, 12
    4d3a:	319090        	srai	a9, a9, 16
    4d3d:	90aa20        	addx2	a10, a10, a2
    4d40:	885a92        	s16i	a9, a10, 0x110
    4d43:	01d2a2        	addmi	a10, a2, 0x100
    4d46:	10caa2        	addi	a10, a10, 16
    4d49:	0008e0        	callx8	a8
    4d4c:	4a62a2        	s32i	a10, a2, 0x128
    4d4f:	01d292        	addmi	a9, a2, 0x100
    4d52:	e0c932        	addi	a3, a9, -32
    4d55:	404304        	ae_lp16f.i	aep4, a3, 0
    4d58:	01c474        	ae_mulfp24s.ll	aeq2, aep4, aep4
    4d5b:	09dd           	mov.n	a13, a9
    4d5d:	f973fd5d2f 	{ ae_lq32f.iu	aeq2, a13, 8; ae_roundsp16q48asym	aep3, aeq2 }
    4d62:	d6ee0289ce 	{ addi	a12, a9, 40; ae_mulfq32sp16s.l	aeq0, aeq2, aep3 }
    4d67:	604c04        	ae_lq32f.i	aeq1, a12, 0
    4d6a:	098104        	ae_ltq56s	b0, aeq1, aeq0
    4d6d:	ed98e1        	l32r	a14, 3d0 (6ccd <two_mic_WB_NR_NSN_proc+0x7f9>)
    4d70:	305ee4        	ae_cvtp24a16x2.ll	aep5, a14, a14
    4d73:	200076        	bf	b0, 4d97 <mag_calibration+0xf7>
    4d76:	06c934        	ae_roundsq32asym	aeq3, aeq0
    4d79:	03dad4        	ae_mulfq32sp16s.l	aeq3, aeq3, aep5
    4d7c:	099314        	ae_ltq56s	b1, aeq3, aeq1
    4d7f:	140176        	bf	b1, 4d97 <mag_calibration+0xf7>
    4d82:	ed9481        	l32r	a8, 3d4 (b51c <immediate_num+0x2c>)
    4d85:	dcc9f2        	addi	a15, a9, -36
    4d88:	604f04        	ae_lq32f.i	aeq1, a15, 0
    4d8b:	446804        	ae_lp16x2f.i	aep6, a8, 0
    4d8e:	c16e64        	ae_mulzaafq32sp16s.lh	aeq1, aeq1, aep6, aeq2, aep6
    4d91:	061934        	ae_roundsq32asym	aeq0, aeq1
    4d94:	620f04        	ae_sq32f.i	aeq0, a15, 0
    4d97:	ecc281        	l32r	a8, a0 (8b8 <HIFI_sqrt>)
    4d9a:	0a0c           	movi.n	a10, 0
    4d9c:	3722b2        	l32i	a11, a2, 220
    4d9f:	0008e0        	callx8	a8
    4da2:	05d2c2        	addmi	a12, a2, 0x500
    4da5:	360b34        	ae_cvtq48a32s	aeq0, a11
    4da8:	fc24fe8acf 	{ ae_slaasq56s	aeq3, aeq0, a10; nop }
    4dad:	fe3c6c130f 	{ ae_lp16f.i	aep1, a3, 0; ae_roundsq32asym	aeq2, aeq3 }
    4db2:	d7e605ccbe 	{ addi	a11, a12, 92; ae_mulfq32sp16s.l	aeq2, aeq2, aep1 }
    4db7:	400b04        	ae_lp16f.i	aep0, a11, 0
    4dba:	038294        	ae_mulfq32sp16s.l	aeq2, aeq2, aep0
    4dbd:	35a054        	ae_slliq56	aeq2, aeq2, 1
    4dc0:	fb73c542ae 	{ addi	a10, a2, 84; ae_roundsp16q48asym	aep7, aeq2 }
    4dc5:	427a04        	ae_sp16f.l.i	aep7, a10, 0
    4dc8:	719292        	l16si	a9, a2, 226
    4dcb:	c592a2        	l16si	a10, a2, 0x18a
    4dce:	991b           	addi.n	a9, a9, 1
    4dd0:	11aa00        	slli	a10, a10, 16
    4dd3:	3b62a2        	s32i	a10, a2, 236
    4dd6:	4362a2        	s32i	a10, a2, 0x10c
    4dd9:	899d           	ae_sext16	a9, a9
    4ddb:	715292        	s16i	a9, a2, 226
    4dde:	1ca9a6        	blti	a9, 12, 4dfe <mag_calibration+0x15e>
    4de1:	715242        	s16i	a4, a2, 226
    4de4:	f01d           	retw.n

00004de6 <mag_calibration+0x146>:
    4de6:	c592f2        	l16si	a15, a2, 0x18a
    4de9:	4322d2        	l32i	a13, a2, 0x10c
    4dec:	3b22e2        	l32i	a14, a2, 236
    4def:	11ff00        	slli	a15, a15, 16
    4df2:	43ddf0        	min	a13, a13, a15
    4df5:	53eef0        	max	a14, a14, a15
    4df8:	3b62e2        	s32i	a14, a2, 236
    4dfb:	4362d2        	s32i	a13, a2, 0x10c
    4dfe:	f01d           	retw.n

00004e00 <beam1_proc>:
    4e00:	008136        	entry	a1, 64
    4e03:	3139           	s32i.n	a3, a1, 12
    4e05:	1c0c           	movi.n	a12, 1
    4e07:	fc2491464f 	{ addx2	a4, a6, a4; ae_zeroq56	aeq0 }
    4e0c:	1166f0        	slli	a6, a6, 1
    4e0f:	3a15a6        	blti	a5, 1, 4e4d <beam1_proc+0x4d>
    4e12:	049d           	mov.n	a9, a4
    4e14:	440404        	ae_lp16x2f.i	aep0, a4, 0
    4e17:	5b0c           	movi.n	a11, 5
    4e19:	9d1c           	movi.n	a13, 25
    4e1b:	5a1c           	movi.n	a10, 21
    4e1d:	fd044002ef 	{ movi	a14, 2; ae_movq56	aeq1, aeq0 }
    4e22:	72ee50        	salt	a14, a14, a5
    4e25:	93ade0        	movnez	a10, a13, a14
    4e28:	04ab76        	loopgtz	a11, 4e30 <beam1_proc+0x30>
    4e2b:	e2006d891f 	{ ae_lp16x2f.iu	aep0, a9, 4; ae_mulaafp24s.hh.ll	aeq1, aep0, aep0 }

00004e30 <beam1_proc+0x30>:
    4e30:	ed0681        	l32r	a8, 248 (80b8 <airoha_divide>)
    4e33:	3550b4        	ae_sraiq56	aeq1, aeq1, 2
    4e36:	401a00        	ssl	a10
    4e39:	a1ac00        	sll	a10, a12
    4e3c:	061934        	ae_roundsq32asym	aeq0, aeq1
    4e3f:	368b04        	ae_trunca32q48	a11, aeq0
    4e42:	0008e0        	callx8	a8
    4e45:	fc249441bf 	{ s32i.n	a11, a1, 16; ae_zeroq56	aeq0 }
    4e4a:	000046        	j	4e4f <beam1_proc+0x4f>

00004e4d <beam1_proc+0x4d>:
    4e4d:	4199           	s32i.n	a9, a1, 16

00004e4f <beam1_proc+0x4f>:
    4e4f:	0d0c           	movi.n	a13, 0
    4e51:	31f8           	l32i.n	a15, a1, 12
    4e53:	6c92b2        	l16si	a11, a2, 216
    4e56:	fec432        	addi	a3, a4, -2
    4e59:	4fc8           	l32i.n	a12, a15, 16
    4e5b:	1f88           	l32i.n	a8, a15, 4
    4e5d:	28cf92        	addi	a9, a15, 40
    4e60:	14cfe2        	addi	a14, a15, 20
    4e63:	21e9           	s32i.n	a14, a1, 8
    4e65:	0199           	s32i.n	a9, a1, 0
    4e67:	f3f790        	wur.ae_cend0	a9
    4e6a:	403e04        	ae_lp16f.i	aep3, a14, 0
    4e6d:	686a           	add.n	a6, a8, a6
    4e6f:	fec662        	addi	a6, a6, -2
    4e72:	18cff2        	addi	a15, a15, 24
    4e75:	11f9           	s32i.n	a15, a1, 4
    4e77:	f3f6f0        	wur.ae_cbegin0	a15
    4e7a:	064d           	mov.n	a4, a6
    4e7c:	041ba6        	blti	a11, 1, 4e84 <beam1_proc+0x84>
    4e7f:	180c           	movi.n	a8, 1
    4e81:	93d870        	movnez	a13, a8, a7
    4e84:	18c2b2        	addi	a11, a2, 24
    4e87:	0e0c           	movi.n	a14, 0
    4e89:	0aa0f2        	movi	a15, 10
    4e8c:	08a082        	movi	a8, 8
    4e8f:	0470d0        	extui	a7, a13, 0, 1
    4e92:	fd6c0002df 	{ movi	a13, 2; ae_cvtq48p24s.l	aeq1, aep3 }

00004e97 <beam1_proc+0x97>:
    4e97:	408314        	ae_lp16f.iu	aep0, a3, 2
    4e9a:	fc24e28cdf 	{ ae_sp16f.l.c	aep0, a12, a13; nop }
    4e9f:	400904        	ae_lp16f.i	aep0, a9, 0
    4ea2:	40b614        	ae_lp16f.iu	aep3, a6, 2
    4ea5:	09a876        	loopgtz	a8, 4eb2 <beam1_proc+0xb2>
    4ea8:	fc24d91cdf 	{ ae_lp16f.c	aep1, a12, a13; nop }
    4ead:	ee21ec891f 	{ ae_lp16f.iu	aep0, a9, 2; ae_mulsfp24s.ll	aeq1, aep0, aep1 }

00004eb2 <beam1_proc+0xb2>:
    4eb2:	f86bcffffe 	{ addi	a15, a15, -1; ae_roundsp16q48asym	aep1, aeq1 }
    4eb7:	f8668f099e 	{ addi	a9, a9, -16; ae_movp48	aep0, aep1 }
    4ebc:	17ac           	beqz.n	a7, 4ee1 <beam1_proc+0xe1>
    4ebe:	402214        	ae_lp16f.i	aep2, a2, 2
    4ec1:	405204        	ae_lp16f.i	aep5, a2, 0
    4ec4:	eb35ec422f 	{ ae_lp16f.i	aep4, a2, 4; ae_mulfp24s.ll	aeq3, aep5, aep1 }
    4ec9:	608274        	ae_lq32f.i	aeq2, a2, 28
    4ecc:	35f094        	ae_slliq56	aeq3, aeq3, 2
    4ecf:	f792fd226f 	{ ae_lq32f.i	aeq1, a2, 24; ae_mulafq32sp16s.l	aeq3, aeq2, aep4 }
    4ed4:	03a854        	ae_mulafq32sp16s.l	aeq3, aeq1, aep2
    4ed7:	fe3c799b1f 	{ ae_sq32f.i	aeq1, a11, 4; ae_roundsq32asym	aeq2, aeq3 }
    4edc:	f873b9ab0f 	{ ae_sq32f.i	aeq2, a11, 0; ae_roundsp16q48asym	aep0, aeq2 }

00004ee1 <beam1_proc+0xe1>:
    4ee1:	428414        	ae_sp16f.l.iu	aep0, a4, 2
    4ee4:	2d15a6        	blti	a5, 1, 4f15 <beam1_proc+0x115>
    4ee7:	2aee07        	bbsi	a14, 0, 4f15 <beam1_proc+0x115>
    4eea:	4188           	l32i.n	a8, a1, 16
    4eec:	368834        	ae_cvtq48a32s	aeq2, a8
    4eef:	039294        	ae_mulfq32sp16s.l	aeq2, aeq2, aep1
    4ef2:	400904        	ae_lp16f.i	aep0, a9, 0
    4ef5:	fc24feaa4f 	{ ae_slaasq56s	aeq1, aeq2, a10; nop }
    4efa:	f96f80088f 	{ movi	a8, 8; ae_roundsp24q48asym	aep2, aeq1 }
    4eff:	0fa876        	loopgtz	a8, 4f12 <beam1_proc+0x112>
    4f02:	ff0c197cdf 	{ ae_lp16f.c	aep7, a12, a13; ae_cvtq48p24s.l	aeq3, aep0 }
    4f07:	01af34        	ae_mulafp24s.ll	aeq3, aep2, aep7
    4f0a:	fb7bac891f 	{ ae_lp16f.iu	aep0, a9, 2; ae_roundsp16q48asym	aep6, aeq3 }
    4f0f:	4269f4        	ae_sp16f.l.i	aep6, a9, -2

00004f12 <beam1_proc+0x112>:
    4f12:	f0c992        	addi	a9, a9, -16
    4f15:	ee1b           	addi.n	a14, a14, 1
    4f17:	fd6c00088f 	{ movi	a8, 8; ae_cvtq48p24s.l	aeq1, aep3 }
    4f1c:	f77f56        	bnez	a15, 4e97 <beam1_proc+0x97>
    4f1f:	4b0c           	movi.n	a11, 4
    4f21:	11d8           	l32i.n	a13, a1, 4
    4f23:	01a8           	l32i.n	a10, a1, 0
    4f25:	31f8           	l32i.n	a15, a1, 12
    4f27:	21e8           	l32i.n	a14, a1, 8
    4f29:	0a9d           	mov.n	a9, a10
    4f2b:	4fc9           	s32i.n	a12, a15, 16
    4f2d:	423e04        	ae_sp16f.l.i	aep3, a14, 0
    4f30:	fd046d0d4f 	{ ae_lp16x2f.i	aep0, a13, 16; ae_movq56	aeq1, aeq0 }
    4f35:	04ab76        	loopgtz	a11, 4f3d <beam1_proc+0x13d>

00004f38 <beam1_proc+0x138>:
    4f38:	e2006d891f 	{ ae_lp16x2f.iu	aep0, a9, 4; ae_mulaafp24s.hh.ll	aeq1, aep0, aep0 }

00004f3d <beam1_proc+0x13d>:
    4f3d:	f86bb031be 	{ l32i	a11, a1, 12; ae_roundsp16q48asym	aep0, aeq1 }
    4f42:	360924        	ae_trunca16p24s.l	a9, aep0
    4f45:	069282        	l16si	a8, a2, 12
    4f48:	0b5b92        	s16i	a9, a11, 22
    4f4b:	899d           	ae_sext16	a9, a9
    4f4d:	1ea897        	bge	a8, a9, 4f6f <beam1_proc+0x16f>
    4f50:	0a9d           	mov.n	a9, a10
    4f52:	08a0c2        	movi	a12, 8
    4f55:	ed20d1        	l32r	a13, 3d8 (7efa <ifft_wo+0x2>)
    4f58:	38cbe2        	addi	a14, a11, 56
    4f5b:	400e84        	ae_lp16f.i	aep0, a14, -16
    4f5e:	302dd4        	ae_cvtp24a16x2.ll	aep2, a13, a13
    4f61:	0aac76        	loopgtz	a12, 4f6f <beam1_proc+0x16f>
    4f64:	012074        	ae_mulfp24s.ll	aeq0, aep2, aep0
    4f67:	f863ec891f 	{ ae_lp16f.iu	aep0, a9, 2; ae_roundsp16q48asym	aep1, aeq0 }
    4f6c:	4219f4        	ae_sp16f.l.i	aep1, a9, -2

00004f6f <beam1_proc+0x16f>:
    4f6f:	f01d           	retw.n

00004f71 <beam1_proc+0x171>:
    4f71:	000000                                        ...

00004f74 <beam2_proc>:
    4f74:	010136        	entry	a1, 128
    4f77:	c159           	s32i.n	a5, a1, 48
    4f79:	07ad           	mov.n	a10, a7
    4f7b:	a169           	s32i.n	a6, a1, 40
    4f7d:	02fd           	mov.n	a15, a2
    4f7f:	2f9392        	l16si	a9, a3, 94
    4f82:	182382        	l32i	a8, a3, 96
    4f85:	032d           	mov.n	a2, a3
    4f87:	119910        	slli	a9, a9, 15
    4f8a:	04a897        	bge	a8, a9, 4f92 <beam2_proc+0x1e>
    4f8d:	fec6c2        	addi	a12, a6, -2
    4f90:	a1c9           	s32i.n	a12, a1, 40

00004f92 <beam2_proc+0x1e>:
    4f92:	c1d8           	l32i.n	a13, a1, 48
    4f94:	2121e2        	l32i	a14, a1, 132
    4f97:	01d262        	addmi	a6, a2, 0x100
    4f9a:	5cc282        	addi	a8, a2, 92
    4f9d:	5189           	s32i.n	a8, a1, 20
    4f9f:	400804        	ae_lp16f.i	aep0, a8, 0
    4fa2:	90c672        	addi	a7, a6, -112
    4fa5:	f3f670        	wur.ae_cbegin0	a7
    4fa8:	a0c662        	addi	a6, a6, -96
    4fab:	0278           	l32i.n	a7, a2, 0
    4fad:	f3f760        	wur.ae_cend0	a6
    4fb0:	90ce40        	addx2	a12, a14, a4
    4fb3:	feccc2        	addi	a12, a12, -2
    4fb6:	162242        	l32i	a4, a2, 88
    4fb9:	1268           	l32i.n	a6, a2, 4
    4fbb:	907e70        	addx2	a7, a14, a7
    4fbe:	fec772        	addi	a7, a7, -2
    4fc1:	90ee60        	addx2	a14, a14, a6
    4fc4:	fecee2        	addi	a14, a14, -2
    4fc7:	38c262        	addi	a6, a2, 56
    4fca:	7169           	s32i.n	a6, a1, 28
    4fcc:	0e1de6        	bgei	a13, 1, 4fde <beam2_proc+0x6a>
    4fcf:	ec9781        	l32r	a8, 22c (7fff <ifft_wo+0x107>)
    4fd2:	089a87        	bne	a10, a8, 4fde <beam2_proc+0x6a>
    4fd5:	b1a9           	s32i.n	a10, a1, 44
    4fd7:	190c           	movi.n	a9, 1
    4fd9:	d199           	s32i.n	a9, a1, 52
    4fdb:	000146        	j	4fe4 <beam2_proc+0x70>

00004fde <beam2_proc+0x6a>:
    4fde:	b1a9           	s32i.n	a10, a1, 44
    4fe0:	0b0c           	movi.n	a11, 0
    4fe2:	d1b9           	s32i.n	a11, a1, 52

00004fe4 <beam2_proc+0x70>:
    4fe4:	a198           	l32i.n	a9, a1, 40
    4fe6:	080c           	movi.n	a8, 0
    4fe8:	64c252        	addi	a5, a2, 100
    4feb:	8159           	s32i.n	a5, a1, 32
    4fed:	9189           	s32i.n	a8, a1, 36
    4fef:	050c           	movi.n	a5, 0
    4ff1:	04df82        	addmi	a8, a15, 0x400
    4ff4:	fec9d2        	addi	a13, a9, -2
    4ff7:	fcc932        	addi	a3, a9, -4
    4ffa:	fac9a2        	addi	a10, a9, -6
    4ffd:	f8c9b2        	addi	a11, a9, -8
    5000:	5cc882        	addi	a8, a8, 92
    5003:	6189           	s32i.n	a8, a1, 24
    5005:	31b9           	s32i.n	a11, a1, 12
    5007:	11a9           	s32i.n	a10, a1, 4
    5009:	026132        	s32i	a3, a1, 8
    500c:	0061d2        	s32i	a13, a1, 0
    500f:	02a032        	movi	a3, 2
    5012:	0aa0d2        	movi	a13, 10
    5015:	fbc992        	addi	a9, a9, -5
    5018:	fc2494419f 	{ s32i.n	a9, a1, 16; ae_zeroq56	aeq0 }

0000501d <beam2_proc+0xa9>:
    501d:	409e14        	ae_lp16f.iu	aep1, a14, 2
    5020:	fc24e2943f 	{ ae_sp16f.l.c	aep1, a4, a3; nop }
    5025:	6c9f82        	l16si	a8, a15, 216
    5028:	fd0440089f 	{ movi	a9, 8; ae_movq56	aeq1, aeq0 }
    502d:	114816        	beqz	a8, 5145 <beam2_proc+0x1d1>
    5030:	fe0c2e160f 	{ ae_lp24f.i	aep1, a6, 0; ae_cvtq48p24s.l	aeq2, aep0 }
    5035:	09a976        	loopgtz	a9, 5042 <beam2_proc+0xce>
    5038:	fc24d9243f 	{ ae_lp16f.c	aep2, a4, a3; nop }
    503d:	e247ee961f 	{ ae_lp24f.iu	aep1, a6, 4; ae_mulafp24s.ll	aeq1, aep1, aep2 }

00005042 <beam2_proc+0xce>:
    5042:	b198           	l32i.n	a9, a1, 44
    5044:	f96fd8c99f 	{ ae_cvtp24a16x2.ll	aep4, a9, a9; ae_roundsp24q48asym	aep3, aeq1 }
    5049:	05b4c4        	ae_mulssfp24s.hh.ll	aeq2, aep3, aep4
    504c:	e0c662        	addi	a6, a6, -32
    504f:	f973ff086f 	{ ae_trunca16p24s.l	a8, aep0; ae_roundsp16q48asym	aep3, aeq2 }
    5054:	363924        	ae_trunca16p24s.l	a9, aep3

00005057 <beam2_proc+0xe3>:
    5057:	f962ac8c1f 	{ ae_lp16f.iu	aep0, a12, 2; ae_movp48	aep2, aep0 }
    505c:	608180        	abs	a8, a8
    505f:	609190        	abs	a9, a9
    5062:	728890        	salt	a8, a8, a9
    5065:	18cc           	bnez.n	a8, 506a <beam2_proc+0xf6>
    5067:	0934a4        	ae_movp48	aep2, aep3

0000506a <beam2_proc+0xf6>:
    506a:	d188           	l32i.n	a8, a1, 52
    506c:	42a714        	ae_sp16f.l.iu	aep2, a7, 2
    506f:	0da816        	beqz	a8, 514d <beam2_proc+0x1d9>
    5072:	458c           	beqz.n	a5, 507a <beam2_proc+0x106>
    5074:	025526        	beqi	a5, 5, 507a <beam2_proc+0x106>
    5077:	0025c6        	j	5112 <beam2_proc+0x19e>

0000507a <beam2_proc+0x106>:
    507a:	4a0c           	movi.n	a10, 4
    507c:	fd0440049f 	{ movi	a9, 4; ae_movq56	aeq1, aeq0 }
    5081:	f03d           	nop.n
    5083:	f03d           	nop.n
    5085:	04a976        	loopgtz	a9, 508d <beam2_proc+0x119>
    5088:	fc24d9243f 	{ ae_lp16f.c	aep2, a4, a3; nop }
    508d:	04aa76        	loopgtz	a10, 5095 <beam2_proc+0x121>
    5090:	e24bd9243f 	{ ae_lp16f.c	aep2, a4, a3; ae_mulafp24s.ll	aeq1, aep2, aep2 }

00005095 <beam2_proc+0x121>:
    5095:	e24bf0819e 	{ l32i	a9, a1, 32; ae_mulafp24s.ll	aeq1, aep2, aep2 }
    509a:	ecd0a1        	l32r	a10, 3dc (fff <voiced_decision+0x47>)
    509d:	3590b4        	ae_sraiq56	aeq2, aeq1, 2
    50a0:	ff347d290f 	{ ae_lq32f.i	aeq1, a9, 0; ae_roundsq32asym	aeq3, aeq2 }
    50a5:	f9ea39b90f 	{ ae_sq32f.i	aeq3, a9, 0; ae_addq56	aeq1, aeq1, aeq2 }
    50aa:	ff2c666f8e 	{ l16si	a8, a15, 204; ae_roundsq32asym	aeq3, aeq1 }
    50af:	36bb04        	ae_trunca32q48	a11, aeq3
    50b2:	1a62b2        	s32i	a11, a2, 104
    50b5:	0218e6        	bgei	a8, 1, 50bb <beam2_proc+0x147>
    50b8:	0083c6        	j	52cb <beam2_proc+0x357>
    50bb:	e1f9           	s32i.n	a15, a1, 56
    50bd:	f1e9           	s32i.n	a14, a1, 60
    50bf:	1061d2        	s32i	a13, a1, 64
    50c2:	1161c2        	s32i	a12, a1, 68
    50c5:	02aab7        	bge	a10, a11, 50cb <beam2_proc+0x157>
    50c8:	004646        	j	51e5 <beam2_proc+0x271>
    50cb:	6188           	l32i.n	a8, a1, 24
    50cd:	a1a8           	l32i.n	a10, a1, 40
    50cf:	7f1882        	l16ui	a8, a8, 254
    50d2:	c0aa80        	sub	a10, a10, a8
    50d5:	080c           	movi.n	a8, 0
    50d7:	fccaa2        	addi	a10, a10, -4
    50da:	53aa80        	max	a10, a10, a8
    50dd:	004546        	j	51f6 <beam2_proc+0x282>

000050e0 <beam2_proc+0x16c>:
    50e0:	21a8           	l32i.n	a10, a1, 8
    50e2:	e1f9           	s32i.n	a15, a1, 56
    50e4:	f1e9           	s32i.n	a14, a1, 60
    50e6:	1061d2        	s32i	a13, a1, 64
    50e9:	1161c2        	s32i	a12, a1, 68
    50ec:	78c192        	addi	a9, a1, 120
    50ef:	5609a4        	ae_sp24x2s.i	aep0, a9, -48

000050f2 <beam2_proc+0x17e>:
    50f2:	401a00        	ssl	a10
    50f5:	ec5481        	l32r	a8, 248 (80b8 <airoha_divide>)
    50f8:	1a0c           	movi.n	a10, 1
    50fa:	a1aa00        	sll	a10, a10
    50fd:	0008e0        	callx8	a8
    5100:	1021d2        	l32i	a13, a1, 64
    5103:	f1e8           	l32i.n	a14, a1, 60
    5105:	e1f8           	l32i.n	a15, a1, 56
    5107:	78c1c2        	addi	a12, a1, 120
    510a:	540ca4        	ae_lp24x2.i	aep0, a12, -48
    510d:	fc24b111ce 	{ l32i	a12, a1, 68; ae_zeroq56	aeq0 }

00005112 <beam2_proc+0x19e>:
    5112:	405704        	ae_lp16f.i	aep5, a7, 0
    5115:	368b34        	ae_cvtq48a32s	aeq2, a11
    5118:	03d294        	ae_mulfq32sp16s.l	aeq2, aeq2, aep5
    511b:	501604        	ae_lp24f.i	aep1, a6, 0
    511e:	fc24feaa4f 	{ ae_slaasq56s	aeq1, aeq2, a10; nop }
    5123:	f96fc0088f 	{ movi	a8, 8; ae_roundsp24q48asym	aep3, aeq1 }
    5128:	0fa876        	loopgtz	a8, 513b <beam2_proc+0x1c7>
    512b:	ff2c19743f 	{ ae_lp16f.c	aep7, a4, a3; ae_cvtq48p24s.l	aeq3, aep1 }
    5130:	01bf34        	ae_mulafp24s.ll	aeq3, aep3, aep7
    5133:	fb7fae961f 	{ ae_lp24f.iu	aep1, a6, 4; ae_roundsp24q48asym	aep6, aeq3 }
    5138:	5266f4        	ae_sp24f.l.i	aep6, a6, -4

0000513b <beam2_proc+0x1c7>:
    513b:	e0c662        	addi	a6, a6, -32
    513e:	0002c6        	j	514d <beam2_proc+0x1d9>

00005141 <beam2_proc+0x1cd>:
    5141:	00000000                                ....

00005145 <beam2_proc+0x1d1>:
    5145:	f862ec8c1f 	{ ae_lp16f.iu	aep0, a12, 2; ae_movp48	aep1, aep0 }
    514a:	429714        	ae_sp16f.l.iu	aep1, a7, 2

0000514d <beam2_proc+0x1d9>:
    514d:	551b           	addi.n	a5, a5, 1
    514f:	dd0b           	addi.n	a13, a13, -1
    5151:	ec8d56        	bnez	a13, 501d <beam2_proc+0xa9>
    5154:	7198           	l32i.n	a9, a1, 28
    5156:	51b8           	l32i.n	a11, a1, 20
    5158:	4a0c           	movi.n	a10, 4
    515a:	166242        	s32i	a4, a2, 88
    515d:	420b04        	ae_sp16f.l.i	aep0, a11, 0
    5160:	fd046f227f 	{ ae_lp24x2f.i	aep2, a2, 56; ae_movq56	aeq1, aeq0 }
    5165:	04aa76        	loopgtz	a10, 516d <beam2_proc+0x1f9>
    5168:	e2486fa91f 	{ ae_lp24x2f.iu	aep2, a9, 8; ae_mulaafp24s.hh.ll	aeq1, aep2, aep2 }

0000516d <beam2_proc+0x1f9>:
    516d:	dc7c           	movi.n	a12, -3
    516f:	c1d8           	l32i.n	a13, a1, 48
    5171:	f96b85e2ee 	{ addi	a14, a2, 94; ae_roundsp16q48asym	aep2, aeq1 }
    5176:	422e04        	ae_sp16f.l.i	aep2, a14, 0
    5179:	02acd7        	bge	a12, a13, 517f <beam2_proc+0x20b>
    517c:	002206        	j	5208 <beam2_proc+0x294>
    517f:	669f82        	l16si	a8, a15, 204
    5182:	082856        	bnez	a8, 5208 <beam2_proc+0x294>
    5185:	3992b2        	l16si	a11, a2, 114
    5188:	2f92a2        	l16si	a10, a2, 94
    518b:	1b2292        	l32i	a9, a2, 108
    518e:	bb1b           	addi.n	a11, a11, 1
    5190:	8bbd           	ae_sext16	a11, a11
    5192:	3952b2        	s16i	a11, a2, 114
    5195:	6acba6        	blti	a11, 32, 5203 <beam2_proc+0x28f>
    5198:	0e0c           	movi.n	a14, 0
    519a:	1b62a2        	s32i	a10, a2, 108
    519d:	3952e2        	s16i	a14, a2, 114
    51a0:	3a92e2        	l16si	a14, a2, 116
    51a3:	10c9d2        	addi	a13, a9, 16
    51a6:	21d5d0        	srai	a13, a13, 5
    51a9:	90ee20        	addx2	a14, a14, a2
    51ac:	3c5ed2        	s16i	a13, a14, 120
    51af:	3a92c2        	l16si	a12, a2, 116
    51b2:	e1f9           	s32i.n	a15, a1, 56
    51b4:	cc1b           	addi.n	a12, a12, 1
    51b6:	8ccd           	ae_sext16	a12, a12
    51b8:	3a52c2        	s16i	a12, a2, 116
    51bb:	04aca6        	blti	a12, 12, 51c3 <beam2_proc+0x24f>
    51be:	0f0c           	movi.n	a15, 0
    51c0:	3a52f2        	s16i	a15, a2, 116

000051c3 <beam2_proc+0x24f>:
    51c3:	ec7e81        	l32r	a8, 3bc (43f4 <take_min_four>)
    51c6:	78c2a2        	addi	a10, a2, 120
    51c9:	cb0c           	movi.n	a11, 12
    51cb:	0008e0        	callx8	a8
    51ce:	0abd           	mov.n	a11, a10
    51d0:	ebce81        	l32r	a8, 108 (43d4 <siir_safr>)
    51d3:	ec83c1        	l32r	a12, 3e0 (b510 <immediate_num+0x20>)
    51d6:	1822a2        	l32i	a10, a2, 96
    51d9:	0008e0        	callx8	a8
    51dc:	e1f8           	l32i.n	a15, a1, 56
    51de:	1862a2        	s32i	a10, a2, 96
    51e1:	0008c6        	j	5208 <beam2_proc+0x294>

000051e4 <beam2_proc+0x270>:
	...

000051e5 <beam2_proc+0x271>:
    51e5:	c1a8           	l32i.n	a10, a1, 48
    51e7:	d97c           	movi.n	a9, -3
    51e9:	02a9a7        	bge	a9, a10, 51ef <beam2_proc+0x27b>
    51ec:	003446        	j	52c1 <beam2_proc+0x34d>
    51ef:	41a8           	l32i.n	a10, a1, 16
    51f1:	000046        	j	51f6 <beam2_proc+0x282>

000051f4 <beam2_proc+0x280>:
    51f4:	31a8           	l32i.n	a10, a1, 12

000051f6 <beam2_proc+0x282>:
    51f6:	78c182        	addi	a8, a1, 120
    51f9:	190c           	movi.n	a9, 1
    51fb:	9199           	s32i.n	a9, a1, 36
    51fd:	5608a4        	ae_sp24x2s.i	aep0, a8, -48
    5200:	ffbb86        	j	50f2 <beam2_proc+0x17e>

00005203 <beam2_proc+0x28f>:
    5203:	ba9a           	add.n	a11, a10, a9
    5205:	1b62b2        	s32i	a11, a2, 108
    5208:	1a22d2        	l32i	a13, a2, 104
    520b:	ec56c1        	l32r	a12, 364 (1000 <voiced_decision+0x48>)
    520e:	65acd7        	bge	a12, a13, 5277 <beam2_proc+0x303>
    5211:	2021e2        	l32i	a14, a1, 128
    5214:	112ee6        	bgei	a14, 2, 5229 <beam2_proc+0x2b5>
    5217:	ec7491        	l32r	a9, 3e8 (4666 <prelim_filter+0x1ba>)
    521a:	ec7481        	l32r	a8, 3ec (3b00 <Voice_WB_TX_Prcs+0x664>)
    521d:	ec71a1        	l32r	a10, 3e4 (7e00 <NR_WienerFilter+0x1ec>)
    5220:	301aa4        	ae_cvtp24a16x2.ll	aep1, a10, a10
    5223:	302894        	ae_cvtp24a16x2.ll	aep2, a8, a9
    5226:	000386        	j	5238 <beam2_proc+0x2c4>

00005229 <beam2_proc+0x2b5>:
    5229:	ec71c1        	l32r	a12, 3f0 (4a3d <cali_power+0x1d>)
    522c:	ec72b1        	l32r	a11, 3f4 (43d7 <siir_safr+0x3>)
    522f:	3892d2        	l16si	a13, a2, 112
    5232:	301dd4        	ae_cvtp24a16x2.ll	aep1, a13, a13
    5235:	302bc4        	ae_cvtp24a16x2.ll	aep2, a11, a12

00005238 <beam2_proc+0x2c4>:
    5238:	182282        	l32i	a8, a2, 96
    523b:	2f92e2        	l16si	a14, a2, 94
    523e:	360834        	ae_cvtq48a32s	aeq0, a8
    5241:	03a204        	ae_mulfq32sp16s.h	aeq2, aeq0, aep2
    5244:	11ee10        	slli	a14, a14, 15
    5247:	364e34        	ae_cvtq48a32s	aeq1, a14
    524a:	099204        	ae_ltq56s	b0, aeq2, aeq1
    524d:	260076        	bf	b0, 5277 <beam2_proc+0x303>
    5250:	03aa14        	ae_mulfq32sp16s.l	aeq3, aeq0, aep2
    5253:	09b514        	ae_leq56s	b1, aeq1, aeq3
    5256:	050176        	bf	b1, 525f <beam2_proc+0x2eb>
    5259:	ec6791        	l32r	a9, 3f8 (7fae <ifft_wo+0xb6>)
    525c:	301994        	ae_cvtp24a16x2.ll	aep1, a9, a9

0000525f <beam2_proc+0x2eb>:
    525f:	7168           	l32i.n	a6, a1, 28
    5261:	8a0c           	movi.n	a10, 8
    5263:	58c2b2        	addi	a11, a2, 88
    5266:	502b84        	ae_lp24f.i	aep2, a11, -32
    5269:	0aaa76        	loopgtz	a10, 5277 <beam2_proc+0x303>
    526c:	011274        	ae_mulfp24s.ll	aeq0, aep1, aep2
    526f:	f967eea61f 	{ ae_lp24f.iu	aep2, a6, 4; ae_roundsp24q48asym	aep3, aeq0 }
    5274:	5236f4        	ae_sp24f.l.i	aep3, a6, -4
    5277:	2221c2        	l32i	a12, a1, 136
    527a:	411c66        	bnei	a12, 1, 52bf <beam2_proc+0x34b>
    527d:	ce1fa2        	l16ui	a10, a15, 0x19c
    5280:	babc           	beqz.n	a10, 52bf <beam2_proc+0x34b>
    5282:	91d8           	l32i.n	a13, a1, 36
    5284:	7dbc           	beqz.n	a13, 52bf <beam2_proc+0x34b>
    5286:	cf1f82        	l16ui	a8, a15, 0x19e
    5289:	1a22e2        	l32i	a14, a2, 104
    528c:	118880        	slli	a8, a8, 8
    528f:	2cae87        	bge	a14, a8, 52bf <beam2_proc+0x34b>
    5292:	d09fb2        	l16si	a11, a15, 0x1a0
    5295:	2f9292        	l16si	a9, a2, 94
    5298:	2329b7        	blt	a9, a11, 52bf <beam2_proc+0x34b>
    529b:	7168           	l32i.n	a6, a1, 28
    529d:	8c0c           	movi.n	a12, 8
    529f:	11fac0        	slli	a15, a10, 4
    52a2:	eb94e1        	l32r	a14, f4 (800000 <_end+0x7f41c4>)
    52a5:	58c2d2        	addi	a13, a2, 88
    52a8:	502d84        	ae_lp24f.i	aep2, a13, -32
    52ab:	c0eef0        	sub	a14, a14, a15
    52ae:	399ee4        	ae_movpa24x2	aep1, a14, a14
    52b1:	0aac76        	loopgtz	a12, 52bf <beam2_proc+0x34b>
    52b4:	011a74        	ae_mulfp24s.ll	aeq1, aep1, aep2
    52b7:	fa6faea61f 	{ ae_lp24f.iu	aep2, a6, 4; ae_roundsp24q48asym	aep4, aeq1 }
    52bc:	5246f4        	ae_sp24f.l.i	aep4, a6, -4
    52bf:	f01d           	retw.n

000052c1 <beam2_proc+0x34d>:
    52c1:	8a2b           	addi.n	a8, a10, 2
    52c3:	f2d856        	bnez	a8, 51f4 <beam2_proc+0x280>
    52c6:	11a8           	l32i.n	a10, a1, 4
    52c8:	ffca86        	j	51f6 <beam2_proc+0x282>

000052cb <beam2_proc+0x357>:
    52cb:	c188           	l32i.n	a8, a1, 48
    52cd:	78c192        	addi	a9, a1, 120
    52d0:	da7c           	movi.n	a10, -3
    52d2:	112a87        	blt	a10, a8, 52e7 <beam2_proc+0x373>
    52d5:	a1a8           	l32i.n	a10, a1, 40
    52d7:	e1f9           	s32i.n	a15, a1, 56
    52d9:	f1e9           	s32i.n	a14, a1, 60
    52db:	1061d2        	s32i	a13, a1, 64
    52de:	1161c2        	s32i	a12, a1, 68
    52e1:	5609a4        	ae_sp24x2s.i	aep0, a9, -48
    52e4:	ff8286        	j	50f2 <beam2_proc+0x17e>

000052e7 <beam2_proc+0x373>:
    52e7:	a82b           	addi.n	a10, a8, 2
    52e9:	df3a56        	bnez	a10, 50e0 <beam2_proc+0x16c>
    52ec:	01a8           	l32i.n	a10, a1, 0
    52ee:	e1f9           	s32i.n	a15, a1, 56
    52f0:	f1e9           	s32i.n	a14, a1, 60
    52f2:	1061d2        	s32i	a13, a1, 64
    52f5:	1161c2        	s32i	a12, a1, 68
    52f8:	78c192        	addi	a9, a1, 120
    52fb:	5609a4        	ae_sp24x2s.i	aep0, a9, -48
    52fe:	ff7c06        	j	50f2 <beam2_proc+0x17e>

00005301 <beam2_proc+0x38d>:
    5301:	000000                                        ...

00005304 <beam1_mid_band>:
    5304:	006136        	entry	a1, 48
    5307:	1b0c           	movi.n	a11, 1
    5309:	03d2f2        	addmi	a15, a2, 0x300
    530c:	699232        	l16si	a3, a2, 210
    530f:	94cf42        	addi	a4, a15, -108
    5312:	fc24b64ffe 	{ l32i	a15, a15, 0x190; ae_zeroq56	aeq0 }
    5317:	3c13a6        	blti	a3, 1, 5357 <beam1_mid_band+0x53>
    531a:	a80c           	movi.n	a8, 10
    531c:	991c           	movi.n	a9, 25
    531e:	5a1c           	movi.n	a10, 21
    5320:	2c0c           	movi.n	a12, 2
    5322:	fd046d0f0f 	{ ae_lp16x2f.i	aep0, a15, 0; ae_movq56	aeq1, aeq0 }
    5327:	72cc30        	salt	a12, a12, a3
    532a:	93a9c0        	movnez	a10, a9, a12
    532d:	04a876        	loopgtz	a8, 5335 <beam1_mid_band+0x31>
    5330:	e2006d8f1f 	{ ae_lp16x2f.iu	aep0, a15, 4; ae_mulaafp24s.hh.ll	aeq1, aep0, aep0 }

00005335 <beam1_mid_band+0x31>:
    5335:	ec31c1        	l32r	a12, 3fc (800 <comfort_noise_gen_wb+0x28>)
    5338:	401a00        	ssl	a10
    533b:	3550b4        	ae_sraiq56	aeq1, aeq1, 2
    533e:	061934        	ae_roundsq32asym	aeq0, aeq1
    5341:	368904        	ae_trunca32q48	a9, aeq0
    5344:	ebc181        	l32r	a8, 248 (80b8 <airoha_divide>)
    5347:	a1ab00        	sll	a10, a11
    534a:	53b9c0        	max	a11, a9, a12
    534d:	0008e0        	callx8	a8
    5350:	0a1084        	ae_zeroq56	aeq0
    5353:	000006        	j	5357 <beam1_mid_band+0x53>

00005356 <beam1_mid_band+0x52>:
	...

00005357 <beam1_mid_band+0x53>:
    5357:	a50c           	movi.n	a5, 10
    5359:	7e2462        	l32i	a6, a4, 0x1f8
    535c:	7f24f2        	l32i	a15, a4, 0x1fc
    535f:	05d2e2        	addmi	a14, a2, 0x500
    5362:	03d2c2        	addmi	a12, a2, 0x300
    5365:	98ccd2        	addi	a13, a12, -104
    5368:	0e9d           	mov.n	a9, a14
    536a:	652cc2        	l32i	a12, a12, 0x194
    536d:	21d9           	s32i.n	a13, a1, 8
    536f:	c0c992        	addi	a9, a9, -64
    5372:	0199           	s32i.n	a9, a1, 0
    5374:	f3f790        	wur.ae_cend0	a9
    5377:	fccff2        	addi	a15, a15, -4
    537a:	4d0c           	movi.n	a13, 4
    537c:	fcc672        	addi	a7, a6, -4
    537f:	a0ce42        	addi	a4, a14, -96
    5382:	fec662        	addi	a6, a6, -2
    5385:	f3f640        	wur.ae_cbegin0	a4
    5388:	98cee2        	addi	a14, a14, -104
    538b:	040c           	movi.n	a4, 0
    538d:	444e04        	ae_lp16x2f.i	aep4, a14, 0
    5390:	fd841411ef 	{ s32i.n	a14, a1, 4; ae_cvtq48p24s.h	aeq1, aep4 }
    5395:	fe8c0008ef 	{ movi	a14, 8; ae_cvtq48p24s.l	aeq2, aep4 }

0000539a <beam1_mid_band+0x96>:
    539a:	448f14        	ae_lp16x2f.iu	aep0, a15, 4
    539d:	fc24e40cdf 	{ ae_sp16x2f.c	aep0, a12, a13; nop }
    53a2:	440904        	ae_lp16x2f.i	aep0, a9, 0
    53a5:	0cae76        	loopgtz	a14, 53b5 <beam1_mid_band+0xb1>
    53a8:	fc24da9cdf 	{ ae_lp16x2f.c	aep1, a12, a13; nop }
    53ad:	0509c4        	ae_mulssfp24s.hh.ll	aeq1, aep0, aep1
    53b0:	ef202d891f 	{ ae_lp16x2f.iu	aep0, a9, 4; ae_mulsafp24s.hl.lh	aeq2, aep0, aep1 }

000053b5 <beam1_mid_band+0xb1>:
    53b5:	550b           	addi.n	a5, a5, -1
    53b7:	e0c992        	addi	a9, a9, -32
    53ba:	f86bedc71f 	{ ae_lp16x2f.iu	aep4, a7, 4; ae_roundsp16q48asym	aep1, aeq1 }
    53bf:	f873b2961f 	{ ae_sp16f.l.iu	aep1, a6, 2; ae_roundsp16q48asym	aep0, aeq2 }
    53c4:	428614        	ae_sp16f.l.iu	aep0, a6, 2
    53c7:	4513a6        	blti	a3, 1, 5410 <beam1_mid_band+0x10c>
    53ca:	42e407        	bbsi	a4, 0, 5410 <beam1_mid_band+0x10c>
    53cd:	364b34        	ae_cvtq48a32s	aeq1, a11
    53d0:	039254        	ae_mulfq32sp16s.l	aeq2, aeq1, aep1
    53d3:	030a54        	ae_mulfq32sp16s.l	aeq1, aeq1, aep0
    53d6:	fc24feaa8f 	{ ae_slaasq56s	aeq2, aeq2, a10; nop }
    53db:	fc24fe9acf 	{ ae_slaasq56s	aeq3, aeq1, a10; nop }
    53e0:	fa7fcfe9ee 	{ addi	a14, a9, -2; ae_roundsp24q48asym	aep5, aeq3 }
    53e5:	f977c0088f 	{ movi	a8, 8; ae_roundsp24q48asym	aep3, aeq2 }
    53ea:	ddaced090f 	{ ae_lp16x2f.i	aep0, a9, 0; ae_selp24.hl	aep3, aep3, aep5 }
    53ef:	1aa876        	loopgtz	a8, 540d <beam1_mid_band+0x109>
    53f2:	0a8084        	ae_cvtq48p24s.l	aeq2, aep0

000053f5 <beam1_mid_band+0xf1>:
    53f5:	ff041a8cdf 	{ ae_lp16x2f.c	aep0, a12, a13; ae_cvtq48p24s.h	aeq3, aep0 }
    53fa:	05b804        	ae_mulaafp24s.hh.ll	aeq3, aep3, aep0
    53fd:	05b054        	ae_mulasfp24s.hl.lh	aeq2, aep3, aep0
    5400:	fb7bed891f 	{ ae_lp16x2f.iu	aep0, a9, 4; ae_roundsp16q48asym	aep7, aeq3 }
    5405:	fb73b2fe1f 	{ ae_sp16f.l.iu	aep7, a14, 2; ae_roundsp16q48asym	aep6, aeq2 }
    540a:	42ee14        	ae_sp16f.l.iu	aep6, a14, 2

0000540d <beam1_mid_band+0x109>:
    540d:	e0c992        	addi	a9, a9, -32
    5410:	fd8400144e 	{ addi	a4, a4, 1; ae_cvtq48p24s.h	aeq1, aep4 }
    5415:	fe8c0008ef 	{ movi	a14, 8; ae_cvtq48p24s.l	aeq2, aep4 }
    541a:	f7c556        	bnez	a5, 539a <beam1_mid_band+0x96>
    541d:	21d8           	l32i.n	a13, a1, 8
    541f:	11b8           	l32i.n	a11, a1, 4
    5421:	8a0c           	movi.n	a10, 8
    5423:	7f6dc2        	s32i	a12, a13, 0x1fc
    5426:	464b04        	ae_sp16x2f.i	aep4, a11, 0
    5429:	fd046d090f 	{ ae_lp16x2f.i	aep0, a9, 0; ae_movq56	aeq1, aeq0 }
    542e:	04aa76        	loopgtz	a10, 5436 <beam1_mid_band+0x132>

00005431 <beam1_mid_band+0x12d>:
    5431:	e2006d891f 	{ ae_lp16x2f.iu	aep0, a9, 4; ae_mulaafp24s.hh.ll	aeq1, aep0, aep0 }

00005436 <beam1_mid_band+0x132>:
    5436:	2188           	l32i.n	a8, a1, 8
    5438:	3510b4        	ae_sraiq56	aeq0, aeq1, 2
    543b:	f863e062ee 	{ l16si	a14, a2, 12; ae_roundsp16q48asym	aep1, aeq0 }
    5440:	361f24        	ae_trunca16p24s.l	a15, aep1
    5443:	02d882        	addmi	a8, a8, 0x200
    5446:	0258f2        	s16i	a15, a8, 4
    5449:	8ffd           	ae_sext16	a15, a15
    544b:	20aef7        	bge	a14, a15, 546f <beam1_mid_band+0x16b>
    544e:	0198           	l32i.n	a9, a1, 0
    5450:	0a1c           	movi.n	a10, 16
    5452:	05d2b2        	addmi	a11, a2, 0x500
    5455:	ebe0c1        	l32r	a12, 3d8 (7efa <ifft_wo+0x2>)
    5458:	302cc4        	ae_cvtp24a16x2.ll	aep2, a12, a12
    545b:	d0cbb2        	addi	a11, a11, -48
    545e:	400b84        	ae_lp16f.i	aep0, a11, -16
    5461:	0aaa76        	loopgtz	a10, 546f <beam1_mid_band+0x16b>
    5464:	012874        	ae_mulfp24s.ll	aeq1, aep2, aep0
    5467:	f96bec891f 	{ ae_lp16f.iu	aep0, a9, 2; ae_roundsp16q48asym	aep3, aeq1 }
    546c:	4239f4        	ae_sp16f.l.i	aep3, a9, -2

0000546f <beam1_mid_band+0x16b>:
    546f:	f01d           	retw.n

00005471 <beam1_mid_band+0x16d>:
    5471:	000000                                        ...

00005474 <beam2_mid_band>:
    5474:	00e136        	entry	a1, 112
    5477:	02ed           	mov.n	a14, a2
    5479:	03d282        	addmi	a8, a2, 0x300
    547c:	6992b2        	l16si	a11, a2, 210
    547f:	a1b9           	s32i.n	a11, a1, 40
    5481:	f0c8a2        	addi	a10, a8, -16
    5484:	f49892        	l16si	a9, a8, 0x1e8
    5487:	7b2882        	l32i	a8, a8, 0x1ec
    548a:	c1a9           	s32i.n	a10, a1, 48
    548c:	119910        	slli	a9, a9, 15
    548f:	06a897        	bge	a8, a9, 5499 <beam2_mid_band+0x25>
    5492:	6b1c           	movi.n	a11, 22
    5494:	91b9           	s32i.n	a11, a1, 36
    5496:	0000c6        	j	549d <beam2_mid_band+0x29>

00005499 <beam2_mid_band+0x25>:
    5499:	8c1c           	movi.n	a12, 24
    549b:	91c9           	s32i.n	a12, a1, 36

0000549d <beam2_mid_band+0x29>:
    549d:	a1f8           	l32i.n	a15, a1, 40
    549f:	c138           	l32i.n	a3, a1, 48
    54a1:	05de42        	addmi	a4, a14, 0x500
    54a4:	03ded2        	addmi	a13, a14, 0x300
    54a7:	622d72        	l32i	a7, a13, 0x188
    54aa:	642dc2        	l32i	a12, a13, 0x190
    54ad:	18c482        	addi	a8, a4, 24
    54b0:	f3f680        	wur.ae_cbegin0	a8
    54b3:	7c2332        	l32i	a3, a3, 0x1f0
    54b6:	632dd2        	l32i	a13, a13, 0x18c
    54b9:	048d           	mov.n	a8, a4
    54bb:	fcccc2        	addi	a12, a12, -4
    54be:	fcc772        	addi	a7, a7, -4
    54c1:	448894        	ae_lp16x2f.iu	aep0, a8, -28
    54c4:	38c442        	addi	a4, a4, 56
    54c7:	6149           	s32i.n	a4, a1, 24
    54c9:	f3f740        	wur.ae_cend0	a4
    54cc:	4189           	s32i.n	a8, a1, 16
    54ce:	fccdd2        	addi	a13, a13, -4
    54d1:	041fe6        	bgei	a15, 1, 54d9 <beam2_mid_band+0x65>
    54d4:	6c9ef2        	l16si	a15, a14, 216
    54d7:	5fcc           	bnez.n	a15, 54e0 <beam2_mid_band+0x6c>

000054d9 <beam2_mid_band+0x65>:
    54d9:	080c           	movi.n	a8, 0
    54db:	b189           	s32i.n	a8, a1, 44
    54dd:	0000c6        	j	54e4 <beam2_mid_band+0x70>

000054e0 <beam2_mid_band+0x6c>:
    54e0:	190c           	movi.n	a9, 1
    54e2:	b199           	s32i.n	a9, a1, 44

000054e4 <beam2_mid_band+0x70>:
    54e4:	a20c           	movi.n	a2, 10
    54e6:	04def2        	addmi	a15, a14, 0x400
    54e9:	9158           	l32i.n	a5, a1, 36
    54eb:	5ccff2        	addi	a15, a15, 92
    54ee:	71f9           	s32i.n	a15, a1, 28
    54f0:	8f0c           	movi.n	a15, 8
    54f2:	f8c582        	addi	a8, a5, -8
    54f5:	fac562        	addi	a6, a5, -6
    54f8:	fcc5a2        	addi	a10, a5, -4
    54fb:	fec592        	addi	a9, a5, -2
    54fe:	0199           	s32i.n	a9, a1, 0
    5500:	21a9           	s32i.n	a10, a1, 8
    5502:	1169           	s32i.n	a6, a1, 4
    5504:	036182        	s32i	a8, a1, 12
    5507:	00a062        	movi	a6, 0
    550a:	05de82        	addmi	a8, a14, 0x500
    550d:	f0c882        	addi	a8, a8, -16
    5510:	086182        	s32i	a8, a1, 32
    5513:	fbc552        	addi	a5, a5, -5
    5516:	fd2494515f 	{ s32i.n	a5, a1, 20; ae_zeroq56	aeq1 }
    551b:	fc0c40045f 	{ movi	a5, 4; ae_movq56	aeq0, aeq1 }

00005520 <beam2_mid_band+0xac>:
    5520:	44ad14        	ae_lp16x2f.iu	aep2, a13, 4
    5523:	fc24e4235f 	{ ae_sp16x2f.c	aep2, a3, a5; nop }
    5528:	f102ad140f 	{ ae_lp16x2f.i	aep1, a4, 0; ae_mulzaafp24s.hh.ll	aeq2, aep0, aep0 }
    552d:	0caf76        	loopgtz	a15, 553d <beam2_mid_band+0xc9>
    5530:	fc24daa35f 	{ ae_lp16x2f.c	aep2, a3, a5; nop }
    5535:	051204        	ae_mulaafp24s.hh.ll	aeq0, aep1, aep2
    5538:	ea446d941f 	{ ae_lp16x2f.iu	aep1, a4, 4; ae_mulasfp24s.hl.lh	aeq1, aep1, aep2 }

0000553d <beam2_mid_band+0xc9>:
    553d:	1b9d44        	ae_roundsp24q48asym	aep4, aeq1
    5540:	1b8d14        	ae_roundsp24q48asym	aep1, aeq0
    5543:	1a9414        	ae_selp24.ll	aep1, aep1, aep4
    5546:	0781c4        	ae_subsp24s	aep4, aep0, aep1
    5549:	07c184        	ae_subsp24s	aep0, aep4, aep1
    554c:	090194        	ae_roundsp16asym	aep1, aep0
    554f:	049904        	ae_mulzaafp24s.hh.ll	aeq3, aep1, aep1
    5552:	b188           	l32i.n	a8, a1, 44
    5554:	d6d80e044e 	{ addi	a4, a4, -32; ae_ltq56s	b0, aeq2, aeq3 }
    5559:	1f0c           	movi.n	a15, 1
    555b:	448c14        	ae_lp16x2f.iu	aep0, a12, 4
    555e:	090076        	bf	b0, 556b <beam2_mid_band+0xf7>
    5561:	094494        	ae_movp48	aep1, aep4
    5564:	000146        	j	556d <beam2_mid_band+0xf9>

00005567 <beam2_mid_band+0xf3>:
    5567:	00000000                                ....

0000556b <beam2_mid_band+0xf7>:
    556b:	0f0c           	movi.n	a15, 0

0000556d <beam2_mid_band+0xf9>:
    556d:	0911d4        	ae_roundsp16asym	aep5, aep1
    5570:	46d714        	ae_sp16x2f.iu	aep5, a7, 4
    5573:	0db816        	beqz	a8, 5652 <beam2_mid_band+0x1de>
    5576:	468c           	beqz.n	a6, 557e <beam2_mid_band+0x10a>
    5578:	025626        	beqi	a6, 5, 557e <beam2_mid_band+0x10a>
    557b:	002346        	j	560c <beam2_mid_band+0x198>

0000557e <beam2_mid_band+0x10a>:
    557e:	4a0c           	movi.n	a10, 4
    5580:	fc2480049f 	{ movi	a9, 4; ae_zeroq56	aeq0 }
    5585:	04a976        	loopgtz	a9, 558d <beam2_mid_band+0x119>
    5588:	fc24daa35f 	{ ae_lp16x2f.c	aep2, a3, a5; nop }

0000558d <beam2_mid_band+0x119>:
    558d:	d1e9           	s32i.n	a14, a1, 52
    558f:	0e61d2        	s32i	a13, a1, 56
    5592:	0f61c2        	s32i	a12, a1, 60
    5595:	04aa76        	loopgtz	a10, 559d <beam2_mid_band+0x129>

00005598 <beam2_mid_band+0x124>:
    5598:	e2481aa35f 	{ ae_lp16x2f.c	aep2, a3, a5; ae_mulaafp24s.hh.ll	aeq0, aep2, aep2 }

0000559d <beam2_mid_band+0x129>:
    559d:	e2483081ae 	{ l32i	a10, a1, 32; ae_mulaafp24s.hh.ll	aeq0, aep2, aep2 }
    55a2:	c198           	l32i.n	a9, a1, 48
    55a4:	3540b4        	ae_sraiq56	aeq1, aeq0, 2
    55a7:	ff2c7d4a0f 	{ ae_lq32f.i	aeq2, a10, 0; ae_roundsq32asym	aeq3, aeq1 }
    55ac:	fa7639ba0f 	{ ae_sq32f.i	aeq3, a10, 0; ae_addq56	aeq2, aeq2, aeq1 }
    55b1:	fd34666e8e 	{ l16si	a8, a14, 204; ae_roundsq32asym	aeq1, aeq2 }
    55b6:	369b04        	ae_trunca32q48	a11, aeq1
    55b9:	8169b2        	s32i	a11, a9, 0x204
    55bc:	0218e6        	bgei	a8, 1, 55c2 <beam2_mid_band+0x14e>
    55bf:	007406        	j	5793 <beam2_mid_band+0x31f>
    55c2:	ffa782        	movi	a8, 0x7ff
    55c5:	02a8b7        	bge	a8, a11, 55cb <beam2_mid_band+0x157>
    55c8:	005186        	j	5712 <beam2_mid_band+0x29e>
    55cb:	7188           	l32i.n	a8, a1, 28
    55cd:	91a8           	l32i.n	a10, a1, 36
    55cf:	7f1882        	l16ui	a8, a8, 254
    55d2:	c0aa80        	sub	a10, a10, a8
    55d5:	080c           	movi.n	a8, 0
    55d7:	fccaa2        	addi	a10, a10, -4
    55da:	53aa80        	max	a10, a10, a8

000055dd <beam2_mid_band+0x169>:
    55dd:	78c192        	addi	a9, a1, 120
    55e0:	560994        	ae_sp24x2s.i	aep0, a9, -56
    55e3:	0b1fa6        	blti	a15, 1, 55f2 <beam2_mid_band+0x17e>
    55e6:	fecaa2        	addi	a10, a10, -2
    55e9:	d1e9           	s32i.n	a14, a1, 52
    55eb:	e1d9           	s32i.n	a13, a1, 56
    55ed:	f1c9           	s32i.n	a12, a1, 60
    55ef:	560994        	ae_sp24x2s.i	aep0, a9, -56

000055f2 <beam2_mid_band+0x17e>:
    55f2:	401a00        	ssl	a10
    55f5:	eb1481        	l32r	a8, 248 (80b8 <airoha_divide>)
    55f8:	1a0c           	movi.n	a10, 1
    55fa:	a1aa00        	sll	a10, a10
    55fd:	0008e0        	callx8	a8
    5600:	e1d8           	l32i.n	a13, a1, 56
    5602:	d1e8           	l32i.n	a14, a1, 52
    5604:	78c1c2        	addi	a12, a1, 120
    5607:	540c94        	ae_lp24x2.i	aep0, a12, -56
    560a:	f1c8           	l32i.n	a12, a1, 60

0000560c <beam2_mid_band+0x198>:
    560c:	446704        	ae_lp16x2f.i	aep6, a7, 0
    560f:	360b34        	ae_cvtq48a32s	aeq0, a11
    5612:	036a04        	ae_mulfq32sp16s.h	aeq1, aeq0, aep6
    5615:	036214        	ae_mulfq32sp16s.l	aeq0, aeq0, aep6
    5618:	fc24fe9a8f 	{ ae_slaasq56s	aeq2, aeq1, a10; nop }
    561d:	fc24fe8acf 	{ ae_slaasq56s	aeq3, aeq0, a10; nop }
    5622:	fa7fed140f 	{ ae_lp16x2f.i	aep1, a4, 0; ae_roundsp24q48asym	aep5, aeq3 }
    5627:	fa778fe49e 	{ addi	a9, a4, -2; ae_roundsp24q48asym	aep4, aeq2 }
    562c:	deb08008ff 	{ movi	a15, 8; ae_selp24.hl	aep4, aep4, aep5 }
    5631:	1aaf76        	loopgtz	a15, 564f <beam2_mid_band+0x1db>
    5634:	0a4184        	ae_cvtq48p24s.l	aeq1, aep1
    5637:	fe241ab35f 	{ ae_lp16x2f.c	aep3, a3, a5; ae_cvtq48p24s.h	aeq2, aep1 }
    563c:	05c304        	ae_mulaafp24s.hh.ll	aeq2, aep4, aep3
    563f:	054b54        	ae_mulasfp24s.hl.lh	aeq1, aep4, aep3
    5642:	f973ad941f 	{ ae_lp16x2f.iu	aep1, a4, 4; ae_roundsp16q48asym	aep2, aeq2 }
    5647:	fb6bf2a91f 	{ ae_sp16f.l.iu	aep2, a9, 2; ae_roundsp16q48asym	aep7, aeq1 }
    564c:	42f914        	ae_sp16f.l.iu	aep7, a9, 2

0000564f <beam2_mid_band+0x1db>:
    564f:	e0c442        	addi	a4, a4, -32

00005652 <beam2_mid_band+0x1de>:
    5652:	661b           	addi.n	a6, a6, 1
    5654:	fd248008ff 	{ movi	a15, 8; ae_zeroq56	aeq1 }
    5659:	fc0c4ff22e 	{ addi	a2, a2, -1; ae_movq56	aeq0, aeq1 }
    565e:	ebe256        	bnez	a2, 5520 <beam2_mid_band+0xac>
    5661:	4148           	l32i.n	a4, a1, 16
    5663:	0c2182        	l32i	a8, a1, 48
    5666:	05de22        	addmi	a2, a14, 0x500
    5669:	3cc222        	addi	a2, a2, 60
    566c:	7c6832        	s32i	a3, a8, 0x1f0
    566f:	460404        	ae_sp16x2f.i	aep0, a4, 0
    5672:	08a082        	movi	a8, 8
    5675:	062142        	l32i	a4, a1, 24
    5678:	fc24ad22ff 	{ ae_lp16x2f.i	aep2, a2, -4; ae_zeroq56	aeq0 }
    567d:	04a876        	loopgtz	a8, 5685 <beam2_mid_band+0x211>
    5680:	e2482da41f 	{ ae_lp16x2f.iu	aep2, a4, 4; ae_mulaafp24s.hh.ll	aeq0, aep2, aep2 }

00005685 <beam2_mid_band+0x211>:
    5685:	a1a8           	l32i.n	a10, a1, 40
    5687:	d97c           	movi.n	a9, -3
    5689:	35c0b4        	ae_sraiq56	aeq3, aeq0, 2
    568c:	05deb2        	addmi	a11, a14, 0x500
    568f:	fa7b8e8bbe 	{ addi	a11, a11, -24; ae_roundsp16q48asym	aep4, aeq3 }
    5694:	424b04        	ae_sp16f.l.i	aep4, a11, 0
    5697:	02a9a7        	bge	a9, a10, 569d <beam2_mid_band+0x229>
    569a:	002446        	j	572f <beam2_mid_band+0x2bb>
    569d:	669ec2        	l16si	a12, a14, 204
    56a0:	08bc56        	bnez	a12, 572f <beam2_mid_band+0x2bb>
    56a3:	c1a8           	l32i.n	a10, a1, 48
    56a5:	02dac2        	addmi	a12, a10, 0x200
    56a8:	069cd2        	l16si	a13, a12, 12
    56ab:	fc9ab2        	l16si	a11, a10, 0x1f8
    56ae:	822aa2        	l32i	a10, a10, 0x208
    56b1:	dd1b           	addi.n	a13, a13, 1
    56b3:	8ddd           	ae_sext16	a13, a13
    56b5:	065cd2        	s16i	a13, a12, 12
    56b8:	6ccda6        	blti	a13, 32, 5728 <beam2_mid_band+0x2b4>
    56bb:	c188           	l32i.n	a8, a1, 48
    56bd:	090c           	movi.n	a9, 0
    56bf:	065c92        	s16i	a9, a12, 12
    56c2:	8268b2        	s32i	a11, a8, 0x208
    56c5:	079c82        	l16si	a8, a12, 14
    56c8:	10caf2        	addi	a15, a10, 16
    56cb:	21f5f0        	srai	a15, a15, 5
    56ce:	9088e0        	addx2	a8, a8, a14
    56d1:	03d882        	addmi	a8, a8, 0x300
    56d4:	f0c882        	addi	a8, a8, -16
    56d7:	02d882        	addmi	a8, a8, 0x200
    56da:	0858f2        	s16i	a15, a8, 16
    56dd:	079cd2        	l16si	a13, a12, 14
    56e0:	dd1b           	addi.n	a13, a13, 1
    56e2:	8ddd           	ae_sext16	a13, a13
    56e4:	075cd2        	s16i	a13, a12, 14
    56e7:	04ada6        	blti	a13, 12, 56ef <beam2_mid_band+0x27b>
    56ea:	0a0c           	movi.n	a10, 0
    56ec:	075ca2        	s16i	a10, a12, 14

000056ef <beam2_mid_band+0x27b>:
    56ef:	eb3381        	l32r	a8, 3bc (43f4 <take_min_four>)
    56f2:	05dea2        	addmi	a10, a14, 0x500
    56f5:	cb0c           	movi.n	a11, 12
    56f7:	0008e0        	callx8	a8
    56fa:	0abd           	mov.n	a11, a10
    56fc:	c1a8           	l32i.n	a10, a1, 48
    56fe:	ea8281        	l32r	a8, 108 (43d4 <siir_safr>)
    5701:	eb37c1        	l32r	a12, 3e0 (b510 <immediate_num+0x20>)
    5704:	7f2aa2        	l32i	a10, a10, 0x1fc
    5707:	0008e0        	callx8	a8
    570a:	c1b8           	l32i.n	a11, a1, 48
    570c:	7f6ba2        	s32i	a10, a11, 0x1fc
    570f:	000706        	j	572f <beam2_mid_band+0x2bb>

00005712 <beam2_mid_band+0x29e>:
    5712:	a198           	l32i.n	a9, a1, 40
    5714:	51a8           	l32i.n	a10, a1, 20
    5716:	d87c           	movi.n	a8, -3
    5718:	022897        	blt	a8, a9, 571e <beam2_mid_band+0x2aa>
    571b:	ffaf86        	j	55dd <beam2_mid_band+0x169>

0000571e <beam2_mid_band+0x2aa>:
    571e:	e87c           	movi.n	a8, -2
    5720:	6a9987        	bne	a9, a8, 578e <beam2_mid_band+0x31a>
    5723:	11a8           	l32i.n	a10, a1, 4
    5725:	ffad06        	j	55dd <beam2_mid_band+0x169>

00005728 <beam2_mid_band+0x2b4>:
    5728:	c1c8           	l32i.n	a12, a1, 48
    572a:	9baa           	add.n	a9, a11, a10
    572c:	826c92        	s32i	a9, a12, 0x208
    572f:	c1e8           	l32i.n	a14, a1, 48
    5731:	eb0cd1        	l32r	a13, 364 (1000 <voiced_decision+0x48>)
    5734:	812ee2        	l32i	a14, a14, 0x204
    5737:	51ade7        	bge	a13, a14, 578c <beam2_mid_band+0x318>
    573a:	c188           	l32i.n	a8, a1, 48
    573c:	eb2da1        	l32r	a10, 3f0 (4a3d <cali_power+0x1d>)
    573f:	ea7491        	l32r	a9, 110 (4000 <find_phase+0x8>)
    5742:	3009a4        	ae_cvtp24a16x2.ll	aep0, a9, a10
    5745:	fc98f2        	l16si	a15, a8, 0x1f8
    5748:	7f2882        	l32i	a8, a8, 0x1fc
    574b:	364834        	ae_cvtq48a32s	aeq1, a8
    574e:	038244        	ae_mulfq32sp16s.h	aeq2, aeq1, aep0
    5751:	11ff10        	slli	a15, a15, 15
    5754:	360f34        	ae_cvtq48a32s	aeq0, a15
    5757:	098214        	ae_ltq56s	b1, aeq2, aeq0
    575a:	2e0176        	bf	b1, 578c <beam2_mid_band+0x318>
    575d:	038a54        	ae_mulfq32sp16s.l	aeq3, aeq1, aep0
    5760:	098324        	ae_ltq56s	b2, aeq3, aeq0
    5763:	0a0276        	bf	b2, 5771 <beam2_mid_band+0x2fd>
    5766:	c1b8           	l32i.n	a11, a1, 48
    5768:	fd9bb2        	l16si	a11, a11, 0x1fa
    576b:	302bb4        	ae_cvtp24a16x2.ll	aep2, a11, a11
    576e:	000146        	j	5777 <beam2_mid_band+0x303>

00005771 <beam2_mid_band+0x2fd>:
    5771:	eb21c1        	l32r	a12, 3f8 (7fae <ifft_wo+0xb6>)
    5774:	302cc4        	ae_cvtp24a16x2.ll	aep2, a12, a12

00005777 <beam2_mid_band+0x303>:
    5777:	6198           	l32i.n	a9, a1, 24
    5779:	4012e4        	ae_lp16f.i	aep1, a2, -4
    577c:	0d1c           	movi.n	a13, 16
    577e:	0aad76        	loopgtz	a13, 578c <beam2_mid_band+0x318>
    5781:	012174        	ae_mulfp24s.ll	aeq0, aep2, aep1
    5784:	fa63ec991f 	{ ae_lp16f.iu	aep1, a9, 2; ae_roundsp16q48asym	aep5, aeq0 }
    5789:	4259f4        	ae_sp16f.l.i	aep5, a9, -2
    578c:	f01d           	retw.n

0000578e <beam2_mid_band+0x31a>:
    578e:	31a8           	l32i.n	a10, a1, 12
    5790:	ff9246        	j	55dd <beam2_mid_band+0x169>

00005793 <beam2_mid_band+0x31f>:
    5793:	a198           	l32i.n	a9, a1, 40
    5795:	91a8           	l32i.n	a10, a1, 36
    5797:	d87c           	movi.n	a8, -3
    5799:	022897        	blt	a8, a9, 579f <beam2_mid_band+0x32b>
    579c:	ff8f46        	j	55dd <beam2_mid_band+0x169>

0000579f <beam2_mid_band+0x32b>:
    579f:	e87c           	movi.n	a8, -2
    57a1:	049987        	bne	a9, a8, 57a9 <beam2_mid_band+0x335>
    57a4:	01a8           	l32i.n	a10, a1, 0
    57a6:	ff8cc6        	j	55dd <beam2_mid_band+0x169>

000057a9 <beam2_mid_band+0x335>:
    57a9:	21a8           	l32i.n	a10, a1, 8
    57ab:	ff8b86        	j	55dd <beam2_mid_band+0x169>

000057ae <beam2_mid_band+0x33a>:
	...

000057b0 <TWO_MIC_CHKSUM>:
    57b0:	004136        	entry	a1, 32
    57b3:	026d           	mov.n	a6, a2
    57b5:	639c           	beqz.n	a3, 57cf <TWO_MIC_CHKSUM+0x1f>
    57b7:	00a022        	movi	a2, 0
    57ba:	00a052        	movi	a5, 0
    57bd:	0c9376        	loopnez	a3, 57cd <TWO_MIC_CHKSUM+0x1d>
    57c0:	904560        	addx2	a4, a5, a6
    57c3:	244d           	ae_l16si.n	a4, a4, 0
    57c5:	551b           	addi.n	a5, a5, 1
    57c7:	955d           	ae_zext16	a5, a5
    57c9:	242a           	add.n	a2, a4, a2
    57cb:	822d           	ae_sext16	a2, a2

000057cd <TWO_MIC_CHKSUM+0x1d>:
    57cd:	f01d           	retw.n

000057cf <TWO_MIC_CHKSUM+0x1f>:
    57cf:	020c           	movi.n	a2, 0
    57d1:	f01d           	retw.n

000057d3 <TWO_MIC_CHKSUM+0x23>:
	...

000057d4 <TWO_MIC_WB_Preload>:
    57d4:	004136        	entry	a1, 32
    57d7:	ea3361        	l32r	a6, a4 (be30 <p_ecnr_mem>)
    57da:	0b0c           	movi.n	a11, 0
    57dc:	0668           	l32i.n	a6, a6, 0
    57de:	2c3c           	movi.n	a12, 50
    57e0:	ea3981        	l32r	a8, c4 (9228 <xt_memset>)
    57e3:	71d6a2        	addmi	a10, a6, 0x7100
    57e6:	3ad652        	addmi	a5, a6, 0x3a00
    57e9:	38d632        	addmi	a3, a6, 0x3800
    57ec:	3bd642        	addmi	a4, a6, 0x3b00
    57ef:	10c442        	addi	a4, a4, 16
    57f2:	d0c332        	addi	a3, a3, -48
    57f5:	d0c572        	addi	a7, a5, -48
    57f8:	80caa2        	addi	a10, a10, -128
    57fb:	70c552        	addi	a5, a5, 112
    57fe:	3cd662        	addmi	a6, a6, 0x3c00
    5801:	b0c662        	addi	a6, a6, -80
    5804:	0008e0        	callx8	a8
    5807:	ea3081        	l32r	a8, c8 (be38 <aec_nr_para>)
    580a:	0888           	l32i.n	a8, a8, 0
    580c:	049882        	l16si	a8, a8, 8
    580f:	eafca1        	l32r	a10, 400 (55aa <beam2_mid_band+0x136>)
    5812:	07b8d6        	bgez	a8, 5891 <TWO_MIC_WB_Preload+0xbd>
    5815:	229d           	ae_l16si.n	a9, a2, 0
    5817:	7699a7        	bne	a9, a10, 5891 <TWO_MIC_WB_Preload+0xbd>
    581a:	a24b           	addi.n	a10, a2, 4
    581c:	0b3c           	movi.n	a11, 48
    581e:	fff925        	call8	57b0 <TWO_MIC_CHKSUM>
    5821:	32bd           	ae_l16si.n	a11, a2, 2
    5823:	6a9ba7        	bne	a11, a10, 5891 <TWO_MIC_WB_Preload+0xbd>
    5826:	28c7a2        	addi	a10, a7, 40
    5829:	14c2b2        	addi	a11, a2, 20
    582c:	8c0c           	movi.n	a12, 8
    582e:	ea2781        	l32r	a8, cc (9240 <xt_memcpy>)
    5831:	099292        	l16si	a9, a2, 18
    5834:	0892d2        	l16si	a13, a2, 16
    5837:	0292e2        	l16si	a14, a2, 4
    583a:	119900        	slli	a9, a9, 16
    583d:	11dd00        	slli	a13, a13, 16
    5840:	11ee00        	slli	a14, a14, 16
    5843:	d3e9           	s32i.n	a14, a3, 52
    5845:	3463d2        	s32i	a13, a3, 208
    5848:	336392        	s32i	a9, a3, 204
    584b:	0008e0        	callx8	a8
    584e:	38c6a2        	addi	a10, a6, 56
    5851:	ea1e81        	l32r	a8, cc (9240 <xt_memcpy>)
    5854:	24c2b2        	addi	a11, a2, 36
    5857:	0c1c           	movi.n	a12, 16
    5859:	0008e0        	callx8	a8
    585c:	28c5a2        	addi	a10, a5, 40
    585f:	ea1b81        	l32r	a8, cc (9240 <xt_memcpy>)
    5862:	44c2b2        	addi	a11, a2, 68
    5865:	8c0c           	movi.n	a12, 8
    5867:	0008e0        	callx8	a8
    586a:	eae651        	l32r	a5, 404 (7080 <two_mic_WB_NR_proc+0x60>)
    586d:	ea0d61        	l32r	a6, a4 (be30 <p_ecnr_mem>)
    5870:	28c4a2        	addi	a10, a4, 40
    5873:	ea1681        	l32r	a8, cc (9240 <xt_memcpy>)
    5876:	54c2b2        	addi	a11, a2, 84
    5879:	8c0c           	movi.n	a12, 8
    587b:	0008e0        	callx8	a8
    587e:	02bd           	mov.n	a11, a2
    5880:	2c3c           	movi.n	a12, 50
    5882:	06a8           	l32i.n	a10, a6, 0
    5884:	1d0c           	movi.n	a13, 1
    5886:	ea1181        	l32r	a8, cc (9240 <xt_memcpy>)
    5889:	1853d2        	s16i	a13, a3, 48
    588c:	aa5a           	add.n	a10, a10, a5
    588e:	0008e0        	callx8	a8
    5891:	f01d           	retw.n

00005893 <TWO_MIC_WB_Preload+0xbf>:
	...

00005894 <TWO_MIC_WB_Write_FLASH>:
    5894:	004136        	entry	a1, 32
    5897:	ea03b1        	l32r	a11, a4 (be30 <p_ecnr_mem>)
    589a:	0bb8           	l32i.n	a11, a11, 0
    589c:	3adba2        	addmi	a10, a11, 0x3a00
    589f:	3bdb32        	addmi	a3, a11, 0x3b00
    58a2:	19db92        	addmi	a9, a11, 0x1900
    58a5:	3cdb52        	addmi	a5, a11, 0x3c00
    58a8:	b0c552        	addi	a5, a5, -80
    58ab:	969982        	l16si	a8, a9, 0x12c
    58ae:	10c332        	addi	a3, a3, 16
    58b1:	70ca42        	addi	a4, a10, 112
    58b4:	fec882        	addi	a8, a8, -2
    58b7:	07e856        	bnez	a8, 5939 <TWO_MIC_WB_Write_FLASH+0xa5>
    58ba:	37dbd2        	addmi	a13, a11, 0x3700
    58bd:	809dc2        	l16si	a12, a13, 0x100
    58c0:	792c66        	bnei	a12, 2, 593d <TWO_MIC_WB_Write_FLASH+0xa9>
    58c3:	ea0281        	l32r	a8, cc (9240 <xt_memcpy>)
    58c6:	412de2        	l32i	a14, a13, 0x104
    58c9:	672db2        	l32i	a11, a13, 0x19c
    58cc:	682dc2        	l32i	a12, a13, 0x1a0
    58cf:	eacc91        	l32r	a9, 400 (55aa <beam2_mid_band+0x136>)
    58d2:	0f0c           	movi.n	a15, 0
    58d4:	0352f2        	s16i	a15, a2, 6
    58d7:	0452f2        	s16i	a15, a2, 8
    58da:	0552f2        	s16i	a15, a2, 10
    58dd:	0652f2        	s16i	a15, a2, 12
    58e0:	0752f2        	s16i	a15, a2, 14
    58e3:	629d           	ae_s16i.n	a9, a2, 0
    58e5:	31c0c0        	srai	a12, a12, 16
    58e8:	31b0b0        	srai	a11, a11, 16
    58eb:	31e0e0        	srai	a14, a14, 16
    58ee:	0252e2        	s16i	a14, a2, 4
    58f1:	0952b2        	s16i	a11, a2, 18
    58f4:	0852c2        	s16i	a12, a2, 16
    58f7:	f8cab2        	addi	a11, a10, -8
    58fa:	8c0c           	movi.n	a12, 8
    58fc:	14c2a2        	addi	a10, a2, 20
    58ff:	0008e0        	callx8	a8
    5902:	38c5b2        	addi	a11, a5, 56
    5905:	e9f181        	l32r	a8, cc (9240 <xt_memcpy>)
    5908:	24c2a2        	addi	a10, a2, 36
    590b:	0c1c           	movi.n	a12, 16
    590d:	0008e0        	callx8	a8
    5910:	28c4b2        	addi	a11, a4, 40
    5913:	e9ee81        	l32r	a8, cc (9240 <xt_memcpy>)
    5916:	44c2a2        	addi	a10, a2, 68
    5919:	8c0c           	movi.n	a12, 8
    591b:	0008e0        	callx8	a8
    591e:	28c3b2        	addi	a11, a3, 40
    5921:	e9ea81        	l32r	a8, cc (9240 <xt_memcpy>)
    5924:	54c2a2        	addi	a10, a2, 84
    5927:	8c0c           	movi.n	a12, 8
    5929:	0008e0        	callx8	a8
    592c:	a24b           	addi.n	a10, a2, 4
    592e:	0b3c           	movi.n	a11, 48
    5930:	ffe7e5        	call8	57b0 <TWO_MIC_CHKSUM>
    5933:	72ad           	ae_s16i.n	a10, a2, 2
    5935:	120c           	movi.n	a2, 1
    5937:	f01d           	retw.n

00005939 <TWO_MIC_WB_Write_FLASH+0xa5>:
    5939:	020c           	movi.n	a2, 0
    593b:	f01d           	retw.n

0000593d <TWO_MIC_WB_Write_FLASH+0xa9>:
    593d:	9b99a2        	l16si	a10, a9, 0x136
    5940:	012ad6        	bgez	a10, 5956 <TWO_MIC_WB_Write_FLASH+0xc2>
    5943:	0f1c66        	bnei	a12, 1, 5956 <TWO_MIC_WB_Write_FLASH+0xc2>
    5946:	02ad           	mov.n	a10, a2
    5948:	2c3c           	movi.n	a12, 50
    594a:	e9e081        	l32r	a8, cc (9240 <xt_memcpy>)
    594d:	71dbb2        	addmi	a11, a11, 0x7100
    5950:	80cbb2        	addi	a11, a11, -128
    5953:	0008e0        	callx8	a8
    5956:	020c           	movi.n	a2, 0
    5958:	f01d           	retw.n

0000595a <TWO_MIC_WB_Write_FLASH+0xc6>:
	...

0000595c <FLASH_REF_GAIN_Preload>:
    595c:	004136        	entry	a1, 32
    595f:	3dd242        	addmi	a4, a2, 0x3d00
    5962:	19d252        	addmi	a5, a2, 0x1900
    5965:	58c472        	addi	a7, a4, 88
    5968:	d60442        	l8ui	a4, a4, 214
    596b:	969582        	l16si	a8, a5, 0x12c
    596e:	34c552        	addi	a5, a5, 52
    5971:	144040        	extui	a4, a4, 0, 2
    5974:	072866        	bnei	a8, 2, 597f <FLASH_REF_GAIN_Preload+0x23>
    5977:	eaa481        	l32r	a8, 408 (57d4 <TWO_MIC_WB_Preload>)
    597a:	03ad           	mov.n	a10, a3
    597c:	0008e0        	callx8	a8

0000597f <FLASH_REF_GAIN_Preload+0x23>:
    597f:	0cd416        	beqz	a4, 5a50 <FLASH_REF_GAIN_Preload+0xf4>
    5982:	eaa261        	l32r	a6, 40c (7070 <two_mic_WB_NR_proc+0x50>)
    5985:	281466        	bnei	a4, 1, 59b1 <FLASH_REF_GAIN_Preload+0x55>
    5988:	eaa2a1        	l32r	a10, 410 (5a5a <CHK_REF_GAIN_CHANGE+0x6>)
    598b:	3c9392        	l16si	a9, a3, 120
    598e:	1f99a7        	bne	a9, a10, 59b1 <FLASH_REF_GAIN_Preload+0x55>
    5991:	8b0c           	movi.n	a11, 8
    5993:	7cc342        	addi	a4, a3, 124
    5996:	04ad           	mov.n	a10, a4
    5998:	ffe165        	call8	57b0 <TWO_MIC_CHKSUM>
    599b:	3d93b2        	l16si	a11, a3, 122
    599e:	0f9ba7        	bne	a11, a10, 59b1 <FLASH_REF_GAIN_Preload+0x55>
    59a1:	04bd           	mov.n	a11, a4
    59a3:	e9ca81        	l32r	a8, cc (9240 <xt_memcpy>)
    59a6:	a26a           	add.n	a10, a2, a6
    59a8:	8c0c           	movi.n	a12, 8
    59aa:	0008e0        	callx8	a8
    59ad:	000a86        	j	59db <FLASH_REF_GAIN_Preload+0x7f>

000059b0 <FLASH_REF_GAIN_Preload+0x54>:
	...

000059b1 <FLASH_REF_GAIN_Preload+0x55>:
    59b1:	8195a2        	l16si	a10, a5, 0x102
    59b4:	7f0792        	l8ui	a9, a7, 127
    59b7:	8b0c           	movi.n	a11, 8
    59b9:	086a37        	bbci	a10, 3, 59c5 <FLASH_REF_GAIN_Preload+0x69>
    59bc:	11a980        	slli	a10, a9, 8
    59bf:	10daa2        	addmi	a10, a10, 0x1000
    59c2:	000206        	j	59ce <FLASH_REF_GAIN_Preload+0x72>

000059c5 <FLASH_REF_GAIN_Preload+0x69>:
    59c5:	a0a990        	addx4	a10, a9, a9
    59c8:	11aab0        	slli	a10, a10, 5
    59cb:	0adaa2        	addmi	a10, a10, 0xa00

000059ce <FLASH_REF_GAIN_Preload+0x72>:
    59ce:	926a           	add.n	a9, a2, a6
    59d0:	aa8b           	addi.n	a10, a10, 8
    59d2:	21a4a0        	srai	a10, a10, 4
    59d5:	02ab76        	loopgtz	a11, 59db <FLASH_REF_GAIN_Preload+0x7f>
    59d8:	09c9a4        	ae_s16ip	a10, a9, 2

000059db <FLASH_REF_GAIN_Preload+0x7f>:
    59db:	6fd2b2        	addmi	a11, a2, 0x6f00
    59de:	b89b92        	l16si	a9, a11, 0x170
    59e1:	3bd2f2        	addmi	a15, a2, 0x3b00
    59e4:	119900        	slli	a9, a9, 16
    59e7:	796f92        	s32i	a9, a15, 0x1e4
    59ea:	786f92        	s32i	a9, a15, 0x1e0
    59ed:	b99b82        	l16si	a8, a11, 0x172
    59f0:	118800        	slli	a8, a8, 16
    59f3:	896f82        	s32i	a8, a15, 0x224
    59f6:	886f82        	s32i	a8, a15, 0x220
    59f9:	ba9be2        	l16si	a14, a11, 0x174
    59fc:	11ee00        	slli	a14, a14, 16
    59ff:	996fe2        	s32i	a14, a15, 0x264
    5a02:	986fe2        	s32i	a14, a15, 0x260
    5a05:	bb9bd2        	l16si	a13, a11, 0x176
    5a08:	7c95c2        	l16si	a12, a5, 248
    5a0b:	3cd2e2        	addmi	a14, a2, 0x3c00
    5a0e:	11dd00        	slli	a13, a13, 16
    5a11:	696ed2        	s32i	a13, a14, 0x1a4
    5a14:	686ed2        	s32i	a13, a14, 0x1a0
    5a17:	352c66        	bnei	a12, 2, 5a50 <FLASH_REF_GAIN_Preload+0xf4>
    5a1a:	bc9bf2        	l16si	a15, a11, 0x178
    5a1d:	37d2c2        	addmi	a12, a2, 0x3700
    5a20:	11ff00        	slli	a15, a15, 16
    5a23:	796cf2        	s32i	a15, a12, 0x1e4
    5a26:	786cf2        	s32i	a15, a12, 0x1e0
    5a29:	bd9be2        	l16si	a14, a11, 0x17a
    5a2c:	38d2f2        	addmi	a15, a2, 0x3800
    5a2f:	11ee00        	slli	a14, a14, 16
    5a32:	696fe2        	s32i	a14, a15, 0x1a4
    5a35:	686fe2        	s32i	a14, a15, 0x1a0
    5a38:	be9bd2        	l16si	a13, a11, 0x17c
    5a3b:	11dd00        	slli	a13, a13, 16
    5a3e:	896cd2        	s32i	a13, a12, 0x224
    5a41:	886cd2        	s32i	a13, a12, 0x220
    5a44:	bf9ba2        	l16si	a10, a11, 0x17e
    5a47:	11aa00        	slli	a10, a10, 16
    5a4a:	996ca2        	s32i	a10, a12, 0x264
    5a4d:	986ca2        	s32i	a10, a12, 0x260
    5a50:	f01d           	retw.n

00005a52 <FLASH_REF_GAIN_Preload+0xf6>:
	...

00005a54 <CHK_REF_GAIN_CHANGE>:
    5a54:	004136        	entry	a1, 32
    5a57:	070c           	movi.n	a7, 0
    5a59:	090c           	movi.n	a9, 0
    5a5b:	581c           	movi.n	a8, 21
    5a5d:	440c           	movi.n	a4, 4
    5a5f:	1da476        	loopgtz	a4, 5a80 <CHK_REF_GAIN_CHANGE+0x2c>
    5a62:	236d           	ae_l16si.n	a6, a3, 0
    5a64:	22ad           	ae_l16si.n	a10, a2, 0
    5a66:	332b           	addi.n	a3, a3, 2
    5a68:	40e650        	nsa	a5, a6
    5a6b:	c05850        	sub	a5, a8, a5
    5a6e:	c0aa60        	sub	a10, a10, a6
    5a71:	60a1a0        	abs	a10, a10
    5a74:	535590        	max	a5, a5, a9
    5a77:	03a5a7        	bge	a5, a10, 5a7e <CHK_REF_GAIN_CHANGE+0x2a>
    5a7a:	626d           	ae_s16i.n	a6, a2, 0
    5a7c:	170c           	movi.n	a7, 1

00005a7e <CHK_REF_GAIN_CHANGE+0x2a>:
    5a7e:	222b           	addi.n	a2, a2, 2

00005a80 <CHK_REF_GAIN_CHANGE+0x2c>:
    5a80:	072d           	mov.n	a2, a7
    5a82:	f01d           	retw.n

00005a84 <AEC_NR_Write_FLASH>:
    5a84:	006136        	entry	a1, 48
    5a87:	029d           	mov.n	a9, a2
    5a89:	fa7c           	movi.n	a10, -1
    5a8b:	085c           	movi.n	a8, 80
    5a8d:	02a876        	loopgtz	a8, 5a93 <AEC_NR_Write_FLASH+0xf>
    5a90:	09c9a4        	ae_s16ip	a10, a9, 2

00005a93 <AEC_NR_Write_FLASH+0xf>:
    5a93:	ea6081        	l32r	a8, 414 (5894 <TWO_MIC_WB_Write_FLASH>)
    5a96:	02ad           	mov.n	a10, a2
    5a98:	0008e0        	callx8	a8
    5a9b:	e98261        	l32r	a6, a4 (be30 <p_ecnr_mem>)
    5a9e:	0638           	l32i.n	a3, a6, 0
    5aa0:	0a5d           	mov.n	a5, a10
    5aa2:	3dd332        	addmi	a3, a3, 0x3d00
    5aa5:	d60332        	l8ui	a3, a3, 214
    5aa8:	040c           	movi.n	a4, 0
    5aaa:	390c           	movi.n	a9, 3
    5aac:	360937        	bnone	a9, a3, 5ae6 <AEC_NR_Write_FLASH+0x62>
    5aaf:	ea5a81        	l32r	a8, 418 (3f24 <EC_REF_GAIN_READBACK>)
    5ab2:	01ad           	mov.n	a10, a1
    5ab4:	0008e0        	callx8	a8
    5ab7:	35e327        	bbsi	a3, 2, 5af0 <AEC_NR_Write_FLASH+0x6c>
    5aba:	06a8           	l32i.n	a10, a6, 0
    5abc:	01bd           	mov.n	a11, a1
    5abe:	70daa2        	addmi	a10, a10, 0x7000
    5ac1:	70caa2        	addi	a10, a10, 112
    5ac4:	fff8e5        	call8	5a54 <CHK_REF_GAIN_CHANGE>
    5ac7:	06b8           	l32i.n	a11, a6, 0
    5ac9:	1adbc2        	addmi	a12, a11, 0x1a00
    5acc:	169cc2        	l16si	a12, a12, 44
    5acf:	0a4d           	mov.n	a4, a10
    5ad1:	030c           	movi.n	a3, 0
    5ad3:	472c66        	bnei	a12, 2, 5b1e <AEC_NR_Write_FLASH+0x9a>
    5ad6:	70dba2        	addmi	a10, a11, 0x7000
    5ad9:	78caa2        	addi	a10, a10, 120
    5adc:	b18b           	addi.n	a11, a1, 8
    5ade:	fff765        	call8	5a54 <CHK_REF_GAIN_CHANGE>
    5ae1:	0a3d           	mov.n	a3, a10
    5ae3:	000346        	j	5af4 <AEC_NR_Write_FLASH+0x70>

00005ae6 <AEC_NR_Write_FLASH+0x62>:
    5ae6:	030c           	movi.n	a3, 0

00005ae8 <AEC_NR_Write_FLASH+0x64>:
    5ae8:	202530        	or	a2, a5, a3
    5aeb:	202420        	or	a2, a4, a2
    5aee:	f01d           	retw.n

00005af0 <AEC_NR_Write_FLASH+0x6c>:
    5af0:	040c           	movi.n	a4, 0
    5af2:	030c           	movi.n	a3, 0

00005af4 <AEC_NR_Write_FLASH+0x70>:
    5af4:	78c272        	addi	a7, a2, 120
    5af7:	8c0c           	movi.n	a12, 8
    5af9:	e97481        	l32r	a8, cc (9240 <xt_memcpy>)
    5afc:	06b8           	l32i.n	a11, a6, 0
    5afe:	ea44e1        	l32r	a14, 410 (5a5a <CHK_REF_GAIN_CHANGE+0x6>)
    5b01:	3c52e2        	s16i	a14, a2, 120
    5b04:	7cc262        	addi	a6, a2, 124
    5b07:	06ad           	mov.n	a10, a6
    5b09:	70dbb2        	addmi	a11, a11, 0x7000
    5b0c:	70cbb2        	addi	a11, a11, 112
    5b0f:	0008e0        	callx8	a8
    5b12:	06ad           	mov.n	a10, a6
    5b14:	8b0c           	movi.n	a11, 8
    5b16:	ffc9a5        	call8	57b0 <TWO_MIC_CHKSUM>
    5b19:	77ad           	ae_s16i.n	a10, a7, 2
    5b1b:	fff246        	j	5ae8 <AEC_NR_Write_FLASH+0x64>

00005b1e <AEC_NR_Write_FLASH+0x9a>:
    5b1e:	fff486        	j	5af4 <AEC_NR_Write_FLASH+0x70>

00005b21 <AEC_NR_Write_FLASH+0x9d>:
    5b21:	00000000 36000000                                .......

00005b28 <fill_vad_thrd_Nbands>:
    5b28:	004136        	entry	a1, 32
    5b2b:	00a062        	movi	a6, 0
    5b2e:	ea3b71        	l32r	a7, 41c (7f80 <ifft_wo+0x88>)
    5b31:	1ba476        	loopgtz	a4, 5b50 <fill_vad_thrd_Nbands+0x28>
    5b34:	a05620        	addx4	a5, a6, a2
    5b37:	904630        	addx2	a4, a6, a3
    5b3a:	444d           	ae_l16ui.n	a4, a4, 0
    5b3c:	661b           	addi.n	a6, a6, 1
    5b3e:	866d           	ae_sext16	a6, a6
    5b40:	218140        	srai	a8, a4, 1
    5b43:	744040        	extui	a4, a4, 0, 8
    5b46:	108870        	and	a8, a8, a7
    5b49:	658d           	ae_s16i.n	a8, a5, 0
    5b4b:	114490        	slli	a4, a4, 7
    5b4e:	754d           	ae_s16i.n	a4, a5, 2

00005b50 <fill_vad_thrd_Nbands+0x28>:
    5b50:	f01d           	retw.n

00005b52 <fill_vad_thrd_Nbands+0x2a>:
	...

00005b54 <fill_EQ_gain>:
    5b54:	004136        	entry	a1, 32
    5b57:	06a476        	loopgtz	a4, 5b61 <fill_EQ_gain+0xd>
    5b5a:	235d           	ae_l16si.n	a5, a3, 0
    5b5c:	09c254        	ae_s16ip	a5, a2, 2
    5b5f:	332b           	addi.n	a3, a3, 2

00005b61 <fill_EQ_gain+0xd>:
    5b61:	f01d           	retw.n

00005b63 <fill_EQ_gain+0xf>:
	...

00005b64 <complement_para>:
    5b64:	004136        	entry	a1, 32
    5b67:	ea0d41        	l32r	a4, 39c (ffff8000 <_end+0xfffec1c4>)
    5b6a:	623d           	ae_s16i.n	a3, a2, 0
    5b6c:	c04430        	sub	a4, a4, a3
    5b6f:	724d           	ae_s16i.n	a4, a2, 2
    5b71:	f01d           	retw.n

00005b73 <complement_para+0xf>:
	...

00005b74 <Mel_init>:
    5b74:	006136        	entry	a1, 48
    5b77:	e94bc1        	l32r	a12, a4 (be30 <p_ecnr_mem>)
    5b7a:	0cc8           	l32i.n	a12, a12, 0
    5b7c:	11d222        	addmi	a2, a2, 0x1100
    5b7f:	12dcd2        	addmi	a13, a12, 0x1200
    5b82:	10dca2        	addmi	a10, a12, 0x1000
    5b85:	fc62a2        	s32i	a10, a2, 0x3f0
    5b88:	8d2b           	addi.n	a8, a13, 2
    5b8a:	fd6282        	s32i	a8, a2, 0x3f4
    5b8d:	401366        	bnei	a3, 1, 5bd1 <Mel_init+0x5d>
    5b90:	244c           	movi.n	a4, 66
    5b92:	ea2431        	l32r	a3, 424 (a320 <Coef_64>)
    5b95:	e94d81        	l32r	a8, cc (9240 <xt_memcpy>)
    5b98:	14dc92        	addmi	a9, a12, 0x1400
    5b9b:	13dcb2        	addmi	a11, a12, 0x1300
    5b9e:	88cbb2        	addi	a11, a11, -120
    5ba1:	998b           	addi.n	a9, a9, 8
    5ba3:	ff6292        	s32i	a9, a2, 0x3fc
    5ba6:	fe62b2        	s32i	a11, a2, 0x3f8
    5ba9:	01a1c2        	movi	a12, 0x101
    5bac:	ea1db1        	l32r	a11, 420 (a4a0 <Norm_gain_64>)
    5baf:	0008e0        	callx8	a8
    5bb2:	fd22a2        	l32i	a10, a2, 0x3f4
    5bb5:	e94581        	l32r	a8, cc (9240 <xt_memcpy>)
    5bb8:	ea1cb1        	l32r	a11, 428 (a6b0 <Index_64>)
    5bbb:	3c4c           	movi.n	a12, 67
    5bbd:	0008e0        	callx8	a8
    5bc0:	03bd           	mov.n	a11, a3
    5bc2:	e94281        	l32r	a8, cc (9240 <xt_memcpy>)
    5bc5:	fe22a2        	l32i	a10, a2, 0x3f8
    5bc8:	c0a0c2        	movi	a12, 192
    5bcb:	0008e0        	callx8	a8
    5bce:	002006        	j	5c52 <Mel_init+0xde>

00005bd1 <Mel_init+0x5d>:
    5bd1:	3d2366        	bnei	a3, 2, 5c12 <Mel_init+0x9e>
    5bd4:	242c           	movi.n	a4, 34
    5bd6:	ea1631        	l32r	a3, 430 (a740 <Coef_32>)
    5bd9:	e93c81        	l32r	a8, cc (9240 <xt_memcpy>)
    5bdc:	14dc92        	addmi	a9, a12, 0x1400
    5bdf:	48cdb2        	addi	a11, a13, 72
    5be2:	01a1c2        	movi	a12, 0x101
    5be5:	fe62b2        	s32i	a11, a2, 0x3f8
    5be8:	996b           	addi.n	a9, a9, 6
    5bea:	ff6292        	s32i	a9, a2, 0x3fc
    5bed:	ea0fb1        	l32r	a11, 42c (a900 <Norm_gain_32>)
    5bf0:	0008e0        	callx8	a8
    5bf3:	fd22a2        	l32i	a10, a2, 0x3f4
    5bf6:	e93581        	l32r	a8, cc (9240 <xt_memcpy>)
    5bf9:	ea0eb1        	l32r	a11, 434 (ab10 <Index_32>)
    5bfc:	3c2c           	movi.n	a12, 35
    5bfe:	0008e0        	callx8	a8
    5c01:	03bd           	mov.n	a11, a3
    5c03:	e93281        	l32r	a8, cc (9240 <xt_memcpy>)
    5c06:	fe22a2        	l32i	a10, a2, 0x3f8
    5c09:	dfa0c2        	movi	a12, 223
    5c0c:	0008e0        	callx8	a8
    5c0f:	000fc6        	j	5c52 <Mel_init+0xde>

00005c12 <Mel_init+0x9e>:
    5c12:	ea0941        	l32r	a4, 438 (ab60 <Coef_16>)
    5c15:	353366        	bnei	a3, 3, 5c4e <Mel_init+0xda>
    5c18:	e92d81        	l32r	a8, cc (9240 <xt_memcpy>)
    5c1b:	14dc92        	addmi	a9, a12, 0x1400
    5c1e:	28cdb2        	addi	a11, a13, 40
    5c21:	01a1c2        	movi	a12, 0x101
    5c24:	fe62b2        	s32i	a11, a2, 0x3f8
    5c27:	996b           	addi.n	a9, a9, 6
    5c29:	ff6292        	s32i	a9, a2, 0x3fc
    5c2c:	ea04b1        	l32r	a11, 43c (ad40 <Norm_gain_16>)
    5c2f:	0008e0        	callx8	a8
    5c32:	fd22a2        	l32i	a10, a2, 0x3f4
    5c35:	e92581        	l32r	a8, cc (9240 <xt_memcpy>)
    5c38:	ea02b1        	l32r	a11, 440 (af50 <Index_16>)
    5c3b:	3c1c           	movi.n	a12, 19
    5c3d:	0008e0        	callx8	a8
    5c40:	fe22a2        	l32i	a10, a2, 0x3f8
    5c43:	e92281        	l32r	a8, cc (9240 <xt_memcpy>)
    5c46:	04bd           	mov.n	a11, a4
    5c48:	efa0c2        	movi	a12, 239
    5c4b:	0008e0        	callx8	a8

00005c4e <Mel_init+0xda>:
    5c4e:	043d           	mov.n	a3, a4
    5c50:	241c           	movi.n	a4, 18
    5c52:	ff22a2        	l32i	a10, a2, 0x3fc
    5c55:	fecaa2        	addi	a10, a10, -2
    5c58:	7114a6        	blti	a4, 1, 5ccd <Mel_init+0x159>
    5c5b:	11b4f0        	slli	a11, a4, 1
    5c5e:	0d0c           	movi.n	a13, 0
    5c60:	0c0c           	movi.n	a12, 0
    5c62:	e9f8e1        	l32r	a14, 444 (7fff00 <_end+0x7f40c4>)
    5c65:	00a1f2        	movi	a15, 0x100
    5c68:	00a282        	movi	a8, 0x200
    5c6b:	39a884        	ae_movpa24x2	aep2, a8, a8
    5c6e:	fe20a21fff 	{ ae_movpa24x2	aep1, a15, a15; ae_zerop48	aep4 }

00005c73 <Mel_init+0xff>:
    5c73:	fd2292        	l32i	a9, a2, 0x3f4
    5c76:	413d94        	ae_lp16f.x	aep3, a13, a9
    5c79:	9d9a           	add.n	a9, a13, a9
    5c7b:	400914        	ae_lp16f.i	aep0, a9, 2
    5c7e:	078384        	ae_subsp24s	aep0, aep0, aep3
    5c81:	198904        	ae_eqp24	b0:b1, aep0, aep1
    5c84:	dd42e25eef 	{ ae_movpa24x2	aep5, a14, a14; ae_subsp24s	aep3, aep0, aep2 }
    5c89:	d280802dde 	{ addi	a13, a13, 2; ae_eqp24	b2:b3, aep0, aep4 }
    5c8e:	060076        	bf	b0, 5c98 <Mel_init+0x124>
    5c91:	42da14        	ae_sp16f.l.iu	aep5, a10, 2
    5c94:	000c86        	j	5cca <Mel_init+0x156>

00005c97 <Mel_init+0x123>:
	...

00005c98 <Mel_init+0x124>:
    5c98:	2e1276        	bt	b2, 5cca <Mel_init+0x156>
    5c9b:	423104        	ae_sp16f.l.i	aep3, a1, 0
    5c9e:	21fd           	ae_l16si.n	a15, a1, 0
    5ca0:	39eee4        	ae_movpa24x2	aep6, a14, a14
    5ca3:	42ea14        	ae_sp16f.l.iu	aep6, a10, 2
    5ca6:	020f96        	bltz	a15, 5cca <Mel_init+0x156>
    5ca9:	8f1b           	addi.n	a8, a15, 1
    5cab:	909c30        	addx2	a9, a12, a3
    5cae:	fec992        	addi	a9, a9, -2
    5cb1:	07a876        	loopgtz	a8, 5cbc <Mel_init+0x148>
    5cb4:	cc1b           	addi.n	a12, a12, 1
    5cb6:	40f914        	ae_lp16f.iu	aep7, a9, 2
    5cb9:	42fa14        	ae_sp16f.l.iu	aep7, a10, 2

00005cbc <Mel_init+0x148>:
    5cbc:	909c30        	addx2	a9, a12, a3
    5cbf:	8f1b           	addi.n	a8, a15, 1
    5cc1:	05a876        	loopgtz	a8, 5cca <Mel_init+0x156>
    5cc4:	4089f4        	ae_lp16f.iu	aep0, a9, -2
    5cc7:	428a14        	ae_sp16f.l.iu	aep0, a10, 2
    5cca:	a59db7        	bne	a13, a11, 5c73 <Mel_init+0xff>

00005ccd <Mel_init+0x159>:
    5ccd:	f01d           	retw.n

00005ccf <Mel_init+0x15b>:
	...

00005cd0 <WB_NR_init>:
    5cd0:	006136        	entry	a1, 48
    5cd3:	0139           	s32i.n	a3, a1, 0
    5cd5:	02ad           	mov.n	a10, a2
    5cd7:	e8fb81        	l32r	a8, c4 (9228 <xt_memset>)
    5cda:	0b0c           	movi.n	a11, 0
    5cdc:	e9dbc1        	l32r	a12, 448 (a88 <wind_noise_alpha+0x40>)
    5cdf:	0008e0        	callx8	a8
    5ce2:	e8f0e1        	l32r	a14, a4 (be30 <p_ecnr_mem>)
    5ce5:	328b           	addi.n	a3, a2, 8
    5ce7:	01b8           	l32i.n	a11, a1, 0
    5ce9:	02d462        	addmi	a6, a4, 0x200
    5cec:	11d252        	addmi	a5, a2, 0x1100
    5cef:	0cd2a2        	addmi	a10, a2, 0xc00
    5cf2:	f4caa2        	addi	a10, a10, -12
    5cf5:	c0c572        	addi	a7, a5, -64
    5cf8:	12c662        	addi	a6, a6, 18
    5cfb:	58c552        	addi	a5, a5, 88
    5cfe:	098b56        	bnez	a11, 5d9a <WB_NR_init+0xca>
    5d01:	2d1492        	l16ui	a9, a4, 90
    5d04:	221482        	l16ui	a8, a4, 68
    5d07:	2a14d2        	l16ui	a13, a4, 84
    5d0a:	2314f2        	l16ui	a15, a4, 70
    5d0d:	0ecd           	mov.n	a12, a14
    5d0f:	0cc8           	l32i.n	a12, a12, 0
    5d11:	1b0c           	movi.n	a11, 1
    5d13:	2414e2        	l16ui	a14, a4, 72
    5d16:	1adcc2        	addmi	a12, a12, 0x1a00
    5d19:	175cb2        	s16i	a11, a12, 46
    5d1c:	1152f2        	s16i	a15, a2, 34
    5d1f:	0352e2        	s16i	a14, a2, 6
    5d22:	0e52d2        	s16i	a13, a2, 28
    5d25:	025282        	s16i	a8, a2, 4
    5d28:	105292        	s16i	a9, a2, 32
    5d2b:	e194b2        	l16si	a11, a4, 0x1c2
    5d2e:	2b14c2        	l16ui	a12, a4, 86
    5d31:	0f52c2        	s16i	a12, a2, 30
    5d34:	1252b2        	s16i	a11, a2, 36
    5d37:	e29492        	l16si	a9, a4, 0x1c4
    5d3a:	e9c481        	l32r	a8, 44c (5b64 <complement_para>)
    5d3d:	135292        	s16i	a9, a2, 38
    5d40:	2c94b2        	l16si	a11, a4, 88
    5d43:	0008e0        	callx8	a8
    5d46:	03ad           	mov.n	a10, a3
    5d48:	e9c281        	l32r	a8, 450 (5b28 <fill_vad_thrd_Nbands>)
    5d4b:	4ac4b2        	addi	a11, a4, 74
    5d4e:	5c0c           	movi.n	a12, 5
    5d50:	0008e0        	callx8	a8
    5d53:	06bd           	mov.n	a11, a6
    5d55:	e9bf81        	l32r	a8, 454 (5b54 <fill_EQ_gain>)
    5d58:	07ad           	mov.n	a10, a7
    5d5a:	00a1c2        	movi	a12, 0x100
    5d5d:	0008e0        	callx8	a8
    5d60:	3395a2        	l16si	a10, a5, 102
    5d63:	4b0c           	movi.n	a11, 4
    5d65:	d2aab0        	quos	a10, a10, a11
    5d68:	3355a2        	s16i	a10, a5, 102
    5d6b:	1292b2        	l16si	a11, a2, 36
    5d6e:	e9ba91        	l32r	a9, 458 (b8c0 <win_512_v3>)
    5d71:	e56592        	s32i	a9, a5, 0x394
    5d74:	6b8c           	beqz.n	a11, 5d7e <WB_NR_init+0xae>
    5d76:	e9b981        	l32r	a8, 45c (5b74 <Mel_init>)
    5d79:	02ad           	mov.n	a10, a2
    5d7b:	0008e0        	callx8	a8

00005d7e <WB_NR_init+0xae>:
    5d7e:	041492        	l16ui	a9, a4, 8
    5d81:	6a0c           	movi.n	a10, 6
    5d83:	1099a0        	and	a9, a9, a10
    5d86:	fec992        	addi	a9, a9, -2
    5d89:	08c956        	bnez	a9, 5e19 <WB_NR_init+0x149>
    5d8c:	3202b2        	l8ui	a11, a2, 50
    5d8f:	2c0c           	movi.n	a12, 2
    5d91:	20bbc0        	or	a11, a11, a12
    5d94:	3242b2        	s8i	a11, a2, 50
    5d97:	001f86        	j	5e19 <WB_NR_init+0x149>

00005d9a <WB_NR_init+0xca>:
    5d9a:	e9ac81        	l32r	a8, 44c (5b64 <complement_para>)
    5d9d:	4b1492        	l16ui	a9, a4, 150
    5da0:	4a14b2        	l16ui	a11, a4, 148
    5da3:	4414c2        	l16ui	a12, a4, 136
    5da6:	4314d2        	l16ui	a13, a4, 134
    5da9:	4214e2        	l16ui	a14, a4, 132
    5dac:	4d14f2        	l16ui	a15, a4, 154
    5daf:	1052f2        	s16i	a15, a2, 32
    5db2:	0252e2        	s16i	a14, a2, 4
    5db5:	1152d2        	s16i	a13, a2, 34
    5db8:	0352c2        	s16i	a12, a2, 6
    5dbb:	0e52b2        	s16i	a11, a2, 28
    5dbe:	0f5292        	s16i	a9, a2, 30
    5dc1:	4c94b2        	l16si	a11, a4, 152
    5dc4:	0008e0        	callx8	a8
    5dc7:	03ad           	mov.n	a10, a3
    5dc9:	5c0c           	movi.n	a12, 5
    5dcb:	e9a181        	l32r	a8, 450 (5b28 <fill_vad_thrd_Nbands>)
    5dce:	01d4b2        	addmi	a11, a4, 0x100
    5dd1:	8acbb2        	addi	a11, a11, -118
    5dd4:	0008e0        	callx8	a8
    5dd7:	06bd           	mov.n	a11, a6
    5dd9:	e99e81        	l32r	a8, 454 (5b54 <fill_EQ_gain>)
    5ddc:	07ad           	mov.n	a10, a7
    5dde:	00a1c2        	movi	a12, 0x100
    5de1:	0008e0        	callx8	a8
    5de4:	0b0c           	movi.n	a11, 0
    5de6:	6c0c           	movi.n	a12, 6
    5de8:	e8afa1        	l32r	a10, a4 (be30 <p_ecnr_mem>)
    5deb:	1e0c           	movi.n	a14, 1
    5ded:	3202d2        	l8ui	a13, a2, 50
    5df0:	e99cf1        	l32r	a15, 460 (bae0 <win_rx_512_v3>)
    5df3:	e565f2        	s32i	a15, a5, 0x394
    5df6:	20dde0        	or	a13, a13, a14
    5df9:	3242d2        	s8i	a13, a2, 50
    5dfc:	0aa8           	l32i.n	a10, a10, 0
    5dfe:	e8b181        	l32r	a8, c4 (9228 <xt_memset>)
    5e01:	4e14e2        	l16ui	a14, a4, 156
    5e04:	6fdad2        	addmi	a13, a10, 0x6f00
    5e07:	ae5de2        	s16i	a14, a13, 0x15c
    5e0a:	70daa2        	addmi	a10, a10, 0x7000
    5e0d:	60caa2        	addi	a10, a10, 96
    5e10:	4f1492        	l16ui	a9, a4, 158
    5e13:	af5d92        	s16i	a9, a13, 0x15e
    5e16:	0008e0        	callx8	a8

00005e19 <WB_NR_init+0x149>:
    5e19:	e992a1        	l32r	a10, 464 (ffffb800 <_end+0xfffef9c4>)
    5e1c:	e993e1        	l32r	a14, 468 (b8000000 <_end+0xb7ff41c4>)
    5e1f:	119282        	l16si	a8, a2, 34
    5e22:	14d252        	addmi	a5, a2, 0x1400
    5e25:	0e9292        	l16si	a9, a2, 28
    5e28:	04d232        	addmi	a3, a2, 0x400
    5e2b:	03d2d2        	addmi	a13, a2, 0x300
    5e2e:	20cdc2        	addi	a12, a13, 32
    5e31:	f8c3f2        	addi	a15, a3, -8
    5e34:	dd8b           	addi.n	a13, a13, 8
    5e36:	865592        	s16i	a9, a5, 0x10c
    5e39:	875582        	s16i	a8, a5, 0x10e
    5e3c:	4cc332        	addi	a3, a3, 76
    5e3f:	03bd           	mov.n	a11, a3
    5e41:	c80c           	movi.n	a8, 12
    5e43:	f8c552        	addi	a5, a5, -8
    5e46:	0d9d           	mov.n	a9, a13

00005e48 <WB_NR_init+0x178>:
    5e48:	18ccc2        	addi	a12, a12, 24
    5e4b:	0be9           	s32i.n	a14, a11, 0
    5e4d:	18cdd2        	addi	a13, a13, 24
    5e50:	bb4b           	addi.n	a11, a11, 4
    5e52:	02a876        	loopgtz	a8, 5e58 <WB_NR_init+0x188>
    5e55:	09c9a4        	ae_s16ip	a10, a9, 2

00005e58 <WB_NR_init+0x188>:
    5e58:	c80c           	movi.n	a8, 12
    5e5a:	0d9d           	mov.n	a9, a13
    5e5c:	e89cf7        	bne	a12, a15, 5e48 <WB_NR_init+0x178>
    5e5f:	2e94b2        	l16si	a11, a4, 92
    5e62:	e97a81        	l32r	a8, 44c (5b64 <complement_para>)
    5e65:	0cd2a2        	addmi	a10, a2, 0xc00
    5e68:	e0caa2        	addi	a10, a10, -32
    5e6b:	0008e0        	callx8	a8
    5e6e:	2f94b2        	l16si	a11, a4, 94
    5e71:	e97681        	l32r	a8, 44c (5b64 <complement_para>)
    5e74:	0cd2a2        	addmi	a10, a2, 0xc00
    5e77:	e4caa2        	addi	a10, a10, -28
    5e7a:	0008e0        	callx8	a8
    5e7d:	3094b2        	l16si	a11, a4, 96
    5e80:	e97381        	l32r	a8, 44c (5b64 <complement_para>)
    5e83:	0cd2a2        	addmi	a10, a2, 0xc00
    5e86:	e8caa2        	addi	a10, a10, -24
    5e89:	0008e0        	callx8	a8
    5e8c:	3194b2        	l16si	a11, a4, 98
    5e8f:	e96f81        	l32r	a8, 44c (5b64 <complement_para>)
    5e92:	0cd2a2        	addmi	a10, a2, 0xc00
    5e95:	eccaa2        	addi	a10, a10, -20
    5e98:	0008e0        	callx8	a8
    5e9b:	3294b2        	l16si	a11, a4, 100
    5e9e:	e96b81        	l32r	a8, 44c (5b64 <complement_para>)
    5ea1:	0cd2a2        	addmi	a10, a2, 0xc00
    5ea4:	f0caa2        	addi	a10, a10, -16
    5ea7:	0008e0        	callx8	a8
    5eaa:	9b6c           	movi.n	a11, -23
    5eac:	00a1d2        	movi	a13, 0x100
    5eaf:	0bd2c2        	addmi	a12, a2, 0xb00
    5eb2:	0e6c           	movi.n	a14, -32
    5eb4:	1f0c           	movi.n	a15, 1
    5eb6:	e87b81        	l32r	a8, a4 (be30 <p_ecnr_mem>)
    5eb9:	eea0a2        	movi	a10, 238
    5ebc:	990c           	movi.n	a9, 9
    5ebe:	344292        	s8i	a9, a2, 52
    5ec1:	3542a2        	s8i	a10, a2, 53
    5ec4:	0498           	l32i.n	a9, a4, 0
    5ec6:	0299           	s32i.n	a9, a2, 0
    5ec8:	0888           	l32i.n	a8, a8, 0
    5eca:	10d992        	addmi	a9, a9, 0x1000
    5ecd:	dcc9a2        	addi	a10, a9, -36
    5ed0:	28d882        	addmi	a8, a8, 0x2800
    5ed3:	f0c882        	addi	a8, a8, -16
    5ed6:	3c65a2        	s32i	a10, a5, 240
    5ed9:	b8c992        	addi	a9, a9, -72
    5edc:	8094a2        	l16si	a10, a4, 0x100
    5edf:	3b6592        	s32i	a9, a5, 236
    5ee2:	3a6582        	s32i	a8, a5, 232
    5ee5:	e88591        	l32r	a9, fc (7fff0000 <_end+0x7ffe41c4>)
    5ee8:	1852f2        	s16i	a15, a2, 48
    5eeb:	7f5ce2        	s16i	a14, a12, 254
    5eee:	1552d2        	s16i	a13, a2, 42
    5ef1:	7d5cb2        	s16i	a11, a12, 250
    5ef4:	426592        	s32i	a9, a5, 0x108
    5ef7:	8955a2        	s16i	a10, a5, 0x112
    5efa:	7894a2        	l16si	a10, a4, 240
    5efd:	436592        	s32i	a9, a5, 0x10c
    5f00:	8855a2        	s16i	a10, a5, 0x110
    5f03:	041aa6        	blti	a10, 1, 5f0b <WB_NR_init+0x23b>
    5f06:	5b1c           	movi.n	a11, 21
    5f08:	04aba7        	bge	a11, a10, 5f10 <WB_NR_init+0x240>

00005f0b <WB_NR_init+0x23b>:
    5f0b:	cc0c           	movi.n	a12, 12
    5f0d:	8855c2        	s16i	a12, a5, 0x110

00005f10 <WB_NR_init+0x240>:
    5f10:	24c332        	addi	a3, a3, 36
    5f13:	e91791        	l32r	a9, 370 (40000000 <_end+0x3fff41c4>)
    5f16:	eea0d2        	movi	a13, 238
    5f19:	02ad76        	loopgtz	a13, 5f1f <WB_NR_init+0x24f>
    5f1c:	09e394        	ae_s32ip	a9, a3, 4

00005f1f <WB_NR_init+0x24f>:
    5f1f:	3202e2        	l8ui	a14, a2, 50
    5f22:	076e17        	bbci	a14, 1, 5f2d <WB_NR_init+0x25d>
    5f25:	e95181        	l32r	a8, 46c (970 <PD_INIT>)
    5f28:	02a8           	l32i.n	a10, a2, 0
    5f2a:	0008e0        	callx8	a8

00005f2d <WB_NR_init+0x25d>:
    5f2d:	f01d           	retw.n

00005f2f <WB_NR_init+0x25f>:
	...

00005f30 <WB_RX_NR_init>:
    5f30:	004136        	entry	a1, 32
    5f33:	03bd           	mov.n	a11, a3
    5f35:	04cd           	mov.n	a12, a4
    5f37:	e85b31        	l32r	a3, a4 (be30 <p_ecnr_mem>)
    5f3a:	e94d81        	l32r	a8, 470 (8fdc <RX_ECNR_PARA_init>)
    5f3d:	0a0c           	movi.n	a10, 0
    5f3f:	0329           	s32i.n	a2, a3, 0
    5f41:	0008e0        	callx8	a8
    5f44:	e86121        	l32r	a2, c8 (be38 <aec_nr_para>)
    5f47:	03a8           	l32i.n	a10, a3, 0
    5f49:	e8c681        	l32r	a8, 264 (2bd4 <HP_coef_setup>)
    5f4c:	02b8           	l32i.n	a11, a2, 0
    5f4e:	70daa2        	addmi	a10, a10, 0x7000
    5f51:	28caa2        	addi	a10, a10, 40
    5f54:	01dbb2        	addmi	a11, a11, 0x100
    5f57:	34cbb2        	addi	a11, a11, 52
    5f5a:	0008e0        	callx8	a8
    5f5d:	02c8           	l32i.n	a12, a2, 0
    5f5f:	03a8           	l32i.n	a10, a3, 0
    5f61:	1b0c           	movi.n	a11, 1
    5f63:	e94481        	l32r	a8, 474 (5cd0 <WB_NR_init>)
    5f66:	5bdaa2        	addmi	a10, a10, 0x5b00
    5f69:	18caa2        	addi	a10, a10, 24
    5f6c:	0008e0        	callx8	a8
    5f6f:	f01d           	retw.n

00005f71 <WB_RX_NR_init+0x41>:
    5f71:	000000                                        ...

00005f74 <WB_RX_NR_frame_process>:
    5f74:	004136        	entry	a1, 32
    5f77:	e84b41        	l32r	a4, a4 (be30 <p_ecnr_mem>)
    5f7a:	e93f31        	l32r	a3, 478 (705c <two_mic_WB_NR_proc+0x3c>)
    5f7d:	02ad           	mov.n	a10, a2
    5f7f:	04b8           	l32i.n	a11, a4, 0
    5f81:	f0a0d2        	movi	a13, 240
    5f84:	e8d581        	l32r	a8, 2d8 (2f4c <emph_filter_N>)
    5f87:	70dbc2        	addmi	a12, a11, 0x7000
    5f8a:	5cccb2        	addi	a11, a12, 92
    5f8d:	60ccc2        	addi	a12, a12, 96
    5f90:	0008e0        	callx8	a8
    5f93:	02bd           	mov.n	a11, a2
    5f95:	04a8           	l32i.n	a10, a4, 0
    5f97:	02cd           	mov.n	a12, a2
    5f99:	e8e881        	l32r	a8, 33c (6004 <WB_NR_frame_process>)
    5f9c:	24dad2        	addmi	a13, a10, 0x2400
    5f9f:	f0cdd2        	addi	a13, a13, -16
    5fa2:	5bdaa2        	addmi	a10, a10, 0x5b00
    5fa5:	18caa2        	addi	a10, a10, 24
    5fa8:	0008e0        	callx8	a8
    5fab:	02ad           	mov.n	a10, a2
    5fad:	04c8           	l32i.n	a12, a4, 0
    5faf:	f0a0d2        	movi	a13, 240
    5fb2:	e8e681        	l32r	a8, 34c (2f90 <deemph_filter_N>)
    5fb5:	bc3a           	add.n	a11, a12, a3
    5fb7:	70dcc2        	addmi	a12, a12, 0x7000
    5fba:	64ccc2        	addi	a12, a12, 100
    5fbd:	0008e0        	callx8	a8
    5fc0:	f01d           	retw.n

00005fc2 <WB_RX_NR_frame_process+0x4e>:
	...

00005fc4 <WB_TX_NR_init>:
    5fc4:	004136        	entry	a1, 32
    5fc7:	e837a1        	l32r	a10, a4 (be30 <p_ecnr_mem>)
    5fca:	0b0c           	movi.n	a11, 0
    5fcc:	e83fc1        	l32r	a12, c8 (be38 <aec_nr_para>)
    5fcf:	0aa8           	l32i.n	a10, a10, 0
    5fd1:	e92881        	l32r	a8, 474 (5cd0 <WB_NR_init>)
    5fd4:	0cc8           	l32i.n	a12, a12, 0
    5fd6:	40daa2        	addmi	a10, a10, 0x4000
    5fd9:	c0caa2        	addi	a10, a10, -64
    5fdc:	0008e0        	callx8	a8
    5fdf:	f01d           	retw.n

00005fe1 <WB_TX_NR_init+0x1d>:
    5fe1:	000000                                        ...

00005fe4 <WB_TX_NR_frame_process>:
    5fe4:	004136        	entry	a1, 32
    5fe7:	e82fa1        	l32r	a10, a4 (be30 <p_ecnr_mem>)
    5fea:	02bd           	mov.n	a11, a2
    5fec:	0aa8           	l32i.n	a10, a10, 0
    5fee:	02cd           	mov.n	a12, a2
    5ff0:	e8d381        	l32r	a8, 33c (6004 <WB_NR_frame_process>)
    5ff3:	24dad2        	addmi	a13, a10, 0x2400
    5ff6:	f0cdd2        	addi	a13, a13, -16
    5ff9:	40daa2        	addmi	a10, a10, 0x4000
    5ffc:	c0caa2        	addi	a10, a10, -64
    5fff:	0008e0        	callx8	a8
    6002:	f01d           	retw.n

00006004 <WB_NR_frame_process>:
    6004:	004136        	entry	a1, 32
    6007:	320282        	l8ui	a8, a2, 50
    600a:	056817        	bbci	a8, 1, 6013 <WB_NR_frame_process+0xf>
    600d:	e91b81        	l32r	a8, 47c (1a38 <PD_TD_prcs>)
    6010:	0008e0        	callx8	a8

00006013 <WB_NR_frame_process+0xf>:
    6013:	e91b81        	l32r	a8, 480 (71f0 <fft_wo>)
    6016:	03bd           	mov.n	a11, a3
    6018:	02ad           	mov.n	a10, a2
    601a:	0008e0        	callx8	a8
    601d:	320292        	l8ui	a9, a2, 50
    6020:	0a6917        	bbci	a9, 1, 602e <WB_NR_frame_process+0x2a>
    6023:	e91881        	l32r	a8, 484 (1a90 <pitch_by_harmonic>)
    6026:	02ad           	mov.n	a10, a2
    6028:	00a2b2        	movi	a11, 0x200
    602b:	0008e0        	callx8	a8

0000602e <WB_NR_frame_process+0x2a>:
    602e:	e91681        	l32r	a8, 488 (73b0 <NR_vad1>)
    6031:	02ad           	mov.n	a10, a2
    6033:	0008e0        	callx8	a8
    6036:	e91581        	l32r	a8, 48c (74dc <NR_vad2>)
    6039:	02ad           	mov.n	a10, a2
    603b:	0008e0        	callx8	a8
    603e:	e91481        	l32r	a8, 490 (7814 <NR_NoiseEstimate>)
    6041:	02ad           	mov.n	a10, a2
    6043:	0008e0        	callx8	a8
    6046:	e91381        	l32r	a8, 494 (7934 <NR_NoiseWithGain>)
    6049:	02ad           	mov.n	a10, a2
    604b:	0008e0        	callx8	a8
    604e:	e91281        	l32r	a8, 498 (7c14 <NR_WienerFilter>)
    6051:	02ad           	mov.n	a10, a2
    6053:	0008e0        	callx8	a8
    6056:	320292        	l8ui	a9, a2, 50
    6059:	00a0a2        	movi	a10, 0
    605c:	00a2b2        	movi	a11, 0x200
    605f:	0b6907        	bbci	a9, 0, 606e <WB_NR_frame_process+0x6a>
    6062:	209550        	or	a9, a5, a5
    6065:	02ab76        	loopgtz	a11, 606b <WB_NR_frame_process+0x67>
    6068:	09c9a4        	ae_s16ip	a10, a9, 2

0000606b <WB_NR_frame_process+0x67>:
    606b:	000246        	j	6078 <WB_NR_frame_process+0x74>

0000606e <WB_NR_frame_process+0x6a>:
    606e:	e90b81        	l32r	a8, 49c (7d8 <comfort_noise_gen_wb>)
    6071:	02ad           	mov.n	a10, a2
    6073:	05bd           	mov.n	a11, a5
    6075:	0008e0        	callx8	a8

00006078 <WB_NR_frame_process+0x74>:
    6078:	05cd           	mov.n	a12, a5
    607a:	e90981        	l32r	a8, 4a0 (7ef8 <ifft_wo>)
    607d:	04bd           	mov.n	a11, a4
    607f:	02ad           	mov.n	a10, a2
    6081:	0008e0        	callx8	a8
    6084:	f01d           	retw.n

00006086 <WB_NR_frame_process+0x82>:
	...

00006088 <NB_NR_init>:
    6088:	004136        	entry	a1, 32
    608b:	02ad           	mov.n	a10, a2
    608d:	e80d81        	l32r	a8, c4 (9228 <xt_memset>)
    6090:	0b0c           	movi.n	a11, 0
    6092:	e8edc1        	l32r	a12, 448 (a88 <wind_noise_alpha+0x40>)
    6095:	0008e0        	callx8	a8
    6098:	e8ed81        	l32r	a8, 44c (5b64 <complement_para>)
    609b:	e80b41        	l32r	a4, c8 (be38 <aec_nr_para>)
    609e:	0cd2a2        	addmi	a10, a2, 0xc00
    60a1:	14d2d2        	addmi	a13, a2, 0x1400
    60a4:	04f8           	l32i.n	a15, a4, 0
    60a6:	f8cd52        	addi	a5, a13, -8
    60a9:	f4caa2        	addi	a10, a10, -12
    60ac:	3e9fb2        	l16si	a11, a15, 124
    60af:	3d1f92        	l16ui	a9, a15, 122
    60b2:	371fe2        	l16ui	a14, a15, 110
    60b5:	3c1fc2        	l16ui	a12, a15, 120
    60b8:	3f1f62        	l16ui	a6, a15, 126
    60bb:	351f32        	l16ui	a3, a15, 106
    60be:	025232        	s16i	a3, a2, 4
    60c1:	105262        	s16i	a6, a2, 32
    60c4:	361ff2        	l16ui	a15, a15, 108
    60c7:	1152f2        	s16i	a15, a2, 34
    60ca:	875df2        	s16i	a15, a13, 0x10e
    60cd:	0352e2        	s16i	a14, a2, 6
    60d0:	0e52c2        	s16i	a12, a2, 28
    60d3:	865dc2        	s16i	a12, a13, 0x10c
    60d6:	0f5292        	s16i	a9, a2, 30
    60d9:	0008e0        	callx8	a8
    60dc:	a28b           	addi.n	a10, a2, 8
    60de:	04b8           	l32i.n	a11, a4, 0
    60e0:	e8dc81        	l32r	a8, 450 (5b28 <fill_vad_thrd_Nbands>)
    60e3:	4c0c           	movi.n	a12, 4
    60e5:	70cbb2        	addi	a11, a11, 112
    60e8:	0008e0        	callx8	a8
    60eb:	80a0c2        	movi	a12, 128
    60ee:	e8d981        	l32r	a8, 454 (5b54 <fill_EQ_gain>)
    60f1:	04b8           	l32i.n	a11, a4, 0
    60f3:	11d2a2        	addmi	a10, a2, 0x1100
    60f6:	c0caa2        	addi	a10, a10, -64
    60f9:	02dbb2        	addmi	a11, a11, 0x200
    60fc:	12cbb2        	addi	a11, a11, 18
    60ff:	0008e0        	callx8	a8
    6102:	0b0c           	movi.n	a11, 0
    6104:	6c0c           	movi.n	a12, 6
    6106:	e7e771        	l32r	a7, a4 (be30 <p_ecnr_mem>)
    6109:	160c           	movi.n	a6, 1
    610b:	3202d2        	l8ui	a13, a2, 50
    610e:	e8e5e1        	l32r	a14, 4a4 (bd00 <win_rx_256_v3>)
    6111:	3d65e2        	s32i	a14, a5, 244
    6114:	20dd60        	or	a13, a13, a6
    6117:	3242d2        	s8i	a13, a2, 50
    611a:	07a8           	l32i.n	a10, a7, 0
    611c:	0498           	l32i.n	a9, a4, 0
    611e:	e7e981        	l32r	a8, c4 (9228 <xt_memset>)
    6121:	6fdad2        	addmi	a13, a10, 0x6f00
    6124:	4019e2        	l16ui	a14, a9, 128
    6127:	70daa2        	addmi	a10, a10, 0x7000
    612a:	60caa2        	addi	a10, a10, 96
    612d:	ae5de2        	s16i	a14, a13, 0x15c
    6130:	411992        	l16ui	a9, a9, 130
    6133:	af5d92        	s16i	a9, a13, 0x15e
    6136:	0008e0        	callx8	a8
    6139:	e8caa1        	l32r	a10, 464 (ffffb800 <_end+0xfffef9c4>)
    613c:	e8cbe1        	l32r	a14, 468 (b8000000 <_end+0xb7ff41c4>)
    613f:	c80c           	movi.n	a8, 12
    6141:	04d232        	addmi	a3, a2, 0x400
    6144:	03d2d2        	addmi	a13, a2, 0x300
    6147:	20cdc2        	addi	a12, a13, 32
    614a:	c8c3f2        	addi	a15, a3, -56
    614d:	dd8b           	addi.n	a13, a13, 8
    614f:	4cc332        	addi	a3, a3, 76
    6152:	03bd           	mov.n	a11, a3
    6154:	0d9d           	mov.n	a9, a13

00006156 <NB_NR_init+0xce>:
    6156:	18ccc2        	addi	a12, a12, 24
    6159:	0be9           	s32i.n	a14, a11, 0
    615b:	18cdd2        	addi	a13, a13, 24
    615e:	04cbb2        	addi	a11, a11, 4
    6161:	02a876        	loopgtz	a8, 6167 <NB_NR_init+0xdf>
    6164:	09c9a4        	ae_s16ip	a10, a9, 2

00006167 <NB_NR_init+0xdf>:
    6167:	c80c           	movi.n	a8, 12
    6169:	0d9d           	mov.n	a9, a13
    616b:	e79cf7        	bne	a12, a15, 6156 <NB_NR_init+0xce>
    616e:	04b8           	l32i.n	a11, a4, 0
    6170:	0cd2a2        	addmi	a10, a2, 0xc00
    6173:	e8b681        	l32r	a8, 44c (5b64 <complement_para>)
    6176:	e0caa2        	addi	a10, a10, -32
    6179:	2e9bb2        	l16si	a11, a11, 92
    617c:	0008e0        	callx8	a8
    617f:	04b8           	l32i.n	a11, a4, 0
    6181:	0cd2a2        	addmi	a10, a2, 0xc00
    6184:	e8b281        	l32r	a8, 44c (5b64 <complement_para>)
    6187:	e4caa2        	addi	a10, a10, -28
    618a:	2f9bb2        	l16si	a11, a11, 94
    618d:	0008e0        	callx8	a8
    6190:	04b8           	l32i.n	a11, a4, 0
    6192:	0cd2a2        	addmi	a10, a2, 0xc00
    6195:	e8ad81        	l32r	a8, 44c (5b64 <complement_para>)
    6198:	e8caa2        	addi	a10, a10, -24
    619b:	309bb2        	l16si	a11, a11, 96
    619e:	0008e0        	callx8	a8
    61a1:	04b8           	l32i.n	a11, a4, 0
    61a3:	0cd2a2        	addmi	a10, a2, 0xc00
    61a6:	e8a981        	l32r	a8, 44c (5b64 <complement_para>)
    61a9:	eccaa2        	addi	a10, a10, -20
    61ac:	319bb2        	l16si	a11, a11, 98
    61af:	0008e0        	callx8	a8
    61b2:	04b8           	l32i.n	a11, a4, 0
    61b4:	0cd2a2        	addmi	a10, a2, 0xc00
    61b7:	e8a581        	l32r	a8, 44c (5b64 <complement_para>)
    61ba:	f0caa2        	addi	a10, a10, -16
    61bd:	329bb2        	l16si	a11, a11, 100
    61c0:	0008e0        	callx8	a8
    61c3:	24c332        	addi	a3, a3, 36
    61c6:	9e6c           	movi.n	a14, -23
    61c8:	00a182        	movi	a8, 0x100
    61cb:	0bd2f2        	addmi	a15, a2, 0xb00
    61ce:	096c           	movi.n	a9, -32
    61d0:	78a0c2        	movi	a12, 120
    61d3:	7d0c           	movi.n	a13, 7
    61d5:	3442d2        	s8i	a13, a2, 52
    61d8:	3542c2        	s8i	a12, a2, 53
    61db:	07b8           	l32i.n	a11, a7, 0
    61dd:	04a8           	l32i.n	a10, a4, 0
    61df:	e7c7d1        	l32r	a13, fc (7fff0000 <_end+0x7ffe41c4>)
    61e2:	28dbb2        	addmi	a11, a11, 0x2800
    61e5:	0aa8           	l32i.n	a10, a10, 0
    61e7:	0062a2        	s32i	a10, a2, 0
    61ea:	f0cbb2        	addi	a11, a11, -16
    61ed:	3a65b2        	s32i	a11, a5, 232
    61f0:	10daa2        	addmi	a10, a10, 0x1000
    61f3:	dccab2        	addi	a11, a10, -36
    61f6:	b8caa2        	addi	a10, a10, -72
    61f9:	3c65b2        	s32i	a11, a5, 240
    61fc:	3b65a2        	s32i	a10, a5, 236
    61ff:	185262        	s16i	a6, a2, 48
    6202:	7f5f92        	s16i	a9, a15, 254
    6205:	e85a91        	l32r	a9, 370 (40000000 <_end+0x3fff41c4>)
    6208:	155282        	s16i	a8, a2, 42
    620b:	7d5fe2        	s16i	a14, a15, 250
    620e:	4365d2        	s32i	a13, a5, 0x10c
    6211:	02ac76        	loopgtz	a12, 6217 <NB_NR_init+0x18f>
    6214:	09e394        	ae_s32ip	a9, a3, 4
    6217:	f01d           	retw.n

00006219 <NB_NR_init+0x191>:
    6219:	000000                                        ...

0000621c <NB_RX_NR_init>:
    621c:	004136        	entry	a1, 32
    621f:	03bd           	mov.n	a11, a3
    6221:	04cd           	mov.n	a12, a4
    6223:	e7a031        	l32r	a3, a4 (be30 <p_ecnr_mem>)
    6226:	e89281        	l32r	a8, 470 (8fdc <RX_ECNR_PARA_init>)
    6229:	1a0c           	movi.n	a10, 1
    622b:	0329           	s32i.n	a2, a3, 0
    622d:	0008e0        	callx8	a8
    6230:	e7a6b1        	l32r	a11, c8 (be38 <aec_nr_para>)
    6233:	03a8           	l32i.n	a10, a3, 0
    6235:	e80b81        	l32r	a8, 264 (2bd4 <HP_coef_setup>)
    6238:	0bb8           	l32i.n	a11, a11, 0
    623a:	70daa2        	addmi	a10, a10, 0x7000
    623d:	28caa2        	addi	a10, a10, 40
    6240:	01dbb2        	addmi	a11, a11, 0x100
    6243:	60cbb2        	addi	a11, a11, 96
    6246:	0008e0        	callx8	a8
    6249:	03a8           	l32i.n	a10, a3, 0
    624b:	e89781        	l32r	a8, 4a8 (6088 <NB_NR_init>)
    624e:	5bdaa2        	addmi	a10, a10, 0x5b00
    6251:	18caa2        	addi	a10, a10, 24
    6254:	0008e0        	callx8	a8
    6257:	f01d           	retw.n

00006259 <NB_RX_NR_init+0x3d>:
    6259:	000000                                        ...

0000625c <NB_RX_NR_frame_process>:
    625c:	004136        	entry	a1, 32
    625f:	e79141        	l32r	a4, a4 (be30 <p_ecnr_mem>)
    6262:	e88531        	l32r	a3, 478 (705c <two_mic_WB_NR_proc+0x3c>)
    6265:	02ad           	mov.n	a10, a2
    6267:	04b8           	l32i.n	a11, a4, 0
    6269:	78a0d2        	movi	a13, 120
    626c:	e81b81        	l32r	a8, 2d8 (2f4c <emph_filter_N>)
    626f:	70dbc2        	addmi	a12, a11, 0x7000
    6272:	5cccb2        	addi	a11, a12, 92
    6275:	60ccc2        	addi	a12, a12, 96
    6278:	0008e0        	callx8	a8
    627b:	02bd           	mov.n	a11, a2
    627d:	04a8           	l32i.n	a10, a4, 0
    627f:	02cd           	mov.n	a12, a2
    6281:	e88a81        	l32r	a8, 4ac (62ac <NB_NR_frame_process>)
    6284:	24dad2        	addmi	a13, a10, 0x2400
    6287:	f0cdd2        	addi	a13, a13, -16
    628a:	5bdaa2        	addmi	a10, a10, 0x5b00
    628d:	18caa2        	addi	a10, a10, 24
    6290:	0008e0        	callx8	a8
    6293:	02ad           	mov.n	a10, a2
    6295:	04c8           	l32i.n	a12, a4, 0
    6297:	78a0d2        	movi	a13, 120
    629a:	e82c81        	l32r	a8, 34c (2f90 <deemph_filter_N>)
    629d:	bc3a           	add.n	a11, a12, a3
    629f:	70dcc2        	addmi	a12, a12, 0x7000
    62a2:	64ccc2        	addi	a12, a12, 100
    62a5:	0008e0        	callx8	a8
    62a8:	f01d           	retw.n

000062aa <NB_RX_NR_frame_process+0x4e>:
	...

000062ac <NB_NR_frame_process>:
    62ac:	004136        	entry	a1, 32
    62af:	e87481        	l32r	a8, 480 (71f0 <fft_wo>)
    62b2:	03bd           	mov.n	a11, a3
    62b4:	02ad           	mov.n	a10, a2
    62b6:	0008e0        	callx8	a8
    62b9:	e87381        	l32r	a8, 488 (73b0 <NR_vad1>)
    62bc:	02ad           	mov.n	a10, a2
    62be:	0008e0        	callx8	a8
    62c1:	e87281        	l32r	a8, 48c (74dc <NR_vad2>)
    62c4:	02ad           	mov.n	a10, a2
    62c6:	0008e0        	callx8	a8
    62c9:	e87181        	l32r	a8, 490 (7814 <NR_NoiseEstimate>)
    62cc:	02ad           	mov.n	a10, a2
    62ce:	0008e0        	callx8	a8
    62d1:	e87081        	l32r	a8, 494 (7934 <NR_NoiseWithGain>)
    62d4:	02ad           	mov.n	a10, a2
    62d6:	0008e0        	callx8	a8
    62d9:	e86f81        	l32r	a8, 498 (7c14 <NR_WienerFilter>)
    62dc:	02ad           	mov.n	a10, a2
    62de:	0008e0        	callx8	a8
    62e1:	059d           	mov.n	a9, a5
    62e3:	00a0a2        	movi	a10, 0
    62e6:	00a2b2        	movi	a11, 0x200
    62e9:	02ab76        	loopgtz	a11, 62ef <NB_NR_frame_process+0x43>
    62ec:	09c9a4        	ae_s16ip	a10, a9, 2

000062ef <NB_NR_frame_process+0x43>:
    62ef:	05cd           	mov.n	a12, a5
    62f1:	e86b81        	l32r	a8, 4a0 (7ef8 <ifft_wo>)
    62f4:	04bd           	mov.n	a11, a4
    62f6:	02ad           	mov.n	a10, a2
    62f8:	0008e0        	callx8	a8
    62fb:	f01d           	retw.n

000062fd <NB_NR_frame_process+0x51>:
    62fd:	000000                                        ...

00006300 <est_pow_aver>:
    6300:	006136        	entry	a1, 48
    6303:	604204        	ae_lq32f.i	aeq1, a2, 0
    6306:	f51c           	movi.n	a5, 31
    6308:	840c           	movi.n	a4, 8
    630a:	e86991        	l32r	a9, 4b0 (38e39 <_end+0x2cffd>)
    630d:	398994        	ae_movpa24x2	aep0, a9, a9
    6310:	c04430        	sub	a4, a4, a3
    6313:	433450        	min	a3, a4, a5
    6316:	fc2480485f 	{ movi	a5, 72; ae_zeroq56	aeq0 }
    631b:	0163d6        	bgez	a3, 6335 <est_pow_aver+0x35>
    631e:	603030        	neg	a3, a3
    6321:	f03d           	nop.n
    6323:	f03d           	nop.n
    6325:	09a576        	loopgtz	a5, 6332 <est_pow_aver+0x32>
    6328:	fc24fe934f 	{ ae_slaasq56s	aeq1, aeq1, a3; nop }
    632d:	f8667d321f 	{ ae_lq32f.iu	aeq1, a2, 4; ae_addsq56s	aeq0, aeq0, aeq1 }

00006332 <est_pow_aver+0x32>:
    6332:	000286        	j	6340 <est_pow_aver+0x40>

00006335 <est_pow_aver+0x35>:
    6335:	07a576        	loopgtz	a5, 6340 <est_pow_aver+0x40>
    6338:	3493b4        	ae_sraaq56	aeq2, aeq1, a3
    633b:	f8e27d321f 	{ ae_lq32f.iu	aeq1, a2, 4; ae_addsq56s	aeq0, aeq0, aeq2 }

00006340 <est_pow_aver+0x40>:
    6340:	080d24        	ae_mulfq32sp24s.l	aeq1, aeq0, aep0
    6343:	06d834        	ae_roundsq32sym	aeq3, aeq1
    6346:	623104        	ae_sq32f.i	aeq3, a1, 0
    6349:	0128           	l32i.n	a2, a1, 0
    634b:	f01d           	retw.n

0000634d <est_pow_aver+0x4d>:
    634d:	000000                                        ...

00006350 <est_pow_aver_x>:
    6350:	006136        	entry	a1, 48
    6353:	604204        	ae_lq32f.i	aeq1, a2, 0
    6356:	850c           	movi.n	a5, 8
    6358:	f81c           	movi.n	a8, 31
    635a:	c05530        	sub	a5, a5, a3
    635d:	433580        	min	a3, a5, a8
    6360:	e85581        	l32r	a8, 4b4 (35e51 <_end+0x2a015>)
    6363:	fc24a2088f 	{ ae_movpa24x2	aep0, a8, a8; ae_zeroq56	aeq0 }
    6368:	0123d6        	bgez	a3, 637e <est_pow_aver_x+0x2e>
    636b:	603030        	neg	a3, a3
    636e:	09a476        	loopgtz	a4, 637b <est_pow_aver_x+0x2b>
    6371:	fc24fe934f 	{ ae_slaasq56s	aeq1, aeq1, a3; nop }
    6376:	f8667d321f 	{ ae_lq32f.iu	aeq1, a2, 4; ae_addsq56s	aeq0, aeq0, aeq1 }

0000637b <est_pow_aver_x+0x2b>:
    637b:	000286        	j	6389 <est_pow_aver_x+0x39>

0000637e <est_pow_aver_x+0x2e>:
    637e:	07a476        	loopgtz	a4, 6389 <est_pow_aver_x+0x39>
    6381:	3493b4        	ae_sraaq56	aeq2, aeq1, a3
    6384:	f8e27d321f 	{ ae_lq32f.iu	aeq1, a2, 4; ae_addsq56s	aeq0, aeq0, aeq2 }
    6389:	080d24        	ae_mulfq32sp24s.l	aeq1, aeq0, aep0
    638c:	06d834        	ae_roundsq32sym	aeq3, aeq1
    638f:	623104        	ae_sq32f.i	aeq3, a1, 0
    6392:	0128           	l32i.n	a2, a1, 0
    6394:	f01d           	retw.n

00006396 <est_pow_aver_x+0x46>:
	...

00006398 <two_mic_WB_NR_init>:
    6398:	004136        	entry	a1, 32
    639b:	e74231        	l32r	a3, a4 (be30 <p_ecnr_mem>)
    639e:	0b0c           	movi.n	a11, 0
    63a0:	0338           	l32i.n	a3, a3, 0
    63a2:	22a3c2        	movi	a12, 0x322
    63a5:	e74781        	l32r	a8, c4 (9228 <xt_memset>)
    63a8:	1ad392        	addmi	a9, a3, 0x1a00
    63ab:	31d352        	addmi	a5, a3, 0x3100
    63ae:	e4c552        	addi	a5, a5, -28
    63b1:	1b6952        	s32i	a5, a9, 108
    63b4:	05ad           	mov.n	a10, a5
    63b6:	40d332        	addmi	a3, a3, 0x4000
    63b9:	c0c332        	addi	a3, a3, -64
    63bc:	0008e0        	callx8	a8
    63bf:	e74381        	l32r	a8, cc (9240 <xt_memcpy>)
    63c2:	3f22b2        	l32i	a11, a2, 252
    63c5:	7c92c2        	l16si	a12, a2, 248
    63c8:	070c           	movi.n	a7, 0
    63ca:	c992d2        	l16si	a13, a2, 0x192
    63cd:	7112e2        	l16ui	a14, a2, 226
    63d0:	05d592        	addmi	a9, a5, 0x500
    63d3:	14c942        	addi	a4, a9, 20
    63d6:	65ed           	ae_s16i.n	a14, a5, 0
    63d8:	25ad           	ae_l16si.n	a10, a5, 0
    63da:	9c59d2        	s16i	a13, a9, 0x138
    63dd:	9d5972        	s16i	a7, a9, 0x13a
    63e0:	9359c2        	s16i	a12, a9, 0x126
    63e3:	4c69b2        	s32i	a11, a9, 0x130
    63e6:	3c0c           	movi.n	a12, 3
    63e8:	02d2b2        	addmi	a11, a2, 0x200
    63eb:	11aa20        	slli	a10, a10, 14
    63ee:	bbcb           	addi.n	a11, a11, 12
    63f0:	4d69a2        	s32i	a10, a9, 0x134
    63f3:	06d5a2        	addmi	a10, a5, 0x600
    63f6:	3ccaa2        	addi	a10, a10, 60
    63f9:	0008e0        	callx8	a8
    63fc:	14c592        	addi	a9, a5, 20
    63ff:	e729b1        	l32r	a11, a4 (be30 <p_ecnr_mem>)
    6402:	13d3c2        	addmi	a12, a3, 0x1300
    6405:	03d8           	l32i.n	a13, a3, 0
    6407:	04d5a2        	addmi	a10, a5, 0x400
    640a:	cccaa2        	addi	a10, a10, -52
    640d:	3864d2        	s32i	a13, a4, 224
    6410:	c0ccc2        	addi	a12, a12, -64
    6413:	3764c2        	s32i	a12, a4, 220
    6416:	0bb8           	l32i.n	a11, a11, 0
    6418:	fdcb           	addi.n	a15, a13, 12
    641a:	0cdd22        	addmi	a2, a13, 0xc00
    641d:	14d3c2        	addmi	a12, a3, 0x1400
    6420:	10dde2        	addmi	a14, a13, 0x1000
    6423:	04dd62        	addmi	a6, a13, 0x400
    6426:	3c6462        	s32i	a6, a4, 240
    6429:	3d6462        	s32i	a6, a4, 244
    642c:	dccee2        	addi	a14, a14, -36
    642f:	382cc2        	l32i	a12, a12, 224
    6432:	3e6422        	s32i	a2, a4, 248
    6435:	3b64f2        	s32i	a15, a4, 236
    6438:	e7ce21        	l32r	a2, 370 (40000000 <_end+0x3fff41c4>)
    643b:	eea0f2        	movi	a15, 238
    643e:	3964c2        	s32i	a12, a4, 228
    6441:	3f64e2        	s32i	a14, a4, 252
    6444:	966c           	movi.n	a6, -23
    6446:	24dbb2        	addmi	a11, a11, 0x2400
    6449:	f0cbb2        	addi	a11, a11, -16
    644c:	08ddd2        	addmi	a13, a13, 0x800
    644f:	3a64d2        	s32i	a13, a4, 232
    6452:	4064b2        	s32i	a11, a4, 0x100
    6455:	dccdd2        	addi	a13, a13, -36
    6458:	3664d2        	s32i	a13, a4, 216
    645b:	095562        	s16i	a6, a5, 18
    645e:	02af76        	loopgtz	a15, 6464 <two_mic_WB_NR_init+0xcc>
    6461:	09e924        	ae_s32ip	a2, a9, 4

00006464 <two_mic_WB_NR_init+0xcc>:
    6464:	e71881        	l32r	a8, c4 (9228 <xt_memset>)
    6467:	0b0c           	movi.n	a11, 0
    6469:	10a1c2        	movi	a12, 0x110
    646c:	0008e0        	callx8	a8
    646f:	3724a2        	l32i	a10, a4, 220
    6472:	e71481        	l32r	a8, c4 (9228 <xt_memset>)
    6475:	0b0c           	movi.n	a11, 0
    6477:	10a1c2        	movi	a12, 0x110
    647a:	0008e0        	callx8	a8
    647d:	364372        	s8i	a7, a3, 54
    6480:	e7f9a1        	l32r	a10, 464 (ffffb800 <_end+0xfffef9c4>)
    6483:	c80c           	movi.n	a8, 12
    6485:	68c342        	addi	a4, a3, 104
    6488:	1f0c           	movi.n	a15, 1
    648a:	44c3b2        	addi	a11, a3, 68
    648d:	01d3e2        	addmi	a14, a3, 0x100
    6490:	80cee2        	addi	a14, a14, -128
    6493:	0bcd           	mov.n	a12, a11
    6495:	1d53f2        	s16i	a15, a3, 58
    6498:	04dd           	mov.n	a13, a4
    649a:	e7f3f1        	l32r	a15, 468 (b8000000 <_end+0xb7ff41c4>)
    649d:	0d9d           	mov.n	a9, a13

0000649f <two_mic_WB_NR_init+0x107>:
    649f:	18cee2        	addi	a14, a14, 24
    64a2:	0cf9           	s32i.n	a15, a12, 0
    64a4:	18cdd2        	addi	a13, a13, 24
    64a7:	cc4b           	addi.n	a12, a12, 4
    64a9:	02a876        	loopgtz	a8, 64af <two_mic_WB_NR_init+0x117>
    64ac:	09c9a4        	ae_s16ip	a10, a9, 2

000064af <two_mic_WB_NR_init+0x117>:
    64af:	c80c           	movi.n	a8, 12
    64b1:	209dd0        	or	a9, a13, a13
    64b4:	e79c47        	bne	a12, a4, 649f <two_mic_WB_NR_init+0x107>
    64b7:	1e5362        	s16i	a6, a3, 60
    64ba:	1f5362        	s16i	a6, a3, 62
    64bd:	205362        	s16i	a6, a3, 64
    64c0:	26a092        	movi	a9, 38
    64c3:	02dbb2        	addmi	a11, a11, 0x200
    64c6:	2ccbb2        	addi	a11, a11, 44
    64c9:	02a976        	loopgtz	a9, 64cf <two_mic_WB_NR_init+0x137>
    64cc:	09eb24        	ae_s32ip	a2, a11, 4
    64cf:	f01d           	retw.n

000064d1 <two_mic_WB_NR_init+0x139>:
    64d1:	000000                                        ...

000064d4 <two_mic_WB_NR_NSN_proc>:
    64d4:	012136        	entry	a1, 144
    64d7:	05bd           	mov.n	a11, a5
    64d9:	04dd           	mov.n	a13, a4
    64db:	e7f7c1        	l32r	a12, 4b8 (b082 <fftorder_512_12b+0x2>)
    64de:	0a0c           	movi.n	a10, 0
    64e0:	02fd           	mov.n	a15, a2
    64e2:	f0a082        	movi	a8, 240
    64e5:	032d           	mov.n	a2, a3
    64e7:	13a876        	loopgtz	a8, 64fe <two_mic_WB_NR_NSN_proc+0x2a>
    64ea:	2d8d           	ae_l16si.n	a8, a13, 0
    64ec:	2bed           	ae_l16si.n	a14, a11, 0
    64ee:	bb2b           	addi.n	a11, a11, 2
    64f0:	dd2b           	addi.n	a13, a13, 2
    64f2:	60e1e0        	abs	a14, a14
    64f5:	608180        	abs	a8, a8
    64f8:	20aa80        	or	a10, a10, a8
    64fb:	20aae0        	or	a10, a10, a14

000064fe <two_mic_WB_NR_NSN_proc+0x2a>:
    64fe:	31f9           	s32i.n	a15, a1, 12
    6500:	4129           	s32i.n	a2, a1, 16
    6502:	80a082        	movi	a8, 128
    6505:	070c           	movi.n	a7, 0
    6507:	14df92        	addmi	a9, a15, 0x1400
    650a:	40eaa0        	nsa	a10, a10
    650d:	05d262        	addmi	a6, a2, 0x500
    6510:	3c26d2        	l32i	a13, a6, 240
    6513:	f0caa2        	addi	a10, a10, -16
    6516:	fcc9b2        	addi	a11, a9, -4
    6519:	d1b9           	s32i.n	a11, a1, 52
    651b:	3b2992        	l32i	a9, a9, 236
    651e:	04d2b2        	addmi	a11, a2, 0x400
    6521:	53aa70        	max	a10, a10, a7
    6524:	cccbe2        	addi	a14, a11, -52
    6527:	eccbb2        	addi	a11, a11, -20
    652a:	442b84        	ae_lp16x2f.i	aep2, a11, -32
    652d:	159fb2        	l16si	a11, a15, 42
    6530:	a1a9           	s32i.n	a10, a1, 40
    6532:	441d04        	ae_lp16x2f.i	aep1, a13, 0
    6535:	43aab0        	min	a10, a10, a11
    6538:	b1a9           	s32i.n	a10, a1, 44
    653a:	0316a4        	wur.ae_sar	a10
    653d:	002fa2        	l32i	a10, a15, 0
    6540:	440904        	ae_lp16x2f.i	aep0, a9, 0
    6543:	f92b93b77f 	{ or	a11, a7, a7; ae_sllssp24s	aep2, aep2 }
    6548:	f827c04a3e 	{ addi	a3, a10, 4; ae_sllssp24s	aep1, aep1 }
    654d:	2ca876        	loopgtz	a8, 657d <two_mic_WB_NR_NSN_proc+0xa9>
    6550:	019844        	ae_mulfp24s.hh	aeq3, aep1, aep0
    6553:	01a044        	ae_mulfp24s.hh	aeq2, aep2, aep0
    6556:	62b3b4        	ae_sq32f.x	aeq3, a3, a11
    6559:	62aab4        	ae_sq32f.x	aeq2, a10, a11
    655c:	2cfd           	ae_l16si.n	a15, a12, 0
    655e:	011874        	ae_mulfp24s.ll	aeq1, aep1, aep0
    6561:	012074        	ae_mulfp24s.ll	aeq0, aep2, aep0
    6564:	6293f4        	ae_sq32f.x	aeq1, a3, a15
    6567:	628af4        	ae_sq32f.x	aeq0, a10, a15
    656a:	448914        	ae_lp16x2f.iu	aep0, a9, 4
    656d:	44bd14        	ae_lp16x2f.iu	aep3, a13, 4
    6570:	44ce14        	ae_lp16x2f.iu	aep4, a14, 4
    6573:	f933a01cbe 	{ l16si	a11, a12, 2; ae_sllssp24s	aep2, aep4 }
    6578:	f82fc04cce 	{ addi	a12, a12, 4; ae_sllssp24s	aep1, aep3 }
    657d:	41e8           	l32i.n	a14, a1, 16
    657f:	e0a1d2        	movi	a13, 0x1e0
    6582:	3c26f2        	l32i	a15, a6, 240
    6585:	04de22        	addmi	a2, a14, 0x400
    6588:	c8c222        	addi	a2, a2, -56
    658b:	451fd4        	ae_lp16x2f.x	aep1, a15, a13
    658e:	06dee2        	addmi	a14, a14, 0x600
    6591:	ccce82        	addi	a8, a14, -52
    6594:	02dfd2        	addmi	a13, a15, 0x200
    6597:	e0cdd2        	addi	a13, a13, -32
    659a:	fccff2        	addi	a15, a15, -4
    659d:	accee2        	addi	a14, a14, -84
    65a0:	442884        	ae_lp16x2f.i	aep2, a8, -32
    65a3:	fd20c0088f 	{ movi	a8, 8; ae_zerop48	aep3 }
    65a8:	13a876        	loopgtz	a8, 65bf <two_mic_WB_NR_NSN_proc+0xeb>
    65ab:	fe2833a21f 	{ ae_sp16x2f.iu	aep2, a2, 4; ae_abssp24s	aep4, aep1 }
    65b0:	fe48739f1f 	{ ae_sp16x2f.iu	aep1, a15, 4; ae_abssp24s	aep5, aep2 }
    65b5:	ddac6dae1f 	{ ae_lp16x2f.iu	aep2, a14, 4; ae_orp48	aep3, aep3, aep5 }
    65ba:	dd8c6d9d1f 	{ ae_lp16x2f.iu	aep1, a13, 4; ae_orp48	aep3, aep3, aep4 }
    65bf:	4489f4        	ae_lp16x2f.iu	aep0, a9, -4
    65c2:	08a082        	movi	a8, 8
    65c5:	3aa876        	loopgtz	a8, 6603 <two_mic_WB_NR_NSN_proc+0x12f>
    65c8:	0b20e4        	ae_sllssp24s	aep6, aep2
    65cb:	0b10f4        	ae_sllssp24s	aep7, aep1
    65ce:	eb1cf3a21f 	{ ae_sp16x2f.iu	aep2, a2, 4; ae_mulfp24s.hl	aeq3, aep7, aep0 }
    65d3:	eb18b39f1f 	{ ae_sp16x2f.iu	aep1, a15, 4; ae_mulfp24s.hl	aeq2, aep6, aep0 }
    65d8:	62b3b4        	ae_sq32f.x	aeq3, a3, a11
    65db:	62aab4        	ae_sq32f.x	aeq2, a10, a11
    65de:	2cbd           	ae_l16si.n	a11, a12, 0
    65e0:	017864        	ae_mulfp24s.lh	aeq1, aep7, aep0
    65e3:	016064        	ae_mulfp24s.lh	aeq0, aep6, aep0
    65e6:	6293b4        	ae_sq32f.x	aeq1, a3, a11
    65e9:	628ab4        	ae_sq32f.x	aeq0, a10, a11
    65ec:	4489f4        	ae_lp16x2f.iu	aep0, a9, -4

000065ef <two_mic_WB_NR_NSN_proc+0x11b>:
    65ef:	fe486dae1f 	{ ae_lp16x2f.iu	aep2, a14, 4; ae_abssp24s	aep5, aep2 }
    65f4:	fe282d9d1f 	{ ae_lp16x2f.iu	aep1, a13, 4; ae_abssp24s	aep4, aep1 }
    65f9:	ddac601cbe 	{ l16si	a11, a12, 2; ae_orp48	aep3, aep3, aep5 }
    65fe:	dd8c404cce 	{ addi	a12, a12, 4; ae_orp48	aep3, aep3, aep4 }

00006603 <two_mic_WB_NR_NSN_proc+0x12f>:
    6603:	00bdd4        	ae_cvta32p24.h	a13, aep3
    6606:	0038d4        	ae_cvta32p24.l	a8, aep3
    6609:	a1e8           	l32i.n	a14, a1, 40
    660b:	2088d0        	or	a8, a8, a13
    660e:	40e880        	nsa	a8, a8
    6611:	43ee80        	min	a14, a14, a8
    6614:	3188           	l32i.n	a8, a1, 12
    6616:	78a0d2        	movi	a13, 120
    6619:	1558e2        	s16i	a14, a8, 42
    661c:	442404        	ae_lp16x2f.i	aep2, a4, 0
    661f:	441504        	ae_lp16x2f.i	aep1, a5, 0
    6622:	30ad76        	loopgtz	a13, 6656 <two_mic_WB_NR_NSN_proc+0x182>
    6625:	0b20b4        	ae_sllssp24s	aep3, aep2
    6628:	0b10c4        	ae_sllssp24s	aep4, aep1
    662b:	eb10f3a21f 	{ ae_sp16x2f.iu	aep2, a2, 4; ae_mulfp24s.hl	aeq3, aep4, aep0 }
    6630:	eb0cb39f1f 	{ ae_sp16x2f.iu	aep1, a15, 4; ae_mulfp24s.hl	aeq2, aep3, aep0 }
    6635:	62b3b4        	ae_sq32f.x	aeq3, a3, a11
    6638:	62aab4        	ae_sq32f.x	aeq2, a10, a11
    663b:	2ced           	ae_l16si.n	a14, a12, 0
    663d:	014864        	ae_mulfp24s.lh	aeq1, aep4, aep0
    6640:	013064        	ae_mulfp24s.lh	aeq0, aep3, aep0
    6643:	6293e4        	ae_sq32f.x	aeq1, a3, a14
    6646:	628ae4        	ae_sq32f.x	aeq0, a10, a14
    6649:	4489f4        	ae_lp16x2f.iu	aep0, a9, -4
    664c:	44a414        	ae_lp16x2f.iu	aep2, a4, 4
    664f:	3cbd           	ae_l16si.n	a11, a12, 2
    6651:	449514        	ae_lp16x2f.iu	aep1, a5, 4
    6654:	cc4b           	addi.n	a12, a12, 4
    6656:	00a2b2        	movi	a11, 0x200
    6659:	8c0c           	movi.n	a12, 8
    665b:	1d0c           	movi.n	a13, 1
    665d:	31a8           	l32i.n	a10, a1, 12
    665f:	e79781        	l32r	a8, 4bc (8978 <sw_fft_32b_2811>)
    6662:	1e0c           	movi.n	a14, 1
    6664:	0aa8           	l32i.n	a10, a10, 0
    6666:	0008e0        	callx8	a8
    6669:	00a1e2        	movi	a14, 0x100
    666c:	4138           	l32i.n	a3, a1, 16
    666e:	3e2692        	l32i	a9, a6, 248
    6671:	b1d8           	l32i.n	a13, a1, 44
    6673:	31b8           	l32i.n	a11, a1, 12
    6675:	f8c992        	addi	a9, a9, -8
    6678:	c0dda0        	sub	a13, a13, a10
    667b:	002bc2        	l32i	a12, a11, 0
    667e:	3d26a2        	l32i	a10, a6, 244
    6681:	0753d2        	s16i	a13, a3, 14
    6684:	600c24        	ae_lq32f.i	aeq0, a12, 8
    6687:	08ccd2        	addi	a13, a12, 8
    668a:	10dcc2        	addmi	a12, a12, 0x1000
    668d:	605ce4        	ae_lq32f.iu	aeq1, a12, -8
    6690:	fa660fcaae 	{ addi	a10, a10, -4; ae_addq56	aeq2, aeq0, aeq1 }
    6695:	2bae76        	loopgtz	a14, 66c4 <two_mic_WB_NR_NSN_proc+0x1f0>
    6698:	60cd14        	ae_lq32f.i	aeq3, a13, 4
    669b:	35a074        	ae_sraiq56	aeq2, aeq2, 1

0000669e <two_mic_WB_NR_NSN_proc+0x1ca>:
    669e:	f92afd0c1f 	{ ae_lq32f.i	aeq0, a12, 4; ae_subq56	aeq1, aeq1, aeq0 }
    66a3:	355074        	ae_sraiq56	aeq1, aeq1, 1
    66a6:	fa7a39aa1f 	{ ae_sq32f.i	aeq2, a10, 4; ae_addq56	aeq2, aeq3, aeq0 }
    66ab:	35a074        	ae_sraiq56	aeq2, aeq2, 1
    66ae:	621934        	ae_sq32f.i	aeq1, a9, 12
    66b1:	fb3afd1d2f 	{ ae_lq32f.iu	aeq0, a13, 8; ae_subq56	aeq3, aeq3, aeq0 }
    66b6:	605ce4        	ae_lq32f.iu	aeq1, a12, -8
    66b9:	35f074        	ae_sraiq56	aeq3, aeq3, 1
    66bc:	627a24        	ae_sq32f.iu	aeq3, a10, 8
    66bf:	fa6639e92f 	{ ae_sq32f.iu	aeq2, a9, 8; ae_addq56	aeq2, aeq0, aeq1 }

000066c4 <two_mic_WB_NR_NSN_proc+0x1f0>:
    66c4:	01a092        	movi	a9, 1
    66c7:	0793a2        	l16si	a10, a3, 14
    66ca:	3e2682        	l32i	a8, a6, 248
    66cd:	3f26c2        	l32i	a12, a6, 252
    66d0:	3d26f2        	l32i	a15, a6, 244
    66d3:	18c8d2        	addi	a13, a8, 24
    66d6:	5c0834        	ae_lp24x2f.i	aep0, a8, 24
    66d9:	18cfe2        	addi	a14, a15, 24
    66dc:	fcccc2        	addi	a12, a12, -4
    66df:	5c5f34        	ae_lp24x2f.i	aep5, a15, 24
    66e2:	11aaf0        	slli	a10, a10, 1
    66e5:	c099a0        	sub	a9, a9, a10
    66e8:	085392        	s16i	a9, a3, 16
    66eb:	4026a2        	l32i	a10, a6, 0x100
    66ee:	a15692        	s16i	a9, a6, 0x142
    66f1:	eea092        	movi	a9, 238
    66f4:	f0b78fcaae 	{ addi	a10, a10, -4; ae_mulzaap24s.hh.ll	aeq0, aep5, aep5 }
    66f9:	10a976        	loopgtz	a9, 670d <two_mic_WB_NR_NSN_proc+0x239>
    66fc:	048024        	ae_mulzaap24s.hh.ll	aeq2, aep0, aep0
    66ff:	624c14        	ae_sq32f.iu	aeq0, a12, 4
    6702:	626a14        	ae_sq32f.iu	aeq2, a10, 4
    6705:	5cee14        	ae_lp24x2f.iu	aep6, a14, 8
    6708:	f0dbaf8d1f 	{ ae_lp24x2f.iu	aep0, a13, 8; ae_mulzaap24s.hh.ll	aeq0, aep6, aep6 }
    670d:	33ad           	ae_l16si.n	a10, a3, 2
    670f:	023c           	movi.n	a2, 48
    6711:	024ae6        	bgei	a10, 4, 6717 <two_mic_WB_NR_NSN_proc+0x243>
    6714:	01ae06        	j	6dd0 <two_mic_WB_NR_NSN_proc+0x8fc>
    6717:	929692        	l16si	a9, a6, 0x124
    671a:	990b           	addi.n	a9, a9, -1
    671c:	539970        	max	a9, a9, a7

0000671f <two_mic_WB_NR_NSN_proc+0x24b>:
    671f:	925692        	s16i	a9, a6, 0x124

00006722 <two_mic_WB_NR_NSN_proc+0x24e>:
    6722:	0493c2        	l16si	a12, a3, 8
    6725:	8a7c           	movi.n	a10, -8
    6727:	0f2ac7        	blt	a10, a12, 673a <two_mic_WB_NR_NSN_proc+0x266>
    672a:	9396d2        	l16si	a13, a6, 0x126
    672d:	e764a1        	l32r	a10, 4c0 (7f5c00a4 <_end+0x7f5b4268>)
    6730:	11dd00        	slli	a13, a13, 16
    6733:	364d34        	ae_cvtq48a32s	aeq1, a13
    6736:	000246        	j	6743 <two_mic_WB_NR_NSN_proc+0x26f>

00006739 <two_mic_WB_NR_NSN_proc+0x265>:
	...

0000673a <two_mic_WB_NR_NSN_proc+0x266>:
    673a:	e762a1        	l32r	a10, 4c4 (7ff00010 <_end+0x7fef41d4>)
    673d:	e66fe1        	l32r	a14, fc (7fff0000 <_end+0x7ffe41c4>)
    6740:	364e34        	ae_cvtq48a32s	aeq1, a14

00006743 <two_mic_WB_NR_NSN_proc+0x26f>:
    6743:	30faa4        	ae_cvtp24a16x2.lh	aep7, a10, a10
    6746:	d1a8           	l32i.n	a10, a1, 52
    6748:	15db92        	addmi	a9, a11, 0x1500
    674b:	412aa2        	l32i	a10, a10, 0x104
    674e:	360a34        	ae_cvtq48a32s	aeq0, a10
    6751:	c17714        	ae_mulzaafq32sp16s.lh	aeq0, aeq0, aep7, aeq1, aep7
    6754:	e75d81        	l32r	a8, 4c8 (8c28 <Pitch_2Mic>)
    6757:	ff2453a33f 	{ or	a10, a3, a3; ae_roundsq32asym	aeq3, aeq0 }
    675c:	623904        	ae_sq32f.i	aeq3, a9, 0
    675f:	0008e0        	callx8	a8
    6762:	e65741        	l32r	a4, c0 (8000 <ifft_wo+0x108>)
    6765:	e75951        	l32r	a5, 4cc (20000000 <_end+0x1fff41c4>)
    6768:	4126c2        	l32i	a12, a6, 0x104
    676b:	4326a2        	l32i	a10, a6, 0x10c
    676e:	8d16b2        	l16ui	a11, a6, 0x11a
    6771:	fcccc2        	addi	a12, a12, -4
    6774:	fc208fcaae 	{ addi	a10, a10, -4; ae_zerop48	aep0 }
    6779:	122bb6        	bltui	a11, 2, 678f <two_mic_WB_NR_NSN_proc+0x2bb>
    677c:	4826b2        	l32i	a11, a6, 0x120
    677f:	e754e1        	l32r	a14, 4d0 (4000000 <_end+0x3ff41c4>)
    6782:	022eb7        	blt	a14, a11, 6788 <two_mic_WB_NR_NSN_proc+0x2b4>
    6785:	019686        	j	6de3 <two_mic_WB_NR_NSN_proc+0x90f>
    6788:	5f0c           	movi.n	a15, 5
    678a:	e1f9           	s32i.n	a15, a1, 56
    678c:	019886        	j	6df2 <two_mic_WB_NR_NSN_proc+0x91e>

0000678f <two_mic_WB_NR_NSN_proc+0x2bb>:
    678f:	364534        	ae_cvtq48a32s	aeq1, a5
    6792:	eea082        	movi	a8, 238
    6795:	05a876        	loopgtz	a8, 679e <two_mic_WB_NR_NSN_proc+0x2ca>
    6798:	468c14        	ae_sp16x2f.iu	aep0, a12, 4
    679b:	625a14        	ae_sq32f.iu	aeq1, a10, 4

0000679e <two_mic_WB_NR_NSN_proc+0x2ca>:
    679e:	e74de1        	l32r	a14, 4d4 (b782 <sb_h2ir+0x22>)
    67a1:	190c           	movi.n	a9, 1
    67a3:	e199           	s32i.n	a9, a1, 56

000067a5 <two_mic_WB_NR_NSN_proc+0x2d1>:
    67a5:	4526a2        	l32i	a10, a6, 0x114
    67a8:	7f9eb2        	l16si	a11, a14, 254
    67ab:	fecad2        	addi	a13, a10, -2
    67ae:	081ba6        	blti	a11, 1, 67ba <two_mic_WB_NR_NSN_proc+0x2e6>
    67b1:	02ab76        	loopgtz	a11, 67b7 <two_mic_WB_NR_NSN_proc+0x2e3>
    67b4:	428d14        	ae_sp16f.l.iu	aep0, a13, 2

000067b7 <two_mic_WB_NR_NSN_proc+0x2e3>:
    67b7:	4526a2        	l32i	a10, a6, 0x114

000067ba <two_mic_WB_NR_NSN_proc+0x2e6>:
    67ba:	115bf0        	slli	a5, a11, 1
    67bd:	0893e2        	l16si	a14, a3, 16
    67c0:	3f26c2        	l32i	a12, a6, 252
    67c3:	e653f1        	l32r	a15, 110 (4000 <find_phase+0x8>)
    67c6:	90dba0        	addx2	a13, a11, a10
    67c9:	364f34        	ae_cvtq48a32s	aeq1, a15
    67cc:	11fbe0        	slli	a15, a11, 2
    67cf:	fecdd2        	addi	a13, a13, -2
    67d2:	4026a2        	l32i	a10, a6, 0x100
    67d5:	a0cbc0        	addx4	a12, a11, a12
    67d8:	60e0e0        	neg	a14, a14
    67db:	fc24fe9ecf 	{ ae_slaasq56s	aeq3, aeq1, a14; nop }
    67e0:	fcccc2        	addi	a12, a12, -4
    67e3:	601c14        	ae_lq32f.iu	aeq0, a12, 4
    67e6:	eda0e2        	movi	a14, 237
    67e9:	a0aba0        	addx4	a10, a11, a10
    67ec:	fccaa2        	addi	a10, a10, -4
    67ef:	605a14        	ae_lq32f.iu	aeq1, a10, 4
    67f2:	502eb7        	blt	a14, a11, 6846 <two_mic_WB_NR_NSN_proc+0x372>
    67f5:	eea0e2        	movi	a14, 238
    67f8:	c08eb0        	sub	a8, a14, a11
    67fb:	e68cb1        	l32r	a11, 22c (7fff <ifft_wo+0x107>)
    67fe:	301bb4        	ae_cvtp24a16x2.ll	aep1, a11, a11
    6801:	41a876        	loopgtz	a8, 6846 <two_mic_WB_NR_NSN_proc+0x372>
    6804:	098104        	ae_ltq56s	b0, aeq1, aeq0
    6807:	fae63f19af 	{ ae_nsaq56s	a9, aeq1; ae_addq56	aeq2, aeq0, aeq3 }
    680c:	366804        	ae_nsaq56s	a8, aeq2
    680f:	0914b4        	ae_movp48	aep3, aep1
    6812:	270076        	bf	b0, 683d <two_mic_WB_NR_NSN_proc+0x369>
    6815:	438890        	min	a8, a8, a9
    6818:	e9c892        	addi	a9, a8, -23
    681b:	fc24fea98f 	{ ae_slaasq56s	aeq2, aeq2, a9; nop }
    6820:	36a904        	ae_trunca32q48	a9, aeq2
    6823:	f8c882        	addi	a8, a8, -8
    6826:	345894        	ae_sllaq56	aeq1, aeq1, a8
    6829:	49cc           	bnez.n	a9, 6831 <two_mic_WB_NR_NSN_proc+0x35d>
    682b:	e68091        	l32r	a9, 22c (7fff <ifft_wo+0x107>)
    682e:	000146        	j	6837 <two_mic_WB_NR_NSN_proc+0x363>

00006831 <two_mic_WB_NR_NSN_proc+0x35d>:
    6831:	369804        	ae_trunca32q48	a8, aeq1
    6834:	d29890        	quos	a9, a8, a9

00006837 <two_mic_WB_NR_NSN_proc+0x363>:
    6837:	4389b0        	min	a8, a9, a11
    683a:	303884        	ae_cvtp24a16x2.ll	aep3, a8, a8

0000683d <two_mic_WB_NR_NSN_proc+0x369>:
    683d:	605a14        	ae_lq32f.iu	aeq1, a10, 4
    6840:	601c14        	ae_lq32f.iu	aeq0, a12, 4
    6843:	42bd14        	ae_sp16f.l.iu	aep3, a13, 2

00006846 <two_mic_WB_NR_NSN_proc+0x372>:
    6846:	e198           	l32i.n	a9, a1, 56
    6848:	e90b           	addi.n	a14, a9, -1
    684a:	0d29a6        	blti	a9, 2, 685b <two_mic_WB_NR_NSN_proc+0x387>
    684d:	0b0c           	movi.n	a11, 0
    684f:	442692        	l32i	a9, a6, 0x110
    6852:	05ae76        	loopgtz	a14, 685b <two_mic_WB_NR_NSN_proc+0x387>
    6855:	a9ba           	add.n	a10, a9, a11
    6857:	0a79           	s32i.n	a7, a10, 0
    6859:	bb4b           	addi.n	a11, a11, 4

0000685b <two_mic_WB_NR_NSN_proc+0x387>:
    685b:	e61471        	l32r	a7, ac (b880 <wb_sb_ptn>)
    685e:	7159           	s32i.n	a5, a1, 28
    6860:	3f2682        	l32i	a8, a6, 252
    6863:	e1b8           	l32i.n	a11, a1, 56
    6865:	4026d2        	l32i	a13, a6, 0x100
    6868:	c8fa           	add.n	a12, a8, a15
    686a:	6028f4        	ae_lq32f.x	aeq0, a8, a15
    686d:	adfa           	add.n	a10, a13, a15
    686f:	606df4        	ae_lq32f.x	aeq1, a13, a15
    6872:	6a9be6        	bgei	a11, 10, 68e0 <two_mic_WB_NR_NSN_proc+0x40c>
    6875:	11bee0        	slli	a11, a14, 2
    6878:	90de70        	addx2	a13, a14, a7
    687b:	ff2481275e 	{ addi	a5, a7, 18; ae_zeroq56	aeq3 }
    6880:	fe1c5461ff 	{ s32i.n	a15, a1, 24; ae_movq56	aeq2, aeq3 }

00006885 <two_mic_WB_NR_NSN_proc+0x3b1>:
    6885:	2dfd           	ae_l16si.n	a15, a13, 0
    6887:	3d9d           	ae_l16si.n	a9, a13, 2
    6889:	dd2b           	addi.n	a13, a13, 2
    688b:	c099f0        	sub	a9, a9, a15
    688e:	0ca976        	loopgtz	a9, 689e <two_mic_WB_NR_NSN_proc+0x3ca>
    6891:	01a8c4        	ae_addq56	aeq2, aeq2, aeq0
    6894:	f806bd3a1f 	{ ae_lq32f.iu	aeq1, a10, 4; ae_minq56s	aeq0, aeq1, aeq0 }
    6899:	fb7a3d1c1f 	{ ae_lq32f.iu	aeq0, a12, 4; ae_addq56	aeq3, aeq3, aeq0 }

0000689e <two_mic_WB_NR_NSN_proc+0x3ca>:
    689e:	367904        	ae_nsaq56s	a9, aeq3
    68a1:	366804        	ae_nsaq56s	a8, aeq2
    68a4:	438890        	min	a8, a8, a9
    68a7:	f8c892        	addi	a9, a8, -8
    68aa:	fc24feb9cf 	{ ae_slaasq56s	aeq3, aeq3, a9; nop }
    68af:	e9c882        	addi	a8, a8, -23
    68b2:	fc24fea88f 	{ ae_slaasq56s	aeq2, aeq2, a8; nop }
    68b7:	36a904        	ae_trunca32q48	a9, aeq2
    68ba:	36bf04        	ae_trunca32q48	a15, aeq3
    68bd:	49cc           	bnez.n	a9, 68c5 <two_mic_WB_NR_NSN_proc+0x3f1>
    68bf:	e600f1        	l32r	a15, c0 (8000 <ifft_wo+0x108>)
    68c2:	000086        	j	68c8 <two_mic_WB_NR_NSN_proc+0x3f4>

000068c5 <two_mic_WB_NR_NSN_proc+0x3f1>:
    68c5:	d2ff90        	quos	a15, a15, a9

000068c8 <two_mic_WB_NR_NSN_proc+0x3f4>:
    68c8:	442692        	l32i	a9, a6, 0x110
    68cb:	438f40        	min	a8, a15, a4
    68ce:	99ba           	add.n	a9, a9, a11
    68d0:	ff2494098f 	{ s32i.n	a8, a9, 0; ae_zeroq56	aeq3 }
    68d5:	fe1c404bbe 	{ addi	a11, a11, 4; ae_movq56	aeq2, aeq3 }
    68da:	a79d57        	bne	a13, a5, 6885 <two_mic_WB_NR_NSN_proc+0x3b1>
    68dd:	000046        	j	68e2 <two_mic_WB_NR_NSN_proc+0x40e>

000068e0 <two_mic_WB_NR_NSN_proc+0x40c>:
    68e0:	61f9           	s32i.n	a15, a1, 24

000068e2 <two_mic_WB_NR_NSN_proc+0x40e>:
    68e2:	0593b2        	l16si	a11, a3, 10
    68e5:	33ad           	ae_l16si.n	a10, a3, 2
    68e7:	021be6        	bgei	a11, 1, 68ed <two_mic_WB_NR_NSN_proc+0x419>
    68ea:	01a306        	j	6f7a <two_mic_WB_NR_NSN_proc+0xaa6>
    68ed:	3b26b2        	l32i	a11, a6, 236
    68f0:	11aaf0        	slli	a10, a10, 1
    68f3:	6bad           	ae_s16i.n	a10, a11, 0
    68f5:	33dd           	ae_l16si.n	a13, a3, 2
    68f7:	11ddf0        	slli	a13, a13, 1
    68fa:	7bdd           	ae_s16i.n	a13, a11, 2
    68fc:	33cd           	ae_l16si.n	a12, a3, 2
    68fe:	11ccf0        	slli	a12, a12, 1
    6901:	025bc2        	s16i	a12, a11, 4
    6904:	029392        	l16si	a9, a3, 4
    6907:	338d           	ae_l16si.n	a8, a3, 2
    6909:	889a           	add.n	a8, a8, a9
    690b:	035b82        	s16i	a8, a11, 6
    690e:	0293f2        	l16si	a15, a3, 4
    6911:	11fff0        	slli	a15, a15, 1
    6914:	045bf2        	s16i	a15, a11, 8
    6917:	0393d2        	l16si	a13, a3, 6
    691a:	0293c2        	l16si	a12, a3, 4
    691d:	ccda           	add.n	a12, a12, a13
    691f:	055bc2        	s16i	a12, a11, 10
    6922:	039392        	l16si	a9, a3, 6
    6925:	1199f0        	slli	a9, a9, 1
    6928:	065b92        	s16i	a9, a11, 12
    692b:	049382        	l16si	a8, a3, 8
    692e:	1188f0        	slli	a8, a8, 1
    6931:	075b82        	s16i	a8, a11, 14
    6934:	0493f2        	l16si	a15, a3, 8
    6937:	e1d8           	l32i.n	a13, a1, 56
    6939:	e5f4c1        	l32r	a12, 10c (b860 <wb_score_bands>)
    693c:	11fff0        	slli	a15, a15, 1
    693f:	085bf2        	s16i	a15, a11, 16
    6942:	411d66        	bnei	a13, 1, 6987 <two_mic_WB_NR_NSN_proc+0x4b3>
    6945:	4426f2        	l32i	a15, a6, 0x110
    6948:	e6e481        	l32r	a8, 4d8 (7c28 <NR_WienerFilter+0x14>)
    694b:	0fc8           	l32i.n	a12, a15, 0
    694d:	e6e3d1        	l32r	a13, 4dc (7998 <NR_NoiseWithGain+0x64>)
    6950:	0228c7        	blt	a8, a12, 6956 <two_mic_WB_NR_NSN_proc+0x482>
    6953:	01aa06        	j	6fff <two_mic_WB_NR_NSN_proc+0xb2b>
    6956:	8a9d           	ae_sext16	a9, a10
    6958:	12c992        	addi	a9, a9, 18

0000695b <two_mic_WB_NR_NSN_proc+0x487>:
    695b:	6b9d           	ae_s16i.n	a9, a11, 0

0000695d <two_mic_WB_NR_NSN_proc+0x489>:
    695d:	1ff8           	l32i.n	a15, a15, 4
    695f:	e6e081        	l32r	a8, 4e0 (e666 <_end+0x282a>)
    6962:	53bcf0        	max	a11, a12, a15
    6965:	acfa           	add.n	a10, a12, a15
    6967:	0228a7        	blt	a8, a10, 696d <two_mic_WB_NR_NSN_proc+0x499>
    696a:	019b86        	j	6fdc <two_mic_WB_NR_NSN_proc+0xb08>
    696d:	022db7        	blt	a13, a11, 6973 <two_mic_WB_NR_NSN_proc+0x49f>
    6970:	019a06        	j	6fdc <two_mic_WB_NR_NSN_proc+0xb08>
    6973:	3b26a2        	l32i	a10, a6, 236
    6976:	3a9d           	ae_l16si.n	a9, a10, 2
    6978:	2abd           	ae_l16si.n	a11, a10, 0
    697a:	18c992        	addi	a9, a9, 24
    697d:	24cbb2        	addi	a11, a11, 36
    6980:	6abd           	ae_s16i.n	a11, a10, 0

00006982 <two_mic_WB_NR_NSN_proc+0x4ae>:
    6982:	7a9d           	ae_s16i.n	a9, a10, 2
    6984:	017706        	j	6f64 <two_mic_WB_NR_NSN_proc+0xa90>

00006987 <two_mic_WB_NR_NSN_proc+0x4b3>:
    6987:	022de6        	bgei	a13, 2, 698d <two_mic_WB_NR_NSN_proc+0x4b9>
    698a:	017586        	j	6f64 <two_mic_WB_NR_NSN_proc+0xa90>
    698d:	0c9d           	mov.n	a9, a12
    698f:	0a0c           	movi.n	a10, 0
    6991:	050c           	movi.n	a5, 0
    6993:	0eae76        	loopgtz	a14, 69a5 <two_mic_WB_NR_NSN_proc+0x4d1>
    6996:	dbaa           	add.n	a13, a11, a10
    6998:	6d2d           	ae_s16i.n	a2, a13, 0
    699a:	29cd           	ae_l16si.n	a12, a9, 0
    699c:	aa2b           	addi.n	a10, a10, 2
    699e:	992b           	addi.n	a9, a9, 2
    69a0:	11cc00        	slli	a12, a12, 16
    69a3:	55ca           	add.n	a5, a5, a12

000069a5 <two_mic_WB_NR_NSN_proc+0x4d1>:
    69a5:	0993d2        	l16si	a13, a3, 18
    69a8:	0893c2        	l16si	a12, a3, 16
    69ab:	14c342        	addi	a4, a3, 20
    69ae:	1661e2        	s32i	a14, a1, 88
    69b1:	181cd7        	beq	a12, a13, 69cd <two_mic_WB_NR_NSN_proc+0x4f9>
    69b4:	4026a2        	l32i	a10, a6, 0x100
    69b7:	e6cb81        	l32r	a8, 4e4 (71c8 <equal_power>)
    69ba:	04bd           	mov.n	a11, a4
    69bc:	eea0e2        	movi	a14, 238
    69bf:	0008e0        	callx8	a8
    69c2:	fc20b161ee 	{ l32i	a14, a1, 88; ae_zerop48	aep0 }
    69c7:	0953a2        	s16i	a10, a3, 18
    69ca:	0853a2        	s16i	a10, a3, 16

000069cd <two_mic_WB_NR_NSN_proc+0x4f9>:
    69cd:	7188           	l32i.n	a8, a1, 28
    69cf:	4526f2        	l32i	a15, a6, 0x114
    69d2:	4326c2        	l32i	a12, a6, 0x10c
    69d5:	df8a           	add.n	a13, a15, a8
    69d7:	411f84        	ae_lp16f.x	aep1, a15, a8
    69da:	61f8           	l32i.n	a15, a1, 24
    69dc:	4126b2        	l32i	a11, a6, 0x104
    69df:	e198           	l32i.n	a9, a1, 56
    69e1:	ccfa           	add.n	a12, a12, a15
    69e3:	bbfa           	add.n	a11, a11, a15
    69e5:	fccbb2        	addi	a11, a11, -4
    69e8:	fcccc2        	addi	a12, a12, -4
    69eb:	0299a6        	blti	a9, 10, 69f1 <two_mic_WB_NR_NSN_proc+0x51d>
    69ee:	002d86        	j	6aa8 <two_mic_WB_NR_NSN_proc+0x5d4>
    69f1:	113ef0        	slli	a3, a14, 1
    69f4:	11aee0        	slli	a10, a14, 2
    69f7:	e5ad71        	l32r	a7, ac (b880 <wb_sb_ptn>)
    69fa:	e5c4f1        	l32r	a15, 10c (b860 <wb_score_bands>)
    69fd:	e6ba91        	l32r	a9, 4e8 (b872 <wb_score_bands+0x12>)
    6a00:	106192        	s32i	a9, a1, 64
    6a03:	90fef0        	addx2	a15, a14, a15
    6a06:	907e70        	addx2	a7, a14, a7
    6a09:	fac992        	addi	a9, a9, -6
    6a0c:	f199           	s32i.n	a9, a1, 60

00006a0e <two_mic_WB_NR_NSN_proc+0x53a>:
    6a0e:	3b26e2        	l32i	a14, a6, 236
    6a11:	ee3a           	add.n	a14, a14, a3
    6a13:	2eed           	ae_l16si.n	a14, a14, 0
    6a15:	d0af22        	movi	a2, -48
    6a18:	482c           	movi.n	a8, 36
    6a1a:	0228e7        	blt	a8, a14, 6a20 <two_mic_WB_NR_NSN_proc+0x54c>
    6a1d:	003d06        	j	6b15 <two_mic_WB_NR_NSN_proc+0x641>
    6a20:	0e3c           	movi.n	a14, 48

00006a22 <two_mic_WB_NR_NSN_proc+0x54e>:
    6a22:	2f9d           	ae_l16si.n	a9, a15, 0
    6a24:	083c           	movi.n	a8, 48
    6a26:	d0af22        	movi	a2, -48
    6a29:	53ee20        	max	a14, a14, a2
    6a2c:	43ee80        	min	a14, a14, a8
    6a2f:	8299e0        	mull	a9, a9, a14
    6a32:	55a522        	movi	a2, 0x555
    6a35:	829920        	mull	a9, a9, a2
    6a38:	372d           	ae_l16si.n	a2, a7, 2
    6a3a:	559a           	add.n	a5, a5, a9
    6a3c:	279d           	ae_l16si.n	a9, a7, 0
    6a3e:	aa4b           	addi.n	a10, a10, 4
    6a40:	02c332        	addi	a3, a3, 2
    6a43:	c02290        	sub	a2, a2, a9
    6a46:	189e87        	bne	a14, a8, 6a62 <two_mic_WB_NR_NSN_proc+0x58e>
    6a49:	90d2d0        	addx2	a13, a2, a13
    6a4c:	e6a891        	l32r	a9, 4ec (1b333333 <_end+0x1b3274f7>)
    6a4f:	360934        	ae_cvtq48a32s	aeq0, a9
    6a52:	401d04        	ae_lp16f.i	aep1, a13, 0
    6a55:	05a276        	loopgtz	a2, 6a5e <two_mic_WB_NR_NSN_proc+0x58a>
    6a58:	468b14        	ae_sp16x2f.iu	aep0, a11, 4
    6a5b:	624c14        	ae_sq32f.iu	aeq0, a12, 4

00006a5e <two_mic_WB_NR_NSN_proc+0x58a>:
    6a5e:	000e06        	j	6a9a <two_mic_WB_NR_NSN_proc+0x5c6>

00006a61 <two_mic_WB_NR_NSN_proc+0x58d>:
	...

00006a62 <two_mic_WB_NR_NSN_proc+0x58e>:
    6a62:	929682        	l16si	a8, a6, 0x124
    6a65:	797c           	movi.n	a9, -9
    6a67:	0218e6        	bgei	a8, 1, 6a6d <two_mic_WB_NR_NSN_proc+0x599>
    6a6a:	002186        	j	6af4 <two_mic_WB_NR_NSN_proc+0x620>
    6a6d:	0429e7        	blt	a9, a14, 6a75 <two_mic_WB_NR_NSN_proc+0x5a1>
    6a70:	f188           	l32i.n	a8, a1, 60
    6a72:	0938f7        	bltu	a8, a15, 6a7f <two_mic_WB_NR_NSN_proc+0x5ab>

00006a75 <two_mic_WB_NR_NSN_proc+0x5a1>:
    6a75:	e96c           	movi.n	a9, -18
    6a77:	7929e7        	blt	a9, a14, 6af4 <two_mic_WB_NR_NSN_proc+0x620>
    6a7a:	f188           	l32i.n	a8, a1, 60
    6a7c:	749f87        	bne	a15, a8, 6af4 <two_mic_WB_NR_NSN_proc+0x620>

00006a7f <two_mic_WB_NR_NSN_proc+0x5ab>:
    6a7f:	90d2d0        	addx2	a13, a2, a13
    6a82:	e69ce1        	l32r	a14, 4f4 (46666666 <_end+0x4665a82a>)
    6a85:	e69a91        	l32r	a9, 4f0 (2666599a <_end+0x26659b5e>)
    6a88:	30a994        	ae_cvtp24a16x2.lh	aep2, a9, a9
    6a8b:	360e34        	ae_cvtq48a32s	aeq0, a14
    6a8e:	401d04        	ae_lp16f.i	aep1, a13, 0
    6a91:	05a276        	loopgtz	a2, 6a9a <two_mic_WB_NR_NSN_proc+0x5c6>
    6a94:	46ab14        	ae_sp16x2f.iu	aep2, a11, 4
    6a97:	624c14        	ae_sq32f.iu	aeq0, a12, 4

00006a9a <two_mic_WB_NR_NSN_proc+0x5c6>:
    6a9a:	102192        	l32i	a9, a1, 64
    6a9d:	772b           	addi.n	a7, a7, 2
    6a9f:	02cff2        	addi	a15, a15, 2
    6aa2:	021f97        	beq	a15, a9, 6aa8 <two_mic_WB_NR_NSN_proc+0x5d4>
    6aa5:	ffd946        	j	6a0e <two_mic_WB_NR_NSN_proc+0x53a>

00006aa8 <two_mic_WB_NR_NSN_proc+0x5d4>:
    6aa8:	023c           	movi.n	a2, 48
    6aaa:	e58071        	l32r	a7, ac (b880 <wb_sb_ptn>)
    6aad:	eea0c2        	movi	a12, 238
    6ab0:	4126b2        	l32i	a11, a6, 0x104
    6ab3:	4026a2        	l32i	a10, a6, 0x100
    6ab6:	042132        	l32i	a3, a1, 16
    6ab9:	04d5e2        	addmi	a14, a5, 0x400
    6abc:	e68fd1        	l32r	a13, 4f8 (7ccccd <_end+0x7c0e91>)
    6abf:	399dd4        	ae_movpa24x2	aep1, a13, a13
    6ac2:	21ebe0        	srai	a14, a14, 11
    6ac5:	10c392        	addi	a9, a3, 16
    6ac8:	600a04        	ae_lq32f.i	aeq0, a10, 0
    6acb:	0653e2        	s16i	a14, a3, 12
    6ace:	442b04        	ae_lp16x2f.i	aep2, a11, 0
    6ad1:	1cac76        	loopgtz	a12, 6af1 <two_mic_WB_NR_NSN_proc+0x61d>
    6ad4:	19a824        	ae_eqp24	b2:b3, aep2, aep0
    6ad7:	605914        	ae_lq32f.iu	aeq1, a9, 4
    6ada:	089564        	ae_mulfq32sp24s.l	aeq2, aeq1, aep1
    6add:	050376        	bf	b3, 6ae6 <two_mic_WB_NR_NSN_proc+0x612>
    6ae0:	601a14        	ae_lq32f.iu	aeq0, a10, 4
    6ae3:	000106        	j	6aeb <two_mic_WB_NR_NSN_proc+0x617>

00006ae6 <two_mic_WB_NR_NSN_proc+0x612>:
    6ae6:	0d493d1a1f 	{ ae_lq32f.iu	aeq0, a10, 4; ae_mulzaafq32sp16s.lh	aeq2, aeq1, aep2, aeq0, aep2 }

00006aeb <two_mic_WB_NR_NSN_proc+0x617>:
    6aeb:	44ab14        	ae_lp16x2f.iu	aep2, a11, 4
    6aee:	622904        	ae_sq32f.i	aeq2, a9, 0

00006af1 <two_mic_WB_NR_NSN_proc+0x61d>:
    6af1:	003d86        	j	6beb <two_mic_WB_NR_NSN_proc+0x717>

00006af4 <two_mic_WB_NR_NSN_proc+0x620>:
    6af4:	d6af82        	movi	a8, -42
    6af7:	3928e7        	blt	a8, a14, 6b34 <two_mic_WB_NR_NSN_proc+0x660>
    6afa:	e681e1        	l32r	a14, 500 (30000000 <_end+0x2fff41c4>)
    6afd:	e67c91        	l32r	a9, 4f0 (2666599a <_end+0x26659b5e>)
    6b00:	e67f81        	l32r	a8, 4fc (1e666666 <_end+0x1e65a82a>)
    6b03:	116182        	s32i	a8, a1, 68
    6b06:	136192        	s32i	a9, a1, 76
    6b09:	1261e2        	s32i	a14, a1, 72
    6b0c:	e59091        	l32r	a9, 14c (600000 <_end+0x5f41c4>)
    6b0f:	e67de1        	l32r	a14, 504 (7ccd0333 <_end+0x7ccc44f7>)
    6b12:	001306        	j	6b62 <two_mic_WB_NR_NSN_proc+0x68e>

00006b15 <two_mic_WB_NR_NSN_proc+0x641>:
    6b15:	0222e7        	blt	a2, a14, 6b1b <two_mic_WB_NR_NSN_proc+0x647>
    6b18:	ffc186        	j	6a22 <two_mic_WB_NR_NSN_proc+0x54e>
    6b1b:	442682        	l32i	a8, a6, 0x110
    6b1e:	e67a91        	l32r	a9, 508 (7000 <two_mic_WB_NR_NSN_proc+0xb2c>)
    6b21:	8a8a           	add.n	a8, a10, a8
    6b23:	0888           	l32i.n	a8, a8, 0
    6b25:	5189           	s32i.n	a8, a1, 20
    6b27:	5128           	l32i.n	a2, a1, 20
    6b29:	022987        	blt	a9, a8, 6b2f <two_mic_WB_NR_NSN_proc+0x65b>
    6b2c:	002046        	j	6bb1 <two_mic_WB_NR_NSN_proc+0x6dd>
    6b2f:	eefb           	addi.n	a14, a14, 15
    6b31:	ffbb46        	j	6a22 <two_mic_WB_NR_NSN_proc+0x54e>

00006b34 <two_mic_WB_NR_NSN_proc+0x660>:
    6b34:	596c           	movi.n	a9, -27
    6b36:	6029e7        	blt	a9, a14, 6b9a <two_mic_WB_NR_NSN_proc+0x6c6>
    6b39:	e67791        	l32r	a9, 518 (333333 <_end+0x3274f7>)
    6b3c:	e67481        	l32r	a8, 50c (23333333 <_end+0x233274f7>)
    6b3f:	e674e1        	l32r	a14, 510 (40004000 <_end+0x3fff81c4>)
    6b42:	1361e2        	s32i	a14, a1, 76
    6b45:	126182        	s32i	a8, a1, 72
    6b48:	e673e1        	l32r	a14, 514 (7eb80148 <_end+0x7eb7430c>)
    6b4b:	000346        	j	6b5c <two_mic_WB_NR_NSN_proc+0x688>

00006b4e <two_mic_WB_NR_NSN_proc+0x67a>:
    6b4e:	0e0c           	movi.n	a14, 0
    6b50:	e67391        	l32r	a9, 51c (6666199a <_end+0x66655b5e>)
    6b53:	136192        	s32i	a9, a1, 76
    6b56:	e5b691        	l32r	a9, 230 (200000 <_end+0x1f41c4>)

00006b59 <two_mic_WB_NR_NSN_proc+0x685>:
    6b59:	126182        	s32i	a8, a1, 72

00006b5c <two_mic_WB_NR_NSN_proc+0x688>:
    6b5c:	e67181        	l32r	a8, 520 (1ccccccd <_end+0x1ccc0e91>)
    6b5f:	116182        	s32i	a8, a1, 68

00006b62 <two_mic_WB_NR_NSN_proc+0x68e>:
    6b62:	30bee4        	ae_cvtp24a16x2.lh	aep3, a14, a14
    6b65:	132182        	l32i	a8, a1, 76
    6b68:	39a994        	ae_movpa24x2	aep2, a9, a9
    6b6b:	30c884        	ae_cvtp24a16x2.lh	aep4, a8, a8
    6b6e:	112182        	l32i	a8, a1, 68
    6b71:	364834        	ae_cvtq48a32s	aeq1, a8
    6b74:	122182        	l32i	a8, a1, 72
    6b77:	360834        	ae_cvtq48a32s	aeq0, a8
    6b7a:	19a276        	loopgtz	a2, 6b97 <two_mic_WB_NR_NSN_proc+0x6c3>
    6b7d:	19a154        	ae_lep24s	b4:b5, aep2, aep1
    6b80:	409d14        	ae_lp16f.iu	aep1, a13, 2
    6b83:	080476        	bf	b4, 6b8f <two_mic_WB_NR_NSN_proc+0x6bb>
    6b86:	46bb14        	ae_sp16x2f.iu	aep3, a11, 4
    6b89:	624c14        	ae_sq32f.iu	aeq0, a12, 4
    6b8c:	000146        	j	6b95 <two_mic_WB_NR_NSN_proc+0x6c1>

00006b8f <two_mic_WB_NR_NSN_proc+0x6bb>:
    6b8f:	46cb14        	ae_sp16x2f.iu	aep4, a11, 4
    6b92:	625c14        	ae_sq32f.iu	aeq1, a12, 4

00006b95 <two_mic_WB_NR_NSN_proc+0x6c1>:
    6b95:	f03d           	nop.n

00006b97 <two_mic_WB_NR_NSN_proc+0x6c3>:
    6b97:	ffbfc6        	j	6a9a <two_mic_WB_NR_NSN_proc+0x5c6>

00006b9a <two_mic_WB_NR_NSN_proc+0x6c6>:
    6b9a:	e64c81        	l32r	a8, 4cc (20000000 <_end+0x1fff41c4>)
    6b9d:	497c           	movi.n	a9, -12
    6b9f:	1929e7        	blt	a9, a14, 6bbc <two_mic_WB_NR_NSN_proc+0x6e8>
    6ba2:	e65be1        	l32r	a14, 510 (40004000 <_end+0x3fff81c4>)
    6ba5:	e56391        	l32r	a9, 134 (2ccccd <_end+0x2c0e91>)
    6ba8:	1361e2        	s32i	a14, a1, 76
    6bab:	e65ae1        	l32r	a14, 514 (7eb80148 <_end+0x7eb7430c>)
    6bae:	ffe9c6        	j	6b59 <two_mic_WB_NR_NSN_proc+0x685>

00006bb1 <two_mic_WB_NR_NSN_proc+0x6dd>:
    6bb1:	e65c81        	l32r	a8, 524 (5000 <beam2_proc+0x8c>)
    6bb4:	18a827        	bge	a8, a2, 6bd0 <two_mic_WB_NR_NSN_proc+0x6fc>
    6bb7:	ee6b           	addi.n	a14, a14, 6
    6bb9:	ff9946        	j	6a22 <two_mic_WB_NR_NSN_proc+0x54e>

00006bbc <two_mic_WB_NR_NSN_proc+0x6e8>:
    6bbc:	c90c           	movi.n	a9, 12
    6bbe:	8c29e7        	blt	a9, a14, 6b4e <two_mic_WB_NR_NSN_proc+0x67a>
    6bc1:	e659e1        	l32r	a14, 528 (599a2666 <_end+0x5999682a>)
    6bc4:	e65a91        	l32r	a9, 52c (266666 <_end+0x25a82a>)
    6bc7:	1361e2        	s32i	a14, a1, 76
    6bca:	e652e1        	l32r	a14, 514 (7eb80148 <_end+0x7eb7430c>)
    6bcd:	ffe206        	j	6b59 <two_mic_WB_NR_NSN_proc+0x685>

00006bd0 <two_mic_WB_NR_NSN_proc+0x6fc>:
    6bd0:	e65881        	l32r	a8, 530 (1999 <Pitch_by_Corel+0x581>)
    6bd3:	e65891        	l32r	a9, 534 (3333 <AVC_prcs+0xf>)
    6bd6:	052827        	blt	a8, a2, 6bdf <two_mic_WB_NR_NSN_proc+0x70b>
    6bd9:	eecee2        	addi	a14, a14, -18
    6bdc:	ff9086        	j	6a22 <two_mic_WB_NR_NSN_proc+0x54e>

00006bdf <two_mic_WB_NR_NSN_proc+0x70b>:
    6bdf:	02a927        	bge	a9, a2, 6be5 <two_mic_WB_NR_NSN_proc+0x711>
    6be2:	ff8f06        	j	6a22 <two_mic_WB_NR_NSN_proc+0x54e>
    6be5:	facee2        	addi	a14, a14, -6
    6be8:	ff8d86        	j	6a22 <two_mic_WB_NR_NSN_proc+0x54e>

00006beb <two_mic_WB_NR_NSN_proc+0x717>:
    6beb:	0993b2        	l16si	a11, a3, 18
    6bee:	e65481        	l32r	a8, 540 (6300 <est_pow_aver>)
    6bf1:	e65291        	l32r	a9, 53c (7f1b00e5 <_end+0x7f1a42a9>)
    6bf4:	e651a1        	l32r	a10, 538 (7fbe0042 <_end+0x7fbd4206>)
    6bf7:	01a9           	s32i.n	a10, a1, 0
    6bf9:	1199           	s32i.n	a9, a1, 4
    6bfb:	04ad           	mov.n	a10, a4
    6bfd:	0008e0        	callx8	a8
    6c00:	0abd           	mov.n	a11, a10
    6c02:	e54181        	l32r	a8, 108 (43d4 <siir_safr>)
    6c05:	01cd           	mov.n	a12, a1
    6c07:	4a26a2        	l32i	a10, a6, 0x128
    6c0a:	0008e0        	callx8	a8
    6c0d:	4c26c2        	l32i	a12, a6, 0x130
    6c10:	4a66a2        	s32i	a10, a6, 0x128
    6c13:	0abd           	mov.n	a11, a10
    6c15:	1aaca7        	bge	a12, a10, 6c33 <two_mic_WB_NR_NSN_proc+0x75f>
    6c18:	e58c81        	l32r	a8, 248 (80b8 <airoha_divide>)
    6c1b:	0cad           	mov.n	a10, a12
    6c1d:	0008e0        	callx8	a8
    6c20:	190c           	movi.n	a9, 1
    6c22:	c099a0        	sub	a9, a9, a10
    6c25:	e647a1        	l32r	a10, 544 (6ccd1333 <_end+0x6ccc54f7>)
    6c28:	400900        	ssr	a9
    6c2b:	b1b0b0        	sra	a11, a11
    6c2e:	21b9           	s32i.n	a11, a1, 8
    6c30:	001206        	j	6c7c <two_mic_WB_NR_NSN_proc+0x7a8>

00006c33 <two_mic_WB_NR_NSN_proc+0x75f>:
    6c33:	360c34        	ae_cvtq48a32s	aeq0, a12
    6c36:	e5e6e1        	l32r	a14, 3d0 (6ccd <two_mic_WB_NR_NSN_proc+0x7f9>)
    6c39:	300ee4        	ae_cvtp24a16x2.ll	aep0, a14, a14
    6c3c:	080524        	ae_mulfq32sp24s.l	aeq0, aeq0, aep0
    6c3f:	d18b           	addi.n	a13, a1, 8
    6c41:	620d04        	ae_sq32f.i	aeq0, a13, 0
    6c44:	21a8           	l32i.n	a10, a1, 8
    6c46:	0e2ab7        	blt	a10, a11, 6c58 <two_mic_WB_NR_NSN_proc+0x784>
    6c49:	0693a2        	l16si	a10, a3, 12
    6c4c:	bfa0f2        	movi	a15, 191
    6c4f:	052fa7        	blt	a15, a10, 6c58 <two_mic_WB_NR_NSN_proc+0x784>
    6c52:	8d1682        	l16ui	a8, a6, 0x11a
    6c55:	0a28b6        	bltui	a8, 2, 6c63 <two_mic_WB_NR_NSN_proc+0x78f>
    6c58:	e631a1        	l32r	a10, 51c (6666199a <_end+0x66655b5e>)
    6c5b:	e5c5b1        	l32r	a11, 370 (40000000 <_end+0x3fff41c4>)
    6c5e:	21b9           	s32i.n	a11, a1, 8
    6c60:	000606        	j	6c7c <two_mic_WB_NR_NSN_proc+0x7a8>

00006c63 <two_mic_WB_NR_NSN_proc+0x78f>:
    6c63:	7fae92        	movi	a9, 0xfffffe7f
    6c66:	e623b1        	l32r	a11, 4f4 (46666666 <_end+0x4665a82a>)
    6c69:	21b9           	s32i.n	a11, a1, 8
    6c6b:	0a29a7        	blt	a9, a10, 6c79 <two_mic_WB_NR_NSN_proc+0x7a5>
    6c6e:	9296a2        	l16si	a10, a6, 0x124
    6c71:	049a27        	bne	a10, a2, 6c79 <two_mic_WB_NR_NSN_proc+0x7a5>
    6c74:	e635b1        	l32r	a11, 548 (5999999a <_end+0x5998db5e>)
    6c77:	21b9           	s32i.n	a11, a1, 8
    6c79:	e634a1        	l32r	a10, 54c (799a0666 <_end+0x7999482a>)
    6c7c:	06d3c2        	addmi	a12, a3, 0x600
    6c7f:	309aa4        	ae_cvtp24a16x2.lh	aep1, a10, a10
    6c82:	402304        	ae_lp16f.i	aep2, a3, 0
    6c85:	368b34        	ae_cvtq48a32s	aeq2, a11
    6c88:	fb8834d6de 	{ l32i	a13, a6, 0x134; ae_mulfq32sp24s.l	aeq2, aeq2, aep2 }
    6c8d:	364d34        	ae_cvtq48a32s	aeq1, a13
    6c90:	35a074        	ae_sraiq56	aeq2, aeq2, 1
    6c93:	0c274002bf 	{ movi	a11, 2; ae_mulzaafq32sp16s.lh	aeq1, aeq1, aep1, aeq2, aep1 }
    6c98:	34ccc2        	addi	a12, a12, 52
    6c9b:	621c04        	ae_sq32f.i	aeq1, a12, 0
    6c9e:	0007c6        	j	6cc1 <two_mic_WB_NR_NSN_proc+0x7ed>

00006ca1 <two_mic_WB_NR_NSN_proc+0x7cd>:
    6ca1:	14c342        	addi	a4, a3, 20
    6ca4:	4b0c           	movi.n	a11, 4
    6ca6:	e62aa1        	l32r	a10, 550 (500000 <_end+0x4f41c4>)

00006ca9 <two_mic_WB_NR_NSN_proc+0x7d5>:
    6ca9:	432692        	l32i	a9, a6, 0x10c
    6cac:	398aa4        	ae_movpa24x2	aep0, a10, a10
    6caf:	eea0e2        	movi	a14, 238
    6cb2:	600904        	ae_lq32f.i	aeq0, a9, 0
    6cb5:	08ae76        	loopgtz	a14, 6cc1 <two_mic_WB_NR_NSN_proc+0x7ed>
    6cb8:	088d24        	ae_mulfq32sp24s.l	aeq3, aeq0, aep0
    6cbb:	601914        	ae_lq32f.iu	aeq0, a9, 4
    6cbe:	6239f4        	ae_sq32f.i	aeq3, a9, -4

00006cc1 <two_mic_WB_NR_NSN_proc+0x7ed>:
    6cc1:	eea0f2        	movi	a15, 238
    6cc4:	049d           	mov.n	a9, a4
    6cc6:	fe24bd390f 	{ ae_lq32f.iu	aeq1, a9, 0; ae_zeroq56	aeq2 }
    6ccb:	f03d           	nop.n
    6ccd:	04af76        	loopgtz	a15, 6cd5 <two_mic_WB_NR_NSN_proc+0x801>
    6cd0:	faeb3d391f 	{ ae_lq32f.iu	aeq1, a9, 4; ae_maxq56s	aeq2, aeq2, aeq1 }

00006cd5 <two_mic_WB_NR_NSN_proc+0x801>:
    6cd5:	366a04        	ae_nsaq56s	a10, aeq2
    6cd8:	880c           	movi.n	a8, 8
    6cda:	1ea8a7        	bge	a8, a10, 6cfc <two_mic_WB_NR_NSN_proc+0x828>
    6cdd:	049d           	mov.n	a9, a4
    6cdf:	eea0c2        	movi	a12, 238
    6ce2:	0993d2        	l16si	a13, a3, 18
    6ce5:	f8cae2        	addi	a14, a10, -8
    6ce8:	401e00        	ssl	a14
    6ceb:	c0dde0        	sub	a13, a13, a14
    6cee:	0953d2        	s16i	a13, a3, 18
    6cf1:	07ac76        	loopgtz	a12, 6cfc <two_mic_WB_NR_NSN_proc+0x828>
    6cf4:	09f8           	l32i.n	a15, a9, 0
    6cf6:	a1ff00        	sll	a15, a15
    6cf9:	09e9f4        	ae_s32ip	a15, a9, 4

00006cfc <two_mic_WB_NR_NSN_proc+0x828>:
    6cfc:	eea082        	movi	a8, 238
    6cff:	0993c2        	l16si	a12, a3, 18
    6d02:	4326a2        	l32i	a10, a6, 0x10c
    6d05:	422692        	l32i	a9, a6, 0x108
    6d08:	4d26d2        	l32i	a13, a6, 0x134
    6d0b:	360d34        	ae_cvtq48a32s	aeq0, a13
    6d0e:	364d04        	ae_nsaq56s	a13, aeq0
    6d11:	fcc992        	addi	a9, a9, -4
    6d14:	502a04        	ae_lp24f.i	aep2, a10, 0
    6d17:	ccba           	add.n	a12, a12, a11
    6d19:	f8cdd2        	addi	a13, a13, -8
    6d1c:	fc24fe8d8f 	{ ae_slaasq56s	aeq2, aeq0, a13; nop }
    6d21:	c0ccd0        	sub	a12, a12, a13
    6d24:	04ccc2        	addi	a12, a12, 4
    6d27:	8c56c2        	s16i	a12, a6, 0x118
    6d2a:	600354        	ae_lq32f.i	aeq0, a3, 20
    6d2d:	10a876        	loopgtz	a8, 6d41 <two_mic_WB_NR_NSN_proc+0x86d>
    6d30:	08ada4        	ae_mulfq32sp24s.l	aeq3, aeq2, aep2
    6d33:	1bbc34        	ae_roundsp24q48sym	aep3, aeq3
    6d36:	f88c6eaa1f 	{ ae_lp24f.iu	aep2, a10, 4; ae_mulfq32sp24s.l	aeq1, aeq0, aep3 }
    6d3b:	601414        	ae_lq32f.iu	aeq0, a4, 4
    6d3e:	625914        	ae_sq32f.iu	aeq1, a9, 4

00006d41 <two_mic_WB_NR_NSN_proc+0x86d>:
    6d41:	d1b8           	l32i.n	a11, a1, 52
    6d43:	9c96a2        	l16si	a10, a6, 0x138
    6d46:	e53f81        	l32r	a8, 244 (81c0 <airoha_divide_limit_1>)
    6d49:	412bb2        	l32i	a11, a11, 0x104
    6d4c:	11aa10        	slli	a10, a10, 15
    6d4f:	0008e0        	callx8	a8
    6d52:	e583c1        	l32r	a12, 360 (10000000 <_end+0xfff41c4>)
    6d55:	73aca7        	bge	a12, a10, 6dcc <two_mic_WB_NR_NSN_proc+0x8f8>
    6d58:	0d2182        	l32i	a8, a1, 52
    6d5b:	40eac0        	nsa	a12, a10
    6d5e:	401c00        	ssl	a12
    6d61:	a1ba00        	sll	a11, a10
    6d64:	879882        	l16si	a8, a8, 0x10e
    6d67:	379bb4        	ae_truncp24a32x2	aep1, a11, a11
    6d6a:	eb25a087be 	{ l16si	a11, a7, 16; ae_mulfp24s.ll	aeq2, aep1, aep1 }
    6d6f:	4226a2        	l32i	a10, a6, 0x108
    6d72:	366e04        	ae_nsaq56s	a14, aeq2
    6d75:	c0db80        	sub	a13, a11, a8
    6d78:	a0a8a0        	addx4	a10, a8, a10
    6d7b:	f8cef2        	addi	a15, a14, -8
    6d7e:	fc24feaf4f 	{ ae_slaasq56s	aeq1, aeq2, a15; nop }
    6d83:	f8efbd0a0f 	{ ae_lq32f.i	aeq0, a10, 0; ae_roundsp24q48sym	aep0, aeq1 }
    6d88:	1a1da6        	blti	a13, 1, 6da6 <two_mic_WB_NR_NSN_proc+0x8d2>
    6d8b:	03a092        	movi	a9, 3
    6d8e:	c099c0        	sub	a9, a9, a12
    6d91:	0ead76        	loopgtz	a13, 6da3 <two_mic_WB_NR_NSN_proc+0x8cf>
    6d94:	340934        	ae_sllasq56s	aeq0, aeq0, a9
    6d97:	06c834        	ae_roundsq32sym	aeq3, aeq0
    6d9a:	089dd4        	ae_mulrfq32sp24s.l	aeq3, aeq3, aep1
    6d9d:	601a14        	ae_lq32f.iu	aeq0, a10, 4
    6da0:	623af4        	ae_sq32f.i	aeq3, a10, -4
    6da3:	0897b2        	l16si	a11, a7, 16

00006da6 <two_mic_WB_NR_NSN_proc+0x8d2>:
    6da6:	eda0f2        	movi	a15, 237
    6da9:	eea0d2        	movi	a13, 238
    6dac:	c0ddb0        	sub	a13, a13, a11
    6daf:	192fb7        	blt	a15, a11, 6dcc <two_mic_WB_NR_NSN_proc+0x8f8>
    6db2:	90bce0        	addx2	a11, a12, a14
    6db5:	e90c           	movi.n	a9, 14
    6db7:	c099b0        	sub	a9, a9, a11
    6dba:	0ead76        	loopgtz	a13, 6dcc <two_mic_WB_NR_NSN_proc+0x8f8>
    6dbd:	348934        	ae_sllasq56s	aeq2, aeq0, a9
    6dc0:	066834        	ae_roundsq32sym	aeq1, aeq2
    6dc3:	080d54        	ae_mulrfq32sp24s.l	aeq1, aeq1, aep0
    6dc6:	601a14        	ae_lq32f.iu	aeq0, a10, 4
    6dc9:	621af4        	ae_sq32f.i	aeq1, a10, -4
    6dcc:	e128           	l32i.n	a2, a1, 56
    6dce:	f01d           	retw.n

00006dd0 <two_mic_WB_NR_NSN_proc+0x8fc>:
    6dd0:	0c7c           	movi.n	a12, -16
    6dd2:	02aca7        	bge	a12, a10, 6dd8 <two_mic_WB_NR_NSN_proc+0x904>
    6dd5:	006406        	j	6f69 <two_mic_WB_NR_NSN_proc+0xa95>
    6dd8:	929692        	l16si	a9, a6, 0x124
    6ddb:	995b           	addi.n	a9, a9, 5
    6ddd:	439920        	min	a9, a9, a2
    6de0:	fe4ec6        	j	671f <two_mic_WB_NR_NSN_proc+0x24b>

00006de3 <two_mic_WB_NR_NSN_proc+0x90f>:
    6de3:	e5dcf1        	l32r	a15, 554 (34ccccd <_end+0x34c0e91>)
    6de6:	4e0c           	movi.n	a14, 4
    6de8:	3d0c           	movi.n	a13, 3
    6dea:	72ffb0        	salt	a15, a15, a11
    6ded:	93def0        	movnez	a13, a14, a15
    6df0:	e1d9           	s32i.n	a13, a1, 56

00006df2 <two_mic_WB_NR_NSN_proc+0x91e>:
    6df2:	929682        	l16si	a8, a6, 0x124
    6df5:	0f18a6        	blti	a8, 1, 6e08 <two_mic_WB_NR_NSN_proc+0x934>
    6df8:	4c26b2        	l32i	a11, a6, 0x130
    6dfb:	4a2692        	l32i	a9, a6, 0x128
    6dfe:	06a9b7        	bge	a9, a11, 6e08 <two_mic_WB_NR_NSN_proc+0x934>
    6e01:	aea7f2        	movi	a15, 0x7ae
    6e04:	000086        	j	6e0a <two_mic_WB_NR_NSN_proc+0x936>

00006e07 <two_mic_WB_NR_NSN_proc+0x933>:
	...

00006e08 <two_mic_WB_NR_NSN_proc+0x934>:
    6e08:	0f0c           	movi.n	a15, 0

00006e0a <two_mic_WB_NR_NSN_proc+0x936>:
    6e0a:	e5d3d1        	l32r	a13, 558 (fe800000 <_end+0xfe7f41c4>)
    6e0d:	4726b2        	l32i	a11, a6, 0x11c
    6e10:	e5d3e1        	l32r	a14, 55c (3fffff <_end+0x3f41c3>)
    6e13:	dbda           	add.n	a13, a11, a13
    6e15:	012ed7        	blt	a14, a13, 6e1a <two_mic_WB_NR_NSN_proc+0x946>
    6e18:	dbda           	add.n	a13, a11, a13

00006e1a <two_mic_WB_NR_NSN_proc+0x946>:
    6e1a:	e5d191        	l32r	a9, 560 (ffa66666 <_end+0xffa5a82a>)
    6e1d:	ed9a           	add.n	a14, a13, a9
    6e1f:	31e7e0        	srai	a14, a14, 23
    6e22:	251ea6        	blti	a14, 1, 6e4b <two_mic_WB_NR_NSN_proc+0x977>
    6e25:	21b1f0        	srai	a11, a15, 1
    6e28:	81b9           	s32i.n	a11, a1, 32
    6e2a:	bbfa           	add.n	a11, a11, a15
    6e2c:	c084b0        	sub	a8, a4, a11
    6e2f:	118800        	slli	a8, a8, 16
    6e32:	bb8a           	add.n	a11, a11, a8
    6e34:	309bb4        	ae_cvtp24a16x2.lh	aep1, a11, a11
    6e37:	e5cb81        	l32r	a8, 564 (50000000 <_end+0x4fff41c4>)
    6e3a:	360834        	ae_cvtq48a32s	aeq0, a8
    6e3d:	05ae76        	loopgtz	a14, 6e46 <two_mic_WB_NR_NSN_proc+0x972>
    6e40:	469c14        	ae_sp16x2f.iu	aep1, a12, 4
    6e43:	624a14        	ae_sq32f.iu	aeq0, a10, 4

00006e46 <two_mic_WB_NR_NSN_proc+0x972>:
    6e46:	0ebd           	mov.n	a11, a14
    6e48:	000186        	j	6e52 <two_mic_WB_NR_NSN_proc+0x97e>

00006e4b <two_mic_WB_NR_NSN_proc+0x977>:
    6e4b:	0b0c           	movi.n	a11, 0
    6e4d:	21e1f0        	srai	a14, a15, 1
    6e50:	81e9           	s32i.n	a14, a1, 32

00006e52 <two_mic_WB_NR_NSN_proc+0x97e>:
    6e52:	8198           	l32i.n	a9, a1, 32
    6e54:	e5c581        	l32r	a8, 568 (b780 <sb_h2ir+0x20>)
    6e57:	364534        	ae_cvtq48a32s	aeq1, a5
    6e5a:	c0e490        	sub	a14, a4, a9
    6e5d:	11ee00        	slli	a14, a14, 16
    6e60:	99ea           	add.n	a9, a9, a14
    6e62:	30c994        	ae_cvtp24a16x2.lh	aep4, a9, a9
    6e65:	e1e8           	l32i.n	a14, a1, 56
    6e67:	e5c191        	l32r	a9, 56c (ff800000 <_end+0xff7f41c4>)
    6e6a:	46cc14        	ae_sp16x2f.iu	aep4, a12, 4
    6e6d:	625a14        	ae_sq32f.iu	aeq1, a10, 4
    6e70:	90ee80        	addx2	a14, a14, a8
    6e73:	dd9a           	add.n	a13, a13, a9
    6e75:	7f9e82        	l16si	a8, a14, 254
    6e78:	e4d491        	l32r	a9, 1c8 (1000000 <_end+0xff41c4>)
    6e7b:	1561e2        	s32i	a14, a1, 84
    6e7e:	018890        	slli	a8, a8, 23
    6e81:	889a           	add.n	a8, a8, a9
    6e83:	c189           	s32i.n	a8, a1, 48
    6e85:	022d87        	blt	a13, a8, 6e8b <two_mic_WB_NR_NSN_proc+0x9b7>
    6e88:	002a06        	j	6f34 <two_mic_WB_NR_NSN_proc+0xa60>
    6e8b:	1561e2        	s32i	a14, a1, 84
    6e8e:	e4dc91        	l32r	a9, 200 (400000 <_end+0x3f41c4>)
    6e91:	c054f0        	sub	a5, a4, a15
    6e94:	e5b7c1        	l32r	a12, 570 (1eb851f <_end+0x1eac6e3>)
    6e97:	e539b1        	l32r	a11, 37c (18000000 <_end+0x17ff41c4>)
    6e9a:	368b34        	ae_cvtq48a32s	aeq2, a11
    6e9d:	36cc34        	ae_cvtq48a32s	aeq3, a12
    6ea0:	115500        	slli	a5, a5, 16
    6ea3:	5f5a           	add.n	a5, a15, a5
    6ea5:	9159           	s32i.n	a5, a1, 36
    6ea7:	21f2f0        	srai	a15, a15, 2
    6eaa:	c054f0        	sub	a5, a4, a15
    6ead:	115500        	slli	a5, a5, 16
    6eb0:	ff5a           	add.n	a15, a15, a5
    6eb2:	e5b051        	l32r	a5, 574 (59999b <_end+0x58db5f>)
    6eb5:	fc1c582fff 	{ ae_cvtp24a16x2.lh	aep2, a15, a15; ae_movq56	aeq0, aeq3 }
    6eba:	e48ef1        	l32r	a15, f4 (800000 <_end+0x7f41c4>)

00006ebd <two_mic_WB_NR_NSN_proc+0x9e9>:
    6ebd:	4326a2        	l32i	a10, a6, 0x10c
    6ec0:	4126c2        	l32i	a12, a6, 0x104
    6ec3:	ed9a           	add.n	a14, a13, a9
    6ec5:	31e7e0        	srai	a14, a14, 23
    6ec8:	be1b           	addi.n	a11, a14, 1
    6eca:	019e90        	slli	a9, a14, 23
    6ecd:	a0cec0        	addx4	a12, a14, a12
    6ed0:	a0aea0        	addx4	a10, a14, a10
    6ed3:	fccaa2        	addi	a10, a10, -4
    6ed6:	fcccc2        	addi	a12, a12, -4
    6ed9:	468c14        	ae_sp16x2f.iu	aep0, a12, 4
    6edc:	055ee6        	bgei	a14, 5, 6ee5 <two_mic_WB_NR_NSN_proc+0xa11>
    6edf:	e5a681        	l32r	a8, 578 (4cccccd <_end+0x4cc0e91>)
    6ee2:	360834        	ae_cvtq48a32s	aeq0, a8

00006ee5 <two_mic_WB_NR_NSN_proc+0xa11>:
    6ee5:	624a14        	ae_sq32f.iu	aeq0, a10, 4
    6ee8:	8d5a           	add.n	a8, a13, a5
    6eea:	99fa           	add.n	a9, a9, a15
    6eec:	07a987        	bge	a9, a8, 6ef7 <two_mic_WB_NR_NSN_proc+0xa23>
    6eef:	be2b           	addi.n	a11, a14, 2
    6ef1:	46ac14        	ae_sp16x2f.iu	aep2, a12, 4
    6ef4:	626a14        	ae_sq32f.iu	aeq2, a10, 4

00006ef7 <two_mic_WB_NR_NSN_proc+0xa23>:
    6ef7:	472682        	l32i	a8, a6, 0x11c
    6efa:	e599e1        	l32r	a14, 560 (ffa66666 <_end+0xffa5a82a>)
    6efd:	dd8a           	add.n	a13, a13, a8
    6eff:	edea           	add.n	a14, a13, a14
    6f01:	31e7e0        	srai	a14, a14, 23
    6f04:	1c2eb7        	blt	a14, a11, 6f24 <two_mic_WB_NR_NSN_proc+0xa50>
    6f07:	c08eb0        	sub	a8, a14, a11
    6f0a:	9198           	l32i.n	a9, a1, 36
    6f0c:	309994        	ae_cvtp24a16x2.lh	aep1, a9, a9
    6f0f:	881b           	addi.n	a8, a8, 1
    6f11:	e57b91        	l32r	a9, 500 (30000000 <_end+0x2fff41c4>)
    6f14:	360934        	ae_cvtq48a32s	aeq0, a9
    6f17:	9e1b           	addi.n	a9, a14, 1
    6f19:	05a876        	loopgtz	a8, 6f22 <two_mic_WB_NR_NSN_proc+0xa4e>
    6f1c:	469c14        	ae_sp16x2f.iu	aep1, a12, 4
    6f1f:	624a14        	ae_sq32f.iu	aeq0, a10, 4

00006f22 <two_mic_WB_NR_NSN_proc+0xa4e>:
    6f22:	09bd           	mov.n	a11, a9

00006f24 <two_mic_WB_NR_NSN_proc+0xa50>:
    6f24:	e4b791        	l32r	a9, 200 (400000 <_end+0x3f41c4>)
    6f27:	c1e8           	l32i.n	a14, a1, 48
    6f29:	46ac14        	ae_sp16x2f.iu	aep2, a12, 4
    6f2c:	626a14        	ae_sq32f.iu	aeq2, a10, 4
    6f2f:	fc1c58adee 	{ blt	a13, a14, 6ebd <two_mic_WB_NR_NSN_proc+0x9e9>; ae_movq56	aeq0, aeq3 }

00006f34 <two_mic_WB_NR_NSN_proc+0xa60>:
    6f34:	1521e2        	l32i	a14, a1, 84
    6f37:	eda0f2        	movi	a15, 237
    6f3a:	02afb7        	bge	a15, a11, 6f40 <two_mic_WB_NR_NSN_proc+0xa6c>
    6f3d:	fe1906        	j	67a5 <two_mic_WB_NR_NSN_proc+0x2d1>
    6f40:	eea082        	movi	a8, 238
    6f43:	c088b0        	sub	a8, a8, a11
    6f46:	05a876        	loopgtz	a8, 6f4f <two_mic_WB_NR_NSN_proc+0xa7b>
    6f49:	468c14        	ae_sp16x2f.iu	aep0, a12, 4
    6f4c:	625a14        	ae_sq32f.iu	aeq1, a10, 4

00006f4f <two_mic_WB_NR_NSN_proc+0xa7b>:
    6f4f:	fe1486        	j	67a5 <two_mic_WB_NR_NSN_proc+0x2d1>

00006f52 <two_mic_WB_NR_NSN_proc+0xa7e>:
    6f52:	e58a91        	l32r	a9, 57c (228e <SBAEC_INIT+0x52>)
    6f55:	0b29a7        	blt	a9, a10, 6f64 <two_mic_WB_NR_NSN_proc+0xa90>
    6f58:	e58aa1        	l32r	a10, 580 (999 <PD_INIT+0x29>)
    6f5b:	43bcf0        	min	a11, a12, a15
    6f5e:	022ab7        	blt	a10, a11, 6f64 <two_mic_WB_NR_NSN_proc+0xa90>
    6f61:	0029c6        	j	700c <two_mic_WB_NR_NSN_proc+0xb38>

00006f64 <two_mic_WB_NR_NSN_proc+0xa90>:
    6f64:	050c           	movi.n	a5, 0
    6f66:	fe8ec6        	j	69a5 <two_mic_WB_NR_NSN_proc+0x4d1>

00006f69 <two_mic_WB_NR_NSN_proc+0xa95>:
    6f69:	020aa6        	blti	a10, -1, 6f6f <two_mic_WB_NR_NSN_proc+0xa9b>
    6f6c:	fdec86        	j	6722 <two_mic_WB_NR_NSN_proc+0x24e>
    6f6f:	929692        	l16si	a9, a6, 0x124
    6f72:	993b           	addi.n	a9, a9, 3
    6f74:	439920        	min	a9, a9, a2
    6f77:	fde906        	j	671f <two_mic_WB_NR_NSN_proc+0x24b>

00006f7a <two_mic_WB_NR_NSN_proc+0xaa6>:
    6f7a:	021aa6        	blti	a10, 1, 6f80 <two_mic_WB_NR_NSN_proc+0xaac>
    6f7d:	ff4806        	j	6ca1 <two_mic_WB_NR_NSN_proc+0x7cd>
    6f80:	0293a2        	l16si	a10, a3, 4
    6f83:	021aa6        	blti	a10, 1, 6f89 <two_mic_WB_NR_NSN_proc+0xab5>
    6f86:	ff45c6        	j	6ca1 <two_mic_WB_NR_NSN_proc+0x7cd>
    6f89:	0393b2        	l16si	a11, a3, 6
    6f8c:	021ba6        	blti	a11, 1, 6f92 <two_mic_WB_NR_NSN_proc+0xabe>
    6f8f:	ff4386        	j	6ca1 <two_mic_WB_NR_NSN_proc+0x7cd>
    6f92:	0893c2        	l16si	a12, a3, 16
    6f95:	0993d2        	l16si	a13, a3, 18
    6f98:	14c342        	addi	a4, a3, 20
    6f9b:	131dc7        	beq	a13, a12, 6fb2 <two_mic_WB_NR_NSN_proc+0xade>
    6f9e:	4026a2        	l32i	a10, a6, 0x100
    6fa1:	e55081        	l32r	a8, 4e4 (71c8 <equal_power>)
    6fa4:	04bd           	mov.n	a11, a4
    6fa6:	eea0e2        	movi	a14, 238
    6fa9:	0008e0        	callx8	a8
    6fac:	0953a2        	s16i	a10, a3, 18
    6faf:	0853a2        	s16i	a10, a3, 16

00006fb2 <two_mic_WB_NR_NSN_proc+0xade>:
    6fb2:	049d           	mov.n	a9, a4
    6fb4:	604354        	ae_lq32f.i	aeq1, a3, 20
    6fb7:	e573c1        	l32r	a12, 584 (b560 <NR_immediate_num>)
    6fba:	4026a2        	l32i	a10, a6, 0x100
    6fbd:	eea0b2        	movi	a11, 238
    6fc0:	440c44        	ae_lp16x2f.i	aep0, a12, 16
    6fc3:	600a04        	ae_lq32f.i	aeq0, a10, 0
    6fc6:	0aab76        	loopgtz	a11, 6fd4 <two_mic_WB_NR_NSN_proc+0xb00>
    6fc9:	0d00fd1a1f 	{ ae_lq32f.iu	aeq0, a10, 4; ae_mulzaafq32sp16s.lh	aeq3, aeq0, aep0, aeq1, aep0 }
    6fce:	605914        	ae_lq32f.iu	aeq1, a9, 4
    6fd1:	6239f4        	ae_sq32f.i	aeq3, a9, -4

00006fd4 <two_mic_WB_NR_NSN_proc+0xb00>:
    6fd4:	5b0c           	movi.n	a11, 5
    6fd6:	e56ca1        	l32r	a10, 588 (480000 <_end+0x4741c4>)
    6fd9:	ff3306        	j	6ca9 <two_mic_WB_NR_NSN_proc+0x7d5>

00006fdc <two_mic_WB_NR_NSN_proc+0xb08>:
    6fdc:	e56cd1        	l32r	a13, 58c (e000 <_end+0x21c4>)
    6fdf:	022da7        	blt	a13, a10, 6fe5 <two_mic_WB_NR_NSN_proc+0xb11>
    6fe2:	ffdb06        	j	6f52 <two_mic_WB_NR_NSN_proc+0xa7e>
    6fe5:	e56a81        	l32r	a8, 590 (7666 <NR_vad2_low+0x2e>)
    6fe8:	0228b7        	blt	a8, a11, 6fee <two_mic_WB_NR_NSN_proc+0xb1a>
    6feb:	ffd8c6        	j	6f52 <two_mic_WB_NR_NSN_proc+0xa7e>
    6fee:	3b26a2        	l32i	a10, a6, 236
    6ff1:	3a9d           	ae_l16si.n	a9, a10, 2
    6ff3:	2abd           	ae_l16si.n	a11, a10, 0
    6ff5:	996b           	addi.n	a9, a9, 6
    6ff7:	12cbb2        	addi	a11, a11, 18
    6ffa:	6abd           	ae_s16i.n	a11, a10, 0
    6ffc:	fe6086        	j	6982 <two_mic_WB_NR_NSN_proc+0x4ae>

00006fff <two_mic_WB_NR_NSN_proc+0xb2b>:
    6fff:	022dc7        	blt	a13, a12, 7005 <two_mic_WB_NR_NSN_proc+0xb31>
    7002:	fe55c6        	j	695d <two_mic_WB_NR_NSN_proc+0x489>
    7005:	8a9d           	ae_sext16	a9, a10
    7007:	99cb           	addi.n	a9, a9, 12
    7009:	fe5386        	j	695b <two_mic_WB_NR_NSN_proc+0x487>

0000700c <two_mic_WB_NR_NSN_proc+0xb38>:
    700c:	3b26a2        	l32i	a10, a6, 236
    700f:	3a9d           	ae_l16si.n	a9, a10, 2
    7011:	2abd           	ae_l16si.n	a11, a10, 0
    7013:	f4c992        	addi	a9, a9, -12
    7016:	e8cbb2        	addi	a11, a11, -24
    7019:	6abd           	ae_s16i.n	a11, a10, 0
    701b:	fe58c6        	j	6982 <two_mic_WB_NR_NSN_proc+0x4ae>

0000701e <two_mic_WB_NR_NSN_proc+0xb4a>:
	...

00007020 <two_mic_WB_NR_proc>:
    7020:	006136        	entry	a1, 48
    7023:	02cd           	mov.n	a12, a2
    7025:	e41f21        	l32r	a2, a4 (be30 <p_ecnr_mem>)
    7028:	0228           	l32i.n	a2, a2, 0
    702a:	03dd           	mov.n	a13, a3
    702c:	e55a81        	l32r	a8, 594 (64d4 <two_mic_WB_NR_NSN_proc>)
    702f:	40d232        	addmi	a3, a2, 0x4000
    7032:	1ad222        	addmi	a2, a2, 0x1a00
    7035:	1b2222        	l32i	a2, a2, 108
    7038:	c0c332        	addi	a3, a3, -64
    703b:	03ad           	mov.n	a10, a3
    703d:	02bd           	mov.n	a11, a2
    703f:	0008e0        	callx8	a8
    7042:	0a6d           	mov.n	a6, a10
    7044:	0bd372        	addmi	a7, a3, 0xb00
    7047:	089282        	l16si	a8, a2, 16
    704a:	079292        	l16si	a9, a2, 14
    704d:	165392        	s16i	a9, a3, 44
    7050:	7c5782        	s16i	a8, a7, 248
    7053:	e50d81        	l32r	a8, 488 (73b0 <NR_vad1>)
    7056:	03ad           	mov.n	a10, a3
    7058:	fcc772        	addi	a7, a7, -4
    705b:	0008e0        	callx8	a8
    705e:	e50b81        	l32r	a8, 48c (74dc <NR_vad2>)
    7061:	03ad           	mov.n	a10, a3
    7063:	0008e0        	callx8	a8
    7066:	06cd           	mov.n	a12, a6
    7068:	e54c81        	l32r	a8, 598 (7638 <NR_vad2_low>)
    706b:	03ad           	mov.n	a10, a3
    706d:	02bd           	mov.n	a11, a2
    706f:	0008e0        	callx8	a8
    7072:	e50781        	l32r	a8, 490 (7814 <NR_NoiseEstimate>)
    7075:	03ad           	mov.n	a10, a3
    7077:	0008e0        	callx8	a8
    707a:	7f97b2        	l16si	a11, a7, 254
    707d:	e53081        	l32r	a8, 540 (6300 <est_pow_aver>)
    7080:	04d3a2        	addmi	a10, a3, 0x400
    7083:	70caa2        	addi	a10, a10, 112
    7086:	0008e0        	callx8	a8
    7089:	06d2b2        	addmi	a11, a2, 0x600
    708c:	368a34        	ae_cvtq48a32s	aeq2, a10
    708f:	e543d1        	l32r	a13, 59c (75c30a3d <_end+0x75c24c01>)
    7092:	308dd4        	ae_cvtp24a16x2.lh	aep0, a13, a13
    7095:	05d2a2        	addmi	a10, a2, 0x500
    7098:	4b2ac2        	l32i	a12, a10, 0x12c
    709b:	364c34        	ae_cvtq48a32s	aeq1, a12
    709e:	c10864        	ae_mulzaafq32sp16s.lh	aeq1, aeq1, aep0, aeq2, aep0
    70a1:	2ccbb2        	addi	a11, a11, 44
    70a4:	fc2c428a6e 	{ addi	a6, a10, 40; ae_roundsq32asym	aeq0, aeq1 }
    70a9:	620b04        	ae_sq32f.i	aeq0, a11, 0
    70ac:	4b2ab2        	l32i	a11, a10, 0x12c
    70af:	4c2aa2        	l32i	a10, a10, 0x130
    70b2:	14d3c2        	addmi	a12, a3, 0x1400
    70b5:	10cc22        	addi	a2, a12, 16
    70b8:	022ab7        	blt	a10, a11, 70be <two_mic_WB_NR_proc+0x9e>
    70bb:	003e06        	j	71b7 <two_mic_WB_NR_proc+0x197>
    70be:	e46281        	l32r	a8, 248 (80b8 <airoha_divide>)
    70c1:	0008e0        	callx8	a8
    70c4:	60c0a0        	neg	a12, a10
    70c7:	7e92d2        	l16si	a13, a2, 252
    70ca:	301dd4        	ae_cvtp24a16x2.ll	aep1, a13, a13
    70cd:	400c00        	ssr	a12
    70d0:	b1b0b0        	sra	a11, a11
    70d3:	36cb34        	ae_cvtq48a32s	aeq3, a11
    70d6:	089de4        	ae_mulfq32sp24s.l	aeq3, aeq3, aep1
    70d9:	e45b81        	l32r	a8, 248 (80b8 <airoha_divide>)
    70dc:	623104        	ae_sq32f.i	aeq3, a1, 0
    70df:	0198           	l32i.n	a9, a1, 0
    70e1:	4126a2        	l32i	a10, a6, 0x104
    70e4:	4226b2        	l32i	a11, a6, 0x108
    70e7:	319090        	srai	a9, a9, 16
    70ea:	0e5392        	s16i	a9, a3, 28
    70ed:	0008e0        	callx8	a8
    70f0:	e3ec81        	l32r	a8, a0 (8b8 <HIFI_sqrt>)
    70f3:	01b9           	s32i.n	a11, a1, 0
    70f5:	0008e0        	callx8	a8
    70f8:	368b34        	ae_cvtq48a32s	aeq2, a11
    70fb:	7f92c2        	l16si	a12, a2, 254
    70fe:	302cc4        	ae_cvtp24a16x2.ll	aep2, a12, a12
    7101:	08a5a4        	ae_mulfq32sp24s.l	aeq2, aeq2, aep2
    7104:	fc24feaa4f 	{ ae_slaasq56s	aeq1, aeq2, a10; nop }
    7109:	061834        	ae_roundsq32sym	aeq0, aeq1
    710c:	620104        	ae_sq32f.i	aeq0, a1, 0
    710f:	01a8           	l32i.n	a10, a1, 0
    7111:	31a0a0        	srai	a10, a10, 16

00007114 <two_mic_WB_NR_proc+0xf4>:
    7114:	e4e081        	l32r	a8, 494 (7934 <NR_NoiseWithGain>)
    7117:	1153a2        	s16i	a10, a3, 34
    711a:	03ad           	mov.n	a10, a3
    711c:	0008e0        	callx8	a8
    711f:	8a9692        	l16si	a9, a6, 0x114
    7122:	59bc           	beqz.n	a9, 715b <two_mic_WB_NR_proc+0x13b>
    7124:	1e93b2        	l16si	a11, a3, 60
    7127:	6c2c           	movi.n	a12, 38
    7129:	e51d81        	l32r	a8, 5a0 (6350 <est_pow_aver_x>)
    712c:	02d3a2        	addmi	a10, a3, 0x200
    712f:	70caa2        	addi	a10, a10, 112
    7132:	0008e0        	callx8	a8
    7135:	8a96b2        	l16si	a11, a6, 0x114
    7138:	2198a0        	srai	a9, a10, 8
    713b:	8996a2        	l16si	a10, a6, 0x112
    713e:	09a9b7        	bge	a9, a11, 714b <two_mic_WB_NR_proc+0x12b>
    7141:	8b9692        	l16si	a9, a6, 0x116
    7144:	99aa           	add.n	a9, a9, a10
    7146:	0001c6        	j	7151 <two_mic_WB_NR_proc+0x131>

00007149 <two_mic_WB_NR_proc+0x129>:
	...

0000714b <two_mic_WB_NR_proc+0x12b>:
    714b:	8c9692        	l16si	a9, a6, 0x118
    714e:	c09a90        	sub	a9, a10, a9

00007151 <two_mic_WB_NR_proc+0x131>:
    7151:	a9bd           	ae_clamps16	a11, a9
    7153:	0a0c           	movi.n	a10, 0
    7155:	53aab0        	max	a10, a10, a11
    7158:	8956a2        	s16i	a10, a6, 0x112

0000715b <two_mic_WB_NR_proc+0x13b>:
    715b:	7896d2        	l16si	a13, a6, 240
    715e:	0328           	l32i.n	a2, a3, 0
    7160:	8097c2        	l16si	a12, a7, 0x100
    7163:	08d222        	addmi	a2, a2, 0x800
    7166:	131cd7        	beq	a12, a13, 717d <two_mic_WB_NR_proc+0x15d>
    7169:	02ad           	mov.n	a10, a2
    716b:	e4de81        	l32r	a8, 4e4 (71c8 <equal_power>)
    716e:	3826b2        	l32i	a11, a6, 224
    7171:	eea0e2        	movi	a14, 238
    7174:	0008e0        	callx8	a8
    7177:	7856a2        	s16i	a10, a6, 240
    717a:	8057a2        	s16i	a10, a7, 0x100

0000717d <two_mic_WB_NR_proc+0x15d>:
    717d:	382692        	l32i	a9, a6, 224
    7180:	600204        	ae_lq32f.i	aeq0, a2, 0
    7183:	eea0a2        	movi	a10, 238
    7186:	fcc992        	addi	a9, a9, -4
    7189:	0aaa76        	loopgtz	a10, 7197 <two_mic_WB_NR_proc+0x177>
    718c:	60d914        	ae_lq32f.iu	aeq3, a9, 4
    718f:	fb7b3d121f 	{ ae_lq32f.iu	aeq0, a2, 4; ae_maxq56s	aeq3, aeq0, aeq3 }
    7194:	6232f4        	ae_sq32f.i	aeq3, a2, -4

00007197 <two_mic_WB_NR_proc+0x177>:
    7197:	e4c081        	l32r	a8, 498 (7c14 <NR_WienerFilter>)
    719a:	03ad           	mov.n	a10, a3
    719c:	0008e0        	callx8	a8
    719f:	e4bf81        	l32r	a8, 49c (7d8 <comfort_noise_gen_wb>)
    71a2:	03ad           	mov.n	a10, a3
    71a4:	05bd           	mov.n	a11, a5
    71a6:	0008e0        	callx8	a8
    71a9:	05cd           	mov.n	a12, a5
    71ab:	e4bd81        	l32r	a8, 4a0 (7ef8 <ifft_wo>)
    71ae:	04bd           	mov.n	a11, a4
    71b0:	03ad           	mov.n	a10, a3
    71b2:	0008e0        	callx8	a8
    71b5:	f01d           	retw.n

000071b7 <two_mic_WB_NR_proc+0x197>:
    71b7:	879ca2        	l16si	a10, a12, 0x10e
    71ba:	869c92        	l16si	a9, a12, 0x10c
    71bd:	0e5392        	s16i	a9, a3, 28
    71c0:	ffd406        	j	7114 <two_mic_WB_NR_proc+0xf4>

000071c3 <two_mic_WB_NR_proc+0x1a3>:
    71c3:	00000000 00413600                                .....

000071c8 <equal_power>:
    71c8:	004136        	entry	a1, 32
    71cb:	c08450        	sub	a8, a4, a5
    71ce:	0078d6        	bgez	a8, 71d9 <equal_power+0x11>
    71d1:	023d           	mov.n	a3, a2
    71d3:	c08540        	sub	a8, a5, a4
    71d6:	000046        	j	71db <equal_power+0x13>

000071d9 <equal_power+0x11>:
    71d9:	045d           	mov.n	a5, a4

000071db <equal_power+0x13>:
    71db:	fcc332        	addi	a3, a3, -4
    71de:	08a676        	loopgtz	a6, 71ea <equal_power+0x22>
    71e1:	601314        	ae_lq32f.iu	aeq0, a3, 4
    71e4:	3408a4        	ae_srlaq56	aeq0, aeq0, a8
    71e7:	620304        	ae_sq32f.i	aeq0, a3, 0

000071ea <equal_power+0x22>:
    71ea:	052d           	mov.n	a2, a5
    71ec:	f01d           	retw.n

000071ee <equal_power+0x26>:
	...

000071f0 <fft_wo>:
    71f0:	008136        	entry	a1, 64
    71f3:	340282        	l8ui	a8, a2, 52
    71f6:	6139           	s32i.n	a3, a1, 24
    71f8:	e4ebc1        	l32r	a12, 5a4 (b084 <fftorder_512_12b+0x4>)
    71fb:	0a88b6        	bltui	a8, 8, 7209 <fft_wo+0x19>
    71fe:	f0a062        	movi	a6, 240
    7201:	00a242        	movi	a4, 0x200
    7204:	270c           	movi.n	a7, 2
    7206:	000286        	j	7214 <fft_wo+0x24>

00007209 <fft_wo+0x19>:
    7209:	78a062        	movi	a6, 120
    720c:	00a142        	movi	a4, 0x100
    720f:	470c           	movi.n	a7, 4
    7211:	e4e5c1        	l32r	a12, 5a8 (b088 <fftorder_512_12b+0x8>)

00007214 <fft_wo+0x24>:
    7214:	02f8           	l32i.n	a15, a2, 0
    7216:	1592e2        	l16si	a14, a2, 42
    7219:	430c           	movi.n	a3, 4
    721b:	1a16a6        	blti	a6, 1, 7239 <fft_wo+0x49>
    721e:	1196f0        	slli	a9, a6, 1
    7221:	61a8           	l32i.n	a10, a1, 24
    7223:	5199           	s32i.n	a9, a1, 20
    7225:	090c           	movi.n	a9, 0
    7227:	09a676        	loopgtz	a6, 7234 <fft_wo+0x44>
    722a:	2abd           	ae_l16si.n	a11, a10, 0
    722c:	aa2b           	addi.n	a10, a10, 2
    722e:	60b1b0        	abs	a11, a11
    7231:	2099b0        	or	a9, a9, a11

00007234 <fft_wo+0x44>:
    7234:	000206        	j	7240 <fft_wo+0x50>

00007237 <fft_wo+0x47>:
	...

00007239 <fft_wo+0x49>:
    7239:	090c           	movi.n	a9, 0
    723b:	11d6f0        	slli	a13, a6, 1
    723e:	51d9           	s32i.n	a13, a1, 20

00007240 <fft_wo+0x50>:
    7240:	d23430        	quos	a3, a4, a3
    7243:	a0f4f0        	addx4	a15, a4, a15
    7246:	0b0c           	movi.n	a11, 0
    7248:	40e9d0        	nsa	a13, a9
    724b:	f0cdd2        	addi	a13, a13, -16
    724e:	13d292        	addmi	a9, a2, 0x1300
    7251:	e8c952        	addi	a5, a9, -24
    7254:	7b29a2        	l32i	a10, a9, 0x1ec
    7257:	098d           	mov.n	a8, a9
    7259:	53ddb0        	max	a13, a13, a11
    725c:	11d9           	s32i.n	a13, a1, 4
    725e:	c4c882        	addi	a8, a8, -60
    7261:	4408f4        	ae_lp16x2f.i	aep0, a8, -4
    7264:	43dde0        	min	a13, a13, a14
    7267:	c0c992        	addi	a9, a9, -64
    726a:	441a04        	ae_lp16x2f.i	aep1, a10, 0
    726d:	ff249401df 	{ s32i.n	a13, a1, 0; ae_zeroq56	aeq3 }
    7272:	11e4e0        	slli	a14, a4, 2
    7275:	0316d4        	wur.ae_sar	a13
    7278:	f9de1421ef 	{ s32i.n	a14, a1, 8; ae_truncp24q48x2	aep2, aeq3, aeq3 }
    727d:	f823804fee 	{ addi	a14, a15, 4; ae_sllssp24s	aep0, aep0 }
    7282:	11d7f0        	slli	a13, a7, 1
    7285:	17a376        	loopgtz	a3, 72a0 <fft_wo+0xb0>
    7288:	010944        	ae_mulfp24s.hh	aeq1, aep0, aep1
    728b:	010174        	ae_mulfp24s.ll	aeq0, aep0, aep1
    728e:	629fb4        	ae_sq32f.x	aeq1, a15, a11
    7291:	628eb4        	ae_sq32f.x	aeq0, a14, a11
    7294:	2cbd           	ae_l16si.n	a11, a12, 0
    7296:	449914        	ae_lp16x2f.iu	aep1, a9, 4
    7299:	ccda           	add.n	a12, a12, a13
    729b:	f827ad9a1f 	{ ae_lp16x2f.iu	aep1, a10, 4; ae_sllssp24s	aep0, aep1 }

000072a0 <fft_wo+0xb0>:
    72a0:	290c           	movi.n	a9, 2
    72a2:	5188           	l32i.n	a8, a1, 20
    72a4:	d29690        	quos	a9, a6, a9
    72a7:	13d262        	addmi	a6, a2, 0x1300
    72aa:	3199           	s32i.n	a9, a1, 12
    72ac:	808820        	add	a8, a8, a2
    72af:	c09390        	sub	a9, a3, a9
    72b2:	046192        	s32i	a9, a1, 16
    72b5:	bcc662        	addi	a6, a6, -68
    72b8:	13d892        	addmi	a9, a8, 0x1300
    72bb:	13d882        	addmi	a8, a8, 0x1300
    72be:	c4c882        	addi	a8, a8, -60
    72c1:	4408f4        	ae_lp16x2f.i	aep0, a8, -4
    72c4:	042182        	l32i	a8, a1, 16
    72c7:	002132        	l32i	a3, a1, 0
    72ca:	c0c992        	addi	a9, a9, -64
    72cd:	09a876        	loopgtz	a8, 72da <fft_wo+0xea>
    72d0:	fd0873861f 	{ ae_sp16x2f.iu	aep0, a6, 4; ae_abssp24s	aep3, aep0 }
    72d5:	dd682d891f 	{ ae_lp16x2f.iu	aep0, a9, 4; ae_orp48	aep2, aep2, aep3 }
    72da:	4188           	l32i.n	a8, a1, 16
    72dc:	11d7f0        	slli	a13, a7, 1
    72df:	449af4        	ae_lp16x2f.iu	aep1, a10, -4
    72e2:	1fa876        	loopgtz	a8, 7305 <fft_wo+0x115>
    72e5:	0b00d4        	ae_sllssp24s	aep5, aep0
    72e8:	015954        	ae_mulfp24s.hl	aeq1, aep5, aep1
    72eb:	e835b3861f 	{ ae_sp16x2f.iu	aep0, a6, 4; ae_mulfp24s.lh	aeq0, aep5, aep1 }
    72f0:	629fb4        	ae_sq32f.x	aeq1, a15, a11
    72f3:	628eb4        	ae_sq32f.x	aeq0, a14, a11
    72f6:	449af4        	ae_lp16x2f.iu	aep1, a10, -4

000072f9 <fft_wo+0x109>:
    72f9:	fe082d891f 	{ ae_lp16x2f.iu	aep0, a9, 4; ae_abssp24s	aep4, aep0 }
    72fe:	2cbd           	ae_l16si.n	a11, a12, 0
    7300:	dd8810ccdf 	{ add	a12, a12, a13; ae_orp48	aep2, aep2, aep4 }

00007305 <fft_wo+0x115>:
    7305:	00a9d4        	ae_cvta32p24.h	a9, aep2
    7308:	0028d4        	ae_cvta32p24.l	a8, aep2
    730b:	11d8           	l32i.n	a13, a1, 4
    730d:	208890        	or	a8, a8, a9
    7310:	062192        	l32i	a9, a1, 24
    7313:	40e880        	nsa	a8, a8
    7316:	43dd80        	min	a13, a13, a8
    7319:	1552d2        	s16i	a13, a2, 42
    731c:	032182        	l32i	a8, a1, 12
    731f:	440904        	ae_lp16x2f.i	aep0, a9, 0
    7322:	11d7f0        	slli	a13, a7, 1
    7325:	1aa876        	loopgtz	a8, 7343 <fft_wo+0x153>
    7328:	0b00e4        	ae_sllssp24s	aep6, aep0
    732b:	01e954        	ae_mulfp24s.hl	aeq3, aep6, aep1
    732e:	e939b3861f 	{ ae_sp16x2f.iu	aep0, a6, 4; ae_mulfp24s.lh	aeq2, aep6, aep1 }
    7333:	62bfb4        	ae_sq32f.x	aeq3, a15, a11
    7336:	62aeb4        	ae_sq32f.x	aeq2, a14, a11
    7339:	449af4        	ae_lp16x2f.iu	aep1, a10, -4
    733c:	2cbd           	ae_l16si.n	a11, a12, 0
    733e:	448914        	ae_lp16x2f.iu	aep0, a9, 4
    7341:	ccda           	add.n	a12, a12, a13
    7343:	8c0c           	movi.n	a12, 8
    7345:	1d0c           	movi.n	a13, 1
    7347:	0e0c           	movi.n	a14, 0
    7349:	21f8           	l32i.n	a15, a1, 8
    734b:	02a8           	l32i.n	a10, a2, 0
    734d:	21b140        	srai	a11, a4, 1
    7350:	e45b81        	l32r	a8, 4bc (8978 <sw_fft_32b_2811>)
    7353:	8bbd           	ae_sext16	a11, a11
    7355:	aafa           	add.n	a10, a10, a15
    7357:	0008e0        	callx8	a8
    735a:	7e2592        	l32i	a9, a5, 0x1f8
    735d:	2c0c           	movi.n	a12, 2
    735f:	c0b3a0        	sub	a11, a3, a10
    7362:	1652b2        	s16i	a11, a2, 44
    7365:	0022a2        	l32i	a10, a2, 0
    7368:	d2c4c0        	quos	a12, a4, a12
    736b:	f8c992        	addi	a9, a9, -8
    736e:	0b1ca6        	blti	a12, 1, 737d <fft_wo+0x18d>
    7371:	05ac76        	loopgtz	a12, 737a <fft_wo+0x18a>
    7374:	5cfa14        	ae_lp24x2f.iu	aep7, a10, 8
    7377:	5ef914        	ae_sp24x2f.iu	aep7, a9, 8
    737a:	1692b2        	l16si	a11, a2, 44

0000737d <fft_wo+0x18d>:
    737d:	7e2592        	l32i	a9, a5, 0x1f8
    7380:	02a8           	l32i.n	a10, a2, 0
    7382:	01a0c2        	movi	a12, 1
    7385:	11dbf0        	slli	a13, a11, 1
    7388:	c0ccd0        	sub	a12, a12, a13
    738b:	0bd2d2        	addmi	a13, a2, 0xb00
    738e:	7c5dc2        	s16i	a12, a13, 248
    7391:	3502d2        	l8ui	a13, a2, 53
    7394:	fccaa2        	addi	a10, a10, -4
    7397:	5c0904        	ae_lp24x2f.i	aep0, a9, 0
    739a:	03cdd2        	addi	a13, a13, 3
    739d:	0aad76        	loopgtz	a13, 73ab <fft_wo+0x1bb>
    73a0:	040824        	ae_mulzaap24s.hh.ll	aeq1, aep0, aep0
    73a3:	fc4c6f891f 	{ ae_lp24x2f.iu	aep0, a9, 8; ae_roundsq32sym	aeq0, aeq1 }
    73a8:	624a14        	ae_sq32f.iu	aeq0, a10, 4

000073ab <fft_wo+0x1bb>:
    73ab:	f01d           	retw.n

000073ad <fft_wo+0x1bd>:
    73ad:	000000                                        ...

000073b0 <NR_vad1>:
    73b0:	006136        	entry	a1, 48
    73b3:	0129           	s32i.n	a2, a1, 0
    73b5:	0238           	l32i.n	a3, a2, 0
    73b7:	340282        	l8ui	a8, a2, 52
    73ba:	1189           	s32i.n	a8, a1, 4
    73bc:	33cb           	addi.n	a3, a3, 12
    73be:	0788b6        	bltui	a8, 8, 73c9 <NR_vad1+0x19>
    73c1:	e33a41        	l32r	a4, ac (b880 <wb_sb_ptn>)
    73c4:	000106        	j	73cc <NR_vad1+0x1c>

000073c7 <NR_vad1+0x17>:
	...

000073c9 <NR_vad1+0x19>:
    73c9:	e47841        	l32r	a4, 5ac (b8b0 <nb_sb_ptn>)

000073cc <NR_vad1+0x1c>:
    73cc:	1188           	l32i.n	a8, a1, 4
    73ce:	608304        	ae_lq32f.i	aeq2, a3, 0
    73d1:	054816        	beqz	a8, 7429 <NR_vad1+0x79>
    73d4:	0168           	l32i.n	a6, a1, 0
    73d6:	907840        	addx2	a7, a8, a4
    73d9:	050c           	movi.n	a5, 0
    73db:	0bd622        	addmi	a2, a6, 0xb00
    73de:	13d662        	addmi	a6, a6, 0x1300
    73e1:	fd248e866e 	{ addi	a6, a6, -24; ae_zeroq56	aeq1 }

000073e6 <NR_vad1+0x36>:
    73e6:	249d           	ae_l16si.n	a9, a4, 0
    73e8:	348d           	ae_l16si.n	a8, a4, 2
    73ea:	c08890        	sub	a8, a8, a9
    73ed:	04a876        	loopgtz	a8, 73f5 <NR_vad1+0x45>
    73f0:	f9ea3d531f 	{ ae_lq32f.iu	aeq2, a3, 4; ae_addq56	aeq1, aeq1, aeq2 }

000073f5 <NR_vad1+0x45>:
    73f5:	365d04        	ae_nsaq56s	a13, aeq1
    73f8:	7c92b2        	l16si	a11, a2, 248
    73fb:	e36f81        	l32r	a8, 1b8 (91c <Log2_norm>)
    73fe:	f8cdc2        	addi	a12, a13, -8
    7401:	c0bbd0        	sub	a11, a11, a13
    7404:	fc24fe9c4f 	{ ae_slaasq56s	aeq1, aeq1, a12; nop }
    7409:	369a04        	ae_trunca32q48	a10, aeq1
    740c:	bb8b           	addi.n	a11, a11, 8
    740e:	0008e0        	callx8	a8
    7411:	7f26e2        	l32i	a14, a6, 0x1fc
    7414:	608304        	ae_lq32f.i	aeq2, a3, 0
    7417:	442b           	addi.n	a4, a4, 2
    7419:	ee5a           	add.n	a14, a14, a5
    741b:	0ea9           	s32i.n	a10, a14, 0
    741d:	fd2480455e 	{ addi	a5, a5, 4; ae_zeroq56	aeq1 }
    7422:	c09477        	bne	a4, a7, 73e6 <NR_vad1+0x36>
    7425:	000206        	j	7431 <NR_vad1+0x81>

00007428 <NR_vad1+0x78>:
	...

00007429 <NR_vad1+0x79>:
    7429:	0168           	l32i.n	a6, a1, 0
    742b:	13d662        	addmi	a6, a6, 0x1300
    742e:	e8c662        	addi	a6, a6, -24

00007431 <NR_vad1+0x81>:
    7431:	01b8           	l32i.n	a11, a1, 0
    7433:	7f2692        	l32i	a9, a6, 0x1fc
    7436:	1188           	l32i.n	a8, a1, 4
    7438:	039ba2        	l16si	a10, a11, 6
    743b:	604904        	ae_lq32f.i	aeq1, a9, 0
    743e:	04dbb2        	addmi	a11, a11, 0x400
    7441:	e0cbc2        	addi	a12, a11, -32
    7444:	608b84        	ae_lq32f.i	aeq2, a11, -32
    7447:	11aa00        	slli	a10, a10, 16
    744a:	360a34        	ae_cvtq48a32s	aeq0, a10
    744d:	04b816        	beqz	a8, 749c <NR_vad1+0xec>
    7450:	01e8           	l32i.n	a14, a1, 0
    7452:	0a0c           	movi.n	a10, 0
    7454:	0cdee2        	addmi	a14, a14, 0xc00
    7457:	e0cef2        	addi	a15, a14, -32
    745a:	e4cee2        	addi	a14, a14, -28
    745d:	349876        	loopnez	a8, 7495 <NR_vad1+0xe5>
    7460:	099224        	ae_ltq56s	b2, aeq2, aeq1
    7463:	0f8d           	mov.n	a8, a15
    7465:	c38e20        	movf	a8, a14, b2
    7468:	441804        	ae_lp16x2f.i	aep1, a8, 0
    746b:	c19164        	ae_mulzaafq32sp16s.lh	aeq2, aeq1, aep1, aeq2, aep1
    746e:	622c04        	ae_sq32f.i	aeq2, a12, 0
    7471:	60db14        	ae_lq32f.iu	aeq3, a11, 4
    7474:	09b114        	ae_ltq56s	b1, aeq1, aeq3
    7477:	0fdd           	mov.n	a13, a15
    7479:	c3de10        	movf	a13, a14, b1
    747c:	440d04        	ae_lp16x2f.i	aep0, a13, 0
    747f:	c18874        	ae_mulzaafq32sp16s.lh	aeq3, aeq1, aep0, aeq3, aep0
    7482:	fab6c06a8e 	{ addi	a8, a10, 6; ae_subq56	aeq2, aeq2, aeq3 }
    7487:	d65039bb0f 	{ ae_sq32f.i	aeq3, a11, 0; ae_ltq56s	b0, aeq0, aeq2 }
    748c:	605914        	ae_lq32f.iu	aeq1, a9, 4
    748f:	609c14        	ae_lq32f.iu	aeq2, a12, 4
    7492:	d3a800        	movt	a10, a8, b0

00007495 <NR_vad1+0xe5>:
    7495:	7f2692        	l32i	a9, a6, 0x1fc
    7498:	000086        	j	749e <NR_vad1+0xee>

0000749b <NR_vad1+0xeb>:
	...

0000749c <NR_vad1+0xec>:
    749c:	0a0c           	movi.n	a10, 0

0000749e <NR_vad1+0xee>:
    749e:	051ae6        	bgei	a10, 1, 74a7 <NR_vad1+0xf7>
    74a1:	e443a1        	l32r	a10, 5b0 (b56c <NR_immediate_num+0xc>)
    74a4:	000086        	j	74aa <NR_vad1+0xfa>

000074a7 <NR_vad1+0xf7>:
    74a7:	e443a1        	l32r	a10, 5b4 (b568 <NR_immediate_num+0x8>)

000074aa <NR_vad1+0xfa>:
    74aa:	604904        	ae_lq32f.i	aeq1, a9, 0
    74ad:	01d8           	l32i.n	a13, a1, 0
    74af:	11b8           	l32i.n	a11, a1, 4
    74b1:	440a04        	ae_lp16x2f.i	aep0, a10, 0
    74b4:	109dc2        	l16si	a12, a13, 32
    74b7:	04ddd2        	addmi	a13, a13, 0x400
    74ba:	28cda2        	addi	a10, a13, 40
    74bd:	11cc00        	slli	a12, a12, 16
    74c0:	48cdd2        	addi	a13, a13, 72
    74c3:	608d84        	ae_lq32f.i	aeq2, a13, -32
    74c6:	360c34        	ae_cvtq48a32s	aeq0, a12
    74c9:	0d9b76        	loopnez	a11, 74da <NR_vad1+0x12a>
    74cc:	c18864        	ae_mulzaafq32sp16s.lh	aeq3, aeq1, aep0, aeq2, aep0
    74cf:	605914        	ae_lq32f.iu	aeq1, a9, 4
    74d2:	fb7b3d5a1f 	{ ae_lq32f.iu	aeq2, a10, 4; ae_maxq56s	aeq3, aeq0, aeq3 }
    74d7:	623af4        	ae_sq32f.i	aeq3, a10, -4

000074da <NR_vad1+0x12a>:
    74da:	f01d           	retw.n

000074dc <NR_vad2>:
    74dc:	006136        	entry	a1, 48
    74df:	4ca432        	movi	a3, 0x44c
    74e2:	851c           	movi.n	a5, 24
    74e4:	3402a2        	l8ui	a10, a2, 52
    74e7:	1812e2        	l16ui	a14, a2, 48
    74ea:	04d2f2        	addmi	a15, a2, 0x400
    74ed:	021282        	l16ui	a8, a2, 4
    74f0:	2ccfb2        	addi	a11, a15, 44
    74f3:	28cfc2        	addi	a12, a15, 40
    74f6:	0218e7        	beq	a8, a14, 74fc <NR_vad2+0x20>
    74f9:	002346        	j	758a <NR_vad2+0xae>
    74fc:	109262        	l16si	a6, a2, 32
    74ff:	080c           	movi.n	a8, 0
    7501:	4ccf92        	addi	a9, a15, 76
    7504:	0199           	s32i.n	a9, a1, 0
    7506:	185282        	s16i	a8, a2, 48
    7509:	08d662        	addmi	a6, a6, 0x800
    750c:	116600        	slli	a6, a6, 16
    750f:	2abc           	beqz.n	a10, 7545 <NR_vad2+0x69>
    7511:	094d           	mov.n	a4, a9
    7513:	31a9           	s32i.n	a10, a1, 12
    7515:	11c9           	s32i.n	a12, a1, 4
    7517:	21b9           	s32i.n	a11, a1, 8
    7519:	907aa0        	addx2	a7, a10, a10
    751c:	03d232        	addmi	a3, a2, 0x300
    751f:	338b           	addi.n	a3, a3, 8
    7521:	b07720        	addx8	a7, a7, a2
    7524:	03d772        	addmi	a7, a7, 0x300
    7527:	778b           	addi.n	a7, a7, 8

00007529 <NR_vad2+0x4d>:
    7529:	e3a481        	l32r	a8, 3bc (43f4 <take_min_four>)
    752c:	03ad           	mov.n	a10, a3
    752e:	cb0c           	movi.n	a11, 12
    7530:	0008e0        	callx8	a8
    7533:	18c332        	addi	a3, a3, 24
    7536:	5396a0        	max	a9, a6, a10
    7539:	09e494        	ae_s32ip	a9, a4, 4
    753c:	e99377        	bne	a3, a7, 7529 <NR_vad2+0x4d>
    753f:	31a8           	l32i.n	a10, a1, 12
    7541:	21b8           	l32i.n	a11, a1, 8
    7543:	11c8           	l32i.n	a12, a1, 4

00007545 <NR_vad2+0x69>:
    7545:	31a9           	s32i.n	a10, a1, 12
    7547:	330292        	l8ui	a9, a2, 51
    754a:	21b9           	s32i.n	a11, a1, 8
    754c:	11c9           	s32i.n	a12, a1, 4
    754e:	11c8           	l32i.n	a12, a1, 4
    7550:	21b8           	l32i.n	a11, a1, 8
    7552:	991b           	addi.n	a9, a9, 1
    7554:	0cdd           	mov.n	a13, a12
    7556:	749090        	extui	a9, a9, 0, 8
    7559:	334292        	s8i	a9, a2, 51
    755c:	06a966        	bnei	a9, 12, 7566 <NR_vad2+0x8a>
    755f:	090c           	movi.n	a9, 0
    7561:	0a0c           	movi.n	a10, 0
    7563:	3342a2        	s8i	a10, a2, 51

00007566 <NR_vad2+0x8a>:
    7566:	600bf4        	ae_lq32f.i	aeq0, a11, -4
    7569:	909920        	addx2	a9, a9, a2
    756c:	0321a2        	l32i	a10, a1, 12
    756f:	03d992        	addmi	a9, a9, 0x300
    7572:	f0c992        	addi	a9, a9, -16
    7575:	079a76        	loopnez	a10, 7580 <NR_vad2+0xa4>
    7578:	f8e3bd1d1f 	{ ae_lq32f.iu	aeq0, a13, 4; ae_roundsp16q48sym	aep0, aeq0 }
    757d:	438954        	ae_sp16f.l.xu	aep0, a9, a5

00007580 <NR_vad2+0xa4>:
    7580:	0198           	l32i.n	a9, a1, 0
    7582:	1812e2        	l16ui	a14, a2, 48
    7585:	000a46        	j	75b2 <NR_vad2+0xd6>

00007588 <NR_vad2+0xac>:
	...

0000758a <NR_vad2+0xae>:
    758a:	330292        	l8ui	a9, a2, 51
    758d:	0cdd           	mov.n	a13, a12
    758f:	600bf4        	ae_lq32f.i	aeq0, a11, -4
    7592:	909920        	addx2	a9, a9, a2
    7595:	03d992        	addmi	a9, a9, 0x300
    7598:	f0c992        	addi	a9, a9, -16
    759b:	1a9c           	beqz.n	a10, 75b0 <NR_vad2+0xd4>
    759d:	0c9a76        	loopnez	a10, 75ad <NR_vad2+0xd1>
    75a0:	f9e39a195f 	{ ae_lp16f.xu	aep1, a9, a5; ae_roundsp16q48sym	aep2, aeq0 }
    75a5:	d846fd1d1f 	{ ae_lq32f.iu	aeq0, a13, 4; ae_minp24s	aep1, aep1, aep2 }
    75aa:	421904        	ae_sp16f.l.i	aep1, a9, 0

000075ad <NR_vad2+0xd1>:
    75ad:	1812e2        	l16ui	a14, a2, 48

000075b0 <NR_vad2+0xd4>:
    75b0:	923a           	add.n	a9, a2, a3

000075b2 <NR_vad2+0xd6>:
    75b2:	de1b           	addi.n	a13, a14, 1
    75b4:	1852d2        	s16i	a13, a2, 48
    75b7:	0cdd           	mov.n	a13, a12
    75b9:	fd24bd0bff 	{ ae_lq32f.i	aeq0, a11, -4; ae_zeroq56	aeq1 }
    75be:	fc20c062be 	{ addi	a11, a2, 6; ae_zerop48	aep1 }
    75c3:	0e8ab6        	bltui	a10, 8, 75d5 <NR_vad2+0xf9>
    75c6:	e3fce1        	l32r	a14, 5b8 (e38e4 <_end+0xd7aa8>)
    75c9:	39aee4        	ae_movpa24x2	aep2, a14, a14
    75cc:	e2d0e1        	l32r	a14, 10c (b860 <wb_score_bands>)
    75cf:	0002c6        	j	75de <NR_vad2+0x102>

000075d2 <NR_vad2+0xf6>:
    75d2:	000000                                        ...

000075d5 <NR_vad2+0xf9>:
    75d5:	e3f9e1        	l32r	a14, 5bc (b8a0 <nb_score_bands>)
    75d8:	e3faf1        	l32r	a15, 5c0 (124925 <_end+0x118ae9>)
    75db:	39aff4        	ae_movpa24x2	aep2, a15, a15

000075de <NR_vad2+0x102>:
    75de:	09cd           	mov.n	a12, a9
    75e0:	04d2f2        	addmi	a15, a2, 0x400
    75e3:	fece92        	addi	a9, a14, -2
    75e6:	14d2e2        	addmi	a14, a2, 0x1400
    75e9:	3a2ee2        	l32i	a14, a14, 232
    75ec:	6ccff2        	addi	a15, a15, 108
    75ef:	608f84        	ae_lq32f.i	aeq2, a15, -32
    75f2:	fccee2        	addi	a14, a14, -4
    75f5:	259a76        	loopnez	a10, 761e <NR_vad2+0x142>
    75f8:	f8a2ecbb1f 	{ ae_lp16f.iu	aep3, a11, 2; ae_subq56	aeq0, aeq0, aeq2 }
    75fd:	0ac384        	ae_cvtq48p24s.l	aeq3, aep3
    7600:	098304        	ae_ltq56s	b0, aeq3, aeq0
    7603:	f4caec891f 	{ ae_lp16f.iu	aep0, a9, 2; ae_mulafq32sp24s.l	aeq1, aeq0, aep2 }
    7608:	020076        	bf	b0, 760e <NR_vad2+0x132>
    760b:	079014        	ae_addsp24s	aep1, aep1, aep0

0000760e <NR_vad2+0x132>:
    760e:	faa6fd1d1f 	{ ae_lq32f.iu	aeq0, a13, 4; ae_subq56	aeq2, aeq0, aeq3 }
    7613:	35a074        	ae_sraiq56	aeq2, aeq2, 1
    7616:	fad27d5c1f 	{ ae_lq32f.iu	aeq2, a12, 4; ae_truncp24q48x2	aep5, aeq2, aeq2 }
    761b:	52de14        	ae_sp24f.l.iu	aep5, a14, 4

0000761e <NR_vad2+0x142>:
    761e:	40eb14        	ae_lp16f.iu	aep6, a11, 2
    7621:	0ac684        	ae_cvtq48p24s.l	aeq3, aep6
    7624:	099314        	ae_ltq56s	b1, aeq3, aeq1
    7627:	2ec2f2        	addi	a15, a2, 46
    762a:	408914        	ae_lp16f.iu	aep0, a9, 2
    762d:	020176        	bf	b1, 7633 <NR_vad2+0x157>
    7630:	079014        	ae_addsp24s	aep1, aep1, aep0

00007633 <NR_vad2+0x157>:
    7633:	421f04        	ae_sp16f.l.i	aep1, a15, 0
    7636:	f01d           	retw.n

00007638 <NR_vad2_low>:
    7638:	008136        	entry	a1, 64
    763b:	04d262        	addmi	a6, a2, 0x400
    763e:	28c652        	addi	a5, a6, 40
    7641:	2cc662        	addi	a6, a6, 44
    7644:	0224a6        	blti	a4, 2, 764a <NR_vad2_low+0x12>
    7647:	002006        	j	76cb <NR_vad2_low+0x93>
    764a:	1d12a2        	l16ui	a10, a2, 58
    764d:	021282        	l16ui	a8, a2, 4
    7650:	891c           	movi.n	a9, 24
    7652:	44c242        	addi	a4, a2, 68
    7655:	c088a0        	sub	a8, a8, a10
    7658:	18a856        	bnez	a8, 77e6 <NR_vad2_low+0x1ae>
    765b:	6149           	s32i.n	a4, a1, 24
    765d:	68c272        	addi	a7, a2, 104
    7660:	1092b2        	l16si	a11, a2, 32
    7663:	01d2c2        	addmi	a12, a2, 0x100
    7666:	0d0c           	movi.n	a13, 0
    7668:	1d52d2        	s16i	a13, a2, 58
    766b:	c8ccc2        	addi	a12, a12, -56
    766e:	51c9           	s32i.n	a12, a1, 20
    7670:	08dbb2        	addmi	a11, a11, 0x800
    7673:	11bb00        	slli	a11, a11, 16
    7676:	41b9           	s32i.n	a11, a1, 16

00007678 <NR_vad2_low+0x40>:
    7678:	e35181        	l32r	a8, 3bc (43f4 <take_min_four>)
    767b:	07ad           	mov.n	a10, a7
    767d:	cb0c           	movi.n	a11, 12
    767f:	0008e0        	callx8	a8
    7682:	41b8           	l32i.n	a11, a1, 16
    7684:	53bba0        	max	a11, a11, a10
    7687:	61a8           	l32i.n	a10, a1, 24
    7689:	18c772        	addi	a7, a7, 24
    768c:	5198           	l32i.n	a9, a1, 20
    768e:	09eab4        	ae_s32ip	a11, a10, 4
    7691:	61a9           	s32i.n	a10, a1, 24
    7693:	e19797        	bne	a7, a9, 7678 <NR_vad2_low+0x40>
    7696:	3602a2        	l8ui	a10, a2, 54
    7699:	891c           	movi.n	a9, 24
    769b:	4c0c           	movi.n	a12, 4
    769d:	01caa2        	addi	a10, a10, 1
    76a0:	74a0a0        	extui	a10, a10, 0, 8
    76a3:	3642a2        	s8i	a10, a2, 54
    76a6:	08aa66        	bnei	a10, 12, 76b2 <NR_vad2_low+0x7a>
    76a9:	00a0a2        	movi	a10, 0
    76ac:	00a0b2        	movi	a11, 0
    76af:	3642b2        	s8i	a11, a2, 54

000076b2 <NR_vad2_low+0x7a>:
    76b2:	05bd           	mov.n	a11, a5
    76b4:	6006f4        	ae_lq32f.i	aeq0, a6, -4
    76b7:	90aa20        	addx2	a10, a10, a2
    76ba:	50caa2        	addi	a10, a10, 80
    76bd:	07ac76        	loopgtz	a12, 76c8 <NR_vad2_low+0x90>
    76c0:	f8e3bd1b1f 	{ ae_lq32f.iu	aeq0, a11, 4; ae_roundsp16q48sym	aep0, aeq0 }
    76c5:	438a94        	ae_sp16f.l.xu	aep0, a10, a9

000076c8 <NR_vad2_low+0x90>:
    76c8:	004e86        	j	7806 <NR_vad2_low+0x1ce>

000076cb <NR_vad2_low+0x93>:
    76cb:	44c242        	addi	a4, a2, 68

000076ce <NR_vad2_low+0x96>:
    76ce:	6006f4        	ae_lq32f.i	aeq0, a6, -4
    76d1:	a26b           	addi.n	a10, a2, 6
    76d3:	fcc192        	addi	a9, a1, -4
    76d6:	4b0c           	movi.n	a11, 4
    76d8:	64c2c2        	addi	a12, a2, 100
    76db:	604c84        	ae_lq32f.i	aeq1, a12, -32
    76de:	17ab76        	loopgtz	a11, 76f9 <NR_vad2_low+0xc1>
    76e1:	fa26ecaa1f 	{ ae_lp16f.iu	aep2, a10, 2; ae_subq56	aeq2, aeq0, aeq1 }
    76e6:	0ac284        	ae_cvtq48p24s.l	aeq3, aep2
    76e9:	fab6fd151f 	{ ae_lq32f.iu	aeq0, a5, 4; ae_subq56	aeq2, aeq2, aeq3 }
    76ee:	35a074        	ae_sraiq56	aeq2, aeq2, 1
    76f1:	f8d27d341f 	{ ae_lq32f.iu	aeq1, a4, 4; ae_truncp24q48x2	aep1, aeq2, aeq2 }
    76f6:	529914        	ae_sp24f.l.iu	aep1, a9, 4

000076f9 <NR_vad2_low+0xc1>:
    76f9:	01d8           	l32i.n	a13, a1, 0
    76fb:	390292        	l8ui	a9, a2, 57
    76fe:	2092c2        	l16si	a12, a2, 64
    7701:	151de6        	bgei	a13, 1, 771a <NR_vad2_low+0xe2>
    7704:	11e8           	l32i.n	a14, a1, 4
    7706:	101ee6        	bgei	a14, 1, 771a <NR_vad2_low+0xe2>
    7709:	21f8           	l32i.n	a15, a1, 8
    770b:	0b1fe6        	bgei	a15, 1, 771a <NR_vad2_low+0xe2>
    770e:	3188           	l32i.n	a8, a1, 12
    7710:	0618e6        	bgei	a8, 1, 771a <NR_vad2_low+0xe2>
    7713:	060c           	movi.n	a6, 0
    7715:	0000c6        	j	771c <NR_vad2_low+0xe4>

00007718 <NR_vad2_low+0xe0>:
	...

0000771a <NR_vad2_low+0xe2>:
    771a:	160c           	movi.n	a6, 1

0000771c <NR_vad2_low+0xe4>:
    771c:	1e92d2        	l16si	a13, a2, 60
    771f:	b9cc           	bnez.n	a9, 772e <NR_vad2_low+0xf6>
    7721:	3802a2        	l8ui	a10, a2, 56
    7724:	6acc           	bnez.n	a10, 772e <NR_vad2_low+0xf6>
    7726:	46cc           	bnez.n	a6, 772e <NR_vad2_low+0xf6>
    7728:	66a652        	movi	a5, 0x666
    772b:	000046        	j	7730 <NR_vad2_low+0xf8>

0000772e <NR_vad2_low+0xf6>:
    772e:	050c           	movi.n	a5, 0

00007730 <NR_vad2_low+0xf8>:
    7730:	02d2a2        	addmi	a10, a2, 0x200
    7733:	d8ca42        	addi	a4, a10, -40
    7736:	121dc7        	beq	a13, a12, 774c <NR_vad2_low+0x114>
    7739:	70cab2        	addi	a11, a10, 112
    773c:	e36a81        	l32r	a8, 4e4 (71c8 <equal_power>)
    773f:	6e2c           	movi.n	a14, 38
    7741:	04ad           	mov.n	a10, a4
    7743:	0008e0        	callx8	a8
    7746:	1e52a2        	s16i	a10, a2, 60
    7749:	2052a2        	s16i	a10, a2, 64

0000774c <NR_vad2_low+0x114>:
    774c:	682c           	movi.n	a8, 38
    774e:	8d0c           	movi.n	a13, 8
    7750:	6a2c           	movi.n	a10, 38
    7752:	02d2c2        	addmi	a12, a2, 0x200
    7755:	e25ab1        	l32r	a11, c0 (8000 <ifft_wo+0x108>)
    7758:	6ccc92        	addi	a9, a12, 108
    775b:	f8ccc2        	addi	a12, a12, -8
    775e:	600c84        	ae_lq32f.i	aeq0, a12, -32
    7761:	c0bb50        	sub	a11, a11, a5
    7764:	fe249885bf 	{ ae_cvtp24a16x2.ll	aep0, a5, a11; ae_zeroq56	aeq2 }
    7769:	19aa76        	loopgtz	a10, 7786 <NR_vad2_low+0x14e>
    776c:	605914        	ae_lq32f.iu	aeq1, a9, 4
    776f:	65cc           	bnez.n	a5, 7779 <NR_vad2_low+0x141>
    7771:	faeb3d141f 	{ ae_lq32f.iu	aeq0, a4, 4; ae_maxq56s	aeq2, aeq2, aeq1 }
    7776:	000286        	j	7784 <NR_vad2_low+0x14c>

00007779 <NR_vad2_low+0x141>:
    7779:	c18844        	ae_mulzaafq32sp16s.lh	aeq3, aeq1, aep0, aeq0, aep0
    777c:	601414        	ae_lq32f.iu	aeq0, a4, 4
    777f:	fafb39b90f 	{ ae_sq32f.i	aeq3, a9, 0; ae_maxq56s	aeq2, aeq2, aeq3 }

00007784 <NR_vad2_low+0x14c>:
    7784:	f03d           	nop.n

00007786 <NR_vad2_low+0x14e>:
    7786:	366b04        	ae_nsaq56s	a11, aeq2
    7789:	01d2a2        	addmi	a10, a2, 0x100
    778c:	40caa2        	addi	a10, a10, 64
    778f:	20adb7        	bge	a13, a11, 77b3 <NR_vad2_low+0x17b>
    7792:	0a9d           	mov.n	a9, a10
    7794:	6c2c           	movi.n	a12, 38
    7796:	1e92d2        	l16si	a13, a2, 60
    7799:	f8cbe2        	addi	a14, a11, -8
    779c:	401e00        	ssl	a14
    779f:	c0dde0        	sub	a13, a13, a14
    77a2:	1e52d2        	s16i	a13, a2, 60
    77a5:	0aac76        	loopgtz	a12, 77b3 <NR_vad2_low+0x17b>
    77a8:	4c29f2        	l32i	a15, a9, 0x130
    77ab:	994b           	addi.n	a9, a9, 4
    77ad:	a1ff00        	sll	a15, a15
    77b0:	4b69f2        	s32i	a15, a9, 0x12c

000077b3 <NR_vad2_low+0x17b>:
    77b3:	05d3b2        	addmi	a11, a3, 0x500
    77b6:	090c           	movi.n	a9, 0
    77b8:	20cbc2        	addi	a12, a11, 32
    77bb:	3f2bb2        	l32i	a11, a11, 252
    77be:	919cf2        	l16si	a15, a12, 0x122
    77c1:	0da876        	loopgtz	a8, 77d2 <NR_vad2_low+0x19a>
    77c4:	db9a           	add.n	a13, a11, a9
    77c6:	0ae8           	l32i.n	a14, a10, 0
    77c8:	994b           	addi.n	a9, a9, 4
    77ca:	266ae2        	s32i	a14, a10, 152
    77cd:	0dd8           	l32i.n	a13, a13, 0
    77cf:	09ead4        	ae_s32ip	a13, a10, 4

000077d2 <NR_vad2_low+0x19a>:
    77d2:	1f9282        	l16si	a8, a2, 62
    77d5:	380292        	l8ui	a9, a2, 56
    77d8:	394292        	s8i	a9, a2, 57
    77db:	384262        	s8i	a6, a2, 56
    77de:	205282        	s16i	a8, a2, 64
    77e1:	1f52f2        	s16i	a15, a2, 62
    77e4:	f01d           	retw.n

000077e6 <NR_vad2_low+0x1ae>:
    77e6:	05bd           	mov.n	a11, a5
    77e8:	3602a2        	l8ui	a10, a2, 54
    77eb:	6006f4        	ae_lq32f.i	aeq0, a6, -4
    77ee:	4c0c           	movi.n	a12, 4
    77f0:	90aa20        	addx2	a10, a10, a2
    77f3:	50caa2        	addi	a10, a10, 80
    77f6:	0cac76        	loopgtz	a12, 7806 <NR_vad2_low+0x1ce>
    77f9:	fae39a3a9f 	{ ae_lp16f.xu	aep3, a10, a9; ae_roundsp16q48sym	aep4, aeq0 }
    77fe:	d98efd1b1f 	{ ae_lq32f.iu	aeq0, a11, 4; ae_minp24s	aep3, aep3, aep4 }
    7803:	423a04        	ae_sp16f.l.i	aep3, a10, 0

00007806 <NR_vad2_low+0x1ce>:
    7806:	1d12b2        	l16ui	a11, a2, 58
    7809:	bb1b           	addi.n	a11, a11, 1
    780b:	1d52b2        	s16i	a11, a2, 58
    780e:	ffaf06        	j	76ce <NR_vad2_low+0x96>

00007811 <NR_vad2_low+0x1d9>:
    7811:	000000                                        ...

00007814 <NR_NoiseEstimate>:
    7814:	004136        	entry	a1, 32
    7817:	0c0c           	movi.n	a12, 0
    7819:	002232        	l32i	a3, a2, 0
    781c:	0e92b2        	l16si	a11, a2, 28
    781f:	eea082        	movi	a8, 238
    7822:	08d3a2        	addmi	a10, a3, 0x800
    7825:	11bbc0        	slli	a11, a11, 4
    7828:	0cd332        	addmi	a3, a3, 0xc00
    782b:	b8c332        	addi	a3, a3, -72
    782e:	209330        	or	a9, a3, a3
    7831:	05a876        	loopgtz	a8, 783a <NR_NoiseEstimate+0x26>
    7834:	09eab4        	ae_s32ip	a11, a10, 4
    7837:	09e9c4        	ae_s32ip	a12, a9, 4

0000783a <NR_NoiseEstimate+0x26>:
    783a:	3202c2        	l8ui	a12, a2, 50
    783d:	0bd2a2        	addmi	a10, a2, 0xb00
    7840:	f4ca62        	addi	a6, a10, -12
    7843:	0a6c17        	bbci	a12, 1, 7851 <NR_NoiseEstimate+0x3d>
    7846:	e35f81        	l32r	a8, 5c4 (a98 <PD_Noise_Est>)
    7849:	02ad           	mov.n	a10, a2
    784b:	0008e0        	callx8	a8
    784e:	0014c6        	j	78a5 <NR_NoiseEstimate+0x91>

00007851 <NR_NoiseEstimate+0x3d>:
    7851:	1712b2        	l16ui	a11, a2, 46
    7854:	491c           	movi.n	a9, 20
    7856:	4b39b7        	bltu	a9, a11, 78a5 <NR_NoiseEstimate+0x91>
    7859:	340292        	l8ui	a9, a2, 52
    785c:	027bb6        	bltui	a11, 7, 7862 <NR_NoiseEstimate+0x4e>
    785f:	003106        	j	7927 <NR_NoiseEstimate+0x113>
    7862:	3a2aa2        	l32i	a10, a10, 232
    7865:	000086        	j	786b <NR_NoiseEstimate+0x57>

00007868 <NR_NoiseEstimate+0x54>:
    7868:	3c2aa2        	l32i	a10, a10, 240

0000786b <NR_NoiseEstimate+0x57>:
    786b:	69bc           	beqz.n	a9, 78a5 <NR_NoiseEstimate+0x91>
    786d:	11e9e0        	slli	a14, a9, 2
    7870:	13d2d2        	addmi	a13, a2, 0x1300
    7873:	0b0c           	movi.n	a11, 0
    7875:	e20dc1        	l32r	a12, ac (b880 <wb_sb_ptn>)
    7878:	150c           	movi.n	a5, 1

0000787a <NR_NoiseEstimate+0x66>:
    787a:	7a2df2        	l32i	a15, a13, 0x1e8
    787d:	ffba           	add.n	a15, a15, a11
    787f:	0ff8           	l32i.n	a15, a15, 0
    7881:	bb4b           	addi.n	a11, a11, 4
    7883:	191fe6        	bgei	a15, 1, 78a0 <NR_NoiseEstimate+0x8c>
    7886:	2c4d           	ae_l16si.n	a4, a12, 0
    7888:	3cfd           	ae_l16si.n	a15, a12, 2
    788a:	a09430        	addx4	a9, a4, a3
    788d:	0fa4f7        	bge	a4, a15, 78a0 <NR_NoiseEstimate+0x8c>
    7890:	c08f40        	sub	a8, a15, a4
    7893:	538850        	max	a8, a8, a5
    7896:	06a876        	loopgtz	a8, 78a0 <NR_NoiseEstimate+0x8c>
    7899:	09f8           	l32i.n	a15, a9, 0
    789b:	ffaa           	add.n	a15, a15, a10
    789d:	09e9f4        	ae_s32ip	a15, a9, 4
    78a0:	cc2b           	addi.n	a12, a12, 2
    78a2:	d49be7        	bne	a11, a14, 787a <NR_NoiseEstimate+0x66>
    78a5:	70a472        	movi	a7, 0x470
    78a8:	fcc342        	addi	a4, a3, -4
    78ab:	8396d2        	l16si	a13, a6, 0x106
    78ae:	0238           	l32i.n	a3, a2, 0
    78b0:	8296c2        	l16si	a12, a6, 0x104
    78b3:	350252        	l8ui	a5, a2, 53
    78b6:	33cb           	addi.n	a3, a3, 12
    78b8:	161cd7        	beq	a12, a13, 78d2 <NR_NoiseEstimate+0xbe>
    78bb:	03ad           	mov.n	a10, a3
    78bd:	20e550        	or	a14, a5, a5
    78c0:	e30981        	l32r	a8, 4e4 (71c8 <equal_power>)
    78c3:	04d2b2        	addmi	a11, a2, 0x400
    78c6:	70cbb2        	addi	a11, a11, 112
    78c9:	0008e0        	callx8	a8
    78cc:	8356a2        	s16i	a10, a6, 0x106
    78cf:	8256a2        	s16i	a10, a6, 0x104

000078d2 <NR_NoiseEstimate+0xbe>:
    78d2:	608304        	ae_lq32f.i	aeq2, a3, 0
    78d5:	04d292        	addmi	a9, a2, 0x400
    78d8:	fc2486c99e 	{ addi	a9, a9, 108; ae_zeroq56	aeq0 }
    78dd:	1e9576        	loopnez	a5, 78ff <NR_NoiseEstimate+0xeb>
    78e0:	448414        	ae_lp16x2f.iu	aep0, a4, 4
    78e3:	24ad           	ae_l16si.n	a10, a4, 0
    78e5:	605914        	ae_lq32f.iu	aeq1, a9, 4
    78e8:	c18864        	ae_mulzaafq32sp16s.lh	aeq3, aeq1, aep0, aeq2, aep0
    78eb:	6acc           	bnez.n	a10, 78f5 <NR_NoiseEstimate+0xe1>
    78ed:	f86b3d531f 	{ ae_lq32f.iu	aeq2, a3, 4; ae_maxq56s	aeq0, aeq0, aeq1 }
    78f2:	0001c6        	j	78fd <NR_NoiseEstimate+0xe9>

000078f5 <NR_NoiseEstimate+0xe1>:
    78f5:	609314        	ae_lq32f.iu	aeq2, a3, 4
    78f8:	f87b39b90f 	{ ae_sq32f.i	aeq3, a9, 0; ae_maxq56s	aeq0, aeq0, aeq3 }

000078fd <NR_NoiseEstimate+0xe9>:
    78fd:	f03d           	nop.n

000078ff <NR_NoiseEstimate+0xeb>:
    78ff:	364a04        	ae_nsaq56s	a10, aeq0
    7902:	8b0c           	movi.n	a11, 8
    7904:	1daba7        	bge	a11, a10, 7925 <NR_NoiseEstimate+0x111>
    7907:	8396c2        	l16si	a12, a6, 0x106
    790a:	f8caa2        	addi	a10, a10, -8
    790d:	c0cca0        	sub	a12, a12, a10
    7910:	8356c2        	s16i	a12, a6, 0x106
    7913:	e58c           	beqz.n	a5, 7925 <NR_NoiseEstimate+0x111>
    7915:	927a           	add.n	a9, a2, a7
    7917:	401a00        	ssl	a10
    791a:	079576        	loopnez	a5, 7925 <NR_NoiseEstimate+0x111>
    791d:	09d8           	l32i.n	a13, a9, 0
    791f:	a1dd00        	sll	a13, a13
    7922:	09e9d4        	ae_s32ip	a13, a9, 4
    7925:	f01d           	retw.n

00007927 <NR_NoiseEstimate+0x113>:
    7927:	02bbb6        	bltui	a11, 16, 792d <NR_NoiseEstimate+0x119>
    792a:	ffce86        	j	7868 <NR_NoiseEstimate+0x54>
    792d:	3b2aa2        	l32i	a10, a10, 236
    7930:	ffcdc6        	j	786b <NR_NoiseEstimate+0x57>

00007933 <NR_NoiseEstimate+0x11f>:
	...

00007934 <NR_NoiseWithGain>:
    7934:	004136        	entry	a1, 32
    7937:	0238           	l32i.n	a3, a2, 0
    7939:	320282        	l8ui	a8, a2, 50
    793c:	340242        	l8ui	a4, a2, 52
    793f:	08d332        	addmi	a3, a3, 0x800
    7942:	0c6817        	bbci	a8, 1, 7952 <NR_NoiseWithGain+0x1e>
    7945:	e32081        	l32r	a8, 5c8 (fa8 <PD_Noise_Gain>)
    7948:	02ad           	mov.n	a10, a2
    794a:	0008e0        	callx8	a8
    794d:	0000c6        	j	7954 <NR_NoiseWithGain+0x20>

00007950 <NR_NoiseWithGain+0x1c>:
	...

00007952 <NR_NoiseWithGain+0x1e>:
    7952:	0a0c           	movi.n	a10, 0

00007954 <NR_NoiseWithGain+0x20>:
    7954:	1712c2        	l16ui	a12, a2, 46
    7957:	567cb6        	bltui	a12, 7, 79b1 <NR_NoiseWithGain+0x7d>
    795a:	0f92b2        	l16si	a11, a2, 30
    795d:	491c           	movi.n	a9, 20
    795f:	0739c7        	bltu	a9, a12, 796a <NR_NoiseWithGain+0x36>
    7962:	bb1b           	addi.n	a11, a11, 1
    7964:	21b1b0        	srai	a11, a11, 1
    7967:	40dbb2        	addmi	a11, a11, 0x4000

0000796a <NR_NoiseWithGain+0x36>:
    796a:	43aa47        	bge	a10, a4, 79b1 <NR_NoiseWithGain+0x7d>
    796d:	13d2e2        	addmi	a14, a2, 0x1300
    7970:	300bb4        	ae_cvtp24a16x2.ll	aep0, a11, a11
    7973:	11f4e0        	slli	a15, a4, 2
    7976:	e1cdc1        	l32r	a12, ac (b880 <wb_sb_ptn>)
    7979:	140c           	movi.n	a4, 1
    797b:	11bae0        	slli	a11, a10, 2
    797e:	90aac0        	addx2	a10, a10, a12

00007981 <NR_NoiseWithGain+0x4d>:
    7981:	7a2ed2        	l32i	a13, a14, 0x1e8
    7984:	ddba           	add.n	a13, a13, a11
    7986:	0dd8           	l32i.n	a13, a13, 0
    7988:	bb4b           	addi.n	a11, a11, 4
    798a:	1e1da6        	blti	a13, 1, 79ac <NR_NoiseWithGain+0x78>
    798d:	2add           	ae_l16si.n	a13, a10, 0
    798f:	3acd           	ae_l16si.n	a12, a10, 2
    7991:	a09d30        	addx4	a9, a13, a3
    7994:	14adc7        	bge	a13, a12, 79ac <NR_NoiseWithGain+0x78>
    7997:	c08cd0        	sub	a8, a12, a13
    799a:	538840        	max	a8, a8, a4
    799d:	0ba876        	loopgtz	a8, 79ac <NR_NoiseWithGain+0x78>
    79a0:	600904        	ae_lq32f.i	aeq0, a9, 0
    79a3:	030214        	ae_mulfq32sp16s.l	aeq0, aeq0, aep0
    79a6:	368c04        	ae_trunca32q48	a12, aeq0
    79a9:	09e9c4        	ae_s32ip	a12, a9, 4
    79ac:	aa2b           	addi.n	a10, a10, 2
    79ae:	cf9bf7        	bne	a11, a15, 7981 <NR_NoiseWithGain+0x4d>
    79b1:	fcc3a2        	addi	a10, a3, -4
    79b4:	4c0304        	ae_lp24.i	aep0, a3, 0
    79b7:	3502d2        	l8ui	a13, a2, 53
    79ba:	04d2e2        	addmi	a14, a2, 0x400
    79bd:	0bd282        	addmi	a8, a2, 0xb00
    79c0:	7d98f2        	l16si	a15, a8, 250
    79c3:	70ce92        	addi	a9, a14, 112
    79c6:	7ccee2        	addi	a14, a14, 124
    79c9:	ff6b           	addi.n	a15, a15, 6
    79cb:	7e58f2        	s16i	a15, a8, 252
    79ce:	600ed4        	ae_lq32f.i	aeq0, a14, -12
    79d1:	f03d           	nop.n
    79d3:	f03d           	nop.n
    79d5:	0a9d76        	loopnez	a13, 79e3 <NR_NoiseWithGain+0xaf>
    79d8:	f8e071831f 	{ ae_lp24.iu	aep0, a3, 4; ae_mulrfq32sp24s.l	aeq1, aeq0, aep0 }
    79dd:	601914        	ae_lq32f.iu	aeq0, a9, 4
    79e0:	625a14        	ae_sq32f.iu	aeq1, a10, 4

000079e3 <NR_NoiseWithGain+0xaf>:
    79e3:	f01d           	retw.n

000079e5 <NR_NoiseWithGain+0xb1>:
    79e5:	000000                                        ...

000079e8 <common_gain_limiter>:
    79e8:	004136        	entry	a1, 32
    79eb:	37a444        	ae_truncp24a32x2	aep2, a4, a4
    79ee:	400304        	ae_lp16f.i	aep0, a3, 0
    79f1:	f03d           	nop.n
    79f3:	f03d           	nop.n
    79f5:	07a276        	loopgtz	a2, 7a00 <common_gain_limiter+0x18>
    79f8:	d80a6c832f 	{ ae_lp16f.iu	aep0, a3, 4; ae_maxp24s	aep1, aep2, aep0 }
    79fd:	5213f4        	ae_sp24f.l.i	aep1, a3, -4

00007a00 <common_gain_limiter+0x18>:
    7a00:	032d           	mov.n	a2, a3
    7a02:	f01d           	retw.n

00007a04 <Mel_filter>:
    7a04:	006136        	entry	a1, 48
    7a07:	23ad           	ae_l16si.n	a10, a3, 0
    7a09:	fcc582        	addi	a8, a5, -4
    7a0c:	339d           	ae_l16si.n	a9, a3, 2
    7a0e:	fec222        	addi	a2, a2, -2
    7a11:	fe2493522f 	{ or	a5, a2, a2; ae_zeroq56	aeq2 }
    7a16:	fc145599af 	{ sub	a9, a9, a10; ae_movq56	aeq0, aeq2 }
    7a1b:	69dc           	bnez.n	a9, 7a35 <Mel_filter+0x31>
    7a1d:	626814        	ae_sq32f.iu	aeq2, a8, 4
    7a20:	23bd           	ae_l16si.n	a11, a3, 0
    7a22:	0293a2        	l16si	a10, a3, 4
    7a25:	089d           	mov.n	a9, a8
    7a27:	c0aab0        	sub	a10, a10, a11
    7a2a:	0a1a56        	bnez	a10, 7acf <Mel_filter+0xcb>
    7a2d:	089d           	mov.n	a9, a8
    7a2f:	626914        	ae_sq32f.iu	aeq2, a9, 4
    7a32:	001586        	j	7a8c <Mel_filter+0x88>

00007a35 <Mel_filter+0x31>:
    7a35:	025d           	mov.n	a5, a2
    7a37:	409514        	ae_lp16f.iu	aep1, a5, 2
    7a3a:	fcc422        	addi	a2, a4, -4
    7a3d:	508214        	ae_lp24f.iu	aep0, a2, 4
    7a40:	09a976        	loopgtz	a9, 7a4d <Mel_filter+0x49>
    7a43:	cd442c951f 	{ ae_lp16f.iu	aep1, a5, 2; ae_sraip24	aep2, aep1, 8 }
    7a48:	e20a2e821f 	{ ae_lp24f.iu	aep0, a2, 4; ae_mulafp24s.hh	aeq0, aep2, aep0 }

00007a4d <Mel_filter+0x49>:
    7a4d:	fc4453988f 	{ or	a9, a8, a8; ae_roundsq32sym	aeq0, aeq0 }
    7a52:	624914        	ae_sq32f.iu	aeq0, a9, 4
    7a55:	23ad           	ae_l16si.n	a10, a3, 0
    7a57:	029382        	l16si	a8, a3, 4
    7a5a:	a02a40        	addx4	a2, a10, a4
    7a5d:	508204        	ae_lp24f.iu	aep0, a2, 0
    7a60:	c088a0        	sub	a8, a8, a10
    7a63:	fc144ff88e 	{ addi	a8, a8, -1; ae_movq56	aeq0, aeq2 }
    7a68:	1718a6        	blti	a8, 1, 7a83 <Mel_filter+0x7f>
    7a6b:	f03d           	nop.n
    7a6d:	09a876        	loopgtz	a8, 7a7a <Mel_filter+0x76>

00007a70 <Mel_filter+0x6c>:
    7a70:	cd446c951f 	{ ae_lp16f.iu	aep1, a5, 2; ae_sraip24	aep3, aep1, 8 }
    7a75:	e20e2e821f 	{ ae_lp24f.iu	aep0, a2, 4; ae_mulafp24s.hh	aeq0, aep3, aep0 }

00007a7a <Mel_filter+0x76>:
    7a7a:	561104        	ae_sp24x2s.i	aep1, a1, 0
    7a7d:	000146        	j	7a86 <Mel_filter+0x82>

00007a80 <Mel_filter+0x7c>:
    7a80:	000000                                        ...

00007a83 <Mel_filter+0x7f>:
    7a83:	561104        	ae_sp24x2s.i	aep1, a1, 0

00007a86 <Mel_filter+0x82>:
    7a86:	064834        	ae_roundsq32sym	aeq1, aeq0
    7a89:	625914        	ae_sq32f.iu	aeq1, a9, 4

00007a8c <Mel_filter+0x88>:
    7a8c:	3d36a6        	blti	a6, 3, 7acd <Mel_filter+0xc9>
    7a8f:	541104        	ae_lp24x2.i	aep1, a1, 0
    7a92:	04afb2        	movi	a11, -252
    7a95:	90a630        	addx2	a10, a6, a3
    7a98:	08afc2        	movi	a12, -248
    7a9b:	33ca           	add.n	a3, a3, a12
    7a9d:	fc1450aabf 	{ add	a10, a10, a11; ae_movq56	aeq0, aeq2 }

00007aa2 <Mel_filter+0x9e>:
    7aa2:	7d93e2        	l16si	a14, a3, 250
    7aa5:	7f93d2        	l16si	a13, a3, 254
    7aa8:	332b           	addi.n	a3, a3, 2
    7aaa:	a02e40        	addx4	a2, a14, a4
    7aad:	508204        	ae_lp24f.iu	aep0, a2, 0
    7ab0:	c0dde0        	sub	a13, a13, a14
    7ab3:	dd0b           	addi.n	a13, a13, -1
    7ab5:	09ad76        	loopgtz	a13, 7ac2 <Mel_filter+0xbe>
    7ab8:	ce442c951f 	{ ae_lp16f.iu	aep1, a5, 2; ae_sraip24	aep4, aep1, 8 }
    7abd:	e2122e821f 	{ ae_lp24f.iu	aep0, a2, 4; ae_mulafp24s.hh	aeq0, aep4, aep0 }

00007ac2 <Mel_filter+0xbe>:
    7ac2:	06c834        	ae_roundsq32sym	aeq3, aeq0
    7ac5:	fc1479f91f 	{ ae_sq32f.iu	aeq3, a9, 4; ae_movq56	aeq0, aeq2 }
    7aca:	d493a7        	bne	a3, a10, 7aa2 <Mel_filter+0x9e>

00007acd <Mel_filter+0xc9>:
    7acd:	f01d           	retw.n

00007acf <Mel_filter+0xcb>:
    7acf:	025d           	mov.n	a5, a2
    7ad1:	409514        	ae_lp16f.iu	aep1, a5, 2
    7ad4:	fcc422        	addi	a2, a4, -4
    7ad7:	508214        	ae_lp24f.iu	aep0, a2, 4
    7ada:	121aa6        	blti	a10, 1, 7af0 <Mel_filter+0xec>
    7add:	09aa76        	loopgtz	a10, 7aea <Mel_filter+0xe6>
    7ae0:	ce446c951f 	{ ae_lp16f.iu	aep1, a5, 2; ae_sraip24	aep5, aep1, 8 }
    7ae5:	e2162e821f 	{ ae_lp24f.iu	aep0, a2, 4; ae_mulafp24s.hh	aeq0, aep5, aep0 }

00007aea <Mel_filter+0xe6>:
    7aea:	561104        	ae_sp24x2s.i	aep1, a1, 0
    7aed:	000086        	j	7af3 <Mel_filter+0xef>

00007af0 <Mel_filter+0xec>:
    7af0:	561104        	ae_sp24x2s.i	aep1, a1, 0

00007af3 <Mel_filter+0xef>:
    7af3:	064834        	ae_roundsq32sym	aeq1, aeq0
    7af6:	625914        	ae_sq32f.iu	aeq1, a9, 4
    7af9:	ffe3c6        	j	7a8c <Mel_filter+0x88>

00007afc <Mel_filter_inv>:
    7afc:	006136        	entry	a1, 48
    7aff:	fcc662        	addi	a6, a6, -4
    7b02:	339d           	ae_l16si.n	a9, a3, 2
    7b04:	238d           	ae_l16si.n	a8, a3, 0
    7b06:	fec442        	addi	a4, a4, -2
    7b09:	8b0c           	movi.n	a11, 8
    7b0b:	151897        	beq	a8, a9, 7b24 <Mel_filter_inv+0x28>
    7b0e:	409414        	ae_lp16f.iu	aep1, a4, 2
    7b11:	05ad           	mov.n	a10, a5
    7b13:	605a04        	ae_lq32f.iu	aeq1, a10, 0
    7b16:	081c64        	ae_mulfq32sp24s.h	aeq1, aeq1, aep1
    7b19:	fc24fe9b0f 	{ ae_slaasq56s	aeq0, aeq1, a11; nop }
    7b1e:	1b8c04        	ae_roundsp24q48sym	aep0, aeq0
    7b21:	528614        	ae_sp24f.l.iu	aep0, a6, 4

00007b24 <Mel_filter_inv+0x28>:
    7b24:	fec3d2        	addi	a13, a3, -2
    7b27:	0217e6        	bgei	a7, 1, 7b2d <Mel_filter_inv+0x31>
    7b2a:	003886        	j	7c10 <Mel_filter_inv+0x114>
    7b2d:	fcc5a2        	addi	a10, a5, -4
    7b30:	0c0c           	movi.n	a12, 0
    7b32:	0129           	s32i.n	a2, a1, 0
    7b34:	00a1e2        	movi	a14, 0x100
    7b37:	080c           	movi.n	a8, 0
    7b39:	1189           	s32i.n	a8, a1, 4
    7b3b:	fe20a23eef 	{ ae_movpa24x2	aep3, a14, a14; ae_zerop48	aep4 }

00007b40 <Mel_filter_inv+0x44>:
    7b40:	40ad24        	ae_lp16f.iu	aep2, a13, 4
    7b43:	40ddf4        	ae_lp16f.iu	aep5, a13, -2
    7b46:	07a594        	ae_subsp24s	aep1, aep2, aep5
    7b49:	199c04        	ae_eqp24	b0:b1, aep1, aep4
    7b4c:	d26480459e 	{ addi	a9, a5, 4; ae_eqp24	b2:b3, aep1, aep3 }
    7b51:	1e0076        	bf	b0, 7b73 <Mel_filter_inv+0x77>
    7b54:	095d           	mov.n	a5, a9
    7b56:	40f414        	ae_lp16f.iu	aep7, a4, 2
    7b59:	60d904        	ae_lq32f.iu	aeq3, a9, 0
    7b5c:	fb1d404aae 	{ addi	a10, a10, 4; ae_mulfq32sp24s.h	aeq3, aeq3, aep7 }
    7b61:	9c1b           	addi.n	a9, a12, 1
    7b63:	fc24febb8f 	{ ae_slaasq56s	aeq2, aeq3, a11; nop }
    7b68:	fbf793c99f 	{ or	a12, a9, a9; ae_roundsp24q48sym	aep6, aeq2 }
    7b6d:	52e614        	ae_sp24f.l.iu	aep6, a6, 4
    7b70:	002506        	j	7c08 <Mel_filter_inv+0x10c>

00007b73 <Mel_filter_inv+0x77>:
    7b73:	200276        	bf	b2, 7b97 <Mel_filter_inv+0x9b>
    7b76:	e54b           	addi.n	a14, a5, 4
    7b78:	409414        	ae_lp16f.iu	aep1, a4, 2
    7b7b:	0e5d           	mov.n	a5, a14
    7b7d:	605e04        	ae_lq32f.iu	aeq1, a14, 0
    7b80:	f805404aae 	{ addi	a10, a10, 4; ae_mulfq32sp24s.h	aeq1, aeq1, aep1 }
    7b85:	9c1b           	addi.n	a9, a12, 1
    7b87:	fc24fe9b0f 	{ ae_slaasq56s	aeq0, aeq1, a11; nop }
    7b8c:	f8e793c99f 	{ or	a12, a9, a9; ae_roundsp24q48sym	aep0, aeq0 }
    7b91:	528614        	ae_sp24f.l.iu	aep0, a6, 4
    7b94:	001c06        	j	7c08 <Mel_filter_inv+0x10c>

00007b97 <Mel_filter_inv+0x9b>:
    7b97:	232d           	ae_l16si.n	a2, a3, 0
    7b99:	33fd           	ae_l16si.n	a15, a3, 2
    7b9b:	1198           	l32i.n	a9, a1, 4
    7b9d:	221b           	addi.n	a2, a2, 1
    7b9f:	ef0b           	addi.n	a14, a15, -1
    7ba1:	452e27        	blt	a14, a2, 7bea <Mel_filter_inv+0xee>
    7ba4:	2139           	s32i.n	a3, a1, 8
    7ba6:	e22781        	l32r	a8, 444 (7fff00 <_end+0x7f40c4>)
    7ba9:	0138           	l32i.n	a3, a1, 0
    7bab:	399884        	ae_movpa24x2	aep1, a8, a8
    7bae:	c08f20        	sub	a8, a15, a2
    7bb1:	903930        	addx2	a3, a9, a3
    7bb4:	fec3f2        	addi	a15, a3, -2
    7bb7:	2138           	l32i.n	a3, a1, 8
    7bb9:	24a876        	loopgtz	a8, 7be1 <Mel_filter_inv+0xe5>
    7bbc:	0a8d           	mov.n	a8, a10
    7bbe:	40ef14        	ae_lp16f.iu	aep6, a15, 2
    7bc1:	dfc6fd382f 	{ ae_lq32f.iu	aeq1, a8, 8; ae_subsp24s	aep7, aep1, aep6 }
    7bc6:	f87d7d18ff 	{ ae_lq32f.iu	aeq0, a8, -4; ae_mulrfq32sp24s.h	aeq1, aeq1, aep7 }
    7bcb:	086414        	ae_mulrfq32sp24s.h	aeq0, aeq0, aep6
    7bce:	fb666cd41f 	{ ae_lp16f.iu	aep5, a4, 2; ae_addsq56s	aeq3, aeq0, aeq1 }
    7bd3:	08dce4        	ae_mulfq32sp24s.h	aeq3, aeq3, aep5
    7bd6:	fc24febb8f 	{ ae_slaasq56s	aeq2, aeq3, a11; nop }
    7bdb:	1bac24        	ae_roundsp24q48sym	aep2, aeq2
    7bde:	52a614        	ae_sp24f.l.iu	aep2, a6, 4

00007be1 <Mel_filter_inv+0xe5>:
    7be1:	c0fe20        	sub	a15, a14, a2
    7be4:	f9fa           	add.n	a15, a9, a15
    7be6:	ff1b           	addi.n	a15, a15, 1
    7be8:	11f9           	s32i.n	a15, a1, 4

00007bea <Mel_filter_inv+0xee>:
    7bea:	409414        	ae_lp16f.iu	aep1, a4, 2
    7bed:	854b           	addi.n	a8, a5, 4
    7bef:	085d           	mov.n	a5, a8
    7bf1:	60d804        	ae_lq32f.iu	aeq3, a8, 0
    7bf4:	fb05404aae 	{ addi	a10, a10, 4; ae_mulfq32sp24s.h	aeq3, aeq3, aep1 }
    7bf9:	9c1b           	addi.n	a9, a12, 1
    7bfb:	fc24febb8f 	{ ae_slaasq56s	aeq2, aeq3, a11; nop }
    7c00:	f8f793c99f 	{ or	a12, a9, a9; ae_roundsp24q48sym	aep0, aeq2 }
    7c05:	528614        	ae_sp24f.l.iu	aep0, a6, 4
    7c08:	332b           	addi.n	a3, a3, 2
    7c0a:	c0e970        	sub	a14, a9, a7
    7c0d:	f2fe56        	bnez	a14, 7b40 <Mel_filter_inv+0x44>

00007c10 <Mel_filter_inv+0x114>:
    7c10:	f01d           	retw.n

00007c12 <Mel_filter_inv+0x116>:
	...

00007c14 <NR_WienerFilter>:
    7c14:	008136        	entry	a1, 64
    7c17:	0268           	l32i.n	a6, a2, 0
    7c19:	129242        	l16si	a4, a2, 36
    7c1c:	0bd232        	addmi	a3, a2, 0xb00
    7c1f:	08d252        	addmi	a5, a2, 0x800
    7c22:	28c552        	addi	a5, a5, 40
    7c25:	7f93d2        	l16si	a13, a3, 254
    7c28:	6149           	s32i.n	a4, a1, 24
    7c2a:	fcc372        	addi	a7, a3, -4
    7c2d:	350242        	l8ui	a4, a2, 53
    7c30:	8097c2        	l16si	a12, a7, 0x100
    7c33:	7c9332        	l16si	a3, a3, 248
    7c36:	08d682        	addmi	a8, a6, 0x800
    7c39:	5189           	s32i.n	a8, a1, 20
    7c3b:	66cb           	addi.n	a6, a6, 12
    7c3d:	3169           	s32i.n	a6, a1, 12
    7c3f:	03ad           	mov.n	a10, a3
    7c41:	0aa3d7        	bge	a3, a13, 7c4f <NR_WienerFilter+0x3b>
    7c44:	056d           	mov.n	a6, a5
    7c46:	0d3d           	mov.n	a3, a13
    7c48:	180c           	movi.n	a8, 1
    7c4a:	2189           	s32i.n	a8, a1, 8
    7c4c:	0000c6        	j	7c53 <NR_WienerFilter+0x3f>

00007c4f <NR_WienerFilter+0x3b>:
    7c4f:	090c           	movi.n	a9, 0
    7c51:	2199           	s32i.n	a9, a1, 8

00007c53 <NR_WienerFilter+0x3f>:
    7c53:	03a3c7        	bge	a3, a12, 7c5a <NR_WienerFilter+0x46>
    7c56:	0c3d           	mov.n	a3, a12
    7c58:	5168           	l32i.n	a6, a1, 20

00007c5a <NR_WienerFilter+0x46>:
    7c5a:	121a37        	beq	a10, a3, 7c70 <NR_WienerFilter+0x5c>
    7c5d:	31b8           	l32i.n	a11, a1, 12
    7c5f:	03cd           	mov.n	a12, a3
    7c61:	0add           	mov.n	a13, a10
    7c63:	e22081        	l32r	a8, 4e4 (71c8 <equal_power>)
    7c66:	04ed           	mov.n	a14, a4
    7c68:	06ad           	mov.n	a10, a6
    7c6a:	0008e0        	callx8	a8
    7c6d:	8197d2        	l16si	a13, a7, 0x102

00007c70 <NR_WienerFilter+0x5c>:
    7c70:	0d1d37        	beq	a13, a3, 7c81 <NR_WienerFilter+0x6d>
    7c73:	06ad           	mov.n	a10, a6
    7c75:	05bd           	mov.n	a11, a5
    7c77:	e21b81        	l32r	a8, 4e4 (71c8 <equal_power>)
    7c7a:	03cd           	mov.n	a12, a3
    7c7c:	04ed           	mov.n	a14, a4
    7c7e:	0008e0        	callx8	a8

00007c81 <NR_WienerFilter+0x6d>:
    7c81:	8097c2        	l16si	a12, a7, 0x100
    7c84:	0f1c37        	beq	a12, a3, 7c97 <NR_WienerFilter+0x83>
    7c87:	06ad           	mov.n	a10, a6
    7c89:	51b8           	l32i.n	a11, a1, 20
    7c8b:	0cdd           	mov.n	a13, a12
    7c8d:	e21581        	l32r	a8, 4e4 (71c8 <equal_power>)
    7c90:	04ed           	mov.n	a14, a4
    7c92:	03cd           	mov.n	a12, a3
    7c94:	0008e0        	callx8	a8

00007c97 <NR_WienerFilter+0x83>:
    7c97:	e165d1        	l32r	a13, 22c (7fff <ifft_wo+0x107>)
    7c9a:	7e5732        	s16i	a3, a7, 252
    7c9d:	805732        	s16i	a3, a7, 0x100
    7ca0:	815732        	s16i	a3, a7, 0x102
    7ca3:	31a8           	l32i.n	a10, a1, 12
    7ca5:	51c8           	l32i.n	a12, a1, 20
    7ca7:	08d292        	addmi	a9, a2, 0x800
    7caa:	48c992        	addi	a9, a9, 72
    7cad:	20bcc0        	or	a11, a12, a12
    7cb0:	600c04        	ae_lq32f.i	aeq0, a12, 0
    7cb3:	fccaa2        	addi	a10, a10, -4
    7cb6:	604984        	ae_lq32f.i	aeq1, a9, -32
    7cb9:	0161a2        	s32i	a10, a1, 4
    7cbc:	209550        	or	a9, a5, a5
    7cbf:	0cd2c2        	addmi	a12, a2, 0xc00
    7cc2:	440cd4        	ae_lp16x2f.i	aep0, a12, -12
    7cc5:	3c9476        	loopnez	a4, 7d05 <NR_WienerFilter+0xf1>
    7cc8:	fa6a3d7a1f 	{ ae_lq32f.iu	aeq3, a10, 4; ae_addq56	aeq2, aeq1, aeq0 }
    7ccd:	c188e4        	ae_mulzaafq32sp16s.lh	aeq3, aeq3, aep0, aeq2, aep0
    7cd0:	364e04        	ae_nsaq56s	a14, aeq0
    7cd3:	367f04        	ae_nsaq56s	a15, aeq3
    7cd6:	43eef0        	min	a14, a14, a15
    7cd9:	e9cef2        	addi	a15, a14, -23
    7cdc:	fc24febf8f 	{ ae_slaasq56s	aeq2, aeq3, a15; nop }
    7ce1:	36ac04        	ae_trunca32q48	a12, aeq2
    7ce4:	f8cee2        	addi	a14, a14, -8
    7ce7:	340e94        	ae_sllaq56	aeq0, aeq0, a14
    7cea:	4ccc           	bnez.n	a12, 7cf2 <NR_WienerFilter+0xde>
    7cec:	e0f5c1        	l32r	a12, c0 (8000 <ifft_wo+0x108>)
    7cef:	000146        	j	7cf8 <NR_WienerFilter+0xe4>

00007cf2 <NR_WienerFilter+0xde>:
    7cf2:	368804        	ae_trunca32q48	a8, aeq0
    7cf5:	d2c8c0        	quos	a12, a8, a12

00007cf8 <NR_WienerFilter+0xe4>:
    7cf8:	601b14        	ae_lq32f.iu	aeq0, a11, 4
    7cfb:	09fd           	mov.n	a15, a9
    7cfd:	c0edc0        	sub	a14, a13, a12
    7d00:	605914        	ae_lq32f.iu	aeq1, a9, 4
    7d03:	0fe9           	s32i.n	a14, a15, 0

00007d05 <NR_WienerFilter+0xf1>:
    7d05:	14d232        	addmi	a3, a2, 0x1400
    7d08:	78a082        	movi	a8, 120
    7d0b:	22c292        	addi	a9, a2, 34
    7d0e:	4199           	s32i.n	a9, a1, 16
    7d10:	7bb847        	bgeu	a8, a4, 7d8f <NR_WienerFilter+0x17b>
    7d13:	400904        	ae_lp16f.i	aep0, a9, 0
    7d16:	e22d81        	l32r	a8, 5cc (79e8 <common_gain_limiter>)
    7d19:	15d292        	addmi	a9, a2, 0x1500
    7d1c:	60d914        	ae_lq32f.iu	aeq3, a9, 4
    7d1f:	d7e36843ae 	{ l16si	a10, a3, 0x108; ae_mulfq32sp16s.l	aeq3, aeq3, aep0 }
    7d24:	05bd           	mov.n	a11, a5
    7d26:	36bc04        	ae_trunca32q48	a12, aeq3
    7d29:	0008e0        	callx8	a8
    7d2c:	8493c2        	l16si	a12, a3, 0x108
    7d2f:	0abd           	mov.n	a11, a10
    7d31:	119262        	l16si	a6, a2, 34
    7d34:	8593a2        	l16si	a10, a3, 0x10a
    7d37:	e22581        	l32r	a8, 5cc (79e8 <common_gain_limiter>)
    7d3a:	116600        	slli	a6, a6, 16
    7d3d:	c0aac0        	sub	a10, a10, a12
    7d40:	06cd           	mov.n	a12, a6
    7d42:	0008e0        	callx8	a8
    7d45:	e22181        	l32r	a8, 5cc (79e8 <common_gain_limiter>)
    7d48:	379664        	ae_truncp24a32x2	aep1, a6, a6
    7d4b:	0abd           	mov.n	a11, a10
    7d4d:	15d2d2        	addmi	a13, a2, 0x1500
    7d50:	e0d7a1        	l32r	a10, ac (b880 <wb_sb_ptn>)
    7d53:	600d04        	ae_lq32f.i	aeq0, a13, 0
    7d56:	d4e62853ce 	{ l16si	a12, a3, 0x10a; ae_mulfq32sp16s.l	aeq0, aeq0, aep1 }
    7d5b:	089aa2        	l16si	a10, a10, 16
    7d5e:	368604        	ae_trunca32q48	a6, aeq0
    7d61:	01d9           	s32i.n	a13, a1, 0
    7d63:	c0aac0        	sub	a10, a10, a12
    7d66:	06cd           	mov.n	a12, a6
    7d68:	0008e0        	callx8	a8
    7d6b:	e21881        	l32r	a8, 5cc (79e8 <common_gain_limiter>)
    7d6e:	01b8           	l32i.n	a11, a1, 0
    7d70:	e0cf91        	l32r	a9, ac (b880 <wb_sb_ptn>)
    7d73:	37a664        	ae_truncp24a32x2	aep2, a6, a6
    7d76:	503b04        	ae_lp24f.i	aep3, a11, 0
    7d79:	012b74        	ae_mulfp24s.ll	aeq1, aep2, aep3
    7d7c:	089992        	l16si	a9, a9, 16
    7d7f:	369604        	ae_trunca32q48	a6, aeq1
    7d82:	0abd           	mov.n	a11, a10
    7d84:	c0a490        	sub	a10, a4, a9
    7d87:	06cd           	mov.n	a12, a6
    7d89:	0008e0        	callx8	a8
    7d8c:	000446        	j	7da1 <NR_WienerFilter+0x18d>

00007d8f <NR_WienerFilter+0x17b>:
    7d8f:	04ad           	mov.n	a10, a4
    7d91:	119262        	l16si	a6, a2, 34
    7d94:	05bd           	mov.n	a11, a5
    7d96:	e20d81        	l32r	a8, 5cc (79e8 <common_gain_limiter>)
    7d99:	116600        	slli	a6, a6, 16
    7d9c:	06cd           	mov.n	a12, a6
    7d9e:	0008e0        	callx8	a8

00007da1 <NR_WienerFilter+0x18d>:
    7da1:	05cd           	mov.n	a12, a5
    7da3:	21e8           	l32i.n	a14, a1, 8
    7da5:	0298           	l32i.n	a9, a2, 0
    7da7:	41b8           	l32i.n	a11, a1, 16
    7da9:	4123a2        	l32i	a10, a3, 0x104
    7dac:	368a34        	ae_cvtq48a32s	aeq2, a10
    7daf:	404b04        	ae_lp16f.i	aep4, a11, 0
    7db2:	d7f200038f 	{ movi	a8, 3; ae_mulfq32sp16s.l	aeq2, aeq2, aep4 }
    7db7:	11a8           	l32i.n	a10, a1, 4
    7db9:	f8f78fc99e 	{ addi	a9, a9, -4; ae_roundsp24q48sym	aep0, aeq2 }
    7dbe:	02a876        	loopgtz	a8, 7dc4 <NR_WienerFilter+0x1b0>
    7dc1:	528914        	ae_sp24f.l.iu	aep0, a9, 4

00007dc4 <NR_WienerFilter+0x1b0>:
    7dc4:	500504        	ae_lp24f.i	aep0, a5, 0
    7dc7:	04ac           	beqz.n	a4, 7deb <NR_WienerFilter+0x1d7>
    7dc9:	0b0c           	movi.n	a11, 0
    7dcb:	f03d           	nop.n
    7dcd:	179476        	loopnez	a4, 7de8 <NR_WienerFilter+0x1d4>
    7dd0:	60da14        	ae_lq32f.iu	aeq3, a10, 4
    7dd3:	088de4        	ae_mulfq32sp24s.l	aeq3, aeq3, aep0
    7dd6:	088dd4        	ae_mulrfq32sp24s.l	aeq3, aeq3, aep0
    7dd9:	36bd04        	ae_trunca32q48	a13, aeq3
    7ddc:	623c04        	ae_sq32f.i	aeq3, a12, 0
    7ddf:	528914        	ae_sp24f.l.iu	aep0, a9, 4
    7de2:	508c14        	ae_lp24f.iu	aep0, a12, 4
    7de5:	53bbd0        	max	a11, a11, a13
    7de8:	000046        	j	7ded <NR_WienerFilter+0x1d9>

00007deb <NR_WienerFilter+0x1d7>:
    7deb:	0b0c           	movi.n	a11, 0

00007ded <NR_WienerFilter+0x1d9>:
    7ded:	378664        	ae_truncp24a32x2	aep0, a6, a6
    7df0:	7c0c           	movi.n	a12, 7
    7df2:	1b1e66        	bnei	a14, 1, 7e11 <NR_WienerFilter+0x1fd>
    7df5:	8197f2        	l16si	a15, a7, 0x102
    7df8:	40eba0        	nsa	a10, a11
    7dfb:	c0ffa0        	sub	a15, a15, a10
    7dfe:	8157f2        	s16i	a15, a7, 0x102
    7e01:	c48c           	beqz.n	a4, 7e11 <NR_WienerFilter+0x1fd>
    7e03:	401a00        	ssl	a10
    7e06:	079476        	loopnez	a4, 7e11 <NR_WienerFilter+0x1fd>
    7e09:	0588           	l32i.n	a8, a5, 0
    7e0b:	a18800        	sll	a8, a8
    7e0e:	09e584        	ae_s32ip	a8, a5, 4
    7e11:	3402d2        	l8ui	a13, a2, 52
    7e14:	fb0c           	movi.n	a11, 15
    7e16:	5a0c           	movi.n	a10, 5
    7e18:	62ccd0        	saltu	a12, a12, a13
    7e1b:	93abc0        	movnez	a10, a11, a12
    7e1e:	02aa76        	loopgtz	a10, 7e24 <NR_WienerFilter+0x210>
    7e21:	528914        	ae_sp24f.l.iu	aep0, a9, 4

00007e24 <NR_WienerFilter+0x210>:
    7e24:	0258           	l32i.n	a5, a2, 0
    7e26:	61f8           	l32i.n	a15, a1, 24
    7e28:	05ed           	mov.n	a14, a5
    7e2a:	04d542        	addmi	a4, a5, 0x400
    7e2d:	6d1f66        	bnei	a15, 1, 7e9e <NR_WienerFilter+0x28a>
    7e30:	3f23a2        	l32i	a10, a3, 252
    7e33:	3d23b2        	l32i	a11, a3, 244
    7e36:	05cd           	mov.n	a12, a5
    7e38:	e1e681        	l32r	a8, 5d0 (7a04 <Mel_filter>)
    7e3b:	04dd           	mov.n	a13, a4
    7e3d:	2e4c           	movi.n	a14, 66
    7e3f:	0008e0        	callx8	a8
    7e42:	05ed           	mov.n	a14, a5
    7e44:	04dd           	mov.n	a13, a4
    7e46:	3e23a2        	l32i	a10, a3, 248
    7e49:	3d23b2        	l32i	a11, a3, 244
    7e4c:	e1e281        	l32r	a8, 5d4 (7afc <Mel_filter_inv>)
    7e4f:	3c23c2        	l32i	a12, a3, 240
    7e52:	41a0f2        	movi	a15, 65
    7e55:	0008e0        	callx8	a8

00007e58 <NR_WienerFilter+0x244>:
    7e58:	02e8           	l32i.n	a14, a2, 0

00007e5a <NR_WienerFilter+0x246>:
    7e5a:	00a1d2        	movi	a13, 0x100
    7e5d:	80a0c2        	movi	a12, 128
    7e60:	340282        	l8ui	a8, a2, 52
    7e63:	07a0f2        	movi	a15, 7
    7e66:	3823b2        	l32i	a11, a3, 224
    7e69:	11d2a2        	addmi	a10, a2, 0x1100
    7e6c:	fcce92        	addi	a9, a14, -4
    7e6f:	c0caa2        	addi	a10, a10, -64
    7e72:	401a04        	ae_lp16f.i	aep1, a10, 0
    7e75:	508914        	ae_lp24f.iu	aep0, a9, 4
    7e78:	5c2b04        	ae_lp24x2f.i	aep2, a11, 0
    7e7b:	62ff80        	saltu	a15, a15, a8
    7e7e:	93cdf0        	movnez	a12, a13, a15
    7e81:	17ac76        	loopgtz	a12, 7e9c <NR_WienerFilter+0x288>
    7e84:	012954        	ae_mulfp24s.hl	aeq1, aep2, aep1
    7e87:	ea29ac9a1f 	{ ae_lp16f.iu	aep1, a10, 2; ae_mulfp24s.ll	aeq0, aep2, aep1 }
    7e8c:	f8e16fab1f 	{ ae_lp24x2f.iu	aep2, a11, 8; ae_mulrfq32sp24s.l	aeq1, aeq1, aep0 }
    7e91:	f8e02e891f 	{ ae_lp24f.iu	aep0, a9, 4; ae_mulrfq32sp24s.l	aeq0, aeq0, aep0 }
    7e96:	621be4        	ae_sq32f.i	aeq1, a11, -8
    7e99:	620bf4        	ae_sq32f.i	aeq0, a11, -4

00007e9c <NR_WienerFilter+0x288>:
    7e9c:	f01d           	retw.n

00007e9e <NR_WienerFilter+0x28a>:
    7e9e:	292f66        	bnei	a15, 2, 7ecb <NR_WienerFilter+0x2b7>
    7ea1:	3f23a2        	l32i	a10, a3, 252
    7ea4:	3d23b2        	l32i	a11, a3, 244
    7ea7:	05cd           	mov.n	a12, a5
    7ea9:	e1c981        	l32r	a8, 5d0 (7a04 <Mel_filter>)
    7eac:	04dd           	mov.n	a13, a4
    7eae:	2e2c           	movi.n	a14, 34
    7eb0:	0008e0        	callx8	a8
    7eb3:	05ed           	mov.n	a14, a5
    7eb5:	04dd           	mov.n	a13, a4
    7eb7:	3e23a2        	l32i	a10, a3, 248
    7eba:	3d23b2        	l32i	a11, a3, 244
    7ebd:	e1c581        	l32r	a8, 5d4 (7afc <Mel_filter_inv>)
    7ec0:	3c23c2        	l32i	a12, a3, 240
    7ec3:	1f2c           	movi.n	a15, 33
    7ec5:	0008e0        	callx8	a8
    7ec8:	ffe306        	j	7e58 <NR_WienerFilter+0x244>

00007ecb <NR_WienerFilter+0x2b7>:
    7ecb:	8b3f66        	bnei	a15, 3, 7e5a <NR_WienerFilter+0x246>
    7ece:	3f23a2        	l32i	a10, a3, 252
    7ed1:	3d23b2        	l32i	a11, a3, 244
    7ed4:	05cd           	mov.n	a12, a5
    7ed6:	e1be81        	l32r	a8, 5d0 (7a04 <Mel_filter>)
    7ed9:	04dd           	mov.n	a13, a4
    7edb:	2e1c           	movi.n	a14, 18
    7edd:	0008e0        	callx8	a8
    7ee0:	05ed           	mov.n	a14, a5
    7ee2:	04dd           	mov.n	a13, a4
    7ee4:	3e23a2        	l32i	a10, a3, 248
    7ee7:	3d23b2        	l32i	a11, a3, 244
    7eea:	e1ba81        	l32r	a8, 5d4 (7afc <Mel_filter_inv>)
    7eed:	3c23c2        	l32i	a12, a3, 240
    7ef0:	1f1c           	movi.n	a15, 17
    7ef2:	0008e0        	callx8	a8
    7ef5:	ffd7c6        	j	7e58 <NR_WienerFilter+0x244>

00007ef8 <ifft_wo>:
    7ef8:	006136        	entry	a1, 48
    7efb:	049d           	mov.n	a9, a4
    7efd:	03fd           	mov.n	a15, a3
    7eff:	340282        	l8ui	a8, a2, 52
    7f02:	0268           	l32i.n	a6, a2, 0
    7f04:	0e0c           	movi.n	a14, 0
    7f06:	13d2a2        	addmi	a10, a2, 0x1300
    7f09:	e8cab2        	addi	a11, a10, -24
    7f0c:	01b9           	s32i.n	a11, a1, 0
    7f0e:	782aa2        	l32i	a10, a10, 0x1e0
    7f11:	16e9           	s32i.n	a14, a6, 4
    7f13:	06e9           	s32i.n	a14, a6, 0
    7f15:	5c1a04        	ae_lp24x2f.i	aep1, a10, 0
    7f18:	1588b6        	bltui	a8, 8, 7f31 <ifft_wo+0x39>
    7f1b:	f0a032        	movi	a3, 240
    7f1e:	00a272        	movi	a7, 0x200
    7f21:	1d0c           	movi.n	a13, 1
    7f23:	e165b1        	l32r	a11, 4b8 (b082 <fftorder_512_12b+0x2>)
    7f26:	9c0c           	movi.n	a12, 9
    7f28:	11c9           	s32i.n	a12, a1, 4
    7f2a:	000486        	j	7f40 <ifft_wo+0x48>

00007f2d <ifft_wo+0x35>:
    7f2d:	00000000                                ....

00007f31 <ifft_wo+0x39>:
    7f31:	00a172        	movi	a7, 0x100
    7f34:	2d0c           	movi.n	a13, 2
    7f36:	e19bb1        	l32r	a11, 5a4 (b084 <fftorder_512_12b+0x4>)
    7f39:	830c           	movi.n	a3, 8
    7f3b:	1139           	s32i.n	a3, a1, 4
    7f3d:	78a032        	movi	a3, 120

00007f40 <ifft_wo+0x48>:
    7f40:	e19181        	l32r	a8, 584 (b560 <NR_immediate_num>)
    7f43:	440404        	ae_lp16x2f.i	aep0, a4, 0
    7f46:	1692c2        	l16si	a12, a2, 44
    7f49:	442804        	ae_lp16x2f.i	aep2, a8, 0
    7f4c:	444814        	ae_lp16x2f.i	aep4, a8, 4
    7f4f:	00acd6        	bgez	a12, 7f5d <ifft_wo+0x65>
    7f52:	050c           	movi.n	a5, 0
    7f54:	60e0c0        	neg	a14, a12
    7f57:	0316e4        	wur.ae_sar	a14
    7f5a:	000106        	j	7f62 <ifft_wo+0x6a>

00007f5d <ifft_wo+0x65>:
    7f5d:	0316e4        	wur.ae_sar	a14
    7f60:	0c5d           	mov.n	a5, a12

00007f62 <ifft_wo+0x6a>:
    7f62:	11cdf0        	slli	a12, a13, 1
    7f65:	f8a38002ef 	{ movi	a14, 2; ae_srasp24	aep0, aep0 }
    7f6a:	d2e7e0        	quos	a14, a7, a14
    7f6d:	1bae76        	loopgtz	a14, 7f8c <ifft_wo+0x94>
    7f70:	df05be185f 	{ ae_selp24.hl	aep5, aep1, aep0; ae_selp24.lh	aep6, aep1, aep0 }
    7f75:	f09ae00b8e 	{ l16si	a8, a11, 0; ae_mulzaafp24s.hh.ll	aeq1, aep6, aep4 }
    7f7a:	f05690bbcf 	{ add	a11, a11, a12; ae_mulzaafp24s.hh.ll	aeq0, aep5, aep2 }
    7f7f:	5c9a14        	ae_lp24x2f.iu	aep1, a10, 8
    7f82:	f9466d891f 	{ ae_lp16x2f.iu	aep0, a9, 4; ae_truncp24q48x2	aep3, aeq0, aeq1 }
    7f87:	f8a3a9368f 	{ ae_sp24x2f.x	aep3, a6, a8; ae_srasp24	aep0, aep0 }

00007f8c <ifft_wo+0x94>:
    7f8c:	11cdf0        	slli	a12, a13, 1
    7f8f:	5c9ae4        	ae_lp24x2f.iu	aep1, a10, -16
    7f92:	fe982d89ef 	{ ae_lp16x2f.iu	aep0, a9, -8; ae_negsp24s	aep4, aep4 }
    7f97:	f8a38ffe8e 	{ addi	a8, a14, -1; ae_srasp24	aep0, aep0 }
    7f9c:	f03d           	nop.n
    7f9e:	1ba876        	loopgtz	a8, 7fbd <ifft_wo+0xc5>
    7fa1:	df05be185f 	{ ae_selp24.hl	aep5, aep1, aep0; ae_selp24.lh	aep6, aep1, aep0 }
    7fa6:	f15ae00bde 	{ l16si	a13, a11, 0; ae_mulzaafp24s.hh.ll	aeq3, aep6, aep2 }
    7fab:	f19690bbcf 	{ add	a11, a11, a12; ae_mulzaafp24s.hh.ll	aeq2, aep5, aep4 }
    7fb0:	5c9af4        	ae_lp24x2f.iu	aep1, a10, -8
    7fb3:	f9d66d89ff 	{ ae_lp16x2f.iu	aep0, a9, -4; ae_truncp24q48x2	aep3, aeq2, aeq3 }
    7fb8:	f8a3a936df 	{ ae_sp24x2f.x	aep3, a6, a13; ae_srasp24	aep0, aep0 }
    7fbd:	06ad           	mov.n	a10, a6
    7fbf:	87bd           	ae_sext16	a11, a7
    7fc1:	8c0c           	movi.n	a12, 8
    7fc3:	0d0c           	movi.n	a13, 0
    7fc5:	e13d81        	l32r	a8, 4bc (8978 <sw_fft_32b_2811>)
    7fc8:	1e0c           	movi.n	a14, 1
    7fca:	31f9           	s32i.n	a15, a1, 12
    7fcc:	0008e0        	callx8	a8
    7fcf:	fec4b2        	addi	a11, a4, -2
    7fd2:	1188           	l32i.n	a8, a1, 4
    7fd4:	169292        	l16si	a9, a2, 44
    7fd7:	0afd           	mov.n	a15, a10
    7fd9:	c0e730        	sub	a14, a7, a3
    7fdc:	0cd2d2        	addmi	a13, a2, 0xc00
    7fdf:	fccdd2        	addi	a13, a13, -4
    7fe2:	21e9           	s32i.n	a14, a1, 8
    7fe4:	06ad           	mov.n	a10, a6
    7fe6:	604a04        	ae_lq32f.i	aeq1, a10, 0
    7fe9:	0168           	l32i.n	a6, a1, 0
    7feb:	601a14        	ae_lq32f.iu	aeq0, a10, 4
    7fee:	c0ff90        	sub	a15, a15, a9
    7ff1:	3198           	l32i.n	a9, a1, 12
    7ff3:	812662        	l32i	a6, a6, 0x204
    7ff6:	c0ff80        	sub	a15, a15, a8
    7ff9:	ff4b           	addi.n	a15, a15, 4
    7ffb:	5f5a           	add.n	a5, a15, a5
    7ffd:	90ee60        	addx2	a14, a14, a6
    8000:	fec9c2        	addi	a12, a9, -2
    8003:	fec662        	addi	a6, a6, -2
    8006:	31a376        	loopgtz	a3, 803b <ifft_wo+0x143>
    8009:	40bef4        	ae_lp16f.iu	aep3, a14, -2
    800c:	fc24fe9f4f 	{ ae_slaasq56s	aeq1, aeq1, a15; nop }
    8011:	fc24fe850f 	{ ae_slaasq56s	aeq0, aeq0, a5; nop }
    8016:	fc446dad1f 	{ ae_lp16x2f.iu	aep2, a13, 4; ae_roundsq32sym	aeq0, aeq0 }
    801b:	01a374        	ae_mulfp24s.ll	aeq2, aep2, aep3
    801e:	065834        	ae_roundsq32sym	aeq1, aeq1
    8021:	eb68ec961f 	{ ae_lp16f.iu	aep1, a6, 2; ae_mulfp24s.hl	aeq3, aep2, aep3 }
    8026:	039854        	ae_mulafq32sp16s.l	aeq3, aeq1, aep1
    8029:	f984bd3a1f 	{ ae_lq32f.iu	aeq1, a10, 4; ae_mulsfq32sp16s.l	aeq2, aeq0, aep1 }
    802e:	f8fbbd1a1f 	{ ae_lq32f.iu	aeq0, a10, 4; ae_roundsp16q48sym	aep0, aeq3 }
    8033:	fbf3f28c1f 	{ ae_sp16f.l.iu	aep0, a12, 2; ae_roundsp16q48sym	aep7, aeq2 }
    8038:	42fb14        	ae_sp16f.l.iu	aep7, a11, 2
    803b:	04bd           	mov.n	a11, a4
    803d:	401404        	ae_lp16f.i	aep1, a4, 0
    8040:	0221d2        	l32i	a13, a1, 8
    8043:	20c990        	or	a12, a9, a9
    8046:	400904        	ae_lp16f.i	aep0, a9, 0
    8049:	1183f0        	slli	a8, a3, 1
    804c:	c08780        	sub	a8, a7, a8
    804f:	a09320        	addx4	a9, a3, a2
    8052:	a0dd20        	addx4	a13, a13, a2
    8055:	0cd992        	addmi	a9, a9, 0xc00
    8058:	fcc992        	addi	a9, a9, -4
    805b:	0cddd2        	addmi	a13, a13, 0xc00
    805e:	fccdd2        	addi	a13, a13, -4
    8061:	23a876        	loopgtz	a8, 8088 <ifft_wo+0x190>
    8064:	44e914        	ae_lp16x2f.iu	aep6, a9, 4
    8067:	fd2c2caeff 	{ ae_lp16f.iu	aep2, a14, -2; ae_cvtq48p24s.l	aeq1, aep1 }
    806c:	fe0c2dfd1f 	{ ae_lp16x2f.iu	aep7, a13, 4; ae_cvtq48p24s.l	aeq2, aep0 }
    8071:	e35f2c8c1f 	{ ae_lp16f.iu	aep0, a12, 2; ae_mulafp24s.hl	aeq2, aep7, aep2 }
    8076:	e25fec9b1f 	{ ae_lp16f.iu	aep1, a11, 2; ae_mulafp24s.ll	aeq1, aep7, aep2 }
    807b:	faf3f36d0f 	{ ae_sp16x2f.i	aep6, a13, 0; ae_roundsp16q48sym	aep5, aeq2 }
    8080:	faebb25cff 	{ ae_sp16f.l.i	aep5, a12, -2; ae_roundsp16q48sym	aep4, aeq1 }
    8085:	424bf4        	ae_sp16f.l.i	aep4, a11, -2
    8088:	604af4        	ae_lq32f.i	aeq1, a10, -4
    808b:	600a04        	ae_lq32f.i	aeq0, a10, 0
    808e:	21b8           	l32i.n	a11, a1, 8
    8090:	0cd292        	addmi	a9, a2, 0xc00
    8093:	fec992        	addi	a9, a9, -2
    8096:	1bab76        	loopgtz	a11, 80b5 <ifft_wo+0x1bd>
    8099:	fc24fe9f4f 	{ ae_slaasq56s	aeq1, aeq1, a15; nop }
    809e:	fc24fe85cf 	{ ae_slaasq56s	aeq3, aeq0, a5; nop }

000080a3 <ifft_wo+0x1ab>:
    80a3:	faebbd3a1f 	{ ae_lq32f.iu	aeq1, a10, 4; ae_roundsp16q48sym	aep4, aeq1 }
    80a8:	ff94bd1a1f 	{ ae_lq32f.iu	aeq0, a10, 4; ae_negq56	aeq3, aeq3 }
    80ad:	f9fbf2c91f 	{ ae_sp16f.l.iu	aep4, a9, 2; ae_roundsp16q48sym	aep3, aeq3 }
    80b2:	42b914        	ae_sp16f.l.iu	aep3, a9, 2

000080b5 <ifft_wo+0x1bd>:
    80b5:	f01d           	retw.n

000080b7 <ifft_wo+0x1bf>:
	...

000080b8 <airoha_divide>:
    80b8:	006136        	entry	a1, 48
    80bb:	028d           	mov.n	a8, a2
    80bd:	82cc           	bnez.n	a2, 80c9 <airoha_divide+0x11>
    80bf:	0f0356        	bnez	a3, 81b3 <airoha_divide+0xfb>
    80c2:	dffc31        	l32r	a3, b4 (7fffffff <_end+0x7fff41c3>)
    80c5:	020c           	movi.n	a2, 0
    80c7:	f01d           	retw.n

000080c9 <airoha_divide+0x11>:
    80c9:	e143e1        	l32r	a14, 5d8 (80000001 <_end+0x7fff41c5>)
    80cc:	dffad1        	l32r	a13, b4 (7fffffff <_end+0x7fff41c3>)
    80cf:	c3cc           	bnez.n	a3, 80df <airoha_divide+0x27>
    80d1:	0e3d           	mov.n	a3, a14
    80d3:	020c           	movi.n	a2, 0
    80d5:	722280        	salt	a2, a2, a8

000080d8 <airoha_divide+0x20>:
    80d8:	933d20        	movnez	a3, a13, a2
    80db:	f23c           	movi.n	a2, 63

000080dd <airoha_divide+0x25>:
    80dd:	f01d           	retw.n

000080df <airoha_divide+0x27>:
    80df:	605130        	abs	a5, a3
    80e2:	602180        	abs	a2, a8
    80e5:	02ad           	mov.n	a10, a2
    80e7:	057d           	mov.n	a7, a5
    80e9:	0072d6        	bgez	a2, 80f4 <airoha_divide+0x3c>
    80ec:	41a120        	srli	a10, a2, 1
    80ef:	120c           	movi.n	a2, 1
    80f1:	000046        	j	80f6 <airoha_divide+0x3e>

000080f4 <airoha_divide+0x3c>:
    80f4:	020c           	movi.n	a2, 0

000080f6 <airoha_divide+0x3e>:
    80f6:	40ea40        	nsa	a4, a10
    80f9:	401400        	ssl	a4
    80fc:	a1aa00        	sll	a10, a10
    80ff:	0045d6        	bgez	a5, 8107 <airoha_divide+0x4f>
    8102:	417150        	srli	a7, a5, 1
    8105:	220b           	addi.n	a2, a2, -1

00008107 <airoha_divide+0x4f>:
    8107:	40e7f0        	nsa	a15, a7
    810a:	ff1b           	addi.n	a15, a15, 1
    810c:	401f00        	ssl	a15
    810f:	c04f40        	sub	a4, a15, a4
    8112:	224a           	add.n	a2, a2, a4
    8114:	a17700        	sll	a7, a7
    8117:	97cd           	ae_zext16	a12, a7
    8119:	f5f070        	extui	a15, a7, 16, 16
    811c:	c2baf0        	quou	a11, a10, a15
    811f:	0b9d           	mov.n	a9, a11
    8121:	824fb0        	mull	a4, a15, a11
    8124:	82cbc0        	mull	a12, a11, a12
    8127:	c04a40        	sub	a4, a10, a4
    812a:	114400        	slli	a4, a4, 16
    812d:	046d           	mov.n	a6, a4
    812f:	10b4c7        	bgeu	a4, a12, 8143 <airoha_divide+0x8b>
    8132:	647a           	add.n	a6, a4, a7

00008134 <airoha_divide+0x7c>:
    8134:	9b0b           	addi.n	a9, a11, -1
    8136:	093677        	bltu	a6, a7, 8143 <airoha_divide+0x8b>
    8139:	06b6c7        	bgeu	a6, a12, 8143 <airoha_divide+0x8b>
    813c:	09bd           	mov.n	a11, a9
    813e:	667a           	add.n	a6, a6, a7
    8140:	fffc06        	j	8134 <airoha_divide+0x7c>

00008143 <airoha_divide+0x8b>:
    8143:	f5b090        	extui	a11, a9, 16, 16
    8146:	c066c0        	sub	a6, a6, a12
    8149:	c266f0        	quou	a6, a6, a15
    814c:	119900        	slli	a9, a9, 16
    814f:	696a           	add.n	a6, a9, a6
    8151:	629690        	saltu	a9, a6, a9
    8154:	99ba           	add.n	a9, a9, a11
    8156:	0b0c           	movi.n	a11, 0
    8158:	143a77        	bltu	a10, a7, 8170 <airoha_divide+0xb8>
    815b:	221b           	addi.n	a2, a2, 1
    815d:	a62b           	addi.n	a10, a6, 2
    815f:	404200        	ssai	2
    8162:	627a60        	saltu	a7, a10, a6
    8165:	779a           	add.n	a7, a7, a9
    8167:	8167a0        	src	a6, a7, a10
    816a:	417270        	srli	a7, a7, 2
    816d:	0003c6        	j	8180 <airoha_divide+0xc8>

00008170 <airoha_divide+0xb8>:
    8170:	404100        	ssai	1
    8173:	a61b           	addi.n	a10, a6, 1
    8175:	627a60        	saltu	a7, a10, a6
    8178:	779a           	add.n	a7, a7, a9
    817a:	8167a0        	src	a6, a7, a10
    817d:	417170        	srli	a7, a7, 1

00008180 <airoha_divide+0xc8>:
    8180:	dfcda1        	l32r	a10, b4 (7fffffff <_end+0x7fff41c3>)
    8183:	090c           	movi.n	a9, 0
    8185:	0637b7        	bltu	a7, a11, 818f <airoha_divide+0xd7>
    8188:	17cc           	bnez.n	a7, 818d <airoha_divide+0xd5>
    818a:	01ba67        	bgeu	a10, a6, 818f <airoha_divide+0xd7>

0000818d <airoha_divide+0xd5>:
    818d:	190c           	movi.n	a9, 1

0000818f <airoha_divide+0xd7>:
    818f:	305830        	xor	a5, a8, a3
    8192:	315f50        	srai	a5, a5, 31
    8195:	398c           	beqz.n	a9, 819c <airoha_divide+0xe4>
    8197:	221b           	addi.n	a2, a2, 1
    8199:	e07561        	l32r	a6, 370 (40000000 <_end+0x3fff41c4>)

0000819c <airoha_divide+0xe4>:
    819c:	c0c2c2        	addi	a12, a2, -64
    819f:	60f060        	neg	a15, a6
    81a2:	063d           	mov.n	a3, a6
    81a4:	933f50        	movnez	a3, a15, a5
    81a7:	f32c56        	bnez	a12, 80dd <airoha_divide+0x25>
    81aa:	0d3d           	mov.n	a3, a13
    81ac:	052d           	mov.n	a2, a5
    81ae:	0edd           	mov.n	a13, a14
    81b0:	ffc906        	j	80d8 <airoha_divide+0x20>

000081b3 <airoha_divide+0xfb>:
    81b3:	f12256        	bnez	a2, 80c9 <airoha_divide+0x11>
    81b6:	030c           	movi.n	a3, 0
    81b8:	c1af22        	movi	a2, -63
    81bb:	f01d           	retw.n

000081bd <airoha_divide+0x105>:
    81bd:	000000                                        ...

000081c0 <airoha_divide_limit_1>:
    81c0:	006136        	entry	a1, 48
    81c3:	e02181        	l32r	a8, 248 (80b8 <airoha_divide>)
    81c6:	03bd           	mov.n	a11, a3
    81c8:	02ad           	mov.n	a10, a2
    81ca:	0008e0        	callx8	a8
    81cd:	368b34        	ae_cvtq48a32s	aeq2, a11
    81d0:	fc24feaa4f 	{ ae_slaasq56s	aeq1, aeq2, a10; nop }
    81d5:	061934        	ae_roundsq32asym	aeq0, aeq1
    81d8:	620104        	ae_sq32f.i	aeq0, a1, 0
    81db:	0128           	l32i.n	a2, a1, 0
    81dd:	f01d           	retw.n

000081df <airoha_divide_limit_1+0x1f>:
	...

000081e0 <xtensa_fft4_32b>:
    81e0:	006136        	entry	a1, 48
    81e3:	60c274        	ae_lq32f.i	aeq3, a2, 28
    81e6:	608234        	ae_lq32f.i	aeq2, a2, 12
    81e9:	600214        	ae_lq32f.i	aeq0, a2, 4
    81ec:	f8e23d225f 	{ ae_lq32f.i	aeq1, a2, 20; ae_addq56	aeq0, aeq0, aeq2 }
    81f1:	f9ee3d621f 	{ ae_lq32f.i	aeq3, a2, 4; ae_addq56	aeq1, aeq1, aeq3 }
    81f6:	fa663a310f 	{ ae_sq56s.i	aeq3, a1, 0; ae_addq56	aeq2, aeq0, aeq1 }
    81fb:	f826fd226f 	{ ae_lq32f.i	aeq1, a2, 24; ae_subq56	aeq0, aeq0, aeq1 }
    8200:	622214        	ae_sq32f.i	aeq2, a2, 4
    8203:	60c254        	ae_lq32f.i	aeq3, a2, 20
    8206:	620254        	ae_sq32f.i	aeq0, a2, 20
    8209:	608244        	ae_lq32f.i	aeq2, a2, 16
    820c:	600224        	ae_lq32f.i	aeq0, a2, 8
    820f:	f9ea3d420f 	{ ae_lq32f.i	aeq2, a2, 0; ae_addq56	aeq1, aeq1, aeq2 }
    8214:	01a8c4        	ae_addq56	aeq2, aeq2, aeq0
    8217:	0129c4        	ae_addq56	aeq0, aeq2, aeq1
    821a:	fa36fd220f 	{ ae_lq32f.i	aeq1, a2, 0; ae_subq56	aeq2, aeq2, aeq1 }
    821f:	620204        	ae_sq32f.i	aeq0, a2, 0
    8222:	600274        	ae_lq32f.i	aeq0, a2, 28
    8225:	fb3afd022f 	{ ae_lq32f.i	aeq0, a2, 8; ae_subq56	aeq3, aeq3, aeq0 }
    822a:	f92afd024f 	{ ae_lq32f.i	aeq0, a2, 16; ae_subq56	aeq1, aeq1, aeq0 }
    822f:	faaef9a24f 	{ ae_sq32f.i	aeq2, a2, 16; ae_subq56	aeq2, aeq1, aeq3 }
    8234:	f9ee3d626f 	{ ae_lq32f.i	aeq3, a2, 24; ae_addq56	aeq1, aeq1, aeq3 }
    8239:	fb3afd023f 	{ ae_lq32f.i	aeq0, a2, 12; ae_subq56	aeq3, aeq3, aeq0 }
    823e:	621224        	ae_sq32f.i	aeq1, a2, 8
    8241:	614104        	ae_lq56.i	aeq1, a1, 0
    8244:	015cc4        	ae_subq56	aeq1, aeq1, aeq0
    8247:	f8ee39a26f 	{ ae_sq32f.i	aeq2, a2, 24; ae_addq56	aeq0, aeq1, aeq3 }
    824c:	f9aef9823f 	{ ae_sq32f.i	aeq0, a2, 12; ae_subq56	aeq1, aeq1, aeq3 }
    8251:	621274        	ae_sq32f.i	aeq1, a2, 28
    8254:	f01d           	retw.n

00008256 <xtensa_fft4_32b+0x76>:
	...

00008258 <xtensa_fft8_32b>:
    8258:	010136        	entry	a1, 128
    825b:	604244        	ae_lq32f.i	aeq1, a2, 16
    825e:	600264        	ae_lq32f.i	aeq0, a2, 24
    8261:	e0def1        	l32r	a15, 5dc (5a82 <CHK_REF_GAIN_CHANGE+0x2e>)
    8264:	fa26c781ce 	{ addi	a12, a1, 120; ae_subq56	aeq2, aeq0, aeq1 }
    8269:	632154        	ae_sq56s.i	aeq2, a1, 40
    826c:	f8663d220f 	{ ae_lq32f.i	aeq1, a2, 0; ae_addq56	aeq0, aeq0, aeq1 }
    8271:	608224        	ae_lq32f.i	aeq2, a2, 8
    8274:	fbaafa0ccf 	{ ae_sq56s.i	aeq0, a12, -32; ae_subq56	aeq3, aeq1, aeq2 }
    8279:	f9ea3d425f 	{ ae_lq32f.i	aeq2, a2, 20; ae_addq56	aeq1, aeq1, aeq2 }
    827e:	633164        	ae_sq56s.i	aeq3, a1, 48
    8281:	631c94        	ae_sq56s.i	aeq1, a12, -56
    8284:	60c274        	ae_lq32f.i	aeq3, a2, 28
    8287:	f8b6fd221f 	{ ae_lq32f.i	aeq1, a2, 4; ae_subq56	aeq0, aeq2, aeq3 }
    828c:	faf63d623f 	{ ae_lq32f.i	aeq3, a2, 12; ae_addq56	aeq2, aeq2, aeq3 }
    8291:	f8aefa017f 	{ ae_sq56s.i	aeq0, a1, 56; ae_subq56	aeq0, aeq1, aeq3 }
    8296:	f9ee0202de 	{ addi	a13, a2, 32; ae_addq56	aeq1, aeq1, aeq3 }
    829b:	fbaafa0caf 	{ ae_sq56s.i	aeq0, a12, -48; ae_subq56	aeq3, aeq1, aeq2 }
    82a0:	623254        	ae_sq32f.i	aeq3, a2, 20
    82a3:	f9ea3dcc9f 	{ ae_lq56.i	aeq2, a12, -56; ae_addq56	aeq1, aeq1, aeq2 }
    82a8:	61ccc4        	ae_lq56.i	aeq3, a12, -32
    82ab:	f8f639921f 	{ ae_sq32f.i	aeq1, a2, 4; ae_addq56	aeq0, aeq2, aeq3 }
    82b0:	620204        	ae_sq32f.i	aeq0, a2, 0
    82b3:	fab6fde16f 	{ ae_lq56.i	aeq3, a1, 48; ae_subq56	aeq2, aeq2, aeq3 }
    82b8:	610174        	ae_lq56.i	aeq0, a1, 56
    82bb:	f93af9a24f 	{ ae_sq32f.i	aeq2, a2, 16; ae_subq56	aeq1, aeq3, aeq0 }
    82c0:	fb7a3d8caf 	{ ae_lq56.i	aeq0, a12, -48; ae_addq56	aeq3, aeq3, aeq0 }
    82c5:	621264        	ae_sq32f.i	aeq1, a2, 24
    82c8:	614154        	ae_lq56.i	aeq1, a1, 40
    82cb:	fa6639b22f 	{ ae_sq32f.i	aeq3, a2, 8; ae_addq56	aeq2, aeq0, aeq1 }
    82d0:	f826f9a23f 	{ ae_sq32f.i	aeq2, a2, 12; ae_subq56	aeq0, aeq0, aeq1 }
    82d5:	620274        	ae_sq32f.i	aeq0, a2, 28
    82d8:	60cd74        	ae_lq32f.i	aeq3, a13, 28
    82db:	604d54        	ae_lq32f.i	aeq1, a13, 20
    82de:	faee3d0d3f 	{ ae_lq32f.i	aeq0, a13, 12; ae_addq56	aeq2, aeq1, aeq3 }
    82e3:	622d54        	ae_sq32f.i	aeq2, a13, 20
    82e6:	f9aefd4d1f 	{ ae_lq32f.i	aeq2, a13, 4; ae_subq56	aeq1, aeq1, aeq3 }
    82eb:	fb72399d7f 	{ ae_sq32f.i	aeq1, a13, 28; ae_addq56	aeq3, aeq2, aeq0 }
    82f0:	623d14        	ae_sq32f.i	aeq3, a13, 4
    82f3:	fa32fd0d2f 	{ ae_lq32f.i	aeq0, a13, 8; ae_subq56	aeq2, aeq2, aeq0 }
    82f8:	60cd04        	ae_lq32f.i	aeq3, a13, 0
    82fb:	622d34        	ae_sq32f.i	aeq2, a13, 12
    82fe:	f93afd4d4f 	{ ae_lq32f.i	aeq2, a13, 16; ae_subq56	aeq1, aeq3, aeq0 }
    8303:	621d24        	ae_sq32f.i	aeq1, a13, 8
    8306:	fb7a3d0d6f 	{ ae_lq32f.i	aeq0, a13, 24; ae_addq56	aeq3, aeq3, aeq0 }
    830b:	f932f9bd0f 	{ ae_sq32f.i	aeq3, a13, 0; ae_subq56	aeq1, aeq2, aeq0 }
    8310:	621d64        	ae_sq32f.i	aeq1, a13, 24
    8313:	fa723d2d0f 	{ ae_lq32f.i	aeq1, a13, 0; ae_addq56	aeq2, aeq2, aeq0 }
    8318:	622d44        	ae_sq32f.i	aeq2, a13, 16
    831b:	60cd44        	ae_lq32f.i	aeq3, a13, 16
    831e:	011bc4        	ae_addq56	aeq0, aeq1, aeq3
    8321:	fb3efd420f 	{ ae_lq32f.i	aeq2, a2, 0; ae_subq56	aeq3, aeq3, aeq1 }
    8326:	633134        	ae_sq56s.i	aeq3, a1, 24
    8329:	f932fd621f 	{ ae_lq32f.i	aeq3, a2, 4; ae_subq56	aeq1, aeq2, aeq0 }
    832e:	fa72399d0f 	{ ae_sq32f.i	aeq1, a13, 0; ae_addq56	aeq2, aeq2, aeq0 }
    8333:	632144        	ae_sq56s.i	aeq2, a1, 32
    8336:	604d54        	ae_lq32f.i	aeq1, a13, 20
    8339:	608d14        	ae_lq32f.i	aeq2, a13, 4
    833c:	0129c4        	ae_addq56	aeq0, aeq2, aeq1
    833f:	01adc4        	ae_subq56	aeq2, aeq2, aeq1
    8342:	017cc4        	ae_subq56	aeq1, aeq3, aeq0
    8345:	fb7a3d814f 	{ ae_lq56.i	aeq0, a1, 32; ae_addq56	aeq3, aeq3, aeq0 }
    834a:	621d14        	ae_sq32f.i	aeq1, a13, 4
    834d:	623214        	ae_sq32f.i	aeq3, a2, 4
    8350:	604244        	ae_lq32f.i	aeq1, a2, 16
    8353:	f8ea39820f 	{ ae_sq32f.i	aeq0, a2, 0; ae_addq56	aeq0, aeq1, aeq2 }
    8358:	f9aafd625f 	{ ae_lq32f.i	aeq3, a2, 20; ae_subq56	aeq1, aeq1, aeq2 }
    835d:	621d44        	ae_sq32f.i	aeq1, a13, 16
    8360:	614134        	ae_lq56.i	aeq1, a1, 24
    8363:	01bdc4        	ae_subq56	aeq2, aeq3, aeq1
    8366:	fb7e39ad5f 	{ ae_sq32f.i	aeq2, a13, 20; ae_addq56	aeq3, aeq3, aeq1 }
    836b:	623254        	ae_sq32f.i	aeq3, a2, 20
    836e:	620244        	ae_sq32f.i	aeq0, a2, 16
    8371:	600d64        	ae_lq32f.i	aeq0, a13, 24
    8374:	604d74        	ae_lq32f.i	aeq1, a13, 28
    8377:	0198c4        	ae_addq56	aeq2, aeq1, aeq0
    837a:	632cb4        	ae_sq56s.i	aeq2, a12, -40
    837d:	f826fd2d2f 	{ ae_lq32f.i	aeq1, a13, 8; ae_subq56	aeq0, aeq0, aeq1 }
    8382:	608d34        	ae_lq32f.i	aeq2, a13, 12
    8385:	01edc4        	ae_subq56	aeq3, aeq2, aeq1
    8388:	f9ea18afff 	{ ae_cvtp24a16x2.ll	aep2, a15, a15; ae_addq56	aeq1, aeq1, aeq2 }
    838d:	c1a244        	ae_mulzaafq32sp16s.lh	aeq2, aeq1, aep2, aeq0, aep2
    8390:	3c48ba312f 	{ ae_sq56s.i	aeq3, a1, 16; ae_mulzasfq32sp16s.lh	aeq0, aeq0, aep2, aeq1, aep2 }
    8395:	604224        	ae_lq32f.i	aeq1, a2, 8
    8398:	fbea3a010f 	{ ae_sq56s.i	aeq0, a1, 0; ae_addq56	aeq3, aeq1, aeq2 }
    839d:	f9aafd423f 	{ ae_lq32f.i	aeq2, a2, 12; ae_subq56	aeq1, aeq1, aeq2 }
    83a2:	621d24        	ae_sq32f.i	aeq1, a13, 8
    83a5:	610cb4        	ae_lq56.i	aeq0, a12, -40
    83a8:	614124        	ae_lq56.i	aeq1, a1, 16
    83ab:	0d497a311f 	{ ae_sq56s.i	aeq3, a1, 8; ae_mulzaafq32sp16s.lh	aeq3, aeq1, aep2, aeq0, aep2 }
    83b0:	c52a44        	ae_mulzasfq32sp16s.lh	aeq1, aeq1, aep2, aeq0, aep2
    83b3:	012fc4        	ae_subq56	aeq0, aeq2, aeq3
    83b6:	faf63de11f 	{ ae_lq56.i	aeq3, a1, 8; ae_addq56	aeq2, aeq2, aeq3 }
    83bb:	620d34        	ae_sq32f.i	aeq0, a13, 12
    83be:	622234        	ae_sq32f.i	aeq2, a2, 12
    83c1:	600264        	ae_lq32f.i	aeq0, a2, 24
    83c4:	fb6639b22f 	{ ae_sq32f.i	aeq3, a2, 8; ae_addq56	aeq3, aeq0, aeq1 }
    83c9:	f826fd427f 	{ ae_lq32f.i	aeq2, a2, 28; ae_subq56	aeq0, aeq0, aeq1 }
    83ce:	620d64        	ae_sq32f.i	aeq0, a13, 24
    83d1:	610104        	ae_lq56.i	aeq0, a1, 0
    83d4:	016cc4        	ae_subq56	aeq1, aeq2, aeq0
    83d7:	621d74        	ae_sq32f.i	aeq1, a13, 28
    83da:	fa7239b26f 	{ ae_sq32f.i	aeq3, a2, 24; ae_addq56	aeq2, aeq2, aeq0 }
    83df:	622274        	ae_sq32f.i	aeq2, a2, 28
    83e2:	f01d           	retw.n

000083e4 <F_get_oft_32b>:
    83e4:	004136        	entry	a1, 32
    83e7:	144226        	beqi	a2, 4, 83ff <F_get_oft_32b+0x1b>
    83ea:	158226        	beqi	a2, 8, 8403 <F_get_oft_32b+0x1f>
    83ed:	16b226        	beqi	a2, 16, 8407 <F_get_oft_32b+0x23>
    83f0:	17c226        	beqi	a2, 32, 840b <F_get_oft_32b+0x27>
    83f3:	c0c242        	addi	a4, a2, -64
    83f6:	430c           	movi.n	a3, 4
    83f8:	220c           	movi.n	a2, 2
    83fa:	832340        	moveqz	a2, a3, a4
    83fd:	f01d           	retw.n

000083ff <F_get_oft_32b+0x1b>:
    83ff:	024c           	movi.n	a2, 64
    8401:	f01d           	retw.n

00008403 <F_get_oft_32b+0x1f>:
    8403:	022c           	movi.n	a2, 32
    8405:	f01d           	retw.n

00008407 <F_get_oft_32b+0x23>:
    8407:	021c           	movi.n	a2, 16
    8409:	f01d           	retw.n

0000840b <F_get_oft_32b+0x27>:
    840b:	820c           	movi.n	a2, 8
    840d:	f01d           	retw.n

0000840f <F_get_oft_32b+0x2b>:
	...

00008410 <xtensa_fft_pass_32b>:
    8410:	00a136        	entry	a1, 80
    8413:	83ad           	ae_sext16	a10, a3
    8415:	b09320        	addx8	a9, a3, a2
    8418:	600204        	ae_lq32f.i	aeq0, a2, 0
    841b:	904330        	addx2	a4, a3, a3
    841e:	1153c0        	slli	a5, a3, 4
    8421:	606254        	ae_lq32f.x	aeq1, a2, a5
    8424:	b04420        	addx8	a4, a4, a2
    8427:	608404        	ae_lq32f.i	aeq2, a4, 0
    842a:	f9ea10825f 	{ add	a8, a2, a5; ae_addq56	aeq1, aeq1, aeq2 }
    842f:	fa663d681f 	{ ae_lq32f.i	aeq3, a8, 4; ae_addq56	aeq2, aeq0, aeq1 }
    8434:	f826fa211f 	{ ae_sq56s.i	aeq2, a1, 8; ae_subq56	aeq0, aeq0, aeq1 }
    8439:	630144        	ae_sq56s.i	aeq0, a1, 32
    843c:	600414        	ae_lq32f.i	aeq0, a4, 4
    843f:	fb7a3d421f 	{ ae_lq32f.i	aeq2, a2, 4; ae_addq56	aeq3, aeq3, aeq0 }
    8444:	f9f60fc86e 	{ addi	a6, a8, -4; ae_addq56	aeq1, aeq2, aeq3 }
    8449:	fab6fd681f 	{ ae_lq32f.i	aeq3, a8, 4; ae_subq56	aeq2, aeq2, aeq3 }
    844e:	631124        	ae_sq56s.i	aeq1, a1, 16
    8451:	e06381        	l32r	a8, 5e0 (83e4 <F_get_oft_32b>)
    8454:	fb3afb925f 	{ ae_lq32f.x	aeq0, a2, a5; ae_subq56	aeq3, aeq3, aeq0 }
    8459:	614144        	ae_lq56.i	aeq1, a1, 32
    845c:	fcc252        	addi	a5, a2, -4
    845f:	633134        	ae_sq56s.i	aeq3, a1, 24
    8462:	ff4c7d240f 	{ ae_lq32f.i	aeq1, a4, 0; ae_roundsq32sym	aeq3, aeq1 }
    8467:	f92af9f61f 	{ ae_sq32f.iu	aeq3, a6, 4; ae_subq56	aeq1, aeq1, aeq0 }
    846c:	fc547de11f 	{ ae_lq56.i	aeq3, a1, 8; ae_roundsq32sym	aeq0, aeq2 }
    8471:	624614        	ae_sq32f.iu	aeq0, a6, 4
    8474:	fe5c7d812f 	{ ae_lq56.i	aeq0, a1, 16; ae_roundsq32sym	aeq2, aeq3 }
    8479:	ff4479e51f 	{ ae_sq32f.iu	aeq2, a5, 4; ae_roundsq32sym	aeq3, aeq0 }
    847e:	627514        	ae_sq32f.iu	aeq3, a5, 4
    8481:	600914        	ae_lq32f.i	aeq0, a9, 4
    8484:	0189c4        	ae_addq56	aeq2, aeq0, aeq1
    8487:	632104        	ae_sq56s.i	aeq2, a1, 0
    848a:	f826fda13f 	{ ae_lq56.i	aeq1, a1, 24; ae_subq56	aeq0, aeq0, aeq1 }
    848f:	608904        	ae_lq32f.i	aeq2, a9, 0
    8492:	01edc4        	ae_subq56	aeq3, aeq2, aeq1
    8495:	fa760fc92e 	{ addi	a2, a9, -4; ae_addq56	aeq2, aeq2, aeq1 }
    849a:	fd5c4fc44e 	{ addi	a4, a4, -4; ae_roundsq32sym	aeq1, aeq3 }
    849f:	ff447d810f 	{ ae_lq56.i	aeq0, a1, 0; ae_roundsq32sym	aeq3, aeq0 }
    84a4:	625414        	ae_sq32f.iu	aeq1, a4, 4
    84a7:	fd5479f41f 	{ ae_sq32f.iu	aeq3, a4, 4; ae_roundsq32sym	aeq1, aeq2 }
    84ac:	ff4479d21f 	{ ae_sq32f.iu	aeq1, a2, 4; ae_roundsq32sym	aeq3, aeq0 }
    84b1:	627214        	ae_sq32f.iu	aeq3, a2, 4
    84b4:	0008e0        	callx8	a8
    84b7:	21c130        	srai	a12, a3, 1
    84ba:	e04a91        	l32r	a9, 5e4 (af7c <Index_16+0x2c>)
    84bd:	00a082        	movi	a8, 0
    84c0:	11baf0        	slli	a11, a10, 1
    84c3:	809b90        	add	a9, a11, a9
    84c6:	458984        	ae_lp16x2f.xu	aep0, a9, a8
    84c9:	88ac76        	loopgtz	a12, 8555 <xtensa_fft_pass_32b+0x145>
    84cc:	60c424        	ae_lq32f.i	aeq3, a4, 8
    84cf:	600414        	ae_lq32f.i	aeq0, a4, 4
    84d2:	6002fd462f 	{ ae_lq32f.i	aeq2, a6, 8; ae_mulzasq32sp16u.lh	aeq1, aeq0, aep0, aeq3, aep0 }
    84d7:	33017d061f 	{ ae_lq32f.i	aeq0, a6, 4; ae_mulzaaq32sp16u.lh	aeq3, aeq3, aep0, aeq0, aep0 }
    84dc:	62007a110f 	{ ae_sq56s.i	aeq1, a1, 0; ae_mulzasq32sp16u.lh	aeq1, aeq2, aep0, aeq0, aep0 }
    84e1:	c20024        	ae_mulzaaq32sp16u.lh	aeq0, aeq0, aep0, aeq2, aep0
    84e4:	019bc4        	ae_addq56	aeq2, aeq1, aeq3
    84e7:	015fc4        	ae_subq56	aeq1, aeq1, aeq3
    84ea:	631134        	ae_sq56s.i	aeq1, a1, 24
    84ed:	604524        	ae_lq32f.i	aeq1, a5, 8
    84f0:	01dac4        	ae_addq56	aeq3, aeq1, aeq2
    84f3:	633124        	ae_sq56s.i	aeq3, a1, 16
    84f6:	f9aafde10f 	{ ae_lq56.i	aeq3, a1, 0; ae_subq56	aeq1, aeq1, aeq2 }
    84fb:	018bc4        	ae_addq56	aeq2, aeq0, aeq3
    84fe:	fb3afd051f 	{ ae_lq32f.i	aeq0, a5, 4; ae_subq56	aeq3, aeq3, aeq0 }
    8503:	fbe23a311f 	{ ae_sq56s.i	aeq3, a1, 8; ae_addq56	aeq3, aeq0, aeq2 }
    8508:	010ec4        	ae_subq56	aeq0, aeq0, aeq2
    850b:	fe445b89bf 	{ ae_lp16x2f.xu	aep0, a9, a11; ae_roundsq32sym	aeq2, aeq0 }
    8510:	fc4c7da12f 	{ ae_lq56.i	aeq1, a1, 16; ae_roundsq32sym	aeq0, aeq1 }
    8515:	626614        	ae_sq32f.iu	aeq2, a6, 4
    8518:	fe5c79c61f 	{ ae_sq32f.iu	aeq0, a6, 4; ae_roundsq32sym	aeq2, aeq3 }
    851d:	626514        	ae_sq32f.iu	aeq2, a5, 4
    8520:	fc4c7dc11f 	{ ae_lq56.i	aeq2, a1, 8; ae_roundsq32sym	aeq0, aeq1 }
    8525:	624514        	ae_sq32f.iu	aeq0, a5, 4
    8528:	604224        	ae_lq32f.i	aeq1, a2, 8
    852b:	fbaafd021f 	{ ae_lq32f.i	aeq0, a2, 4; ae_subq56	aeq3, aeq1, aeq2 }
    8530:	f9ea3dc13f 	{ ae_lq56.i	aeq2, a1, 24; ae_addq56	aeq1, aeq1, aeq2 }
    8535:	fba2fa314f 	{ ae_sq56s.i	aeq3, a1, 32; ae_subq56	aeq3, aeq0, aeq2 }
    853a:	010ac4        	ae_addq56	aeq0, aeq0, aeq2
    853d:	068834        	ae_roundsq32sym	aeq2, aeq0
    8540:	fc4c7da14f 	{ ae_lq56.i	aeq1, a1, 32; ae_roundsq32sym	aeq0, aeq1 }
    8545:	626214        	ae_sq32f.iu	aeq2, a2, 4
    8548:	fe5c79c21f 	{ ae_sq32f.iu	aeq0, a2, 4; ae_roundsq32sym	aeq2, aeq3 }
    854d:	fc4c79e41f 	{ ae_sq32f.iu	aeq2, a4, 4; ae_roundsq32sym	aeq0, aeq1 }
    8552:	624414        	ae_sq32f.iu	aeq0, a4, 4

00008555 <xtensa_fft_pass_32b+0x145>:
    8555:	60b0b0        	neg	a11, a11
    8558:	dc0b           	addi.n	a13, a12, -1
    855a:	11eae0        	slli	a14, a10, 2
    855d:	60e0e0        	neg	a14, a14
    8560:	4589e4        	ae_lp16x2f.xu	aep0, a9, a14
    8563:	f03d           	nop.n
    8565:	88ad76        	loopgtz	a13, 85f1 <xtensa_fft_pass_32b+0x1e1>
    8568:	608414        	ae_lq32f.i	aeq2, a4, 4
    856b:	60c424        	ae_lq32f.i	aeq3, a4, 8
    856e:	92033d261f 	{ ae_lq32f.i	aeq1, a6, 4; ae_mulzsaq32sp16u.lh	aeq0, aeq3, aep0, aeq2, aep0 }

00008573 <xtensa_fft_pass_32b+0x163>:
    8573:	3302bd662f 	{ ae_lq32f.i	aeq3, a6, 8; ae_mulzaaq32sp16u.lh	aeq2, aeq2, aep0, aeq3, aep0 }
    8578:	9003ba014f 	{ ae_sq56s.i	aeq0, a1, 32; ae_mulzsaq32sp16u.lh	aeq0, aeq1, aep0, aeq3, aep0 }
    857d:	c288d4        	ae_mulzaaq32sp16u.lh	aeq3, aeq3, aep0, aeq1, aep0
    8580:	014ac4        	ae_addq56	aeq1, aeq0, aeq2
    8583:	010ec4        	ae_subq56	aeq0, aeq0, aeq2
    8586:	630114        	ae_sq56s.i	aeq0, a1, 8
    8589:	600524        	ae_lq32f.i	aeq0, a5, 8
    858c:	0189c4        	ae_addq56	aeq2, aeq0, aeq1
    858f:	632124        	ae_sq56s.i	aeq2, a1, 16
    8592:	f826fdc14f 	{ ae_lq56.i	aeq2, a1, 32; ae_subq56	aeq0, aeq0, aeq1 }
    8597:	017ac4        	ae_addq56	aeq1, aeq3, aeq2
    859a:	fab6fd651f 	{ ae_lq32f.i	aeq3, a5, 4; ae_subq56	aeq2, aeq2, aeq3 }
    859f:	fa7e3a213f 	{ ae_sq56s.i	aeq2, a1, 24; ae_addq56	aeq2, aeq3, aeq1 }
    85a4:	01fdc4        	ae_subq56	aeq3, aeq3, aeq1
    85a7:	fd5c5b89bf 	{ ae_lp16x2f.xu	aep0, a9, a11; ae_roundsq32sym	aeq1, aeq3 }
    85ac:	ff447d812f 	{ ae_lq56.i	aeq0, a1, 16; ae_roundsq32sym	aeq3, aeq0 }
    85b1:	625614        	ae_sq32f.iu	aeq1, a6, 4
    85b4:	fd5479f61f 	{ ae_sq32f.iu	aeq3, a6, 4; ae_roundsq32sym	aeq1, aeq2 }
    85b9:	625514        	ae_sq32f.iu	aeq1, a5, 4
    85bc:	ff447da13f 	{ ae_lq56.i	aeq1, a1, 24; ae_roundsq32sym	aeq3, aeq0 }
    85c1:	627514        	ae_sq32f.iu	aeq3, a5, 4
    85c4:	600224        	ae_lq32f.i	aeq0, a2, 8
    85c7:	fa26fd621f 	{ ae_lq32f.i	aeq3, a2, 4; ae_subq56	aeq2, aeq0, aeq1 }
    85cc:	f8663da11f 	{ ae_lq56.i	aeq1, a1, 8; ae_addq56	aeq0, aeq0, aeq1 }
    85d1:	fa3efa210f 	{ ae_sq56s.i	aeq2, a1, 0; ae_subq56	aeq2, aeq3, aeq1 }
    85d6:	01f9c4        	ae_addq56	aeq3, aeq3, aeq1
    85d9:	067834        	ae_roundsq32sym	aeq1, aeq3
    85dc:	ff447d810f 	{ ae_lq56.i	aeq0, a1, 0; ae_roundsq32sym	aeq3, aeq0 }
    85e1:	625214        	ae_sq32f.iu	aeq1, a2, 4
    85e4:	fd5479f21f 	{ ae_sq32f.iu	aeq3, a2, 4; ae_roundsq32sym	aeq1, aeq2 }
    85e9:	ff4479d41f 	{ ae_sq32f.iu	aeq1, a4, 4; ae_roundsq32sym	aeq3, aeq0 }
    85ee:	627414        	ae_sq32f.iu	aeq3, a4, 4

000085f1 <xtensa_fft_pass_32b+0x1e1>:
    85f1:	f01d           	retw.n

000085f3 <xtensa_fft_pass_32b+0x1e3>:
	...

000085f4 <xtensa_fft16_32b>:
    85f4:	004136        	entry	a1, 32
    85f7:	dffc81        	l32r	a8, 5e8 (8258 <xtensa_fft8_32b>)
    85fa:	02ad           	mov.n	a10, a2
    85fc:	0008e0        	callx8	a8
    85ff:	dffb81        	l32r	a8, 5ec (81e0 <xtensa_fft4_32b>)
    8602:	40c2a2        	addi	a10, a2, 64
    8605:	0008e0        	callx8	a8
    8608:	dff981        	l32r	a8, 5ec (81e0 <xtensa_fft4_32b>)
    860b:	60c2a2        	addi	a10, a2, 96
    860e:	0008e0        	callx8	a8
    8611:	dff781        	l32r	a8, 5f0 (8410 <xtensa_fft_pass_32b>)
    8614:	02ad           	mov.n	a10, a2
    8616:	4b0c           	movi.n	a11, 4
    8618:	0008e0        	callx8	a8
    861b:	f01d           	retw.n

0000861d <xtensa_fft16_32b+0x29>:
    861d:	000000                                        ...

00008620 <xtensa_fft32_32b>:
    8620:	004136        	entry	a1, 32
    8623:	dff481        	l32r	a8, 5f4 (85f4 <xtensa_fft16_32b>)
    8626:	02ad           	mov.n	a10, a2
    8628:	0008e0        	callx8	a8
    862b:	dfef81        	l32r	a8, 5e8 (8258 <xtensa_fft8_32b>)
    862e:	01d2a2        	addmi	a10, a2, 0x100
    8631:	80caa2        	addi	a10, a10, -128
    8634:	0008e0        	callx8	a8
    8637:	dfec81        	l32r	a8, 5e8 (8258 <xtensa_fft8_32b>)
    863a:	01d2a2        	addmi	a10, a2, 0x100
    863d:	c0caa2        	addi	a10, a10, -64
    8640:	0008e0        	callx8	a8
    8643:	dfeb81        	l32r	a8, 5f0 (8410 <xtensa_fft_pass_32b>)
    8646:	02ad           	mov.n	a10, a2
    8648:	8b0c           	movi.n	a11, 8
    864a:	0008e0        	callx8	a8
    864d:	f01d           	retw.n

0000864f <xtensa_fft32_32b+0x2f>:
	...

00008650 <xtensa_fft64_32b>:
    8650:	004136        	entry	a1, 32
    8653:	dfe981        	l32r	a8, 5f8 (8620 <xtensa_fft32_32b>)
    8656:	02ad           	mov.n	a10, a2
    8658:	0008e0        	callx8	a8
    865b:	dfe681        	l32r	a8, 5f4 (85f4 <xtensa_fft16_32b>)
    865e:	01d2a2        	addmi	a10, a2, 0x100
    8661:	0008e0        	callx8	a8
    8664:	dfe481        	l32r	a8, 5f4 (85f4 <xtensa_fft16_32b>)
    8667:	02d2a2        	addmi	a10, a2, 0x200
    866a:	80caa2        	addi	a10, a10, -128
    866d:	0008e0        	callx8	a8
    8670:	dfe081        	l32r	a8, 5f0 (8410 <xtensa_fft_pass_32b>)
    8673:	02ad           	mov.n	a10, a2
    8675:	0b1c           	movi.n	a11, 16
    8677:	0008e0        	callx8	a8
    867a:	f01d           	retw.n

0000867c <xtensa_fft128_32b>:
    867c:	004136        	entry	a1, 32
    867f:	dfdf81        	l32r	a8, 5fc (8650 <xtensa_fft64_32b>)
    8682:	02ad           	mov.n	a10, a2
    8684:	0008e0        	callx8	a8
    8687:	dfdc81        	l32r	a8, 5f8 (8620 <xtensa_fft32_32b>)
    868a:	02d2a2        	addmi	a10, a2, 0x200
    868d:	0008e0        	callx8	a8
    8690:	dfda81        	l32r	a8, 5f8 (8620 <xtensa_fft32_32b>)
    8693:	03d2a2        	addmi	a10, a2, 0x300
    8696:	0008e0        	callx8	a8
    8699:	dfd581        	l32r	a8, 5f0 (8410 <xtensa_fft_pass_32b>)
    869c:	02ad           	mov.n	a10, a2
    869e:	0b2c           	movi.n	a11, 32
    86a0:	0008e0        	callx8	a8
    86a3:	f01d           	retw.n

000086a5 <xtensa_fft128_32b+0x29>:
    86a5:	000000                                        ...

000086a8 <xtensa_fft256_32b>:
    86a8:	004136        	entry	a1, 32
    86ab:	dfd481        	l32r	a8, 5fc (8650 <xtensa_fft64_32b>)
    86ae:	02ad           	mov.n	a10, a2
    86b0:	0008e0        	callx8	a8
    86b3:	dfd181        	l32r	a8, 5f8 (8620 <xtensa_fft32_32b>)
    86b6:	02d2a2        	addmi	a10, a2, 0x200
    86b9:	0008e0        	callx8	a8
    86bc:	dfcf81        	l32r	a8, 5f8 (8620 <xtensa_fft32_32b>)
    86bf:	03d2a2        	addmi	a10, a2, 0x300
    86c2:	0008e0        	callx8	a8
    86c5:	dfca81        	l32r	a8, 5f0 (8410 <xtensa_fft_pass_32b>)
    86c8:	02ad           	mov.n	a10, a2
    86ca:	0b2c           	movi.n	a11, 32
    86cc:	0008e0        	callx8	a8
    86cf:	dfcb81        	l32r	a8, 5fc (8650 <xtensa_fft64_32b>)
    86d2:	04d2a2        	addmi	a10, a2, 0x400
    86d5:	0008e0        	callx8	a8
    86d8:	dfc981        	l32r	a8, 5fc (8650 <xtensa_fft64_32b>)
    86db:	06d2a2        	addmi	a10, a2, 0x600
    86de:	0008e0        	callx8	a8
    86e1:	dfc381        	l32r	a8, 5f0 (8410 <xtensa_fft_pass_32b>)
    86e4:	02ad           	mov.n	a10, a2
    86e6:	0b4c           	movi.n	a11, 64
    86e8:	0008e0        	callx8	a8
    86eb:	f01d           	retw.n

000086ed <xtensa_fft256_32b+0x45>:
    86ed:	000000                                        ...

000086f0 <xtensa_fft512_32b>:
    86f0:	004136        	entry	a1, 32
    86f3:	dfc381        	l32r	a8, 600 (86a8 <xtensa_fft256_32b>)
    86f6:	02ad           	mov.n	a10, a2
    86f8:	0008e0        	callx8	a8
    86fb:	dfc281        	l32r	a8, 604 (867c <xtensa_fft128_32b>)
    86fe:	08d2a2        	addmi	a10, a2, 0x800
    8701:	0008e0        	callx8	a8
    8704:	dfc081        	l32r	a8, 604 (867c <xtensa_fft128_32b>)
    8707:	0cd2a2        	addmi	a10, a2, 0xc00
    870a:	0008e0        	callx8	a8
    870d:	dfb881        	l32r	a8, 5f0 (8410 <xtensa_fft_pass_32b>)
    8710:	02ad           	mov.n	a10, a2
    8712:	80a0b2        	movi	a11, 128
    8715:	0008e0        	callx8	a8
    8718:	f01d           	retw.n

0000871a <xtensa_fft512_32b+0x2a>:
	...

0000871c <real_split>:
    871c:	00a136        	entry	a1, 80
    871f:	dfb081        	l32r	a8, 5e0 (83e4 <F_get_oft_32b>)
    8722:	03c8           	l32i.n	a12, a3, 0
    8724:	13d8           	l32i.n	a13, a3, 4
    8726:	0e0c           	movi.n	a14, 0
    8728:	219120        	srai	a9, a2, 1
    872b:	5199           	s32i.n	a9, a1, 20
    872d:	b07940        	addx8	a7, a9, a4
    8730:	c05290        	sub	a5, a2, a9
    8733:	14e9           	s32i.n	a14, a4, 4
    8735:	b06530        	addx8	a6, a5, a3
    8738:	16b8           	l32i.n	a11, a6, 4
    873a:	ccda           	add.n	a12, a12, a13
    873c:	1199d0        	slli	a9, a9, 3
    873f:	4199           	s32i.n	a9, a1, 16
    8741:	04c9           	s32i.n	a12, a4, 0
    8743:	06a8           	l32i.n	a10, a6, 0
    8745:	07a9           	s32i.n	a10, a7, 0
    8747:	bbba           	add.n	a11, a11, a11
    8749:	82ad           	ae_sext16	a10, a2
    874b:	60b0b0        	neg	a11, a11
    874e:	21b1b0        	srai	a11, a11, 1
    8751:	17b9           	s32i.n	a11, a7, 4
    8753:	0008e0        	callx8	a8
    8756:	0acd           	mov.n	a12, a10
    8758:	2179           	s32i.n	a7, a1, 8
    875a:	1169           	s32i.n	a6, a1, 4
    875c:	0159           	s32i.n	a5, a1, 0
    875e:	3139           	s32i.n	a3, a1, 12
    8760:	d48b           	addi.n	a13, a4, 8
    8762:	b38b           	addi.n	a11, a3, 8
    8764:	80a0f2        	movi	a15, 128
    8767:	b0e230        	addx8	a14, a2, a3
    876a:	fccee2        	addi	a14, a14, -4
    876d:	022f27        	blt	a15, a2, 8773 <real_split+0x57>
    8770:	11caf0        	slli	a12, a10, 1

00008773 <real_split+0x57>:
    8773:	dfa561        	l32r	a6, 608 (af80 <ROOTS_512_Q16>)
    8776:	fecca2        	addi	a10, a12, -2
    8779:	2181a0        	srai	a8, a10, 1
    877c:	a08860        	addx4	a8, a8, a6
    877f:	440804        	ae_lp16x2f.i	aep0, a8, 0
    8782:	07eca6        	blti	a12, 128, 878d <real_split+0x71>
    8785:	1f0c           	movi.n	a15, 1
    8787:	60c0c0        	neg	a12, a12
    878a:	000046        	j	878f <real_split+0x73>

0000878d <real_split+0x71>:
    878d:	0f0c           	movi.n	a15, 0

0000878f <real_split+0x73>:
    878f:	f8cdd2        	addi	a13, a13, -8
    8792:	5b4b           	addi.n	a5, a11, 4
    8794:	604b04        	ae_lq32f.i	aeq1, a11, 0
    8797:	600b14        	ae_lq32f.i	aeq0, a11, 4
    879a:	130c           	movi.n	a3, 1
    879c:	7da072        	movi	a7, 125
    879f:	5198           	l32i.n	a9, a1, 20
    87a1:	fcce42        	addi	a4, a14, -4
    87a4:	de4781        	l32r	a8, c0 (8000 <ifft_wo+0x108>)
    87a7:	ee8b           	addi.n	a14, a14, 8
    87a9:	448b           	addi.n	a4, a4, 8
    87ab:	301884        	ae_cvtp24a16x2.ll	aep1, a8, a8
    87ae:	990b           	addi.n	a9, a9, -1
    87b0:	1fcc           	bnez.n	a15, 87b5 <real_split+0x99>
    87b2:	1a8084        	ae_selp24.lh	aep0, aep0, aep0
    87b5:	5da976        	loopgtz	a9, 8816 <real_split+0xfa>
    87b8:	630144        	ae_sq56s.i	aeq0, a1, 32
    87bb:	91013d74ef 	{ ae_lq32f.iu	aeq3, a4, -8; ae_mulzsaq32sp16u.lh	aeq2, aeq1, aep0, aeq0, aep0 }
    87c0:	182790aacf 	{ add	a10, a10, a12; ae_mulzaafq32sp16u.lh	aeq0, aeq1, aep1, aeq3, aep1 }
    87c5:	2181a0        	srai	a8, a10, 1
    87c8:	f8e23d5eef 	{ ae_lq32f.iu	aeq2, a14, -8; ae_addq56	aeq0, aeq0, aeq2 }
    87cd:	32037a113f 	{ ae_sq56s.i	aeq1, a1, 24; ae_mulzaaq32sp16u.lh	aeq1, aeq3, aep0, aeq2, aep0 }
    87d2:	a08860        	addx4	a8, a8, a6
    87d5:	0109c4        	ae_addq56	aeq0, aeq0, aeq1
    87d8:	630154        	ae_sq56s.i	aeq0, a1, 40
    87db:	9302fd814f 	{ ae_lq56.i	aeq0, a1, 32; ae_mulzsaq32sp16u.lh	aeq3, aeq2, aep0, aeq3, aep0 }
    87e0:	49263da13f 	{ ae_lq56.i	aeq1, a1, 24; ae_mulzasfq32sp16u.lh	aeq2, aeq0, aep1, aeq2, aep1 }
    87e5:	ce0014        	ae_mulzssq32sp16u.lh	aeq0, aeq0, aep0, aeq1, aep0
    87e8:	440804        	ae_lp16x2f.i	aep0, a8, 0
    87eb:	fa723d815f 	{ ae_lq56.i	aeq0, a1, 40; ae_addq56	aeq2, aeq2, aeq0 }
    87f0:	faf63b001f 	{ ae_sraiq56	aeq0, aeq0, 1; ae_addq56	aeq2, aeq2, aeq3 }
    87f5:	ff447b209f 	{ ae_sraiq56	aeq2, aeq2, 1; ae_roundsq32sym	aeq3, aeq0 }
    87fa:	fd5479fd2f 	{ ae_sq32f.iu	aeq3, a13, 8; ae_roundsq32sym	aeq1, aeq2 }
    87ff:	621d14        	ae_sq32f.i	aeq1, a13, 4
    8802:	05a7a7        	bge	a7, a10, 880b <real_split+0xef>
    8805:	60c0c0        	neg	a12, a12
    8808:	30ff30        	xor	a15, a15, a3

0000880b <real_split+0xef>:
    880b:	605b24        	ae_lq32f.iu	aeq1, a11, 8
    880e:	1fcc           	bnez.n	a15, 8813 <real_split+0xf7>
    8810:	1a8084        	ae_selp24.lh	aep0, aep0, aep0

00008813 <real_split+0xf7>:
    8813:	601524        	ae_lq32f.iu	aeq0, a5, 8

00008816 <real_split+0xfa>:
    8816:	31d8           	l32i.n	a13, a1, 12
    8818:	41b8           	l32i.n	a11, a1, 16
    881a:	11e8           	l32i.n	a14, a1, 4
    881c:	5198           	l32i.n	a9, a1, 20
    881e:	60c0c0        	neg	a12, a12
    8821:	fecca2        	addi	a10, a12, -2
    8824:	2181a0        	srai	a8, a10, 1
    8827:	991b           	addi.n	a9, a9, 1
    8829:	fccee2        	addi	a14, a14, -4
    882c:	a08860        	addx4	a8, a8, a6
    882f:	bbda           	add.n	a11, a11, a13
    8831:	440804        	ae_lp16x2f.i	aep0, a8, 0
    8834:	21d8           	l32i.n	a13, a1, 8
    8836:	bb8b           	addi.n	a11, a11, 8
    8838:	604b04        	ae_lq32f.i	aeq1, a11, 0
    883b:	5b4b           	addi.n	a5, a11, 4
    883d:	600b14        	ae_lq32f.i	aeq0, a11, 4
    8840:	dd8b           	addi.n	a13, a13, 8
    8842:	bb8b           	addi.n	a11, a11, 8
    8844:	05eca6        	blti	a12, 128, 884d <real_split+0x131>
    8847:	60c0c0        	neg	a12, a12
    884a:	30ff30        	xor	a15, a15, a3

0000884d <real_split+0x131>:
    884d:	1fcc           	bnez.n	a15, 8852 <real_split+0x136>
    884f:	1a8084        	ae_selp24.lh	aep0, aep0, aep0

00008852 <real_split+0x136>:
    8852:	78a927        	bge	a9, a2, 88ce <real_split+0x1b2>
    8855:	f8cbb2        	addi	a11, a11, -8
    8858:	f8cdd2        	addi	a13, a13, -8
    885b:	0188           	l32i.n	a8, a1, 0
    885d:	fcce42        	addi	a4, a14, -4
    8860:	de1891        	l32r	a9, c0 (8000 <ifft_wo+0x108>)
    8863:	ee8b           	addi.n	a14, a14, 8
    8865:	448b           	addi.n	a4, a4, 8
    8867:	301994        	ae_cvtp24a16x2.ll	aep1, a9, a9
    886a:	ffc882        	addi	a8, a8, -1
    886d:	5da876        	loopgtz	a8, 88ce <real_split+0x1b2>
    8870:	630144        	ae_sq56s.i	aeq0, a1, 32
    8873:	c1013d74ef 	{ ae_lq32f.iu	aeq3, a4, -8; ae_mulzssq32sp16u.lh	aeq2, aeq1, aep0, aeq0, aep0 }
    8878:	182790aacf 	{ add	a10, a10, a12; ae_mulzaafq32sp16u.lh	aeq0, aeq1, aep1, aeq3, aep1 }
    887d:	2181a0        	srai	a8, a10, 1
    8880:	f8e23d5eef 	{ ae_lq32f.iu	aeq2, a14, -8; ae_addq56	aeq0, aeq0, aeq2 }
    8885:	62037a113f 	{ ae_sq56s.i	aeq1, a1, 24; ae_mulzasq32sp16u.lh	aeq1, aeq3, aep0, aeq2, aep0 }
    888a:	a08860        	addx4	a8, a8, a6
    888d:	0109c4        	ae_addq56	aeq0, aeq0, aeq1
    8890:	630154        	ae_sq56s.i	aeq0, a1, 40
    8893:	c302fd814f 	{ ae_lq56.i	aeq0, a1, 32; ae_mulzssq32sp16u.lh	aeq3, aeq2, aep0, aeq3, aep0 }
    8898:	49263da13f 	{ ae_lq56.i	aeq1, a1, 24; ae_mulzasfq32sp16u.lh	aeq2, aeq0, aep1, aeq2, aep1 }
    889d:	ca0014        	ae_mulzsaq32sp16u.lh	aeq0, aeq0, aep0, aeq1, aep0
    88a0:	440804        	ae_lp16x2f.i	aep0, a8, 0
    88a3:	fa723d815f 	{ ae_lq56.i	aeq0, a1, 40; ae_addq56	aeq2, aeq2, aeq0 }
    88a8:	faf63b001f 	{ ae_sraiq56	aeq0, aeq0, 1; ae_addq56	aeq2, aeq2, aeq3 }
    88ad:	ff447b209f 	{ ae_sraiq56	aeq2, aeq2, 1; ae_roundsq32sym	aeq3, aeq0 }
    88b2:	fd5479fd2f 	{ ae_sq32f.iu	aeq3, a13, 8; ae_roundsq32sym	aeq1, aeq2 }
    88b7:	621d14        	ae_sq32f.i	aeq1, a13, 4
    88ba:	05a7a7        	bge	a7, a10, 88c3 <real_split+0x1a7>
    88bd:	60c0c0        	neg	a12, a12
    88c0:	30ff30        	xor	a15, a15, a3

000088c3 <real_split+0x1a7>:
    88c3:	605b24        	ae_lq32f.iu	aeq1, a11, 8
    88c6:	1fcc           	bnez.n	a15, 88cb <real_split+0x1af>
    88c8:	1a8084        	ae_selp24.lh	aep0, aep0, aep0

000088cb <real_split+0x1af>:
    88cb:	601524        	ae_lq32f.iu	aeq0, a5, 8

000088ce <real_split+0x1b2>:
    88ce:	f01d           	retw.n

000088d0 <xtensa_real_fft_32b>:
    88d0:	004136        	entry	a1, 32
    88d3:	078266        	bnei	a2, 8, 88de <xtensa_real_fft_32b+0xe>
    88d6:	df4481        	l32r	a8, 5e8 (8258 <xtensa_fft8_32b>)
    88d9:	03ad           	mov.n	a10, a3
    88db:	0008e0        	callx8	a8

000088de <xtensa_real_fft_32b+0xe>:
    88de:	07d266        	bnei	a2, 64, 88e9 <xtensa_real_fft_32b+0x19>
    88e1:	df4681        	l32r	a8, 5fc (8650 <xtensa_fft64_32b>)
    88e4:	03ad           	mov.n	a10, a3
    88e6:	0008e0        	callx8	a8

000088e9 <xtensa_real_fft_32b+0x19>:
    88e9:	07e266        	bnei	a2, 128, 88f4 <xtensa_real_fft_32b+0x24>
    88ec:	df4681        	l32r	a8, 604 (867c <xtensa_fft128_32b>)
    88ef:	03ad           	mov.n	a10, a3
    88f1:	0008e0        	callx8	a8

000088f4 <xtensa_real_fft_32b+0x24>:
    88f4:	07f266        	bnei	a2, 0x100, 88ff <xtensa_real_fft_32b+0x2f>
    88f7:	df4281        	l32r	a8, 600 (86a8 <xtensa_fft256_32b>)
    88fa:	03ad           	mov.n	a10, a3
    88fc:	0008e0        	callx8	a8

000088ff <xtensa_real_fft_32b+0x2f>:
    88ff:	02ad           	mov.n	a10, a2
    8901:	03bd           	mov.n	a11, a3
    8903:	1142d0        	slli	a4, a2, 3
    8906:	df4181        	l32r	a8, 60c (871c <real_split>)
    8909:	c04340        	sub	a4, a3, a4
    890c:	04cd           	mov.n	a12, a4
    890e:	0008e0        	callx8	a8
    8911:	a48b           	addi.n	a10, a4, 8
    8913:	820b           	addi.n	a8, a2, -1
    8915:	03b8           	l32i.n	a11, a3, 0
    8917:	13c8           	l32i.n	a12, a3, 4
    8919:	0d0c           	movi.n	a13, 0
    891b:	1192c0        	slli	a9, a2, 4
    891e:	949a           	add.n	a9, a4, a9
    8920:	13d9           	s32i.n	a13, a3, 4
    8922:	fcc992        	addi	a9, a9, -4
    8925:	c0bbc0        	sub	a11, a11, a12
    8928:	03b9           	s32i.n	a11, a3, 0
    892a:	13a876        	loopgtz	a8, 8941 <xtensa_real_fft_32b+0x71>
    892d:	1ad8           	l32i.n	a13, a10, 4
    892f:	0ab8           	l32i.n	a11, a10, 0
    8931:	ffd9c2        	addmi	a12, a9, 0xffffff00
    8934:	aa8b           	addi.n	a10, a10, 8
    8936:	60d0d0        	neg	a13, a13
    8939:	09d9           	s32i.n	a13, a9, 0
    893b:	3f6cb2        	s32i	a11, a12, 252
    893e:	f8c992        	addi	a9, a9, -8

00008941 <xtensa_real_fft_32b+0x71>:
    8941:	f01d           	retw.n

00008943 <xtensa_real_fft_32b+0x73>:
	...

00008944 <xtensa_comp_fft_32b>:
    8944:	004136        	entry	a1, 32
    8947:	07b266        	bnei	a2, 16, 8952 <xtensa_comp_fft_32b+0xe>
    894a:	df2a81        	l32r	a8, 5f4 (85f4 <xtensa_fft16_32b>)
    894d:	03ad           	mov.n	a10, a3
    894f:	0008e0        	callx8	a8

00008952 <xtensa_comp_fft_32b+0xe>:
    8952:	07e266        	bnei	a2, 128, 895d <xtensa_comp_fft_32b+0x19>
    8955:	df2b81        	l32r	a8, 604 (867c <xtensa_fft128_32b>)
    8958:	03ad           	mov.n	a10, a3
    895a:	0008e0        	callx8	a8

0000895d <xtensa_comp_fft_32b+0x19>:
    895d:	07f266        	bnei	a2, 0x100, 8968 <xtensa_comp_fft_32b+0x24>
    8960:	df2881        	l32r	a8, 600 (86a8 <xtensa_fft256_32b>)
    8963:	03ad           	mov.n	a10, a3
    8965:	0008e0        	callx8	a8

00008968 <xtensa_comp_fft_32b+0x24>:
    8968:	00a292        	movi	a9, 0x200
    896b:	079297        	bne	a2, a9, 8976 <xtensa_comp_fft_32b+0x32>
    896e:	df2881        	l32r	a8, 610 (86f0 <xtensa_fft512_32b>)
    8971:	03ad           	mov.n	a10, a3
    8973:	0008e0        	callx8	a8

00008976 <xtensa_comp_fft_32b+0x32>:
    8976:	f01d           	retw.n

00008978 <sw_fft_32b_2811>:
    8978:	006136        	entry	a1, 48
    897b:	121666        	bnei	a6, 1, 8991 <sw_fft_32b_2811+0x19>
    897e:	0fb326        	beqi	a3, 16, 8991 <sw_fft_32b_2811+0x19>
    8981:	0ce326        	beqi	a3, 128, 8991 <sw_fft_32b_2811+0x19>
    8984:	09f326        	beqi	a3, 0x100, 8991 <sw_fft_32b_2811+0x19>
    8987:	00a282        	movi	a8, 0x200
    898a:	031387        	beq	a3, a8, 8991 <sw_fft_32b_2811+0x19>

0000898d <sw_fft_32b_2811+0x15>:
    898d:	126c           	movi.n	a2, -31
    898f:	f01d           	retw.n

00008991 <sw_fft_32b_2811+0x19>:
    8991:	a6cc           	bnez.n	a6, 899f <sw_fft_32b_2811+0x27>
    8993:	088326        	beqi	a3, 8, 899f <sw_fft_32b_2811+0x27>
    8996:	05d326        	beqi	a3, 64, 899f <sw_fft_32b_2811+0x27>
    8999:	02e326        	beqi	a3, 128, 899f <sw_fft_32b_2811+0x27>
    899c:	edf366        	bnei	a3, 0x100, 898d <sw_fft_32b_2811+0x15>
    899f:	1173f0        	slli	a7, a3, 1
    89a2:	029d           	mov.n	a9, a2
    89a4:	600204        	ae_lq32f.i	aeq0, a2, 0
    89a7:	0b13a6        	blti	a3, 1, 89b6 <sw_fft_32b_2811+0x3e>
    89aa:	08a776        	loopgtz	a7, 89b6 <sw_fft_32b_2811+0x3e>
    89ad:	3404b4        	ae_sraaq56	aeq0, aeq0, a4
    89b0:	620904        	ae_sq32f.i	aeq0, a9, 0
    89b3:	601914        	ae_lq32f.iu	aeq0, a9, 4

000089b6 <sw_fft_32b_2811+0x3e>:
    89b6:	101666        	bnei	a6, 1, 89ca <sw_fft_32b_2811+0x52>
    89b9:	df1681        	l32r	a8, 614 (8944 <xtensa_comp_fft_32b>)
    89bc:	03ad           	mov.n	a10, a3
    89be:	02bd           	mov.n	a11, a2
    89c0:	0008e0        	callx8	a8
    89c3:	07bd           	mov.n	a11, a7
    89c5:	090c           	movi.n	a9, 0
    89c7:	000386        	j	89d9 <sw_fft_32b_2811+0x61>

000089ca <sw_fft_32b_2811+0x52>:
    89ca:	df1381        	l32r	a8, 618 (88d0 <xtensa_real_fft_32b>)
    89cd:	03ad           	mov.n	a10, a3
    89cf:	02bd           	mov.n	a11, a2
    89d1:	0008e0        	callx8	a8
    89d4:	079d           	mov.n	a9, a7
    89d6:	11b3e0        	slli	a11, a3, 2

000089d9 <sw_fft_32b_2811+0x61>:
    89d9:	3a1566        	bnei	a5, 1, 8a17 <sw_fft_32b_2811+0x9f>
    89dc:	11a9e0        	slli	a10, a9, 2
    89df:	c0a2a0        	sub	a10, a2, a10
    89e2:	0a9d           	mov.n	a9, a10
    89e4:	fd24bd0a0f 	{ ae_lq32f.i	aeq0, a10, 0; ae_zeroq56	aeq1 }
    89e9:	07ab76        	loopgtz	a11, 89f4 <sw_fft_32b_2811+0x7c>
    89ec:	069864        	ae_absq56	aeq2, aeq0
    89ef:	f936bd191f 	{ ae_lq32f.iu	aeq0, a9, 4; ae_orq56	aeq1, aeq1, aeq2 }

000089f4 <sw_fft_32b_2811+0x7c>:
    89f4:	0a9d           	mov.n	a9, a10
    89f6:	621104        	ae_sq32f.i	aeq1, a1, 0
    89f9:	01d8           	l32i.n	a13, a1, 0
    89fb:	600a04        	ae_lq32f.i	aeq0, a10, 0
    89fe:	0a0c           	movi.n	a10, 0
    8a00:	40edc0        	nsa	a12, a13
    8a03:	b3acd0        	movgez	a10, a12, a13
    8a06:	0aab76        	loopgtz	a11, 8a14 <sw_fft_32b_2811+0x9c>
    8a09:	fc24fe8acf 	{ ae_slaasq56s	aeq3, aeq0, a10; nop }
    8a0e:	623904        	ae_sq32f.i	aeq3, a9, 0
    8a11:	601914        	ae_lq32f.iu	aeq0, a9, 4
    8a14:	c044a0        	sub	a4, a4, a10

00008a17 <sw_fft_32b_2811+0x9f>:
    8a17:	842d           	ae_sext16	a2, a4
    8a19:	f01d           	retw.n

00008a1b <sw_fft_32b_2811+0xa3>:
    8a1b:	00000000 00413600                                .....

00008a20 <fractional_peak>:
    8a20:	004136        	entry	a1, 32
    8a23:	2388           	l32i.n	a8, a3, 8
    8a25:	0398           	l32i.n	a9, a3, 0
    8a27:	1368           	l32i.n	a6, a3, 4
    8a29:	66a6a2        	movi	a10, 0x666
    8a2c:	300aa4        	ae_cvtp24a16x2.ll	aep0, a10, a10
    8a2f:	c03690        	sub	a3, a6, a9
    8a32:	360334        	ae_cvtq48a32s	aeq0, a3
    8a35:	d5e215668f 	{ sub	a6, a6, a8; ae_mulfq32sp16s.l	aeq2, aeq0, aep0 }
    8a3a:	364634        	ae_cvtq48a32s	aeq1, a6
    8a3d:	d65400322e 	{ addi	a2, a2, 3; ae_ltq56s	b0, aeq1, aeq2 }
    8a42:	012290        	slli	a2, a2, 23
    8a45:	214330        	srai	a4, a3, 3
    8a48:	060076        	bf	b0, 8a52 <fractional_peak+0x32>
    8a4b:	def431        	l32r	a3, 61c (3eb852 <_end+0x3dfa16>)

00008a4e <fractional_peak+0x2e>:
    8a4e:	232a           	add.n	a2, a3, a2
    8a50:	f01d           	retw.n

00008a52 <fractional_peak+0x32>:
    8a52:	05a647        	bge	a6, a4, 8a5b <fractional_peak+0x3b>
    8a55:	def231        	l32r	a3, 620 (333334 <_end+0x3274f8>)
    8a58:	fffc86        	j	8a4e <fractional_peak+0x2e>

00008a5b <fractional_peak+0x3b>:
    8a5b:	215230        	srai	a5, a3, 2
    8a5e:	05a657        	bge	a6, a5, 8a67 <fractional_peak+0x47>
    8a61:	def031        	l32r	a3, 624 (266667 <_end+0x25a82b>)
    8a64:	fff986        	j	8a4e <fractional_peak+0x2e>

00008a67 <fractional_peak+0x47>:
    8a67:	deb381        	l32r	a8, 534 (3333 <AVC_prcs+0xf>)
    8a6a:	301884        	ae_cvtp24a16x2.ll	aep1, a8, a8
    8a6d:	039a14        	ae_mulfq32sp16s.l	aeq3, aeq0, aep1
    8a70:	deef91        	l32r	a9, 62c (599a <FLASH_REF_GAIN_Preload+0x3e>)
    8a73:	09b114        	ae_ltq56s	b1, aeq1, aeq3
    8a76:	302994        	ae_cvtp24a16x2.ll	aep2, a9, a9
    8a79:	03a214        	ae_mulfq32sp16s.l	aeq2, aeq0, aep2
    8a7c:	050176        	bf	b1, 8a85 <fractional_peak+0x65>
    8a7f:	deea31        	l32r	a3, 628 (19999a <_end+0x18db5e>)
    8a82:	fff206        	j	8a4e <fractional_peak+0x2e>

00008a85 <fractional_peak+0x65>:
    8a85:	09a124        	ae_ltq56s	b2, aeq1, aeq2
    8a88:	038a54        	ae_mulfq32sp16s.l	aeq3, aeq1, aep0
    8a8b:	050276        	bf	b2, 8a94 <fractional_peak+0x74>
    8a8e:	ddc331        	l32r	a3, 19c (ccccd <_end+0xc0e91>)
    8a91:	ffee46        	j	8a4e <fractional_peak+0x2e>

00008a94 <fractional_peak+0x74>:
    8a94:	09b034        	ae_ltq56s	b3, aeq0, aeq3
    8a97:	21a360        	srai	a10, a6, 3
    8a9a:	050376        	bf	b3, 8aa3 <fractional_peak+0x83>
    8a9d:	dee431        	l32r	a3, 630 (ffc147ae <_end+0xffc08972>)
    8aa0:	ffea86        	j	8a4e <fractional_peak+0x2e>

00008aa3 <fractional_peak+0x83>:
    8aa3:	05a3a7        	bge	a3, a10, 8aac <fractional_peak+0x8c>
    8aa6:	dee331        	l32r	a3, 634 (ffcccccc <_end+0xffcc0e90>)
    8aa9:	ffe846        	j	8a4e <fractional_peak+0x2e>

00008aac <fractional_peak+0x8c>:
    8aac:	21b260        	srai	a11, a6, 2
    8aaf:	05a3b7        	bge	a3, a11, 8ab8 <fractional_peak+0x98>
    8ab2:	dee131        	l32r	a3, 638 (ffd99999 <_end+0xffd8db5d>)
    8ab5:	ffe546        	j	8a4e <fractional_peak+0x2e>

00008ab8 <fractional_peak+0x98>:
    8ab8:	039254        	ae_mulfq32sp16s.l	aeq2, aeq1, aep1
    8abb:	03aa54        	ae_mulfq32sp16s.l	aeq3, aeq1, aep2
    8abe:	09a044        	ae_ltq56s	b4, aeq0, aeq2
    8ac1:	dede31        	l32r	a3, 63c (ffe66666 <_end+0xffe5a82a>)
    8ac4:	09b054        	ae_ltq56s	b5, aeq0, aeq3
    8ac7:	020476        	bf	b4, 8acd <fractional_peak+0xad>
    8aca:	ffe006        	j	8a4e <fractional_peak+0x2e>

00008acd <fractional_peak+0xad>:
    8acd:	dedcc1        	l32r	a12, 640 (fff33333 <_end+0xfff274f7>)
    8ad0:	030c           	movi.n	a3, 0
    8ad2:	d33c50        	movt	a3, a12, b5
    8ad5:	ffdd46        	j	8a4e <fractional_peak+0x2e>

00008ad8 <check_multiples>:
    8ad8:	004136        	entry	a1, 32
    8adb:	dedce1        	l32r	a14, 64c (6400000 <_end+0x63f41c4>)
    8ade:	dedcd1        	l32r	a13, 650 (16db22c <_end+0x16cf3f0>)
    8ae1:	450c           	movi.n	a5, 4
    8ae3:	ded8a1        	l32r	a10, 644 (ffe00000 <_end+0xffdf41c4>)
    8ae6:	b23a           	add.n	a11, a2, a3
    8ae8:	c09230        	sub	a9, a2, a3
    8aeb:	ded7c1        	l32r	a12, 648 (ffc00000 <_end+0xffbf41c4>)
    8aee:	130c           	movi.n	a3, 1
    8af0:	a2aa           	add.n	a10, a2, a10
    8af2:	020c           	movi.n	a2, 0
    8af4:	8099c0        	add	a9, a9, a12
    8af7:	609190        	abs	a9, a9
    8afa:	ded6c1        	l32r	a12, 654 (28f5d <_end+0x1d121>)
    8afd:	4aa576        	loopgtz	a5, 8b4b <check_multiples+0x73>
    8b00:	047256        	bnez	a2, 8b4b <check_multiples+0x73>
    8b03:	826a30        	mull	a6, a10, a3
    8b06:	d2f690        	quos	a15, a6, a9
    8b09:	827f90        	mull	a7, a15, a9
    8b0c:	0f8d           	mov.n	a8, a15
    8b0e:	c06670        	sub	a6, a6, a7
    8b11:	067d           	mov.n	a7, a6
    8b13:	0416a6        	blti	a6, 1, 8b1b <check_multiples+0x43>
    8b16:	c07690        	sub	a7, a6, a9
    8b19:	8f1b           	addi.n	a8, a15, 1

00008b1b <check_multiples+0x43>:
    8b1b:	583a           	add.n	a5, a8, a3
    8b1d:	575a           	add.n	a5, a7, a5
    8b1f:	907830        	addx2	a7, a8, a3
    8b22:	331b           	addi.n	a3, a3, 1
    8b24:	877d           	ae_sext16	a7, a7
    8b26:	60f070        	neg	a15, a7
    8b29:	01ffa0        	slli	a15, a15, 22
    8b2c:	19af57        	bge	a15, a5, 8b49 <check_multiples+0x71>
    8b2f:	d22b70        	quos	a2, a11, a7
    8b32:	c06240        	sub	a6, a2, a4
    8b35:	606160        	abs	a6, a6
    8b38:	052c67        	blt	a12, a6, 8b41 <check_multiples+0x69>
    8b3b:	de8c21        	l32r	a2, 56c (ff800000 <_end+0xff7f41c4>)
    8b3e:	0001c6        	j	8b49 <check_multiples+0x71>

00008b41 <check_multiples+0x69>:
    8b41:	02ad27        	bge	a13, a2, 8b47 <check_multiples+0x6f>
    8b44:	01ae27        	bge	a14, a2, 8b49 <check_multiples+0x71>

00008b47 <check_multiples+0x6f>:
    8b47:	020c           	movi.n	a2, 0
    8b49:	833d           	ae_sext16	a3, a3

00008b4b <check_multiples+0x73>:
    8b4b:	f01d           	retw.n

00008b4d <check_multiples+0x75>:
    8b4d:	000000                                        ...

00008b50 <harmonic_scan>:
    8b50:	006136        	entry	a1, 48
    8b53:	0159           	s32i.n	a5, a1, 0
    8b55:	0213e6        	bgei	a3, 1, 8b5b <harmonic_scan+0xb>
    8b58:	002486        	j	8bee <harmonic_scan+0x9e>
    8b5b:	dda0b1        	l32r	a11, 1dc (13ffffff <_end+0x13ff41c3>)
    8b5e:	0f0c           	movi.n	a15, 0
    8b60:	050c           	movi.n	a5, 0
    8b62:	0e0c           	movi.n	a14, 0
    8b64:	080c           	movi.n	a8, 0
    8b66:	219140        	srai	a9, a4, 1
    8b69:	1199           	s32i.n	a9, a1, 4
    8b6b:	2189           	s32i.n	a8, a1, 8
    8b6d:	7aa376        	loopgtz	a3, 8beb <harmonic_scan+0x9b>
    8b70:	0238           	l32i.n	a3, a2, 0
    8b72:	1168           	l32i.n	a6, a1, 4
    8b74:	224b           	addi.n	a2, a2, 4
    8b76:	d2d340        	quos	a13, a3, a4
    8b79:	82cd40        	mull	a12, a13, a4
    8b7c:	05ab37        	bge	a11, a3, 8b85 <harmonic_scan+0x35>
    8b7f:	dea8a1        	l32r	a10, 620 (333334 <_end+0x3274f8>)
    8b82:	000686        	j	8ba0 <harmonic_scan+0x50>

00008b85 <harmonic_scan+0x35>:
    8b85:	deb481        	l32r	a8, 658 (effffff <_end+0xeff41c3>)
    8b88:	dd6ba1        	l32r	a10, 134 (2ccccd <_end+0x2c0e91>)
    8b8b:	02a837        	bge	a8, a3, 8b91 <harmonic_scan+0x41>
    8b8e:	000386        	j	8ba0 <harmonic_scan+0x50>

00008b91 <harmonic_scan+0x41>:
    8b91:	deb2a1        	l32r	a10, 65c (77fffff <_end+0x77f41c3>)
    8b94:	05aa37        	bge	a10, a3, 8b9d <harmonic_scan+0x4d>
    8b97:	dea3a1        	l32r	a10, 624 (266667 <_end+0x25a82b>)
    8b9a:	000086        	j	8ba0 <harmonic_scan+0x50>

00008b9d <harmonic_scan+0x4d>:
    8b9d:	deb0a1        	l32r	a10, 660 (21eb86 <_end+0x212d4a>)

00008ba0 <harmonic_scan+0x50>:
    8ba0:	0d8d           	mov.n	a8, a13
    8ba2:	c0c3c0        	sub	a12, a3, a12
    8ba5:	0c9d           	mov.n	a9, a12
    8ba7:	04a6c7        	bge	a6, a12, 8baf <harmonic_scan+0x5f>
    8baa:	c09c40        	sub	a9, a12, a4
    8bad:	8d1b           	addi.n	a8, a13, 1

00008baf <harmonic_scan+0x5f>:
    8baf:	606190        	abs	a6, a9
    8bb2:	d8aa           	add.n	a13, a8, a10
    8bb4:	312d67        	blt	a13, a6, 8be9 <harmonic_scan+0x99>
    8bb7:	ff1b           	addi.n	a15, a15, 1
    8bb9:	217330        	srai	a7, a3, 3
    8bbc:	2168           	l32i.n	a6, a1, 8
    8bbe:	585a           	add.n	a5, a8, a5
    8bc0:	855d           	ae_sext16	a5, a5
    8bc2:	667a           	add.n	a6, a6, a7
    8bc4:	dea871        	l32r	a7, 664 (11000000 <_end+0x10ff41c4>)
    8bc7:	8ffd           	ae_sext16	a15, a15
    8bc9:	2169           	s32i.n	a6, a1, 8
    8bcb:	072737        	blt	a7, a3, 8bd6 <harmonic_scan+0x86>
    8bce:	dd4981        	l32r	a8, f4 (800000 <_end+0x7f41c4>)
    8bd1:	ee8a           	add.n	a14, a14, a8
    8bd3:	000486        	j	8be9 <harmonic_scan+0x99>

00008bd6 <harmonic_scan+0x86>:
    8bd6:	dea491        	l32r	a9, 668 (15000000 <_end+0x14ff41c4>)
    8bd9:	dea4a1        	l32r	a10, 66c (666667 <_end+0x65a82b>)
    8bdc:	dd89c1        	l32r	a12, 200 (400000 <_end+0x3f41c4>)
    8bdf:	042937        	blt	a9, a3, 8be7 <harmonic_scan+0x97>
    8be2:	eeaa           	add.n	a14, a14, a10
    8be4:	000046        	j	8be9 <harmonic_scan+0x99>

00008be7 <harmonic_scan+0x97>:
    8be7:	eeca           	add.n	a14, a14, a12
    8be9:	f03d           	nop.n

00008beb <harmonic_scan+0x9b>:
    8beb:	000246        	j	8bf8 <harmonic_scan+0xa8>

00008bee <harmonic_scan+0x9e>:
    8bee:	0e0c           	movi.n	a14, 0
    8bf0:	050c           	movi.n	a5, 0
    8bf2:	0f0c           	movi.n	a15, 0
    8bf4:	0d0c           	movi.n	a13, 0
    8bf6:	21d9           	s32i.n	a13, a1, 8

00008bf8 <harmonic_scan+0xa8>:
    8bf8:	0128           	l32i.n	a2, a1, 0
    8bfa:	0d3fa6        	blti	a15, 3, 8c0b <harmonic_scan+0xbb>
    8bfd:	2138           	l32i.n	a3, a1, 8
    8bff:	d23350        	quos	a3, a3, a5
    8c02:	1133d0        	slli	a3, a3, 3

00008c05 <harmonic_scan+0xb5>:
    8c05:	0239           	s32i.n	a3, a2, 0
    8c07:	0e2d           	mov.n	a2, a14
    8c09:	f01d           	retw.n

00008c0b <harmonic_scan+0xbb>:
    8c0b:	030c           	movi.n	a3, 0
    8c0d:	fffd06        	j	8c05 <harmonic_scan+0xb5>

00008c10 <Max5>:
    8c10:	004136        	entry	a1, 32
    8c13:	0248           	l32i.n	a4, a2, 0
    8c15:	430c           	movi.n	a3, 4
    8c17:	06a376        	loopgtz	a3, 8c21 <Max5+0x11>
    8c1a:	1288           	l32i.n	a8, a2, 4
    8c1c:	224b           	addi.n	a2, a2, 4
    8c1e:	534480        	max	a4, a4, a8

00008c21 <Max5+0x11>:
    8c21:	042d           	mov.n	a2, a4
    8c23:	f01d           	retw.n

00008c25 <Max5+0x15>:
    8c25:	000000                                        ...

00008c28 <Pitch_2Mic>:
    8c28:	00c136        	entry	a1, 96
    8c2b:	030c           	movi.n	a3, 0
    8c2d:	05d272        	addmi	a7, a2, 0x500
    8c30:	412762        	l32i	a6, a7, 0x104
    8c33:	402782        	l32i	a8, a7, 0x100
    8c36:	97cb           	addi.n	a9, a7, 12
    8c38:	8199           	s32i.n	a9, a1, 32
    8c3a:	b189           	s32i.n	a8, a1, 44
    8c3c:	3f2772        	l32i	a7, a7, 252
    8c3f:	01d652        	addmi	a5, a6, 0x100
    8c42:	d4c552        	addi	a5, a5, -44
    8c45:	02d682        	addmi	a8, a6, 0x200
    8c48:	a8c882        	addi	a8, a8, -88
    8c4b:	c189           	s32i.n	a8, a1, 48

00008c4d <Pitch_2Mic+0x25>:
    8c4d:	b1a8           	l32i.n	a10, a1, 44
    8c4f:	1143e0        	slli	a4, a3, 2
    8c52:	a0a3a0        	addx4	a10, a3, a10
    8c55:	0aa8           	l32i.n	a10, a10, 0
    8c57:	dd5881        	l32r	a8, 1b8 (91c <Log2_norm>)
    8c5a:	0892b2        	l16si	a11, a2, 16
    8c5d:	40eac0        	nsa	a12, a10
    8c60:	8ccd           	ae_sext16	a12, a12
    8c62:	c0bbc0        	sub	a11, a11, a12
    8c65:	401c00        	ssl	a12
    8c68:	a1aa00        	sll	a10, a10
    8c6b:	0008e0        	callx8	a8
    8c6e:	d47a           	add.n	a13, a4, a7
    8c70:	e46a           	add.n	a14, a4, a6
    8c72:	0ea9           	s32i.n	a10, a14, 0
    8c74:	0da8           	l32i.n	a10, a13, 0
    8c76:	dd5081        	l32r	a8, 1b8 (91c <Log2_norm>)
    8c79:	0892b2        	l16si	a11, a2, 16
    8c7c:	40eac0        	nsa	a12, a10
    8c7f:	8ccd           	ae_sext16	a12, a12
    8c81:	c0bbc0        	sub	a11, a11, a12
    8c84:	401c00        	ssl	a12
    8c87:	a1aa00        	sll	a10, a10
    8c8a:	0008e0        	callx8	a8
    8c8d:	5f3c           	movi.n	a15, 53
    8c8f:	331b           	addi.n	a3, a3, 1
    8c91:	845a           	add.n	a8, a4, a5
    8c93:	08a9           	s32i.n	a10, a8, 0
    8c95:	833d           	ae_sext16	a3, a3
    8c97:	b293f7        	bne	a3, a15, 8c4d <Pitch_2Mic+0x25>
    8c9a:	558b           	addi.n	a5, a5, 8
    8c9c:	230c           	movi.n	a3, 2
    8c9e:	373c           	movi.n	a7, 51
    8ca0:	468b           	addi.n	a4, a6, 8
    8ca2:	0d0c           	movi.n	a13, 0
    8ca4:	0e0c           	movi.n	a14, 0
    8ca6:	91e9           	s32i.n	a14, a1, 36
    8ca8:	51d9           	s32i.n	a13, a1, 20
    8caa:	de7161        	l32r	a6, 670 (cb333333 <_end+0xcb3274f7>)

00008cad <Pitch_2Mic+0x85>:
    8cad:	04f8           	l32i.n	a15, a4, 0
    8caf:	61a6f7        	bge	a6, a15, 8d14 <Pitch_2Mic+0xec>
    8cb2:	de7081        	l32r	a8, 674 (8c10 <Max5>)
    8cb5:	f8c4a2        	addi	a10, a4, -8
    8cb8:	0008e0        	callx8	a8
    8cbb:	04c8           	l32i.n	a12, a4, 0
    8cbd:	de6e91        	l32r	a9, 678 (fb333333 <_end+0xfb3274f7>)
    8cc0:	509ac7        	bne	a10, a12, 8d14 <Pitch_2Mic+0xec>
    8cc3:	05a8           	l32i.n	a10, a5, 0
    8cc5:	c0aca0        	sub	a10, a12, a10
    8cc8:	71a9           	s32i.n	a10, a1, 28
    8cca:	46a9a7        	bge	a9, a10, 8d14 <Pitch_2Mic+0xec>
    8ccd:	de6981        	l32r	a8, 674 (8c10 <Max5>)
    8cd0:	f8c5a2        	addi	a10, a5, -8
    8cd3:	0008e0        	callx8	a8
    8cd6:	de6991        	l32r	a9, 67c (f4000000 <_end+0xf3ff41c4>)
    8cd9:	04c8           	l32i.n	a12, a4, 0
    8cdb:	71d8           	l32i.n	a13, a1, 28
    8cdd:	9a9a           	add.n	a9, a10, a9
    8cdf:	31a9c7        	bge	a9, a12, 8d14 <Pitch_2Mic+0xec>
    8ce2:	de67b1        	l32r	a11, 680 (4cccccc <_end+0x4cc0e90>)
    8ce5:	02abd7        	bge	a11, a13, 8ceb <Pitch_2Mic+0xc3>
    8ce8:	28aac7        	bge	a10, a12, 8d14 <Pitch_2Mic+0xec>

00008ceb <Pitch_2Mic+0xc3>:
    8ceb:	fcc4b2        	addi	a11, a4, -4
    8cee:	de6581        	l32r	a8, 684 (8a20 <fractional_peak>)
    8cf1:	a31b           	addi.n	a10, a3, 1
    8cf3:	8aad           	ae_sext16	a10, a10
    8cf5:	0008e0        	callx8	a8
    8cf8:	91c8           	l32i.n	a12, a1, 36
    8cfa:	c1e8           	l32i.n	a14, a1, 48
    8cfc:	5b2c           	movi.n	a11, 37
    8cfe:	dc1b           	addi.n	a13, a12, 1
    8d00:	a0ece0        	addx4	a14, a12, a14
    8d03:	0ea9           	s32i.n	a10, a14, 0
    8d05:	8dcd           	ae_sext16	a12, a13
    8d07:	91c9           	s32i.n	a12, a1, 36
    8d09:	072b37        	blt	a11, a3, 8d14 <Pitch_2Mic+0xec>
    8d0c:	51f8           	l32i.n	a15, a1, 20
    8d0e:	8f1b           	addi.n	a8, a15, 1
    8d10:	88fd           	ae_sext16	a15, a8
    8d12:	51f9           	s32i.n	a15, a1, 20
    8d14:	444b           	addi.n	a4, a4, 4
    8d16:	554b           	addi.n	a5, a5, 4
    8d18:	331b           	addi.n	a3, a3, 1
    8d1a:	833d           	ae_sext16	a3, a3
    8d1c:	8d9377        	bne	a3, a7, 8cad <Pitch_2Mic+0x85>
    8d1f:	090c           	movi.n	a9, 0
    8d21:	5188           	l32i.n	a8, a1, 20
    8d23:	0199           	s32i.n	a9, a1, 0
    8d25:	1199           	s32i.n	a9, a1, 4
    8d27:	0238e6        	bgei	a8, 3, 8d2d <Pitch_2Mic+0x105>
    8d2a:	006046        	j	8eaf <Pitch_2Mic+0x287>
    8d2d:	0199           	s32i.n	a9, a1, 0
    8d2f:	a199           	s32i.n	a9, a1, 40
    8d31:	0228e6        	bgei	a8, 2, 8d37 <Pitch_2Mic+0x10f>
    8d34:	0042c6        	j	8e43 <Pitch_2Mic+0x21b>
    8d37:	580b           	addi.n	a5, a8, -1
    8d39:	040c           	movi.n	a4, 0
    8d3b:	de5371        	l32r	a7, 688 (13000000 <_end+0x12ff41c4>)
    8d3e:	0c0c           	movi.n	a12, 0
    8d40:	06d2f2        	addmi	a15, a2, 0x600
    8d43:	31f9           	s32i.n	a15, a1, 12
    8d45:	61c9           	s32i.n	a12, a1, 24

00008d47 <Pitch_2Mic+0x11f>:
    8d47:	c168           	l32i.n	a6, a1, 48
    8d49:	043d           	mov.n	a3, a4
    8d4b:	a06460        	addx4	a6, a4, a6

00008d4e <Pitch_2Mic+0x126>:
    8d4e:	022357        	blt	a3, a5, 8d54 <Pitch_2Mic+0x12c>
    8d51:	003846        	j	8e36 <Pitch_2Mic+0x20e>
    8d54:	06a8           	l32i.n	a10, a6, 0
    8d56:	02a7a7        	bge	a7, a10, 8d5c <Pitch_2Mic+0x134>
    8d59:	003646        	j	8e36 <Pitch_2Mic+0x20e>
    8d5c:	a1c8           	l32i.n	a12, a1, 40
    8d5e:	de4b81        	l32r	a8, 68c (8ad8 <check_multiples>)
    8d61:	c1b8           	l32i.n	a11, a1, 48
    8d63:	331b           	addi.n	a3, a3, 1
    8d65:	833d           	ae_sext16	a3, a3
    8d67:	a0b3b0        	addx4	a11, a3, a11
    8d6a:	0bb8           	l32i.n	a11, a11, 0
    8d6c:	0008e0        	callx8	a8
    8d6f:	db1aa6        	blti	a10, 1, 8d4e <Pitch_2Mic+0x126>
    8d72:	91b8           	l32i.n	a11, a1, 36
    8d74:	0acd           	mov.n	a12, a10
    8d76:	de4681        	l32r	a8, 690 (8b50 <harmonic_scan>)
    8d79:	d14b           	addi.n	a13, a1, 4
    8d7b:	c1a8           	l32i.n	a10, a1, 48
    8d7d:	0008e0        	callx8	a8
    8d80:	11d8           	l32i.n	a13, a1, 4
    8d82:	41a9           	s32i.n	a10, a1, 16
    8d84:	c61da6        	blti	a13, 1, 8d4e <Pitch_2Mic+0x126>
    8d87:	de43a1        	l32r	a10, 694 (399999a <_end+0x398db5e>)
    8d8a:	dd0b81        	l32r	a8, 1b8 (91c <Log2_norm>)
    8d8d:	8b0c           	movi.n	a11, 8
    8d8f:	43ada0        	min	a10, a13, a10
    8d92:	21a9           	s32i.n	a10, a1, 8
    8d94:	40eac0        	nsa	a12, a10
    8d97:	8ccd           	ae_sext16	a12, a12
    8d99:	c0bbc0        	sub	a11, a11, a12
    8d9c:	401c00        	ssl	a12
    8d9f:	a1aa00        	sll	a10, a10
    8da2:	0008e0        	callx8	a8
    8da5:	41f8           	l32i.n	a15, a1, 16
    8da7:	814b           	addi.n	a8, a1, 4
    8da9:	8198           	l32i.n	a9, a1, 32
    8dab:	31c8           	l32i.n	a12, a1, 12
    8dad:	dd8ee1        	l32r	a14, 3e8 (4666 <prelim_filter+0x1ba>)
    8db0:	21b2a0        	srai	a11, a10, 2
    8db3:	21b9           	s32i.n	a11, a1, 8
    8db5:	a18b           	addi.n	a10, a1, 8
    8db7:	360b34        	ae_cvtq48a32s	aeq0, a11
    8dba:	300ee4        	ae_cvtp24a16x2.ll	aep0, a14, a14
    8dbd:	d4e23061ee 	{ l32i	a14, a1, 24; ae_mulfq32sp16s.l	aeq0, aeq0, aep0 }
    8dc2:	604c74        	ae_lq32f.i	aeq1, a12, 28
    8dc5:	620a04        	ae_sq32f.i	aeq0, a10, 0
    8dc8:	21d8           	l32i.n	a13, a1, 8
    8dca:	871992        	l16ui	a9, a9, 0x10e
    8dcd:	600804        	ae_lq32f.i	aeq0, a8, 0
    8dd0:	fb2ad0ddff 	{ add	a13, a13, a15; ae_subq56	aeq3, aeq1, aeq0 }
    8dd5:	3029b6        	bltui	a9, 2, 8e09 <Pitch_2Mic+0x1e1>
    8dd8:	1fa5f2        	movi	a15, 0x51f
    8ddb:	301ff4        	ae_cvtp24a16x2.ll	aep1, a15, a15
    8dde:	039254        	ae_mulfq32sp16s.l	aeq2, aeq1, aep1
    8de1:	063b24        	ae_abssq56s	aeq0, aeq3
    8de4:	09a004        	ae_ltq56s	b0, aeq0, aeq2
    8de7:	dcc381        	l32r	a8, f4 (800000 <_end+0x7f41c4>)
    8dea:	b8a6a2        	movi	a10, 0x6b8
    8ded:	040076        	bf	b0, 8df5 <Pitch_2Mic+0x1cd>
    8df0:	dd8a           	add.n	a13, a13, a8
    8df2:	000bc6        	j	8e25 <Pitch_2Mic+0x1fd>

00008df5 <Pitch_2Mic+0x1cd>:
    8df5:	302aa4        	ae_cvtp24a16x2.ll	aep2, a10, a10
    8df8:	03a254        	ae_mulfq32sp16s.l	aeq2, aeq1, aep2
    8dfb:	dcd491        	l32r	a9, 14c (600000 <_end+0x5f41c4>)
    8dfe:	09a014        	ae_ltq56s	b1, aeq0, aeq2
    8e01:	9d9a           	add.n	a9, a13, a9
    8e03:	d3d910        	movt	a13, a9, b1
    8e06:	0006c6        	j	8e25 <Pitch_2Mic+0x1fd>

00008e09 <Pitch_2Mic+0x1e1>:
    8e09:	181966        	bnei	a9, 1, 8e25 <Pitch_2Mic+0x1fd>
    8e0c:	ddc8b1        	l32r	a11, 52c (266666 <_end+0x25a82a>)
    8e0f:	1fa5c2        	movi	a12, 0x51f
    8e12:	fb2ad8bccf 	{ ae_cvtp24a16x2.ll	aep3, a12, a12; ae_subq56	aeq3, aeq1, aeq0 }
    8e17:	03b254        	ae_mulfq32sp16s.l	aeq2, aeq1, aep3
    8e1a:	06fb24        	ae_abssq56s	aeq3, aeq3
    8e1d:	09a324        	ae_ltq56s	b2, aeq3, aeq2
    8e20:	bdba           	add.n	a11, a13, a11
    8e22:	d3db20        	movt	a13, a11, b2
    8e25:	022ed7        	blt	a14, a13, 8e2b <Pitch_2Mic+0x203>
    8e28:	ffc886        	j	8d4e <Pitch_2Mic+0x126>
    8e2b:	61d9           	s32i.n	a13, a1, 24
    8e2d:	11f8           	l32i.n	a15, a1, 4
    8e2f:	a1f9           	s32i.n	a15, a1, 40
    8e31:	01f9           	s32i.n	a15, a1, 0
    8e33:	ffc5c6        	j	8d4e <Pitch_2Mic+0x126>

00008e36 <Pitch_2Mic+0x20e>:
    8e36:	441b           	addi.n	a4, a4, 1
    8e38:	844d           	ae_sext16	a4, a4
    8e3a:	c09540        	sub	a9, a5, a4
    8e3d:	f06956        	bnez	a9, 8d47 <Pitch_2Mic+0x11f>
    8e40:	0000c6        	j	8e47 <Pitch_2Mic+0x21f>

00008e43 <Pitch_2Mic+0x21b>:
    8e43:	080c           	movi.n	a8, 0
    8e45:	6189           	s32i.n	a8, a1, 24

00008e47 <Pitch_2Mic+0x21f>:
    8e47:	61a8           	l32i.n	a10, a1, 24
    8e49:	de1391        	l32r	a9, 698 (2999999 <_end+0x298db5d>)
    8e4c:	0229a7        	blt	a9, a10, 8e52 <Pitch_2Mic+0x22a>
    8e4f:	002186        	j	8ed9 <Pitch_2Mic+0x2b1>
    8e52:	8198           	l32i.n	a9, a1, 32
    8e54:	600104        	ae_lq32f.i	aeq0, a1, 0
    8e57:	871992        	l16ui	a9, a9, 0x10e
    8e5a:	1ca6b2        	movi	a11, 0x61c
    8e5d:	6062b4        	ae_lq32f.x	aeq1, a2, a11
    8e60:	2029b6        	bltui	a9, 2, 8e84 <Pitch_2Mic+0x25c>
    8e63:	1fa5a2        	movi	a10, 0x51f
    8e66:	36c054        	ae_sllisq56s	aeq3, aeq0, 1
    8e69:	fbaed8caaf 	{ ae_cvtp24a16x2.ll	aep4, a10, a10; ae_subq56	aeq3, aeq1, aeq3 }
    8e6e:	03c254        	ae_mulfq32sp16s.l	aeq2, aeq1, aep4
    8e71:	06fb24        	ae_abssq56s	aeq3, aeq3
    8e74:	09a334        	ae_ltq56s	b3, aeq3, aeq2
    8e77:	420376        	bf	b3, 8ebd <Pitch_2Mic+0x295>
    8e7a:	a1b8           	l32i.n	a11, a1, 40
    8e7c:	11bbf0        	slli	a11, a11, 1
    8e7f:	a1b9           	s32i.n	a11, a1, 40
    8e81:	000706        	j	8ea1 <Pitch_2Mic+0x279>

00008e84 <Pitch_2Mic+0x25c>:
    8e84:	66a6f2        	movi	a15, 0x666
    8e87:	fa2ad8dfff 	{ ae_cvtp24a16x2.ll	aep5, a15, a15; ae_subq56	aeq2, aeq1, aeq0 }
    8e8c:	03da54        	ae_mulfq32sp16s.l	aeq3, aeq1, aep5
    8e8f:	06ba24        	ae_abssq56s	aeq2, aeq2
    8e92:	d6d90000ef 	{ movi	a14, 0; ae_ltq56s	b4, aeq2, aeq3 }
    8e97:	81d8           	l32i.n	a13, a1, 32
    8e99:	c91b           	addi.n	a12, a9, 1
    8e9b:	c3ce40        	movf	a12, a14, b4
    8e9e:	875dc2        	s16i	a12, a13, 0x10e

00008ea1 <Pitch_2Mic+0x279>:
    8ea1:	8198           	l32i.n	a9, a1, 32
    8ea3:	a1a8           	l32i.n	a10, a1, 40
    8ea5:	6188           	l32i.n	a8, a1, 24
    8ea7:	456982        	s32i	a8, a9, 0x114
    8eaa:	4469a2        	s32i	a10, a9, 0x110
    8ead:	f01d           	retw.n

00008eaf <Pitch_2Mic+0x287>:
    8eaf:	81c8           	l32i.n	a12, a1, 32
    8eb1:	0b0c           	movi.n	a11, 0
    8eb3:	61b9           	s32i.n	a11, a1, 24
    8eb5:	a1b9           	s32i.n	a11, a1, 40
    8eb7:	875cb2        	s16i	a11, a12, 0x10e
    8eba:	fff8c6        	j	8ea1 <Pitch_2Mic+0x279>

00008ebd <Pitch_2Mic+0x295>:
    8ebd:	c329b6        	bltui	a9, 2, 8e84 <Pitch_2Mic+0x25c>
    8ec0:	35c074        	ae_sraiq56	aeq3, aeq0, 1
    8ec3:	01dfc4        	ae_subq56	aeq3, aeq1, aeq3
    8ec6:	06fb24        	ae_abssq56s	aeq3, aeq3
    8ec9:	09a354        	ae_ltq56s	b5, aeq3, aeq2
    8ecc:	b40576        	bf	b5, 8e84 <Pitch_2Mic+0x25c>
    8ecf:	a1d8           	l32i.n	a13, a1, 40
    8ed1:	21d1d0        	srai	a13, a13, 1
    8ed4:	a1d9           	s32i.n	a13, a1, 40
    8ed6:	fff1c6        	j	8ea1 <Pitch_2Mic+0x279>

00008ed9 <Pitch_2Mic+0x2b1>:
    8ed9:	81f8           	l32i.n	a15, a1, 32
    8edb:	0e0c           	movi.n	a14, 0
    8edd:	a1e9           	s32i.n	a14, a1, 40
    8edf:	875fe2        	s16i	a14, a15, 0x10e
    8ee2:	ffeec6        	j	8ea1 <Pitch_2Mic+0x279>

00008ee5 <Pitch_2Mic+0x2bd>:
    8ee5:	000000                                        ...

00008ee8 <common_ECNR_PARA_init_v2>:
    8ee8:	004136        	entry	a1, 32
    8eeb:	a28b           	addi.n	a10, a2, 8
    8eed:	dc7781        	l32r	a8, cc (9240 <xt_memcpy>)
    8ef0:	b32b           	addi.n	a11, a3, 2
    8ef2:	79a0c2        	movi	a12, 121
    8ef5:	0008e0        	callx8	a8
    8ef8:	5c0c           	movi.n	a12, 5
    8efa:	01d3b2        	addmi	a11, a3, 0x100
    8efd:	01d2a2        	addmi	a10, a2, 0x100
    8f00:	dc7381        	l32r	a8, cc (9240 <xt_memcpy>)
    8f03:	fccaa2        	addi	a10, a10, -4
    8f06:	f4cbb2        	addi	a11, a11, -12
    8f09:	0008e0        	callx8	a8
    8f0c:	60a0c2        	movi	a12, 96
    8f0f:	01d3b2        	addmi	a11, a3, 0x100
    8f12:	01d2a2        	addmi	a10, a2, 0x100
    8f15:	dc6d81        	l32r	a8, cc (9240 <xt_memcpy>)
    8f18:	aa8b           	addi.n	a10, a10, 8
    8f1a:	fecbb2        	addi	a11, a11, -2
    8f1d:	0008e0        	callx8	a8
    8f20:	7c0c           	movi.n	a12, 7
    8f22:	03d3b2        	addmi	a11, a3, 0x300
    8f25:	02d2a2        	addmi	a10, a2, 0x200
    8f28:	dc6981        	l32r	a8, cc (9240 <xt_memcpy>)
    8f2b:	c8caa2        	addi	a10, a10, -56
    8f2e:	f4cbb2        	addi	a11, a11, -12
    8f31:	0008e0        	callx8	a8
    8f34:	ec1c           	movi.n	a12, 30
    8f36:	02d2a2        	addmi	a10, a2, 0x200
    8f39:	03d3b2        	addmi	a11, a3, 0x300
    8f3c:	dc6481        	l32r	a8, cc (9240 <xt_memcpy>)
    8f3f:	18cbb2        	addi	a11, a11, 24
    8f42:	d6caa2        	addi	a10, a10, -42
    8f45:	0008e0        	callx8	a8
    8f48:	dc5791        	l32r	a9, a4 (be30 <p_ecnr_mem>)
    8f4b:	0998           	l32i.n	a9, a9, 0
    8f4d:	0299           	s32i.n	a9, a2, 0
    8f4f:	f01d           	retw.n

00008f51 <common_ECNR_PARA_init_v2+0x69>:
    8f51:	000000                                        ...

00008f54 <TX_ECNR_PARA_init>:
    8f54:	004136        	entry	a1, 32
    8f57:	03bd           	mov.n	a11, a3
    8f59:	dc5251        	l32r	a5, a4 (be30 <p_ecnr_mem>)
    8f5c:	dc5b31        	l32r	a3, c8 (be38 <aec_nr_para>)
    8f5f:	ddcf81        	l32r	a8, 69c (8ee8 <common_ECNR_PARA_init_v2>)
    8f62:	05a8           	l32i.n	a10, a5, 0
    8f64:	03a9           	s32i.n	a10, a3, 0
    8f66:	0008e0        	callx8	a8
    8f69:	05e8           	l32i.n	a14, a5, 0
    8f6b:	03c8           	l32i.n	a12, a3, 0
    8f6d:	b42b           	addi.n	a11, a4, 2
    8f6f:	1adee2        	addmi	a14, a14, 0x1a00
    8f72:	041cd2        	l16ui	a13, a12, 8
    8f75:	02dca2        	addmi	a10, a12, 0x200
    8f78:	12caa2        	addi	a10, a10, 18
    8f7b:	1b5ed2        	s16i	a13, a14, 54
    8f7e:	42ac           	beqz.n	a2, 8fa6 <TX_ECNR_PARA_init+0x52>
    8f80:	821c92        	l16ui	a9, a12, 0x104
    8f83:	dc5281        	l32r	a8, cc (9240 <xt_memcpy>)
    8f86:	025c92        	s16i	a9, a12, 4
    8f89:	80a0c2        	movi	a12, 128
    8f8c:	0008e0        	callx8	a8
    8f8f:	03c8           	l32i.n	a12, a3, 0
    8f91:	dcf4a1        	l32r	a10, 364 (1000 <voiced_decision+0x48>)
    8f94:	80a0b2        	movi	a11, 128
    8f97:	03dc92        	addmi	a9, a12, 0x300
    8f9a:	12c992        	addi	a9, a9, 18
    8f9d:	02ab76        	loopgtz	a11, 8fa3 <TX_ECNR_PARA_init+0x4f>
    8fa0:	09c9a4        	ae_s16ip	a10, a9, 2

00008fa3 <TX_ECNR_PARA_init+0x4f>:
    8fa3:	000406        	j	8fb7 <TX_ECNR_PARA_init+0x63>

00008fa6 <TX_ECNR_PARA_init+0x52>:
    8fa6:	811c92        	l16ui	a9, a12, 0x102
    8fa9:	dc4881        	l32r	a8, cc (9240 <xt_memcpy>)
    8fac:	025c92        	s16i	a9, a12, 4
    8faf:	00a1c2        	movi	a12, 0x100
    8fb2:	0008e0        	callx8	a8
    8fb5:	03c8           	l32i.n	a12, a3, 0

00008fb7 <TX_ECNR_PARA_init+0x63>:
    8fb7:	dc4581        	l32r	a8, cc (9240 <xt_memcpy>)
    8fba:	05a8           	l32i.n	a10, a5, 0
    8fbc:	02dcb2        	addmi	a11, a12, 0x200
    8fbf:	bacbb2        	addi	a11, a11, -70
    8fc2:	4c0c           	movi.n	a12, 4
    8fc4:	1adaa2        	addmi	a10, a10, 0x1a00
    8fc7:	24caa2        	addi	a10, a10, 36
    8fca:	0008e0        	callx8	a8
    8fcd:	05c8           	l32i.n	a12, a5, 0
    8fcf:	03b8           	l32i.n	a11, a3, 0
    8fd1:	70dcc2        	addmi	a12, a12, 0x7000
    8fd4:	db1bb2        	l16ui	a11, a11, 0x1b6
    8fd7:	375cb2        	s16i	a11, a12, 110
    8fda:	f01d           	retw.n

00008fdc <RX_ECNR_PARA_init>:
    8fdc:	004136        	entry	a1, 32
    8fdf:	03bd           	mov.n	a11, a3
    8fe1:	dc3051        	l32r	a5, a4 (be30 <p_ecnr_mem>)
    8fe4:	dc3931        	l32r	a3, c8 (be38 <aec_nr_para>)
    8fe7:	ddad81        	l32r	a8, 69c (8ee8 <common_ECNR_PARA_init_v2>)
    8fea:	05a8           	l32i.n	a10, a5, 0
    8fec:	03a9           	s32i.n	a10, a3, 0
    8fee:	0008e0        	callx8	a8
    8ff1:	03a8           	l32i.n	a10, a3, 0
    8ff3:	b42b           	addi.n	a11, a4, 2
    8ff5:	02daa2        	addmi	a10, a10, 0x200
    8ff8:	12caa2        	addi	a10, a10, 18
    8ffb:	f29c           	beqz.n	a2, 901e <RX_ECNR_PARA_init+0x42>
    8ffd:	dc3381        	l32r	a8, cc (9240 <xt_memcpy>)
    9000:	80a0c2        	movi	a12, 128
    9003:	0008e0        	callx8	a8
    9006:	0023b2        	l32i	a11, a3, 0
    9009:	dcd6a1        	l32r	a10, 364 (1000 <voiced_decision+0x48>)
    900c:	80a0c2        	movi	a12, 128
    900f:	03db92        	addmi	a9, a11, 0x300
    9012:	12c992        	addi	a9, a9, 18
    9015:	02ac76        	loopgtz	a12, 901b <RX_ECNR_PARA_init+0x3f>
    9018:	09c9a4        	ae_s16ip	a10, a9, 2

0000901b <RX_ECNR_PARA_init+0x3f>:
    901b:	000286        	j	9029 <RX_ECNR_PARA_init+0x4d>

0000901e <RX_ECNR_PARA_init+0x42>:
    901e:	dc2b81        	l32r	a8, cc (9240 <xt_memcpy>)
    9021:	00a1c2        	movi	a12, 0x100
    9024:	0008e0        	callx8	a8
    9027:	03b8           	l32i.n	a11, a3, 0

00009029 <RX_ECNR_PARA_init+0x4d>:
    9029:	05a8           	l32i.n	a10, a5, 0
    902b:	da1b92        	l16ui	a9, a11, 0x1b4
    902e:	70daa2        	addmi	a10, a10, 0x7000
    9031:	990b           	addi.n	a9, a9, -1
    9033:	365a92        	s16i	a9, a10, 108
    9036:	f01d           	retw.n

00009038 <EQ_update>:
    9038:	004136        	entry	a1, 32
    903b:	03bd           	mov.n	a11, a3
    903d:	00a1c2        	movi	a12, 0x100
    9040:	dc1991        	l32r	a9, a4 (be30 <p_ecnr_mem>)
    9043:	6cd2a2        	addmi	a10, a2, 0x6c00
    9046:	dc2181        	l32r	a8, cc (9240 <xt_memcpy>)
    9049:	d8caa2        	addi	a10, a10, -40
    904c:	0929           	s32i.n	a2, a9, 0
    904e:	0008e0        	callx8	a8
    9051:	f01d           	retw.n

00009053 <EQ_update+0x1b>:
	...

00009054 <cal_wind_score>:
    9054:	006136        	entry	a1, 48
    9057:	300444        	ae_cvtp24a16x2.ll	aep0, a4, a4
    905a:	117330        	slli	a7, a3, 13
    905d:	c02270        	sub	a2, a2, a7
    9060:	1712e6        	bgei	a2, 1, 907b <cal_wind_score+0x27>
    9063:	020c           	movi.n	a2, 0

00009065 <cal_wind_score+0x11>:
    9065:	364234        	ae_cvtq48a32s	aeq1, a2
    9068:	dc8721        	l32r	a2, 284 (2000 <pitch_by_harmonic+0x570>)
    906b:	360234        	ae_cvtq48a32s	aeq0, a2
    906e:	030454        	ae_mulsfq32sp16s.l	aeq0, aeq1, aep0
    9071:	350054        	ae_slliq56	aeq0, aeq0, 1
    9074:	620104        	ae_sq32f.i	aeq0, a1, 0
    9077:	212d           	ae_l16si.n	a2, a1, 0
    9079:	f01d           	retw.n

0000907b <cal_wind_score+0x27>:
    907b:	052277        	blt	a2, a7, 9084 <cal_wind_score+0x30>
    907e:	dc8121        	l32r	a2, 284 (2000 <pitch_by_harmonic+0x570>)
    9081:	fff806        	j	9065 <cal_wind_score+0x11>

00009084 <cal_wind_score+0x30>:
    9084:	d22230        	quos	a2, a2, a3
    9087:	fff686        	j	9065 <cal_wind_score+0x11>

0000908a <cal_wind_score+0x36>:
	...

0000908c <__eqdf2>:
    908c:	002136        	entry	a1, 16
    908f:	0d9247        	bne	a2, a4, 90a0 <__eqdf2+0x14>
    9092:	179357        	bne	a3, a5, 90ad <__eqdf2+0x21>
    9095:	dd8261        	l32r	a6, 6a0 (7ff00000 <_end+0x7fef41c4>)
    9098:	084367        	ball	a3, a6, 90a4 <__eqdf2+0x18>
    909b:	020c           	movi.n	a2, 0
    909d:	f01d           	retw.n

0000909f <__eqdf2+0x13>:
	...

000090a0 <__eqdf2+0x14>:
    90a0:	120c           	movi.n	a2, 1
    90a2:	f01d           	retw.n

000090a4 <__eqdf2+0x18>:
    90a4:	117340        	slli	a7, a3, 12
    90a7:	207720        	or	a7, a7, a2
    90aa:	000206        	j	90b6 <__eqdf2+0x2a>

000090ad <__eqdf2+0x21>:
    90ad:	207350        	or	a7, a3, a5
    90b0:	1177f0        	slli	a7, a7, 1
    90b3:	207720        	or	a7, a7, a2

000090b6 <__eqdf2+0x2a>:
    90b6:	020c           	movi.n	a2, 0
    90b8:	130c           	movi.n	a3, 1
    90ba:	932370        	movnez	a2, a3, a7
    90bd:	f01d           	retw.n

000090bf <__eqdf2+0x33>:
	...

000090c0 <__gtdf2>:
    90c0:	002136        	entry	a1, 16
    90c3:	dd7761        	l32r	a6, 6a0 (7ff00000 <_end+0x7fef41c4>)
    90c6:	0e4367        	ball	a3, a6, 90d8 <__gtdf2+0x18>

000090c9 <__gtdf2+0x9>:
    90c9:	40c567        	bnall	a5, a6, 910d <__ledf2+0x25>
    90cc:	117540        	slli	a7, a5, 12
    90cf:	207740        	or	a7, a7, a4
    90d2:	77bc           	beqz.n	a7, 910d <__ledf2+0x25>
    90d4:	020c           	movi.n	a2, 0
    90d6:	f01d           	retw.n

000090d8 <__gtdf2+0x18>:
    90d8:	117340        	slli	a7, a3, 12
    90db:	207720        	or	a7, a7, a2
    90de:	fe7716        	beqz	a7, 90c9 <__gtdf2+0x9>
    90e1:	020c           	movi.n	a2, 0
    90e3:	f01d           	retw.n

000090e5 <__gtdf2+0x25>:
    90e5:	000000                                        ...

000090e8 <__ledf2>:
    90e8:	002136        	entry	a1, 16
    90eb:	dd6d61        	l32r	a6, 6a0 (7ff00000 <_end+0x7fef41c4>)
    90ee:	0e4367        	ball	a3, a6, 9100 <__ledf2+0x18>

000090f1 <__ledf2+0x9>:
    90f1:	18c567        	bnall	a5, a6, 910d <__ledf2+0x25>
    90f4:	117540        	slli	a7, a5, 12
    90f7:	207740        	or	a7, a7, a4
    90fa:	f78c           	beqz.n	a7, 910d <__ledf2+0x25>
    90fc:	120c           	movi.n	a2, 1
    90fe:	f01d           	retw.n

00009100 <__ledf2+0x18>:
    9100:	117340        	slli	a7, a3, 12
    9103:	207720        	or	a7, a7, a2
    9106:	fe7716        	beqz	a7, 90f1 <__ledf2+0x9>
    9109:	120c           	movi.n	a2, 1
    910b:	f01d           	retw.n

0000910d <__ledf2+0x25>:
    910d:	307350        	xor	a7, a3, a5
    9110:	01d796        	bltz	a7, 9131 <__ledf2+0x49>
    9113:	00d396        	bltz	a3, 9124 <__ledf2+0x3c>
    9116:	053357        	bltu	a3, a5, 911f <__ledf2+0x37>
    9119:	109357        	bne	a3, a5, 912d <__ledf2+0x45>
    911c:	0d3427        	bltu	a4, a2, 912d <__ledf2+0x45>

0000911f <__ledf2+0x37>:
    911f:	020c           	movi.n	a2, 0
    9121:	f01d           	retw.n

00009123 <__ledf2+0x3b>:
	...

00009124 <__ledf2+0x3c>:
    9124:	f73537        	bltu	a5, a3, 911f <__ledf2+0x37>
    9127:	029537        	bne	a5, a3, 912d <__ledf2+0x45>
    912a:	f1b247        	bgeu	a2, a4, 911f <__ledf2+0x37>

0000912d <__ledf2+0x45>:
    912d:	120c           	movi.n	a2, 1
    912f:	f01d           	retw.n

00009131 <__ledf2+0x49>:
    9131:	fea396        	bltz	a3, 911f <__ledf2+0x37>
    9134:	207350        	or	a7, a3, a5
    9137:	1177f0        	slli	a7, a7, 1
    913a:	207720        	or	a7, a7, a2
    913d:	207740        	or	a7, a7, a4
    9140:	120c           	movi.n	a2, 1
    9142:	030c           	movi.n	a3, 0
    9144:	832370        	moveqz	a2, a3, a7
    9147:	f01d           	retw.n

00009149 <__ledf2+0x61>:
    9149:	000000                                        ...

0000914c <__gedf2>:
    914c:	002136        	entry	a1, 16
    914f:	dd5461        	l32r	a6, 6a0 (7ff00000 <_end+0x7fef41c4>)
    9152:	0e4367        	ball	a3, a6, 9164 <__gedf2+0x18>

00009155 <__gedf2+0x9>:
    9155:	40c567        	bnall	a5, a6, 9199 <__ltdf2+0x25>
    9158:	117540        	slli	a7, a5, 12
    915b:	207740        	or	a7, a7, a4
    915e:	77bc           	beqz.n	a7, 9199 <__ltdf2+0x25>
    9160:	f27c           	movi.n	a2, -1
    9162:	f01d           	retw.n

00009164 <__gedf2+0x18>:
    9164:	117340        	slli	a7, a3, 12
    9167:	207720        	or	a7, a7, a2
    916a:	fe7716        	beqz	a7, 9155 <__gedf2+0x9>
    916d:	f27c           	movi.n	a2, -1
    916f:	f01d           	retw.n

00009171 <__gedf2+0x25>:
    9171:	000000                                        ...

00009174 <__ltdf2>:
    9174:	002136        	entry	a1, 16
    9177:	dd4a61        	l32r	a6, 6a0 (7ff00000 <_end+0x7fef41c4>)
    917a:	0e4367        	ball	a3, a6, 918c <__ltdf2+0x18>

0000917d <__ltdf2+0x9>:
    917d:	18c567        	bnall	a5, a6, 9199 <__ltdf2+0x25>
    9180:	117540        	slli	a7, a5, 12
    9183:	207740        	or	a7, a7, a4
    9186:	f78c           	beqz.n	a7, 9199 <__ltdf2+0x25>
    9188:	020c           	movi.n	a2, 0
    918a:	f01d           	retw.n

0000918c <__ltdf2+0x18>:
    918c:	117340        	slli	a7, a3, 12
    918f:	207720        	or	a7, a7, a2
    9192:	fe7716        	beqz	a7, 917d <__ltdf2+0x9>
    9195:	020c           	movi.n	a2, 0
    9197:	f01d           	retw.n

00009199 <__ltdf2+0x25>:
    9199:	307350        	xor	a7, a3, a5
    919c:	01d796        	bltz	a7, 91bd <__ltdf2+0x49>
    919f:	00d396        	bltz	a3, 91b0 <__ltdf2+0x3c>
    91a2:	053357        	bltu	a3, a5, 91ab <__ltdf2+0x37>
    91a5:	109357        	bne	a3, a5, 91b9 <__ltdf2+0x45>
    91a8:	0db247        	bgeu	a2, a4, 91b9 <__ltdf2+0x45>

000091ab <__ltdf2+0x37>:
    91ab:	f27c           	movi.n	a2, -1
    91ad:	f01d           	retw.n

000091af <__ltdf2+0x3b>:
	...

000091b0 <__ltdf2+0x3c>:
    91b0:	f73537        	bltu	a5, a3, 91ab <__ltdf2+0x37>
    91b3:	029537        	bne	a5, a3, 91b9 <__ltdf2+0x45>
    91b6:	f13427        	bltu	a4, a2, 91ab <__ltdf2+0x37>

000091b9 <__ltdf2+0x45>:
    91b9:	020c           	movi.n	a2, 0
    91bb:	f01d           	retw.n

000091bd <__ltdf2+0x49>:
    91bd:	ff83d6        	bgez	a3, 91b9 <__ltdf2+0x45>
    91c0:	207350        	or	a7, a3, a5
    91c3:	1177f0        	slli	a7, a7, 1
    91c6:	207720        	or	a7, a7, a2
    91c9:	207740        	or	a7, a7, a4
    91cc:	020c           	movi.n	a2, 0
    91ce:	f37c           	movi.n	a3, -1
    91d0:	932370        	movnez	a2, a3, a7
    91d3:	f01d           	retw.n

000091d5 <__ltdf2+0x61>:
    91d5:	000000                                        ...

000091d8 <__unorddf2>:
    91d8:	002136        	entry	a1, 16
    91db:	dd3161        	l32r	a6, 6a0 (7ff00000 <_end+0x7fef41c4>)
    91de:	064367        	ball	a3, a6, 91e8 <__unorddf2+0x10>

000091e1 <__unorddf2+0x9>:
    91e1:	104567        	ball	a5, a6, 91f5 <__unorddf2+0x1d>

000091e4 <__unorddf2+0xc>:
    91e4:	020c           	movi.n	a2, 0
    91e6:	f01d           	retw.n

000091e8 <__unorddf2+0x10>:
    91e8:	117340        	slli	a7, a3, 12
    91eb:	207720        	or	a7, a7, a2
    91ee:	fef716        	beqz	a7, 91e1 <__unorddf2+0x9>
    91f1:	120c           	movi.n	a2, 1
    91f3:	f01d           	retw.n

000091f5 <__unorddf2+0x1d>:
    91f5:	117540        	slli	a7, a5, 12
    91f8:	207740        	or	a7, a7, a4
    91fb:	fe5716        	beqz	a7, 91e4 <__unorddf2+0xc>
    91fe:	120c           	movi.n	a2, 1
    9200:	f01d           	retw.n

00009202 <__unorddf2+0x2a>:
    9202:	00000000 41360000                                ......

00009208 <__do_global_ctors_aux>:
    9208:	004136        	entry	a1, 32
    920b:	dd2681        	l32r	a8, 6a4 (b294 <fftorder_512_12b+0x214>)
    920e:	7f2882        	l32i	a8, a8, 0x1fc
    9211:	dd2521        	l32r	a2, 6a8 (b490 <__CTOR_LIST___47>)
    9214:	0c0826        	beqi	a8, -1, 9224 <__do_global_ctors_aux+0x1c>
    9217:	02a8           	l32i.n	a10, a2, 0

00009219 <__do_global_ctors_aux+0x11>:
    9219:	000ae0        	callx8	a10
    921c:	fcc222        	addi	a2, a2, -4
    921f:	02a8           	l32i.n	a10, a2, 0
    9221:	f40a66        	bnei	a10, -1, 9219 <__do_global_ctors_aux+0x11>

00009224 <__do_global_ctors_aux+0x1c>:
    9224:	f01d           	retw.n

00009226 <__do_global_ctors_aux+0x1e>:
	...

00009228 <xt_memset>:
    9228:	004136        	entry	a1, 32
    922b:	026d           	mov.n	a6, a2
    922d:	42cc           	bnez.n	a2, 9235 <xt_memset+0xd>
    922f:	020c           	movi.n	a2, 0
    9231:	f01d           	retw.n

00009233 <xt_memset+0xb>:
	...

00009235 <xt_memset+0xd>:
    9235:	029476        	loopnez	a4, 923b <xt_memset+0x13>
    9238:	09c634        	ae_s16ip	a3, a6, 2

0000923b <xt_memset+0x13>:
    923b:	f01d           	retw.n

0000923d <xt_memset+0x15>:
    923d:	000000                                        ...

00009240 <xt_memcpy>:
    9240:	004136        	entry	a1, 32
    9243:	22ac           	beqz.n	a2, 9269 <xt_memcpy+0x29>
    9245:	03ac           	beqz.n	a3, 9269 <xt_memcpy+0x29>
    9247:	0bb327        	bgeu	a3, a2, 9256 <xt_memcpy+0x16>
    924a:	907430        	addx2	a7, a4, a3
    924d:	05b277        	bgeu	a2, a7, 9256 <xt_memcpy+0x16>
    9250:	903420        	addx2	a3, a4, a2
    9253:	0007c6        	j	9276 <xt_memcpy+0x36>

00009256 <xt_memcpy+0x16>:
    9256:	026d           	mov.n	a6, a2
    9258:	000186        	j	9262 <xt_memcpy+0x22>

0000925b <xt_memcpy+0x1b>:
    925b:	235d           	ae_l16si.n	a5, a3, 0
    925d:	09c654        	ae_s16ip	a5, a6, 2
    9260:	332b           	addi.n	a3, a3, 2

00009262 <xt_memcpy+0x22>:
    9262:	440b           	addi.n	a4, a4, -1
    9264:	f30466        	bnei	a4, -1, 925b <xt_memcpy+0x1b>

00009267 <xt_memcpy+0x27>:
    9267:	f01d           	retw.n

00009269 <xt_memcpy+0x29>:
    9269:	020c           	movi.n	a2, 0
    926b:	f01d           	retw.n

0000926d <xt_memcpy+0x2d>:
    926d:	063d           	mov.n	a3, a6
    926f:	fec772        	addi	a7, a7, -2
    9272:	278d           	ae_l16si.n	a8, a7, 0
    9274:	668d           	ae_s16i.n	a8, a6, 0

00009276 <xt_memcpy+0x36>:
    9276:	fec362        	addi	a6, a3, -2
    9279:	440b           	addi.n	a4, a4, -1
    927b:	ee0466        	bnei	a4, -1, 926d <xt_memcpy+0x2d>
    927e:	fff946        	j	9267 <xt_memcpy+0x27>

00009281 <xt_memcpy+0x41>:
    9281:	000000                                        ...

00009284 <__floatunsidf>:
    9284:	002136        	entry	a1, 16
    9287:	32bc           	beqz.n	a2, 92be <__floatsidf+0x2e>
    9289:	070c           	movi.n	a7, 0
    928b:	000346        	j	929c <__floatsidf+0xc>

0000928e <__floatunsidf+0xa>:
	...

00009290 <__floatsidf>:
    9290:	002136        	entry	a1, 16
    9293:	027216        	beqz	a2, 92be <__floatsidf+0x2e>
    9296:	057f20        	extui	a7, a2, 31, 1
    9299:	602120        	abs	a2, a2

0000929c <__floatsidf+0xc>:
    929c:	40f240        	nsau	a4, a2
    929f:	401400        	ssl	a4
    92a2:	a15200        	sll	a5, a2
    92a5:	413b50        	srli	a3, a5, 11
    92a8:	0125b0        	slli	a2, a5, 21
    92ab:	1da452        	movi	a5, 0x41d
    92ae:	c05540        	sub	a5, a5, a4
    92b1:	0155c0        	slli	a5, a5, 20
    92b4:	335a           	add.n	a3, a3, a5
    92b6:	017710        	slli	a7, a7, 31
    92b9:	203370        	or	a3, a3, a7
    92bc:	f01d           	retw.n

000092be <__floatsidf+0x2e>:
    92be:	030c           	movi.n	a3, 0
    92c0:	f01d           	retw.n

000092c2 <__floatsidf+0x32>:
    92c2:	00000000 81360000                                ......

000092c8 <__udivdi3>:
    92c8:	008136        	entry	a1, 64
    92cb:	049d           	mov.n	a9, a4
    92cd:	02ad           	mov.n	a10, a2
    92cf:	038d           	mov.n	a8, a3
    92d1:	0b2c           	movi.n	a11, 32
    92d3:	09b516        	beqz	a5, 9372 <__udivdi3+0xaa>
    92d6:	06b357        	bgeu	a3, a5, 92e0 <__udivdi3+0x18>
    92d9:	020c           	movi.n	a2, 0
    92db:	030c           	movi.n	a3, 0
    92dd:	f01d           	retw.n

000092df <__udivdi3+0x17>:
	...

000092e0 <__udivdi3+0x18>:
    92e0:	40f540        	nsau	a4, a5
    92e3:	1d4416        	beqz	a4, 94bb <__udivdi3+0x1f3>
    92e6:	c02b40        	sub	a2, a11, a4
    92e9:	400200        	ssr	a2
    92ec:	91f030        	srl	a15, a3
    92ef:	401400        	ssl	a4
    92f2:	81c3a0        	src	a12, a3, a10
    92f5:	81b590        	src	a11, a5, a9
    92f8:	9b8d           	ae_zext16	a8, a11
    92fa:	f5d0b0        	extui	a13, a11, 16, 16
    92fd:	404010        	ssai	16
    9300:	c2efd0        	quou	a14, a15, a13
    9303:	0e5d           	mov.n	a5, a14
    9305:	8238e0        	mull	a3, a8, a14
    9308:	e2ffd0        	remu	a15, a15, a13
    930b:	81ffc0        	src	a15, a15, a12
    930e:	0f2d           	mov.n	a2, a15
    9310:	0ebf37        	bgeu	a15, a3, 9322 <__udivdi3+0x5a>
    9313:	5e0b           	addi.n	a5, a14, -1
    9315:	2bfa           	add.n	a2, a11, a15
    9317:	0732b7        	bltu	a2, a11, 9322 <__udivdi3+0x5a>
    931a:	04b237        	bgeu	a2, a3, 9322 <__udivdi3+0x5a>
    931d:	2b2a           	add.n	a2, a11, a2
    931f:	fece52        	addi	a5, a14, -2
    9322:	116500        	slli	a6, a5, 16
    9325:	401400        	ssl	a4
    9328:	c03230        	sub	a3, a2, a3
    932b:	c2e3d0        	quou	a14, a3, a13
    932e:	0e2d           	mov.n	a2, a14
    9330:	a15900        	sll	a5, a9
    9333:	8288e0        	mull	a8, a8, a14
    9336:	e233d0        	remu	a3, a3, a13
    9339:	0bf3c0        	depbits	a12, a3, 16, 16
    933c:	0c3d           	mov.n	a3, a12
    933e:	0ebc87        	bgeu	a12, a8, 9350 <__udivdi3+0x88>
    9341:	2e0b           	addi.n	a2, a14, -1
    9343:	3bca           	add.n	a3, a11, a12
    9345:	0733b7        	bltu	a3, a11, 9350 <__udivdi3+0x88>
    9348:	04b387        	bgeu	a3, a8, 9350 <__udivdi3+0x88>
    934b:	3b3a           	add.n	a3, a11, a3
    934d:	fece22        	addi	a2, a14, -2
    9350:	c03380        	sub	a3, a3, a8
    9353:	202260        	or	a2, a2, a6
    9356:	828250        	mull	a8, a2, a5
    9359:	a25250        	muluh	a5, a2, a5
    935c:	0b3357        	bltu	a3, a5, 936b <__udivdi3+0xa3>
    935f:	c09350        	sub	a9, a3, a5
    9362:	07f956        	bnez	a9, 93e5 <__udivdi3+0x11d>
    9365:	a1ba00        	sll	a11, a10
    9368:	79bb87        	bgeu	a11, a8, 93e5 <__udivdi3+0x11d>

0000936b <__udivdi3+0xa3>:
    936b:	220b           	addi.n	a2, a2, -1
    936d:	030c           	movi.n	a3, 0
    936f:	f01d           	retw.n

00009371 <__udivdi3+0xa9>:
	...

00009372 <__udivdi3+0xaa>:
    9372:	75b347        	bgeu	a3, a4, 93eb <__udivdi3+0x123>
    9375:	40f450        	nsau	a5, a4
    9378:	a58c           	beqz.n	a5, 9386 <__udivdi3+0xbe>
    937a:	401500        	ssl	a5
    937d:	a14400        	sll	a4, a4
    9380:	813320        	src	a3, a3, a2
    9383:	a12200        	sll	a2, a2

00009386 <__udivdi3+0xbe>:
    9386:	945d           	ae_zext16	a5, a4
    9388:	404010        	ssai	16
    938b:	f58040        	extui	a8, a4, 16, 16
    938e:	e2c380        	remu	a12, a3, a8
    9391:	c2b380        	quou	a11, a3, a8
    9394:	0bad           	mov.n	a10, a11
    9396:	81cc20        	src	a12, a12, a2
    9399:	8295b0        	mull	a9, a5, a11
    939c:	0c3d           	mov.n	a3, a12
    939e:	0ebc97        	bgeu	a12, a9, 93b0 <__udivdi3+0xe8>
    93a1:	ab0b           	addi.n	a10, a11, -1
    93a3:	3c4a           	add.n	a3, a12, a4
    93a5:	073347        	bltu	a3, a4, 93b0 <__udivdi3+0xe8>
    93a8:	04b397        	bgeu	a3, a9, 93b0 <__udivdi3+0xe8>
    93ab:	343a           	add.n	a3, a4, a3
    93ad:	fecba2        	addi	a10, a11, -2
    93b0:	c0d390        	sub	a13, a3, a9
    93b3:	c29d80        	quou	a9, a13, a8
    93b6:	093d           	mov.n	a3, a9
    93b8:	825590        	mull	a5, a5, a9
    93bb:	e2dd80        	remu	a13, a13, a8
    93be:	0bfd20        	depbits	a2, a13, 16, 16
    93c1:	16b257        	bgeu	a2, a5, 93db <__udivdi3+0x113>
    93c4:	390b           	addi.n	a3, a9, -1
    93c6:	224a           	add.n	a2, a2, a4
    93c8:	0f3247        	bltu	a2, a4, 93db <__udivdi3+0x113>
    93cb:	0cb257        	bgeu	a2, a5, 93db <__udivdi3+0x113>
    93ce:	112a00        	slli	a2, a10, 16
    93d1:	fec932        	addi	a3, a9, -2
    93d4:	202320        	or	a2, a3, a2
    93d7:	030c           	movi.n	a3, 0
    93d9:	f01d           	retw.n

000093db <__udivdi3+0x113>:
    93db:	112a00        	slli	a2, a10, 16
    93de:	202320        	or	a2, a3, a2
    93e1:	030c           	movi.n	a3, 0
    93e3:	f01d           	retw.n

000093e5 <__udivdi3+0x11d>:
    93e5:	030c           	movi.n	a3, 0
    93e7:	f01d           	retw.n

000093e9 <__udivdi3+0x121>:
	...

000093eb <__udivdi3+0x123>:
    93eb:	130c           	movi.n	a3, 1
    93ed:	c24340        	quou	a4, a3, a4
    93f0:	839490        	moveqz	a9, a4, a9
    93f3:	094d           	mov.n	a4, a9
    93f5:	40f950        	nsau	a5, a9
    93f8:	0dc516        	beqz	a5, 94d8 <__udivdi3+0x210>
    93fb:	401500        	ssl	a5
    93fe:	c0eb50        	sub	a14, a11, a5
    9401:	a14900        	sll	a4, a9
    9404:	400e00        	ssr	a14
    9407:	91d080        	srl	a13, a8
    940a:	401500        	ssl	a5
    940d:	813820        	src	a3, a8, a2
    9410:	945d           	ae_zext16	a5, a4
    9412:	a12200        	sll	a2, a2
    9415:	f58040        	extui	a8, a4, 16, 16
    9418:	404010        	ssai	16
    941b:	c2cd80        	quou	a12, a13, a8
    941e:	0cbd           	mov.n	a11, a12
    9420:	82a5c0        	mull	a10, a5, a12
    9423:	e2dd80        	remu	a13, a13, a8
    9426:	81dd30        	src	a13, a13, a3
    9429:	0d9d           	mov.n	a9, a13
    942b:	0ebda7        	bgeu	a13, a10, 943d <__udivdi3+0x175>
    942e:	bc0b           	addi.n	a11, a12, -1
    9430:	9d4a           	add.n	a9, a13, a4
    9432:	073947        	bltu	a9, a4, 943d <__udivdi3+0x175>
    9435:	04b9a7        	bgeu	a9, a10, 943d <__udivdi3+0x175>
    9438:	949a           	add.n	a9, a4, a9
    943a:	feccb2        	addi	a11, a12, -2
    943d:	c0d9a0        	sub	a13, a9, a10
    9440:	e2ed80        	remu	a14, a13, a8
    9443:	0bfe30        	depbits	a3, a14, 16, 16
    9446:	c2dd80        	quou	a13, a13, a8
    9449:	0dad           	mov.n	a10, a13
    944b:	82c5d0        	mull	a12, a5, a13
    944e:	039d           	mov.n	a9, a3
    9450:	0eb3c7        	bgeu	a3, a12, 9462 <__udivdi3+0x19a>
    9453:	ad0b           	addi.n	a10, a13, -1
    9455:	934a           	add.n	a9, a3, a4
    9457:	073947        	bltu	a9, a4, 9462 <__udivdi3+0x19a>
    945a:	04b9c7        	bgeu	a9, a12, 9462 <__udivdi3+0x19a>
    945d:	949a           	add.n	a9, a4, a9
    945f:	fecda2        	addi	a10, a13, -2
    9462:	c039c0        	sub	a3, a9, a12
    9465:	11fb00        	slli	a15, a11, 16
    9468:	20aaf0        	or	a10, a10, a15

0000946b <__udivdi3+0x1a3>:
    946b:	404010        	ssai	16
    946e:	e2d380        	remu	a13, a3, a8
    9471:	c2c380        	quou	a12, a3, a8
    9474:	0cbd           	mov.n	a11, a12
    9476:	8295c0        	mull	a9, a5, a12
    9479:	81dd20        	src	a13, a13, a2
    947c:	0d3d           	mov.n	a3, a13
    947e:	0ebd97        	bgeu	a13, a9, 9490 <__udivdi3+0x1c8>
    9481:	bc0b           	addi.n	a11, a12, -1
    9483:	3d4a           	add.n	a3, a13, a4
    9485:	073347        	bltu	a3, a4, 9490 <__udivdi3+0x1c8>
    9488:	04b397        	bgeu	a3, a9, 9490 <__udivdi3+0x1c8>
    948b:	343a           	add.n	a3, a4, a3
    948d:	feccb2        	addi	a11, a12, -2
    9490:	c0e390        	sub	a14, a3, a9
    9493:	c29e80        	quou	a9, a14, a8
    9496:	093d           	mov.n	a3, a9
    9498:	825590        	mull	a5, a5, a9
    949b:	e2ee80        	remu	a14, a14, a8
    949e:	0bfe20        	depbits	a2, a14, 16, 16
    94a1:	23b257        	bgeu	a2, a5, 94c8 <__udivdi3+0x200>
    94a4:	390b           	addi.n	a3, a9, -1
    94a6:	224a           	add.n	a2, a2, a4
    94a8:	1c3247        	bltu	a2, a4, 94c8 <__udivdi3+0x200>
    94ab:	19b257        	bgeu	a2, a5, 94c8 <__udivdi3+0x200>
    94ae:	113b00        	slli	a3, a11, 16
    94b1:	fec922        	addi	a2, a9, -2
    94b4:	202230        	or	a2, a2, a3
    94b7:	0a3d           	mov.n	a3, a10
    94b9:	f01d           	retw.n

000094bb <__udivdi3+0x1f3>:
    94bb:	023537        	bltu	a5, a3, 94c1 <__udivdi3+0x1f9>
    94be:	103297        	bltu	a2, a9, 94d2 <__udivdi3+0x20a>

000094c1 <__udivdi3+0x1f9>:
    94c1:	120c           	movi.n	a2, 1
    94c3:	030c           	movi.n	a3, 0
    94c5:	f01d           	retw.n

000094c7 <__udivdi3+0x1ff>:
	...

000094c8 <__udivdi3+0x200>:
    94c8:	112b00        	slli	a2, a11, 16
    94cb:	202320        	or	a2, a3, a2
    94ce:	0a3d           	mov.n	a3, a10
    94d0:	f01d           	retw.n

000094d2 <__udivdi3+0x20a>:
    94d2:	020c           	movi.n	a2, 0
    94d4:	030c           	movi.n	a3, 0
    94d6:	f01d           	retw.n

000094d8 <__udivdi3+0x210>:
    94d8:	03ad           	mov.n	a10, a3
    94da:	995d           	ae_zext16	a5, a9
    94dc:	c03890        	sub	a3, a8, a9
    94df:	f58090        	extui	a8, a9, 16, 16
    94e2:	ffe146        	j	946b <__udivdi3+0x1a3>

000094e5 <__udivdi3+0x21d>:
    94e5:	000000                                        ...

000094e8 <_fini>:
    94e8:	008136        	entry	a1, 64
    94eb:	dc7081        	l32r	a8, 6ac (6c8 <__do_global_dtors_aux>)
    94ee:	f03d           	nop.n
    94f0:	0008e0        	callx8	a8

000094f3 <_fini+0xb>:
    94f3:	f01d           	retw.n
