
Build/lib/pisplit_ecnr_position_independent.splitload.lib:     file format elf32-xtensa-le


Disassembly of section .text:

00000000 <_init-0x6b0>:
       0:	00000704 00009208 0000be10 0000b4a4     ................
      10:	00000000 0000b48c 00000000 0000be14     ................
      20:	0000be2c 0000a1c0 00002b50 0000a1dc     ,.......P+......
      30:	00002c68 0000a1f4 0000349c 0000a20c     h,.......4......
      40:	00003f24 0000a228 0000621c 0000a23c     $?..(....b..<...
      50:	00003e74 0000a254 00005f30 0000a268     t>..T...0_..h...
      60:	00003ecc 0000a280 00003f94 0000a2a0     .>.......?......
      70:	00005a84 0000a2bc 00009038 0000a2cc     .Z......8.......
      80:	00002b58 0000a2e8 00003fe8 0000a30c     X+.......?......
      90:	00002b48 0000b4b0 0000bb75 00001930     H+......u...0...
      a0:	000008b8 0000be30 89442379 0000b880     ....0...y#D.....
      b0:	0000b580 7fffffff 0000b5f0 80000000     ................
      c0:	00008000 00009228 0000be38 00009240     ....(...8...@...
      d0:	000a0000 dacccccd 00000960 00009290     ........`.......
      e0:	fc000000 c1600000 00009174 00b33333     ......`.t...33..
      f0:	ff4ccccd 00800000 00009054 7fff0000     ..L.....T.......
     100:	7e1401ec 7fe70019 000043d4 0000b860     ...~.....C..`...
     110:	00004000 00005b33 00000a48 33334ccd     .@..3[..H....L33
     120:	00147ae1 00000900 00002168 00010000     .z......h!......
     130:	00078000 002ccccd 00466666 00533333     ......,.ffF.33S.
     140:	005851ec 005ae148 005ccccd 00600000     .QX.H.Z...\...`.
     150:	fffe0000 0000828f 00030000 00020000     ................
     160:	0000c148 004ccccd 006ccccd 0059999a     H.....L...l...Y.
     170:	0070a3d7 00733333 00003fff 00000fb8     ..p.33s..?......
     180:	0039999a 005d70a4 00014000 00666666     ..9..p]..@..fff.
     190:	007e147b 00100000 007fbe77 000ccccd     {.~.....w.......
     1a0:	00005514 000054d0 00001418 000aaaab     .U...T..........
     1b0:	000092c8 000054f8 0000091c 05000000     .....T..........
     1c0:	00002078 0c000000 01000000 00435e51     x ..........Q^C.
     1d0:	0099999a 00cccccd 0159999a 13ffffff     ..........Y.....
     1e0:	02000000 0a8f5c28 2eb851ec 1f000000     ....(\...Q......
     1f0:	0bffffff 005a8200 c28f0000 cccd0000     ......Z.........
     200:	00400000 0ccd0000 e6660000 f3330000     ..@.......f...3.
     210:	199a0000 33330000 3d710000 0000fff7     ......33..q=....
     220:	00002440 00002428 00001928 00007fff     @$..($..(.......
     230:	00200000 002aaa00 0000b4f0 0000b4f4     .. ...*.........
     240:	00080000 000081c0 000080b8 000024b8     .............$..
     250:	00002514 0000b508 00002598 00007100     .%.......%...q..
     260:	00008f54 00002bd4 00001834 00002b80     T....+..4....+..
     270:	00002b94 0000223c 00005fc4 00002ba8     .+..<"..._...+..
     280:	0000be34 00002000 000040e8 0000595c     4.... ...@..\Y..
     290:	00002c44 0000b70c 0000b700 0000b520     D,.......... ...
     2a0:	0000b71c 0000b75c 0000b7a0 0000b720     ....\....... ...
     2b0:	00001a24 00001a26 00001a28 00001a2a     $...&...(...*...
     2c0:	007fffff 00011111 00004d10 00006f70     .........M..po..
     2d0:	000033c8 00002df0 00002f4c 00002e6c     .3...-..L/..l...
     2e0:	00002fc8 000030fc 00003160 0000264c     ./...0..`1..L&..
     2f0:	00002884 0000317c 00003074 00002edc     .(..|1..t0......
     300:	000044ac 0000475c 00003288 00004a20     .D..\G...2.. J..
     310:	000048d0 00004e00 0000339c 00004f74     .H...N...3..tO..
     320:	00002c08 00005304 00005474 0000329c     .,...S..tT...2..
     330:	00004ca0 00002b04 000023f0 00006004     .L...+...#...`..
     340:	00003324 00001830 000032b8 00002f90     $3..0....2.../..
     350:	00007020 0000625c 00003e60 00005f74      p..\b..`>..t_..
     360:	10000000 00001000 00004080 0000b50c     .........@......
     370:	40000000 0e390000 3eb80000 18000000     ...@..9....>....
     380:	0d330000 00006000 00001770 00004090     ..3..`..p....@..
     390:	000040d4 000040ac 00006398 ffff8000     .@...@...c......
     3a0:	000ccccc 00393e4b 00155555 00175e97     ....K>9.UU...^..
     3b0:	00003ff8 0000489c 00004450 000043f4     .?...H..PD...C..
     3c0:	3fff0000 c0010000 0000b528 0000b518     ...?....(.......
     3d0:	00006ccd 0000b51c 00007efa 00000fff     .l.......~......
     3e0:	0000b510 00007e00 00004666 00003b00     .....~..fF...;..
     3f0:	00004a3d 000043d7 00007fae 00000800     =J...C..........
     400:	000055aa 00007080 000057d4 00007070     .U...p...W..pp..
     410:	00005a5a 00005894 00003f24 00007f80     ZZ...X..$?......
     420:	0000a4a0 0000a320 0000a6b0 0000a900     .... ...........
     430:	0000a740 0000ab10 0000ab60 0000ad40     @.......`...@...
     440:	0000af50 007fff00 00000a88 00005b64     P...........d[..
     450:	00005b28 00005b54 0000b8c0 00005b74     ([..T[......t[..
     460:	0000bae0 ffffb800 b8000000 00000970     ............p...
     470:	00008fdc 00005cd0 0000705c 00001a38     .....\..\p..8...
     480:	000071f0 00001a90 000073b0 000074dc     .q.......s...t..
     490:	00007814 00007934 00007c14 000007d8     .x..4y...|......
     4a0:	00007ef8 0000bd00 00006088 000062ac     .~.......`...b..
     4b0:	00038e39 00035e51 0000b082 00008978     9...Q^......x...
     4c0:	7f5c00a4 7ff00010 00008c28 20000000     ..\.....(...... 
     4d0:	04000000 0000b782 00007c28 00007998     ........(|...y..
     4e0:	0000e666 000071c8 0000b872 1b333333     f....q..r...333.
     4f0:	2666599a 46666666 007ccccd 1e666666     .Yf&fffF..|.fff.
     500:	30000000 7ccd0333 00007000 23333333     ...03..|.p..333#
     510:	40004000 7eb80148 00333333 6666199a     .@.@H..~333...ff
     520:	1ccccccd 00005000 599a2666 00266666     .....P..f&.Yff&.
     530:	00001999 00003333 7fbe0042 7f1b00e5     ....33..B.......
     540:	00006300 6ccd1333 5999999a 799a0666     .c..3..l...Yf..y
     550:	00500000 034ccccd fe800000 003fffff     ..P...L.......?.
     560:	ffa66666 50000000 0000b780 ff800000     ff.....P........
     570:	01eb851f 0059999b 04cccccd 0000228e     ......Y......"..
     580:	00000999 0000b560 00480000 0000e000     ....`.....H.....
     590:	00007666 000064d4 00007638 75c30a3d     fv...d..8v..=..u
     5a0:	00006350 0000b084 0000b088 0000b8b0     Pc..............
     5b0:	0000b56c 0000b568 000e38e4 0000b8a0     l...h....8......
     5c0:	00124925 00000a98 00000fa8 000079e8     %I...........y..
     5d0:	00007a04 00007afc 80000001 00005a82     .z...z.......Z..
     5e0:	000083e4 0000af7c 00008258 000081e0     ....|...X.......
     5f0:	00008410 000085f4 00008620 00008650     ........ ...P...
     600:	000086a8 0000867c 0000af80 0000871c     ....|...........
     610:	000086f0 00008944 000088d0 003eb852     ....D.......R.>.
     620:	00333334 00266667 0019999a 0000599a     433.gf&......Y..
     630:	ffc147ae ffcccccc ffd99999 ffe66666     .G..........ff..
     640:	fff33333 ffe00000 ffc00000 06400000     33............@.
     650:	016db22c 00028f5d 0effffff 077fffff     ,.m.]...........
     660:	0021eb86 11000000 15000000 00666667     ..!.........gff.
     670:	cb333333 00008c10 fb333333 f4000000     333.....333.....
     680:	04cccccc 00008a20 13000000 00008ad8     .... ...........
     690:	00008b50 0399999a 02999999 00008ee8     P...............
     6a0:	7ff00000 0000b294 0000b490 000006c8     ................

000006b0 <_init>:
     6b0:	008136        	entry	a1, 64
     6b3:	fe5381        	l32r	a8, 0 (704 <frame_dummy>)
     6b6:	f03d           	nop.n
     6b8:	0008e0        	callx8	a8
     6bb:	fe5281        	l32r	a8, 4 (9208 <__do_global_ctors_aux>)
     6be:	f03d           	nop.n
     6c0:	0008e0        	callx8	a8
     6c3:	f01d           	retw.n

000006c5 <_init+0x15>:
     6c5:	000000                                        ...

000006c8 <__do_global_dtors_aux>:
     6c8:	004136        	entry	a1, 32
     6cb:	fe4f31        	l32r	a3, 8 (be10 <__bss_start>)
     6ce:	000382        	l8ui	a8, a3, 0
     6d1:	d8ec           	bnez.n	a8, 702 <__do_global_dtors_aux+0x3a>
     6d3:	fe4e21        	l32r	a2, c (b4a4 <p$3519_6_1>)
     6d6:	02b8           	l32i.n	a11, a2, 0
     6d8:	0ba8           	l32i.n	a10, a11, 0
     6da:	ca8c           	beqz.n	a10, 6ea <__do_global_dtors_aux+0x22>

000006dc <__do_global_dtors_aux+0x14>:
     6dc:	9b4b           	addi.n	a9, a11, 4
     6de:	0299           	s32i.n	a9, a2, 0
     6e0:	000ae0        	callx8	a10
     6e3:	02b8           	l32i.n	a11, a2, 0
     6e5:	0ba8           	l32i.n	a10, a11, 0
     6e7:	ff1a56        	bnez	a10, 6dc <__do_global_dtors_aux+0x14>

000006ea <__do_global_dtors_aux+0x22>:
     6ea:	fe49a1        	l32r	a10, 10 (0 <_text_start>)
     6ed:	0b0c           	movi.n	a11, 0
     6ef:	081ab7        	beq	a10, a11, 6fb <__do_global_dtors_aux+0x33>
     6f2:	fe48a1        	l32r	a10, 14 (b48c <__EH_FRAME_BEGIN___44>)
     6f5:	fe4681        	l32r	a8, 10 (0 <_text_start>)
     6f8:	0008e0        	callx8	a8

000006fb <__do_global_dtors_aux+0x33>:
     6fb:	1c0c           	movi.n	a12, 1
     6fd:	0043c2        	s8i	a12, a3, 0
     700:	f01d           	retw.n

00000702 <__do_global_dtors_aux+0x3a>:
     702:	f01d           	retw.n

00000704 <frame_dummy>:
     704:	004136        	entry	a1, 32
     707:	fe4481        	l32r	a8, 18 (0 <_text_start>)
     70a:	090c           	movi.n	a9, 0
     70c:	0b1897        	beq	a8, a9, 71b <frame_dummy+0x17>
     70f:	fe41a1        	l32r	a10, 14 (b48c <__EH_FRAME_BEGIN___44>)
     712:	fe42b1        	l32r	a11, 1c (be14 <object$3538_8_1>)
     715:	fe4081        	l32r	a8, 18 (0 <_text_start>)
     718:	0008e0        	callx8	a8

0000071b <frame_dummy+0x17>:
     71b:	f01d           	retw.n

0000071d <frame_dummy+0x19>:
     71d:	000000                                        ...

00000720 <_start>:
     720:	004136        	entry	a1, 32
     723:	fe40a1        	l32r	a10, 24 (a1c0 <_DYNAMIC+0xcc0>)
     726:	fe3e31        	l32r	a3, 20 (be2c <printf_ptr>)
     729:	0288           	l32i.n	a8, a2, 0
     72b:	fe3fb1        	l32r	a11, 28 (2b50 <get_aec_nr_memsize>)
     72e:	0389           	s32i.n	a8, a3, 0
     730:	0008e0        	callx8	a8
     733:	0388           	l32i.n	a8, a3, 0
     735:	fe3da1        	l32r	a10, 2c (a1dc <_DYNAMIC+0xcdc>)
     738:	fe3eb1        	l32r	a11, 30 (2c68 <Voice_WB_TX_Init>)
     73b:	0008e0        	callx8	a8
     73e:	0388           	l32i.n	a8, a3, 0
     740:	fe3da1        	l32r	a10, 34 (a1f4 <_DYNAMIC+0xcf4>)
     743:	fe3db1        	l32r	a11, 38 (349c <Voice_WB_TX_Prcs>)
     746:	0008e0        	callx8	a8
     749:	0388           	l32i.n	a8, a3, 0
     74b:	fe3ca1        	l32r	a10, 3c (a20c <_DYNAMIC+0xd0c>)
     74e:	fe3cb1        	l32r	a11, 40 (3f24 <EC_REF_GAIN_READBACK>)
     751:	0008e0        	callx8	a8
     754:	0388           	l32i.n	a8, a3, 0
     756:	fe3ba1        	l32r	a10, 44 (a228 <_DYNAMIC+0xd28>)
     759:	fe3bb1        	l32r	a11, 48 (621c <NB_RX_NR_init>)
     75c:	0008e0        	callx8	a8
     75f:	0388           	l32i.n	a8, a3, 0
     761:	fe3aa1        	l32r	a10, 4c (a23c <_DYNAMIC+0xd3c>)
     764:	fe3bb1        	l32r	a11, 50 (3e74 <Voice_NB_RX_Prcs>)
     767:	0008e0        	callx8	a8
     76a:	0388           	l32i.n	a8, a3, 0
     76c:	fe3aa1        	l32r	a10, 54 (a254 <_DYNAMIC+0xd54>)
     76f:	fe3ab1        	l32r	a11, 58 (5f30 <WB_RX_NR_init>)
     772:	0008e0        	callx8	a8
     775:	0388           	l32i.n	a8, a3, 0
     777:	fe39a1        	l32r	a10, 5c (a268 <_DYNAMIC+0xd68>)
     77a:	fe39b1        	l32r	a11, 60 (3ecc <Voice_WB_RX_Prcs>)
     77d:	0008e0        	callx8	a8
     780:	0388           	l32i.n	a8, a3, 0
     782:	fe38a1        	l32r	a10, 64 (a280 <_DYNAMIC+0xd80>)
     785:	fe38b1        	l32r	a11, 68 (3f94 <EC_PreLim_Coef_READBACK>)
     788:	0008e0        	callx8	a8
     78b:	0388           	l32i.n	a8, a3, 0
     78d:	fe37a1        	l32r	a10, 6c (a2a0 <_DYNAMIC+0xda0>)
     790:	fe38b1        	l32r	a11, 70 (5a84 <AEC_NR_Write_FLASH>)
     793:	0008e0        	callx8	a8
     796:	0388           	l32i.n	a8, a3, 0
     798:	fe37a1        	l32r	a10, 74 (a2bc <_DYNAMIC+0xdbc>)
     79b:	fe37b1        	l32r	a11, 78 (9038 <EQ_update>)
     79e:	0008e0        	callx8	a8
     7a1:	0388           	l32i.n	a8, a3, 0
     7a3:	fe36a1        	l32r	a10, 7c (a2cc <_DYNAMIC+0xdcc>)
     7a6:	fe36b1        	l32r	a11, 80 (2b58 <get_txnr_pitch_last>)
     7a9:	0008e0        	callx8	a8
     7ac:	0388           	l32i.n	a8, a3, 0
     7ae:	fe35a1        	l32r	a10, 84 (a2e8 <_DYNAMIC+0xde8>)
     7b1:	fe35b1        	l32r	a11, 88 (3fe8 <DaulMIC_power_Coef_READBACK>)
     7b4:	0008e0        	callx8	a8
     7b7:	0388           	l32i.n	a8, a3, 0
     7b9:	fe34a1        	l32r	a10, 8c (a30c <_DYNAMIC+0xe0c>)
     7bc:	fe35b1        	l32r	a11, 90 (2b48 <get_ECNR_SVN>)
     7bf:	0008e0        	callx8	a8
     7c2:	fe3421        	l32r	a2, 94 (b4b0 <export_parameter_array>)
     7c5:	f01d           	retw.n

000007c7 <_start+0xa7>:
	...

000007c8 <my_rand>:
     7c8:	004136        	entry	a1, 32
     7cb:	fe3331        	l32r	a3, 98 (bb75 <win_rx_512_v3+0x95>)
     7ce:	d12230        	mul16s	a2, a2, a3
     7d1:	822d           	ae_sext16	a2, a2
     7d3:	f01d           	retw.n

000007d5 <my_rand+0xd>:
     7d5:	000000                                        ...

000007d8 <comfort_noise_gen_wb>:
     7d8:	008136        	entry	a1, 64
     7db:	1129           	s32i.n	a2, a1, 4
     7dd:	fcc3a2        	addi	a10, a3, -4
     7e0:	380c           	movi.n	a8, 3
     7e2:	0bd292        	addmi	a9, a2, 0xb00
     7e5:	fc20a7d99e 	{ l16si	a9, a9, 250; ae_zerop48	aep0 }
     7ea:	02a876        	loopgtz	a8, 7f0 <comfort_noise_gen_wb+0x18>
     7ed:	468a14        	ae_sp16x2f.iu	aep0, a10, 4

000007f0 <comfort_noise_gen_wb+0x18>:
     7f0:	0199           	s32i.n	a9, a1, 0
     7f2:	fe2a71        	l32r	a7, 9c (1930 <Pitch_by_Corel+0x518>)
     7f5:	1188           	l32i.n	a8, a1, 4
     7f7:	030c           	movi.n	a3, 0
     7f9:	5a2b           	addi.n	a5, a10, 2
     7fb:	06d822        	addmi	a2, a8, 0x600
     7fe:	02d842        	addmi	a4, a8, 0x200
     801:	11d862        	addmi	a6, a8, 0x1100
     804:	c4c662        	addi	a6, a6, -60
     807:	74c442        	addi	a4, a4, 116
     80a:	14d882        	addmi	a8, a8, 0x1400
     80d:	4028b2        	l32i	a11, a8, 0x100
     810:	360b34        	ae_cvtq48a32s	aeq0, a11
     813:	f94202c22e 	{ addi	a2, a2, 44; ae_truncp24q48x2	aep2, aeq0, aeq0 }
     818:	f88800888e 	{ addi	a8, a8, 8; ae_mulfq32sp24s.l	aeq0, aeq0, aep2 }
     81d:	2189           	s32i.n	a8, a1, 8
     81f:	f84277212f 	{ ae_sp24x2s.i	aep2, a1, 16; ae_truncp24q48x2	aep1, aeq0, aeq0 }
     824:	561134        	ae_sp24x2s.i	aep1, a1, 24

00000827 <comfort_noise_gen_wb+0x4f>:
     827:	fe1e81        	l32r	a8, a0 (8b8 <HIFI_sqrt>)
     82a:	01a8           	l32i.n	a10, a1, 0
     82c:	7f24b2        	l32i	a11, a4, 0x1fc
     82f:	0008e0        	callx8	a8
     832:	fe1cd1        	l32r	a13, a4 (be30 <p_ecnr_mem>)
     835:	444b           	addi.n	a4, a4, 4
     837:	2198           	l32i.n	a9, a1, 8
     839:	0de8           	l32i.n	a14, a13, 0
     83b:	0bfd           	mov.n	a15, a11
     83d:	fe1ab1        	l32r	a11, a8 (89442379 <_end+0x8943653d>)
     840:	ee7a           	add.n	a14, a14, a7
     842:	7f9ec2        	l16si	a12, a14, 254
     845:	360f34        	ae_cvtq48a32s	aeq0, a15
     848:	819992        	l16si	a9, a9, 0x102
     84b:	82bcb0        	mull	a11, a12, a11
     84e:	7f5eb2        	s16i	a11, a14, 254
     851:	408614        	ae_lp16f.iu	aep0, a6, 2
     854:	1f2397        	blt	a3, a9, 877 <comfort_noise_gen_wb+0x9f>
     857:	11f8           	l32i.n	a15, a1, 4
     859:	350ff2        	l8ui	a15, a15, 53
     85c:	fe1481        	l32r	a8, ac (b880 <wb_sb_ptn>)
     85f:	14a3f7        	bge	a3, a15, 877 <comfort_noise_gen_wb+0x9f>
     862:	089882        	l16si	a8, a8, 16
     865:	543124        	ae_lp24x2.i	aep3, a1, 16
     868:	544134        	ae_lp24x2.i	aep4, a1, 24
     86b:	05a387        	bge	a3, a8, 874 <comfort_noise_gen_wb+0x9c>
     86e:	083524        	ae_mulfq32sp24s.l	aeq0, aeq0, aep3
     871:	000086        	j	877 <comfort_noise_gen_wb+0x9f>

00000874 <comfort_noise_gen_wb+0x9c>:
     874:	084524        	ae_mulfq32sp24s.l	aeq0, aeq0, aep4
     877:	fe0891        	l32r	a9, 98 (bb75 <win_rx_512_v3+0x95>)
     87a:	829c90        	mull	a9, a12, a9
     87d:	3079b4        	ae_cvtp24a16x2.ll	aep7, a9, a11
     880:	037a14        	ae_mulfq32sp16s.l	aeq1, aeq0, aep7
     883:	03fa04        	ae_mulfq32sp16s.h	aeq3, aeq0, aep7
     886:	030a54        	ae_mulfq32sp16s.l	aeq1, aeq1, aep0
     889:	038ad4        	ae_mulfq32sp16s.l	aeq3, aeq3, aep0
     88c:	fc24fe9a8f 	{ ae_slaasq56s	aeq2, aeq1, a10; nop }
     891:	fc24feba4f 	{ ae_slaasq56s	aeq1, aeq3, a10; nop }
     896:	fbf380133e 	{ addi	a3, a3, 1; ae_roundsp16q48sym	aep6, aeq2 }
     89b:	faebf2e51f 	{ ae_sp16f.l.iu	aep6, a5, 2; ae_roundsp16q48sym	aep5, aeq1 }
     8a0:	42d514        	ae_sp16f.l.iu	aep5, a5, 2
     8a3:	809427        	bne	a4, a2, 827 <comfort_noise_gen_wb+0x4f>
     8a6:	fec5a2        	addi	a10, a5, -2
     8a9:	fc20800fbf 	{ movi	a11, 15; ae_zerop48	aep0 }
     8ae:	02ab76        	loopgtz	a11, 8b4 <comfort_noise_gen_wb+0xdc>
     8b1:	468a14        	ae_sp16x2f.iu	aep0, a10, 4

000008b4 <comfort_noise_gen_wb+0xdc>:
     8b4:	f01d           	retw.n

000008b6 <comfort_noise_gen_wb+0xde>:
	...

000008b8 <HIFI_sqrt>:
     8b8:	006136        	entry	a1, 48
     8bb:	035d           	mov.n	a5, a3
     8bd:	030c           	movi.n	a3, 0
     8bf:	1139           	s32i.n	a3, a1, 4
     8c1:	0139           	s32i.n	a3, a1, 0
     8c3:	0715e6        	bgei	a5, 1, 8ce <HIFI_sqrt+0x16>
     8c6:	0139           	s32i.n	a3, a1, 0

000008c8 <HIFI_sqrt+0x10>:
     8c8:	1139           	s32i.n	a3, a1, 4
     8ca:	0128           	l32i.n	a2, a1, 0
     8cc:	f01d           	retw.n

000008ce <HIFI_sqrt+0x16>:
     8ce:	fdf881        	l32r	a8, b0 (b580 <TABLE_SQRT>)
     8d1:	40e5a0        	nsa	a10, a5
     8d4:	c042a0        	sub	a4, a2, a10
     8d7:	401a00        	ssl	a10
     8da:	a19500        	sll	a9, a5
     8dd:	046040        	extui	a6, a4, 0, 1
     8e0:	400600        	ssr	a6
     8e3:	b19090        	sra	a9, a9
     8e6:	419990        	srli	a9, a9, 9
     8e9:	317090        	srai	a7, a9, 16
     8ec:	300994        	ae_cvtp24a16x2.ll	aep0, a9, a9
     8ef:	f0c772        	addi	a7, a7, -16
     8f2:	537730        	max	a7, a7, a3
     8f5:	907780        	addx2	a7, a7, a8
     8f8:	278d           	ae_l16si.n	a8, a7, 0
     8fa:	377d           	ae_l16si.n	a7, a7, 2
     8fc:	346a           	add.n	a3, a4, a6
     8fe:	213130        	srai	a3, a3, 1
     901:	c07780        	sub	a7, a7, a8
     904:	118800        	slli	a8, a8, 16
     907:	117700        	slli	a7, a7, 16
     90a:	364734        	ae_cvtq48a32s	aeq1, a7
     90d:	360834        	ae_cvtq48a32s	aeq0, a8
     910:	030174        	ae_mulaq32sp16u.l	aeq0, aeq1, aep0
     913:	0139           	s32i.n	a3, a1, 0
     915:	368304        	ae_trunca32q48	a3, aeq0
     918:	ffeb06        	j	8c8 <HIFI_sqrt+0x10>

0000091b <HIFI_sqrt+0x63>:
	...

0000091c <Log2_norm>:
     91c:	004136        	entry	a1, 32
     91f:	3212a6        	blti	a2, 1, 955 <Log2_norm+0x39>
     922:	046c           	movi.n	a4, -32
     924:	2da437        	bge	a4, a3, 955 <Log2_norm+0x39>
     927:	052c           	movi.n	a5, 32
     929:	04a537        	bge	a5, a3, 931 <Log2_norm+0x15>
     92c:	fde221        	l32r	a2, b4 (7fffffff <_end+0x7fff41c3>)
     92f:	f01d           	retw.n

00000931 <Log2_norm+0x15>:
     931:	fde141        	l32r	a4, b8 (b5f0 <TABLE_LOG2_1530>)
     934:	558820        	extui	a8, a2, 24, 6
     937:	1188e0        	slli	a8, a8, 2
     93a:	603484        	ae_lq32f.xu	aeq0, a4, a8
     93d:	604414        	ae_lq32f.i	aeq1, a4, 4
     940:	f92ae2022f 	{ ae_movpa24x2	aep0, a2, a2; ae_subq56	aeq1, aeq1, aeq0 }
     945:	030174        	ae_mulaq32sp16u.l	aeq0, aeq1, aep0
     948:	368204        	ae_trunca32q48	a2, aeq0
     94b:	014360        	slli	a4, a3, 26
     94e:	212520        	srai	a2, a2, 5
     951:	224a           	add.n	a2, a2, a4
     953:	f01d           	retw.n

00000955 <Log2_norm+0x39>:
     955:	fdd921        	l32r	a2, bc (80000000 <_end+0x7fff41c4>)
     958:	f01d           	retw.n

0000095a <Log2_norm+0x3e>:
     95a:	00000000 41360000                                ......

00000960 <COMPL_S16x2_fun>:
     960:	004136        	entry	a1, 32
     963:	fdd731        	l32r	a3, c0 (8000 <ifft_wo+0x108>)
     966:	c03320        	sub	a3, a3, a2
     969:	113300        	slli	a3, a3, 16
     96c:	223a           	add.n	a2, a2, a3
     96e:	f01d           	retw.n

00000970 <PD_INIT>:
     970:	004136        	entry	a1, 32
     973:	fdcc41        	l32r	a4, a4 (be30 <p_ecnr_mem>)
     976:	0b0c           	movi.n	a11, 0
     978:	0438           	l32i.n	a3, a4, 0
     97a:	f0a2c2        	movi	a12, 0x2f0
     97d:	fdd181        	l32r	a8, c4 (9228 <xt_memset>)
     980:	55d332        	addmi	a3, a3, 0x5500
     983:	d0c332        	addi	a3, a3, -48
     986:	03ad           	mov.n	a10, a3
     988:	0008e0        	callx8	a8
     98b:	fdcf51        	l32r	a5, c8 (be38 <aec_nr_para>)
     98e:	03ad           	mov.n	a10, a3
     990:	05b8           	l32i.n	a11, a5, 0
     992:	7c0c           	movi.n	a12, 7
     994:	fdce81        	l32r	a8, cc (9240 <xt_memcpy>)
     997:	01dbb2        	addmi	a11, a11, 0x100
     99a:	a4cbb2        	addi	a11, a11, -92
     99d:	0008e0        	callx8	a8
     9a0:	fdcc81        	l32r	a8, d0 (a0000 <_end+0x941c4>)
     9a3:	03d3c2        	addmi	a12, a3, 0x300
     9a6:	0578           	l32i.n	a7, a5, 0
     9a8:	05d3f2        	addmi	a15, a3, 0x500
     9ab:	01d3b2        	addmi	a11, a3, 0x100
     9ae:	02d392        	addmi	a9, a3, 0x200
     9b1:	58c992        	addi	a9, a9, 88
     9b4:	38cba2        	addi	a10, a11, 56
     9b7:	ff8b           	addi.n	a15, a15, 8
     9b9:	58cbb2        	addi	a11, a11, 88
     9bc:	c79752        	l16si	a5, a7, 0x18e
     9bf:	c89762        	l16si	a6, a7, 0x190
     9c2:	085362        	s16i	a6, a3, 16
     9c5:	075352        	s16i	a5, a3, 14
     9c8:	160c           	movi.n	a6, 1
     9ca:	04d352        	addmi	a5, a3, 0x400
     9cd:	f26af2        	s32i	a15, a10, 0x3c8
     9d0:	a8c5d2        	addi	a13, a5, -88
     9d3:	50c5e2        	addi	a14, a5, 80
     9d6:	f46a92        	s32i	a9, a10, 0x3d0
     9d9:	f56ac2        	s32i	a12, a10, 0x3d4
     9dc:	0b9d           	mov.n	a9, a11
     9de:	8c2c           	movi.n	a12, 40
     9e0:	f76ae2        	s32i	a14, a10, 0x3dc
     9e3:	f66ad2        	s32i	a13, a10, 0x3d8
     9e6:	956382        	s32i	a8, a3, 0x254
     9e9:	556382        	s32i	a8, a3, 0x154
     9ec:	fdb2a1        	l32r	a10, b4 (7fffffff <_end+0x7fff41c3>)
     9ef:	8c5562        	s16i	a6, a5, 0x118
     9f2:	68c552        	addi	a5, a5, 104
     9f5:	02ac76        	loopgtz	a12, 9fb <PD_INIT+0x8b>
     9f8:	09e9a4        	ae_s32ip	a10, a9, 4

000009fb <PD_INIT+0x8b>:
     9fb:	3c0c           	movi.n	a12, 3
     9fd:	fdb381        	l32r	a8, cc (9240 <xt_memcpy>)
     a00:	779792        	l16si	a9, a7, 238
     a03:	7697d2        	l16si	a13, a7, 236
     a06:	060c           	movi.n	a6, 0
     a08:	04f8           	l32i.n	a15, a4, 0
     a0a:	2765b2        	s32i	a11, a5, 156
     a0d:	06d3a2        	addmi	a10, a3, 0x600
     a10:	d0caa2        	addi	a10, a10, -48
     a13:	01d7b2        	addmi	a11, a7, 0x100
     a16:	f2cbb2        	addi	a11, a11, -14
     a19:	29dfe2        	addmi	a14, a15, 0x2900
     a1c:	b8cee2        	addi	a14, a14, -72
     a1f:	19dff2        	addmi	a15, a15, 0x1900
     a22:	9a5f62        	s16i	a6, a15, 0x134
     a25:	596f22        	s32i	a2, a15, 0x164
     a28:	5a6fe2        	s32i	a14, a15, 0x168
     a2b:	b055d2        	s16i	a13, a5, 0x160
     a2e:	b15592        	s16i	a9, a5, 0x162
     a31:	0008e0        	callx8	a8
     a34:	0cd282        	addmi	a8, a2, 0xc00
     a37:	08d292        	addmi	a9, a2, 0x800
     a3a:	566592        	s32i	a9, a5, 0x158
     a3d:	b8c882        	addi	a8, a8, -72
     a40:	556582        	s32i	a8, a5, 0x154
     a43:	f01d           	retw.n

00000a45 <PD_INIT+0xd5>:
     a45:	000000                                        ...

00000a48 <wind_noise_alpha>:
     a48:	004136        	entry	a1, 32
     a4b:	fd9d81        	l32r	a8, c0 (8000 <ifft_wo+0x108>)
     a4e:	949d           	ae_zext16	a9, a4
     a50:	957d           	ae_zext16	a7, a5
     a52:	827670        	mull	a7, a6, a7
     a55:	829690        	mull	a9, a6, a9
     a58:	f47e70        	extui	a7, a7, 14, 16
     a5b:	f49e90        	extui	a9, a9, 14, 16
     a5e:	c0a890        	sub	a10, a8, a9
     a61:	11aa00        	slli	a10, a10, 16
     a64:	c08870        	sub	a8, a8, a7
     a67:	118800        	slli	a8, a8, 16
     a6a:	59aa           	add.n	a5, a9, a10
     a6c:	678a           	add.n	a6, a7, a8
     a6e:	982c           	movi.n	a8, 41
     a70:	0c13a6        	blti	a3, 1, a80 <wind_noise_alpha+0x38>
     a73:	024d           	mov.n	a4, a2
     a75:	02a376        	loopgtz	a3, a7b <wind_noise_alpha+0x33>
     a78:	09e454        	ae_s32ip	a5, a4, 4

00000a7b <wind_noise_alpha+0x33>:
     a7b:	0000c6        	j	a82 <wind_noise_alpha+0x3a>

00000a7e <wind_noise_alpha+0x36>:
	...

00000a80 <wind_noise_alpha+0x38>:
     a80:	030c           	movi.n	a3, 0

00000a82 <wind_noise_alpha+0x3a>:
     a82:	0d2837        	blt	a8, a3, a93 <wind_noise_alpha+0x4b>
     a85:	a04320        	addx4	a4, a3, a2
     a88:	a92c           	movi.n	a9, 42
     a8a:	c09930        	sub	a9, a9, a3
     a8d:	02a976        	loopgtz	a9, a93 <wind_noise_alpha+0x4b>
     a90:	09e464        	ae_s32ip	a6, a4, 4

00000a93 <wind_noise_alpha+0x4b>:
     a93:	f01d           	retw.n

00000a95 <wind_noise_alpha+0x4d>:
     a95:	000000                                        ...

00000a98 <PD_Noise_Est>:
     a98:	00a136        	entry	a1, 80
     a9b:	9129           	s32i.n	a2, a1, 36
     a9d:	380c           	movi.n	a8, 3
     a9f:	fd81b1        	l32r	a11, a4 (be30 <p_ecnr_mem>)
     aa2:	14d272        	addmi	a7, a2, 0x1400
     aa5:	3a2792        	l32i	a9, a7, 232
     aa8:	fcc772        	addi	a7, a7, -4
     aab:	002ba2        	l32i	a10, a11, 0
     aae:	10c992        	addi	a9, a9, 16
     ab1:	601914        	ae_lq32f.iu	aeq0, a9, 4
     ab4:	605914        	ae_lq32f.iu	aeq1, a9, 4
     ab7:	55da62        	addmi	a6, a10, 0x5500
     aba:	d0c662        	addi	a6, a6, -48
     abd:	04a876        	loopgtz	a8, ac5 <PD_Noise_Est+0x2d>
     ac0:	f8663d391f 	{ ae_lq32f.iu	aeq1, a9, 4; ae_addq56	aeq0, aeq0, aeq1 }

00000ac5 <PD_Noise_Est+0x2d>:
     ac5:	04d632        	addmi	a3, a6, 0x400
     ac8:	3580b4        	ae_sraiq56	aeq2, aeq0, 2
     acb:	5bdaa2        	addmi	a10, a10, 0x5b00
     ace:	06d692        	addmi	a9, a6, 0x600
     ad1:	d8c992        	addi	a9, a9, -40
     ad4:	accaa2        	addi	a10, a10, -84
     ad7:	622a04        	ae_sq32f.i	aeq2, a10, 0
     ada:	604904        	ae_lq32f.i	aeq1, a9, 0
     add:	f9ea00002f 	{ movi	a2, 0; ae_addq56	aeq1, aeq1, aeq2 }
     ae2:	355074        	ae_sraiq56	aeq1, aeq1, 1
     ae5:	621904        	ae_sq32f.i	aeq1, a9, 0
     ae8:	a6a8           	l32i.n	a10, a6, 40
     aea:	e65322        	s16i	a2, a3, 0x1cc
     aed:	e79392        	l16si	a9, a3, 0x1ce
     af0:	171aa6        	blti	a10, 1, b0b <PD_Noise_Est+0x73>
     af3:	7123c2        	l32i	a12, a3, 0x1c4
     af6:	0e2ca6        	blti	a12, 2, b08 <PD_Noise_Est+0x70>
     af9:	e593a2        	l16si	a10, a3, 0x1ca
     afc:	f0c992        	addi	a9, a9, -16
     aff:	11aaf0        	slli	a10, a10, 1
     b02:	4399a0        	min	a9, a9, a10
     b05:	000686        	j	b23 <PD_Noise_Est+0x8b>

00000b08 <PD_Noise_Est+0x70>:
     b08:	081ae6        	bgei	a10, 1, b14 <PD_Noise_Est+0x7c>

00000b0b <PD_Noise_Est+0x73>:
     b0b:	7123c2        	l32i	a12, a3, 0x1c4
     b0e:	021ce6        	bgei	a12, 1, b14 <PD_Noise_Est+0x7c>
     b11:	010b86        	j	f43 <PD_Noise_Est+0x4ab>

00000b14 <PD_Noise_Est+0x7c>:
     b14:	7723d2        	l32i	a13, a3, 0x1dc
     b17:	051de6        	bgei	a13, 1, b20 <PD_Noise_Est+0x88>
     b1a:	fec992        	addi	a9, a9, -2
     b1d:	000086        	j	b23 <PD_Noise_Est+0x8b>

00000b20 <PD_Noise_Est+0x88>:
     b20:	f8c992        	addi	a9, a9, -8

00000b23 <PD_Noise_Est+0x8b>:
     b23:	fe3c           	movi.n	a14, 63
     b25:	53d920        	max	a13, a9, a2
     b28:	0bc8           	l32i.n	a12, a11, 0
     b2a:	43dde0        	min	a13, a13, a14
     b2d:	e753d2        	s16i	a13, a3, 0x1ce
     b30:	19dcc2        	addmi	a12, a12, 0x1900
     b33:	989ce2        	l16si	a14, a12, 0x130
     b36:	34ccb2        	addi	a11, a12, 52
     b39:	9a9cc2        	l16si	a12, a12, 0x134
     b3c:	004ed6        	bgez	a14, b44 <PD_Noise_Est+0xac>
     b3f:	0c0c           	movi.n	a12, 0
     b41:	000606        	j	b5d <PD_Noise_Est+0xc5>

00000b44 <PD_Noise_Est+0xac>:
     b44:	a6f8           	l32i.n	a15, a6, 40
     b46:	021fe6        	bgei	a15, 1, b4c <PD_Noise_Est+0xb4>
     b49:	00c606        	j	e65 <PD_Noise_Est+0x3cd>
     b4c:	91d8           	l32i.n	a13, a1, 36
     b4e:	149da2        	l16si	a10, a13, 40
     b51:	139dd2        	l16si	a13, a13, 38
     b54:	022da7        	blt	a13, a10, b5a <PD_Noise_Est+0xc2>
     b57:	00a506        	j	def <PD_Noise_Est+0x357>
     b5a:	d8ccc2        	addi	a12, a12, -40

00000b5d <PD_Noise_Est+0xc5>:
     b5d:	ffa0d2        	movi	a13, 255
     b60:	53cc20        	max	a12, a12, a2
     b63:	a6e8           	l32i.n	a14, a6, 40
     b65:	43ccd0        	min	a12, a12, a13
     b68:	805bc2        	s16i	a12, a11, 0x100
     b6b:	021ee6        	bgei	a14, 1, b71 <PD_Noise_Est+0xd9>
     b6e:	00a946        	j	e17 <PD_Noise_Est+0x37f>
     b71:	91e8           	l32i.n	a14, a1, 36
     b73:	149ef2        	l16si	a15, a14, 40
     b76:	139ee2        	l16si	a14, a14, 38
     b79:	5169           	s32i.n	a6, a1, 20
     b7b:	b179           	s32i.n	a7, a1, 44
     b7d:	022ef7        	blt	a14, a15, b83 <PD_Noise_Est+0xeb>
     b80:	0054c6        	j	cd7 <PD_Noise_Est+0x23f>
     b83:	3f0c           	movi.n	a15, 3
     b85:	9198           	l32i.n	a9, a1, 36
     b87:	5a0c           	movi.n	a10, 5
     b89:	e653a2        	s16i	a10, a3, 0x1cc
     b8c:	04d992        	addmi	a9, a9, 0x400
     b8f:	48c992        	addi	a9, a9, 72
     b92:	601914        	ae_lq32f.iu	aeq0, a9, 4
     b95:	605914        	ae_lq32f.iu	aeq1, a9, 4
     b98:	04af76        	loopgtz	a15, ba0 <PD_Noise_Est+0x108>
     b9b:	f8663d391f 	{ ae_lq32f.iu	aeq1, a9, 4; ae_addq56	aeq0, aeq0, aeq1 }

00000ba0 <PD_Noise_Est+0x108>:
     ba0:	35c0b4        	ae_sraiq56	aeq3, aeq0, 2
     ba3:	fd4cb1        	l32r	a11, d4 (dacccccd <_end+0xdacc0e91>)
     ba6:	364b34        	ae_cvtq48a32s	aeq1, a11
     ba9:	099704        	ae_leq56s	b0, aeq3, aeq1
     bac:	080076        	bf	b0, bb8 <PD_Noise_Est+0x120>
     baf:	050c           	movi.n	a5, 0
     bb1:	040c           	movi.n	a4, 0
     bb3:	5169           	s32i.n	a6, a1, 20
     bb5:	000706        	j	bd5 <PD_Noise_Est+0x13d>

00000bb8 <PD_Noise_Est+0x120>:
     bb8:	fd4881        	l32r	a8, d8 (960 <COMPL_S16x2_fun>)
     bbb:	e493a2        	l16si	a10, a3, 0x1c8
     bbe:	0008e0        	callx8	a8
     bc1:	e493b2        	l16si	a11, a3, 0x1c8
     bc4:	0a4d           	mov.n	a4, a10
     bc6:	fd4481        	l32r	a8, d8 (960 <COMPL_S16x2_fun>)
     bc9:	ab2b           	addi.n	a10, a11, 2
     bcb:	21a2a0        	srai	a10, a10, 2
     bce:	0008e0        	callx8	a8
     bd1:	0a5d           	mov.n	a5, a10
     bd3:	5169           	s32i.n	a6, a1, 20

00000bd5 <PD_Noise_Est+0x13d>:
     bd5:	5168           	l32i.n	a6, a1, 20
     bd7:	a668           	l32i.n	a6, a6, 40
     bd9:	fd4081        	l32r	a8, dc (9290 <__floatsidf>)
     bdc:	fd41a1        	l32r	a10, e0 (fc000000 <_end+0xfbff41c4>)
     bdf:	662b           	addi.n	a6, a6, 2
     be1:	216260        	srai	a6, a6, 2
     be4:	a6aa           	add.n	a10, a6, a10
     be6:	71a9           	s32i.n	a10, a1, 28
     be8:	61a9           	s32i.n	a10, a1, 24
     bea:	0008e0        	callx8	a8
     bed:	fd3e81        	l32r	a8, e8 (9174 <__ltdf2>)
     bf0:	fd3dd1        	l32r	a13, e4 (c1600000 <_end+0xc15f41c4>)
     bf3:	0c0c           	movi.n	a12, 0
     bf5:	0008e0        	callx8	a8
     bf8:	7198           	l32i.n	a9, a1, 28
     bfa:	61f8           	l32i.n	a15, a1, 24
     bfc:	996a           	add.n	a9, a9, a6
     bfe:	a3f9a0        	movltz	a15, a9, a10
     c01:	fd3aa1        	l32r	a10, ec (b33333 <_end+0xb274f7>)
     c04:	fd3bc1        	l32r	a12, f0 (ff4ccccd <_end+0xff4c0e91>)
     c07:	292fa7        	blt	a15, a10, c34 <PD_Noise_Est+0x19c>
     c0a:	0a0c           	movi.n	a10, 0
     c0c:	6f23d2        	l32i	a13, a3, 0x1bc
     c0f:	7023e2        	l32i	a14, a3, 0x1c0
     c12:	bfca           	add.n	a11, a15, a12
     c14:	81b9           	s32i.n	a11, a1, 32
     c16:	0b0c           	movi.n	a11, 0

00000c18 <PD_Noise_Est+0x180>:
     c18:	caea           	add.n	a12, a10, a14
     c1a:	8daa           	add.n	a8, a13, a10
     c1c:	0849           	s32i.n	a4, a8, 0
     c1e:	0c98           	l32i.n	a9, a12, 0
     c20:	bb1b           	addi.n	a11, a11, 1
     c22:	1199f0        	slli	a9, a9, 1
     c25:	0c99           	s32i.n	a9, a12, 0
     c27:	81c8           	l32i.n	a12, a1, 32
     c29:	aa4b           	addi.n	a10, a10, 4
     c2b:	018b80        	slli	a8, a11, 24
     c2e:	e6ac87        	bge	a12, a8, c18 <PD_Noise_Est+0x180>
     c31:	000046        	j	c36 <PD_Noise_Est+0x19e>

00000c34 <PD_Noise_Est+0x19c>:
     c34:	0b0c           	movi.n	a11, 0

00000c36 <PD_Noise_Est+0x19e>:
     c36:	b179           	s32i.n	a7, a1, 44
     c38:	fd1de1        	l32r	a14, ac (b880 <wb_sb_ptn>)
     c3b:	51a8           	l32i.n	a10, a1, 20
     c3d:	6f23d2        	l32i	a13, a3, 0x1bc
     c40:	e693c2        	l16si	a12, a3, 0x1cc
     c43:	059aa2        	l16si	a10, a10, 10
     c46:	a0dbd0        	addx4	a13, a11, a13
     c49:	90cce0        	addx2	a12, a12, a14
     c4c:	2ccd           	ae_l16si.n	a12, a12, 0
     c4e:	0d59           	s32i.n	a5, a13, 0
     c50:	11aae0        	slli	a10, a10, 2
     c53:	bc2b           	addi.n	a11, a12, 2
     c55:	01bb80        	slli	a11, a11, 24
     c58:	7b2bf7        	blt	a11, a15, cd7 <PD_Noise_Est+0x23f>
     c5b:	41a9           	s32i.n	a10, a1, 16
     c5d:	fd2321        	l32r	a2, ec (b33333 <_end+0xb274f7>)
     c60:	fd25c1        	l32r	a12, f4 (800000 <_end+0x7f41c4>)
     c63:	fd23d1        	l32r	a13, f0 (ff4ccccd <_end+0xff4c0e91>)
     c66:	2f2a           	add.n	a2, a15, a2
     c68:	7fca           	add.n	a7, a15, a12
     c6a:	dfda           	add.n	a13, a15, a13
     c6c:	cbca           	add.n	a12, a11, a12
     c6e:	a1c9           	s32i.n	a12, a1, 40
     c70:	0b0c           	movi.n	a11, 0

00000c72 <PD_Noise_Est+0x1da>:
     c72:	4198           	l32i.n	a9, a1, 16
     c74:	7023a2        	l32i	a10, a3, 0x1c0
     c77:	6f23e2        	l32i	a14, a3, 0x1bc
     c7a:	31f870        	srai	a15, a7, 24
     c7d:	a0afa0        	addx4	a10, a15, a10
     c80:	a0cfe0        	addx4	a12, a15, a14
     c83:	0cb9           	s32i.n	a11, a12, 0
     c85:	0a99           	s32i.n	a9, a10, 0
     c87:	cf1b           	addi.n	a12, a15, 1
     c89:	0cbd           	mov.n	a11, a12
     c8b:	018c80        	slli	a8, a12, 24
     c8e:	11ace0        	slli	a10, a12, 2
     c91:	08a827        	bge	a8, a2, c9d <PD_Noise_Est+0x205>
     c94:	bf2b           	addi.n	a11, a15, 2
     c96:	aa4b           	addi.n	a10, a10, 4
     c98:	a08ce0        	addx4	a8, a12, a14
     c9b:	0859           	s32i.n	a5, a8, 0

00000c9d <PD_Noise_Est+0x205>:
     c9d:	776a           	add.n	a7, a7, a6
     c9f:	226a           	add.n	a2, a2, a6
     ca1:	019b80        	slli	a9, a11, 24
     ca4:	dd6a           	add.n	a13, a13, a6
     ca6:	1f2d97        	blt	a13, a9, cc9 <PD_Noise_Est+0x231>
     ca9:	6f23f2        	l32i	a15, a3, 0x1bc
     cac:	7023e2        	l32i	a14, a3, 0x1c0

00000caf <PD_Noise_Est+0x217>:
     caf:	bb1b           	addi.n	a11, a11, 1
     cb1:	cfaa           	add.n	a12, a15, a10
     cb3:	9aea           	add.n	a9, a10, a14
     cb5:	0c49           	s32i.n	a4, a12, 0
     cb7:	0988           	l32i.n	a8, a9, 0
     cb9:	aa4b           	addi.n	a10, a10, 4
     cbb:	01cb80        	slli	a12, a11, 24
     cbe:	1188f0        	slli	a8, a8, 1
     cc1:	0989           	s32i.n	a8, a9, 0
     cc3:	e8adc7        	bge	a13, a12, caf <PD_Noise_Est+0x217>
     cc6:	11abe0        	slli	a10, a11, 2

00000cc9 <PD_Noise_Est+0x231>:
     cc9:	6f23f2        	l32i	a15, a3, 0x1bc
     ccc:	0b0c           	movi.n	a11, 0
     cce:	a1e8           	l32i.n	a14, a1, 40
     cd0:	ffaa           	add.n	a15, a15, a10
     cd2:	0f59           	s32i.n	a5, a15, 0
     cd4:	9aae77        	bge	a14, a7, c72 <PD_Noise_Est+0x1da>

00000cd7 <PD_Noise_Est+0x23f>:
     cd7:	91a8           	l32i.n	a10, a1, 36
     cd9:	b178           	l32i.n	a7, a1, 44
     cdb:	020c           	movi.n	a2, 0
     cdd:	171aa2        	l16ui	a10, a10, 46
     ce0:	5168           	l32i.n	a6, a1, 20
     ce2:	481c           	movi.n	a8, 20
     ce4:	6b38a7        	bltu	a8, a10, d53 <PD_Noise_Est+0x2bb>
     ce7:	027ab6        	bltui	a10, 7, ced <PD_Noise_Est+0x255>
     cea:	004286        	j	df8 <PD_Noise_Est+0x360>
     ced:	91a8           	l32i.n	a10, a1, 36
     cef:	0cdaa2        	addmi	a10, a10, 0xc00
     cf2:	e8caa2        	addi	a10, a10, -24
     cf5:	0001c6        	j	d00 <PD_Noise_Est+0x268>

00000cf8 <PD_Noise_Est+0x260>:
     cf8:	91a8           	l32i.n	a10, a1, 36
     cfa:	0cdaa2        	addmi	a10, a10, 0xc00
     cfd:	f0caa2        	addi	a10, a10, -16

00000d00 <PD_Noise_Est+0x268>:
     d00:	e693b2        	l16si	a11, a3, 0x1cc
     d03:	2add           	ae_l16si.n	a13, a10, 0
     d05:	8c0c           	movi.n	a12, 8
     d07:	482cb7        	blt	a12, a11, d53 <PD_Noise_Est+0x2bb>
     d0a:	11ebe0        	slli	a14, a11, 2
     d0d:	fce7f1        	l32r	a15, ac (b880 <wb_sb_ptn>)
     d10:	fcecc1        	l32r	a12, c0 (8000 <ifft_wo+0x108>)
     d13:	442c           	movi.n	a4, 36
     d15:	90fbf0        	addx2	a15, a11, a15

00000d18 <PD_Noise_Est+0x280>:
     d18:	3b2782        	l32i	a8, a7, 236
     d1b:	88ea           	add.n	a8, a8, a14
     d1d:	0888           	l32i.n	a8, a8, 0
     d1f:	ee4b           	addi.n	a14, a14, 4
     d21:	2918e6        	bgei	a8, 1, d4e <PD_Noise_Est+0x2b6>
     d24:	2f5d           	ae_l16si.n	a5, a15, 0
     d26:	3fad           	ae_l16si.n	a10, a15, 2
     d28:	180c           	movi.n	a8, 1
     d2a:	1195e0        	slli	a9, a5, 2
     d2d:	1da5a7        	bge	a5, a10, d4e <PD_Noise_Est+0x2b6>
     d30:	c0ba50        	sub	a11, a10, a5
     d33:	6f23a2        	l32i	a10, a3, 0x1bc
     d36:	53bb80        	max	a11, a11, a8
     d39:	11ab76        	loopgtz	a11, d4e <PD_Noise_Est+0x2b6>
     d3c:	59aa           	add.n	a5, a9, a10
     d3e:	45bd           	ae_l16ui.n	a11, a5, 0
     d40:	994b           	addi.n	a9, a9, 4
     d42:	bdba           	add.n	a11, a13, a11
     d44:	c08cb0        	sub	a8, a12, a11
     d47:	118800        	slli	a8, a8, 16
     d4a:	bb8a           	add.n	a11, a11, a8
     d4c:	05b9           	s32i.n	a11, a5, 0
     d4e:	ff2b           	addi.n	a15, a15, 2
     d50:	c49e47        	bne	a14, a4, d18 <PD_Noise_Est+0x280>
     d53:	1996a2        	l16si	a10, a6, 50
     d56:	012a96        	bltz	a10, d6c <PD_Noise_Est+0x2d4>
     d59:	91c8           	l32i.n	a12, a1, 36
     d5b:	021cc2        	l16ui	a12, a12, 4
     d5e:	90ccc0        	addx2	a12, a12, a12
     d61:	11cce0        	slli	a12, a12, 2
     d64:	04aac7        	bge	a10, a12, d6c <PD_Noise_Est+0x2d4>
     d67:	ba1b           	addi.n	a11, a10, 1
     d69:	000046        	j	d6e <PD_Noise_Est+0x2d6>

00000d6c <PD_Noise_Est+0x2d4>:
     d6c:	fb7c           	movi.n	a11, -1

00000d6e <PD_Noise_Est+0x2d6>:
     d6e:	a6a8           	l32i.n	a10, a6, 40
     d70:	1956b2        	s16i	a11, a6, 50
     d73:	9a8c           	beqz.n	a10, d80 <PD_Noise_Est+0x2e8>
     d75:	7623d2        	l32i	a13, a3, 0x1d8
     d78:	03cdd6        	bgez	a13, db8 <PD_Noise_Est+0x320>
     d7b:	1a96e2        	l16si	a14, a6, 52
     d7e:	6efc           	bnez.n	a14, db8 <PD_Noise_Est+0x320>

00000d80 <PD_Noise_Est+0x2e8>:
     d80:	7123f2        	l32i	a15, a3, 0x1c4
     d83:	312fe6        	bgei	a15, 2, db8 <PD_Noise_Est+0x320>
     d86:	e79392        	l16si	a9, a3, 0x1ce
     d89:	e59382        	l16si	a8, a3, 0x1ca
     d8c:	28a897        	bge	a8, a9, db8 <PD_Noise_Est+0x320>
     d8f:	11cbd6        	bgez	a11, eaf <PD_Noise_Est+0x417>
     d92:	91b8           	l32i.n	a11, a1, 36
     d94:	7723a2        	l32i	a10, a3, 0x1dc
     d97:	0796c2        	l16si	a12, a6, 14
     d9a:	0b9be2        	l16si	a14, a11, 22
     d9d:	0a9bd2        	l16si	a13, a11, 20
     da0:	0c9bb2        	l16si	a11, a11, 24
     da3:	fcd581        	l32r	a8, f8 (9054 <cal_wind_score>)
     da6:	ddea           	add.n	a13, a13, a14
     da8:	bbda           	add.n	a11, a11, a13
     daa:	8bbd           	ae_sext16	a11, a11
     dac:	61bd           	ae_s16i.n	a11, a1, 0
     dae:	0008e0        	callx8	a8
     db1:	0aed           	mov.n	a14, a10
     db3:	a6a8           	l32i.n	a10, a6, 40
     db5:	003e46        	j	eb2 <PD_Noise_Est+0x41a>

00000db8 <PD_Noise_Est+0x320>:
     db8:	fcd1b1        	l32r	a11, fc (7fff0000 <_end+0x7ffe41c4>)

00000dbb <PD_Noise_Est+0x323>:
     dbb:	c18b           	addi.n	a12, a1, 8
     dbd:	fcd281        	l32r	a8, 108 (43d4 <siir_safr>)
     dc0:	fcd0a1        	l32r	a10, 100 (7e1401ec <_end+0x7e1343b0>)
     dc3:	fcd091        	l32r	a9, 104 (7fe70019 <_end+0x7fe641dd>)
     dc6:	2199           	s32i.n	a9, a1, 8
     dc8:	31a9           	s32i.n	a10, a1, 12
     dca:	4227a2        	l32i	a10, a7, 0x108
     dcd:	0008e0        	callx8	a8
     dd0:	4267a2        	s32i	a10, a7, 0x108
     dd3:	1a96c2        	l16si	a12, a6, 52
     dd6:	a6d8           	l32i.n	a13, a6, 40
     dd8:	3e0c           	movi.n	a14, 3
     dda:	bc0b           	addi.n	a11, a12, -1
     ddc:	53bb20        	max	a11, a11, a2
     ddf:	cc1b           	addi.n	a12, a12, 1
     de1:	020c           	movi.n	a2, 0
     de3:	43cce0        	min	a12, a12, a14
     de6:	93bcd0        	movnez	a11, a12, a13
     de9:	1a56b2        	s16i	a11, a6, 52
     dec:	f01d           	retw.n

00000dee <PD_Noise_Est+0x356>:
	...

00000def <PD_Noise_Est+0x357>:
     def:	169da7        	bne	a13, a10, e09 <PD_Noise_Est+0x371>
     df2:	faccc2        	addi	a12, a12, -6
     df5:	ff5906        	j	b5d <PD_Noise_Est+0xc5>

00000df8 <PD_Noise_Est+0x360>:
     df8:	02bab6        	bltui	a10, 16, dfe <PD_Noise_Est+0x366>
     dfb:	ffbe46        	j	cf8 <PD_Noise_Est+0x260>
     dfe:	91a8           	l32i.n	a10, a1, 36
     e00:	0cdaa2        	addmi	a10, a10, 0xc00
     e03:	eccaa2        	addi	a10, a10, -20
     e06:	ffbd86        	j	d00 <PD_Noise_Est+0x268>

00000e09 <PD_Noise_Est+0x371>:
     e09:	ed0b           	addi.n	a14, a13, -1
     e0b:	c0eae0        	sub	a14, a10, a14
     e0e:	d4be56        	bnez	a14, b5d <PD_Noise_Est+0xc5>
     e11:	feccc2        	addi	a12, a12, -2
     e14:	ff5146        	j	b5d <PD_Noise_Est+0xc5>

00000e17 <PD_Noise_Est+0x37f>:
     e17:	0696f2        	l16si	a15, a6, 12
     e1a:	5169           	s32i.n	a6, a1, 20
     e1c:	b179           	s32i.n	a7, a1, 44
     e1e:	02acf7        	bge	a12, a15, e24 <PD_Noise_Est+0x38c>
     e21:	ffac86        	j	cd7 <PD_Noise_Est+0x23f>
     e24:	7023a2        	l32i	a10, a3, 0x1c0
     e27:	400644        	ae_lp16f.i	aep0, a6, 8
     e2a:	4c1a04        	ae_lp24.i	aep1, a10, 0
     e2d:	028174        	ae_mulp24s.ll	aeq2, aep0, aep1
     e30:	36ab04        	ae_trunca32q48	a11, aeq2
     e33:	090c           	movi.n	a9, 0
     e35:	eea082        	movi	a8, 238
     e38:	bb2b           	addi.n	a11, a11, 2
     e3a:	21b2b0        	srai	a11, a11, 2
     e3d:	05a876        	loopgtz	a8, e46 <PD_Noise_Est+0x3ae>
     e40:	da9a           	add.n	a13, a10, a9
     e42:	0db9           	s32i.n	a11, a13, 0
     e44:	994b           	addi.n	a9, a9, 4

00000e46 <PD_Noise_Est+0x3ae>:
     e46:	0396e2        	l16si	a14, a6, 6
     e49:	5169           	s32i.n	a6, a1, 20
     e4b:	b179           	s32i.n	a7, a1, 44
     e4d:	02ace7        	bge	a12, a14, e53 <PD_Noise_Est+0x3bb>
     e50:	ffa0c6        	j	cd7 <PD_Noise_Est+0x23f>
     e53:	7123f2        	l32i	a15, a3, 0x1c4
     e56:	332fe6        	bgei	a15, 2, e8d <PD_Noise_Est+0x3f5>
     e59:	fc9f81        	l32r	a8, d8 (960 <COMPL_S16x2_fun>)
     e5c:	ea93a2        	l16si	a10, a3, 0x1d4
     e5f:	0008e0        	callx8	a8
     e62:	000c06        	j	e96 <PD_Noise_Est+0x3fe>

00000e65 <PD_Noise_Est+0x3cd>:
     e65:	712392        	l32i	a9, a3, 0x1c4
     e68:	0229a6        	blti	a9, 2, e6e <PD_Noise_Est+0x3d6>
     e6b:	ff3b86        	j	b5d <PD_Noise_Est+0xc5>
     e6e:	fca7e1        	l32r	a14, 10c (b860 <wb_score_bands>)
     e71:	91a8           	l32i.n	a10, a1, 36
     e73:	099ed2        	l16si	a13, a14, 18
     e76:	3efd           	ae_l16si.n	a15, a14, 2
     e78:	029ee2        	l16si	a14, a14, 4
     e7b:	171aa2        	l16ui	a10, a10, 46
     e7e:	ffda           	add.n	a15, a15, a13
     e80:	eefa           	add.n	a14, a14, a15
     e82:	02aae7        	bge	a10, a14, e88 <PD_Noise_Est+0x3f0>
     e85:	003986        	j	f6f <PD_Noise_Est+0x4d7>
     e88:	cc2b           	addi.n	a12, a12, 2
     e8a:	ff33c6        	j	b5d <PD_Noise_Est+0xc5>

00000e8d <PD_Noise_Est+0x3f5>:
     e8d:	fc9281        	l32r	a8, d8 (960 <COMPL_S16x2_fun>)
     e90:	e993a2        	l16si	a10, a3, 0x1d2
     e93:	0008e0        	callx8	a8

00000e96 <PD_Noise_Est+0x3fe>:
     e96:	090c           	movi.n	a9, 0
     e98:	6f23b2        	l32i	a11, a3, 0x1bc
     e9b:	eea0c2        	movi	a12, 238
     e9e:	05ac76        	loopgtz	a12, ea7 <PD_Noise_Est+0x40f>
     ea1:	db9a           	add.n	a13, a11, a9
     ea3:	0da9           	s32i.n	a10, a13, 0
     ea5:	994b           	addi.n	a9, a9, 4

00000ea7 <PD_Noise_Est+0x40f>:
     ea7:	5169           	s32i.n	a6, a1, 20
     ea9:	b179           	s32i.n	a7, a1, 44
     eab:	ff8a06        	j	cd7 <PD_Noise_Est+0x23f>

00000eae <PD_Noise_Est+0x416>:
	...

00000eaf <PD_Noise_Est+0x417>:
     eaf:	fc98e1        	l32r	a14, 110 (4000 <find_phase+0x8>)

00000eb2 <PD_Noise_Est+0x41a>:
     eb2:	40def2        	addmi	a15, a14, 0x4000
     eb5:	ff0b           	addi.n	a15, a15, -1
     eb7:	61fd           	ae_s16i.n	a15, a1, 0
     eb9:	9aec           	bnez.n	a10, ee6 <PD_Noise_Est+0x44e>
     ebb:	7023c2        	l32i	a12, a3, 0x1c0
     ebe:	400104        	ae_lp16f.i	aep0, a1, 0
     ec1:	8697b2        	l16si	a11, a7, 0x10c
     ec4:	fccca2        	addi	a10, a12, -4
     ec7:	600c04        	ae_lq32f.i	aeq0, a12, 0
     eca:	431ba6        	blti	a11, 1, f11 <PD_Noise_Est+0x479>
     ecd:	050c           	movi.n	a5, 0

00000ecf <PD_Noise_Est+0x437>:
     ecf:	038a14        	ae_mulfq32sp16s.l	aeq3, aeq0, aep0
     ed2:	601c14        	ae_lq32f.iu	aeq0, a12, 4
     ed5:	35f054        	ae_slliq56	aeq3, aeq3, 1
     ed8:	627a14        	ae_sq32f.iu	aeq3, a10, 4
     edb:	8697b2        	l16si	a11, a7, 0x10c
     ede:	551b           	addi.n	a5, a5, 1
     ee0:	eb25b7        	blt	a5, a11, ecf <PD_Noise_Est+0x437>
     ee3:	000a86        	j	f11 <PD_Noise_Est+0x479>

00000ee6 <PD_Noise_Est+0x44e>:
     ee6:	090c           	movi.n	a9, 0
     ee8:	91c8           	l32i.n	a12, a1, 36
     eea:	7023a2        	l32i	a10, a3, 0x1c0
     eed:	403104        	ae_lp16f.i	aep3, a1, 0
     ef0:	1cccc2        	addi	a12, a12, 28
     ef3:	402c04        	ae_lp16f.i	aep2, a12, 0
     ef6:	e868802a8f 	{ movi	a8, 42; ae_mulfp24s.hh	aeq0, aep2, aep3 }
     efb:	b14b           	addi.n	a11, a1, 4
     efd:	3502f4        	ae_sraiq56	aeq0, aeq0, 11
     f00:	620b04        	ae_sq32f.i	aeq0, a11, 0
     f03:	11b8           	l32i.n	a11, a1, 4
     f05:	05a876        	loopgtz	a8, f0e <PD_Noise_Est+0x476>
     f08:	da9a           	add.n	a13, a10, a9
     f0a:	0db9           	s32i.n	a11, a13, 0
     f0c:	994b           	addi.n	a9, a9, 4

00000f0e <PD_Noise_Est+0x476>:
     f0e:	8697b2        	l16si	a11, a7, 0x10c

00000f11 <PD_Noise_Est+0x479>:
     f11:	6f23a2        	l32i	a10, a3, 0x1bc
     f14:	fc8081        	l32r	a8, 114 (5b33 <fill_vad_thrd_Nbands+0xb>)
     f17:	91d8           	l32i.n	a13, a1, 36
     f19:	e593c2        	l16si	a12, a3, 0x1ca
     f1c:	e793f2        	l16si	a15, a3, 0x1ce
     f1f:	0addd2        	addmi	a13, a13, 0xa00
     f22:	d18c80        	mul16s	a8, a12, a8
     f25:	11ff30        	slli	a15, a15, 13
     f28:	28a8f7        	bge	a8, a15, f54 <PD_Noise_Est+0x4bc>
     f2b:	fc7b81        	l32r	a8, 118 (a48 <wind_noise_alpha>)
     f2e:	7a2dd2        	l32i	a13, a13, 0x1e8
     f31:	fc7ac1        	l32r	a12, 11c (33334ccd <_end+0x33328e91>)
     f34:	0008e0        	callx8	a8
     f37:	e893b2        	l16si	a11, a3, 0x1d0
     f3a:	d1bbb0        	mul16s	a11, a11, a11
     f3d:	11bbf0        	slli	a11, a11, 1
     f40:	ff9dc6        	j	dbb <PD_Noise_Est+0x323>

00000f43 <PD_Noise_Est+0x4ab>:
     f43:	3b27a2        	l32i	a10, a7, 236
     f46:	1ac8           	l32i.n	a12, a10, 4
     f48:	0aa8           	l32i.n	a10, a10, 0
     f4a:	daca           	add.n	a13, a10, a12
     f4c:	451da6        	blti	a13, 1, f95 <PD_Noise_Est+0x4fd>
     f4f:	992b           	addi.n	a9, a9, 2
     f51:	fef386        	j	b23 <PD_Noise_Est+0x8b>

00000f54 <PD_Noise_Est+0x4bc>:
     f54:	118c20        	slli	a8, a12, 14
     f57:	1ca8f7        	bge	a8, a15, f77 <PD_Noise_Est+0x4df>
     f5a:	fc6f81        	l32r	a8, 118 (a48 <wind_noise_alpha>)
     f5d:	7a2dc2        	l32i	a12, a13, 0x1e8
     f60:	7b2dd2        	l32i	a13, a13, 0x1ec
     f63:	0008e0        	callx8	a8
     f66:	e893b2        	l16si	a11, a3, 0x1d0
     f69:	11bb00        	slli	a11, a11, 16
     f6c:	ff92c6        	j	dbb <PD_Noise_Est+0x323>

00000f6f <PD_Noise_Est+0x4d7>:
     f6f:	162ad7        	blt	a10, a13, f89 <PD_Noise_Est+0x4f1>
     f72:	cc1b           	addi.n	a12, a12, 1
     f74:	fef946        	j	b5d <PD_Noise_Est+0xc5>

00000f77 <PD_Noise_Est+0x4df>:
     f77:	fc6881        	l32r	a8, 118 (a48 <wind_noise_alpha>)
     f7a:	7b2dc2        	l32i	a12, a13, 0x1ec
     f7d:	7c2dd2        	l32i	a13, a13, 0x1f0
     f80:	0008e0        	callx8	a8
     f83:	fc5eb1        	l32r	a11, fc (7fff0000 <_end+0x7ffe41c4>)
     f86:	ff8c46        	j	dbb <PD_Noise_Est+0x323>

00000f89 <PD_Noise_Est+0x4f1>:
     f89:	e8cc92        	addi	a9, a12, -24
     f8c:	feccc2        	addi	a12, a12, -2
     f8f:	83c9a0        	moveqz	a12, a9, a10
     f92:	fef1c6        	j	b5d <PD_Noise_Est+0xc5>

00000f95 <PD_Noise_Est+0x4fd>:
     f95:	021ae6        	bgei	a10, 1, f9b <PD_Noise_Est+0x503>
     f98:	041ca6        	blti	a12, 1, fa0 <PD_Noise_Est+0x508>

00000f9b <PD_Noise_Est+0x503>:
     f9b:	991b           	addi.n	a9, a9, 1
     f9d:	fee086        	j	b23 <PD_Noise_Est+0x8b>

00000fa0 <PD_Noise_Est+0x508>:
     fa0:	990b           	addi.n	a9, a9, -1
     fa2:	fedf46        	j	b23 <PD_Noise_Est+0x8b>

00000fa5 <PD_Noise_Est+0x50d>:
     fa5:	000000                                        ...

00000fa8 <PD_Noise_Gain>:
     fa8:	004136        	entry	a1, 32
     fab:	fc3e21        	l32r	a2, a4 (be30 <p_ecnr_mem>)
     fae:	0228           	l32i.n	a2, a2, 0
     fb0:	5ad222        	addmi	a2, a2, 0x5a00
     fb3:	4e9222        	l16si	a2, a2, 156
     fb6:	f01d           	retw.n

00000fb8 <voiced_decision>:
     fb8:	00c136        	entry	a1, 96
     fbb:	fc3a91        	l32r	a9, a4 (be30 <p_ecnr_mem>)
     fbe:	0998           	l32i.n	a9, a9, 0
     fc0:	0a0c           	movi.n	a10, 0
     fc2:	d139           	s32i.n	a3, a1, 52
     fc4:	1ad992        	addmi	a9, a9, 0x1a00
     fc7:	192992        	l32i	a9, a9, 100
     fca:	782c           	movi.n	a8, 39
     fcc:	7199           	s32i.n	a9, a1, 28
     fce:	09cd           	mov.n	a12, a9
     fd0:	01d992        	addmi	a9, a9, 0x100
     fd3:	ecc972        	addi	a7, a9, -20
     fd6:	9cc9b2        	addi	a11, a9, -100
     fd9:	91b9           	s32i.n	a11, a1, 36
     fdb:	14c992        	addi	a9, a9, 20
     fde:	02a876        	loopgtz	a8, fe4 <voiced_decision+0x2c>
     fe1:	09cca4        	ae_s16ip	a10, a12, 2

00000fe4 <voiced_decision+0x2c>:
     fe4:	07cd           	mov.n	a12, a7
     fe6:	09dd           	mov.n	a13, a9
     fe8:	91e8           	l32i.n	a14, a1, 36
     fea:	14a0b2        	movi	a11, 20
     fed:	08ab76        	loopgtz	a11, ff9 <voiced_decision+0x41>
     ff0:	09eea4        	ae_s32ip	a10, a14, 4
     ff3:	09cca4        	ae_s16ip	a10, a12, 2
     ff6:	09cda4        	ae_s16ip	a10, a13, 2
     ff9:	2a62a2        	s32i	a10, a2, 168
     ffc:	040c           	movi.n	a4, 0
     ffe:	050c           	movi.n	a5, 0
    1000:	6199           	s32i.n	a9, a1, 24
    1002:	01d2d2        	addmi	a13, a2, 0x100
    1005:	160c           	movi.n	a6, 1
    1007:	9522f2        	l32i	a15, a2, 0x254
    100a:	4e3c           	movi.n	a14, 52
    100c:	fc4581        	l32r	a8, 120 (147ae1 <_end+0x13bca5>)
    100f:	398884        	ae_movpa24x2	aep0, a8, a8
    1012:	60e1e4        	ae_lq32f.x	aeq3, a1, a14
    1015:	364f34        	ae_cvtq48a32s	aeq1, a15
    1018:	fb017ed69f 	{ ae_sraaq56	aeq2, aeq1, a6; ae_mulfq32sp24s.h	aeq3, aeq3, aep0 }
    101d:	f8ea4acdde 	{ addi	a13, a13, -84; ae_addsq56s	aeq0, aeq1, aeq2 }
    1022:	fbe70027ef 	{ movi	a14, 39; ae_maxq56s	aeq3, aeq3, aeq0 }
    1027:	623104        	ae_sq32f.i	aeq3, a1, 0

0000102a <voiced_decision+0x72>:
    102a:	609d14        	ae_lq32f.iu	aeq2, a13, 4
    102d:	d6d43eca3f 	{ ae_cvtq48a32s	aeq0, a10; ae_ltq56s	b0, aeq3, aeq2 }
    1032:	5b0c           	movi.n	a11, 5
    1034:	f4cd92        	addi	a9, a13, -12
    1037:	1b0076        	bf	b0, 1056 <voiced_decision+0x9e>
    103a:	05ab76        	loopgtz	a11, 1043 <voiced_decision+0x8b>
    103d:	605914        	ae_lq32f.iu	aeq1, a9, 4
    1040:	0101c4        	ae_maxq56s	aeq0, aeq1, aeq0

00001043 <voiced_decision+0x8b>:
    1043:	098a14        	ae_eqq56	b1, aeq2, aeq0
    1046:	7198           	l32i.n	a9, a1, 28
    1048:	841b           	addi.n	a8, a4, 1
    104a:	080176        	bf	b1, 1056 <voiced_decision+0x9e>
    104d:	909590        	addx2	a9, a5, a9
    1050:	698d           	ae_s16i.n	a8, a9, 0
    1052:	551b           	addi.n	a5, a5, 1
    1054:	855d           	ae_sext16	a5, a5
    1056:	441b           	addi.n	a4, a4, 1
    1058:	ce94e7        	bne	a4, a14, 102a <voiced_decision+0x72>
    105b:	c50b           	addi.n	a12, a5, -1
    105d:	8ccd           	ae_sext16	a12, a12
    105f:	0251c2        	s16i	a12, a1, 4
    1062:	021ce6        	bgei	a12, 1, 1068 <voiced_decision+0xb0>
    1065:	002a06        	j	1111 <voiced_decision+0x159>
    1068:	7138           	l32i.n	a3, a1, 28
    106a:	040c           	movi.n	a4, 0
    106c:	050c           	movi.n	a5, 0
    106e:	fc14d1        	l32r	a13, c0 (8000 <ifft_wo+0x108>)
    1071:	360d34        	ae_cvtq48a32s	aeq0, a13

00001074 <voiced_decision+0xbc>:
    1074:	23bd           	ae_l16si.n	a11, a3, 0
    1076:	33fd           	ae_l16si.n	a15, a3, 2
    1078:	fd0455ffbf 	{ sub	a15, a15, a11; ae_movq56	aeq1, aeq0 }
    107d:	3e1f66        	bnei	a15, 1, 10bf <voiced_decision+0x107>
    1080:	332b           	addi.n	a3, a3, 2
    1082:	441b           	addi.n	a4, a4, 1
    1084:	1ba4c7        	bge	a4, a12, 10a3 <voiced_decision+0xeb>
    1087:	c08c40        	sub	a8, a12, a4
    108a:	10a876        	loopgtz	a8, 109e <voiced_decision+0xe6>
    108d:	23ad           	ae_l16si.n	a10, a3, 0
    108f:	339d           	ae_l16si.n	a9, a3, 2
    1091:	c099a0        	sub	a9, a9, a10
    1094:	0b1966        	bnei	a9, 1, 10a3 <voiced_decision+0xeb>
    1097:	441b           	addi.n	a4, a4, 1
    1099:	f96a40233e 	{ addi	a3, a3, 2; ae_addsq56s	aeq1, aeq1, aeq0 }

0000109e <voiced_decision+0xe6>:
    109e:	7138           	l32i.n	a3, a1, 28
    10a0:	903430        	addx2	a3, a4, a3
    10a3:	402304        	ae_lp16f.i	aep2, a3, 0
    10a6:	fc1f91        	l32r	a9, 124 (900 <HIFI_sqrt+0x48>)
    10a9:	39b994        	ae_movpa24x2	aep3, a9, a9
    10ac:	07a314        	ae_addsp24s	aep1, aep2, aep3
    10af:	0ac984        	ae_cvtq48p24s.h	aeq3, aep1
    10b2:	fa5e80818e 	{ addi	a8, a1, 8; ae_subsq56s	aeq2, aeq3, aeq1 }
    10b7:	622804        	ae_sq32f.i	aeq2, a8, 0
    10ba:	21a8           	l32i.n	a10, a1, 8
    10bc:	0006c6        	j	10db <voiced_decision+0x123>

000010bf <voiced_decision+0x107>:
    10bf:	9c0c           	movi.n	a12, 9
    10c1:	a0ab20        	addx4	a10, a11, a2
    10c4:	fc1981        	l32r	a8, 128 (2168 <Xfrac_num_pd_td32>)
    10c7:	01daa2        	addmi	a10, a10, 0x100
    10ca:	accaa2        	addi	a10, a10, -84
    10cd:	0008e0        	callx8	a8
    10d0:	0291c2        	l16si	a12, a1, 4
    10d3:	21a9           	s32i.n	a10, a1, 8
    10d5:	fbfad1        	l32r	a13, c0 (8000 <ifft_wo+0x108>)
    10d8:	360d34        	ae_cvtq48a32s	aeq0, a13

000010db <voiced_decision+0x123>:
    10db:	332b           	addi.n	a3, a3, 2
    10dd:	441b           	addi.n	a4, a4, 1
    10df:	9198           	l32i.n	a9, a1, 36
    10e1:	d18b           	addi.n	a13, a1, 8
    10e3:	604d04        	ae_lq32f.i	aeq1, a13, 0
    10e6:	faeb80c1be 	{ addi	a11, a1, 12; ae_roundsp16q48sym	aep4, aeq1 }
    10eb:	a09590        	addx4	a9, a5, a9
    10ee:	424b04        	ae_sp16f.l.i	aep4, a11, 0
    10f1:	069182        	l16si	a8, a1, 12
    10f4:	09a9           	s32i.n	a10, a9, 0
    10f6:	909570        	addx2	a9, a5, a7
    10f9:	a08820        	addx4	a8, a8, a2
    10fc:	222882        	l32i	a8, a8, 136
    10ff:	551b           	addi.n	a5, a5, 1
    1101:	855d           	ae_sext16	a5, a5
    1103:	318080        	srai	a8, a8, 16
    1106:	698d           	ae_s16i.n	a8, a9, 0
    1108:	02a4c7        	bge	a4, a12, 110e <voiced_decision+0x156>
    110b:	ffd946        	j	1074 <voiced_decision+0xbc>
    110e:	0000c6        	j	1115 <voiced_decision+0x15d>

00001111 <voiced_decision+0x159>:
    1111:	040c           	movi.n	a4, 0
    1113:	050c           	movi.n	a5, 0

00001115 <voiced_decision+0x15d>:
    1115:	449c47        	bne	a12, a4, 115d <voiced_decision+0x1a5>
    1118:	71a8           	l32i.n	a10, a1, 28
    111a:	90a4a0        	addx2	a10, a4, a10
    111d:	2aad           	ae_l16si.n	a10, a10, 0
    111f:	9c0c           	movi.n	a12, 9
    1121:	fc0181        	l32r	a8, 128 (2168 <Xfrac_num_pd_td32>)
    1124:	0abd           	mov.n	a11, a10
    1126:	a0aa20        	addx4	a10, a10, a2
    1129:	01daa2        	addmi	a10, a10, 0x100
    112c:	accaa2        	addi	a10, a10, -84
    112f:	0008e0        	callx8	a8
    1132:	90c570        	addx2	a12, a5, a7
    1135:	91d8           	l32i.n	a13, a1, 36
    1137:	21a9           	s32i.n	a10, a1, 8
    1139:	f18b           	addi.n	a15, a1, 8
    113b:	608f04        	ae_lq32f.i	aeq2, a15, 0
    113e:	faf3c0c1ee 	{ addi	a14, a1, 12; ae_roundsp16q48sym	aep5, aeq2 }
    1143:	425e04        	ae_sp16f.l.i	aep5, a14, 0
    1146:	0691b2        	l16si	a11, a1, 12
    1149:	a0d5d0        	addx4	a13, a5, a13
    114c:	0da9           	s32i.n	a10, a13, 0
    114e:	a0bb20        	addx4	a11, a11, a2
    1151:	222bb2        	l32i	a11, a11, 136
    1154:	551b           	addi.n	a5, a5, 1
    1156:	855d           	ae_sext16	a5, a5
    1158:	31b0b0        	srai	a11, a11, 16
    115b:	6cbd           	ae_s16i.n	a11, a12, 0

0000115d <voiced_decision+0x1a5>:
    115d:	fbf3a1        	l32r	a10, 12c (10000 <_end+0x41c4>)
    1160:	04d232        	addmi	a3, a2, 0x400
    1163:	1cc332        	addi	a3, a3, 28
    1166:	0215e6        	bgei	a5, 1, 116c <voiced_decision+0x1b4>
    1169:	007006        	j	132d <voiced_decision+0x375>
    116c:	61d8           	l32i.n	a13, a1, 24
    116e:	02a576        	loopgtz	a5, 1174 <voiced_decision+0x1bc>
    1171:	09cd64        	ae_s16ip	a6, a13, 2

00001174 <voiced_decision+0x1bc>:
    1174:	7e9382        	l16si	a8, a3, 252
    1177:	0218e6        	bgei	a8, 1, 117d <voiced_decision+0x1c5>
    117a:	006706        	j	131a <voiced_decision+0x362>
    117d:	91e8           	l32i.n	a14, a1, 36
    117f:	61d8           	l32i.n	a13, a1, 24
    1181:	07cd           	mov.n	a12, a7
    1183:	fbea81        	l32r	a8, 12c (10000 <_end+0x41c4>)
    1186:	10c242        	addi	a4, a2, 16
    1189:	03d2a2        	addmi	a10, a2, 0x300
    118c:	fbe9b1        	l32r	a11, 130 (78000 <_end+0x6c1c4>)
    118f:	398bb4        	ae_movpa24x2	aep0, a11, a11
    1192:	70caa2        	addi	a10, a10, 112
    1195:	8149           	s32i.n	a4, a1, 32
    1197:	364834        	ae_cvtq48a32s	aeq1, a8
    119a:	040c           	movi.n	a4, 0

0000119c <voiced_decision+0x1e4>:
    119c:	155516        	beqz	a5, 12f5 <voiced_decision+0x33d>
    119f:	152596        	bltz	a5, 12f5 <voiced_decision+0x33d>
    11a2:	17a576        	loopgtz	a5, 11bd <voiced_decision+0x205>
    11a5:	030150        	rsr.lend	a5
    11a8:	130050        	wsr.lbeg	a5
    11ab:	38c552        	addi	a5, a5, 56
    11ae:	01d552        	addmi	a5, a5, 0x100
    11b1:	130150        	wsr.lend	a5
    11b4:	002000        	isync
    11b7:	030250        	rsr.lcount	a5
    11ba:	01c552        	addi	a5, a5, 1
    11bd:	7e93b2        	l16si	a11, a3, 252
    11c0:	600e04        	ae_lq32f.i	aeq0, a14, 0
    11c3:	bb0b           	addi.n	a11, a11, -1
    11c5:	19a4b7        	bge	a4, a11, 11e2 <voiced_decision+0x22a>
    11c8:	030204        	ae_mulfq32sp16s.h	aeq0, aeq0, aep0
    11cb:	0110c4        	ae_maxq56s	aeq0, aeq0, aeq1
    11ce:	ff10b00efe 	{ l32i	a15, a14, 0; ae_negq56	aeq3, aeq0 }
    11d3:	004b06        	j	1303 <voiced_decision+0x34b>

000011d6 <voiced_decision+0x21e>:
    11d6:	a0a420        	addx4	a10, a4, a2
    11d9:	03daa2        	addmi	a10, a10, 0x300
    11dc:	70caa2        	addi	a10, a10, 112
    11df:	0001c6        	j	11ea <voiced_decision+0x232>

000011e2 <voiced_decision+0x22a>:
    11e2:	030204        	ae_mulfq32sp16s.h	aeq0, aeq0, aep0
    11e5:	f86b300efe 	{ l32i	a15, a14, 0; ae_maxq56s	aeq0, aeq0, aeq1 }

000011ea <voiced_decision+0x232>:
    11ea:	7f2a92        	l32i	a9, a10, 0x1fc
    11ed:	c099f0        	sub	a9, a9, a15

000011f0 <voiced_decision+0x238>:
    11f0:	10c1b2        	addi	a11, a1, 16
    11f3:	60f190        	abs	a15, a9
    11f6:	41f9           	s32i.n	a15, a1, 16
    11f8:	60cb04        	ae_lq32f.i	aeq3, a11, 0
    11fb:	d5c4804eee 	{ addi	a14, a14, 4; ae_leq56s	b2, aeq3, aeq0 }
    1200:	8198           	l32i.n	a9, a1, 32
    1202:	fbccb1        	l32r	a11, 134 (2ccccd <_end+0x2c0e91>)
    1205:	021276        	bt	b2, 120b <voiced_decision+0x253>
    1208:	0038c6        	j	12ef <voiced_decision+0x337>
    120b:	407c04        	ae_lp16f.i	aep7, a12, 0
    120e:	42a582        	movi	a8, 0x542
    1211:	401904        	ae_lp16f.i	aep1, a9, 0
    1214:	909420        	addx2	a9, a4, a2
    1217:	412984        	ae_lp16f.x	aep2, a9, a8
    121a:	e844ba015f 	{ ae_sq56s.i	aeq0, a1, 40; ae_mulfp24s.hh	aeq0, aep1, aep2 }
    121f:	0a8f84        	ae_cvtq48p24s.h	aeq2, aep7
    1222:	f8e7e26bbf 	{ ae_movpa24x2	aep6, a11, a11; ae_roundsp24q48sym	aep1, aeq0 }
    1227:	016144        	ae_mulfp24s.hh	aeq0, aep6, aep1
    122a:	35a074        	ae_sraiq56	aeq2, aeq2, 1
    122d:	098284        	ae_ltq56s	b8, aeq2, aeq0
    1230:	fbc2f1        	l32r	a15, 138 (466666 <_end+0x45a82a>)
    1233:	610154        	ae_lq56.i	aeq0, a1, 40
    1236:	040876        	bf	b8, 123e <voiced_decision+0x286>
    1239:	6d6d           	ae_s16i.n	a6, a13, 0
    123b:	000806        	j	125f <voiced_decision+0x2a7>

0000123e <voiced_decision+0x286>:
    123e:	39bff4        	ae_movpa24x2	aep3, a15, a15
    1241:	e82cba015f 	{ ae_sq56s.i	aeq0, a1, 40; ae_mulfp24s.hh	aeq0, aep3, aep1 }
    1246:	04d992        	addmi	a9, a9, 0x400
    1249:	d6c381c99e 	{ addi	a9, a9, 28; ae_ltq56s	b14, aeq2, aeq0 }
    124e:	7f9992        	l16si	a9, a9, 254
    1251:	610154        	ae_lq56.i	aeq0, a1, 40
    1254:	190e76        	bf	b14, 1271 <voiced_decision+0x2b9>
    1257:	fbc992        	addi	a9, a9, -5

0000125a <voiced_decision+0x2a2>:
    125a:	539960        	max	a9, a9, a6

0000125d <voiced_decision+0x2a5>:
    125d:	6d9d           	ae_s16i.n	a9, a13, 0
    125f:	7e9382        	l16si	a8, a3, 252
    1262:	880b           	addi.n	a8, a8, -1
    1264:	022487        	blt	a4, a8, 126a <voiced_decision+0x2b2>
    1267:	002186        	j	12f1 <voiced_decision+0x339>
    126a:	441b           	addi.n	a4, a4, 1
    126c:	aa4b           	addi.n	a10, a10, 4
    126e:	001fc6        	j	12f1 <voiced_decision+0x339>

00001271 <voiced_decision+0x2b9>:
    1271:	fbb2b1        	l32r	a11, 13c (533333 <_end+0x5274f7>)
    1274:	39cbb4        	ae_movpa24x2	aep4, a11, a11
    1277:	e830ba015f 	{ ae_sq56s.i	aeq0, a1, 40; ae_mulfp24s.hh	aeq0, aep4, aep1 }
    127c:	fbb1f1        	l32r	a15, 140 (5851ec <_end+0x5793b0>)
    127f:	098244        	ae_ltq56s	b4, aeq2, aeq0
    1282:	39dff4        	ae_movpa24x2	aep5, a15, a15
    1285:	610154        	ae_lq56.i	aeq0, a1, 40
    1288:	050476        	bf	b4, 1291 <voiced_decision+0x2d9>
    128b:	fcc992        	addi	a9, a9, -4
    128e:	fff206        	j	125a <voiced_decision+0x2a2>

00001291 <voiced_decision+0x2d9>:
    1291:	e834ba015f 	{ ae_sq56s.i	aeq0, a1, 40; ae_mulfp24s.hh	aeq0, aep5, aep1 }
    1296:	fbab81        	l32r	a8, 144 (5ae148 <_end+0x5a230c>)
    1299:	0982a4        	ae_ltq56s	b10, aeq2, aeq0
    129c:	39e884        	ae_movpa24x2	aep6, a8, a8
    129f:	610154        	ae_lq56.i	aeq0, a1, 40
    12a2:	050a76        	bf	b10, 12ab <voiced_decision+0x2f3>
    12a5:	fec992        	addi	a9, a9, -2
    12a8:	ffeb86        	j	125a <voiced_decision+0x2a2>

000012ab <voiced_decision+0x2f3>:
    12ab:	e838ba015f 	{ ae_sq56s.i	aeq0, a1, 40; ae_mulfp24s.hh	aeq0, aep6, aep1 }
    12b0:	fba6b1        	l32r	a11, 148 (5ccccd <_end+0x5c0e91>)
    12b3:	098204        	ae_ltq56s	b0, aeq2, aeq0
    12b6:	39fbb4        	ae_movpa24x2	aep7, a11, a11
    12b9:	610154        	ae_lq56.i	aeq0, a1, 40
    12bc:	040076        	bf	b0, 12c4 <voiced_decision+0x30c>
    12bf:	990b           	addi.n	a9, a9, -1
    12c1:	ffe546        	j	125a <voiced_decision+0x2a2>

000012c4 <voiced_decision+0x30c>:
    12c4:	e83cba015f 	{ ae_sq56s.i	aeq0, a1, 40; ae_mulfp24s.hh	aeq0, aep7, aep1 }
    12c9:	fba081        	l32r	a8, 14c (600000 <_end+0x5f41c4>)
    12cc:	d6c1bd815f 	{ ae_lq56.i	aeq0, a1, 40; ae_ltq56s	b6, aeq2, aeq0 }
    12d1:	399884        	ae_movpa24x2	aep1, a8, a8
    12d4:	f90400198e 	{ addi	a8, a9, 1; ae_mulfq32sp24s.h	aeq2, aeq0, aep1 }
    12d9:	801676        	bt	b6, 125d <voiced_decision+0x2a5>
    12dc:	d5d5cff9fe 	{ addi	a15, a9, -1; ae_leq56s	b7, aeq3, aeq2 }
    12e1:	53ff60        	max	a15, a15, a6
    12e4:	091c           	movi.n	a9, 16
    12e6:	439890        	min	a9, a8, a9
    12e9:	c39f70        	movf	a9, a15, b7
    12ec:	ffdb46        	j	125d <voiced_decision+0x2a5>

000012ef <voiced_decision+0x337>:
    12ef:	6d6d           	ae_s16i.n	a6, a13, 0

000012f1 <voiced_decision+0x339>:
    12f1:	dd2b           	addi.n	a13, a13, 2
    12f3:	cc2b           	addi.n	a12, a12, 2

000012f5 <voiced_decision+0x33d>:
    12f5:	000846        	j	131a <voiced_decision+0x362>

000012f8 <voiced_decision+0x340>:
	...

000012f9 <voiced_decision+0x341>:
    12f9:	aa4b           	addi.n	a10, a10, 4
    12fb:	441b           	addi.n	a4, a4, 1
    12fd:	0224b7        	blt	a4, a11, 1303 <voiced_decision+0x34b>
    1300:	ffb486        	j	11d6 <voiced_decision+0x21e>

00001303 <voiced_decision+0x34b>:
    1303:	7f2a92        	l32i	a9, a10, 0x1fc
    1306:	10c182        	addi	a8, a1, 16
    1309:	c099f0        	sub	a9, a9, a15
    130c:	4199           	s32i.n	a9, a1, 16
    130e:	608804        	ae_lq32f.i	aeq2, a8, 0
    1311:	09a384        	ae_ltq56s	b8, aeq3, aeq2
    1314:	e10876        	bf	b8, 12f9 <voiced_decision+0x341>
    1317:	ffb546        	j	11f0 <voiced_decision+0x238>

0000131a <voiced_decision+0x362>:
    131a:	61b8           	l32i.n	a11, a1, 24
    131c:	05cd           	mov.n	a12, a5
    131e:	fb6b81        	l32r	a8, cc (9240 <xt_memcpy>)
    1321:	05d2a2        	addmi	a10, a2, 0x500
    1324:	1acaa2        	addi	a10, a10, 26
    1327:	0008e0        	callx8	a8
    132a:	fb80a1        	l32r	a10, 12c (10000 <_end+0x41c4>)

0000132d <voiced_decision+0x375>:
    132d:	7e5352        	s16i	a5, a3, 252
    1330:	03dd           	mov.n	a13, a3
    1332:	608104        	ae_lq32f.i	aeq2, a1, 0
    1335:	fb87f1        	l32r	a15, 154 (828f <xtensa_fft8_32b+0x37>)
    1338:	fb8841        	l32r	a4, 158 (30000 <_end+0x241c4>)
    133b:	fb75b1        	l32r	a11, 110 (4000 <find_phase+0x8>)
    133e:	fb84c1        	l32r	a12, 150 (fffe0000 <_end+0xfffd41c4>)
    1341:	fb8661        	l32r	a6, 15c (20000 <_end+0x141c4>)
    1344:	364c34        	ae_cvtq48a32s	aeq1, a12
    1347:	07cd           	mov.n	a12, a7
    1349:	78a576        	loopgtz	a5, 13c5 <voiced_decision+0x40d>
    134c:	400c04        	ae_lp16f.i	aep0, a12, 0
    134f:	7f9de2        	l16si	a14, a13, 254
    1352:	dd2b           	addi.n	a13, a13, 2
    1354:	cc2b           	addi.n	a12, a12, 2
    1356:	3e3ea6        	blti	a14, 3, 1398 <voiced_decision+0x3e0>
    1359:	880c           	movi.n	a8, 8
    135b:	16a8e7        	bge	a8, a14, 1375 <voiced_decision+0x3bd>
    135e:	fc043ae0ef 	{ ae_sllisq56s	aeq3, aeq2, 2; ae_cvtq48p24s.h	aeq0, aep0 }
    1363:	06fa14        	ae_subsq56s	aeq3, aeq3, aeq2
    1366:	098394        	ae_ltq56s	b9, aeq3, aeq0
    1369:	360434        	ae_cvtq48a32s	aeq0, a4
    136c:	050976        	bf	b9, 1375 <voiced_decision+0x3bd>
    136f:	065804        	ae_addsq56s	aeq1, aeq1, aeq0
    1372:	001246        	j	13bf <voiced_decision+0x407>

00001375 <voiced_decision+0x3bd>:
    1375:	166ea6        	blti	a14, 6, 138f <voiced_decision+0x3d7>
    1378:	fc043b20df 	{ ae_sraiq56	aeq3, aeq2, 1; ae_cvtq48p24s.h	aeq0, aep0 }
    137d:	06fa04        	ae_addsq56s	aeq3, aeq3, aeq2
    1380:	0983a4        	ae_ltq56s	b10, aeq3, aeq0
    1383:	360634        	ae_cvtq48a32s	aeq0, a6
    1386:	050a76        	bf	b10, 138f <voiced_decision+0x3d7>
    1389:	065804        	ae_addsq56s	aeq1, aeq1, aeq0
    138c:	000bc6        	j	13bf <voiced_decision+0x407>

0000138f <voiced_decision+0x3d7>:
    138f:	36ca34        	ae_cvtq48a32s	aeq3, a10
    1392:	065b04        	ae_addsq56s	aeq1, aeq1, aeq3
    1395:	000986        	j	13bf <voiced_decision+0x407>

00001398 <voiced_decision+0x3e0>:
    1398:	1d1e66        	bnei	a14, 1, 13b9 <voiced_decision+0x401>
    139b:	302bb4        	ae_cvtp24a16x2.ll	aep2, a11, a11
    139e:	36e054        	ae_sllisq56s	aeq3, aeq2, 1
    13a1:	03a884        	ae_mulafq32sp16s.h	aeq3, aeq2, aep2
    13a4:	0a0884        	ae_cvtq48p24s.h	aeq0, aep0
    13a7:	09b0b4        	ae_ltq56s	b11, aeq0, aeq3
    13aa:	fb6d91        	l32r	a9, 160 (c148 <_end+0x30c>)
    13ad:	360934        	ae_cvtq48a32s	aeq0, a9
    13b0:	050b76        	bf	b11, 13b9 <voiced_decision+0x401>
    13b3:	065814        	ae_subsq56s	aeq1, aeq1, aeq0
    13b6:	000146        	j	13bf <voiced_decision+0x407>

000013b9 <voiced_decision+0x401>:
    13b9:	36cf34        	ae_cvtq48a32s	aeq3, a15
    13bc:	065b14        	ae_subsq56s	aeq1, aeq1, aeq3
    13bf:	14c1e2        	addi	a14, a1, 20
    13c2:	621e04        	ae_sq32f.i	aeq1, a14, 0

000013c5 <voiced_decision+0x40d>:
    13c5:	91b8           	l32i.n	a11, a1, 36

000013c7 <voiced_decision+0x40f>:
    13c7:	fb4181        	l32r	a8, cc (9240 <xt_memcpy>)
    13ca:	6a2392        	l32i	a9, a3, 0x1a8
    13cd:	8e7c           	movi.n	a14, -8
    13cf:	8f0c           	movi.n	a15, 8
    13d1:	11c5e0        	slli	a12, a5, 2
    13d4:	05d2a2        	addmi	a10, a2, 0x500
    13d7:	f9ebc041de 	{ addi	a13, a1, 4; ae_roundsp16q48sym	aep3, aeq1 }
    13dc:	423d04        	ae_sp16f.l.i	aep3, a13, 0
    13df:	0291d2        	l16si	a13, a1, 4
    13e2:	6ccaa2        	addi	a10, a10, 108
    13e5:	41c1c0        	srli	a12, a12, 1
    13e8:	43ddf0        	min	a13, a13, a15
    13eb:	53dde0        	max	a13, a13, a14
    13ee:	51d9           	s32i.n	a13, a1, 20
    13f0:	99da           	add.n	a9, a9, a13
    13f2:	0d1c           	movi.n	a13, 16
    13f4:	4399d0        	min	a9, a9, a13
    13f7:	4199           	s32i.n	a9, a1, 16
    13f9:	0d0c           	movi.n	a13, 0
    13fb:	5399d0        	max	a9, a9, a13
    13fe:	6a6392        	s32i	a9, a3, 0x1a8
    1401:	0008e0        	callx8	a8
    1404:	05cd           	mov.n	a12, a5
    1406:	07bd           	mov.n	a11, a7
    1408:	fb3181        	l32r	a8, cc (9240 <xt_memcpy>)
    140b:	05d2a2        	addmi	a10, a2, 0x500
    140e:	42caa2        	addi	a10, a10, 66
    1411:	0008e0        	callx8	a8
    1414:	f01d           	retw.n

00001416 <voiced_decision+0x45e>:
	...

00001418 <Pitch_by_Corel>:
    1418:	010136        	entry	a1, 128
    141b:	e81c           	movi.n	a8, 30
    141d:	05d352        	addmi	a5, a3, 0x500
    1420:	fb5141        	l32r	a4, 164 (4ccccd <_end+0x4c0e91>)
    1423:	03d3f2        	addmi	a15, a3, 0x300
    1426:	62c292        	addi	a9, a2, 98
    1429:	e199           	s32i.n	a9, a1, 56
    142b:	b1f9           	s32i.n	a15, a1, 44
    142d:	802fb2        	l32i	a11, a15, 0x200
    1430:	39a444        	ae_movpa24x2	aep2, a4, a4
    1433:	18c562        	addi	a6, a5, 24
    1436:	440c           	movi.n	a4, 4
    1438:	f3f760        	wur.ae_cend0	a6
    143b:	558b           	addi.n	a5, a5, 8
    143d:	f3f650        	wur.ae_cbegin0	a5
    1440:	0be8           	l32i.n	a14, a11, 0
    1442:	060c           	movi.n	a6, 0
    1444:	aca052        	movi	a5, 172
    1447:	fccee2        	addi	a14, a14, -4
    144a:	fc24fb8b4f 	{ ae_lq32f.c	aeq0, a11, a4; nop }
    144f:	0bd8           	l32i.n	a13, a11, 0
    1451:	fc24fbeb4f 	{ ae_lq32f.c	aeq3, a11, a4; nop }
    1456:	0bc8           	l32i.n	a12, a11, 0
    1458:	fccdd2        	addi	a13, a13, -4
    145b:	fc24fbcb4f 	{ ae_lq32f.c	aeq2, a11, a4; nop }
    1460:	0ba8           	l32i.n	a10, a11, 0
    1462:	fcccc2        	addi	a12, a12, -4
    1465:	fc24fbab4f 	{ ae_lq32f.c	aeq1, a11, a4; nop }
    146a:	fc24fb8b4f 	{ ae_lq32f.c	aeq0, a11, a4; nop }
    146f:	fccaa2        	addi	a10, a10, -4
    1472:	806fb2        	s32i	a11, a15, 0x200
    1475:	040c           	movi.n	a4, 0
    1477:	af2c           	movi.n	a15, 42
    1479:	1174f0        	slli	a7, a4, 1
    147c:	0b0c           	movi.n	a11, 0
    147e:	01b9           	s32i.n	a11, a1, 0
    1480:	ff2495727f 	{ sub	a7, a2, a7; ae_zeroq56	aeq3 }
    1485:	fc1c45077e 	{ addi	a7, a7, 80; ae_movq56	aeq0, aeq3 }

0000148a <Pitch_by_Corel+0x72>:
    148a:	e198           	l32i.n	a9, a1, 56
    148c:	608e14        	ae_lq32f.i	aeq2, a14, 4
    148f:	604d14        	ae_lq32f.i	aeq1, a13, 4
    1492:	408914        	ae_lp16f.iu	aep0, a9, 2
    1495:	07a876        	loopgtz	a8, 14a0 <Pitch_by_Corel+0x88>
    1498:	409714        	ae_lp16f.iu	aep1, a7, 2
    149b:	e420ac891f 	{ ae_lp16f.iu	aep0, a9, 2; ae_mulafs56p24s.hh	aeq0, aep0, aep1 }

000014a0 <Pitch_by_Corel+0x88>:
    14a0:	a08430        	addx4	a8, a4, a3
    14a3:	350174        	ae_sraiq56	aeq0, aeq0, 5
    14a6:	060934        	ae_roundsq32asym	aeq0, aeq0
    14a9:	068a04        	ae_addsq56s	aeq2, aeq0, aeq2

000014ac <Pitch_by_Corel+0x94>:
    14ac:	fa767d2c1f 	{ ae_lq32f.i	aeq1, a12, 4; ae_addsq56s	aeq2, aeq2, aeq1 }
    14b1:	fa767d2a1f 	{ ae_lq32f.i	aeq1, a10, 4; ae_addsq56s	aeq2, aeq2, aeq1 }
    14b6:	066904        	ae_addsq56s	aeq1, aeq2, aeq1
    14b9:	369194        	ae_sllisq56s	aeq2, aeq1, 6
    14bc:	066934        	ae_roundsq32asym	aeq1, aeq2
    14bf:	62d854        	ae_sq32f.xu	aeq1, a8, a5
    14c2:	0878           	l32i.n	a7, a8, 0
    14c4:	f9680ffffe 	{ addi	a15, a15, -1; ae_mulrfq32sp24s.h	aeq2, aeq0, aep2 }
    14c9:	537760        	max	a7, a7, a6
    14cc:	0879           	s32i.n	a7, a8, 0
    14ce:	626e14        	ae_sq32f.iu	aeq2, a14, 4
    14d1:	fc1c7d3d1f 	{ ae_lq32f.iu	aeq1, a13, 4; ae_movq56	aeq0, aeq3 }
    14d6:	f869401e8f 	{ movi	a8, 30; ae_mulrfq32sp24s.h	aeq1, aeq1, aep2 }
    14db:	0bab77        	bge	a11, a7, 14ea <Pitch_by_Corel+0xd2>
    14de:	0824a6        	blti	a4, 2, 14ea <Pitch_by_Corel+0xd2>
    14e1:	792c           	movi.n	a9, 39
    14e3:	032947        	blt	a9, a4, 14ea <Pitch_by_Corel+0xd2>
    14e6:	07bd           	mov.n	a11, a7
    14e8:	0179           	s32i.n	a7, a1, 0
    14ea:	621d04        	ae_sq32f.i	aeq1, a13, 0
    14ed:	441b           	addi.n	a4, a4, 1
    14ef:	844d           	ae_sext16	a4, a4
    14f1:	609c14        	ae_lq32f.iu	aeq2, a12, 4
    14f4:	08a494        	ae_mulrfq32sp24s.h	aeq2, aeq2, aep2
    14f7:	1174f0        	slli	a7, a4, 1
    14fa:	622c04        	ae_sq32f.i	aeq2, a12, 0
    14fd:	605a14        	ae_lq32f.iu	aeq1, a10, 4
    1500:	f86955727f 	{ sub	a7, a2, a7; ae_mulrfq32sp24s.h	aeq1, aeq1, aep2 }
    1505:	50c772        	addi	a7, a7, 80
    1508:	621a04        	ae_sq32f.i	aeq1, a10, 0
    150b:	f7bf56        	bnez	a15, 148a <Pitch_by_Corel+0x72>
    150e:	fb09d1        	l32r	a13, 134 (2ccccd <_end+0x2c0e91>)
    1511:	60c104        	ae_lq32f.i	aeq3, a1, 0
    1514:	01d3c2        	addmi	a12, a3, 0x100
    1517:	54ccc2        	addi	a12, a12, 84
    151a:	600c04        	ae_lq32f.i	aeq0, a12, 0
    151d:	06b814        	ae_subsq56s	aeq2, aeq3, aeq0
    1520:	fd80e22ddf 	{ ae_movpa24x2	aep2, a13, a13; ae_satq48s	aeq1, aeq2 }
    1525:	d469b0b18e 	{ l32i	a8, a1, 44; ae_mularfq32sp24s.h	aeq0, aeq1, aep2 }
    152a:	02d3a2        	addmi	a10, a3, 0x200
    152d:	ff00c50aae 	{ addi	a10, a10, 80; ae_satq48s	aeq3, aeq0 }
    1532:	623c04        	ae_sq32f.i	aeq3, a12, 0
    1535:	5523e2        	l32i	a14, a3, 0x154
    1538:	7e2892        	l32i	a9, a8, 0x1f8
    153b:	8d2c           	movi.n	a13, 40
    153d:	0a13c2        	l16ui	a12, a3, 20
    1540:	4399e0        	min	a9, a9, a14
    1543:	7e6892        	s32i	a9, a8, 0x1f8
    1546:	687cb6        	bltui	a12, 7, 15b2 <Pitch_by_Corel+0x19a>
    1549:	1199           	s32i.n	a9, a1, 4
    154b:	040c           	movi.n	a4, 0
    154d:	10ad76        	loopgtz	a13, 1561 <Pitch_by_Corel+0x149>
    1550:	a0f430        	addx4	a15, a4, a3
    1553:	ff5a           	add.n	a15, a15, a5
    1555:	2b2ff2        	l32i	a15, a15, 172
    1558:	441b           	addi.n	a4, a4, 1
    155a:	844d           	ae_sext16	a4, a4
    155c:	439f90        	min	a9, a15, a9
    155f:	1199           	s32i.n	a9, a1, 4

00001561 <Pitch_by_Corel+0x149>:
    1561:	fad4c1        	l32r	a12, b4 (7fffffff <_end+0x7fff41c3>)
    1564:	05d3e2        	addmi	a14, a3, 0x500
    1567:	fb0081        	l32r	a8, 168 (6ccccd <_end+0x6c0e91>)
    156a:	604a04        	ae_lq32f.i	aeq1, a10, 0
    156d:	01d3f2        	addmi	a15, a3, 0x100
    1570:	02d392        	addmi	a9, a3, 0x200
    1573:	d14b           	addi.n	a13, a1, 4
    1575:	608d04        	ae_lq32f.i	aeq2, a13, 0
    1578:	f8c992        	addi	a9, a9, -8
    157b:	58cff2        	addi	a15, a15, 88
    157e:	f3f6f0        	wur.ae_cbegin0	a15
    1581:	f3f790        	wur.ae_cend0	a9
    1584:	061a14        	ae_subsq56s	aeq0, aeq1, aeq2
    1587:	ff00e2388f 	{ ae_movpa24x2	aep3, a8, a8; ae_satq48s	aeq3, aeq0 }
    158c:	08b2d4        	ae_mularfq32sp24s.h	aeq2, aeq3, aep3
    158f:	b198           	l32i.n	a9, a1, 44
    1591:	064a44        	ae_satq48s	aeq1, aeq2
    1594:	621a04        	ae_sq32f.i	aeq1, a10, 0
    1597:	812982        	l32i	a8, a9, 0x204
    159a:	4d0c           	movi.n	a13, 4
    159c:	601ee4        	ae_lq32f.iu	aeq0, a14, -8
    159f:	fc24f808df 	{ ae_sq32f.c	aeq0, a8, a13; nop }
    15a4:	816982        	s32i	a8, a9, 0x204
    15a7:	7e69c2        	s32i	a12, a9, 0x1f8
    15aa:	0a5362        	s16i	a6, a3, 20
    15ad:	000186        	j	15b7 <Pitch_by_Corel+0x19f>

000015b0 <Pitch_by_Corel+0x198>:
	...

000015b2 <Pitch_by_Corel+0x19a>:
    15b2:	ec1b           	addi.n	a14, a12, 1
    15b4:	0a53e2        	s16i	a14, a3, 20

000015b7 <Pitch_by_Corel+0x19f>:
    15b7:	608a04        	ae_lq32f.i	aeq2, a10, 0
    15ba:	02d3c2        	addmi	a12, a3, 0x200
    15bd:	faebd1        	l32r	a13, 16c (59999a <_end+0x58db5e>)
    15c0:	398dd4        	ae_movpa24x2	aep0, a13, a13
    15c3:	fb00054cce 	{ addi	a12, a12, 84; ae_mulfq32sp24s.h	aeq2, aeq2, aep0 }
    15c8:	600c04        	ae_lq32f.i	aeq0, a12, 0
    15cb:	09a004        	ae_ltq56s	b0, aeq0, aeq2
    15ce:	21b9           	s32i.n	a11, a1, 8
    15d0:	fae871        	l32r	a7, 170 (70a3d7 <_end+0x6fe59b>)
    15d3:	021076        	bt	b0, 15d9 <Pitch_by_Corel+0x1c1>
    15d6:	00b9c6        	j	18c1 <Pitch_by_Corel+0x4a9>
    15d9:	fae6e1        	l32r	a14, 174 (733333 <_end+0x7274f7>)
    15dc:	399ee4        	ae_movpa24x2	aep1, a14, a14

000015df <Pitch_by_Corel+0x1c7>:
    15df:	942392        	l32i	a9, a3, 0x250

000015e2 <Pitch_by_Corel+0x1ca>:
    15e2:	2199           	s32i.n	a9, a1, 8
    15e4:	000086        	j	15ea <Pitch_by_Corel+0x1d2>

000015e7 <Pitch_by_Corel+0x1cf>:
    15e7:	399dd4        	ae_movpa24x2	aep1, a13, a13
    15ea:	608c04        	ae_lq32f.i	aeq2, a12, 0
    15ed:	918b           	addi.n	a9, a1, 8
    15ef:	60c904        	ae_lq32f.i	aeq3, a9, 0
    15f2:	066b14        	ae_subsq56s	aeq1, aeq2, aeq3
    15f5:	060944        	ae_satq48s	aeq0, aeq1
    15f8:	089a24        	ae_mulafq32sp24s.h	aeq3, aeq0, aep1
    15fb:	fadff1        	l32r	a15, 178 (3fff <find_phase+0x7>)
    15fe:	064b44        	ae_satq48s	aeq1, aeq3
    1601:	069834        	ae_roundsq32sym	aeq2, aeq1
    1604:	622c04        	ae_sq32f.i	aeq2, a12, 0
    1607:	952382        	l32i	a8, a3, 0x254
    160a:	fac1a1        	l32r	a10, 110 (4000 <find_phase+0x8>)
    160d:	360a34        	ae_cvtq48a32s	aeq0, a10
    1610:	f86b104f8e 	{ blt	a15, a8, 1618 <Pitch_by_Corel+0x200>; ae_maxq56s	aeq0, aeq0, aeq1 }
    1615:	9563a2        	s32i	a10, a3, 0x254

00001618 <Pitch_by_Corel+0x200>:
    1618:	faa3a1        	l32r	a10, a4 (be30 <p_ecnr_mem>)
    161b:	fad881        	l32r	a8, 17c (fb8 <voiced_decision>)
    161e:	0aa8           	l32i.n	a10, a10, 0
    1620:	78c192        	addi	a9, a1, 120
    1623:	6309b4        	ae_sq56s.i	aeq0, a9, -40
    1626:	55daa2        	addmi	a10, a10, 0x5500
    1629:	d0caa2        	addi	a10, a10, -48
    162c:	0008e0        	callx8	a8
    162f:	fa9d91        	l32r	a9, a4 (be30 <p_ecnr_mem>)
    1632:	040c           	movi.n	a4, 0
    1634:	78c1b2        	addi	a11, a1, 120
    1637:	0998           	l32i.n	a9, a9, 0
    1639:	610bb4        	ae_lq56.i	aeq0, a11, -40
    163c:	ab0c           	movi.n	a11, 10
    163e:	18d992        	addmi	a9, a9, 0x1800
    1641:	68c9a2        	addi	a10, a9, 104
    1644:	91a9           	s32i.n	a10, a1, 36
    1646:	992992        	l32i	a9, a9, 0x264
    1649:	08ab76        	loopgtz	a11, 1655 <Pitch_by_Corel+0x23d>
    164c:	a08490        	addx4	a8, a4, a9
    164f:	0869           	s32i.n	a6, a8, 0
    1651:	441b           	addi.n	a4, a4, 1
    1653:	844d           	ae_sext16	a4, a4

00001655 <Pitch_by_Corel+0x23d>:
    1655:	9198           	l32i.n	a9, a1, 36
    1657:	7f2992        	l32i	a9, a9, 0x1fc
    165a:	040c           	movi.n	a4, 0
    165c:	aa2c           	movi.n	a10, 42
    165e:	28c992        	addi	a9, a9, 40
    1661:	0caa76        	loopgtz	a10, 1671 <Pitch_by_Corel+0x259>
    1664:	908430        	addx2	a8, a4, a3
    1667:	441b           	addi.n	a4, a4, 1
    1669:	fc1882        	l16ui	a8, a8, 0x1f8
    166c:	09c984        	ae_s16ip	a8, a9, 2
    166f:	844d           	ae_sext16	a4, a4
    1671:	6e2c           	movi.n	a14, 38
    1673:	090c           	movi.n	a9, 0
    1675:	240c           	movi.n	a4, 2
    1677:	04aff2        	movi	a15, -252
    167a:	91d8           	l32i.n	a13, a1, 36
    167c:	234b           	addi.n	a2, a3, 4
    167e:	102382        	l32i	a8, a3, 64
    1681:	c35a           	add.n	a12, a3, a5
    1683:	0cad           	mov.n	a10, a12
    1685:	6389           	s32i.n	a8, a3, 24
    1687:	a129           	s32i.n	a2, a1, 40
    1689:	7f2dd2        	l32i	a13, a13, 0x1fc
    168c:	020c           	movi.n	a2, 0
    168e:	580c           	movi.n	a8, 5
    1690:	2ccdd2        	addi	a13, a13, 44
    1693:	80ddf0        	add	a13, a13, a15
    1696:	90f430        	addx2	a15, a4, a3

00001699 <Pitch_by_Corel+0x281>:
    1699:	404304        	ae_lp16f.i	aep4, a3, 0
    169c:	d572efcfbe 	{ l16si	a11, a15, 0x1f8; ae_mulfq32sp16u.h	aeq3, aeq0, aep4 }
    16a1:	06a876        	loopgtz	a8, 16ab <Pitch_by_Corel+0x293>
    16a4:	0a88           	l32i.n	a8, a10, 0
    16a6:	aa4b           	addi.n	a10, a10, 4
    16a8:	539890        	max	a9, a8, a9

000016ab <Pitch_by_Corel+0x293>:
    16ab:	a0a430        	addx4	a10, a4, a3
    16ae:	607a54        	ae_lq32f.xu	aeq1, a10, a5
    16b1:	3590f4        	ae_sraiq56	aeq2, aeq1, 3
    16b4:	09a314        	ae_ltq56s	b1, aeq3, aeq2
    16b7:	ee0b           	addi.n	a14, a14, -1
    16b9:	cc4b           	addi.n	a12, a12, 4
    16bb:	210176        	bf	b1, 16e0 <Pitch_by_Corel+0x2c8>
    16be:	0a88           	l32i.n	a8, a10, 0
    16c0:	c08890        	sub	a8, a8, a9
    16c3:	17c856        	bnez	a8, 1843 <Pitch_by_Corel+0x42b>
    16c6:	7e9d92        	l16si	a9, a13, 252
    16c9:	60c104        	ae_lq32f.i	aeq3, a1, 0
    16cc:	39b774        	ae_movpa24x2	aep3, a7, a7
    16cf:	17f956        	bnez	a9, 1852 <Pitch_by_Corel+0x43a>
    16d2:	7d9da2        	l16si	a10, a13, 250
    16d5:	021ae6        	bgei	a10, 1, 16db <Pitch_by_Corel+0x2c3>
    16d8:	005b06        	j	1848 <Pitch_by_Corel+0x430>
    16db:	0abd           	mov.n	a11, a10
    16dd:	005c46        	j	1852 <Pitch_by_Corel+0x43a>

000016e0 <Pitch_by_Corel+0x2c8>:
    16e0:	06bd           	mov.n	a11, a6
    16e2:	000446        	j	16f7 <Pitch_by_Corel+0x2df>

000016e5 <Pitch_by_Corel+0x2cd>:
    16e5:	60c104        	ae_lq32f.i	aeq3, a1, 0
    16e8:	08dce4        	ae_mulfq32sp24s.h	aeq3, aeq3, aep5
    16eb:	099324        	ae_ltq56s	b2, aeq3, aeq1
    16ee:	fbcbb2        	addi	a11, a11, -5
    16f1:	53b6b0        	max	a11, a6, a11
    16f4:	c3b920        	movf	a11, a9, b2

000016f7 <Pitch_by_Corel+0x2df>:
    16f7:	dd2b           	addi.n	a13, a13, 2
    16f9:	0cad           	mov.n	a10, a12
    16fb:	090c           	movi.n	a9, 0
    16fd:	580c           	movi.n	a8, 5
    16ff:	fc5fb2        	s16i	a11, a15, 0x1f8
    1702:	441b           	addi.n	a4, a4, 1
    1704:	844d           	ae_sext16	a4, a4
    1706:	90f430        	addx2	a15, a4, a3
    1709:	f8ce56        	bnez	a14, 1699 <Pitch_by_Corel+0x281>
    170c:	14c182        	addi	a8, a1, 20
    170f:	10c192        	addi	a9, a1, 16
    1712:	400304        	ae_lp16f.i	aep0, a3, 0
    1715:	d462ec731f 	{ ae_lp16f.i	aep7, a3, 2; ae_mulfq32sp16u.h	aeq1, aeq0, aep0 }
    171a:	fa9aa1        	l32r	a10, 184 (5d70a4 <_end+0x5cb268>)
    171d:	d47fe26aaf 	{ ae_movpa24x2	aep6, a10, a10; ae_mulfq32sp16u.h	aeq1, aeq1, aep7 }
    1722:	600104        	ae_lq32f.i	aeq0, a1, 0
    1725:	f9793b010f 	{ ae_sraiq56	aeq0, aeq0, 4; ae_mulrfq32sp24s.h	aeq2, aeq1, aep6 }
    172a:	621904        	ae_sq32f.i	aeq1, a9, 0
    172d:	622804        	ae_sq32f.i	aeq2, a8, 0
    1730:	27f216        	beqz	a2, 19b3 <Pitch_by_Corel+0x59b>
    1733:	098534        	ae_leq56s	b3, aeq1, aeq0
    1736:	111376        	bt	b3, 174b <Pitch_by_Corel+0x333>
    1739:	098644        	ae_leq56s	b4, aeq2, aeq0
    173c:	0913a2        	l16ui	a10, a3, 18
    173f:	021476        	bt	b4, 1745 <Pitch_by_Corel+0x32d>
    1742:	0088c6        	j	1969 <Pitch_by_Corel+0x551>
    1745:	022af6        	bgeui	a10, 2, 174b <Pitch_by_Corel+0x333>
    1748:	008746        	j	1969 <Pitch_by_Corel+0x551>

0000174b <Pitch_by_Corel+0x333>:
    174b:	600104        	ae_lq32f.i	aeq0, a1, 0
    174e:	fa8ed1        	l32r	a13, 188 (14000 <_end+0x81c4>)
    1751:	0212e6        	bgei	a2, 1, 1757 <Pitch_by_Corel+0x33f>
    1754:	006106        	j	18dc <Pitch_by_Corel+0x4c4>
    1757:	040c           	movi.n	a4, 0
    1759:	91c8           	l32i.n	a12, a1, 36
    175b:	fa84f1        	l32r	a15, 16c (59999a <_end+0x58db5e>)
    175e:	399ff4        	ae_movpa24x2	aep1, a15, a15
    1761:	f9040781ee 	{ addi	a14, a1, 120; ae_mulfq32sp24s.h	aeq2, aeq0, aep1 }
    1766:	7f2cc2        	l32i	a12, a12, 0x1fc
    1769:	632ea4        	ae_sq56s.i	aeq2, a14, -48

0000176c <Pitch_by_Corel+0x354>:
    176c:	90b4c0        	addx2	a11, a4, a12
    176f:	2bbd           	ae_l16si.n	a11, a11, 0
    1771:	1174f0        	slli	a7, a4, 1
    1774:	909b30        	addx2	a9, a11, a3
    1777:	fc19e2        	l16ui	a14, a9, 0x1f8
    177a:	78c1f2        	addi	a15, a1, 120
    177d:	61cfa4        	ae_lq56.i	aeq3, a15, -48
    1780:	026ef6        	bgeui	a14, 6, 1786 <Pitch_by_Corel+0x36e>
    1783:	002bc6        	j	1836 <Pitch_by_Corel+0x41e>
    1786:	a0eb30        	addx4	a14, a11, a3
    1789:	c1e9           	s32i.n	a14, a1, 48
    178b:	603e54        	ae_lq32f.xu	aeq0, a14, a5
    178e:	098354        	ae_ltq56s	b5, aeq3, aeq0
    1791:	8199           	s32i.n	a9, a1, 32
    1793:	d1e9           	s32i.n	a14, a1, 52
    1795:	021576        	bt	b5, 179b <Pitch_by_Corel+0x383>
    1798:	002686        	j	1836 <Pitch_by_Corel+0x41e>
    179b:	21b9           	s32i.n	a11, a1, 8
    179d:	fa6281        	l32r	a8, 128 (2168 <Xfrac_num_pd_td32>)
    17a0:	0ead           	mov.n	a10, a14
    17a2:	9c0c           	movi.n	a12, 9
    17a4:	0008e0        	callx8	a8
    17a7:	63c8           	l32i.n	a12, a3, 24
    17a9:	61a9           	s32i.n	a10, a1, 24
    17ab:	fa77d1        	l32r	a13, 188 (14000 <_end+0x81c4>)
    17ae:	26bc16        	beqz	a12, 1a1d <Pitch_by_Corel+0x605>
    17b1:	c09ca0        	sub	a9, a12, a10
    17b4:	022d97        	blt	a13, a9, 17ba <Pitch_by_Corel+0x3a2>
    17b7:	009886        	j	1a1d <Pitch_by_Corel+0x605>
    17ba:	b1b8           	l32i.n	a11, a1, 44
    17bc:	fe1bb2        	l16ui	a11, a11, 0x1fc
    17bf:	90cb30        	addx2	a12, a11, a3
    17c2:	fb1ca2        	l16ui	a10, a12, 0x1f6
    17c5:	ae0c           	movi.n	a14, 10
    17c7:	9b0b           	addi.n	a9, a11, -1
    17c9:	30bea7        	bgeu	a14, a10, 17fd <Pitch_by_Corel+0x3e5>

000017cc <Pitch_by_Corel+0x3b4>:
    17cc:	99bd           	ae_zext16	a11, a9

000017ce <Pitch_by_Corel+0x3b6>:
    17ce:	90eb30        	addx2	a14, a11, a3
    17d1:	fc1ee2        	l16ui	a14, a14, 0x1f8
    17d4:	ac0c           	movi.n	a12, 10
    17d6:	a0bb30        	addx4	a11, a11, a3
    17d9:	023ce7        	bltu	a12, a14, 17df <Pitch_by_Corel+0x3c7>
    17dc:	008f46        	j	1a1d <Pitch_by_Corel+0x605>
    17df:	c1c8           	l32i.n	a12, a1, 48
    17e1:	2b2bf2        	l32i	a15, a11, 172
    17e4:	2b2cc2        	l32i	a12, a12, 172
    17e7:	4188           	l32i.n	a8, a1, 16
    17e9:	3b2cf7        	blt	a12, a15, 1828 <Pitch_by_Corel+0x410>
    17ec:	21f5c0        	srai	a15, a12, 5
    17ef:	352f87        	blt	a15, a8, 1828 <Pitch_by_Corel+0x410>
    17f2:	8198           	l32i.n	a9, a1, 32
    17f4:	fc1992        	l16ui	a9, a9, 0x1f8
    17f7:	0d6926        	beqi	a9, 6, 1808 <Pitch_by_Corel+0x3f0>
    17fa:	0087c6        	j	1a1d <Pitch_by_Corel+0x605>

000017fd <Pitch_by_Corel+0x3e5>:
    17fd:	fd1ca2        	l16ui	a10, a12, 0x1fa
    1800:	9b1b           	addi.n	a9, a11, 1
    1802:	c8bea7        	bgeu	a14, a10, 17ce <Pitch_by_Corel+0x3b6>
    1805:	fff0c6        	j	17cc <Pitch_by_Corel+0x3b4>

00001808 <Pitch_by_Corel+0x3f0>:
    1808:	02aef6        	bgeui	a14, 12, 180e <Pitch_by_Corel+0x3f6>
    180b:	008386        	j	1a1d <Pitch_by_Corel+0x605>
    180e:	d1e8           	l32i.n	a14, a1, 52
    1810:	fa5fc1        	l32r	a12, 18c (666666 <_end+0x65a82a>)
    1813:	39acc4        	ae_movpa24x2	aep2, a12, a12
    1816:	604e04        	ae_lq32f.i	aeq1, a14, 0
    1819:	082c54        	ae_mulrfq32sp24s.h	aeq1, aeq1, aep2
    181c:	60ab54        	ae_lq32f.x	aeq2, a11, a5
    181f:	09a164        	ae_ltq56s	b6, aeq1, aeq2
    1822:	021676        	bt	b6, 1828 <Pitch_by_Corel+0x410>
    1825:	007d06        	j	1a1d <Pitch_by_Corel+0x605>

00001828 <Pitch_by_Corel+0x410>:
    1828:	fa1fc1        	l32r	a12, a4 (be30 <p_ecnr_mem>)
    182b:	0cc8           	l32i.n	a12, a12, 0
    182d:	18dcc2        	addmi	a12, a12, 0x1800
    1830:	68ccc2        	addi	a12, a12, 104
    1833:	7f2cc2        	l32i	a12, a12, 0x1fc

00001836 <Pitch_by_Corel+0x41e>:
    1836:	441b           	addi.n	a4, a4, 1
    1838:	844d           	ae_sext16	a4, a4
    183a:	c0e420        	sub	a14, a4, a2
    183d:	f2be56        	bnez	a14, 176c <Pitch_by_Corel+0x354>
    1840:	0027c6        	j	18e3 <Pitch_by_Corel+0x4cb>

00001843 <Pitch_by_Corel+0x42b>:
    1843:	06bd           	mov.n	a11, a6
    1845:	ffab86        	j	16f7 <Pitch_by_Corel+0x2df>

00001848 <Pitch_by_Corel+0x430>:
    1848:	69cc           	bnez.n	a9, 1852 <Pitch_by_Corel+0x43a>
    184a:	7f9d92        	l16si	a9, a13, 254
    184d:	0119a6        	blti	a9, 1, 1852 <Pitch_by_Corel+0x43a>
    1850:	09bd           	mov.n	a11, a9
    1852:	a198           	l32i.n	a9, a1, 40
    1854:	404904        	ae_lp16f.i	aep4, a9, 0
    1857:	03cae4        	ae_mulfq32sp16u.h	aeq3, aeq3, aep4
    185a:	03c2e4        	ae_mulfq32sp16u.h	aeq2, aeq3, aep4
    185d:	78c182        	addi	a8, a1, 120
    1860:	fb0c3a289f 	{ ae_sq56s.i	aeq2, a8, -56; ae_mulfq32sp24s.h	aeq2, aeq2, aep3 }
    1865:	a21b           	addi.n	a10, a2, 1
    1867:	d6c9c0009f 	{ movi	a9, 0; ae_ltq56s	b7, aeq2, aeq1 }
    186c:	fa4581        	l32r	a8, 180 (39999a <_end+0x38db5e>)
    186f:	d6ce22588f 	{ ae_movpa24x2	aep5, a8, a8; ae_ltq56s	b8, aeq3, aeq1 }
    1874:	021776        	bt	b7, 187a <Pitch_by_Corel+0x462>
    1877:	ff9a86        	j	16e5 <Pitch_by_Corel+0x2cd>
    187a:	9188           	l32i.n	a8, a1, 36
    187c:	7f2882        	l32i	a8, a8, 0x1fc
    187f:	9b2b           	addi.n	a9, a11, 2
    1881:	902280        	addx2	a2, a2, a8
    1884:	624d           	ae_s16i.n	a4, a2, 0
    1886:	9a2d           	ae_zext16	a2, a10
    1888:	090876        	bf	b8, 1895 <Pitch_by_Corel+0x47d>

0000188b <Pitch_by_Corel+0x473>:
    188b:	89bd           	ae_sext16	a11, a9

0000188d <Pitch_by_Corel+0x475>:
    188d:	491c           	movi.n	a9, 20
    188f:	43bb90        	min	a11, a11, a9
    1892:	ff9846        	j	16f7 <Pitch_by_Corel+0x2df>

00001895 <Pitch_by_Corel+0x47d>:
    1895:	78c1a2        	addi	a10, a1, 120
    1898:	618a94        	ae_lq56.i	aeq2, a10, -56
    189b:	099294        	ae_ltq56s	b9, aeq2, aeq1
    189e:	9b1b           	addi.n	a9, a11, 1
    18a0:	61ca94        	ae_lq56.i	aeq3, a10, -56
    18a3:	020976        	bf	b9, 18a9 <Pitch_by_Corel+0x491>
    18a6:	fff846        	j	188b <Pitch_by_Corel+0x473>

000018a9 <Pitch_by_Corel+0x491>:
    18a9:	fa3291        	l32r	a9, 174 (733333 <_end+0x7274f7>)
    18ac:	39d994        	ae_movpa24x2	aep5, a9, a9
    18af:	08dce4        	ae_mulfq32sp24s.h	aeq3, aeq3, aep5
    18b2:	09b1a4        	ae_ltq56s	b10, aeq1, aeq3
    18b5:	fecb92        	addi	a9, a11, -2
    18b8:	539690        	max	a9, a6, a9
    18bb:	ce0a76        	bf	b10, 188d <Pitch_by_Corel+0x475>
    18be:	fff246        	j	188b <Pitch_by_Corel+0x473>

000018c1 <Pitch_by_Corel+0x4a9>:
    18c1:	39e774        	ae_movpa24x2	aep6, a7, a7
    18c4:	604a04        	ae_lq32f.i	aeq1, a10, 0
    18c7:	086c64        	ae_mulfq32sp24s.h	aeq1, aeq1, aep6
    18ca:	0990b4        	ae_ltq56s	b11, aeq0, aeq1
    18cd:	fa30d1        	l32r	a13, 190 (7e147b <_end+0x7d563f>)
    18d0:	021b76        	bt	b11, 18d6 <Pitch_by_Corel+0x4be>
    18d3:	002d06        	j	198b <Pitch_by_Corel+0x573>
    18d6:	399dd4        	ae_movpa24x2	aep1, a13, a13
    18d9:	ff4086        	j	15df <Pitch_by_Corel+0x1c7>

000018dc <Pitch_by_Corel+0x4c4>:
    18dc:	91c8           	l32i.n	a12, a1, 36
    18de:	040c           	movi.n	a4, 0
    18e0:	7f2cc2        	l32i	a12, a12, 0x1fc

000018e3 <Pitch_by_Corel+0x4cb>:
    18e3:	1174f0        	slli	a7, a4, 1

000018e6 <Pitch_by_Corel+0x4ce>:
    18e6:	b7ca           	add.n	a11, a7, a12
    18e8:	2bbd           	ae_l16si.n	a11, a11, 0
    18ea:	90eb30        	addx2	a14, a11, a3
    18ed:	fc1ee2        	l16ui	a14, a14, 0x1f8
    18f0:	0913a2        	l16ui	a10, a3, 18
    18f3:	027ef6        	bgeui	a14, 7, 18f9 <Pitch_by_Corel+0x4e1>
    18f6:	002006        	j	197a <Pitch_by_Corel+0x562>
    18f9:	61e8           	l32i.n	a14, a1, 24
    18fb:	63c8           	l32i.n	a12, a3, 24
    18fd:	9bbd           	ae_zext16	a11, a11
    18ff:	0e51b2        	s16i	a11, a1, 28
    1902:	c0fce0        	sub	a15, a12, a14
    1905:	60f1f0        	abs	a15, a15
    1908:	30adf7        	bge	a13, a15, 193c <Pitch_by_Corel+0x524>
    190b:	023af6        	bgeui	a10, 3, 1911 <Pitch_by_Corel+0x4f9>
    190e:	004706        	j	1a2e <Pitch_by_Corel+0x616>
    1911:	4181e0        	srli	a8, a14, 1
    1914:	c08c80        	sub	a8, a12, a8
    1917:	608180        	abs	a8, a8
    191a:	02ad87        	bge	a13, a8, 1920 <Pitch_by_Corel+0x508>
    191d:	004346        	j	1a2e <Pitch_by_Corel+0x616>
    1920:	18c1d2        	addi	a13, a1, 24
    1923:	608d04        	ae_lq32f.i	aeq2, a13, 0
    1926:	35a074        	ae_sraiq56	aeq2, aeq2, 1
    1929:	fbf3c1c1ce 	{ addi	a12, a1, 28; ae_roundsp16q48sym	aep7, aeq2 }
    192e:	427c04        	ae_sp16f.l.i	aep7, a12, 0
    1931:	0e11b2        	l16ui	a11, a1, 28
    1934:	f7cbb2        	addi	a11, a11, -9
    1937:	9bbd           	ae_zext16	a11, a11
    1939:	0e51b2        	s16i	a11, a1, 28

0000193c <Pitch_by_Corel+0x524>:
    193c:	9a1b           	addi.n	a9, a10, 1

0000193e <Pitch_by_Corel+0x526>:
    193e:	b1e8           	l32i.n	a14, a1, 44
    1940:	095392        	s16i	a9, a3, 18
    1943:	fe1ee2        	l16ui	a14, a14, 0x1fc
    1946:	07de16        	beqz	a14, 19c7 <Pitch_by_Corel+0x5af>
    1949:	7369           	s32i.n	a6, a3, 28

0000194b <Pitch_by_Corel+0x533>:
    194b:	b1f8           	l32i.n	a15, a1, 44
    194d:	fe5fb2        	s16i	a11, a15, 0x1fc
    1950:	0b9c           	beqz.n	a11, 1964 <Pitch_by_Corel+0x54c>
    1952:	9c0c           	movi.n	a12, 9
    1954:	f9f581        	l32r	a8, 128 (2168 <Xfrac_num_pd_td32>)
    1957:	a0ab30        	addx4	a10, a11, a3
    195a:	aa5a           	add.n	a10, a10, a5
    195c:	0008e0        	callx8	a8

0000195f <Pitch_by_Corel+0x547>:
    195f:	1063a2        	s32i	a10, a3, 64
    1962:	f01d           	retw.n

00001964 <Pitch_by_Corel+0x54c>:
    1964:	06ad           	mov.n	a10, a6
    1966:	fffd46        	j	195f <Pitch_by_Corel+0x547>

00001969 <Pitch_by_Corel+0x551>:
    1969:	3acc           	bnez.n	a10, 1970 <Pitch_by_Corel+0x558>
    196b:	b1b8           	l32i.n	a11, a1, 44
    196d:	fe5b62        	s16i	a6, a11, 0x1fc

00001970 <Pitch_by_Corel+0x558>:
    1970:	069d           	mov.n	a9, a6
    1972:	0b0c           	movi.n	a11, 0
    1974:	0e51b2        	s16i	a11, a1, 28
    1977:	fff0c6        	j	193e <Pitch_by_Corel+0x526>

0000197a <Pitch_by_Corel+0x562>:
    197a:	3acc           	bnez.n	a10, 1981 <Pitch_by_Corel+0x569>
    197c:	b1c8           	l32i.n	a12, a1, 44
    197e:	fe5c62        	s16i	a6, a12, 0x1fc

00001981 <Pitch_by_Corel+0x569>:
    1981:	069d           	mov.n	a9, a6
    1983:	0b0c           	movi.n	a11, 0
    1985:	0e51b2        	s16i	a11, a1, 28
    1988:	ffec86        	j	193e <Pitch_by_Corel+0x526>

0000198b <Pitch_by_Corel+0x573>:
    198b:	600a04        	ae_lq32f.i	aeq0, a10, 0
    198e:	fa01f1        	l32r	a15, 194 (100000 <_end+0xf41c4>)
    1991:	399ff4        	ae_movpa24x2	aep1, a15, a15
    1994:	081214        	ae_mularfq32sp24s.h	aeq0, aeq0, aep1
    1997:	ff00c0c1ee 	{ addi	a14, a1, 12; ae_satq48s	aeq3, aeq0 }
    199c:	623e04        	ae_sq32f.i	aeq3, a14, 0
    199f:	31a8           	l32i.n	a10, a1, 12
    19a1:	022ab7        	blt	a10, a11, 19a7 <Pitch_by_Corel+0x58f>
    19a4:	ff0fc6        	j	15e7 <Pitch_by_Corel+0x1cf>
    19a7:	0a9d           	mov.n	a9, a10
    19a9:	f9fb81        	l32r	a8, 198 (7fbe77 <_end+0x7f003b>)
    19ac:	399884        	ae_movpa24x2	aep1, a8, a8
    19af:	ff0bc6        	j	15e2 <Pitch_by_Corel+0x1ca>

000019b2 <Pitch_by_Corel+0x59a>:
	...

000019b3 <Pitch_by_Corel+0x59b>:
    19b3:	091392        	l16ui	a9, a3, 18
    19b6:	39cc           	bnez.n	a9, 19bd <Pitch_by_Corel+0x5a5>
    19b8:	b1a8           	l32i.n	a10, a1, 44
    19ba:	fe5a62        	s16i	a6, a10, 0x1fc

000019bd <Pitch_by_Corel+0x5a5>:
    19bd:	069d           	mov.n	a9, a6
    19bf:	0b0c           	movi.n	a11, 0
    19c1:	0e51b2        	s16i	a11, a1, 28
    19c4:	ffdd86        	j	193e <Pitch_by_Corel+0x526>

000019c7 <Pitch_by_Corel+0x5af>:
    19c7:	6369           	s32i.n	a6, a3, 24
    19c9:	0a0c           	movi.n	a10, 0
    19cb:	0b0c           	movi.n	a11, 0
    19cd:	040c           	movi.n	a4, 0
    19cf:	bc2c           	movi.n	a12, 43
    19d1:	10ac76        	loopgtz	a12, 19e5 <Pitch_by_Corel+0x5cd>
    19d4:	90c430        	addx2	a12, a4, a3
    19d7:	fc1cc2        	l16ui	a12, a12, 0x1f8
    19da:	03bac7        	bgeu	a10, a12, 19e1 <Pitch_by_Corel+0x5c9>
    19dd:	0cad           	mov.n	a10, a12
    19df:	04bd           	mov.n	a11, a4

000019e1 <Pitch_by_Corel+0x5c9>:
    19e1:	441b           	addi.n	a4, a4, 1
    19e3:	844d           	ae_sext16	a4, a4

000019e5 <Pitch_by_Corel+0x5cd>:
    19e5:	2f4ab6        	bltui	a10, 4, 1a18 <Pitch_by_Corel+0x600>
    19e8:	a0ab30        	addx4	a10, a11, a3
    19eb:	10c1c2        	addi	a12, a1, 16
    19ee:	f9ebd1        	l32r	a13, 19c (ccccd <_end+0xc0e91>)
    19f1:	39add4        	ae_movpa24x2	aep2, a13, a13
    19f4:	60cc04        	ae_lq32f.i	aeq3, a12, 0
    19f7:	08aad4        	ae_mularfq32sp24s.h	aeq3, aeq3, aep2
    19fa:	60ba54        	ae_lq32f.xu	aeq2, a10, a5
    19fd:	fd84fb218f 	{ ae_sraiq56	aeq2, aeq2, 4; ae_satq48s	aeq1, aeq3 }
    1a02:	09a1c4        	ae_ltq56s	b12, aeq1, aeq2
    1a05:	0f0c76        	bf	b12, 1a18 <Pitch_by_Corel+0x600>
    1a08:	f9c881        	l32r	a8, 128 (2168 <Xfrac_num_pd_td32>)
    1a0b:	9c0c           	movi.n	a12, 9
    1a0d:	0008e0        	callx8	a8

00001a10 <Pitch_by_Corel+0x5f8>:
    1a10:	73a9           	s32i.n	a10, a3, 28
    1a12:	0e11b2        	l16ui	a11, a1, 28
    1a15:	ffcc86        	j	194b <Pitch_by_Corel+0x533>

00001a18 <Pitch_by_Corel+0x600>:
    1a18:	06ad           	mov.n	a10, a6
    1a1a:	fffc86        	j	1a10 <Pitch_by_Corel+0x5f8>

00001a1d <Pitch_by_Corel+0x605>:
    1a1d:	f9a1c1        	l32r	a12, a4 (be30 <p_ecnr_mem>)
    1a20:	0cc8           	l32i.n	a12, a12, 0
    1a22:	18dcc2        	addmi	a12, a12, 0x1800
    1a25:	68ccc2        	addi	a12, a12, 104
    1a28:	7f2cc2        	l32i	a12, a12, 0x1fc
    1a2b:	ffadc6        	j	18e6 <Pitch_by_Corel+0x4ce>

00001a2e <Pitch_by_Corel+0x616>:
    1a2e:	b1d8           	l32i.n	a13, a1, 44
    1a30:	069d           	mov.n	a9, a6
    1a32:	fe5d62        	s16i	a6, a13, 0x1fc
    1a35:	ffc146        	j	193e <Pitch_by_Corel+0x526>

00001a38 <PD_TD_prcs>:
    1a38:	004136        	entry	a1, 32
    1a3b:	f99a31        	l32r	a3, a4 (be30 <p_ecnr_mem>)
    1a3e:	f9d841        	l32r	a4, 1a0 (5514 <beam2_mid_band+0xa0>)
    1a41:	03b8           	l32i.n	a11, a3, 0
    1a43:	2c3c           	movi.n	a12, 50
    1a45:	f9a181        	l32r	a8, cc (9240 <xt_memcpy>)
    1a48:	18db22        	addmi	a2, a11, 0x1800
    1a4b:	9a2222        	l32i	a2, a2, 0x268
    1a4e:	55dbb2        	addmi	a11, a11, 0x5500
    1a51:	14cbb2        	addi	a11, a11, 20
    1a54:	9cc222        	addi	a2, a2, -100
    1a57:	02ad           	mov.n	a10, a2
    1a59:	0008e0        	callx8	a8
    1a5c:	f9d251        	l32r	a5, 1a4 (54d0 <beam2_mid_band+0x5c>)
    1a5f:	03b8           	l32i.n	a11, a3, 0
    1a61:	02ad           	mov.n	a10, a2
    1a63:	f9d181        	l32r	a8, 1a8 (1418 <Pitch_by_Corel>)
    1a66:	55dbb2        	addmi	a11, a11, 0x5500
    1a69:	d0cbb2        	addi	a11, a11, -48
    1a6c:	0008e0        	callx8	a8
    1a6f:	03b8           	l32i.n	a11, a3, 0
    1a71:	f9cd81        	l32r	a8, 1a8 (1418 <Pitch_by_Corel>)
    1a74:	3cc2a2        	addi	a10, a2, 60
    1a77:	bb5a           	add.n	a11, a11, a5
    1a79:	0008e0        	callx8	a8
    1a7c:	78c2b2        	addi	a11, a2, 120
    1a7f:	03a8           	l32i.n	a10, a3, 0
    1a81:	f99281        	l32r	a8, cc (9240 <xt_memcpy>)
    1a84:	2c3c           	movi.n	a12, 50
    1a86:	aa4a           	add.n	a10, a10, a4
    1a88:	0008e0        	callx8	a8
    1a8b:	f01d           	retw.n

00001a8d <PD_TD_prcs+0x55>:
    1a8d:	000000                                        ...

00001a90 <pitch_by_harmonic>:
    1a90:	00c136        	entry	a1, 96
    1a93:	f9c661        	l32r	a6, 1ac (aaaab <_end+0x9ec6f>)
    1a96:	03bd           	mov.n	a11, a3
    1a98:	024d           	mov.n	a4, a2
    1a9a:	f98231        	l32r	a3, a4 (be30 <p_ecnr_mem>)
    1a9d:	0258           	l32i.n	a5, a2, 0
    1a9f:	080c           	movi.n	a8, 0
    1aa1:	0338           	l32i.n	a3, a3, 0
    1aa3:	a1b9           	s32i.n	a11, a1, 40
    1aa5:	145282        	s16i	a8, a2, 40
    1aa8:	55d372        	addmi	a7, a3, 0x5500
    1aab:	53d3e2        	addmi	a14, a3, 0x5300
    1aae:	7a2ed2        	l32i	a13, a14, 0x1e8
    1ab1:	d0c772        	addi	a7, a7, -48
    1ab4:	ecce22        	addi	a2, a14, -20
    1ab7:	46bd16        	beqz	a13, 1f26 <pitch_by_harmonic+0x496>
    1aba:	f980b1        	l32r	a11, bc (80000000 <_end+0x7fff41c4>)
    1abd:	11cd20        	slli	a12, a13, 14
    1ac0:	f9bc81        	l32r	a8, 1b0 (92c8 <__udivdi3>)
    1ac3:	0a0c           	movi.n	a10, 0
    1ac5:	d5d2d0        	extui	a13, a13, 18, 14
    1ac8:	0008e0        	callx8	a8
    1acb:	1c0c           	movi.n	a12, 1
    1acd:	ee3c           	movi.n	a14, 62
    1acf:	01a9           	s32i.n	a10, a1, 0
    1ad1:	02d292        	addmi	a9, a2, 0x200
    1ad4:	8322b2        	l32i	a11, a2, 0x20c
    1ad7:	5d0c           	movi.n	a13, 5
    1ad9:	0859d2        	s16i	a13, a9, 16
    1adc:	021be6        	bgei	a11, 1, 1ae2 <pitch_by_harmonic+0x52>
    1adf:	015cc6        	j	2056 <pitch_by_harmonic+0x5c6>
    1ae2:	f9b4f1        	l32r	a15, 1b4 (54f8 <beam2_mid_band+0x84>)
    1ae5:	398664        	ae_movpa24x2	aep0, a6, a6
    1ae8:	60a3f4        	ae_lq32f.x	aeq2, a3, a15
    1aeb:	fa003d210f 	{ ae_lq32f.i	aeq1, a1, 0; ae_mulfq32sp24s.h	aeq0, aeq2, aep0 }
    1af0:	06da14        	ae_subsq56s	aeq3, aeq1, aeq2
    1af3:	068b44        	ae_satq48s	aeq2, aeq3
    1af6:	067a24        	ae_abssq56s	aeq1, aeq2
    1af9:	099004        	ae_ltq56s	b0, aeq0, aeq1
    1afc:	021076        	bt	b0, 1b02 <pitch_by_harmonic+0x72>
    1aff:	013e06        	j	1ffb <pitch_by_harmonic+0x56b>
    1b02:	0a9982        	l16si	a8, a9, 20
    1b05:	4d3c           	movi.n	a13, 52
    1b07:	0959d2        	s16i	a13, a9, 18
    1b0a:	0338a6        	blti	a8, 3, 1b11 <pitch_by_harmonic+0x81>
    1b0d:	0bad           	mov.n	a10, a11
    1b0f:	01b9           	s32i.n	a11, a1, 0

00001b11 <pitch_by_harmonic+0x81>:
    1b11:	219aa0        	srai	a9, a10, 10
    1b14:	02d2e2        	addmi	a14, a2, 0x200
    1b17:	0d5ec2        	s16i	a12, a14, 26

00001b1a <pitch_by_harmonic+0x8a>:
    1b1a:	826292        	s32i	a9, a2, 0x208
    1b1d:	8162a2        	s32i	a10, a2, 0x204
    1b20:	000106        	j	1b28 <pitch_by_harmonic+0x98>

00001b23 <pitch_by_harmonic+0x93>:
    1b23:	0a0c           	movi.n	a10, 0
    1b25:	7c6ea2        	s32i	a10, a14, 0x1f0

00001b28 <pitch_by_harmonic+0x98>:
    1b28:	021ae6        	bgei	a10, 1, 1b2e <pitch_by_harmonic+0x9e>
    1b2b:	014cc6        	j	2062 <pitch_by_harmonic+0x5d2>
    1b2e:	030c           	movi.n	a3, 0
    1b30:	9149           	s32i.n	a4, a1, 36
    1b32:	a168           	l32i.n	a6, a1, 40
    1b34:	0bd422        	addmi	a2, a4, 0xb00
    1b37:	fcc222        	addi	a2, a2, -4
    1b3a:	a06650        	addx4	a6, a6, a5

00001b3d <pitch_by_harmonic+0xad>:
    1b3d:	1143e0        	slli	a4, a3, 2
    1b40:	a0a350        	addx4	a10, a3, a5
    1b43:	1aa8           	l32i.n	a10, a10, 4
    1b45:	7e92b2        	l16si	a11, a2, 252
    1b48:	f99c81        	l32r	a8, 1b8 (91c <Log2_norm>)
    1b4b:	40eac0        	nsa	a12, a10
    1b4e:	c0bbc0        	sub	a11, a11, a12
    1b51:	401c00        	ssl	a12
    1b54:	a1aa00        	sll	a10, a10
    1b57:	0008e0        	callx8	a8
    1b5a:	1b4c           	movi.n	a11, 65
    1b5c:	331b           	addi.n	a3, a3, 1
    1b5e:	846a           	add.n	a8, a4, a6
    1b60:	08a9           	s32i.n	a10, a8, 0
    1b62:	833d           	ae_sext16	a3, a3
    1b64:	d593b7        	bne	a3, a11, 1b3d <pitch_by_harmonic+0xad>
    1b67:	8169           	s32i.n	a6, a1, 32
    1b69:	84a1c2        	movi	a12, 0x184
    1b6c:	04a192        	movi	a9, 0x104
    1b6f:	1797a2        	l16si	a10, a7, 46
    1b72:	1697b2        	l16si	a11, a7, 44
    1b75:	080c           	movi.n	a8, 0
    1b77:	1d5782        	s16i	a8, a7, 58
    1b7a:	1c5782        	s16i	a8, a7, 56
    1b7d:	a04b60        	addx4	a4, a11, a6
    1b80:	fcc442        	addi	a4, a4, -4
    1b83:	c0aab0        	sub	a10, a10, a11
    1b86:	8aad           	ae_sext16	a10, a10
    1b88:	c1a9           	s32i.n	a10, a1, 48
    1b8a:	021ae6        	bgei	a10, 1, 1b90 <pitch_by_harmonic+0x100>
    1b8d:	002fc6        	j	1c50 <pitch_by_harmonic+0x1c0>
    1b90:	f98b21        	l32r	a2, 1bc (5000000 <_end+0x4ff41c4>)
    1b93:	050c           	movi.n	a5, 0
    1b95:	8169           	s32i.n	a6, a1, 32
    1b97:	04ae32        	movi	a3, 0xfffffe04
    1b9a:	343a           	add.n	a3, a4, a3

00001b9c <pitch_by_harmonic+0x10c>:
    1b9c:	f98981        	l32r	a8, 1c0 (2078 <XMAX6>)
    1b9f:	f4c4a2        	addi	a10, a4, -12
    1ba2:	0008e0        	callx8	a8
    1ba5:	f98681        	l32r	a8, 1c0 (2078 <XMAX6>)
    1ba8:	0a6d           	mov.n	a6, a10
    1baa:	f8c4a2        	addi	a10, a4, -8
    1bad:	0008e0        	callx8	a8
    1bb0:	7f23b2        	l32i	a11, a3, 0x1fc
    1bb3:	8123e2        	l32i	a14, a3, 0x204
    1bb6:	7d2392        	l32i	a9, a3, 0x1f4
    1bb9:	0216b7        	beq	a6, a11, 1bbf <pitch_by_harmonic+0x12f>
    1bbc:	1f9ab7        	bne	a10, a11, 1bdf <pitch_by_harmonic+0x14f>

00001bbf <pitch_by_harmonic+0x12f>:
    1bbf:	992a           	add.n	a9, a9, a2
    1bc1:	0a29b7        	blt	a9, a11, 1bcf <pitch_by_harmonic+0x13f>
    1bc4:	f980d1        	l32r	a13, 1c4 (c000000 <_end+0xbff41c4>)
    1bc7:	7e23c2        	l32i	a12, a3, 0x1f8
    1bca:	ccda           	add.n	a12, a12, a13
    1bcc:	0facb7        	bge	a12, a11, 1bdf <pitch_by_harmonic+0x14f>

00001bcf <pitch_by_harmonic+0x13f>:
    1bcf:	ee2a           	add.n	a14, a14, a2
    1bd1:	242eb7        	blt	a14, a11, 1bf9 <pitch_by_harmonic+0x169>
    1bd4:	f97c81        	l32r	a8, 1c4 (c000000 <_end+0xbff41c4>)
    1bd7:	8023f2        	l32i	a15, a3, 0x200
    1bda:	ff8a           	add.n	a15, a15, a8
    1bdc:	192fb7        	blt	a15, a11, 1bf9 <pitch_by_harmonic+0x169>
    1bdf:	6798           	l32i.n	a9, a7, 24
    1be1:	53c6a0        	max	a12, a6, a10
    1be4:	052916        	beqz	a9, 1c3a <pitch_by_harmonic+0x1aa>
    1be7:	4f9bc7        	bne	a11, a12, 1c3a <pitch_by_harmonic+0x1aa>
    1bea:	8323e2        	l32i	a14, a3, 0x20c
    1bed:	7b23d2        	l32i	a13, a3, 0x1ec
    1bf0:	43dde0        	min	a13, a13, a14
    1bf3:	43adb7        	bge	a13, a11, 1c3a <pitch_by_harmonic+0x1aa>
    1bf6:	000846        	j	1c1b <pitch_by_harmonic+0x18b>

00001bf9 <pitch_by_harmonic+0x169>:
    1bf9:	04ad           	mov.n	a10, a4
    1bfb:	1697b2        	l16si	a11, a7, 44
    1bfe:	f94a81        	l32r	a8, 128 (2168 <Xfrac_num_pd_td32>)
    1c01:	1c0c           	movi.n	a12, 1
    1c03:	bb5a           	add.n	a11, a11, a5
    1c05:	0008e0        	callx8	a8
    1c08:	81d8           	l32i.n	a13, a1, 32
    1c0a:	1d97c2        	l16si	a12, a7, 58
    1c0d:	a0dcd0        	addx4	a13, a12, a13
    1c10:	416da2        	s32i	a10, a13, 0x104
    1c13:	cc1b           	addi.n	a12, a12, 1
    1c15:	1d57c2        	s16i	a12, a7, 58
    1c18:	000786        	j	1c3a <pitch_by_harmonic+0x1aa>

00001c1b <pitch_by_harmonic+0x18b>:
    1c1b:	04ad           	mov.n	a10, a4
    1c1d:	1697b2        	l16si	a11, a7, 44
    1c20:	f94281        	l32r	a8, 128 (2168 <Xfrac_num_pd_td32>)
    1c23:	1c0c           	movi.n	a12, 1
    1c25:	bb5a           	add.n	a11, a11, a5
    1c27:	0008e0        	callx8	a8
    1c2a:	81d8           	l32i.n	a13, a1, 32
    1c2c:	1c97c2        	l16si	a12, a7, 56
    1c2f:	a0dcd0        	addx4	a13, a12, a13
    1c32:	616da2        	s32i	a10, a13, 0x184
    1c35:	cc1b           	addi.n	a12, a12, 1
    1c37:	1c57c2        	s16i	a12, a7, 56
    1c3a:	444b           	addi.n	a4, a4, 4
    1c3c:	334b           	addi.n	a3, a3, 4
    1c3e:	c1e8           	l32i.n	a14, a1, 48
    1c40:	551b           	addi.n	a5, a5, 1
    1c42:	855d           	ae_sext16	a5, a5
    1c44:	c0ee50        	sub	a14, a14, a5
    1c47:	f51e56        	bnez	a14, 1b9c <pitch_by_harmonic+0x10c>
    1c4a:	04a192        	movi	a9, 0x104
    1c4d:	84a1c2        	movi	a12, 0x184

00001c50 <pitch_by_harmonic+0x1c0>:
    1c50:	1d9782        	l16si	a8, a7, 58
    1c53:	8168           	l32i.n	a6, a1, 32
    1c55:	0218e6        	bgei	a8, 1, 1c5b <pitch_by_harmonic+0x1cb>
    1c58:	0104c6        	j	206f <pitch_by_harmonic+0x5df>
    1c5b:	f95ce1        	l32r	a14, 1cc (435e51 <_end+0x42a015>)
    1c5e:	f95ab1        	l32r	a11, 1c8 (1000000 <_end+0xff41c4>)
    1c61:	020c           	movi.n	a2, 0
    1c63:	150c           	movi.n	a5, 1
    1c65:	d69a           	add.n	a13, a6, a9
    1c67:	f6ca           	add.n	a15, a6, a12
    1c69:	1f5752        	s16i	a5, a7, 62
    1c6c:	1e5722        	s16i	a2, a7, 60
    1c6f:	b1f9           	s32i.n	a15, a1, 44
    1c71:	20c7c2        	addi	a12, a7, 32
    1c74:	24c722        	addi	a2, a7, 36
    1c77:	050c           	movi.n	a5, 0

00001c79 <pitch_by_harmonic+0x1e9>:
    1c79:	0215e6        	bgei	a5, 1, 1c7f <pitch_by_harmonic+0x1ef>
    1c7c:	0039c6        	j	1d67 <pitch_by_harmonic+0x2d7>
    1c7f:	8798           	l32i.n	a9, a7, 32
    1c81:	60cdf4        	ae_lq32f.i	aeq3, a13, -4
    1c84:	608d04        	ae_lq32f.i	aeq2, a13, 0
    1c87:	f9d68081ae 	{ addi	a10, a1, 8; ae_subsq56s	aeq1, aeq2, aeq3 }
    1c8c:	355064        	ae_srliq56	aeq1, aeq1, 1
    1c8f:	621a04        	ae_sq32f.i	aeq1, a10, 0
    1c92:	2188           	l32i.n	a8, a1, 8
    1c94:	31cb           	addi.n	a3, a1, 12
    1c96:	214c90        	srai	a4, a9, 12
    1c99:	d28840        	quos	a8, a8, a4
    1c9c:	3189           	s32i.n	a8, a1, 12
    1c9e:	608304        	ae_lq32f.i	aeq2, a3, 0
    1ca1:	3623d4        	ae_sllisq56s	aeq0, aeq2, 15
    1ca4:	f8e3fd6c0f 	{ ae_lq32f.i	aeq3, a12, 0; ae_roundsp16q48sym	aep1, aeq0 }
    1ca9:	039bc4        	ae_mulq32sp16s.h	aeq3, aeq3, aep1
    1cac:	369294        	ae_sllisq56s	aeq2, aeq1, 10
    1caf:	3633d4        	ae_sllisq56s	aeq0, aeq3, 15
    1cb2:	06ca14        	ae_subsq56s	aeq3, aeq0, aeq2
    1cb5:	ff84becbbf 	{ ae_cvtq48a32s	aeq2, a11; ae_absq56	aeq3, aeq3 }
    1cba:	09a314        	ae_ltq56s	b1, aeq3, aeq2
    1cbd:	10c1f2        	addi	a15, a1, 16
    1cc0:	421f04        	ae_sp16f.l.i	aep1, a15, 0
    1cc3:	2b0176        	bf	b1, 1cf2 <pitch_by_harmonic+0x262>
    1cc6:	0891a2        	l16si	a10, a1, 16
    1cc9:	1b9792        	l16si	a9, a7, 54
    1ccc:	361054        	ae_sllisq56s	aeq0, aeq1, 1
    1ccf:	99aa           	add.n	a9, a9, a10
    1cd1:	1b5792        	s16i	a9, a7, 54
    1cd4:	60c204        	ae_lq32f.i	aeq3, a2, 0
    1cd7:	06b804        	ae_addsq56s	aeq2, aeq3, aeq0
    1cda:	060a44        	ae_satq48s	aeq0, aeq2
    1cdd:	620204        	ae_sq32f.i	aeq0, a2, 0
    1ce0:	1b9782        	l16si	a8, a7, 54
    1ce3:	97f8           	l32i.n	a15, a7, 36
    1ce5:	130c           	movi.n	a3, 1
    1ce7:	d2ff80        	quos	a15, a15, a8
    1cea:	11ff60        	slli	a15, a15, 10
    1ced:	87f9           	s32i.n	a15, a7, 32
    1cef:	001e06        	j	1d6b <pitch_by_harmonic+0x2db>

00001cf2 <pitch_by_harmonic+0x262>:
    1cf2:	6a25a6        	blti	a5, 2, 1d60 <pitch_by_harmonic+0x2d0>
    1cf5:	604de4        	ae_lq32f.i	aeq1, a13, -8
    1cf8:	600d04        	ae_lq32f.i	aeq0, a13, 0
    1cfb:	06c914        	ae_subsq56s	aeq3, aeq0, aeq1
    1cfe:	35f064        	ae_srliq56	aeq3, aeq3, 1
    1d01:	623a04        	ae_sq32f.i	aeq3, a10, 0
    1d04:	2188           	l32i.n	a8, a1, 8
    1d06:	d28840        	quos	a8, a8, a4
    1d09:	3189           	s32i.n	a8, a1, 12
    1d0b:	600304        	ae_lq32f.i	aeq0, a3, 0
    1d0e:	3643d4        	ae_sllisq56s	aeq1, aeq0, 15
    1d11:	f9ebbd0c0f 	{ ae_lq32f.i	aeq0, a12, 0; ae_roundsp16q48sym	aep2, aeq1 }
    1d16:	032304        	ae_mulq32sp16s.h	aeq0, aeq0, aep2
    1d19:	367294        	ae_sllisq56s	aeq1, aeq3, 10
    1d1c:	3603d4        	ae_sllisq56s	aeq0, aeq0, 15
    1d1f:	064914        	ae_subsq56s	aeq1, aeq0, aeq1
    1d22:	fd0480003f 	{ movi	a3, 0; ae_absq56	aeq1, aeq1 }
    1d27:	d654b22f0f 	{ ae_sp16f.l.i	aep2, a15, 0; ae_ltq56s	b2, aeq1, aeq2 }
    1d2c:	09fd           	mov.n	a15, a9
    1d2e:	0891a2        	l16si	a10, a1, 16
    1d31:	280276        	bf	b2, 1d5d <pitch_by_harmonic+0x2cd>
    1d34:	1b9792        	l16si	a9, a7, 54
    1d37:	36b054        	ae_sllisq56s	aeq2, aeq3, 1
    1d3a:	99aa           	add.n	a9, a9, a10
    1d3c:	1b5792        	s16i	a9, a7, 54
    1d3f:	604204        	ae_lq32f.i	aeq1, a2, 0
    1d42:	061a04        	ae_addsq56s	aeq0, aeq1, aeq2
    1d45:	068844        	ae_satq48s	aeq2, aeq0
    1d48:	622204        	ae_sq32f.i	aeq2, a2, 0
    1d4b:	1b9782        	l16si	a8, a7, 54
    1d4e:	97f8           	l32i.n	a15, a7, 36
    1d50:	130c           	movi.n	a3, 1
    1d52:	d2ff80        	quos	a15, a15, a8
    1d55:	11ff60        	slli	a15, a15, 10
    1d58:	87f9           	s32i.n	a15, a7, 32
    1d5a:	000346        	j	1d6b <pitch_by_harmonic+0x2db>

00001d5d <pitch_by_harmonic+0x2cd>:
    1d5d:	000286        	j	1d6b <pitch_by_harmonic+0x2db>

00001d60 <pitch_by_harmonic+0x2d0>:
    1d60:	09fd           	mov.n	a15, a9
    1d62:	030c           	movi.n	a3, 0
    1d64:	0000c6        	j	1d6b <pitch_by_harmonic+0x2db>

00001d67 <pitch_by_harmonic+0x2d7>:
    1d67:	87f8           	l32i.n	a15, a7, 32
    1d69:	030c           	movi.n	a3, 0

00001d6b <pitch_by_harmonic+0x2db>:
    1d6b:	f917b1        	l32r	a11, 1c8 (1000000 <_end+0xff41c4>)
    1d6e:	1cc142        	addi	a4, a1, 28
    1d71:	60cc04        	ae_lq32f.i	aeq3, a12, 0
    1d74:	18c182        	addi	a8, a1, 24
    1d77:	14c1a2        	addi	a10, a1, 20
    1d7a:	219bf0        	srai	a9, a15, 11
    1d7d:	a0f560        	addx4	a15, a5, a6
    1d80:	412ff2        	l32i	a15, a15, 0x104
    1d83:	51f9           	s32i.n	a15, a1, 20
    1d85:	604a04        	ae_lq32f.i	aeq1, a10, 0
    1d88:	d29f90        	quos	a9, a15, a9
    1d8b:	6199           	s32i.n	a9, a1, 24
    1d8d:	608804        	ae_lq32f.i	aeq2, a8, 0
    1d90:	3623d4        	ae_sllisq56s	aeq0, aeq2, 15
    1d93:	f9e3fad29f 	{ ae_sllisq56s	aeq2, aeq1, 9; ae_roundsp16q48sym	aep3, aeq0 }
    1d98:	fb2d72340f 	{ ae_sp16f.l.i	aep3, a4, 0; ae_mulq32sp16s.h	aeq3, aeq3, aep3 }
    1d9d:	0e9192        	l16si	a9, a1, 28
    1da0:	3673d4        	ae_sllisq56s	aeq1, aeq3, 15
    1da3:	061a14        	ae_subsq56s	aeq0, aeq1, aeq2
    1da6:	061864        	ae_absq56	aeq0, aeq0
    1da9:	081966        	bnei	a9, 1, 1db5 <pitch_by_harmonic+0x325>
    1dac:	f90981        	l32r	a8, 1d0 (99999a <_end+0x98db5e>)
    1daf:	364834        	ae_cvtq48a32s	aeq1, a8
    1db2:	000386        	j	1dc4 <pitch_by_harmonic+0x334>

00001db5 <pitch_by_harmonic+0x325>:
    1db5:	082966        	bnei	a9, 2, 1dc1 <pitch_by_harmonic+0x331>
    1db8:	f907a1        	l32r	a10, 1d4 (cccccd <_end+0xcc0e91>)
    1dbb:	364a34        	ae_cvtq48a32s	aeq1, a10
    1dbe:	000086        	j	1dc4 <pitch_by_harmonic+0x334>

00001dc1 <pitch_by_harmonic+0x331>:
    1dc1:	364b34        	ae_cvtq48a32s	aeq1, a11
    1dc4:	438c           	beqz.n	a3, 1dcc <pitch_by_harmonic+0x33c>
    1dc6:	39cee4        	ae_movpa24x2	aep4, a14, a14
    1dc9:	084514        	ae_mulrfq32sp24s.l	aeq0, aeq0, aep4

00001dcc <pitch_by_harmonic+0x33c>:
    1dcc:	d648c04dde 	{ addi	a13, a13, 4; ae_ltq56s	b3, aeq0, aeq1 }
    1dd1:	551b           	addi.n	a5, a5, 1
    1dd3:	855d           	ae_sext16	a5, a5
    1dd5:	3c0376        	bf	b3, 1e15 <pitch_by_harmonic+0x385>
    1dd8:	2629a6        	blti	a9, 2, 1e02 <pitch_by_harmonic+0x372>
    1ddb:	1b97a2        	l16si	a10, a7, 54
    1dde:	14c1f2        	addi	a15, a1, 20
    1de1:	608f04        	ae_lq32f.i	aeq2, a15, 0
    1de4:	aa9a           	add.n	a10, a10, a9
    1de6:	1b57a2        	s16i	a10, a7, 54
    1de9:	604204        	ae_lq32f.i	aeq1, a2, 0
    1dec:	061a04        	ae_addsq56s	aeq0, aeq1, aeq2
    1def:	06c844        	ae_satq48s	aeq3, aeq0
    1df2:	623204        	ae_sq32f.i	aeq3, a2, 0
    1df5:	1b9782        	l16si	a8, a7, 54
    1df8:	97f8           	l32i.n	a15, a7, 36
    1dfa:	d2ff80        	quos	a15, a15, a8
    1dfd:	11ff60        	slli	a15, a15, 10
    1e00:	87f9           	s32i.n	a15, a7, 32

00001e02 <pitch_by_harmonic+0x372>:
    1e02:	1e9782        	l16si	a8, a7, 60
    1e05:	881b           	addi.n	a8, a8, 1
    1e07:	1e5782        	s16i	a8, a7, 60
    1e0a:	156907        	bbci	a9, 0, 1e23 <pitch_by_harmonic+0x393>
    1e0d:	090c           	movi.n	a9, 0
    1e0f:	1f5792        	s16i	a9, a7, 62
    1e12:	000346        	j	1e23 <pitch_by_harmonic+0x393>

00001e15 <pitch_by_harmonic+0x385>:
    1e15:	1c97a2        	l16si	a10, a7, 56
    1e18:	a08a60        	addx4	a8, a10, a6
    1e1b:	6168f2        	s32i	a15, a8, 0x184
    1e1e:	aa1b           	addi.n	a10, a10, 1
    1e20:	1c57a2        	s16i	a10, a7, 56

00001e23 <pitch_by_harmonic+0x393>:
    1e23:	1d9792        	l16si	a9, a7, 58
    1e26:	02a597        	bge	a5, a9, 1e2c <pitch_by_harmonic+0x39c>
    1e29:	ff9306        	j	1c79 <pitch_by_harmonic+0x1e9>
    1e2c:	91a8           	l32i.n	a10, a1, 36
    1e2e:	1c9782        	l16si	a8, a7, 56
    1e31:	1e9792        	l16si	a9, a7, 60
    1e34:	145a92        	s16i	a9, a10, 40
    1e37:	6318a6        	blti	a8, 1, 1e9e <pitch_by_harmonic+0x40e>
    1e3a:	050c           	movi.n	a5, 0
    1e3c:	b1b8           	l32i.n	a11, a1, 44
    1e3e:	f8e6d1        	l32r	a13, 1d8 (159999a <_end+0x158db5e>)
    1e41:	368d34        	ae_cvtq48a32s	aeq2, a13

00001e44 <pitch_by_harmonic+0x3b4>:
    1e44:	60cc04        	ae_lq32f.i	aeq3, a12, 0
    1e47:	18c182        	addi	a8, a1, 24
    1e4a:	87a8           	l32i.n	a10, a7, 32
    1e4c:	0b98           	l32i.n	a9, a11, 0
    1e4e:	5199           	s32i.n	a9, a1, 20
    1e50:	21aba0        	srai	a10, a10, 11
    1e53:	d299a0        	quos	a9, a9, a10
    1e56:	6199           	s32i.n	a9, a1, 24
    1e58:	604804        	ae_lq32f.i	aeq1, a8, 0
    1e5b:	3613d4        	ae_sllisq56s	aeq0, aeq1, 15
    1e5e:	fae3c141fe 	{ addi	a15, a1, 20; ae_roundsp16q48sym	aep5, aeq0 }
    1e63:	fb357d0f0f 	{ ae_lq32f.i	aeq0, a15, 0; ae_mulq32sp16s.h	aeq3, aeq3, aep5 }
    1e68:	364254        	ae_sllisq56s	aeq1, aeq0, 9
    1e6b:	3633d4        	ae_sllisq56s	aeq0, aeq3, 15
    1e6e:	fb4680155e 	{ addi	a5, a5, 1; ae_subsq56s	aeq3, aeq0, aeq1 }
    1e73:	ff8481c1ee 	{ addi	a14, a1, 28; ae_absq56	aeq3, aeq3 }
    1e78:	d6d5004bbe 	{ addi	a11, a11, 4; ae_ltq56s	b4, aeq3, aeq2 }
    1e7d:	1c9782        	l16si	a8, a7, 56
    1e80:	425e04        	ae_sp16f.l.i	aep5, a14, 0
    1e83:	120476        	bf	b4, 1e99 <pitch_by_harmonic+0x409>
    1e86:	1e97e2        	l16si	a14, a7, 60
    1e89:	0f0c           	movi.n	a15, 0
    1e8b:	0e91d2        	l16si	a13, a1, 28
    1e8e:	ee1b           	addi.n	a14, a14, 1
    1e90:	1e57e2        	s16i	a14, a7, 60
    1e93:	026d07        	bbci	a13, 0, 1e99 <pitch_by_harmonic+0x409>
    1e96:	1f57f2        	s16i	a15, a7, 62
    1e99:	855d           	ae_sext16	a5, a5
    1e9b:	a52587        	blt	a5, a8, 1e44 <pitch_by_harmonic+0x3b4>

00001e9e <pitch_by_harmonic+0x40e>:
    1e9e:	1f97b2        	l16si	a11, a7, 62
    1ea1:	1e97a2        	l16si	a10, a7, 60
    1ea4:	133b16        	beqz	a11, 1fdb <pitch_by_harmonic+0x54b>
    1ea7:	7798           	l32i.n	a9, a7, 28
    1ea9:	09dc           	bnez.n	a9, 1ebd <pitch_by_harmonic+0x42d>
    1eab:	1e9782        	l16si	a8, a7, 60
    1eae:	0958e6        	bgei	a8, 5, 1ebb <pitch_by_harmonic+0x42b>

00001eb1 <pitch_by_harmonic+0x421>:
    1eb1:	0b0c           	movi.n	a11, 0
    1eb3:	090c           	movi.n	a9, 0
    1eb5:	1f5792        	s16i	a9, a7, 62
    1eb8:	000d06        	j	1ef0 <pitch_by_harmonic+0x460>

00001ebb <pitch_by_harmonic+0x42b>:
    1ebb:	198c           	beqz.n	a9, 1ec0 <pitch_by_harmonic+0x430>

00001ebd <pitch_by_harmonic+0x42d>:
    1ebd:	f03aa6        	blti	a10, 3, 1eb1 <pitch_by_harmonic+0x421>
    1ec0:	87f8           	l32i.n	a15, a7, 32
    1ec2:	f8c6d1        	l32r	a13, 1dc (13ffffff <_end+0x13ff41c3>)
    1ec5:	e82df7        	blt	a13, a15, 1eb1 <pitch_by_harmonic+0x421>
    1ec8:	1897e2        	l16si	a14, a7, 48
    1ecb:	1c3ea6        	blti	a14, 3, 1eeb <pitch_by_harmonic+0x45b>
    1ece:	600c04        	ae_lq32f.i	aeq0, a12, 0
    1ed1:	f8b681        	l32r	a8, 1ac (aaaab <_end+0x9ec6f>)
    1ed4:	28c792        	addi	a9, a7, 40
    1ed7:	604904        	ae_lq32f.i	aeq1, a9, 0
    1eda:	fa46a2688f 	{ ae_movpa24x2	aep6, a8, a8; ae_subsq56s	aeq2, aeq0, aeq1 }
    1edf:	08ec64        	ae_mulfq32sp24s.h	aeq3, aeq1, aep6
    1ee2:	069a64        	ae_absq56	aeq2, aeq2
    1ee5:	09b654        	ae_leq56s	b5, aeq2, aeq3
    1ee8:	c51576        	bt	b5, 1eb1 <pitch_by_harmonic+0x421>
    1eeb:	11aff0        	slli	a10, a15, 1
    1eee:	87a9           	s32i.n	a10, a7, 32
    1ef0:	0e7b16        	beqz	a11, 1fdb <pitch_by_harmonic+0x54b>
    1ef3:	87f8           	l32i.n	a15, a7, 32

00001ef5 <pitch_by_harmonic+0x465>:
    1ef5:	281fa6        	blti	a15, 1, 1f21 <pitch_by_harmonic+0x491>
    1ef8:	600c04        	ae_lq32f.i	aeq0, a12, 0
    1efb:	f8acd1        	l32r	a13, 1ac (aaaab <_end+0x9ec6f>)
    1efe:	28c7b2        	addi	a11, a7, 40
    1f01:	604b04        	ae_lq32f.i	aeq1, a11, 0
    1f04:	fa46a27ddf 	{ ae_movpa24x2	aep7, a13, a13; ae_subsq56s	aeq2, aeq0, aeq1 }
    1f09:	08fd54        	ae_mulrfq32sp24s.l	aeq3, aeq1, aep7
    1f0c:	069a64        	ae_absq56	aeq2, aeq2
    1f0f:	09b264        	ae_ltq56s	b6, aeq2, aeq3
    1f12:	0b0676        	bf	b6, 1f21 <pitch_by_harmonic+0x491>
    1f15:	189792        	l16si	a9, a7, 48
    1f18:	991b           	addi.n	a9, a9, 1

00001f1a <pitch_by_harmonic+0x48a>:
    1f1a:	185792        	s16i	a9, a7, 48
    1f1d:	a7f9           	s32i.n	a15, a7, 40
    1f1f:	f01d           	retw.n

00001f21 <pitch_by_harmonic+0x491>:
    1f21:	090c           	movi.n	a9, 0
    1f23:	fffcc6        	j	1f1a <pitch_by_harmonic+0x48a>

00001f26 <pitch_by_harmonic+0x496>:
    1f26:	7b2eb2        	l32i	a11, a14, 0x1ec
    1f29:	bf6b16        	beqz	a11, 1b23 <pitch_by_harmonic+0x93>
    1f2c:	11cb20        	slli	a12, a11, 14
    1f2f:	d5d2b0        	extui	a13, a11, 18, 14
    1f32:	f89f81        	l32r	a8, 1b0 (92c8 <__udivdi3>)
    1f35:	0a0c           	movi.n	a10, 0
    1f37:	f861b1        	l32r	a11, bc (80000000 <_end+0x7fff41c4>)
    1f3a:	0008e0        	callx8	a8
    1f3d:	f8a891        	l32r	a9, 1e0 (2000000 <_end+0x1ff41c4>)
    1f40:	01a9           	s32i.n	a10, a1, 0
    1f42:	f89ca1        	l32r	a10, 1b4 (54f8 <beam2_mid_band+0x84>)
    1f45:	608104        	ae_lq32f.i	aeq2, a1, 0
    1f48:	35a074        	ae_sraiq56	aeq2, aeq2, 1
    1f4b:	60e3a4        	ae_lq32f.x	aeq3, a3, a10
    1f4e:	066b14        	ae_subsq56s	aeq1, aeq2, aeq3
    1f51:	060944        	ae_satq48s	aeq0, aeq1
    1f54:	fe08bec9ff 	{ ae_cvtq48a32s	aeq3, a9; ae_abssq56s	aeq2, aeq0 }
    1f59:	09b274        	ae_ltq56s	b7, aeq2, aeq3
    1f5c:	1c0c           	movi.n	a12, 1
    1f5e:	0b0776        	bf	b7, 1f6d <pitch_by_harmonic+0x4dd>
    1f61:	60c104        	ae_lq32f.i	aeq3, a1, 0
    1f64:	35f074        	ae_sraiq56	aeq3, aeq3, 1
    1f67:	623104        	ae_sq32f.i	aeq3, a1, 0
    1f6a:	000a06        	j	1f96 <pitch_by_harmonic+0x506>

00001f6d <pitch_by_harmonic+0x4dd>:
    1f6d:	f891e1        	l32r	a14, 1b4 (54f8 <beam2_mid_band+0x84>)
    1f70:	f896d1        	l32r	a13, 1c8 (1000000 <_end+0xff41c4>)
    1f73:	600104        	ae_lq32f.i	aeq0, a1, 0
    1f76:	6063e4        	ae_lq32f.x	aeq1, a3, a14
    1f79:	355074        	ae_sraiq56	aeq1, aeq1, 1
    1f7c:	06c914        	ae_subsq56s	aeq3, aeq0, aeq1
    1f7f:	068b44        	ae_satq48s	aeq2, aeq3
    1f82:	fc88becd7f 	{ ae_cvtq48a32s	aeq1, a13; ae_abssq56s	aeq0, aeq2 }
    1f87:	099084        	ae_ltq56s	b8, aeq0, aeq1
    1f8a:	080876        	bf	b8, 1f96 <pitch_by_harmonic+0x506>
    1f8d:	60c104        	ae_lq32f.i	aeq3, a1, 0
    1f90:	36b054        	ae_sllisq56s	aeq2, aeq3, 1
    1f93:	622104        	ae_sq32f.i	aeq2, a1, 0
    1f96:	d92c           	movi.n	a9, 45
    1f98:	3b2c           	movi.n	a11, 35
    1f9a:	604104        	ae_lq32f.i	aeq1, a1, 0
    1f9d:	01a8           	l32i.n	a10, a1, 0
    1f9f:	02d282        	addmi	a8, a2, 0x200
    1fa2:	00a7d2        	movi	a13, 0x700
    1fa5:	399dd4        	ae_movpa24x2	aep1, a13, a13
    1fa8:	0d58c2        	s16i	a12, a8, 26
    1fab:	8162a2        	s32i	a10, a2, 0x204
    1fae:	f8054041fe 	{ addi	a15, a1, 4; ae_mulfq32sp24s.h	aeq1, aeq1, aep1 }
    1fb3:	21eaa0        	srai	a14, a10, 10
    1fb6:	361154        	ae_sllisq56s	aeq0, aeq1, 5
    1fb9:	f8e38009df 	{ movi	a13, 9; ae_roundsp16q48sym	aep0, aeq0 }
    1fbe:	420f04        	ae_sp16f.l.i	aep0, a15, 0
    1fc1:	0291f2        	l16si	a15, a1, 4
    1fc4:	8262e2        	s32i	a14, a2, 0x208
    1fc7:	0858d2        	s16i	a13, a8, 16
    1fca:	53ffb0        	max	a15, a15, a11
    1fcd:	8ffd           	ae_sext16	a15, a15
    1fcf:	43ff90        	min	a15, a15, a9
    1fd2:	0251f2        	s16i	a15, a1, 4
    1fd5:	0958f2        	s16i	a15, a8, 18
    1fd8:	fed306        	j	1b28 <pitch_by_harmonic+0x98>

00001fdb <pitch_by_harmonic+0x54b>:
    1fdb:	1e9792        	l16si	a9, a7, 60
    1fde:	2c39a6        	blti	a9, 3, 200e <pitch_by_harmonic+0x57e>
    1fe1:	87f8           	l32i.n	a15, a7, 32
    1fe3:	f880e1        	l32r	a14, 1e4 (a8f5c28 <_end+0xa8e9dec>)
    1fe6:	08aef7        	bge	a14, a15, 1ff2 <pitch_by_harmonic+0x562>
    1fe9:	f87f81        	l32r	a8, 1e8 (2eb851ec <_end+0x2eb793b0>)
    1fec:	0228f7        	blt	a8, a15, 1ff2 <pitch_by_harmonic+0x562>
    1fef:	ffc086        	j	1ef5 <pitch_by_harmonic+0x465>

00001ff2 <pitch_by_harmonic+0x562>:
    1ff2:	0f0c           	movi.n	a15, 0
    1ff4:	090c           	movi.n	a9, 0
    1ff6:	8799           	s32i.n	a9, a7, 32
    1ff8:	ffbe46        	j	1ef5 <pitch_by_harmonic+0x465>

00001ffb <pitch_by_harmonic+0x56b>:
    1ffb:	0959e2        	s16i	a14, a9, 18
    1ffe:	2f0c           	movi.n	a15, 2
    2000:	abaa           	add.n	a10, a11, a10
    2002:	0d59f2        	s16i	a15, a9, 26
    2005:	219aa0        	srai	a9, a10, 10
    2008:	11a970        	slli	a10, a9, 9
    200b:	fec2c6        	j	1b1a <pitch_by_harmonic+0x8a>

0000200e <pitch_by_harmonic+0x57e>:
    200e:	3b2966        	bnei	a9, 2, 204d <pitch_by_harmonic+0x5bd>
    2011:	189782        	l16si	a8, a7, 48
    2014:	c8ac           	beqz.n	a8, 2044 <pitch_by_harmonic+0x5b4>
    2016:	87f8           	l32i.n	a15, a7, 32
    2018:	f87591        	l32r	a9, 1ec (1f000000 <_end+0x1eff41c4>)
    201b:	2529f7        	blt	a9, a15, 2044 <pitch_by_harmonic+0x5b4>
    201e:	f874a1        	l32r	a10, 1f0 (bffffff <_end+0xbff41c3>)
    2021:	1faaf7        	bge	a10, a15, 2044 <pitch_by_harmonic+0x5b4>
    2024:	600c04        	ae_lq32f.i	aeq0, a12, 0
    2027:	f861b1        	l32r	a11, 1ac (aaaab <_end+0x9ec6f>)
    202a:	28c7d2        	addi	a13, a7, 40
    202d:	604d04        	ae_lq32f.i	aeq1, a13, 0
    2030:	fb46a22bbf 	{ ae_movpa24x2	aep2, a11, a11; ae_subsq56s	aeq3, aeq0, aeq1 }
    2035:	08a554        	ae_mulrfq32sp24s.l	aeq2, aeq1, aep2
    2038:	06db64        	ae_absq56	aeq3, aeq3
    203b:	09b294        	ae_ltq56s	b9, aeq2, aeq3
    203e:	021976        	bt	b9, 2044 <pitch_by_harmonic+0x5b4>
    2041:	ffac06        	j	1ef5 <pitch_by_harmonic+0x465>

00002044 <pitch_by_harmonic+0x5b4>:
    2044:	0f0c           	movi.n	a15, 0
    2046:	0e0c           	movi.n	a14, 0
    2048:	87e9           	s32i.n	a14, a7, 32
    204a:	ffa9c6        	j	1ef5 <pitch_by_harmonic+0x465>

0000204d <pitch_by_harmonic+0x5bd>:
    204d:	0f0c           	movi.n	a15, 0
    204f:	87f9           	s32i.n	a15, a7, 32
    2051:	0f0c           	movi.n	a15, 0
    2053:	ffa786        	j	1ef5 <pitch_by_harmonic+0x465>

00002056 <pitch_by_harmonic+0x5c6>:
    2056:	0959e2        	s16i	a14, a9, 18
    2059:	0d59c2        	s16i	a12, a9, 26
    205c:	219aa0        	srai	a9, a10, 10
    205f:	feadc6        	j	1b1a <pitch_by_harmonic+0x8a>

00002062 <pitch_by_harmonic+0x5d2>:
    2062:	02d292        	addmi	a9, a2, 0x200
    2065:	080c           	movi.n	a8, 0
    2067:	836282        	s32i	a8, a2, 0x20c
    206a:	0a5982        	s16i	a8, a9, 20
    206d:	f01d           	retw.n

0000206f <pitch_by_harmonic+0x5df>:
    206f:	0f0c           	movi.n	a15, 0
    2071:	0f9d           	mov.n	a9, a15
    2073:	ffa8c6        	j	1f1a <pitch_by_harmonic+0x48a>

00002076 <pitch_by_harmonic+0x5e6>:
	...

00002078 <XMAX6>:
    2078:	004136        	entry	a1, 32
    207b:	0248           	l32i.n	a4, a2, 0
    207d:	530c           	movi.n	a3, 5
    207f:	06a376        	loopgtz	a3, 2089 <XMAX6+0x11>
    2082:	1288           	l32i.n	a8, a2, 4
    2084:	224b           	addi.n	a2, a2, 4
    2086:	534480        	max	a4, a4, a8

00002089 <XMAX6+0x11>:
    2089:	042d           	mov.n	a2, a4
    208b:	f01d           	retw.n

0000208d <XMAX6+0x15>:
    208d:	000000                                        ...

00002090 <Xfrac_num_pd_td16>:
    2090:	008136        	entry	a1, 64
    2093:	5139           	s32i.n	a3, a1, 20
    2095:	4b1c           	movi.n	a11, 20
    2097:	f85781        	l32r	a8, 1f4 (5a8200 <_end+0x59c3c4>)
    209a:	4002f4        	ae_lp16f.i	aep0, a2, -2
    209d:	ff042c221f 	{ ae_lp16f.i	aep2, a2, 2; ae_cvtq48p24s.h	aeq3, aep0 }
    20a2:	fd442c120f 	{ ae_lp16f.i	aep1, a2, 0; ae_cvtq48p24s.h	aeq1, aep2 }
    20a7:	fe240081ae 	{ addi	a10, a1, 8; ae_cvtq48p24s.h	aeq2, aep1 }
    20ac:	f856a2188f 	{ ae_movpa24x2	aep1, a8, a8; ae_subsq56s	aeq0, aeq2, aeq1 }
    20b1:	f80440415e 	{ addi	a5, a1, 4; ae_mulfq32sp24s.h	aeq1, aeq0, aep1 }
    20b6:	f8d6b9810f 	{ ae_sq32f.i	aeq0, a1, 0; ae_subsq56s	aeq0, aeq2, aeq3 }
    20bb:	d64810c43f 	{ add	a12, a4, a3; ae_ltq56s	b0, aeq0, aeq1 }
    20c0:	11cc00        	slli	a12, a12, 16
    20c3:	f98439850f 	{ ae_sq32f.i	aeq0, a5, 0; ae_mulfq32sp24s.l	aeq2, aeq0, aep1 }
    20c8:	2e0076        	bf	b0, 20fa <Xfrac_num_pd_td16+0x6a>
    20cb:	604104        	ae_lq32f.i	aeq1, a1, 0
    20ce:	f83191        	l32r	a9, 194 (100000 <_end+0xf41c4>)
    20d1:	39b994        	ae_movpa24x2	aep3, a9, a9
    20d4:	083d64        	ae_mulfq32sp24s.l	aeq1, aeq1, aep3
    20d7:	099014        	ae_ltq56s	b1, aeq0, aeq1
    20da:	300176        	bf	b1, 210e <Xfrac_num_pd_td16+0x7e>
    20dd:	f84621        	l32r	a2, 1f8 (c28f0000 <_end+0xc28e41c4>)

000020e0 <Xfrac_num_pd_td16+0x50>:
    20e0:	2129           	s32i.n	a2, a1, 8
    20e2:	51c9           	s32i.n	a12, a1, 20
    20e4:	600a04        	ae_lq32f.i	aeq0, a10, 0
    20e7:	3503f4        	ae_sraiq56	aeq0, aeq0, 15
    20ea:	60e1b4        	ae_lq32f.x	aeq3, a1, a11
    20ed:	01f8c4        	ae_addq56	aeq3, aeq3, aeq0
    20f0:	06b834        	ae_roundsq32sym	aeq2, aeq3
    20f3:	622a04        	ae_sq32f.i	aeq2, a10, 0
    20f6:	2128           	l32i.n	a2, a1, 8
    20f8:	f01d           	retw.n

000020fa <Xfrac_num_pd_td16+0x6a>:
    20fa:	604104        	ae_lq32f.i	aeq1, a1, 0
    20fd:	d6c880002f 	{ movi	a2, 0; ae_ltq56s	b2, aeq2, aeq1 }
    2102:	f83fd1        	l32r	a13, 200 (400000 <_end+0x3f41c4>)
    2105:	39cdd4        	ae_movpa24x2	aep4, a13, a13
    2108:	170276        	bf	b2, 2123 <Xfrac_num_pd_td16+0x93>
    210b:	fff446        	j	20e0 <Xfrac_num_pd_td16+0x50>

0000210e <Xfrac_num_pd_td16+0x7e>:
    210e:	369054        	ae_sllisq56s	aeq2, aeq1, 1
    2111:	06ca44        	ae_satq48s	aeq3, aeq2
    2114:	09b034        	ae_ltq56s	b3, aeq0, aeq3
    2117:	f83921        	l32r	a2, 1fc (cccd0000 <_end+0xcccc41c4>)
    211a:	f83be1        	l32r	a14, 208 (e6660000 <_end+0xe66541c4>)
    211d:	170376        	bf	b3, 2138 <Xfrac_num_pd_td16+0xa8>
    2120:	ffef06        	j	20e0 <Xfrac_num_pd_td16+0x50>

00002123 <Xfrac_num_pd_td16+0x93>:
    2123:	084524        	ae_mulfq32sp24s.l	aeq0, aeq0, aep4
    2126:	f83721        	l32r	a2, 204 (ccd0000 <_end+0xccc41c4>)
    2129:	099044        	ae_ltq56s	b4, aeq0, aeq1
    212c:	35c074        	ae_sraiq56	aeq3, aeq0, 1
    212f:	099364        	ae_ltq56s	b6, aeq3, aeq1
    2132:	140476        	bf	b4, 214a <Xfrac_num_pd_td16+0xba>
    2135:	ffe9c6        	j	20e0 <Xfrac_num_pd_td16+0x50>

00002138 <Xfrac_num_pd_td16+0xa8>:
    2138:	f83521        	l32r	a2, 20c (f3330000 <_end+0xf33241c4>)
    213b:	369094        	ae_sllisq56s	aeq2, aeq1, 2
    213e:	06ca44        	ae_satq48s	aeq3, aeq2
    2141:	09b054        	ae_ltq56s	b5, aeq0, aeq3
    2144:	d32e50        	movt	a2, a14, b5
    2147:	ffe546        	j	20e0 <Xfrac_num_pd_td16+0x50>

0000214a <Xfrac_num_pd_td16+0xba>:
    214a:	050676        	bf	b6, 2153 <Xfrac_num_pd_td16+0xc3>
    214d:	f83021        	l32r	a2, 210 (199a0000 <_end+0x199941c4>)
    2150:	ffe306        	j	20e0 <Xfrac_num_pd_td16+0x50>

00002153 <Xfrac_num_pd_td16+0xc3>:
    2153:	f830f1        	l32r	a15, 214 (33330000 <_end+0x333241c4>)
    2156:	f83021        	l32r	a2, 218 (3d710000 <_end+0x3d7041c4>)
    2159:	3580b4        	ae_sraiq56	aeq2, aeq0, 2
    215c:	099274        	ae_ltq56s	b7, aeq2, aeq1
    215f:	d32f70        	movt	a2, a15, b7
    2162:	ffde86        	j	20e0 <Xfrac_num_pd_td16+0x50>

00002165 <Xfrac_num_pd_td16+0xd5>:
    2165:	000000                                        ...

00002168 <Xfrac_num_pd_td32>:
    2168:	008136        	entry	a1, 64
    216b:	5139           	s32i.n	a3, a1, 20
    216d:	4b1c           	movi.n	a11, 20
    216f:	a18b           	addi.n	a10, a1, 8
    2171:	60c214        	ae_lq32f.i	aeq3, a2, 4
    2174:	608204        	ae_lq32f.i	aeq2, a2, 0
    2177:	f81f81        	l32r	a8, 1f4 (5a8200 <_end+0x59c3c4>)
    217a:	398884        	ae_movpa24x2	aep0, a8, a8
    217d:	f9d6bd62ff 	{ ae_lq32f.i	aeq3, a2, -4; ae_subsq56s	aeq1, aeq2, aeq3 }
    2182:	f80179910f 	{ ae_sq32f.i	aeq1, a1, 0; ae_mulfq32sp24s.h	aeq1, aeq1, aep0 }
    2187:	f8d680415e 	{ addi	a5, a1, 4; ae_subsq56s	aeq0, aeq2, aeq3 }
    218c:	d64810c43f 	{ add	a12, a4, a3; ae_ltq56s	b0, aeq0, aeq1 }
    2191:	11cc00        	slli	a12, a12, 16
    2194:	f98039850f 	{ ae_sq32f.i	aeq0, a5, 0; ae_mulfq32sp24s.l	aeq2, aeq0, aep0 }
    2199:	2e0076        	bf	b0, 21cb <Xfrac_num_pd_td32+0x63>
    219c:	604104        	ae_lq32f.i	aeq1, a1, 0
    219f:	f7fd91        	l32r	a9, 194 (100000 <_end+0xf41c4>)
    21a2:	398994        	ae_movpa24x2	aep0, a9, a9
    21a5:	080d64        	ae_mulfq32sp24s.l	aeq1, aeq1, aep0
    21a8:	099014        	ae_ltq56s	b1, aeq0, aeq1
    21ab:	300176        	bf	b1, 21df <Xfrac_num_pd_td32+0x77>
    21ae:	f81221        	l32r	a2, 1f8 (c28f0000 <_end+0xc28e41c4>)

000021b1 <Xfrac_num_pd_td32+0x49>:
    21b1:	2129           	s32i.n	a2, a1, 8
    21b3:	51c9           	s32i.n	a12, a1, 20
    21b5:	600a04        	ae_lq32f.i	aeq0, a10, 0
    21b8:	3503f4        	ae_sraiq56	aeq0, aeq0, 15
    21bb:	60e1b4        	ae_lq32f.x	aeq3, a1, a11
    21be:	01f8c4        	ae_addq56	aeq3, aeq3, aeq0
    21c1:	06b834        	ae_roundsq32sym	aeq2, aeq3
    21c4:	622a04        	ae_sq32f.i	aeq2, a10, 0
    21c7:	2128           	l32i.n	a2, a1, 8
    21c9:	f01d           	retw.n

000021cb <Xfrac_num_pd_td32+0x63>:
    21cb:	604104        	ae_lq32f.i	aeq1, a1, 0
    21ce:	d6c880002f 	{ movi	a2, 0; ae_ltq56s	b2, aeq2, aeq1 }
    21d3:	f80bd1        	l32r	a13, 200 (400000 <_end+0x3f41c4>)
    21d6:	399dd4        	ae_movpa24x2	aep1, a13, a13
    21d9:	170276        	bf	b2, 21f4 <Xfrac_num_pd_td32+0x8c>
    21dc:	fff446        	j	21b1 <Xfrac_num_pd_td32+0x49>

000021df <Xfrac_num_pd_td32+0x77>:
    21df:	369054        	ae_sllisq56s	aeq2, aeq1, 1
    21e2:	06ca44        	ae_satq48s	aeq3, aeq2
    21e5:	09b034        	ae_ltq56s	b3, aeq0, aeq3
    21e8:	f80521        	l32r	a2, 1fc (cccd0000 <_end+0xcccc41c4>)
    21eb:	f807e1        	l32r	a14, 208 (e6660000 <_end+0xe66541c4>)
    21ee:	140376        	bf	b3, 2206 <Xfrac_num_pd_td32+0x9e>
    21f1:	ffef06        	j	21b1 <Xfrac_num_pd_td32+0x49>

000021f4 <Xfrac_num_pd_td32+0x8c>:
    21f4:	081524        	ae_mulfq32sp24s.l	aeq0, aeq0, aep1
    21f7:	099044        	ae_ltq56s	b4, aeq0, aeq1
    21fa:	f80221        	l32r	a2, 204 (ccd0000 <_end+0xccc41c4>)
    21fd:	358074        	ae_sraiq56	aeq2, aeq0, 1
    2200:	140476        	bf	b4, 2218 <Xfrac_num_pd_td32+0xb0>
    2203:	ffea86        	j	21b1 <Xfrac_num_pd_td32+0x49>

00002206 <Xfrac_num_pd_td32+0x9e>:
    2206:	f80121        	l32r	a2, 20c (f3330000 <_end+0xf33241c4>)
    2209:	369094        	ae_sllisq56s	aeq2, aeq1, 2
    220c:	06ca44        	ae_satq48s	aeq3, aeq2
    220f:	09b054        	ae_ltq56s	b5, aeq0, aeq3
    2212:	d32e50        	movt	a2, a14, b5
    2215:	ffe606        	j	21b1 <Xfrac_num_pd_td32+0x49>

00002218 <Xfrac_num_pd_td32+0xb0>:
    2218:	06ca44        	ae_satq48s	aeq3, aeq2
    221b:	099364        	ae_ltq56s	b6, aeq3, aeq1
    221e:	f7fc21        	l32r	a2, 210 (199a0000 <_end+0x199941c4>)
    2221:	f7fcf1        	l32r	a15, 214 (33330000 <_end+0x333241c4>)
    2224:	020676        	bf	b6, 222a <Xfrac_num_pd_td32+0xc2>
    2227:	ffe186        	j	21b1 <Xfrac_num_pd_td32+0x49>

0000222a <Xfrac_num_pd_td32+0xc2>:
    222a:	f7fb21        	l32r	a2, 218 (3d710000 <_end+0x3d7041c4>)
    222d:	3580b4        	ae_sraiq56	aeq2, aeq0, 2
    2230:	06ca44        	ae_satq48s	aeq3, aeq2
    2233:	099374        	ae_ltq56s	b7, aeq3, aeq1
    2236:	d32f70        	movt	a2, a15, b7
    2239:	ffdd06        	j	21b1 <Xfrac_num_pd_td32+0x49>

0000223c <SBAEC_INIT>:
    223c:	008136        	entry	a1, 64
    223f:	f79951        	l32r	a5, a4 (be30 <p_ecnr_mem>)
    2242:	0b0c           	movi.n	a11, 0
    2244:	0548           	l32i.n	a4, a5, 0
    2246:	c0a0c2        	movi	a12, 192
    2249:	f79e81        	l32r	a8, c4 (9228 <xt_memset>)
    224c:	3dd422        	addmi	a2, a4, 0x3d00
    224f:	10c272        	addi	a7, a2, 16
    2252:	3ed442        	addmi	a4, a4, 0x3e00
    2255:	d0c262        	addi	a6, a2, -48
    2258:	5169           	s32i.n	a6, a1, 20
    225a:	90c442        	addi	a4, a4, -112
    225d:	50c262        	addi	a6, a2, 80
    2260:	88c222        	addi	a2, a2, -120
    2263:	02ad           	mov.n	a10, a2
    2265:	0008e0        	callx8	a8
    2268:	0b0c           	movi.n	a11, 0
    226a:	05a8           	l32i.n	a10, a5, 0
    226c:	c0a4c2        	movi	a12, 0x4c0
    226f:	f79581        	l32r	a8, c4 (9228 <xt_memset>)
    2272:	1adaa2        	addmi	a10, a10, 0x1a00
    2275:	70caa2        	addi	a10, a10, 112
    2278:	0008e0        	callx8	a8
    227b:	f79331        	l32r	a3, c8 (be38 <aec_nr_para>)
    227e:	8d1c           	movi.n	a13, 24
    2280:	03b8           	l32i.n	a11, a3, 0
    2282:	ce0c           	movi.n	a14, 12
    2284:	01d2a2        	addmi	a10, a2, 0x100
    2287:	041bc2        	l16ui	a12, a11, 8
    228a:	d0caa2        	addi	a10, a10, -48
    228d:	41a9           	s32i.n	a10, a1, 16
    228f:	10ece0        	and	a14, a12, a14
    2292:	13ae66        	bnei	a14, 12, 22a9 <SBAEC_INIT+0x6d>
    2295:	f7e191        	l32r	a9, 21c (fff7 <_end+0x41bb>)
    2298:	7f1c           	movi.n	a15, 23
    229a:	131b82        	l16ui	a8, a11, 38
    229d:	10cc90        	and	a12, a12, a9
    22a0:	045bc2        	s16i	a12, a11, 8
    22a3:	02bf87        	bgeu	a15, a8, 22a9 <SBAEC_INIT+0x6d>
    22a6:	135bd2        	s16i	a13, a11, 38
    22a9:	094c           	movi.n	a9, 64
    22ab:	67ec37        	bbsi	a12, 3, 2316 <SBAEC_INIT+0xda>
    22ae:	e39bc2        	l16si	a12, a11, 0x1c6
    22b1:	1cdc           	bnez.n	a12, 22c6 <SBAEC_INIT+0x8a>
    22b3:	b25292        	s16i	a9, a2, 0x164
    22b6:	b452d2        	s16i	a13, a2, 0x168
    22b9:	0c2c           	movi.n	a12, 32
    22bb:	0e3c           	movi.n	a14, 48
    22bd:	b352e2        	s16i	a14, a2, 0x166
    22c0:	b552c2        	s16i	a12, a2, 0x16a
    22c3:	001906        	j	232b <SBAEC_INIT+0xef>

000022c6 <SBAEC_INIT+0x8a>:
    22c6:	131bf2        	l16ui	a15, a11, 38
    22c9:	3484c0        	extui	a8, a12, 4, 4
    22cc:	3490c0        	extui	a9, a12, 0, 4
    22cf:	991b           	addi.n	a9, a9, 1
    22d1:	881b           	addi.n	a8, a8, 1
    22d3:	1188d0        	slli	a8, a8, 3
    22d6:	1199e0        	slli	a9, a9, 2
    22d9:	b25292        	s16i	a9, a2, 0x164
    22dc:	b35282        	s16i	a8, a2, 0x166
    22df:	899d           	ae_sext16	a9, a9
    22e1:	43ff90        	min	a15, a15, a9
    22e4:	888d           	ae_sext16	a8, a8
    22e6:	290c           	movi.n	a9, 2
    22e8:	d28890        	quos	a8, a8, a9
    22eb:	888d           	ae_sext16	a8, a8
    22ed:	43ff80        	min	a15, a15, a8
    22f0:	3488c0        	extui	a8, a12, 8, 4
    22f3:	881b           	addi.n	a8, a8, 1
    22f5:	1188e0        	slli	a8, a8, 2
    22f8:	b45282        	s16i	a8, a2, 0x168
    22fb:	888d           	ae_sext16	a8, a8
    22fd:	43ff80        	min	a15, a15, a8
    2300:	348cc0        	extui	a8, a12, 12, 4
    2303:	881b           	addi.n	a8, a8, 1
    2305:	1188e0        	slli	a8, a8, 2
    2308:	b55282        	s16i	a8, a2, 0x16a
    230b:	888d           	ae_sext16	a8, a8
    230d:	43ff80        	min	a15, a15, a8
    2310:	135bf2        	s16i	a15, a11, 38
    2313:	000506        	j	232b <SBAEC_INIT+0xef>

00002316 <SBAEC_INIT+0xda>:
    2316:	b45292        	s16i	a9, a2, 0x168
    2319:	60a0a2        	movi	a10, 96
    231c:	c0a0c2        	movi	a12, 192
    231f:	00a1d2        	movi	a13, 0x100
    2322:	b252d2        	s16i	a13, a2, 0x164
    2325:	b352c2        	s16i	a12, a2, 0x166
    2328:	b552a2        	s16i	a10, a2, 0x16a

0000232b <SBAEC_INIT+0xef>:
    232b:	bbeb           	addi.n	a11, a11, 14
    232d:	f76781        	l32r	a8, cc (9240 <xt_memcpy>)
    2330:	a22b           	addi.n	a10, a2, 2
    2332:	ec0c           	movi.n	a12, 14
    2334:	0008e0        	callx8	a8
    2337:	02ed           	mov.n	a14, a2
    2339:	03b8           	l32i.n	a11, a3, 0
    233b:	f7b981        	l32r	a8, 220 (2440 <Fill_CH_MEM_WB>)
    233e:	05f8           	l32i.n	a15, a5, 0
    2340:	061ba2        	l16ui	a10, a11, 12
    2343:	d81bc2        	l16ui	a12, a11, 0x1b0
    2346:	d99bd2        	l16si	a13, a11, 0x1b2
    2349:	24df92        	addmi	a9, a15, 0x2400
    234c:	f0c992        	addi	a9, a9, -16
    234f:	1152d2        	s16i	a13, a2, 34
    2352:	1052c2        	s16i	a12, a2, 32
    2355:	1adff2        	addmi	a15, a15, 0x1a00
    2358:	70cff2        	addi	a15, a15, 112
    235b:	06cd           	mov.n	a12, a6
    235d:	04dd           	mov.n	a13, a4
    235f:	c61bb2        	l16ui	a11, a11, 0x18c
    2362:	11aac0        	slli	a10, a10, 4
    2365:	92a9           	s32i.n	a10, a2, 36
    2367:	0f52b2        	s16i	a11, a2, 30
    236a:	51a8           	l32i.n	a10, a1, 20
    236c:	07bd           	mov.n	a11, a7
    236e:	0199           	s32i.n	a9, a1, 0
    2370:	0008e0        	callx8	a8
    2373:	51a8           	l32i.n	a10, a1, 20
    2375:	b292b2        	l16si	a11, a2, 0x164
    2378:	1d0c           	movi.n	a13, 1
    237a:	03c8           	l32i.n	a12, a3, 0
    237c:	05e8           	l32i.n	a14, a5, 0
    237e:	f7a981        	l32r	a8, 224 (2428 <Fill_sbco>)
    2381:	169cc2        	l16si	a12, a12, 44
    2384:	19dee2        	addmi	a14, a14, 0x1900
    2387:	542e92        	l32i	a9, a14, 0x150
    238a:	e499           	s32i.n	a9, a4, 56
    238c:	502ee2        	l32i	a14, a14, 0x140
    238f:	d4e9           	s32i.n	a14, a4, 52
    2391:	0008e0        	callx8	a8
    2394:	07ad           	mov.n	a10, a7
    2396:	f7a381        	l32r	a8, 224 (2428 <Fill_sbco>)
    2399:	03c8           	l32i.n	a12, a3, 0
    239b:	b392b2        	l16si	a11, a2, 0x166
    239e:	2d0c           	movi.n	a13, 2
    23a0:	179cc2        	l16si	a12, a12, 46
    23a3:	d2bbd0        	quos	a11, a11, a13
    23a6:	8bbd           	ae_sext16	a11, a11
    23a8:	1d0c           	movi.n	a13, 1
    23aa:	0008e0        	callx8	a8
    23ad:	06ad           	mov.n	a10, a6
    23af:	b492b2        	l16si	a11, a2, 0x168
    23b2:	03c8           	l32i.n	a12, a3, 0
    23b4:	f79c81        	l32r	a8, 224 (2428 <Fill_sbco>)
    23b7:	1d0c           	movi.n	a13, 1
    23b9:	189cc2        	l16si	a12, a12, 48
    23bc:	0008e0        	callx8	a8
    23bf:	04ad           	mov.n	a10, a4
    23c1:	4168           	l32i.n	a6, a1, 16
    23c3:	f79971        	l32r	a7, 228 (1928 <Pitch_by_Corel+0x510>)
    23c6:	b592b2        	l16si	a11, a2, 0x16a
    23c9:	03c8           	l32i.n	a12, a3, 0
    23cb:	f79681        	l32r	a8, 224 (2428 <Fill_sbco>)
    23ce:	1d0c           	movi.n	a13, 1
    23d0:	199cc2        	l16si	a12, a12, 50
    23d3:	0008e0        	callx8	a8
    23d6:	05e8           	l32i.n	a14, a5, 0
    23d8:	03f8           	l32i.n	a15, a3, 0
    23da:	ee7a           	add.n	a14, a14, a7
    23dc:	151fc2        	l16ui	a12, a15, 42
    23df:	021fb2        	l16ui	a11, a15, 4
    23e2:	041fd2        	l16ui	a13, a15, 8
    23e5:	231fa2        	l16ui	a10, a15, 70
    23e8:	051f92        	l16ui	a9, a15, 10
    23eb:	0480d0        	extui	a8, a13, 0, 1
    23ee:	14d1d0        	extui	a13, a13, 1, 2
    23f1:	a45282        	s16i	a8, a2, 0x148
    23f4:	dc1ff2        	l16ui	a15, a15, 0x1b8
    23f7:	f78d81        	l32r	a8, 22c (7fff <ifft_wo+0x107>)
    23fa:	7d5ec2        	s16i	a12, a14, 250
    23fd:	825ed2        	s16i	a13, a14, 0x104
    2400:	62bd           	ae_s16i.n	a11, a2, 0
    2402:	a652a2        	s16i	a10, a2, 0x14c
    2405:	a55292        	s16i	a9, a2, 0x14a
    2408:	155282        	s16i	a8, a2, 42
    240b:	7e46f2        	s8i	a15, a6, 126
    240e:	03d8           	l32i.n	a13, a3, 0
    2410:	dc1dd2        	l16ui	a13, a13, 0x1b8
    2413:	442ee2        	l32i	a14, a14, 0x110
    2416:	2466e2        	s32i	a14, a6, 144
    2419:	41d8d0        	srli	a13, a13, 8
    241c:	7f46d2        	s8i	a13, a6, 127
    241f:	f01d           	retw.n

00002421 <SBAEC_INIT+0x1e5>:
    2421:	00000000 36000000                                .......

00002428 <Fill_sbco>:
    2428:	004136        	entry	a1, 32
    242b:	115232        	s16i	a3, a2, 34
    242e:	125252        	s16i	a5, a2, 36
    2431:	118400        	slli	a8, a4, 16
    2434:	f77e61        	l32r	a6, 22c (7fff <ifft_wo+0x107>)
    2437:	105262        	s16i	a6, a2, 32
    243a:	5289           	s32i.n	a8, a2, 20
    243c:	4289           	s32i.n	a8, a2, 16
    243e:	f01d           	retw.n

00002440 <Fill_CH_MEM_WB>:
    2440:	004136        	entry	a1, 32
    2443:	8188           	l32i.n	a8, a1, 32
    2445:	b596e2        	l16si	a14, a6, 0x16a
    2448:	b496a2        	l16si	a10, a6, 0x168
    244b:	b296c2        	l16si	a12, a6, 0x164
    244e:	b396b2        	l16si	a11, a6, 0x166
    2451:	a279           	s32i.n	a7, a2, 40
    2453:	909c70        	addx2	a9, a12, a7
    2456:	a399           	s32i.n	a9, a3, 40
    2458:	90db90        	addx2	a13, a11, a9
    245b:	a4d9           	s32i.n	a13, a4, 40
    245d:	90dad0        	addx2	a13, a10, a13
    2460:	a5d9           	s32i.n	a13, a5, 40
    2462:	90eed0        	addx2	a14, a14, a13
    2465:	90cce0        	addx2	a12, a12, a14
    2468:	90bbc0        	addx2	a11, a11, a12
    246b:	90aab0        	addx2	a10, a10, a11
    246e:	b2e9           	s32i.n	a14, a2, 44
    2470:	a2f8           	l32i.n	a15, a2, 40
    2472:	a4e8           	l32i.n	a14, a4, 40
    2474:	b3c9           	s32i.n	a12, a3, 44
    2476:	b4b9           	s32i.n	a11, a4, 44
    2478:	28c8c2        	addi	a12, a8, 40
    247b:	50c8b2        	addi	a11, a8, 80
    247e:	b5a9           	s32i.n	a10, a5, 44
    2480:	c399           	s32i.n	a9, a3, 48
    2482:	64c8a2        	addi	a10, a8, 100
    2485:	78c892        	addi	a9, a8, 120
    2488:	c2f9           	s32i.n	a15, a2, 48
    248a:	c4e9           	s32i.n	a14, a4, 48
    248c:	c5d9           	s32i.n	a13, a5, 48
    248e:	d389           	s32i.n	a8, a3, 52
    2490:	f3c9           	s32i.n	a12, a3, 60
    2492:	01d882        	addmi	a8, a8, 0x100
    2495:	d2b9           	s32i.n	a11, a2, 52
    2497:	8cc8c2        	addi	a12, a8, -116
    249a:	a0c8b2        	addi	a11, a8, -96
    249d:	d4a9           	s32i.n	a10, a4, 52
    249f:	f299           	s32i.n	a9, a2, 60
    24a1:	c8c8a2        	addi	a10, a8, -56
    24a4:	f0c892        	addi	a9, a8, -16
    24a7:	f4c9           	s32i.n	a12, a4, 60
    24a9:	884b           	addi.n	a8, a8, 4
    24ab:	f5b9           	s32i.n	a11, a5, 60
    24ad:	e3a9           	s32i.n	a10, a3, 56
    24af:	e299           	s32i.n	a9, a2, 56
    24b1:	e489           	s32i.n	a8, a4, 56
    24b3:	f01d           	retw.n

000024b5 <Fill_CH_MEM_WB+0x75>:
    24b5:	000000                                        ...

000024b8 <common_x_pow>:
    24b8:	006136        	entry	a1, 48
    24bb:	f75f91        	l32r	a9, 238 (b4f0 <immediate_num>)
    24be:	36c434        	ae_cvtq48a32s	aeq3, a4
    24c1:	fe84bec33f 	{ ae_cvtq48a32s	aeq0, a3; ae_absq56	aeq2, aeq3 }
    24c6:	065864        	ae_absq56	aeq1, aeq0
    24c9:	d65413622f 	{ or	a6, a2, a2; ae_ltq56s	b0, aeq1, aeq2 }
    24ce:	f75851        	l32r	a5, 230 (200000 <_end+0x1f41c4>)
    24d1:	441904        	ae_lp16x2f.i	aep1, a9, 0
    24d4:	200076        	bf	b0, 24f8 <common_x_pow+0x40>
    24d7:	fb36fec57f 	{ ae_cvtq48a32s	aeq1, a5; ae_subq56	aeq3, aeq2, aeq1 }
    24dc:	d65d80012f 	{ movi	a2, 1; ae_ltq56s	b6, aeq1, aeq3 }
    24e1:	f75481        	l32r	a8, 234 (2aaa00 <_end+0x29ebc4>)
    24e4:	ff0462088f 	{ ae_movpa24x2	aep0, a8, a8; ae_movq56	aeq3, aeq0 }
    24e9:	080676        	bf	b6, 24f5 <common_x_pow+0x3d>
    24ec:	030a14        	ae_mulfq32sp16s.l	aeq1, aeq0, aep0
    24ef:	06d934        	ae_roundsq32asym	aeq3, aeq1
    24f2:	ffffc6        	j	24f5 <common_x_pow+0x3d>

000024f5 <common_x_pow+0x3d>:
    24f5:	000046        	j	24fa <common_x_pow+0x42>

000024f8 <common_x_pow+0x40>:
    24f8:	020c           	movi.n	a2, 0

000024fa <common_x_pow+0x42>:
    24fa:	608624        	ae_lq32f.i	aeq2, a6, 8
    24fd:	0f243d263f 	{ ae_lq32f.i	aeq1, a6, 12; ae_mulzaafq32sp16s.lh	aeq2, aeq2, aep1, aeq0, aep1 }
    2502:	c11974        	ae_mulzaafq32sp16s.lh	aeq1, aeq1, aep1, aeq3, aep1
    2505:	06a934        	ae_roundsq32asym	aeq2, aeq2
    2508:	fe2c79a62f 	{ ae_sq32f.i	aeq2, a6, 8; ae_roundsq32asym	aeq2, aeq1 }
    250d:	622634        	ae_sq32f.i	aeq2, a6, 12
    2510:	f01d           	retw.n

00002512 <common_x_pow+0x5a>:
	...

00002514 <ref_gain_adapt>:
    2514:	004136        	entry	a1, 32
    2517:	f74691        	l32r	a9, 230 (200000 <_end+0x1f41c4>)
    251a:	5378           	l32i.n	a7, a3, 20
    251c:	f74881        	l32r	a8, 23c (b4f4 <immediate_num+0x4>)
    251f:	360734        	ae_cvtq48a32s	aeq0, a7
    2522:	0205d6        	bgez	a5, 2546 <ref_gain_adapt+0x32>
    2525:	440804        	ae_lp16x2f.i	aep0, a8, 0
    2528:	059262        	l16si	a6, a2, 10
    252b:	368434        	ae_cvtq48a32s	aeq2, a4
    252e:	038a84        	ae_mulfq32sp16s.h	aeq3, aeq2, aep0
    2531:	116600        	slli	a6, a6, 16
    2534:	364634        	ae_cvtq48a32s	aeq1, a6
    2537:	09b104        	ae_ltq56s	b0, aeq1, aeq3
    253a:	1e0076        	bf	b0, 255c <ref_gain_adapt+0x48>
    253d:	a10004        	ae_mulzaafq32sp16s.ll	aeq0, aeq0, aep0, aeq0, aep0

00002540 <ref_gain_adapt+0x2c>:
    2540:	060934        	ae_roundsq32asym	aeq0, aeq0
    2543:	368704        	ae_trunca32q48	a7, aeq0

00002546 <ref_gain_adapt+0x32>:
    2546:	608344        	ae_lq32f.i	aeq2, a3, 16
    2549:	539790        	max	a9, a7, a9
    254c:	5399           	s32i.n	a9, a3, 20
    254e:	440844        	ae_lp16x2f.i	aep0, a8, 16
    2551:	c18084        	ae_mulzaafq32sp16s.lh	aeq2, aeq2, aep0, aeq0, aep0
    2554:	066934        	ae_roundsq32asym	aeq1, aeq2
    2557:	621344        	ae_sq32f.i	aeq1, a3, 16
    255a:	f01d           	retw.n

0000255c <ref_gain_adapt+0x48>:
    255c:	440814        	ae_lp16x2f.i	aep0, a8, 4
    255f:	038a84        	ae_mulfq32sp16s.h	aeq3, aeq2, aep0
    2562:	09b114        	ae_ltq56s	b1, aeq1, aeq3
    2565:	050176        	bf	b1, 256e <ref_gain_adapt+0x5a>
    2568:	a10004        	ae_mulzaafq32sp16s.ll	aeq0, aeq0, aep0, aeq0, aep0
    256b:	fff446        	j	2540 <ref_gain_adapt+0x2c>

0000256e <ref_gain_adapt+0x5a>:
    256e:	440824        	ae_lp16x2f.i	aep0, a8, 8
    2571:	038a44        	ae_mulfq32sp16s.h	aeq3, aeq1, aep0
    2574:	09b224        	ae_ltq56s	b2, aeq2, aeq3
    2577:	d5e36d183f 	{ ae_lp16x2f.i	aep1, a8, 12; ae_mulfq32sp16s.l	aeq3, aeq1, aep0 }
    257c:	c00276        	bf	b2, 2540 <ref_gain_adapt+0x2c>
    257f:	09a334        	ae_ltq56s	b3, aeq3, aeq2
    2582:	01d2b2        	addmi	a11, a2, 0x100
    2585:	3a0c           	movi.n	a10, 3
    2587:	051376        	bt	b3, 2590 <ref_gain_adapt+0x7c>
    258a:	4e0bb2        	l8ui	a11, a11, 78
    258d:	af0ab7        	bnone	a10, a11, 2540 <ref_gain_adapt+0x2c>

00002590 <ref_gain_adapt+0x7c>:
    2590:	031214        	ae_mulfq32sp16s.l	aeq0, aeq0, aep1
    2593:	ffea46        	j	2540 <ref_gain_adapt+0x2c>

00002596 <ref_gain_adapt+0x82>:
	...

00002598 <aec_post_calc>:
    2598:	006136        	entry	a1, 48
    259b:	f72991        	l32r	a9, 240 (80000 <_end+0x741c4>)
    259e:	f6e3a1        	l32r	a10, 12c (10000 <_end+0x41c4>)
    25a1:	5d4466        	bnei	a4, 4, 2602 <aec_post_calc+0x6a>
    25a4:	364934        	ae_cvtq48a32s	aeq1, a9
    25a7:	20c2d2        	addi	a13, a2, 32
    25aa:	400d04        	ae_lp16f.i	aep0, a13, 0
    25ad:	d4e3f023be 	{ l32i	a11, a3, 8; ae_mulfq32sp16u.l	aeq1, aeq1, aep0 }
    25b2:	360a34        	ae_cvtq48a32s	aeq0, a10
    25b5:	621104        	ae_sq32f.i	aeq1, a1, 0
    25b8:	d4e2b001ce 	{ l32i	a12, a1, 0; ae_mulfq32sp16u.l	aeq0, aeq0, aep0 }
    25bd:	620104        	ae_sq32f.i	aeq0, a1, 0
    25c0:	53bbc0        	max	a11, a11, a12

000025c3 <aec_post_calc+0x2b>:
    25c3:	01c8           	l32i.n	a12, a1, 0
    25c5:	33a8           	l32i.n	a10, a3, 12
    25c7:	f71f81        	l32r	a8, 244 (81c0 <airoha_divide_limit_1>)
    25ca:	53aac0        	max	a10, a10, a12
    25cd:	43aba0        	min	a10, a11, a10
    25d0:	0008e0        	callx8	a8
    25d3:	4c2244        	ae_lp24.i	aep2, a2, 16
    25d6:	379aa4        	ae_truncp24a32x2	aep1, a10, a10
    25d9:	60c364        	ae_lq32f.i	aeq3, a3, 24
    25dc:	019a34        	ae_mulafp24s.ll	aeq3, aep1, aep2
    25df:	fe3c7d037f 	{ ae_lq32f.i	aeq0, a3, 28; ae_roundsq32asym	aeq2, aeq3 }
    25e4:	622364        	ae_sq32f.i	aeq2, a3, 24
    25e7:	1792e2        	l16si	a14, a2, 46
    25ea:	0292d2        	l16si	a13, a2, 4
    25ed:	403274        	ae_lp16f.i	aep3, a2, 14
    25f0:	f866a162fe 	{ l16si	a15, a2, 44; ae_movp48	aep0, aep1 }
    25f5:	2bade7        	bge	a13, a14, 2624 <aec_post_calc+0x8c>
    25f8:	0a9292        	l16si	a9, a2, 20
    25fb:	411fe6        	bgei	a15, 1, 2640 <aec_post_calc+0xa8>
    25fe:	001006        	j	2642 <aec_post_calc+0xaa>

00002601 <aec_post_calc+0x69>:
	...

00002602 <aec_post_calc+0x6a>:
    2602:	364934        	ae_cvtq48a32s	aeq1, a9
    2605:	1ec2d2        	addi	a13, a2, 30
    2608:	401d04        	ae_lp16f.i	aep1, a13, 0
    260b:	d4e7f023be 	{ l32i	a11, a3, 8; ae_mulfq32sp16u.l	aeq1, aeq1, aep1 }
    2610:	360a34        	ae_cvtq48a32s	aeq0, a10
    2613:	621104        	ae_sq32f.i	aeq1, a1, 0
    2616:	d4e6b001ce 	{ l32i	a12, a1, 0; ae_mulfq32sp16u.l	aeq0, aeq0, aep1 }
    261b:	620104        	ae_sq32f.i	aeq0, a1, 0
    261e:	53bbc0        	max	a11, a11, a12
    2621:	ffe786        	j	25c3 <aec_post_calc+0x2b>

00002624 <aec_post_calc+0x8c>:
    2624:	0b9292        	l16si	a9, a2, 22
    2627:	e90b           	addi.n	a14, a9, -1
    2629:	05ae76        	loopgtz	a14, 2632 <aec_post_calc+0x9a>
    262c:	018174        	ae_mulfp24s.ll	aeq2, aep0, aep1
    262f:	1bad04        	ae_roundsp24q48asym	aep0, aeq2

00002632 <aec_post_calc+0x9a>:
    2632:	070b34        	ae_maxp24s	aep3, aep0, aep3
    2635:	013234        	ae_mulafp24s.ll	aeq0, aep3, aep2
    2638:	06c934        	ae_roundsq32asym	aeq3, aeq0
    263b:	623374        	ae_sq32f.i	aeq3, a3, 28
    263e:	f01d           	retw.n

00002640 <aec_post_calc+0xa8>:
    2640:	992b           	addi.n	a9, a9, 2

00002642 <aec_post_calc+0xaa>:
    2642:	031694        	wur.ae_sar	a9
    2645:	0b1084        	ae_sllssp24s	aep0, aep1
    2648:	fff986        	j	2632 <aec_post_calc+0x9a>

0000264b <aec_post_calc+0xb3>:
	...

0000264c <subband_aec_block>:
    264c:	008136        	entry	a1, 64
    264f:	06cd           	mov.n	a12, a6
    2651:	c3d8           	l32i.n	a13, a3, 48
    2653:	60c344        	ae_lq32f.i	aeq3, a3, 16
    2656:	4e0c           	movi.n	a14, 4
    2658:	119382        	l16si	a8, a3, 34
    265b:	e3b8           	l32i.n	a11, a3, 56
    265d:	5822a2        	l32i	a10, a2, 0x160
    2660:	290c           	movi.n	a9, 2
    2662:	0a23f2        	l32i	a15, a3, 40
    2665:	f3f6f0        	wur.ae_cbegin0	a15
    2668:	d29490        	quos	a9, a4, a9
    266b:	fccaa2        	addi	a10, a10, -4
    266e:	440b04        	ae_lp16x2f.i	aep0, a11, 0
    2671:	fc249188ff 	{ addx2	a8, a8, a15; ae_zeroq56	aeq0 }
    2676:	f3f780        	wur.ae_cend0	a8
    2679:	19a976        	loopgtz	a9, 2696 <subband_aec_block+0x4a>
    267c:	a180f4        	ae_mulzaafq32sp16s.ll	aeq2, aeq3, aep0, aeq3, aep0
    267f:	b108f4        	ae_mulzaafq32sp16s.hh	aeq1, aeq3, aep0, aeq3, aep0
    2682:	f9739abdef 	{ ae_lp16x2f.c	aep3, a13, a14; ae_roundsp16q48asym	aep2, aeq2 }
    2687:	f86bed8b1f 	{ ae_lp16x2f.iu	aep0, a11, 4; ae_roundsp16q48asym	aep1, aeq1 }
    268c:	f06e3e125f 	{ ae_selp24.hl	aep1, aep1, aep2; ae_mulssfp24s.hh.ll	aeq0, aep3, aep3 }
    2691:	e224339a1f 	{ ae_sp16x2f.iu	aep1, a10, 4; ae_mulaafp24s.hh.ll	aeq0, aep1, aep1 }

00002696 <subband_aec_block+0x4a>:
    2696:	31c9           	s32i.n	a12, a1, 12
    2698:	35c234        	ae_sraiq56	aeq3, aeq0, 8
    269b:	618304        	ae_lq56.i	aeq2, a3, 0
    269e:	faf63092ae 	{ l32i	a10, a2, 36; ae_addq56	aeq2, aeq2, aeq3 }
    26a3:	fc80feca7f 	{ ae_cvtq48a32s	aeq1, a10; ae_satq48s	aeq0, aeq2 }
    26a8:	f86b14219f 	{ s32i.n	a9, a1, 8; ae_maxq56s	aeq0, aeq0, aeq1 }
    26ad:	630304        	ae_sq56s.i	aeq0, a3, 0
    26b0:	0125d6        	bgez	a5, 26c6 <subband_aec_block+0x7a>
    26b3:	1093a2        	l16si	a10, a3, 32
    26b6:	f6e481        	l32r	a8, 248 (80b8 <airoha_divide>)
    26b9:	368b04        	ae_trunca32q48	a11, aeq0
    26bc:	11aa70        	slli	a10, a10, 9
    26bf:	0008e0        	callx8	a8
    26c2:	01b9           	s32i.n	a11, a1, 0
    26c4:	11a9           	s32i.n	a10, a1, 4

000026c6 <subband_aec_block+0x7a>:
    26c6:	270c           	movi.n	a7, 2
    26c8:	c3a8           	l32i.n	a10, a3, 48
    26ca:	119362        	l16si	a6, a3, 34
    26cd:	0f2392        	l32i	a9, a3, 60
    26d0:	5822d2        	l32i	a13, a2, 0x160
    26d3:	0b23c2        	l32i	a12, a3, 44
    26d6:	0d23e2        	l32i	a14, a3, 52
    26d9:	fecdd2        	addi	a13, a13, -2
    26dc:	feccc2        	addi	a12, a12, -2
    26df:	feceb2        	addi	a11, a14, -2
    26e2:	fec9f2        	addi	a15, a9, -2
    26e5:	5e14a6        	blti	a4, 1, 2747 <subband_aec_block+0xfb>
    26e8:	00a0e2        	movi	a14, 0

000026eb <subband_aec_block+0x9f>:
    26eb:	0c9d           	mov.n	a9, a12
    26ed:	40dd14        	ae_lp16f.iu	aep5, a13, 2
    26f0:	fc24e2da7f 	{ ae_sp16f.l.c	aep5, a10, a7; nop }
    26f5:	40cb14        	ae_lp16f.iu	aep4, a11, 2
    26f8:	fc8c2c891f 	{ ae_lp16f.iu	aep0, a9, 2; ae_cvtq48p24s.l	aeq0, aep4 }
    26fd:	09a676        	loopgtz	a6, 270a <subband_aec_block+0xbe>
    2700:	fc24d96a7f 	{ ae_lp16f.c	aep6, a10, a7; nop }
    2705:	eec1ac891f 	{ ae_lp16f.iu	aep0, a9, 2; ae_mulsfp24s.ll	aeq0, aep0, aep6 }

0000270a <subband_aec_block+0xbe>:
    270a:	f863801eee 	{ addi	a14, a14, 1; ae_roundsp16q48asym	aep0, aeq0 }
    270f:	428f14        	ae_sp16f.l.iu	aep0, a15, 2
    2712:	02a5d6        	bgez	a5, 2740 <subband_aec_block+0xf4>
    2715:	002192        	l32i	a9, a1, 0
    2718:	364934        	ae_cvtq48a32s	aeq1, a9
    271b:	d4e370118e 	{ l32i	a8, a1, 4; ae_mulfq32sp16s.l	aeq1, aeq1, aep0 }
    2720:	209cc0        	or	a9, a12, a12
    2723:	fc24fe980f 	{ ae_slaasq56s	aeq0, aeq1, a8; nop }
    2728:	f967ac891f 	{ ae_lp16f.iu	aep0, a9, 2; ae_roundsp24q48asym	aep2, aeq0 }
    272d:	0fa676        	loopgtz	a6, 2740 <subband_aec_block+0xf4>

00002730 <subband_aec_block+0xe4>:
    2730:	fe0c190a7f 	{ ae_lp16f.c	aep0, a10, a7; ae_cvtq48p24s.l	aeq2, aep0 }
    2735:	01a034        	ae_mulafp24s.ll	aeq2, aep2, aep0
    2738:	fb73ec891f 	{ ae_lp16f.iu	aep0, a9, 2; ae_roundsp16q48asym	aep7, aeq2 }
    273d:	4279f4        	ae_sp16f.l.i	aep7, a9, -2
    2740:	a794e7        	bne	a4, a14, 26eb <subband_aec_block+0x9f>
    2743:	d3e8           	l32i.n	a14, a3, 52
    2745:	f398           	l32i.n	a9, a3, 60

00002747 <subband_aec_block+0xfb>:
    2747:	c3a9           	s32i.n	a10, a3, 48
    2749:	21b8           	l32i.n	a11, a1, 8
    274b:	fc248fc99e 	{ addi	a9, a9, -4; ae_zeroq56	aeq0 }
    2750:	fd044fceae 	{ addi	a10, a14, -4; ae_movq56	aeq1, aeq0 }
    2755:	0aab76        	loopgtz	a11, 2763 <subband_aec_block+0x117>
    2758:	449a14        	ae_lp16x2f.iu	aep1, a10, 4
    275b:	e2246da91f 	{ ae_lp16x2f.iu	aep2, a9, 4; ae_mulaafp24s.hh.ll	aeq1, aep1, aep1 }
    2760:	051204        	ae_mulaafp24s.hh.ll	aeq0, aep1, aep2

00002763 <subband_aec_block+0x117>:
    2763:	03ad           	mov.n	a10, a3
    2765:	f6b981        	l32r	a8, 24c (24b8 <common_x_pow>)
    2768:	359134        	ae_sraiq56	aeq2, aeq1, 4

0000276b <subband_aec_block+0x11f>:
    276b:	fc347b014f 	{ ae_sraiq56	aeq1, aeq0, 4; ae_roundsq32asym	aeq0, aeq2 }
    2770:	ff2c7f0bef 	{ ae_trunca32q48	a11, aeq0; ae_roundsq32asym	aeq3, aeq1 }
    2775:	36bc04        	ae_trunca32q48	a12, aeq3
    2778:	0008e0        	callx8	a8
    277b:	aa8c           	beqz.n	a10, 2789 <subband_aec_block+0x13d>
    277d:	04cd           	mov.n	a12, a4
    277f:	f65381        	l32r	a8, cc (9240 <xt_memcpy>)
    2782:	f3a8           	l32i.n	a10, a3, 60
    2784:	d3b8           	l32i.n	a11, a3, 52
    2786:	0008e0        	callx8	a8

00002789 <subband_aec_block+0x13d>:
    2789:	2d0c           	movi.n	a13, 2
    278b:	b3c8           	l32i.n	a12, a3, 44
    278d:	0d92a2        	l16si	a10, a2, 26
    2790:	fc24a1139e 	{ l16si	a9, a3, 34; ae_zeroq56	aeq0 }
    2795:	630124        	ae_sq56s.i	aeq0, a1, 16
    2798:	11baf0        	slli	a11, a10, 1
    279b:	9099c0        	addx2	a9, a9, a12
    279e:	d2aad0        	quos	a10, a10, a13
    27a1:	8aad           	ae_sext16	a10, a10
    27a3:	c099b0        	sub	a9, a9, a11
    27a6:	fcc992        	addi	a9, a9, -4
    27a9:	08aa76        	loopgtz	a10, 27b5 <subband_aec_block+0x169>
    27ac:	44b914        	ae_lp16x2f.iu	aep3, a9, 4
    27af:	053304        	ae_mulaafp24s.hh.ll	aeq0, aep3, aep3
    27b2:	630124        	ae_sq56s.i	aeq0, a1, 16

000027b5 <subband_aec_block+0x169>:
    27b5:	f6a381        	l32r	a8, 244 (81c0 <airoha_divide_limit_1>)
    27b8:	33a8           	l32i.n	a10, a3, 12
    27ba:	61c124        	ae_lq56.i	aeq3, a1, 16
    27bd:	3530b4        	ae_sraiq56	aeq0, aeq3, 2
    27c0:	ff244000bf 	{ movi	a11, 0; ae_roundsq32asym	aeq3, aeq0 }
    27c5:	53aab0        	max	a10, a10, a11
    27c8:	633124        	ae_sq56s.i	aeq3, a1, 16
    27cb:	23b8           	l32i.n	a11, a3, 8
    27cd:	0008e0        	callx8	a8
    27d0:	610124        	ae_lq56.i	aeq0, a1, 16
    27d3:	0492f2        	l16si	a15, a2, 8
    27d6:	f695e1        	l32r	a14, 22c (7fff <ifft_wo+0x107>)
    27d9:	3180a0        	srai	a8, a10, 16
    27dc:	1293b2        	l16si	a11, a3, 36
    27df:	c0ee80        	sub	a14, a14, a8
    27e2:	53eef0        	max	a14, a14, a15
    27e5:	256b17        	bbci	a11, 1, 280e <subband_aec_block+0x1c2>
    27e8:	05dd           	mov.n	a13, a5
    27ea:	02ad           	mov.n	a10, a2
    27ec:	03bd           	mov.n	a11, a3
    27ee:	039292        	l16si	a9, a2, 6
    27f1:	368404        	ae_trunca32q48	a4, aeq0
    27f4:	f69781        	l32r	a8, 250 (2514 <ref_gain_adapt>)
    27f7:	8299e0        	mull	a9, a9, a14
    27fa:	04cd           	mov.n	a12, a4
    27fc:	40d992        	addmi	a9, a9, 0x4000
    27ff:	219f90        	srai	a9, a9, 15
    2802:	105392        	s16i	a9, a3, 32
    2805:	0008e0        	callx8	a8
    2808:	1293b2        	l16si	a11, a3, 36
    280b:	000146        	j	2814 <subband_aec_block+0x1c8>

0000280e <subband_aec_block+0x1c2>:
    280e:	1053e2        	s16i	a14, a3, 32
    2811:	368404        	ae_trunca32q48	a4, aeq0

00002814 <subband_aec_block+0x1c8>:
    2814:	0592a2        	l16si	a10, a2, 10
    2817:	11aa00        	slli	a10, a10, 16
    281a:	54aa47        	bge	a10, a4, 2872 <subband_aec_block+0x226>
    281d:	f68da1        	l32r	a10, 254 (b508 <immediate_num+0x18>)
    2820:	0692c2        	l16si	a12, a2, 12
    2823:	20bb70        	or	a11, a11, a7
    2826:	1253b2        	s16i	a11, a3, 36
    2829:	11cc00        	slli	a12, a12, 16
    282c:	05ac47        	bge	a12, a4, 2835 <subband_aec_block+0x1e9>
    282f:	403a04        	ae_lp16f.i	aep3, a10, 0
    2832:	000086        	j	2838 <subband_aec_block+0x1ec>

00002835 <subband_aec_block+0x1e9>:
    2835:	403a14        	ae_lp16f.i	aep3, a10, 2

00002838 <subband_aec_block+0x1ec>:
    2838:	b3e8           	l32i.n	a14, a3, 44
    283a:	0d92d2        	l16si	a13, a2, 26
    283d:	1193a2        	l16si	a10, a3, 34
    2840:	2f0c           	movi.n	a15, 2
    2842:	11cdf0        	slli	a12, a13, 1
    2845:	90aae0        	addx2	a10, a10, a14
    2848:	d2ddf0        	quos	a13, a13, a15
    284b:	8ddd           	ae_sext16	a13, a13
    284d:	c0aac0        	sub	a10, a10, a12
    2850:	feca92        	addi	a9, a10, -2
    2853:	440a04        	ae_lp16x2f.i	aep0, a10, 0
    2856:	181da6        	blti	a13, 1, 2872 <subband_aec_block+0x226>
    2859:	12ad76        	loopgtz	a13, 286f <subband_aec_block+0x223>
    285c:	018354        	ae_mulfp24s.hl	aeq2, aep0, aep3
    285f:	010b74        	ae_mulfp24s.ll	aeq1, aep0, aep3
    2862:	fa73ed8a1f 	{ ae_lp16x2f.iu	aep0, a10, 4; ae_roundsp16q48asym	aep5, aeq2 }
    2867:	fa6bb2d91f 	{ ae_sp16f.l.iu	aep5, a9, 2; ae_roundsp16q48asym	aep4, aeq1 }
    286c:	42c914        	ae_sp16f.l.iu	aep4, a9, 2

0000286f <subband_aec_block+0x223>:
    286f:	1293b2        	l16si	a11, a3, 36
    2872:	0b6b07        	bbci	a11, 0, 2881 <subband_aec_block+0x235>
    2875:	03bd           	mov.n	a11, a3
    2877:	f67881        	l32r	a8, 258 (2598 <aec_post_calc>)
    287a:	02ad           	mov.n	a10, a2
    287c:	31c8           	l32i.n	a12, a1, 12
    287e:	0008e0        	callx8	a8

00002881 <subband_aec_block+0x235>:
    2881:	f01d           	retw.n

00002883 <subband_aec_block+0x237>:
	...

00002884 <subband_aec_mid_channel>:
    2884:	008136        	entry	a1, 64
    2887:	c398           	l32i.n	a9, a3, 48
    2889:	60c344        	ae_lq32f.i	aeq3, a3, 16
    288c:	460c           	movi.n	a6, 4
    288e:	2159           	s32i.n	a5, a1, 8
    2890:	a80c           	movi.n	a8, 10
    2892:	1193c2        	l16si	a12, a3, 34
    2895:	a3d8           	l32i.n	a13, a3, 40
    2897:	5822b2        	l32i	a11, a2, 0x160
    289a:	f3f6d0        	wur.ae_cbegin0	a13
    289d:	a0ccd0        	addx4	a12, a12, a13
    28a0:	e3d8           	l32i.n	a13, a3, 56
    28a2:	fccbb2        	addi	a11, a11, -4
    28a5:	f3f7c0        	wur.ae_cend0	a12
    28a8:	fc24ad0d0f 	{ ae_lp16x2f.i	aep0, a13, 0; ae_zeroq56	aeq0 }
    28ad:	19a876        	loopgtz	a8, 28ca <subband_aec_mid_channel+0x46>
    28b0:	a180f4        	ae_mulzaafq32sp16s.ll	aeq2, aeq3, aep0, aeq3, aep0
    28b3:	b108f4        	ae_mulzaafq32sp16s.hh	aeq1, aeq3, aep0, aeq3, aep0
    28b6:	f9739ab96f 	{ ae_lp16x2f.c	aep3, a9, a6; ae_roundsp16q48asym	aep2, aeq2 }
    28bb:	f86bed8d1f 	{ ae_lp16x2f.iu	aep0, a13, 4; ae_roundsp16q48asym	aep1, aeq1 }
    28c0:	f06e3e125f 	{ ae_selp24.hl	aep1, aep1, aep2; ae_mulssfp24s.hh.ll	aeq0, aep3, aep3 }
    28c5:	e224339b1f 	{ ae_sp16x2f.iu	aep1, a11, 4; ae_mulaafp24s.hh.ll	aeq0, aep1, aep1 }

000028ca <subband_aec_mid_channel+0x46>:
    28ca:	92e8           	l32i.n	a14, a2, 36
    28cc:	35c1b4        	ae_sraiq56	aeq3, aeq0, 6
    28cf:	618304        	ae_lq56.i	aeq2, a3, 0
    28d2:	01abc4        	ae_addq56	aeq2, aeq2, aeq3
    28d5:	11eee0        	slli	a14, a14, 2
    28d8:	fc80fece7f 	{ ae_cvtq48a32s	aeq1, a14; ae_satq48s	aeq0, aeq2 }
    28dd:	0110c4        	ae_maxq56s	aeq0, aeq0, aeq1
    28e0:	630304        	ae_sq56s.i	aeq0, a3, 0
    28e3:	0174d6        	bgez	a4, 28fe <subband_aec_mid_channel+0x7a>
    28e6:	1093a2        	l16si	a10, a3, 32
    28e9:	f65781        	l32r	a8, 248 (80b8 <airoha_divide>)
    28ec:	368b04        	ae_trunca32q48	a11, aeq0
    28ef:	11aa50        	slli	a10, a10, 11
    28f2:	0008e0        	callx8	a8
    28f5:	0bed           	mov.n	a14, a11
    28f7:	0add           	mov.n	a13, a10
    28f9:	000046        	j	28fe <subband_aec_mid_channel+0x7a>

000028fc <subband_aec_mid_channel+0x78>:
	...

000028fe <subband_aec_mid_channel+0x7a>:
    28fe:	c398           	l32i.n	a9, a3, 48
    2900:	119352        	l16si	a5, a3, 34
    2903:	a70c           	movi.n	a7, 10
    2905:	11e9           	s32i.n	a14, a1, 4
    2907:	01d9           	s32i.n	a13, a1, 0
    2909:	b3c8           	l32i.n	a12, a3, 44
    290b:	d3f8           	l32i.n	a15, a3, 52
    290d:	f3a8           	l32i.n	a10, a3, 60
    290f:	5822b2        	l32i	a11, a2, 0x160
    2912:	fccff2        	addi	a15, a15, -4
    2915:	fecaa2        	addi	a10, a10, -2
    2918:	fccbb2        	addi	a11, a11, -4
    291b:	fecc82        	addi	a8, a12, -2
    291e:	3189           	s32i.n	a8, a1, 12

00002920 <subband_aec_mid_channel+0x9c>:
    2920:	44db14        	ae_lp16x2f.iu	aep5, a11, 4
    2923:	fc24e4596f 	{ ae_sp16x2f.c	aep5, a9, a6; nop }
    2928:	44cf14        	ae_lp16x2f.iu	aep4, a15, 4
    292b:	fd8413dccf 	{ or	a13, a12, a12; ae_cvtq48p24s.h	aeq1, aep4 }
    2930:	fc8c2d0c0f 	{ ae_lp16x2f.i	aep0, a12, 0; ae_cvtq48p24s.l	aeq0, aep4 }
    2935:	0ca576        	loopgtz	a5, 2945 <subband_aec_mid_channel+0xc1>
    2938:	fc24dae96f 	{ ae_lp16x2f.c	aep6, a9, a6; nop }
    293d:	050ec4        	ae_mulssfp24s.hh.ll	aeq1, aep0, aep6
    2940:	eec02d8d1f 	{ ae_lp16x2f.iu	aep0, a13, 4; ae_mulsafp24s.hl.lh	aeq0, aep0, aep6 }

00002945 <subband_aec_mid_channel+0xc1>:
    2945:	f86b8ff77e 	{ addi	a7, a7, -1; ae_roundsp16q48asym	aep0, aeq1 }
    294a:	f963f28a1f 	{ ae_sp16f.l.iu	aep0, a10, 2; ae_roundsp16q48asym	aep3, aeq0 }
    294f:	42ba14        	ae_sp16f.l.iu	aep3, a10, 2
    2952:	0454d6        	bgez	a4, 299b <subband_aec_mid_channel+0x117>
    2955:	11d8           	l32i.n	a13, a1, 4
    2957:	368d34        	ae_cvtq48a32s	aeq2, a13
    295a:	038a94        	ae_mulfq32sp16s.l	aeq3, aeq2, aep0
    295d:	d7ee30018e 	{ l32i	a8, a1, 0; ae_mulfq32sp16s.l	aeq2, aeq2, aep3 }
    2962:	fc24feb80f 	{ ae_slaasq56s	aeq0, aeq3, a8; nop }
    2967:	fc24fea84f 	{ ae_slaasq56s	aeq1, aeq2, a8; nop }
    296c:	fa6fb031ee 	{ l32i	a14, a1, 12; ae_roundsp24q48asym	aep4, aeq1 }
    2971:	f967d3dccf 	{ or	a13, a12, a12; ae_roundsp24q48asym	aep3, aeq0 }
    2976:	dd8ced0c0f 	{ ae_lp16x2f.i	aep0, a12, 0; ae_selp24.hl	aep3, aep3, aep4 }
    297b:	f03d           	nop.n
    297d:	1aa576        	loopgtz	a5, 299b <subband_aec_mid_channel+0x117>
    2980:	0ac084        	ae_cvtq48p24s.l	aeq3, aep0
    2983:	fc041af96f 	{ ae_lp16x2f.c	aep7, a9, a6; ae_cvtq48p24s.h	aeq0, aep0 }
    2988:	053704        	ae_mulaafp24s.hh.ll	aeq0, aep3, aep7
    298b:	05bf54        	ae_mulasfp24s.hl.lh	aeq3, aep3, aep7
    298e:	fb63ad8d1f 	{ ae_lp16x2f.iu	aep0, a13, 4; ae_roundsp16q48asym	aep6, aeq0 }
    2993:	fa7bf2ee1f 	{ ae_sp16f.l.iu	aep6, a14, 2; ae_roundsp16q48asym	aep5, aeq3 }
    2998:	42de14        	ae_sp16f.l.iu	aep5, a14, 2
    299b:	f81756        	bnez	a7, 2920 <subband_aec_mid_channel+0x9c>
    299e:	ae0c           	movi.n	a14, 10
    29a0:	d3f8           	l32i.n	a15, a3, 52
    29a2:	c399           	s32i.n	a9, a3, 48
    29a4:	fe24b0f39e 	{ l32i	a9, a3, 60; ae_zeroq56	aeq2 }
    29a9:	632124        	ae_sq56s.i	aeq2, a1, 16
    29ac:	fd146d0f0f 	{ ae_lp16x2f.i	aep0, a15, 0; ae_movq56	aeq1, aeq2 }
    29b1:	fc146d390f 	{ ae_lp16x2f.i	aep3, a9, 0; ae_movq56	aeq0, aeq2 }
    29b6:	10ae76        	loopgtz	a14, 29ca <subband_aec_mid_channel+0x146>
    29b9:	050004        	ae_mulaafp24s.hh.ll	aeq0, aep0, aep0
    29bc:	050b04        	ae_mulaafp24s.hh.ll	aeq1, aep0, aep3

000029bf <subband_aec_mid_channel+0x13b>:
    29bf:	eb602db91f 	{ ae_lp16x2f.iu	aep3, a9, 4; ae_mulasfp24s.hl.lh	aeq2, aep0, aep3 }
    29c4:	630124        	ae_sq56s.i	aeq0, a1, 16
    29c7:	448f14        	ae_lp16x2f.iu	aep0, a15, 4

000029ca <subband_aec_mid_channel+0x146>:
    29ca:	f5b581        	l32r	a8, a0 (8b8 <HIFI_sqrt>)
    29cd:	35a134        	ae_sraiq56	aeq2, aeq2, 4
    29d0:	f877fb114f 	{ ae_sraiq56	aeq1, aeq1, 4; ae_roundsp24q48asym	aep1, aeq2 }
    29d5:	1b9d04        	ae_roundsp24q48asym	aep0, aeq1
    29d8:	dc20bda12f 	{ ae_lq56.i	aeq1, a1, 16; ae_selp24.hl	aep0, aep0, aep1 }
    29dd:	f002bb118f 	{ ae_sraiq56	aeq2, aeq1, 4; ae_mulzaafp24s.hh.ll	aeq0, aep0, aep0 }
    29e2:	fd344000af 	{ movi	a10, 0; ae_roundsq32asym	aeq1, aeq2 }
    29e7:	ff247a112f 	{ ae_sq56s.i	aeq1, a1, 16; ae_roundsq32asym	aeq3, aeq0 }
    29ec:	36bb04        	ae_trunca32q48	a11, aeq3
    29ef:	0008e0        	callx8	a8
    29f2:	f61681        	l32r	a8, 24c (24b8 <common_x_pow>)
    29f5:	614124        	ae_lq56.i	aeq1, a1, 16
    29f8:	368b34        	ae_cvtq48a32s	aeq2, a11
    29fb:	fc24feaa0f 	{ ae_slaasq56s	aeq0, aeq2, a10; nop }
    2a00:	369b04        	ae_trunca32q48	a11, aeq1
    2a03:	ff2453a33f 	{ or	a10, a3, a3; ae_roundsq32asym	aeq3, aeq0 }
    2a08:	36bc04        	ae_trunca32q48	a12, aeq3
    2a0b:	0008e0        	callx8	a8
    2a0e:	ca8c           	beqz.n	a10, 2a1e <subband_aec_mid_channel+0x19a>
    2a10:	f3a8           	l32i.n	a10, a3, 60
    2a12:	f5ae81        	l32r	a8, cc (9240 <xt_memcpy>)
    2a15:	0d23b2        	l32i	a11, a3, 52
    2a18:	14a0c2        	movi	a12, 20
    2a1b:	0008e0        	callx8	a8

00002a1e <subband_aec_mid_channel+0x19a>:
    2a1e:	0d92a2        	l16si	a10, a2, 26
    2a21:	119392        	l16si	a9, a3, 34
    2a24:	fc24b0b3be 	{ l32i	a11, a3, 44; ae_zeroq56	aeq0 }
    2a29:	630134        	ae_sq56s.i	aeq0, a1, 24
    2a2c:	c099a0        	sub	a9, a9, a10
    2a2f:	a099b0        	addx4	a9, a9, a11
    2a32:	fcc992        	addi	a9, a9, -4
    2a35:	08aa76        	loopgtz	a10, 2a41 <subband_aec_mid_channel+0x1bd>
    2a38:	44a914        	ae_lp16x2f.iu	aep2, a9, 4
    2a3b:	052204        	ae_mulaafp24s.hh.ll	aeq0, aep2, aep2
    2a3e:	630134        	ae_sq56s.i	aeq0, a1, 24

00002a41 <subband_aec_mid_channel+0x1bd>:
    2a41:	33a8           	l32i.n	a10, a3, 12
    2a43:	f60081        	l32r	a8, 244 (81c0 <airoha_divide_limit_1>)
    2a46:	61c134        	ae_lq56.i	aeq3, a1, 24
    2a49:	3530b4        	ae_sraiq56	aeq0, aeq3, 2
    2a4c:	ff247023be 	{ l32i	a11, a3, 8; ae_roundsq32asym	aeq3, aeq0 }
    2a51:	633134        	ae_sq56s.i	aeq3, a1, 24
    2a54:	0008e0        	callx8	a8
    2a57:	610134        	ae_lq56.i	aeq0, a1, 24
    2a5a:	1293b2        	l16si	a11, a3, 36
    2a5d:	f5f3e1        	l32r	a14, 22c (7fff <ifft_wo+0x107>)
    2a60:	0492f2        	l16si	a15, a2, 8
    2a63:	3160a0        	srai	a6, a10, 16
    2a66:	c0ee60        	sub	a14, a14, a6
    2a69:	53eef0        	max	a14, a14, a15
    2a6c:	260c           	movi.n	a6, 2
    2a6e:	266b17        	bbci	a11, 1, 2a98 <subband_aec_mid_channel+0x214>
    2a71:	02ad           	mov.n	a10, a2
    2a73:	03bd           	mov.n	a11, a3
    2a75:	04dd           	mov.n	a13, a4
    2a77:	039292        	l16si	a9, a2, 6
    2a7a:	368404        	ae_trunca32q48	a4, aeq0
    2a7d:	f5f481        	l32r	a8, 250 (2514 <ref_gain_adapt>)
    2a80:	8299e0        	mull	a9, a9, a14
    2a83:	04cd           	mov.n	a12, a4
    2a85:	40d992        	addmi	a9, a9, 0x4000
    2a88:	219f90        	srai	a9, a9, 15
    2a8b:	105392        	s16i	a9, a3, 32
    2a8e:	0008e0        	callx8	a8
    2a91:	1293b2        	l16si	a11, a3, 36
    2a94:	000186        	j	2a9e <subband_aec_mid_channel+0x21a>

00002a97 <subband_aec_mid_channel+0x213>:
	...

00002a98 <subband_aec_mid_channel+0x214>:
    2a98:	1053e2        	s16i	a14, a3, 32
    2a9b:	368404        	ae_trunca32q48	a4, aeq0

00002a9e <subband_aec_mid_channel+0x21a>:
    2a9e:	0592a2        	l16si	a10, a2, 10
    2aa1:	11aa00        	slli	a10, a10, 16
    2aa4:	4aaa47        	bge	a10, a4, 2af2 <subband_aec_mid_channel+0x26e>
    2aa7:	f5eba1        	l32r	a10, 254 (b508 <immediate_num+0x18>)
    2aaa:	0692c2        	l16si	a12, a2, 12
    2aad:	20bb60        	or	a11, a11, a6
    2ab0:	1253b2        	s16i	a11, a3, 36
    2ab3:	11cc00        	slli	a12, a12, 16
    2ab6:	05ac47        	bge	a12, a4, 2abf <subband_aec_mid_channel+0x23b>
    2ab9:	403a04        	ae_lp16f.i	aep3, a10, 0
    2abc:	000086        	j	2ac2 <subband_aec_mid_channel+0x23e>

00002abf <subband_aec_mid_channel+0x23b>:
    2abf:	403a14        	ae_lp16f.i	aep3, a10, 2

00002ac2 <subband_aec_mid_channel+0x23e>:
    2ac2:	0d92d2        	l16si	a13, a2, 26
    2ac5:	1193a2        	l16si	a10, a3, 34
    2ac8:	b3c8           	l32i.n	a12, a3, 44
    2aca:	c0aad0        	sub	a10, a10, a13
    2acd:	a0aac0        	addx4	a10, a10, a12
    2ad0:	feca92        	addi	a9, a10, -2
    2ad3:	440a04        	ae_lp16x2f.i	aep0, a10, 0
    2ad6:	181da6        	blti	a13, 1, 2af2 <subband_aec_mid_channel+0x26e>
    2ad9:	12ad76        	loopgtz	a13, 2aef <subband_aec_mid_channel+0x26b>
    2adc:	018354        	ae_mulfp24s.hl	aeq2, aep0, aep3
    2adf:	010b74        	ae_mulfp24s.ll	aeq1, aep0, aep3
    2ae2:	fa73ed8a1f 	{ ae_lp16x2f.iu	aep0, a10, 4; ae_roundsp16q48asym	aep5, aeq2 }
    2ae7:	fa6bb2d91f 	{ ae_sp16f.l.iu	aep5, a9, 2; ae_roundsp16q48asym	aep4, aeq1 }
    2aec:	42c914        	ae_sp16f.l.iu	aep4, a9, 2

00002aef <subband_aec_mid_channel+0x26b>:
    2aef:	1293b2        	l16si	a11, a3, 36
    2af2:	0b6b07        	bbci	a11, 0, 2b01 <subband_aec_mid_channel+0x27d>
    2af5:	03bd           	mov.n	a11, a3
    2af7:	f5d881        	l32r	a8, 258 (2598 <aec_post_calc>)
    2afa:	02ad           	mov.n	a10, a2
    2afc:	21c8           	l32i.n	a12, a1, 8
    2afe:	0008e0        	callx8	a8

00002b01 <subband_aec_mid_channel+0x27d>:
    2b01:	f01d           	retw.n

00002b03 <subband_aec_mid_channel+0x27f>:
	...

00002b04 <dt_detect>:
    2b04:	004136        	entry	a1, 32
    2b07:	0c9242        	l16si	a4, a2, 24
    2b0a:	179262        	l16si	a6, a2, 46
    2b0d:	189282        	l16si	a8, a2, 48
    2b10:	114400        	slli	a4, a4, 16
    2b13:	19a437        	bge	a4, a3, 2b30 <dt_detect+0x2c>
    2b16:	054c           	movi.n	a5, 64
    2b18:	14a587        	bge	a5, a8, 2b30 <dt_detect+0x2c>
    2b1b:	169232        	l16si	a3, a2, 44
    2b1e:	0e9252        	l16si	a5, a2, 28
    2b21:	662b           	addi.n	a6, a6, 2
    2b23:	334b           	addi.n	a3, a3, 4
    2b25:	433350        	min	a3, a3, a5
    2b28:	833d           	ae_sext16	a3, a3
    2b2a:	165232        	s16i	a3, a2, 44
    2b2d:	0002c6        	j	2b3c <dt_detect+0x38>

00002b30 <dt_detect+0x2c>:
    2b30:	660b           	addi.n	a6, a6, -1
    2b32:	030c           	movi.n	a3, 0
    2b34:	0e9252        	l16si	a5, a2, 28
    2b37:	040c           	movi.n	a4, 0
    2b39:	165242        	s16i	a4, a2, 44

00002b3c <dt_detect+0x38>:
    2b3c:	538630        	max	a8, a6, a3
    2b3f:	438850        	min	a8, a8, a5
    2b42:	175282        	s16i	a8, a2, 46
    2b45:	f01d           	retw.n

00002b47 <dt_detect+0x43>:
	...

00002b48 <get_ECNR_SVN>:
    2b48:	004136        	entry	a1, 32
    2b4b:	1ca422        	movi	a2, 0x41c
    2b4e:	f01d           	retw.n

00002b50 <get_aec_nr_memsize>:
    2b50:	004136        	entry	a1, 32
    2b53:	f5c221        	l32r	a2, 25c (7100 <two_mic_WB_NR_proc+0xe0>)
    2b56:	f01d           	retw.n

00002b58 <get_txnr_pitch_last>:
    2b58:	004136        	entry	a1, 32
    2b5b:	f55221        	l32r	a2, a4 (be30 <p_ecnr_mem>)
    2b5e:	0228           	l32i.n	a2, a2, 0
    2b60:	1ad232        	addmi	a3, a2, 0x1a00
    2b63:	169332        	l16si	a3, a3, 44
    2b66:	0b2366        	bnei	a3, 2, 2b75 <get_txnr_pitch_last+0x1d>
    2b69:	37d222        	addmi	a2, a2, 0x3700
    2b6c:	0228           	l32i.n	a2, a2, 0

00002b6e <get_txnr_pitch_last+0x16>:
    2b6e:	130c           	movi.n	a3, 1
    2b70:	932320        	movnez	a2, a3, a2
    2b73:	f01d           	retw.n

00002b75 <get_txnr_pitch_last+0x1d>:
    2b75:	54d222        	addmi	a2, a2, 0x5400
    2b78:	3e2222        	l32i	a2, a2, 248
    2b7b:	fffbc6        	j	2b6e <get_txnr_pitch_last+0x16>

00002b7e <get_txnr_pitch_last+0x26>:
	...

00002b80 <sb_ana_init>:
    2b80:	004136        	entry	a1, 32
    2b83:	0b0c           	movi.n	a11, 0
    2b85:	ec1c           	movi.n	a12, 30
    2b87:	f54f81        	l32r	a8, c4 (9228 <xt_memset>)
    2b8a:	a24b           	addi.n	a10, a2, 4
    2b8c:	02a9           	s32i.n	a10, a2, 0
    2b8e:	0008e0        	callx8	a8
    2b91:	f01d           	retw.n

00002b93 <sb_ana_init+0x13>:
	...

00002b94 <sb_syn_init>:
    2b94:	004136        	entry	a1, 32
    2b97:	0b0c           	movi.n	a11, 0
    2b99:	cc3c           	movi.n	a12, 60
    2b9b:	f54a81        	l32r	a8, c4 (9228 <xt_memset>)
    2b9e:	a24b           	addi.n	a10, a2, 4
    2ba0:	02a9           	s32i.n	a10, a2, 0
    2ba2:	0008e0        	callx8	a8
    2ba5:	f01d           	retw.n

00002ba7 <sb_syn_init+0x13>:
	...

00002ba8 <AVC_init>:
    2ba8:	004136        	entry	a1, 32
    2bab:	f54781        	l32r	a8, c8 (be38 <aec_nr_para>)
    2bae:	f54451        	l32r	a5, c0 (8000 <ifft_wo+0x108>)
    2bb1:	0888           	l32i.n	a8, a8, 0
    2bb3:	030c           	movi.n	a3, 0
    2bb5:	2239           	s32i.n	a3, a2, 8
    2bb7:	1e1842        	l16ui	a4, a8, 60
    2bba:	1f1892        	l16ui	a9, a8, 62
    2bbd:	025292        	s16i	a9, a2, 4
    2bc0:	201882        	l16ui	a8, a8, 64
    2bc3:	035282        	s16i	a8, a2, 6
    2bc6:	c05540        	sub	a5, a5, a4
    2bc9:	115500        	slli	a5, a5, 16
    2bcc:	445a           	add.n	a4, a4, a5
    2bce:	0249           	s32i.n	a4, a2, 0
    2bd0:	f01d           	retw.n

00002bd2 <AVC_init+0x2a>:
	...

00002bd4 <HP_coef_setup>:
    2bd4:	004136        	entry	a1, 32
    2bd7:	02ad           	mov.n	a10, a2
    2bd9:	f53c81        	l32r	a8, cc (9240 <xt_memcpy>)
    2bdc:	03bd           	mov.n	a11, a3
    2bde:	4c0c           	movi.n	a12, 4
    2be0:	0008e0        	callx8	a8
    2be3:	a2cb           	addi.n	a10, a2, 12
    2be5:	f53981        	l32r	a8, cc (9240 <xt_memcpy>)
    2be8:	b38b           	addi.n	a11, a3, 8
    2bea:	ac0c           	movi.n	a12, 10
    2bec:	0008e0        	callx8	a8
    2bef:	1cc3b2        	addi	a11, a3, 28
    2bf2:	f53681        	l32r	a8, cc (9240 <xt_memcpy>)
    2bf5:	24c2a2        	addi	a10, a2, 36
    2bf8:	8c0c           	movi.n	a12, 8
    2bfa:	0008e0        	callx8	a8
    2bfd:	7298           	l32i.n	a9, a2, 28
    2bff:	12a8           	l32i.n	a10, a2, 4
    2c01:	22a9           	s32i.n	a10, a2, 8
    2c03:	8299           	s32i.n	a9, a2, 32
    2c05:	f01d           	retw.n

00002c07 <HP_coef_setup+0x33>:
	...

00002c08 <main_err_alpha>:
    2c08:	004136        	entry	a1, 32
    2c0b:	a40c           	movi.n	a4, 10
    2c0d:	f53b71        	l32r	a7, fc (7fff0000 <_end+0x7ffe41c4>)
    2c10:	0258           	l32i.n	a5, a2, 0
    2c12:	f52b61        	l32r	a6, c0 (8000 <ifft_wo+0x108>)
    2c15:	032222        	l32i	a2, a2, 12
    2c18:	fec552        	addi	a5, a5, -2
    2c1b:	c06630        	sub	a6, a6, a3
    2c1e:	408204        	ae_lp16f.iu	aep0, a2, 0
    2c21:	116600        	slli	a6, a6, 16
    2c24:	806360        	add	a6, a3, a6
    2c27:	836730        	moveqz	a6, a7, a3
    2c2a:	309664        	ae_cvtp24a16x2.lh	aep1, a6, a6
    2c2d:	10a476        	loopgtz	a4, 2c41 <main_err_alpha+0x39>
    2c30:	e804aca51f 	{ ae_lp16f.iu	aep2, a5, 2; ae_mulfp24s.hh	aeq0, aep1, aep0 }
    2c35:	011234        	ae_mulafp24s.ll	aeq0, aep1, aep2
    2c38:	1b8f04        	ae_roundsp16q48asym	aep0, aeq0
    2c3b:	420504        	ae_sp16f.l.i	aep0, a5, 0
    2c3e:	408214        	ae_lp16f.iu	aep0, a2, 2

00002c41 <main_err_alpha+0x39>:
    2c41:	f01d           	retw.n

00002c43 <main_err_alpha+0x3b>:
	...

00002c44 <tx_ref_vad_init>:
    2c44:	004136        	entry	a1, 32
    2c47:	02ad           	mov.n	a10, a2
    2c49:	f51e81        	l32r	a8, c4 (9228 <xt_memset>)
    2c4c:	0b0c           	movi.n	a11, 0
    2c4e:	ec0c           	movi.n	a12, 14
    2c50:	0008e0        	callx8	a8
    2c53:	02ad           	mov.n	a10, a2
    2c55:	7c0c           	movi.n	a12, 7
    2c57:	f51d81        	l32r	a8, cc (9240 <xt_memcpy>)
    2c5a:	02d3b2        	addmi	a11, a3, 0x200
    2c5d:	c8cbb2        	addi	a11, a11, -56
    2c60:	0008e0        	callx8	a8
    2c63:	f01d           	retw.n

00002c65 <tx_ref_vad_init+0x21>:
    2c65:	000000                                        ...

00002c68 <Voice_WB_TX_Init>:
    2c68:	004136        	entry	a1, 32
    2c6b:	02ad           	mov.n	a10, a2
    2c6d:	06cd           	mov.n	a12, a6
    2c6f:	f50d21        	l32r	a2, a4 (be30 <p_ecnr_mem>)
    2c72:	f57b81        	l32r	a8, 260 (8f54 <TX_ECNR_PARA_init>)
    2c75:	05bd           	mov.n	a11, a5
    2c77:	0249           	s32i.n	a4, a2, 0
    2c79:	0008e0        	callx8	a8
    2c7c:	f51341        	l32r	a4, c8 (be38 <aec_nr_para>)
    2c7f:	02a8           	l32i.n	a10, a2, 0
    2c81:	f57881        	l32r	a8, 264 (2bd4 <HP_coef_setup>)
    2c84:	04b8           	l32i.n	a11, a4, 0
    2c86:	18daa2        	addmi	a10, a10, 0x1800
    2c89:	e8caa2        	addi	a10, a10, -24
    2c8c:	01dbb2        	addmi	a11, a11, 0x100
    2c8f:	bb8b           	addi.n	a11, a11, 8
    2c91:	0008e0        	callx8	a8
    2c94:	0b0c           	movi.n	a11, 0
    2c96:	02a8           	l32i.n	a10, a2, 0
    2c98:	ac0c           	movi.n	a12, 10
    2c9a:	f50a81        	l32r	a8, c4 (9228 <xt_memset>)
    2c9d:	18daa2        	addmi	a10, a10, 0x1800
    2ca0:	1ccaa2        	addi	a10, a10, 28
    2ca3:	0008e0        	callx8	a8
    2ca6:	f57051        	l32r	a5, 268 (1834 <Pitch_by_Corel+0x41c>)
    2ca9:	0b0c           	movi.n	a11, 0
    2cab:	02a8           	l32i.n	a10, a2, 0
    2cad:	f0a0c2        	movi	a12, 240
    2cb0:	f50581        	l32r	a8, c4 (9228 <xt_memset>)
    2cb3:	18daa2        	addmi	a10, a10, 0x1800
    2cb6:	34caa2        	addi	a10, a10, 52
    2cb9:	0008e0        	callx8	a8
    2cbc:	02a8           	l32i.n	a10, a2, 0
    2cbe:	f56b81        	l32r	a8, 26c (2b80 <sb_ana_init>)
    2cc1:	3edaa2        	addmi	a10, a10, 0x3e00
    2cc4:	aa8b           	addi.n	a10, a10, 8
    2cc6:	0008e0        	callx8	a8
    2cc9:	02a8           	l32i.n	a10, a2, 0
    2ccb:	f56881        	l32r	a8, 26c (2b80 <sb_ana_init>)
    2cce:	3edaa2        	addmi	a10, a10, 0x3e00
    2cd1:	48caa2        	addi	a10, a10, 72
    2cd4:	0008e0        	callx8	a8
    2cd7:	02a8           	l32i.n	a10, a2, 0
    2cd9:	f56581        	l32r	a8, 270 (2b94 <sb_syn_init>)
    2cdc:	3fdaa2        	addmi	a10, a10, 0x3f00
    2cdf:	c8caa2        	addi	a10, a10, -56
    2ce2:	0008e0        	callx8	a8
    2ce5:	04d8           	l32i.n	a13, a4, 0
    2ce7:	02b8           	l32i.n	a11, a2, 0
    2ce9:	f56281        	l32r	a8, 274 (223c <SBAEC_INIT>)
    2cec:	0d98           	l32i.n	a9, a13, 0
    2cee:	18db62        	addmi	a6, a11, 0x1800
    2cf1:	331df2        	l16ui	a15, a13, 102
    2cf4:	ab5a           	add.n	a10, a11, a5
    2cf6:	2cdbc2        	addmi	a12, a11, 0x2c00
    2cf9:	f0ccc2        	addi	a12, a12, -16
    2cfc:	ffdae2        	addmi	a14, a10, 0xffffff00
    2cff:	1856f2        	s16i	a15, a6, 48
    2d02:	341dd2        	l16ui	a13, a13, 104
    2d05:	78c992        	addi	a9, a9, 120
    2d08:	2edbb2        	addmi	a11, a11, 0x2e00
    2d0b:	d0cbb2        	addi	a11, a11, -48
    2d0e:	78c9f2        	addi	a15, a9, 120
    2d11:	50c962        	addi	a6, a9, 80
    2d14:	7f5ed2        	s16i	a13, a14, 254
    2d17:	816a92        	s32i	a9, a10, 0x204
    2d1a:	8a6ac2        	s32i	a12, a10, 0x228
    2d1d:	826a62        	s32i	a6, a10, 0x208
    2d20:	836af2        	s32i	a15, a10, 0x20c
    2d23:	8b6ab2        	s32i	a11, a10, 0x22c
    2d26:	78cfc2        	addi	a12, a15, 120
    2d29:	50cfd2        	addi	a13, a15, 80
    2d2c:	28cfe2        	addi	a14, a15, 40
    2d2f:	846ae2        	s32i	a14, a10, 0x210
    2d32:	856ad2        	s32i	a13, a10, 0x214
    2d35:	866ac2        	s32i	a12, a10, 0x218
    2d38:	78cc92        	addi	a9, a12, 120
    2d3b:	50ccb2        	addi	a11, a12, 80
    2d3e:	896ab2        	s32i	a11, a10, 0x224
    2d41:	886a92        	s32i	a9, a10, 0x220
    2d44:	28ccc2        	addi	a12, a12, 40
    2d47:	876ac2        	s32i	a12, a10, 0x21c
    2d4a:	0008e0        	callx8	a8
    2d4d:	f54a81        	l32r	a8, 278 (5fc4 <WB_TX_NR_init>)
    2d50:	0008e0        	callx8	a8
    2d53:	02a8           	l32i.n	a10, a2, 0
    2d55:	f54981        	l32r	a8, 27c (2ba8 <AVC_init>)
    2d58:	31daa2        	addmi	a10, a10, 0x3100
    2d5b:	d8caa2        	addi	a10, a10, -40
    2d5e:	0008e0        	callx8	a8
    2d61:	1b0c           	movi.n	a11, 1
    2d63:	f547e1        	l32r	a14, 280 (be34 <avc_vol>)
    2d66:	02a8           	l32i.n	a10, a2, 0
    2d68:	f547d1        	l32r	a13, 284 (2000 <pitch_by_harmonic+0x570>)
    2d6b:	6edd           	ae_s16i.n	a13, a14, 0
    2d6d:	ca5a           	add.n	a12, a10, a5
    2d6f:	1ada92        	addmi	a9, a10, 0x1a00
    2d72:	14c992        	addi	a9, a9, 20
    2d75:	fe5cb2        	s16i	a11, a12, 0x1fc
    2d78:	00a4b2        	movi	a11, 0x400
    2d7b:	7c0c           	movi.n	a12, 7
    2d7d:	02ac76        	loopgtz	a12, 2d83 <Voice_WB_TX_Init+0x11b>
    2d80:	09c9b4        	ae_s16ip	a11, a9, 2

00002d83 <Voice_WB_TX_Init+0x11b>:
    2d83:	0b0c           	movi.n	a11, 0
    2d85:	0c5c           	movi.n	a12, 80
    2d87:	f4cf81        	l32r	a8, c4 (9228 <xt_memset>)
    2d8a:	30daa2        	addmi	a10, a10, 0x3000
    2d8d:	f0caa2        	addi	a10, a10, -16
    2d90:	0008e0        	callx8	a8
    2d93:	0b0c           	movi.n	a11, 0
    2d95:	02a8           	l32i.n	a10, a2, 0
    2d97:	4c2c           	movi.n	a12, 36
    2d99:	f4ca81        	l32r	a8, c4 (9228 <xt_memset>)
    2d9c:	31daa2        	addmi	a10, a10, 0x3100
    2d9f:	90caa2        	addi	a10, a10, -112
    2da2:	0008e0        	callx8	a8
    2da5:	02a8           	l32i.n	a10, a2, 0
    2da7:	ba5a           	add.n	a11, a10, a5
    2da9:	fc9bb2        	l16si	a11, a11, 0x1f8
    2dac:	252b66        	bnei	a11, 2, 2dd5 <Voice_WB_TX_Init+0x16d>
    2daf:	f53681        	l32r	a8, 288 (40e8 <TWO_MIC_WB_init>)
    2db2:	04a8           	l32i.n	a10, a4, 0
    2db4:	0008e0        	callx8	a8
    2db7:	02a8           	l32i.n	a10, a2, 0
    2db9:	f52c81        	l32r	a8, 26c (2b80 <sb_ana_init>)
    2dbc:	3fdaa2        	addmi	a10, a10, 0x3f00
    2dbf:	88caa2        	addi	a10, a10, -120
    2dc2:	0008e0        	callx8	a8
    2dc5:	02a8           	l32i.n	a10, a2, 0
    2dc7:	f52a81        	l32r	a8, 270 (2b94 <sb_syn_init>)
    2dca:	3fdaa2        	addmi	a10, a10, 0x3f00
    2dcd:	44caa2        	addi	a10, a10, 68
    2dd0:	0008e0        	callx8	a8
    2dd3:	02a8           	l32i.n	a10, a2, 0

00002dd5 <Voice_WB_TX_Init+0x16d>:
    2dd5:	f52d81        	l32r	a8, 28c (595c <FLASH_REF_GAIN_Preload>)
    2dd8:	03bd           	mov.n	a11, a3
    2dda:	0008e0        	callx8	a8
    2ddd:	02a8           	l32i.n	a10, a2, 0
    2ddf:	04b8           	l32i.n	a11, a4, 0
    2de1:	f52b81        	l32r	a8, 290 (2c44 <tx_ref_vad_init>)
    2de4:	71daa2        	addmi	a10, a10, 0x7100
    2de7:	e4caa2        	addi	a10, a10, -28
    2dea:	0008e0        	callx8	a8
    2ded:	f01d           	retw.n

00002def <Voice_WB_TX_Init+0x187>:
	...

00002df0 <mic240_delay>:
    2df0:	004136        	entry	a1, 32
    2df3:	02ad           	mov.n	a10, a2
    2df5:	f4b581        	l32r	a8, cc (9240 <xt_memcpy>)
    2df8:	04bd           	mov.n	a11, a4
    2dfa:	05cd           	mov.n	a12, a5
    2dfc:	0008e0        	callx8	a8
    2dff:	03bd           	mov.n	a11, a3
    2e01:	90a520        	addx2	a10, a5, a2
    2e04:	f0a0c2        	movi	a12, 240
    2e07:	f4b181        	l32r	a8, cc (9240 <xt_memcpy>)
    2e0a:	c0cc50        	sub	a12, a12, a5
    2e0d:	1125f0        	slli	a2, a5, 1
    2e10:	0008e0        	callx8	a8
    2e13:	05cd           	mov.n	a12, a5
    2e15:	04ad           	mov.n	a10, a4
    2e17:	c0b320        	sub	a11, a3, a2
    2e1a:	f4ac81        	l32r	a8, cc (9240 <xt_memcpy>)
    2e1d:	02dbb2        	addmi	a11, a11, 0x200
    2e20:	e0cbb2        	addi	a11, a11, -32
    2e23:	0008e0        	callx8	a8
    2e26:	f01d           	retw.n

00002e28 <sbiir>:
    2e28:	004136        	entry	a1, 32
    2e2b:	4c1404        	ae_lp24.i	aep1, a4, 0
    2e2e:	5c7304        	ae_lp24x2f.i	aep7, a3, 0
    2e31:	fdec2c020f 	{ ae_lp16f.i	aep0, a2, 0; ae_cvtq48p24s.l	aeq1, aep7 }
    2e36:	fee43e079f 	{ ae_selp24.hl	aep2, aep0, aep7; ae_cvtq48p24s.h	aeq2, aep7 }
    2e3b:	059244        	ae_mulasfp24s.hh.ll	aeq2, aep1, aep2
    2e3e:	5c3314        	ae_lp24x2f.i	aep3, a3, 8
    2e41:	fa77b4030f 	{ ae_sp24f.l.i	aep0, a3, 0; ae_roundsp24q48asym	aep4, aeq2 }
    2e46:	df71b1541f 	{ ae_lp24.i	aep5, a4, 4; ae_selp24.lh	aep6, aep4, aep3 }
    2e4b:	055e44        	ae_mulasfp24s.hh.ll	aeq1, aep5, aep6
    2e4e:	0a0b84        	ae_cvtq48p24s.h	aeq0, aep3
    2e51:	f86ff4431f 	{ ae_sp24f.l.i	aep4, a3, 4; ae_roundsp24q48asym	aep1, aeq1 }
    2e56:	dd6671242f 	{ ae_lp24.i	aep2, a4, 8; ae_selp24.ll	aep3, aep1, aep3 }
    2e5b:	052344        	ae_mulasfp24s.hh.ll	aeq0, aep2, aep3
    2e5e:	f867b4132f 	{ ae_sp24f.l.i	aep1, a3, 8; ae_roundsp24q48asym	aep0, aeq0 }
    2e63:	520334        	ae_sp24f.l.i	aep0, a3, 12
    2e66:	348204        	ae_movap24s.l	a2, aep0
    2e69:	f01d           	retw.n

00002e6b <sbiir+0x43>:
	...

00002e6c <tx_downsample_by2>:
    2e6c:	008136        	entry	a1, 64
    2e6f:	fec332        	addi	a3, a3, -2
    2e72:	440404        	ae_lp16x2f.i	aep0, a4, 0
    2e75:	0169           	s32i.n	a6, a1, 0
    2e77:	f50781        	l32r	a8, 294 (b70c <wb_r01+0xc>)
    2e7a:	fec272        	addi	a7, a2, -2
    2e7d:	10c5a2        	addi	a10, a5, 16
    2e80:	600604        	ae_lq32f.i	aeq0, a6, 0
    2e83:	630124        	ae_sq56s.i	aeq0, a1, 16
    2e86:	21a9           	s32i.n	a10, a1, 8
    2e88:	020c           	movi.n	a2, 0
    2e8a:	1189           	s32i.n	a8, a1, 4
    2e8c:	056d           	mov.n	a6, a5

00002e8e <tx_downsample_by2+0x22>:
    2e8e:	06bd           	mov.n	a11, a6
    2e90:	614124        	ae_lq56.i	aeq1, a1, 16
    2e93:	e20053a44f 	{ or	a10, a4, a4; ae_mulaafp24s.hh.ll	aeq1, aep0, aep0 }
    2e98:	11c8           	l32i.n	a12, a1, 4
    2e9a:	631124        	ae_sq56s.i	aeq1, a1, 16
    2e9d:	fff8a5        	call8	2e28 <sbiir>
    2ea0:	21b8           	l32i.n	a11, a1, 8
    2ea2:	0a5d           	mov.n	a5, a10
    2ea4:	f4fdc1        	l32r	a12, 298 (b700 <wb_r01>)
    2ea7:	a42b           	addi.n	a10, a4, 2
    2ea9:	fff7e5        	call8	2e28 <sbiir>
    2eac:	4e1c           	movi.n	a14, 20
    2eae:	221b           	addi.n	a2, a2, 1
    2eb0:	f5aa           	add.n	a15, a5, a10
    2eb2:	c08a50        	sub	a8, a10, a5
    2eb5:	218180        	srai	a8, a8, 1
    2eb8:	21f1f0        	srai	a15, a15, 1
    2ebb:	39bf84        	ae_movpa24x2	aep3, a15, a8
    2ebe:	f9eead841f 	{ ae_lp16x2f.iu	aep0, a4, 4; ae_roundsp16asym	aep2, aep3 }
    2ec3:	dc4972a31f 	{ ae_sp16f.l.iu	aep2, a3, 2; ae_selp24.hh	aep1, aep2, aep2 }
    2ec8:	429714        	ae_sp16f.l.iu	aep1, a7, 2
    2ecb:	bf92e7        	bne	a2, a14, 2e8e <tx_downsample_by2+0x22>
    2ece:	0198           	l32i.n	a9, a1, 0
    2ed0:	61c124        	ae_lq56.i	aeq3, a1, 16
    2ed3:	06b934        	ae_roundsq32asym	aeq2, aeq3
    2ed6:	622904        	ae_sq32f.i	aeq2, a9, 0
    2ed9:	f01d           	retw.n

00002edb <tx_downsample_by2+0x6f>:
	...

00002edc <tx_upsample_by2>:
    2edc:	00a136        	entry	a1, 80
    2edf:	401204        	ae_lp16f.i	aep1, a2, 0
    2ee2:	400304        	ae_lp16f.i	aep0, a3, 0
    2ee5:	1169           	s32i.n	a6, a1, 4
    2ee7:	f4eb81        	l32r	a8, 294 (b70c <wb_r01+0xc>)
    2eea:	fcc472        	addi	a7, a4, -4
    2eed:	10c5a2        	addi	a10, a5, 16
    2ef0:	c12b           	addi.n	a12, a1, 2
    2ef2:	600604        	ae_lq32f.i	aeq0, a6, 0
    2ef5:	630134        	ae_sq56s.i	aeq0, a1, 24
    2ef8:	21c9           	s32i.n	a12, a1, 8
    2efa:	31a9           	s32i.n	a10, a1, 12
    2efc:	040c           	movi.n	a4, 0
    2efe:	4189           	s32i.n	a8, a1, 16
    2f00:	056d           	mov.n	a6, a5

00002f02 <tx_upsample_by2+0x26>:
    2f02:	06bd           	mov.n	a11, a6
    2f04:	f4e5c1        	l32r	a12, 298 (b700 <wb_r01>)
    2f07:	d9053da13f 	{ ae_lq56.i	aeq1, a1, 24; ae_addsp24s	aep2, aep1, aep0 }
    2f0c:	e24bf021ae 	{ l32i	a10, a1, 8; ae_mulafp24s.ll	aeq1, aep2, aep2 }
    2f11:	dc06b2210f 	{ ae_sp16f.l.i	aep2, a1, 0; ae_subsp24s	aep0, aep1, aep0 }
    2f16:	420114        	ae_sp16f.l.i	aep0, a1, 2
    2f19:	631134        	ae_sq56s.i	aeq1, a1, 24
    2f1c:	fff0a5        	call8	2e28 <sbiir>
    2f1f:	31b8           	l32i.n	a11, a1, 12
    2f21:	0a5d           	mov.n	a5, a10
    2f23:	41c8           	l32i.n	a12, a1, 16
    2f25:	01ad           	mov.n	a10, a1
    2f27:	fff025        	call8	2e28 <sbiir>
    2f2a:	442b           	addi.n	a4, a4, 2
    2f2c:	782c           	movi.n	a8, 39
    2f2e:	408314        	ae_lp16f.iu	aep0, a3, 2
    2f31:	39c5a4        	ae_movpa24x2	aep4, a5, a10
    2f34:	f9f2ec921f 	{ ae_lp16f.iu	aep1, a2, 2; ae_roundsp16asym	aep3, aep4 }
    2f39:	46b714        	ae_sp16x2f.iu	aep3, a7, 4
    2f3c:	c2a847        	bge	a8, a4, 2f02 <tx_upsample_by2+0x26>
    2f3f:	1198           	l32i.n	a9, a1, 4
    2f41:	61c134        	ae_lq56.i	aeq3, a1, 24
    2f44:	06b934        	ae_roundsq32asym	aeq2, aeq3
    2f47:	622904        	ae_sq32f.i	aeq2, a9, 0
    2f4a:	f01d           	retw.n

00002f4c <emph_filter_N>:
    2f4c:	004136        	entry	a1, 32
    2f4f:	442304        	ae_lp16x2f.i	aep2, a3, 0
    2f52:	02a062        	movi	a6, 2
    2f55:	440404        	ae_lp16x2f.i	aep0, a4, 0
    2f58:	d26560        	quos	a6, a5, a6
    2f5b:	fcc252        	addi	a5, a2, -4
    2f5e:	fec222        	addi	a2, a2, -2
    2f61:	23a676        	loopgtz	a6, 2f88 <emph_filter_N+0x3c>
    2f64:	44b514        	ae_lp16x2f.iu	aep3, a5, 4
    2f67:	0a4b84        	ae_cvtq48p24s.h	aeq1, aep3
    2f6a:	0a0384        	ae_cvtq48p24s.l	aeq0, aep3
    2f6d:	012304        	ae_mulafp24s.hh	aeq0, aep2, aep3
    2f70:	012804        	ae_mulafp24s.hh	aeq1, aep2, aep0
    2f73:	e2087e384f 	{ ae_selp24.hh	aep5, aep3, aep0; ae_mulaafp24s.hh.ll	aeq1, aep2, aep0 }
    2f78:	052504        	ae_mulaafp24s.hh.ll	aeq0, aep2, aep5
    2f7b:	1b9f44        	ae_roundsp16q48asym	aep4, aeq1
    2f7e:	f863f2c21f 	{ ae_sp16f.l.iu	aep4, a2, 2; ae_roundsp16q48asym	aep1, aeq0 }
    2f83:	dc6db2921f 	{ ae_sp16f.l.iu	aep1, a2, 2; ae_selp24.lh	aep0, aep3, aep3 }

00002f88 <emph_filter_N+0x3c>:
    2f88:	460404        	ae_sp16x2f.i	aep0, a4, 0
    2f8b:	f01d           	retw.n

00002f8d <emph_filter_N+0x41>:
    2f8d:	000000                                        ...

00002f90 <deemph_filter_N>:
    2f90:	004136        	entry	a1, 32
    2f93:	600414        	ae_lq32f.i	aeq0, a4, 4
    2f96:	400204        	ae_lp16f.i	aep0, a2, 0
    2f99:	f4c061        	l32r	a6, 29c (b520 <immediate_num+0x30>)
    2f9c:	442304        	ae_lp16x2f.i	aep2, a3, 0
    2f9f:	604404        	ae_lq32f.i	aeq1, a4, 0
    2fa2:	9949ad360f 	{ ae_lp16x2f.i	aep3, a6, 0; ae_mulzssfq32sp16s.hh	aeq2, aeq1, aep2, aeq1, aep2 }
    2fa7:	14a576        	loopgtz	a5, 2fbf <deemph_filter_N+0x2f>
    2faa:	03a414        	ae_mulsfq32sp16s.l	aeq2, aeq0, aep2
    2fad:	0583c4        	ae_mulssfp24s.hh.ll	aeq2, aep0, aep3
    2fb0:	fd347f113f 	{ ae_movq56	aeq0, aeq1; ae_roundsq32asym	aeq1, aeq2 }
    2fb5:	f86bec821f 	{ ae_lp16f.iu	aep0, a2, 2; ae_roundsp16q48asym	aep1, aeq1 }
    2fba:	9949b212ff 	{ ae_sp16f.l.i	aep1, a2, -2; ae_mulzssfq32sp16s.hh	aeq2, aeq1, aep2, aeq1, aep2 }

00002fbf <deemph_filter_N+0x2f>:
    2fbf:	621404        	ae_sq32f.i	aeq1, a4, 0
    2fc2:	620414        	ae_sq32f.i	aeq0, a4, 4
    2fc5:	f01d           	retw.n

00002fc7 <deemph_filter_N+0x37>:
	...

00002fc8 <analy_3band>:
    2fc8:	006136        	entry	a1, 48
    2fcb:	7f0c           	movi.n	a15, 7
    2fcd:	f4b4e1        	l32r	a14, 2a0 (b71c <wb_r01+0x1c>)
    2fd0:	fcc4b2        	addi	a11, a4, -4
    2fd3:	f4b4d1        	l32r	a13, 2a4 (b75c <sb_g10+0x3c>)
    2fd6:	24c2c2        	addi	a12, a2, 36
    2fd9:	834b           	addi.n	a8, a3, 4
    2fdb:	fec692        	addi	a9, a6, -2
    2fde:	fec5a2        	addi	a10, a5, -2
    2fe1:	40c372        	addi	a7, a3, 64
    2fe4:	450c           	movi.n	a5, 4
    2fe6:	f3f770        	wur.ae_cend0	a7
    2fe9:	fcc262        	addi	a6, a2, -4
    2fec:	f3f680        	wur.ae_cbegin0	a8
    2fef:	0328           	l32i.n	a2, a3, 0
    2ff1:	ff24934ddf 	{ or	a4, a13, a13; ae_zeroq56	aeq3 }
    2ff6:	fd1c538eef 	{ or	a8, a14, a14; ae_movq56	aeq1, aeq3 }

00002ffb <analy_3band+0x33>:
    2ffb:	443614        	ae_lp16x2f.i	aep3, a6, 4
    2ffe:	fc24e4325f 	{ ae_sp16x2f.c	aep3, a2, a5; nop }
    3003:	fc24da925f 	{ ae_lp16x2f.c	aep1, a2, a5; nop }
    3008:	44a814        	ae_lp16x2f.iu	aep2, a8, 4
    300b:	eb29ad841f 	{ ae_lp16x2f.iu	aep0, a4, 4; ae_mulfp24s.ll	aeq2, aep2, aep1 }
    3010:	ea2180466e 	{ addi	a6, a6, 4; ae_mulfp24s.ll	aeq0, aep0, aep1 }
    3015:	27af76        	loopgtz	a15, 3040 <analy_3band+0x78>
    3018:	fc24da825f 	{ ae_lp16x2f.c	aep0, a2, a5; nop }
    301d:	449414        	ae_lp16x2f.iu	aep1, a4, 4
    3020:	011034        	ae_mulafp24s.ll	aeq0, aep1, aep0
    3023:	e2066df81f 	{ ae_lp16x2f.iu	aep7, a8, 4; ae_mulafp24s.hh	aeq1, aep1, aep0 }
    3028:	e31f9ad25f 	{ ae_lp16x2f.c	aep5, a2, a5; ae_mulafp24s.ll	aeq2, aep7, aep0 }
    302d:	e31e6de81f 	{ ae_lp16x2f.iu	aep6, a8, 4; ae_mulafp24s.hh	aeq3, aep7, aep0 }
    3032:	01ed04        	ae_mulafp24s.hh	aeq3, aep6, aep5
    3035:	e3bbadc41f 	{ ae_lp16x2f.iu	aep4, a4, 4; ae_mulafp24s.ll	aeq2, aep6, aep5 }
    303a:	014d04        	ae_mulafp24s.hh	aeq1, aep4, aep5
    303d:	014534        	ae_mulafp24s.ll	aeq0, aep4, aep5

00003040 <analy_3band+0x78>:
    3040:	7f0c           	movi.n	a15, 7
    3042:	f963d34ddf 	{ or	a4, a13, a13; ae_roundsp16q48asym	aep3, aeq0 }
    3047:	f8f6138eef 	{ or	a8, a14, a14; ae_addq56	aeq0, aeq2, aeq3 }
    304c:	f96bbb001f 	{ ae_sraiq56	aeq0, aeq0, 1; ae_roundsp16q48asym	aep2, aeq1 }
    3051:	f867f2b91f 	{ ae_sp16f.l.iu	aep3, a9, 2; ae_roundsp24q48asym	aep1, aeq0 }
    3056:	f8b6f2a91f 	{ ae_sp16f.l.iu	aep2, a9, 2; ae_subq56	aeq0, aeq2, aeq3 }
    305b:	ff24bb001f 	{ ae_sraiq56	aeq0, aeq0, 1; ae_zeroq56	aeq3 }
    3060:	f863b49b1f 	{ ae_sp24f.l.iu	aep1, a11, 4; ae_roundsp16q48asym	aep0, aeq0 }
    3065:	fd1c728a1f 	{ ae_sp16f.l.iu	aep0, a10, 2; ae_movq56	aeq1, aeq3 }
    306a:	8d96c7        	bne	a6, a12, 2ffb <analy_3band+0x33>
    306d:	0329           	s32i.n	a2, a3, 0
    306f:	f01d           	retw.n

00003071 <analy_3band+0xa9>:
    3071:	000000                                        ...

00003074 <synth_3band>:
    3074:	004136        	entry	a1, 32
    3077:	080c           	movi.n	a8, 0
    3079:	7cc572        	addi	a7, a5, 124
    307c:	b54b           	addi.n	a11, a5, 4
    307e:	fec692        	addi	a9, a6, -2
    3081:	fec2c2        	addi	a12, a2, -2
    3084:	fcc4a2        	addi	a10, a4, -4
    3087:	fec3d2        	addi	a13, a3, -2
    308a:	0548           	l32i.n	a4, a5, 0
    308c:	f48731        	l32r	a3, 2a8 (b7a0 <sb_h2ir_v2>)
    308f:	f48721        	l32r	a2, 2ac (b720 <sb_g10>)
    3092:	fe2480046f 	{ movi	a6, 4; ae_zeroq56	aeq2 }
    3097:	f3f6b0        	wur.ae_cbegin0	a11
    309a:	f3f770        	wur.ae_cend0	a7
    309d:	fd147f213f 	{ ae_movq56	aeq0, aeq2; ae_movq56	aeq1, aeq2 }

000030a2 <synth_3band+0x2e>:
    30a2:	40cd14        	ae_lp16f.iu	aep4, a13, 2
    30a5:	40bc14        	ae_lp16f.iu	aep3, a12, 2
    30a8:	dd8e80188e 	{ addi	a8, a8, 1; ae_subsp24s	aep2, aep3, aep4 }
    30ad:	d88d400fef 	{ movi	a14, 15; ae_addsp24s	aep1, aep3, aep4 }
    30b2:	dc466d8a1f 	{ ae_lp16x2f.iu	aep0, a10, 4; ae_selp24.ll	aep1, aep1, aep2 }
    30b7:	fc24e4146f 	{ ae_sp16x2f.c	aep1, a4, a6; nop }
    30bc:	fc24e4046f 	{ ae_sp16x2f.c	aep0, a4, a6; nop }
    30c1:	441204        	ae_lp16x2f.i	aep1, a2, 0
    30c4:	440304        	ae_lp16x2f.i	aep0, a3, 0
    30c7:	16ae76        	loopgtz	a14, 30e1 <synth_3band+0x6d>
    30ca:	fc24dae46f 	{ ae_lp16x2f.c	aep6, a4, a6; nop }
    30cf:	011e04        	ae_mulafp24s.hh	aeq1, aep1, aep6
    30d2:	e2c79ad46f 	{ ae_lp16x2f.c	aep5, a4, a6; ae_mulafp24s.ll	aeq0, aep1, aep6 }
    30d7:	eea0ad921f 	{ ae_lp16x2f.iu	aep1, a2, 4; ae_mulsfp24s.hl	aeq0, aep0, aep5 }
    30dc:	e2a2ed831f 	{ ae_lp16x2f.iu	aep0, a3, 4; ae_mulafp24s.lh	aeq1, aep0, aep5 }

000030e1 <synth_3band+0x6d>:
    30e1:	fb6bcc422e 	{ addi	a2, a2, -60; ae_roundsp16q48asym	aep7, aeq1 }
    30e6:	f8638c433e 	{ addi	a3, a3, -60; ae_roundsp16q48asym	aep0, aeq0 }
    30eb:	fc1472891f 	{ ae_sp16f.l.iu	aep0, a9, 2; ae_movq56	aeq0, aeq2 }
    30f0:	fd1472f91f 	{ ae_sp16f.l.iu	aep7, a9, 2; ae_movq56	aeq1, aeq2 }
    30f5:	a99866        	bnei	a8, 10, 30a2 <synth_3band+0x2e>
    30f8:	0549           	s32i.n	a4, a5, 0
    30fa:	f01d           	retw.n

000030fc <biquad_2cascade_24bitTx>:
    30fc:	004136        	entry	a1, 32
    30ff:	542304        	ae_lp24x2.i	aep2, a3, 0
    3102:	541314        	ae_lp24x2.i	aep1, a3, 8
    3105:	18c482        	addi	a8, a4, 24
    3108:	540324        	ae_lp24x2.i	aep0, a3, 16
    310b:	fcc242        	addi	a4, a2, -4
    310e:	fec522        	addi	a2, a5, -2
    3111:	40a676        	loopgtz	a6, 3155 <biquad_2cascade_24bitTx+0x59>
    3114:	5468d4        	ae_lp24x2.i	aep6, a8, -24
    3117:	50f414        	ae_lp24f.iu	aep7, a4, 4
    311a:	5438e4        	ae_lp24x2.i	aep3, a8, -16
    311d:	f14ebe72af 	{ ae_selp24.lh	aep2, aep7, aep2; ae_mulzaafp24s.hh.ll	aeq2, aep3, aep2 }
    3122:	e3583058ff 	{ ae_lp24x2.i	aep5, a8, -8; ae_mulaafp24s.hh.ll	aeq2, aep6, aep2 }
    3127:	01d184        	ae_mulsfp24s.hh	aeq2, aep5, aep1
    312a:	f13630481f 	{ ae_lp24x2.i	aep4, a8, 8; ae_mulssfp24s.hh.ll	aeq2, aep5, aep1 }
    312f:	044904        	ae_mulzaafp24s.hh.ll	aeq1, aep4, aep1
    3132:	1bad34        	ae_roundsp24q48asym	aep3, aeq2
    3135:	dc2df0780f 	{ ae_lp24x2.i	aep7, a8, 0; ae_selp24.lh	aep1, aep3, aep1 }
    313a:	e23c70682f 	{ ae_lp24x2.i	aep6, a8, 16; ae_mulaafp24s.hh.ll	aeq1, aep7, aep1 }
    313f:	016884        	ae_mulsfp24s.hh	aeq1, aep6, aep0
    3142:	0568c4        	ae_mulssfp24s.hh.ll	aeq1, aep6, aep0
    3145:	fa6fb1586f 	{ ae_lp24.i	aep5, a8, 24; ae_roundsp24q48asym	aep4, aeq1 }
    314a:	045404        	ae_mulzaafp24s.hh.ll	aeq0, aep5, aep4
    314d:	1b8f34        	ae_roundsp16q48asym	aep3, aeq0
    3150:	dc11b2b21f 	{ ae_sp16f.l.iu	aep3, a2, 2; ae_selp24.lh	aep0, aep4, aep0 }

00003155 <biquad_2cascade_24bitTx+0x59>:
    3155:	562304        	ae_sp24x2s.i	aep2, a3, 0
    3158:	561314        	ae_sp24x2s.i	aep1, a3, 8
    315b:	560324        	ae_sp24x2s.i	aep0, a3, 16
    315e:	f01d           	retw.n

00003160 <conv_24_to_16>:
    3160:	004136        	entry	a1, 32
    3163:	f8c252        	addi	a5, a2, -8
    3166:	540c           	movi.n	a4, 5
    3168:	fcc322        	addi	a2, a3, -4
    316b:	f03d           	nop.n
    316d:	08a476        	loopgtz	a4, 3179 <conv_24_to_16+0x19>
    3170:	5c9514        	ae_lp24x2f.iu	aep1, a5, 8
    3173:	091184        	ae_roundsp16asym	aep0, aep1
    3176:	468214        	ae_sp16x2f.iu	aep0, a2, 4

00003179 <conv_24_to_16+0x19>:
    3179:	f01d           	retw.n

0000317b <conv_24_to_16+0x1b>:
	...

0000317c <gain_after_ec>:
    317c:	006136        	entry	a1, 48
    317f:	441404        	ae_lp16x2f.i	aep1, a4, 0
    3182:	440504        	ae_lp16x2f.i	aep0, a5, 0
    3185:	05cd           	mov.n	a12, a5
    3187:	04dd           	mov.n	a13, a4
    3189:	a70c           	movi.n	a7, 10
    318b:	fec3f2        	addi	a15, a3, -2
    318e:	f3c5e1        	l32r	a14, a4 (be30 <p_ecnr_mem>)
    3191:	fec5a2        	addi	a10, a5, -2
    3194:	fec4b2        	addi	a11, a4, -2
    3197:	fec292        	addi	a9, a2, -2
    319a:	2199           	s32i.n	a9, a1, 8
    319c:	01b9           	s32i.n	a11, a1, 0
    319e:	11a9           	s32i.n	a10, a1, 4
    31a0:	002e82        	l32i	a8, a14, 0
    31a3:	203990        	or	a3, a9, a9
    31a6:	202ff0        	or	a2, a15, a15
    31a9:	1ad882        	addmi	a8, a8, 0x1a00
    31ac:	22c882        	addi	a8, a8, 34
    31af:	404804        	ae_lp16f.i	aep4, a8, 0
    31b2:	208ff0        	or	a8, a15, a15
    31b5:	47a776        	loopgtz	a7, 3200 <gain_after_ec+0x84>
    31b8:	eb11ecf31f 	{ ae_lp16f.iu	aep7, a3, 2; ae_mulfp24s.ll	aeq3, aep4, aep0 }
    31bd:	e830acd21f 	{ ae_lp16f.iu	aep5, a2, 2; ae_mulfp24s.hh	aeq0, aep4, aep1 }
    31c2:	ea31ed9d1f 	{ ae_lp16x2f.iu	aep1, a13, 4; ae_mulfp24s.ll	aeq1, aep4, aep1 }
    31c7:	35f114        	ae_slliq56	aeq3, aeq3, 4
    31ca:	e910ba914f 	{ ae_slliq56	aeq1, aeq1, 4; ae_mulfp24s.hh	aeq2, aep4, aep0 }
    31cf:	f9ebfa810f 	{ ae_slliq56	aeq0, aeq0, 4; ae_roundsp16q48sym	aep3, aeq1 }
    31d4:	fbe3baa18f 	{ ae_slliq56	aeq2, aeq2, 4; ae_roundsp16q48sym	aep6, aeq0 }
    31d9:	eab1b2eb1f 	{ ae_sp16f.l.iu	aep6, a11, 2; ae_mulfp24s.ll	aeq0, aep4, aep5 }
    31de:	eaf1f2bb1f 	{ ae_sp16f.l.iu	aep3, a11, 2; ae_mulfp24s.ll	aeq1, aep4, aep7 }
    31e3:	350114        	ae_slliq56	aeq0, aeq0, 4
    31e6:	355114        	ae_slliq56	aeq1, aeq1, 4
    31e9:	f9f3ad8c1f 	{ ae_lp16x2f.iu	aep0, a12, 4; ae_roundsp16q48sym	aep2, aeq2 }
    31ee:	fbfbb2aa1f 	{ ae_sp16f.l.iu	aep2, a10, 2; ae_roundsp16q48sym	aep6, aeq3 }
    31f3:	f9ebf2ea1f 	{ ae_sp16f.l.iu	aep6, a10, 2; ae_roundsp16q48sym	aep3, aeq1 }
    31f8:	f9e3b2b91f 	{ ae_sp16f.l.iu	aep3, a9, 2; ae_roundsp16q48sym	aep2, aeq0 }
    31fd:	42a814        	ae_sp16f.l.iu	aep2, a8, 2

00003200 <gain_after_ec+0x84>:
    3200:	960b           	addi.n	a9, a6, -1
    3202:	07e956        	bnez	a9, 3284 <gain_after_ec+0x108>
    3205:	f42b61        	l32r	a6, 2b4 (1a26 <Pitch_by_Corel+0x60e>)
    3208:	11a8           	l32i.n	a10, a1, 4
    320a:	01b8           	l32i.n	a11, a1, 0
    320c:	a70c           	movi.n	a7, 10
    320e:	2198           	l32i.n	a9, a1, 8
    3210:	04dd           	mov.n	a13, a4
    3212:	441404        	ae_lp16x2f.i	aep1, a4, 0
    3215:	05cd           	mov.n	a12, a5
    3217:	0f8d           	mov.n	a8, a15
    3219:	440504        	ae_lp16x2f.i	aep0, a5, 0
    321c:	f425f1        	l32r	a15, 2b0 (1a24 <Pitch_by_Corel+0x60c>)
    321f:	082d           	mov.n	a2, a8
    3221:	f42551        	l32r	a5, 2b8 (1a28 <Pitch_by_Corel+0x610>)
    3224:	f42641        	l32r	a4, 2bc (1a2a <Pitch_by_Corel+0x612>)
    3227:	093d           	mov.n	a3, a9
    3229:	57a776        	loopgtz	a7, 3284 <gain_after_ec+0x108>
    322c:	0e78           	l32i.n	a7, a14, 0
    322e:	40d214        	ae_lp16f.iu	aep5, a2, 2
    3231:	414764        	ae_lp16f.x	aep4, a7, a6
    3234:	ea1199f74f 	{ ae_lp16f.x	aep7, a7, a4; ae_mulfp24s.ll	aeq0, aep4, aep0 }
    3239:	ea3deca31f 	{ ae_lp16f.iu	aep2, a3, 2; ae_mulfp24s.ll	aeq1, aep7, aep1 }

0000323e <gain_after_ec+0xc2>:
    323e:	e93cad9d1f 	{ ae_lp16x2f.iu	aep1, a13, 4; ae_mulfp24s.hh	aeq2, aep7, aep1 }
    3243:	350094        	ae_slliq56	aeq0, aeq0, 2
    3246:	35a094        	ae_slliq56	aeq2, aeq2, 2
    3249:	fbf3ba906f 	{ ae_slliq56	aeq1, aeq1, 2; ae_roundsp16q48sym	aep6, aeq2 }
    324e:	f9ebf2eb1f 	{ ae_sp16f.l.iu	aep6, a11, 2; ae_roundsp16q48sym	aep3, aeq1 }
    3253:	e910f2bb1f 	{ ae_sp16f.l.iu	aep3, a11, 2; ae_mulfp24s.hh	aeq3, aep4, aep0 }
    3258:	0e78           	l32i.n	a7, a14, 0
    325a:	35f094        	ae_slliq56	aeq3, aeq3, 2
    325d:	448c14        	ae_lp16x2f.iu	aep0, a12, 4
    3260:	fbfb99c75f 	{ ae_lp16f.x	aep4, a7, a5; ae_roundsp16q48sym	aep6, aeq3 }
    3265:	f9e3d9f7ff 	{ ae_lp16f.x	aep7, a7, a15; ae_roundsp16q48sym	aep3, aeq0 }
    326a:	eb5db2ea1f 	{ ae_sp16f.l.iu	aep6, a10, 2; ae_mulfp24s.ll	aeq2, aep7, aep2 }
    326f:	eab1f2ba1f 	{ ae_sp16f.l.iu	aep3, a10, 2; ae_mulfp24s.ll	aeq1, aep4, aep5 }
    3274:	35a094        	ae_slliq56	aeq2, aeq2, 2
    3277:	f9f3ba906f 	{ ae_slliq56	aeq1, aeq1, 2; ae_roundsp16q48sym	aep2, aeq2 }
    327c:	fbebf2a91f 	{ ae_sp16f.l.iu	aep2, a9, 2; ae_roundsp16q48sym	aep7, aeq1 }
    3281:	42f814        	ae_sp16f.l.iu	aep7, a8, 2

00003284 <gain_after_ec+0x108>:
    3284:	f01d           	retw.n

00003286 <gain_after_ec+0x10a>:
	...

00003288 <adjust_phase>:
    3288:	004136        	entry	a1, 32
    328b:	301334        	ae_cvtp24a16x2.ll	aep1, a3, a3
    328e:	360234        	ae_cvtq48a32s	aeq0, a2
    3291:	a11104        	ae_mulzaafq32sp16s.ll	aeq0, aeq0, aep1, aeq0, aep1
    3294:	1b8f04        	ae_roundsp16q48asym	aep0, aeq0
    3297:	0002d4        	ae_cvta32p24.l	a2, aep0
    329a:	f01d           	retw.n

0000329c <adjust_bib_state>:
    329c:	004136        	entry	a1, 32
    329f:	fcc242        	addi	a4, a2, -4
    32a2:	600204        	ae_lq32f.i	aeq0, a2, 0
    32a5:	830c           	movi.n	a3, 8
    32a7:	0aa376        	loopgtz	a3, 32b5 <adjust_bib_state+0x19>
    32aa:	350074        	ae_sraiq56	aeq0, aeq0, 1
    32ad:	f867bd121f 	{ ae_lq32f.iu	aeq0, a2, 4; ae_roundsp24q48asym	aep0, aeq0 }
    32b2:	528414        	ae_sp24f.l.iu	aep0, a4, 4

000032b5 <adjust_bib_state+0x19>:
    32b5:	f01d           	retw.n

000032b7 <adjust_bib_state+0x1b>:
	...

000032b8 <aec_post_prcs>:
    32b8:	004136        	entry	a1, 32
    32bb:	159282        	l16si	a8, a2, 42
    32be:	01d272        	addmi	a7, a2, 0x100
    32c1:	28c292        	addi	a9, a2, 40
    32c4:	f3ff51        	l32r	a5, 2c0 (7fffff <_end+0x7f41c3>)
    32c7:	39b554        	ae_movpa24x2	aep3, a5, a5
    32ca:	406904        	ae_lp16f.i	aep6, a9, 0
    32cd:	4ac762        	addi	a6, a7, 74
    32d0:	302884        	ae_cvtp24a16x2.ll	aep2, a8, a8
    32d3:	4cc772        	addi	a7, a7, 76
    32d6:	149282        	l16si	a8, a2, 40
    32d9:	155282        	s16i	a8, a2, 42
    32dc:	400704        	ae_lp16f.i	aep0, a7, 0
    32df:	de5aec760f 	{ ae_lp16f.i	aep7, a6, 0; ae_subsp24s	aep5, aep6, aep2 }
    32e4:	ea1d8fe42e 	{ addi	a2, a4, -2; ae_mulfp24s.ll	aeq0, aep7, aep0 }
    32e9:	ce3440004f 	{ movi	a4, 0; ae_sraip24	aep5, aep5, 4 }
    32ee:	fa67ac030f 	{ ae_lp16f.i	aep0, a3, 0; ae_roundsp24q48asym	aep4, aeq0 }

000032f3 <aec_post_prcs+0x3b>:
    32f3:	07a524        	ae_addsp24s	aep2, aep2, aep5
    32f6:	07b294        	ae_subsp24s	aep1, aep3, aep2
    32f9:	011c74        	ae_mulfp24s.ll	aeq1, aep1, aep4
    32fc:	441b           	addi.n	a4, a4, 1
    32fe:	355094        	ae_slliq56	aeq1, aeq1, 2
    3301:	fd2c400f9f 	{ movi	a9, 15; ae_roundsq32asym	aeq1, aeq1 }
    3306:	12a976        	loopgtz	a9, 331c <aec_post_prcs+0x64>
    3309:	01a874        	ae_mulfp24s.ll	aeq3, aep2, aep0
    330c:	fe3c6cf21f 	{ ae_lp16f.iu	aep7, a2, 2; ae_roundsq32asym	aeq2, aeq3 }
    3311:	03f054        	ae_mulafq32sp16s.l	aeq2, aeq1, aep7
    3314:	fb73ac831f 	{ ae_lp16f.iu	aep0, a3, 2; ae_roundsp16q48asym	aep6, aeq2 }
    3319:	4263f4        	ae_sp16f.l.i	aep6, a3, -2

0000331c <aec_post_prcs+0x64>:
    331c:	d3b466        	bnei	a4, 16, 32f3 <aec_post_prcs+0x3b>
    331f:	f01d           	retw.n

00003321 <aec_post_prcs+0x69>:
    3321:	000000                                        ...

00003324 <AVC_prcs>:
    3324:	004136        	entry	a1, 32
    3327:	440304        	ae_lp16x2f.i	aep0, a3, 0
    332a:	fc2480788f 	{ movi	a8, 120; ae_zeroq56	aeq0 }
    332f:	04a876        	loopgtz	a8, 3337 <AVC_prcs+0x13>
    3332:	e2002d831f 	{ ae_lp16x2f.iu	aep0, a3, 4; ae_mulaafp24s.hh.ll	aeq0, aep0, aep0 }

00003337 <AVC_prcs+0x13>:
    3337:	3581f4        	ae_sraiq56	aeq2, aeq0, 7
    333a:	f3e291        	l32r	a9, 2c4 (11111 <_end+0x52d5>)
    333d:	fd3462099f 	{ ae_movpa24x2	aep0, a9, a9; ae_roundsq32asym	aeq1, aeq2 }
    3342:	080d64        	ae_mulfq32sp24s.l	aeq1, aeq1, aep0
    3345:	f35681        	l32r	a8, a0 (8b8 <HIFI_sqrt>)
    3348:	3551d4        	ae_slliq56	aeq1, aeq1, 7
    334b:	fc2c4000af 	{ movi	a10, 0; ae_roundsq32asym	aeq0, aeq1 }
    3350:	368b04        	ae_trunca32q48	a11, aeq0
    3353:	0008e0        	callx8	a8
    3356:	f3bc81        	l32r	a8, 248 (80b8 <airoha_divide>)
    3359:	604224        	ae_lq32f.i	aeq1, a2, 8
    335c:	368b34        	ae_cvtq48a32s	aeq2, a11
    335f:	441204        	ae_lp16x2f.i	aep1, a2, 0
    3362:	0292b2        	l16si	a11, a2, 4
    3365:	fc24feaa0f 	{ ae_slaasq56s	aeq0, aeq2, a10; nop }
    336a:	c11114        	ae_mulzaafq32sp16s.lh	aeq0, aeq0, aep1, aeq1, aep1
    336d:	11bb00        	slli	a11, a11, 16
    3370:	06c934        	ae_roundsq32asym	aeq3, aeq0
    3373:	36ba04        	ae_trunca32q48	a10, aeq3
    3376:	22a9           	s32i.n	a10, a2, 8
    3378:	0008e0        	callx8	a8
    337b:	f3c291        	l32r	a9, 284 (2000 <pitch_by_harmonic+0x570>)
    337e:	fecaa2        	addi	a10, a10, -2
    3381:	360b34        	ae_cvtq48a32s	aeq0, a11
    3384:	fc24fe8acf 	{ ae_slaasq56s	aeq3, aeq0, a10; nop }
    3389:	f97ba0328e 	{ l16si	a8, a2, 6; ae_roundsp16q48asym	aep2, aeq3 }
    338e:	362224        	ae_trunca16p24s.l	a2, aep2
    3391:	532290        	max	a2, a2, a9
    3394:	432280        	min	a2, a2, a8
    3397:	f01d           	retw.n

00003399 <AVC_prcs+0x75>:
    3399:	000000                                        ...

0000339c <gain_ref>:
    339c:	004136        	entry	a1, 32
    339f:	303334        	ae_cvtp24a16x2.ll	aep3, a3, a3
    33a2:	fcc222        	addi	a2, a2, -4
    33a5:	448214        	ae_lp16x2f.iu	aep0, a2, 4
    33a8:	17a476        	loopgtz	a4, 33c3 <gain_ref+0x27>
    33ab:	010b54        	ae_mulfp24s.hl	aeq1, aep0, aep3
    33ae:	ea61ad821f 	{ ae_lp16x2f.iu	aep0, a2, 4; ae_mulfp24s.ll	aeq0, aep0, aep3 }
    33b3:	355094        	ae_slliq56	aeq1, aeq1, 2
    33b6:	f96bba802f 	{ ae_slliq56	aeq0, aeq0, 2; ae_roundsp16q48asym	aep2, aeq1 }
    33bb:	f863f222ef 	{ ae_sp16f.l.i	aep2, a2, -4; ae_roundsp16q48asym	aep1, aeq0 }
    33c0:	4212f4        	ae_sp16f.l.i	aep1, a2, -2

000033c3 <gain_ref+0x27>:
    33c3:	f01d           	retw.n

000033c5 <gain_ref+0x29>:
    33c5:	000000                                        ...

000033c8 <TxRef_VAD>:
    33c8:	006136        	entry	a1, 48
    33cb:	00a0a2        	movi	a10, 0
    33ce:	f0a082        	movi	a8, 240
    33d1:	08a876        	loopgtz	a8, 33dd <TxRef_VAD+0x15>
    33d4:	239d           	ae_l16si.n	a9, a3, 0
    33d6:	332b           	addi.n	a3, a3, 2
    33d8:	609190        	abs	a9, a9
    33db:	aa9a           	add.n	a10, a10, a9

000033dd <TxRef_VAD+0x15>:
    33dd:	eaac           	beqz.n	a10, 340f <TxRef_VAD+0x47>
    33df:	f37681        	l32r	a8, 1b8 (91c <Log2_norm>)
    33e2:	7b1c           	movi.n	a11, 23
    33e4:	40eac0        	nsa	a12, a10
    33e7:	401c00        	ssl	a12
    33ea:	a1aa00        	sll	a10, a10
    33ed:	c0bbc0        	sub	a11, a11, a12
    33f0:	0008e0        	callx8	a8
    33f3:	f3b581        	l32r	a8, 2c8 (4d10 <mag_calibration+0x70>)
    33f6:	f33131        	l32r	a3, bc (80000000 <_end+0x7fff41c4>)
    33f9:	829a80        	mull	a9, a10, a8
    33fc:	b28a80        	mulsh	a8, a10, a8
    33ff:	393a           	add.n	a3, a9, a3
    3401:	623390        	saltu	a3, a3, a9
    3404:	338a           	add.n	a3, a3, a8
    3406:	0ad332        	addmi	a3, a3, 0xa00
    3409:	a2c332        	addi	a3, a3, -94
    340c:	000046        	j	3411 <TxRef_VAD+0x49>

0000340f <TxRef_VAD+0x47>:
    340f:	030c           	movi.n	a3, 0

00003411 <TxRef_VAD+0x49>:
    3411:	f33d81        	l32r	a8, 108 (43d4 <siir_safr>)
    3414:	0392a2        	l16si	a10, a2, 6
    3417:	029292        	l16si	a9, a2, 4
    341a:	f32941        	l32r	a4, c0 (8000 <ifft_wo+0x108>)
    341d:	0492b2        	l16si	a11, a2, 8
    3420:	533930        	max	a3, a9, a3
    3423:	c0c4a0        	sub	a12, a4, a10
    3426:	11cc00        	slli	a12, a12, 16
    3429:	aaca           	add.n	a10, a10, a12
    342b:	01a9           	s32i.n	a10, a1, 0
    342d:	c0c4b0        	sub	a12, a4, a11
    3430:	11cc00        	slli	a12, a12, 16
    3433:	bbca           	add.n	a11, a11, a12
    3435:	11b9           	s32i.n	a11, a1, 4
    3437:	01cd           	mov.n	a12, a1
    3439:	03bd           	mov.n	a11, a3
    343b:	42a8           	l32i.n	a10, a2, 16
    343d:	0008e0        	callx8	a8
    3440:	01cd           	mov.n	a12, a1
    3442:	059292        	l16si	a9, a2, 10
    3445:	42a9           	s32i.n	a10, a2, 16
    3447:	f33081        	l32r	a8, 108 (43d4 <siir_safr>)
    344a:	0692a2        	l16si	a10, a2, 12
    344d:	c0b490        	sub	a11, a4, a9
    3450:	11bb00        	slli	a11, a11, 16
    3453:	99ba           	add.n	a9, a9, a11
    3455:	0199           	s32i.n	a9, a1, 0
    3457:	c0b4a0        	sub	a11, a4, a10
    345a:	11bb00        	slli	a11, a11, 16
    345d:	aaba           	add.n	a10, a10, a11
    345f:	03bd           	mov.n	a11, a3
    3461:	11a9           	s32i.n	a10, a1, 4
    3463:	52a8           	l32i.n	a10, a2, 20
    3465:	0008e0        	callx8	a8
    3468:	42e8           	l32i.n	a14, a2, 16
    346a:	52a9           	s32i.n	a10, a2, 20
    346c:	22cd           	ae_l16si.n	a12, a2, 0
    346e:	0add           	mov.n	a13, a10
    3470:	0a0c           	movi.n	a10, 0
    3472:	ccea           	add.n	a12, a12, a14
    3474:	0cacd7        	bge	a12, a13, 3484 <TxRef_VAD+0xbc>
    3477:	190c           	movi.n	a9, 1

00003479 <TxRef_VAD+0xb1>:
    3479:	0c5292        	s16i	a9, a2, 24

0000347c <TxRef_VAD+0xb4>:
    347c:	0d52a2        	s16i	a10, a2, 26
    347f:	0c9222        	l16si	a2, a2, 24
    3482:	f01d           	retw.n

00003484 <TxRef_VAD+0xbc>:
    3484:	0c92f2        	l16si	a15, a2, 24
    3487:	0d92b2        	l16si	a11, a2, 26
    348a:	091f66        	bnei	a15, 1, 3497 <TxRef_VAD+0xcf>
    348d:	328d           	ae_l16si.n	a8, a2, 2
    348f:	0a9d           	mov.n	a9, a10
    3491:	02a8b7        	bge	a8, a11, 3497 <TxRef_VAD+0xcf>
    3494:	fff846        	j	3479 <TxRef_VAD+0xb1>

00003497 <TxRef_VAD+0xcf>:
    3497:	ab1b           	addi.n	a10, a11, 1
    3499:	fff7c6        	j	347c <TxRef_VAD+0xb4>

0000349c <Voice_WB_TX_Prcs>:
    349c:	022136        	entry	a1, 0x110
    349f:	04bd           	mov.n	a11, a4
    34a1:	f30041        	l32r	a4, a4 (be30 <p_ecnr_mem>)
    34a4:	266162        	s32i	a6, a1, 152
    34a7:	04f8           	l32i.n	a15, a4, 0
    34a9:	02cd           	mov.n	a12, a2
    34ab:	f37561        	l32r	a6, 280 (be34 <avc_vol>)
    34ae:	40dfa2        	addmi	a10, a15, 0x4000
    34b1:	3ddf82        	addmi	a8, a15, 0x3d00
    34b4:	37df22        	addmi	a2, a15, 0x3700
    34b7:	2cdf92        	addmi	a9, a15, 0x2c00
    34ba:	f0c992        	addi	a9, a9, -16
    34bd:	28c222        	addi	a2, a2, 40
    34c0:	88c872        	addi	a7, a8, -120
    34c3:	681882        	l16ui	a8, a8, 208
    34c6:	c0caa2        	addi	a10, a10, -64
    34c9:	2d61a2        	s32i	a10, a1, 180
    34cc:	18cc           	bnez.n	a8, 34d1 <Voice_WB_TX_Prcs+0x35>
    34ce:	024dc6        	j	3e09 <Voice_WB_TX_Prcs+0x96d>
    34d1:	0c6d           	mov.n	a6, a12
    34d3:	1661b2        	s32i	a11, a1, 88
    34d6:	176192        	s32i	a9, a1, 92
    34d9:	70df82        	addmi	a8, a15, 0x7000
    34dc:	386132        	s32i	a3, a1, 224
    34df:	19dfe2        	addmi	a14, a15, 0x1900
    34e2:	f37a31        	l32r	a3, 2cc (6f70 <two_mic_WB_NR_NSN_proc+0xa9c>)
    34e5:	582ea2        	l32i	a10, a14, 0x160
    34e8:	3961a2        	s32i	a10, a1, 228
    34eb:	729882        	l16si	a8, a8, 228
    34ee:	572ea2        	l32i	a10, a14, 0x15c
    34f1:	3661a2        	s32i	a10, a1, 216
    34f4:	789c           	beqz.n	a8, 350f <Voice_WB_TX_Prcs+0x73>
    34f6:	f37681        	l32r	a8, 2d0 (33c8 <TxRef_VAD>)
    34f9:	71dfa2        	addmi	a10, a15, 0x7100
    34fc:	e4caa2        	addi	a10, a10, -28
    34ff:	0008e0        	callx8	a8
    3502:	04f8           	l32i.n	a15, a4, 0
    3504:	1621b2        	l32i	a11, a1, 88
    3507:	df3a           	add.n	a13, a15, a3
    3509:	19dfe2        	addmi	a14, a15, 0x1900
    350c:	000ac6        	j	353b <Voice_WB_TX_Prcs+0x9f>

0000350f <Voice_WB_TX_Prcs+0x73>:
    350f:	6a0c           	movi.n	a10, 6
    3511:	1adf92        	addmi	a9, a15, 0x1a00
    3514:	14c992        	addi	a9, a9, 20
    3517:	04aa76        	loopgtz	a10, 351f <Voice_WB_TX_Prcs+0x83>
    351a:	39ad           	ae_l16si.n	a10, a9, 2
    351c:	09c9a4        	ae_s16ip	a10, a9, 2

0000351f <Voice_WB_TX_Prcs+0x83>:
    351f:	999e82        	l16si	a8, a14, 0x132
    3522:	df3a           	add.n	a13, a15, a3
    3524:	118890        	slli	a8, a8, 7
    3527:	698d           	ae_s16i.n	a8, a9, 0
    3529:	7e1dc2        	l16ui	a12, a13, 252
    352c:	90ccf0        	addx2	a12, a12, a15
    352f:	1adcc2        	addmi	a12, a12, 0x1a00
    3532:	0a9cc2        	l16si	a12, a12, 20
    3535:	ffa3a2        	movi	a10, 0x3ff
    3538:	72aac0        	salt	a10, a10, a12

0000353b <Voice_WB_TX_Prcs+0x9f>:
    353b:	989e32        	l16si	a3, a14, 0x130
    353e:	3aac           	beqz.n	a10, 3565 <Voice_WB_TX_Prcs+0xc9>
    3540:	1897a2        	l16si	a10, a7, 48
    3543:	096c           	movi.n	a9, -32
    3545:	0ba937        	bge	a9, a3, 3554 <Voice_WB_TX_Prcs+0xb8>
    3548:	f87c           	movi.n	a8, -1
    354a:	330b           	addi.n	a3, a3, -1
    354c:	433380        	min	a3, a3, a8
    354f:	833d           	ae_sext16	a3, a3
    3551:	985e32        	s16i	a3, a14, 0x130

00003554 <Voice_WB_TX_Prcs+0xb8>:
    3554:	ffa192        	movi	a9, 0x1ff
    3557:	1929a7        	blt	a9, a10, 3574 <Voice_WB_TX_Prcs+0xd8>
    355a:	989e32        	l16si	a3, a14, 0x130
    355d:	ca1b           	addi.n	a12, a10, 1
    355f:	1857c2        	s16i	a12, a7, 48
    3562:	000386        	j	3574 <Voice_WB_TX_Prcs+0xd8>

00003565 <Voice_WB_TX_Prcs+0xc9>:
    3565:	0bc3e6        	bgei	a3, 32, 3574 <Voice_WB_TX_Prcs+0xd8>
    3568:	180c           	movi.n	a8, 1
    356a:	331b           	addi.n	a3, a3, 1
    356c:	533380        	max	a3, a3, a8
    356f:	833d           	ae_sext16	a3, a3
    3571:	985e32        	s16i	a3, a14, 0x130
    3574:	7f1dd2        	l16ui	a13, a13, 254
    3577:	1721a2        	l32i	a10, a1, 92
    357a:	3a6152        	s32i	a5, a1, 232
    357d:	f35581        	l32r	a8, 2d4 (2df0 <mic240_delay>)
    3580:	18dfc2        	addmi	a12, a15, 0x1800
    3583:	090c           	movi.n	a9, 0
    3585:	186792        	s32i	a9, a7, 96
    3588:	286792        	s32i	a9, a7, 160
    358b:	386792        	s32i	a9, a7, 224
    358e:	486792        	s32i	a9, a7, 0x120
    3591:	196792        	s32i	a9, a7, 100
    3594:	296792        	s32i	a9, a7, 164
    3597:	396792        	s32i	a9, a7, 228
    359a:	496792        	s32i	a9, a7, 0x124
    359d:	34ccc2        	addi	a12, a12, 52
    35a0:	0008e0        	callx8	a8
    35a3:	172152        	l32i	a5, a1, 92
    35a6:	10c1a2        	addi	a10, a1, 16
    35a9:	f2c681        	l32r	a8, c4 (9228 <xt_memset>)
    35ac:	0b0c           	movi.n	a11, 0
    35ae:	ac0c           	movi.n	a12, 10
    35b0:	0008e0        	callx8	a8
    35b3:	080c           	movi.n	a8, 0
    35b5:	78c2a2        	addi	a10, a2, 120
    35b8:	48c7e2        	addi	a14, a7, 72
    35bb:	38c192        	addi	a9, a1, 56
    35be:	14c1b2        	addi	a11, a1, 20
    35c1:	1cc1d2        	addi	a13, a1, 28
    35c4:	18c1f2        	addi	a15, a1, 24
    35c7:	0c0c           	movi.n	a12, 0
    35c9:	3761c2        	s32i	a12, a1, 220
    35cc:	2e61f2        	s32i	a15, a1, 184
    35cf:	3361d2        	s32i	a13, a1, 204
    35d2:	1f61b2        	s32i	a11, a1, 124
    35d5:	1a6192        	s32i	a9, a1, 104
    35d8:	2f61e2        	s32i	a14, a1, 188
    35db:	1961a2        	s32i	a10, a1, 100
    35de:	c25282        	s16i	a8, a2, 0x184
    35e1:	03d2a2        	addmi	a10, a2, 0x300
    35e4:	40c182        	addi	a8, a1, 64
    35e7:	0e0c           	movi.n	a14, 0
    35e9:	04d292        	addmi	a9, a2, 0x400
    35ec:	0b0c           	movi.n	a11, 0
    35ee:	0d0c           	movi.n	a13, 0
    35f0:	20c1f2        	addi	a15, a1, 32
    35f3:	0c0c           	movi.n	a12, 0
    35f5:	2a61c2        	s32i	a12, a1, 168
    35f8:	1d61f2        	s32i	a15, a1, 116
    35fb:	2961d2        	s32i	a13, a1, 164
    35fe:	2b61b2        	s32i	a11, a1, 172
    3601:	e8c992        	addi	a9, a9, -24
    3604:	2c61e2        	s32i	a14, a1, 176
    3607:	1c6182        	s32i	a8, a1, 112
    360a:	02d2e2        	addmi	a14, a2, 0x200
    360d:	01d782        	addmi	a8, a7, 0x100
    3610:	286192        	s32i	a9, a1, 160
    3613:	01d2b2        	addmi	a11, a2, 0x100
    3616:	6d0c           	movi.n	a13, 6
    3618:	3461d2        	s32i	a13, a1, 208
    361b:	b0cbf2        	addi	a15, a11, -80
    361e:	a8cac2        	addi	a12, a10, -88
    3621:	0b9d           	mov.n	a9, a11
    3623:	2761c2        	s32i	a12, a1, 156
    3626:	3561f2        	s32i	a15, a1, 212
    3629:	48caa2        	addi	a10, a10, 72
    362c:	2561a2        	s32i	a10, a1, 148
    362f:	08fd           	mov.n	a15, a8
    3631:	a8ced2        	addi	a13, a14, -88
    3634:	c8c8c2        	addi	a12, a8, -56
    3637:	a8c992        	addi	a9, a9, -88
    363a:	90cbb2        	addi	a11, a11, -112
    363d:	1b61b2        	s32i	a11, a1, 108
    3640:	186192        	s32i	a9, a1, 96
    3643:	3061c2        	s32i	a12, a1, 192
    3646:	2061d2        	s32i	a13, a1, 128
    3649:	88cff2        	addi	a15, a15, -120
    364c:	3261f2        	s32i	a15, a1, 200
    364f:	0edd           	mov.n	a13, a14
    3651:	0ecd           	mov.n	a12, a14
    3653:	888b           	addi.n	a8, a8, 8
    3655:	316182        	s32i	a8, a1, 196
    3658:	68ccc2        	addi	a12, a12, 104
    365b:	28cdd2        	addi	a13, a13, 40
    365e:	2261d2        	s32i	a13, a1, 136
    3661:	2361c2        	s32i	a12, a1, 140
    3664:	e8cee2        	addi	a14, a14, -24
    3667:	2161e2        	s32i	a14, a1, 132

0000366a <Voice_WB_TX_Prcs+0x1ce>:
    366a:	06ad           	mov.n	a10, a6
    366c:	04c8           	l32i.n	a12, a4, 0
    366e:	8d2c           	movi.n	a13, 40
    3670:	f31a81        	l32r	a8, 2d8 (2f4c <emph_filter_N>)
    3673:	18dcb2        	addmi	a11, a12, 0x1800
    3676:	30cbb2        	addi	a11, a11, 48
    3679:	18dcc2        	addmi	a12, a12, 0x1800
    367c:	1cccc2        	addi	a12, a12, 28
    367f:	0008e0        	callx8	a8
    3682:	05ad           	mov.n	a10, a5
    3684:	04c8           	l32i.n	a12, a4, 0
    3686:	8d2c           	movi.n	a13, 40
    3688:	f31481        	l32r	a8, 2d8 (2f4c <emph_filter_N>)
    368b:	18dcb2        	addmi	a11, a12, 0x1800
    368e:	30cbb2        	addi	a11, a11, 48
    3691:	18dcc2        	addmi	a12, a12, 0x1800
    3694:	20ccc2        	addi	a12, a12, 32
    3697:	0008e0        	callx8	a8
    369a:	06cd           	mov.n	a12, a6
    369c:	04b8           	l32i.n	a11, a4, 0
    369e:	10c1e2        	addi	a14, a1, 16
    36a1:	f30e81        	l32r	a8, 2dc (2e6c <tx_downsample_by2>)
    36a4:	30dbd2        	addmi	a13, a11, 0x3000
    36a7:	19dbb2        	addmi	a11, a11, 0x1900
    36aa:	f0cdd2        	addi	a13, a13, -16
    36ad:	4f2ba2        	l32i	a10, a11, 0x13c
    36b0:	502bb2        	l32i	a11, a11, 0x140
    36b3:	0008e0        	callx8	a8
    36b6:	05cd           	mov.n	a12, a5
    36b8:	04b8           	l32i.n	a11, a4, 0
    36ba:	2e21e2        	l32i	a14, a1, 184
    36bd:	f30781        	l32r	a8, 2dc (2e6c <tx_downsample_by2>)
    36c0:	30dbd2        	addmi	a13, a11, 0x3000
    36c3:	19dbb2        	addmi	a11, a11, 0x1900
    36c6:	10cdd2        	addi	a13, a13, 16
    36c9:	532ba2        	l32i	a10, a11, 0x14c
    36cc:	542bb2        	l32i	a11, a11, 0x150
    36cf:	0008e0        	callx8	a8
    36d2:	3f27d2        	l32i	a13, a7, 252
    36d5:	04c8           	l32i.n	a12, a4, 0
    36d7:	2f27e2        	l32i	a14, a7, 188
    36da:	f30181        	l32r	a8, 2e0 (2fc8 <analy_3band>)
    36dd:	3edcb2        	addmi	a11, a12, 0x3e00
    36e0:	19dcc2        	addmi	a12, a12, 0x1900
    36e3:	bb8b           	addi.n	a11, a11, 8
    36e5:	4f2ca2        	l32i	a10, a12, 0x13c
    36e8:	4e2cc2        	l32i	a12, a12, 0x138
    36eb:	0008e0        	callx8	a8
    36ee:	1f27d2        	l32i	a13, a7, 124
    36f1:	04a8           	l32i.n	a10, a4, 0
    36f3:	ae0c           	movi.n	a14, 10
    36f5:	f2fb81        	l32r	a8, 2e4 (30fc <biquad_2cascade_24bitTx>)
    36f8:	18dac2        	addmi	a12, a10, 0x1800
    36fb:	31dab2        	addmi	a11, a10, 0x3100
    36fe:	90cbb2        	addi	a11, a11, -112
    3701:	e8ccc2        	addi	a12, a12, -24
    3704:	1adaa2        	addmi	a10, a10, 0x1a00
    3707:	eaa8           	l32i.n	a10, a10, 56
    3709:	0008e0        	callx8	a8
    370c:	4027d2        	l32i	a13, a7, 0x100
    370f:	04c8           	l32i.n	a12, a4, 0
    3711:	3027e2        	l32i	a14, a7, 192
    3714:	f2f381        	l32r	a8, 2e0 (2fc8 <analy_3band>)
    3717:	3edcb2        	addmi	a11, a12, 0x3e00
    371a:	19dcc2        	addmi	a12, a12, 0x1900
    371d:	48cbb2        	addi	a11, a11, 72
    3720:	532ca2        	l32i	a10, a12, 0x14c
    3723:	4e2cc2        	l32i	a12, a12, 0x138
    3726:	0008e0        	callx8	a8
    3729:	04a8           	l32i.n	a10, a4, 0
    372b:	2027b2        	l32i	a11, a7, 128
    372e:	f2ee81        	l32r	a8, 2e8 (3160 <conv_24_to_16>)
    3731:	1adaa2        	addmi	a10, a10, 0x1a00
    3734:	eaa8           	l32i.n	a10, a10, 56
    3736:	0008e0        	callx8	a8
    3739:	07ad           	mov.n	a10, a7
    373b:	2f21b2        	l32i	a11, a1, 188
    373e:	ac0c           	movi.n	a12, 10
    3740:	f2eb81        	l32r	a8, 2ec (264c <subband_aec_block>)
    3743:	03dd           	mov.n	a13, a3
    3745:	1e0c           	movi.n	a14, 1
    3747:	0008e0        	callx8	a8
    374a:	07ad           	mov.n	a10, a7
    374c:	3021b2        	l32i	a11, a1, 192
    374f:	ac0c           	movi.n	a12, 10
    3751:	f2e681        	l32r	a8, 2ec (264c <subband_aec_block>)
    3754:	03dd           	mov.n	a13, a3
    3756:	3e0c           	movi.n	a14, 3
    3758:	0008e0        	callx8	a8
    375b:	07ad           	mov.n	a10, a7
    375d:	3121b2        	l32i	a11, a1, 196
    3760:	4c1c           	movi.n	a12, 20
    3762:	f2e281        	l32r	a8, 2ec (264c <subband_aec_block>)
    3765:	03dd           	mov.n	a13, a3
    3767:	4e0c           	movi.n	a14, 4
    3769:	0008e0        	callx8	a8
    376c:	07ad           	mov.n	a10, a7
    376e:	3221b2        	l32i	a11, a1, 200
    3771:	f2df81        	l32r	a8, 2f0 (2884 <subband_aec_mid_channel>)
    3774:	03cd           	mov.n	a12, a3
    3776:	2d0c           	movi.n	a13, 2
    3778:	0008e0        	callx8	a8
    377b:	2127a2        	l32i	a10, a7, 132
    377e:	4127b2        	l32i	a11, a7, 0x104
    3781:	5127c2        	l32i	a12, a7, 0x144
    3784:	f2dc81        	l32r	a8, 2f4 (317c <gain_after_ec>)
    3787:	3127d2        	l32i	a13, a7, 196
    378a:	0e0c           	movi.n	a14, 0
    378c:	0008e0        	callx8	a8
    378f:	04f8           	l32i.n	a15, a4, 0
    3791:	19dfe2        	addmi	a14, a15, 0x1900
    3794:	969e92        	l16si	a9, a14, 0x12c
    3797:	fec992        	addi	a9, a9, -2
    379a:	409956        	bnez	a9, 3ba7 <Voice_WB_TX_Prcs+0x70b>
    379d:	3821a2        	l32i	a10, a1, 224
    37a0:	8d2c           	movi.n	a13, 40
    37a2:	18dfc2        	addmi	a12, a15, 0x1800
    37a5:	18dfb2        	addmi	a11, a15, 0x1800
    37a8:	f2cc81        	l32r	a8, 2d8 (2f4c <emph_filter_N>)
    37ab:	30cbb2        	addi	a11, a11, 48
    37ae:	24ccc2        	addi	a12, a12, 36
    37b1:	0008e0        	callx8	a8
    37b4:	3821c2        	l32i	a12, a1, 224
    37b7:	04b8           	l32i.n	a11, a4, 0
    37b9:	1f21e2        	l32i	a14, a1, 124
    37bc:	f2c881        	l32r	a8, 2dc (2e6c <tx_downsample_by2>)
    37bf:	30dbd2        	addmi	a13, a11, 0x3000
    37c2:	19dbb2        	addmi	a11, a11, 0x1900
    37c5:	30cdd2        	addi	a13, a13, 48
    37c8:	512ba2        	l32i	a10, a11, 0x144
    37cb:	522bb2        	l32i	a11, a11, 0x148
    37ce:	0008e0        	callx8	a8
    37d1:	04c8           	l32i.n	a12, a4, 0
    37d3:	f2c381        	l32r	a8, 2e0 (2fc8 <analy_3band>)
    37d6:	37dce2        	addmi	a14, a12, 0x3700
    37d9:	3fdcb2        	addmi	a11, a12, 0x3f00
    37dc:	88cbb2        	addi	a11, a11, -120
    37df:	68cee2        	addi	a14, a14, 104
    37e2:	772ed2        	l32i	a13, a14, 0x1dc
    37e5:	19dcc2        	addmi	a12, a12, 0x1900
    37e8:	512ca2        	l32i	a10, a12, 0x144
    37eb:	972ee2        	l32i	a14, a14, 0x25c
    37ee:	4e2cc2        	l32i	a12, a12, 0x138
    37f1:	0008e0        	callx8	a8
    37f4:	04a8           	l32i.n	a10, a4, 0
    37f6:	ae0c           	movi.n	a14, 10
    37f8:	f2bb81        	l32r	a8, 2e4 (30fc <biquad_2cascade_24bitTx>)
    37fb:	37dad2        	addmi	a13, a10, 0x3700
    37fe:	18dac2        	addmi	a12, a10, 0x1800
    3801:	31dab2        	addmi	a11, a10, 0x3100
    3804:	a8cbb2        	addi	a11, a11, -88
    3807:	e8ccc2        	addi	a12, a12, -24
    380a:	68cdd2        	addi	a13, a13, 104
    380d:	672dd2        	l32i	a13, a13, 0x19c
    3810:	1adaa2        	addmi	a10, a10, 0x1a00
    3813:	eaa8           	l32i.n	a10, a10, 56
    3815:	0008e0        	callx8	a8
    3818:	07ad           	mov.n	a10, a7
    381a:	2021b2        	l32i	a11, a1, 128
    381d:	ac0c           	movi.n	a12, 10
    381f:	f2b381        	l32r	a8, 2ec (264c <subband_aec_block>)
    3822:	03dd           	mov.n	a13, a3
    3824:	1e0c           	movi.n	a14, 1
    3826:	0008e0        	callx8	a8
    3829:	07ad           	mov.n	a10, a7
    382b:	2121b2        	l32i	a11, a1, 132
    382e:	ac0c           	movi.n	a12, 10
    3830:	f2af81        	l32r	a8, 2ec (264c <subband_aec_block>)
    3833:	03dd           	mov.n	a13, a3
    3835:	3e0c           	movi.n	a14, 3
    3837:	0008e0        	callx8	a8
    383a:	07ad           	mov.n	a10, a7
    383c:	2221b2        	l32i	a11, a1, 136
    383f:	4c1c           	movi.n	a12, 20
    3841:	f2aa81        	l32r	a8, 2ec (264c <subband_aec_block>)
    3844:	03dd           	mov.n	a13, a3
    3846:	4e0c           	movi.n	a14, 4
    3848:	0008e0        	callx8	a8
    384b:	07ad           	mov.n	a10, a7
    384d:	2321b2        	l32i	a11, a1, 140
    3850:	f2a881        	l32r	a8, 2f0 (2884 <subband_aec_mid_channel>)
    3853:	03cd           	mov.n	a12, a3
    3855:	2d0c           	movi.n	a13, 2
    3857:	0008e0        	callx8	a8
    385a:	3521d2        	l32i	a13, a1, 212
    385d:	1e0c           	movi.n	a14, 1
    385f:	f2a581        	l32r	a8, 2f4 (317c <gain_after_ec>)
    3862:	4d2da2        	l32i	a10, a13, 0x134
    3865:	5d2db2        	l32i	a11, a13, 0x174
    3868:	6d2dc2        	l32i	a12, a13, 0x1b4
    386b:	7d2dd2        	l32i	a13, a13, 0x1f4
    386e:	0008e0        	callx8	a8
    3871:	04f8           	l32i.n	a15, a4, 0
    3873:	19dfe2        	addmi	a14, a15, 0x1900
    3876:	9b9e82        	l16si	a8, a14, 0x136
    3879:	3d68e7        	bbci	a8, 14, 38ba <Voice_WB_TX_Prcs+0x41e>
    387c:	562ee2        	l32i	a14, a14, 0x158
    387f:	f29e81        	l32r	a8, 2f8 (3074 <synth_3band>)
    3882:	3521c2        	l32i	a12, a1, 212
    3885:	3fdfd2        	addmi	a13, a15, 0x3f00
    3888:	c8cdd2        	addi	a13, a13, -56
    388b:	4d2ca2        	l32i	a10, a12, 0x134
    388e:	5d2cb2        	l32i	a11, a12, 0x174
    3891:	7d2cc2        	l32i	a12, a12, 0x1f4
    3894:	0008e0        	callx8	a8
    3897:	3921c2        	l32i	a12, a1, 228
    389a:	3321e2        	l32i	a14, a1, 204
    389d:	3521b2        	l32i	a11, a1, 212
    38a0:	04a8           	l32i.n	a10, a4, 0
    38a2:	f29681        	l32r	a8, 2fc (2edc <tx_upsample_by2>)
    38a5:	6d2bb2        	l32i	a11, a11, 0x1b4
    38a8:	30dad2        	addmi	a13, a10, 0x3000
    38ab:	50cdd2        	addi	a13, a13, 80
    38ae:	1adaa2        	addmi	a10, a10, 0x1a00
    38b1:	162aa2        	l32i	a10, a10, 88
    38b4:	0008e0        	callx8	a8
    38b7:	00d086        	j	3bfd <Voice_WB_TX_Prcs+0x761>

000038ba <Voice_WB_TX_Prcs+0x41e>:
    38ba:	02ad           	mov.n	a10, a2
    38bc:	f29181        	l32r	a8, 300 (44ac <prelim_filter>)
    38bf:	30c1b2        	addi	a11, a1, 48
    38c2:	50c1c2        	addi	a12, a1, 80
    38c5:	0008e0        	callx8	a8
    38c8:	02ad           	mov.n	a10, a2
    38ca:	1921b2        	l32i	a11, a1, 100
    38cd:	f28d81        	l32r	a8, 304 (475c <prelim_filter3>)
    38d0:	3c0c           	movi.n	a12, 3
    38d2:	1a21d2        	l32i	a13, a1, 104
    38d5:	0008e0        	callx8	a8
    38d8:	02ad           	mov.n	a10, a2
    38da:	1b21b2        	l32i	a11, a1, 108
    38dd:	f28981        	l32r	a8, 304 (475c <prelim_filter3>)
    38e0:	4c0c           	movi.n	a12, 4
    38e2:	1c21d2        	l32i	a13, a1, 112
    38e5:	0008e0        	callx8	a8
    38e8:	c1a8           	l32i.n	a10, a1, 48
    38ea:	f28781        	l32r	a8, 308 (3288 <adjust_phase>)
    38ed:	2a92b2        	l16si	a11, a2, 84
    38f0:	2461b2        	s32i	a11, a1, 144
    38f3:	0008e0        	callx8	a8
    38f6:	c1a9           	s32i.n	a10, a1, 48
    38f8:	f28481        	l32r	a8, 308 (3288 <adjust_phase>)
    38fb:	2421b2        	l32i	a11, a1, 144
    38fe:	e1a8           	l32i.n	a10, a1, 56
    3900:	0008e0        	callx8	a8
    3903:	e1a9           	s32i.n	a10, a1, 56
    3905:	f28081        	l32r	a8, 308 (3288 <adjust_phase>)
    3908:	2421b2        	l32i	a11, a1, 144
    390b:	1021a2        	l32i	a10, a1, 64
    390e:	0008e0        	callx8	a8
    3911:	0a92b2        	l16si	a11, a2, 20
    3914:	109292        	l16si	a9, a2, 32
    3917:	1061a2        	s32i	a10, a1, 64
    391a:	dd7c           	movi.n	a13, -3
    391c:	24a9b7        	bge	a9, a11, 3944 <Voice_WB_TX_Prcs+0x4a8>
    391f:	02ad           	mov.n	a10, a2
    3921:	f27a81        	l32r	a8, 30c (4a20 <cali_power>)
    3924:	1821b2        	l32i	a11, a1, 96
    3927:	30c1c2        	addi	a12, a1, 48
    392a:	0008e0        	callx8	a8
    392d:	f27881        	l32r	a8, 310 (48d0 <cali_module_short>)
    3930:	02ad           	mov.n	a10, a2
    3932:	30c1b2        	addi	a11, a1, 48
    3935:	0008e0        	callx8	a8
    3938:	6592d2        	l16si	a13, a2, 202
    393b:	689292        	l16si	a9, a2, 208
    393e:	1e6192        	s32i	a9, a1, 120
    3941:	000506        	j	3959 <Voice_WB_TX_Prcs+0x4bd>

00003944 <Voice_WB_TX_Prcs+0x4a8>:
    3944:	0b0c           	movi.n	a11, 0
    3946:	0a0c           	movi.n	a10, 0
    3948:	dc7c           	movi.n	a12, -3
    394a:	6552c2        	s16i	a12, a2, 202
    394d:	1e61a2        	s32i	a10, a1, 120
    3950:	6952b2        	s16i	a11, a2, 210
    3953:	6752b2        	s16i	a11, a2, 206
    3956:	6852b2        	s16i	a11, a2, 208

00003959 <Voice_WB_TX_Prcs+0x4bd>:
    3959:	6992a2        	l16si	a10, a2, 210
    395c:	2a2192        	l32i	a9, a1, 168
    395f:	679282        	l16si	a8, a2, 206
    3962:	2921e2        	l32i	a14, a1, 164
    3965:	2b21c2        	l32i	a12, a1, 172
    3968:	cc12b2        	l16ui	a11, a2, 0x198
    396b:	0f2c           	movi.n	a15, 32
    396d:	ccda           	add.n	a12, a12, a13
    396f:	63bbf0        	minu	a11, a11, a15
    3972:	1e21d2        	l32i	a13, a1, 120
    3975:	c0ffb0        	sub	a15, a15, a11
    3978:	ee8a           	add.n	a14, a14, a8
    397a:	2b61c2        	s32i	a12, a1, 172
    397d:	99aa           	add.n	a9, a9, a10
    397f:	2a6192        	s32i	a9, a1, 168
    3982:	02ad           	mov.n	a10, a2
    3984:	2c21c2        	l32i	a12, a1, 176
    3987:	2961e2        	s32i	a14, a1, 164
    398a:	82b8b0        	mull	a11, a8, a11
    398d:	0e0c           	movi.n	a14, 0
    398f:	f26181        	l32r	a8, 314 (4e00 <beam1_proc>)
    3992:	82ddf0        	mull	a13, a13, a15
    3995:	1f0c           	movi.n	a15, 1
    3997:	bbda           	add.n	a11, a11, a13
    3999:	6592d2        	l16si	a13, a2, 202
    399c:	ccba           	add.n	a12, a12, a11
    399e:	2c61c2        	s32i	a12, a1, 176
    39a1:	10cbb2        	addi	a11, a11, 16
    39a4:	21b5b0        	srai	a11, a11, 5
    39a7:	aa22c2        	l32i	a12, a2, 0x2a8
    39aa:	6852b2        	s16i	a11, a2, 208
    39ad:	2721b2        	l32i	a11, a1, 156
    39b0:	0008e0        	callx8	a8
    39b3:	02ad           	mov.n	a10, a2
    39b5:	2521b2        	l32i	a11, a1, 148
    39b8:	d422c2        	l32i	a12, a2, 0x350
    39bb:	6792d2        	l16si	a13, a2, 206
    39be:	f25581        	l32r	a8, 314 (4e00 <beam1_proc>)
    39c1:	0e0c           	movi.n	a14, 0
    39c3:	0f0c           	movi.n	a15, 0
    39c5:	0008e0        	callx8	a8
    39c8:	02ad           	mov.n	a10, a2
    39ca:	2821b2        	l32i	a11, a1, 160
    39cd:	fc22c2        	l32i	a12, a2, 0x3f0
    39d0:	6892d2        	l16si	a13, a2, 208
    39d3:	f25081        	l32r	a8, 314 (4e00 <beam1_proc>)
    39d6:	0e0c           	movi.n	a14, 0
    39d8:	0f0c           	movi.n	a15, 0
    39da:	0008e0        	callx8	a8
    39dd:	02ad           	mov.n	a10, a2
    39df:	2821b2        	l32i	a11, a1, 160
    39e2:	fc22c2        	l32i	a12, a2, 0x3f0
    39e5:	6892d2        	l16si	a13, a2, 208
    39e8:	f24b81        	l32r	a8, 314 (4e00 <beam1_proc>)
    39eb:	ae0c           	movi.n	a14, 10
    39ed:	0f0c           	movi.n	a15, 0
    39ef:	0008e0        	callx8	a8
    39f2:	d322a2        	l32i	a10, a2, 0x34c
    39f5:	f24881        	l32r	a8, 318 (339c <gain_ref>)
    39f8:	0492b2        	l16si	a11, a2, 8
    39fb:	5c0c           	movi.n	a12, 5
    39fd:	0008e0        	callx8	a8
    3a00:	fb22a2        	l32i	a10, a2, 0x3ec
    3a03:	f24581        	l32r	a8, 318 (339c <gain_ref>)
    3a06:	0592b2        	l16si	a11, a2, 10
    3a09:	ac0c           	movi.n	a12, 10
    3a0b:	0008e0        	callx8	a8
    3a0e:	04e8           	l32i.n	a14, a4, 0
    3a10:	19dee2        	addmi	a14, a14, 0x1900
    3a13:	5b2e92        	l32i	a9, a14, 0x16c
    3a16:	3521b2        	l32i	a11, a1, 212
    3a19:	06d992        	addmi	a9, a9, 0x600
    3a1c:	1e9992        	l16si	a9, a9, 60
    3a1f:	7e2bb2        	l32i	a11, a11, 0x1f8
    3a22:	052916        	beqz	a9, 3a78 <Voice_WB_TX_Prcs+0x5dc>
    3a25:	3521a2        	l32i	a10, a1, 212
    3a28:	f1a981        	l32r	a8, cc (9240 <xt_memcpy>)
    3a2b:	ac0c           	movi.n	a12, 10
    3a2d:	812aa2        	l32i	a10, a10, 0x204
    3a30:	0008e0        	callx8	a8
    3a33:	8e1c           	movi.n	a14, 24
    3a35:	f23981        	l32r	a8, 31c (4f74 <beam2_proc>)
    3a38:	0a0c           	movi.n	a10, 0
    3a3a:	2891f2        	l16si	a15, a1, 80
    3a3d:	3521c2        	l32i	a12, a1, 212
    3a40:	04b8           	l32i.n	a11, a4, 0
    3a42:	190c           	movi.n	a9, 1
    3a44:	0d9cd2        	l16si	a13, a12, 26
    3a47:	1adbb2        	addmi	a11, a11, 0x1a00
    3a4a:	7e2cc2        	l32i	a12, a12, 0x1f8
    3a4d:	189bb2        	l16si	a11, a11, 48
    3a50:	2199           	s32i.n	a9, a1, 8
    3a52:	01b9           	s32i.n	a11, a1, 0
    3a54:	11a9           	s32i.n	a10, a1, 4
    3a56:	2721b2        	l32i	a11, a1, 156
    3a59:	02ad           	mov.n	a10, a2
    3a5b:	0008e0        	callx8	a8
    3a5e:	04b8           	l32i.n	a11, a4, 0
    3a60:	1adbb2        	addmi	a11, a11, 0x1a00
    3a63:	1b2bb2        	l32i	a11, a11, 108
    3a66:	2721a2        	l32i	a10, a1, 156
    3a69:	f22d81        	l32r	a8, 320 (2c08 <main_err_alpha>)
    3a6c:	06dbb2        	addmi	a11, a11, 0x600
    3a6f:	1d9bb2        	l16si	a11, a11, 58
    3a72:	0008e0        	callx8	a8
    3a75:	000906        	j	3a9d <Voice_WB_TX_Prcs+0x601>

00003a78 <Voice_WB_TX_Prcs+0x5dc>:
    3a78:	f22981        	l32r	a8, 31c (4f74 <beam2_proc>)
    3a7b:	0a0c           	movi.n	a10, 0
    3a7d:	2891f2        	l16si	a15, a1, 80
    3a80:	190c           	movi.n	a9, 1
    3a82:	0bcd           	mov.n	a12, a11
    3a84:	3521d2        	l32i	a13, a1, 212
    3a87:	989eb2        	l16si	a11, a14, 0x130
    3a8a:	8e1c           	movi.n	a14, 24
    3a8c:	0d9dd2        	l16si	a13, a13, 26
    3a8f:	2199           	s32i.n	a9, a1, 8
    3a91:	11a9           	s32i.n	a10, a1, 4
    3a93:	01b9           	s32i.n	a11, a1, 0
    3a95:	02ad           	mov.n	a10, a2
    3a97:	2721b2        	l32i	a11, a1, 156
    3a9a:	0008e0        	callx8	a8

00003a9d <Voice_WB_TX_Prcs+0x601>:
    3a9d:	8e1c           	movi.n	a14, 24
    3a9f:	f1e3f1        	l32r	a15, 22c (7fff <ifft_wo+0x107>)
    3aa2:	f21e81        	l32r	a8, 31c (4f74 <beam2_proc>)
    3aa5:	0b1c           	movi.n	a11, 16
    3aa7:	0a0c           	movi.n	a10, 0
    3aa9:	6792d2        	l16si	a13, a2, 206
    3aac:	d422c2        	l32i	a12, a2, 0x350
    3aaf:	390c           	movi.n	a9, 3
