
Build/lib/pisplit_ecnr_inear_position_independent.splitload.lib:     file format elf32-xtensa-le


Disassembly of section .text:

00000000 <_init-0x4b0>:
       0:	00000504 00008800 0000e770 0000ab44     ........p...D...
      10:	00000000 0000ab2c 00000000 0000e774     ....,.......t...
      20:	0000cd0c 00008628 00008e28 00008838     ....(...(...8...
      30:	0000e798 00000520 0000ce00 0000e78c     .... ...........
      40:	00000544 00001000 0000ca78 0000ac30     D.......x...0...
      50:	7fffffff 0000aca0 80000000 00007fff     ................
      60:	ffff7fff ffff8000 000096d0 00009740     ............@...
      70:	00010000 00001922 00008000 00000b1f     ...."...........
      80:	00004000 00006488 ffffb49b ffffc000     .@...d..........
      90:	00002688 000241f8 00009770 ffff0000     .&...A..p.......
      a0:	00002c5d 00029973 00009780 7fffff00     ],..s...........
      b0:	0000e460 00000e5c 00000b38 00000df0     `...\...8.......
      c0:	00000ccd 00000b00 000049af 00000ffc     .........I......
      d0:	00008820 ffffb800 0000e4e0 00006a4d      ...........Mj..
      e0:	ffff8400 00000e39 0000e520 0000e500     ....9... .......
      f0:	0015cc64 007af1aa 0000b4c0 00004d38     d.....z.....8M..
     100:	00004e20 00800000 0000887c 00008894      N......|.......
     110:	00000f4c 00000d80 00001074 01000000     L.......t.......
     120:	0019999a 00002af0 00000ad4 fffe7961     .....*......ay..
     130:	0000e540 ffffcb05 6a4d3c26 c0000000     @.......&<Mj....
     140:	00200000 0000e6b0 00a3d70a 00002000     .. .......... ..
     150:	00001fff 02800000 0000098c 0000e740     ............@...
     160:	0000bb75 0000321c 00009298 00001928     u....2......(...
     170:	00001d6c 00002674 000030b8 000033a4     l...t&...0...3..
     180:	00001f5c 0000142c 00001348 000035c0     \...,...H....5..
     190:	13333333 000038c4 00000800 00001940     333..8......@...
     1a0:	00003948 00001a70 00001494 000026ac     H9..p........&..
     1b0:	000033cc 000050a0 00005068 000030d8     .3...P..hP...0..
     1c0:	000035d4 0000204c 00000fa4 00006436     .5..L ......6d..
     1d0:	00003ce0 00001d84 00001378 00002e08     .<......x.......
     1e0:	00002b18 00002cf0 0000e794 0000978c     .+...,..........
     1f0:	00005ca8 000097a0 00005cb0 000097bc     .\.......\......
     200:	00005db0 000097dc 000065c0 000097fc     .].......e......
     210:	00006dac 00009818 000072b8 0000982c     .m.......r..,...
     220:	00006cf0 00009844 00007038 00009858     .l..D...8p..X...
     230:	00006d4c 00009870 00006dec 00009890     Lm..p....m......
     240:	00006e08 000098ac 000009f8 000098bc     .n..............
     250:	00005cb8 000098d8 00006e00 000098fc     .\.......n......
     260:	00006e10 0000991c 00006e18 0000993c     .n.......n..<...
     270:	00005d98 0000ab50 00009960 00008740     .]..P...`...@...
     280:	00009d60 0000a160 0000cd10 00005290     `...`........R..
     290:	00005230 0000526c 0000ff00 00006666     0R..lR......ff..
     2a0:	000cd080 00005248 0000a560 002aaa00     ....HR..`.....*.
     2b0:	0000aba0 0000aba4 00080000 00007f40     ............@...
     2c0:	00007e38 00005318 00005374 0000abb8     8~...S..tS......
     2d0:	000054ac 000055b8 00005540 000053f8     .T...U..@U...S..
     2e0:	00000a14 0000cf30 0000ce04 00003d44     ....0.......D=..
     2f0:	000005b8 00005d20 00005ccc 00005ce0     .... ]...\...\..
     300:	0000ce10 00004ebc 000070c4 00005cf4     .....N...p...\..
     310:	0000e79c 00003d74 0000cf14 00005d74     ....t=......t]..
     320:	0000adbc 0000adb0 0000abd0 0000adcc     ................
     330:	0000ae0c 0000ae50 0000add0 007fffff     ....P...........
     340:	00011111 00000a78 00004d10 0000ce08     ....x....M......
     350:	000064f0 00005f74 00006cdc 00006284     .d..t_...l...b..
     360:	000060d0 00005ff0 00006150 000062e8     .`..._..Pa...b..
     370:	00005630 000058d0 00006304 000061fc     0V...X...c...a..
     380:	00006060 000063c0 00005b94 00005c1c     ``...c...[...\..
     390:	00005bd8 00005c60 00003fd8 7fff0000     .[..`\...?......
     3a0:	0000cf12 0000644c 000063e0 00006114     ....Ld...c...a..
     3b0:	000072f4 0000ceb8 00007078 00007f80     .r......xp......
     3c0:	00000918 00006e84 00006e48 00006e74     .....n..Hn..tn..
     3d0:	0000b190 0000cdf0 0000cef0 b8000000     ................
     3e0:	40000000 0000098c 0000bc88 00006e94     ...@.........n..
     3f0:	0000ceec 000070d4 0000cef4 0000741c     .....p.......t..
     400:	000075d8 00007708 00007858 00007968     .u...w..Xx..hy..
     410:	00007a1c 00007c78 0000b3b0 00007128     .z..x|......(q..
     420:	00007340 0000a724 0000a728 0000af30     @s..$...(...0...
     430:	0000af60 0000ac1c 0000ac18 00007398     `............s..
     440:	000e38e4 0000af10 0000af50 00124925     .8......P...%I..
     450:	000073f4 00007a00 0000a722 0000ac10     .s...z..".......
     460:	80000001 00005a82 00008164 0000a61c     .....Z..d.......
     470:	00007fd8 00007f60 00008190 00008374     ....`.......t...
     480:	000083a0 000083d0 00008428 000083fc     ........(.......
     490:	0000a620 00008470 0000849c 000086e8      ...p...........
     4a0:	00008650 0000a934 0000ab30 000004c8     P...4...0.......

000004b0 <_init>:
     4b0:	008136        	entry	a1, 64
     4b3:	fed381        	l32r	a8, 0 (504 <frame_dummy>)
     4b6:	f03d           	nop.n
     4b8:	0008e0        	callx8	a8
     4bb:	fed281        	l32r	a8, 4 (8800 <__do_global_ctors_aux>)
     4be:	f03d           	nop.n
     4c0:	0008e0        	callx8	a8
     4c3:	f01d           	retw.n

000004c5 <_init+0x15>:
     4c5:	000000                                        ...

000004c8 <__do_global_dtors_aux>:
     4c8:	004136        	entry	a1, 32
     4cb:	fecf31        	l32r	a3, 8 (e770 <__bss_start>)
     4ce:	000382        	l8ui	a8, a3, 0
     4d1:	d8ec           	bnez.n	a8, 502 <__do_global_dtors_aux+0x3a>
     4d3:	fece21        	l32r	a2, c (ab44 <p$3519_6_1>)
     4d6:	02b8           	l32i.n	a11, a2, 0
     4d8:	0ba8           	l32i.n	a10, a11, 0
     4da:	ca8c           	beqz.n	a10, 4ea <__do_global_dtors_aux+0x22>

000004dc <__do_global_dtors_aux+0x14>:
     4dc:	9b4b           	addi.n	a9, a11, 4
     4de:	0299           	s32i.n	a9, a2, 0
     4e0:	000ae0        	callx8	a10
     4e3:	02b8           	l32i.n	a11, a2, 0
     4e5:	0ba8           	l32i.n	a10, a11, 0
     4e7:	ff1a56        	bnez	a10, 4dc <__do_global_dtors_aux+0x14>

000004ea <__do_global_dtors_aux+0x22>:
     4ea:	fec9a1        	l32r	a10, 10 (0 <_text_start>)
     4ed:	0b0c           	movi.n	a11, 0
     4ef:	081ab7        	beq	a10, a11, 4fb <__do_global_dtors_aux+0x33>
     4f2:	fec8a1        	l32r	a10, 14 (ab2c <__EH_FRAME_BEGIN___44>)
     4f5:	fec681        	l32r	a8, 10 (0 <_text_start>)
     4f8:	0008e0        	callx8	a8

000004fb <__do_global_dtors_aux+0x33>:
     4fb:	1c0c           	movi.n	a12, 1
     4fd:	0043c2        	s8i	a12, a3, 0
     500:	f01d           	retw.n

00000502 <__do_global_dtors_aux+0x3a>:
     502:	f01d           	retw.n

00000504 <frame_dummy>:
     504:	004136        	entry	a1, 32
     507:	fec481        	l32r	a8, 18 (0 <_text_start>)
     50a:	090c           	movi.n	a9, 0
     50c:	0b1897        	beq	a8, a9, 51b <frame_dummy+0x17>
     50f:	fec1a1        	l32r	a10, 14 (ab2c <__EH_FRAME_BEGIN___44>)
     512:	fec2b1        	l32r	a11, 1c (e774 <object$3538_8_1>)
     515:	fec081        	l32r	a8, 18 (0 <_text_start>)
     518:	0008e0        	callx8	a8

0000051b <frame_dummy+0x17>:
     51b:	f01d           	retw.n

0000051d <frame_dummy+0x19>:
     51d:	000000                                        ...

00000520 <share_tmp_buffer>:
     520:	004136        	entry	a1, 32
     523:	febf41        	l32r	a4, 20 (cd0c <bc45+0xc>)
     526:	fec031        	l32r	a3, 28 (8e28 <_DYNAMIC+0x560>)
     529:	76d282        	addmi	a8, a2, 0x7600
     52c:	febe51        	l32r	a5, 24 (8628 <real_split+0x18c>)
     52f:	28c882        	addi	a8, a8, 40
     532:	323a           	add.n	a3, a2, a3
     534:	525a           	add.n	a5, a2, a5
     536:	424a           	add.n	a4, a2, a4
     538:	806432        	s32i	a3, a4, 0x200
     53b:	7f6452        	s32i	a5, a4, 0x1fc
     53e:	7e6482        	s32i	a8, a4, 0x1f8
     541:	f01d           	retw.n

00000543 <share_tmp_buffer+0x23>:
	...

00000544 <common_ECNR_PARA_init_v2>:
     544:	004136        	entry	a1, 32
     547:	a28b           	addi.n	a10, a2, 8
     549:	feb881        	l32r	a8, 2c (8838 <xt_memcpy>)
     54c:	b32b           	addi.n	a11, a3, 2
     54e:	79a0c2        	movi	a12, 121
     551:	0008e0        	callx8	a8
     554:	5c0c           	movi.n	a12, 5
     556:	01d3b2        	addmi	a11, a3, 0x100
     559:	01d2a2        	addmi	a10, a2, 0x100
     55c:	feb481        	l32r	a8, 2c (8838 <xt_memcpy>)
     55f:	fccaa2        	addi	a10, a10, -4
     562:	f4cbb2        	addi	a11, a11, -12
     565:	0008e0        	callx8	a8
     568:	60a0c2        	movi	a12, 96
     56b:	01d3b2        	addmi	a11, a3, 0x100
     56e:	01d2a2        	addmi	a10, a2, 0x100
     571:	feae81        	l32r	a8, 2c (8838 <xt_memcpy>)
     574:	aa8b           	addi.n	a10, a10, 8
     576:	fecbb2        	addi	a11, a11, -2
     579:	0008e0        	callx8	a8
     57c:	7c0c           	movi.n	a12, 7
     57e:	03d3b2        	addmi	a11, a3, 0x300
     581:	02d2a2        	addmi	a10, a2, 0x200
     584:	feaa81        	l32r	a8, 2c (8838 <xt_memcpy>)
     587:	c8caa2        	addi	a10, a10, -56
     58a:	f4cbb2        	addi	a11, a11, -12
     58d:	0008e0        	callx8	a8
     590:	dc0c           	movi.n	a12, 13
     592:	02d2a2        	addmi	a10, a2, 0x200
     595:	03d3b2        	addmi	a11, a3, 0x300
     598:	fea581        	l32r	a8, 2c (8838 <xt_memcpy>)
     59b:	18cbb2        	addi	a11, a11, 24
     59e:	d6caa2        	addi	a10, a10, -42
     5a1:	0008e0        	callx8	a8
     5a4:	fea391        	l32r	a9, 30 (e798 <p_ecnr_mem>)
     5a7:	0998           	l32i.n	a9, a9, 0
     5a9:	50d992        	addmi	a9, a9, 0x5000
     5ac:	7fd992        	addmi	a9, a9, 0x7f00
     5af:	1998           	l32i.n	a9, a9, 4
     5b1:	0299           	s32i.n	a9, a2, 0
     5b3:	f01d           	retw.n

000005b5 <common_ECNR_PARA_init_v2+0x71>:
     5b5:	000000                                        ...

000005b8 <TX_ECNR_PARA_init>:
     5b8:	006136        	entry	a1, 48
     5bb:	0129           	s32i.n	a2, a1, 0
     5bd:	fe9c21        	l32r	a2, 30 (e798 <p_ecnr_mem>)
     5c0:	fe9d81        	l32r	a8, 34 (520 <share_tmp_buffer>)
     5c3:	02a8           	l32i.n	a10, a2, 0
     5c5:	0008e0        	callx8	a8
     5c8:	03bd           	mov.n	a11, a3
     5ca:	fe9bc1        	l32r	a12, 38 (ce00 <ABS_THR45+0x40>)
     5cd:	02a8           	l32i.n	a10, a2, 0
     5cf:	fe9c81        	l32r	a8, 40 (544 <common_ECNR_PARA_init_v2>)
     5d2:	fe9a71        	l32r	a7, 3c (e78c <aec_nr_para>)
     5d5:	aaca           	add.n	a10, a10, a12
     5d7:	412aa2        	l32i	a10, a10, 0x104
     5da:	07a9           	s32i.n	a10, a7, 0
     5dc:	0008e0        	callx8	a8
     5df:	02e8           	l32i.n	a14, a2, 0
     5e1:	07c8           	l32i.n	a12, a7, 0
     5e3:	b42b           	addi.n	a11, a4, 2
     5e5:	02dee2        	addmi	a14, a14, 0x200
     5e8:	041cd2        	l16ui	a13, a12, 8
     5eb:	405ed2        	s16i	a13, a14, 128
     5ee:	01d8           	l32i.n	a13, a1, 0
     5f0:	02dca2        	addmi	a10, a12, 0x200
     5f3:	f0caa2        	addi	a10, a10, -16
     5f6:	4dac           	beqz.n	a13, 61e <TX_ECNR_PARA_init+0x66>
     5f8:	821c92        	l16ui	a9, a12, 0x104
     5fb:	fe8c81        	l32r	a8, 2c (8838 <xt_memcpy>)
     5fe:	025c92        	s16i	a9, a12, 4
     601:	80a0c2        	movi	a12, 128
     604:	0008e0        	callx8	a8
     607:	07c8           	l32i.n	a12, a7, 0
     609:	fe8ea1        	l32r	a10, 44 (1000 <inv_mel_filter+0x4>)
     60c:	80a0b2        	movi	a11, 128
     60f:	03dc92        	addmi	a9, a12, 0x300
     612:	f0c992        	addi	a9, a9, -16
     615:	02ab76        	loopgtz	a11, 61b <TX_ECNR_PARA_init+0x63>
     618:	09c9a4        	ae_s16ip	a10, a9, 2

0000061b <TX_ECNR_PARA_init+0x63>:
     61b:	000406        	j	62f <TX_ECNR_PARA_init+0x77>

0000061e <TX_ECNR_PARA_init+0x66>:
     61e:	811c92        	l16ui	a9, a12, 0x102
     621:	fe8281        	l32r	a8, 2c (8838 <xt_memcpy>)
     624:	025c92        	s16i	a9, a12, 4
     627:	00a1c2        	movi	a12, 0x100
     62a:	0008e0        	callx8	a8
     62d:	07c8           	l32i.n	a12, a7, 0

0000062f <TX_ECNR_PARA_init+0x77>:
     62f:	fe8241        	l32r	a4, 38 (ce00 <ABS_THR45+0x40>)
     632:	fe7e81        	l32r	a8, 2c (8838 <xt_memcpy>)
     635:	02a8           	l32i.n	a10, a2, 0
     637:	02dcb2        	addmi	a11, a12, 0x200
     63a:	bacbb2        	addi	a11, a11, -70
     63d:	4c0c           	movi.n	a12, 4
     63f:	02daa2        	addmi	a10, a10, 0x200
     642:	70caa2        	addi	a10, a10, 112
     645:	0008e0        	callx8	a8
     648:	b52b           	addi.n	a11, a5, 2
     64a:	00a1c2        	movi	a12, 0x100
     64d:	07a8           	l32i.n	a10, a7, 0
     64f:	02d8           	l32i.n	a13, a2, 0
     651:	fe7681        	l32r	a8, 2c (8838 <xt_memcpy>)
     654:	db1a92        	l16ui	a9, a10, 0x1b6
     657:	dd4a           	add.n	a13, a13, a4
     659:	04daa2        	addmi	a10, a10, 0x400
     65c:	70caa2        	addi	a10, a10, 112
     65f:	7f5d92        	s16i	a9, a13, 254
     662:	0008e0        	callx8	a8
     665:	b62b           	addi.n	a11, a6, 2
     667:	07a8           	l32i.n	a10, a7, 0
     669:	0c4c           	movi.n	a12, 64
     66b:	fe7081        	l32r	a8, 2c (8838 <xt_memcpy>)
     66e:	04daa2        	addmi	a10, a10, 0x400
     671:	f0caa2        	addi	a10, a10, -16
     674:	0008e0        	callx8	a8
     677:	4c0c           	movi.n	a12, 4
     679:	fe6c81        	l32r	a8, 2c (8838 <xt_memcpy>)
     67c:	07a8           	l32i.n	a10, a7, 0
     67e:	02d3b2        	addmi	a11, a3, 0x200
     681:	becbb2        	addi	a11, a11, -66
     684:	06daa2        	addmi	a10, a10, 0x600
     687:	70caa2        	addi	a10, a10, 112
     68a:	0008e0        	callx8	a8
     68d:	4c0c           	movi.n	a12, 4
     68f:	fe6781        	l32r	a8, 2c (8838 <xt_memcpy>)
     692:	07a8           	l32i.n	a10, a7, 0
     694:	02d3b2        	addmi	a11, a3, 0x200
     697:	c6cbb2        	addi	a11, a11, -58
     69a:	06daa2        	addmi	a10, a10, 0x600
     69d:	7ccaa2        	addi	a10, a10, 124
     6a0:	0008e0        	callx8	a8
     6a3:	4c1c           	movi.n	a12, 20
     6a5:	fe6181        	l32r	a8, 2c (8838 <xt_memcpy>)
     6a8:	07a8           	l32i.n	a10, a7, 0
     6aa:	02d3b2        	addmi	a11, a3, 0x200
     6ad:	cecbb2        	addi	a11, a11, -50
     6b0:	07daa2        	addmi	a10, a10, 0x700
     6b3:	88caa2        	addi	a10, a10, -120
     6b6:	0008e0        	callx8	a8
     6b9:	02d3b2        	addmi	a11, a3, 0x200
     6bc:	200b22        	l8ui	a2, a11, 32
     6bf:	900be2        	l8ui	a14, a11, 144
     6c2:	020b52        	l8ui	a5, a11, 2
     6c5:	000ba2        	l8ui	a10, a11, 0
     6c8:	080b92        	l8ui	a9, a11, 8
     6cb:	090b62        	l8ui	a6, a11, 9
     6ce:	010b82        	l8ui	a8, a11, 1
     6d1:	210bf2        	l8ui	a15, a11, 33
     6d4:	910bc2        	l8ui	a12, a11, 145
     6d7:	030b42        	l8ui	a4, a11, 3
     6da:	11ff80        	slli	a15, a15, 8
     6dd:	11cc80        	slli	a12, a12, 8
     6e0:	114480        	slli	a4, a4, 8
     6e3:	118880        	slli	a8, a8, 8
     6e6:	116680        	slli	a6, a6, 8
     6e9:	206690        	or	a6, a6, a9
     6ec:	2088a0        	or	a8, a8, a10
     6ef:	204450        	or	a4, a4, a5
     6f2:	20cce0        	or	a12, a12, a14
     6f5:	20ff20        	or	a15, a15, a2
     6f8:	8e0be2        	l8ui	a14, a11, 142
     6fb:	a4cb22        	addi	a2, a11, -92
     6fe:	11cc80        	slli	a12, a12, 8
     701:	8ffd           	ae_sext16	a15, a15
     703:	844d           	ae_sext16	a4, a4
     705:	07a8           	l32i.n	a10, a7, 0
     707:	888d           	ae_sext16	a8, a8
     709:	866d           	ae_sext16	a6, a6
     70b:	06dad2        	addmi	a13, a10, 0x600
     70e:	3d5d62        	s16i	a6, a13, 122
     711:	3c5d82        	s16i	a8, a13, 120
     714:	425d42        	s16i	a4, a13, 132
     717:	435df2        	s16i	a15, a13, 134
     71a:	07daa2        	addmi	a10, a10, 0x700
     71d:	b8caa2        	addi	a10, a10, -72
     720:	8f0bf2        	l8ui	a15, a11, 143
     723:	08a642        	movi	a4, 0x608
     726:	fe4181        	l32r	a8, 2c (8838 <xt_memcpy>)
     729:	20ccf0        	or	a12, a12, a15
     72c:	f6cbb2        	addi	a11, a11, -10
     72f:	11cc80        	slli	a12, a12, 8
     732:	20cce0        	or	a12, a12, a14
     735:	2c6dc2        	s32i	a12, a13, 176
     738:	5c0c           	movi.n	a12, 5
     73a:	0008e0        	callx8	a8
     73d:	1c3c           	movi.n	a12, 49
     73f:	fe3b81        	l32r	a8, 2c (8838 <xt_memcpy>)
     742:	07a8           	l32i.n	a10, a7, 0
     744:	02d3b2        	addmi	a11, a3, 0x200
     747:	bb4b           	addi.n	a11, a11, 4
     749:	07daa2        	addmi	a10, a10, 0x700
     74c:	c2caa2        	addi	a10, a10, -62
     74f:	0008e0        	callx8	a8
     752:	c402d2        	l8ui	a13, a2, 196
     755:	01d292        	addmi	a9, a2, 0x100
     758:	4909c2        	l8ui	a12, a9, 73
     75b:	4a09a2        	l8ui	a10, a9, 74
     75e:	6209b2        	l8ui	a11, a9, 98
     761:	3709f2        	l8ui	a15, a9, 55
     764:	4b0982        	l8ui	a8, a9, 75
     767:	6309e2        	l8ui	a14, a9, 99
     76a:	11ff80        	slli	a15, a15, 8
     76d:	118880        	slli	a8, a8, 8
     770:	11ee80        	slli	a14, a14, 8
     773:	20eeb0        	or	a14, a14, a11
     776:	2088a0        	or	a8, a8, a10
     779:	6109b2        	l8ui	a11, a9, 97
     77c:	11ee80        	slli	a14, a14, 8
     77f:	3609a2        	l8ui	a10, a9, 54
     782:	118880        	slli	a8, a8, 8
     785:	2088c0        	or	a8, a8, a12
     788:	118880        	slli	a8, a8, 8
     78b:	20ffa0        	or	a15, a15, a10
     78e:	3509a2        	l8ui	a10, a9, 53
     791:	20eeb0        	or	a14, a14, a11
     794:	11ff80        	slli	a15, a15, 8
     797:	6009b2        	l8ui	a11, a9, 96
     79a:	11ee80        	slli	a14, a14, 8
     79d:	20ffa0        	or	a15, a15, a10
     7a0:	3409a2        	l8ui	a10, a9, 52
     7a3:	20eeb0        	or	a14, a14, a11
     7a6:	480992        	l8ui	a9, a9, 72
     7a9:	11ff80        	slli	a15, a15, 8
     7ac:	c502b2        	l8ui	a11, a2, 197
     7af:	208890        	or	a8, a8, a9
     7b2:	20ffa0        	or	a15, a15, a10
     7b5:	11bb80        	slli	a11, a11, 8
     7b8:	20bbd0        	or	a11, a11, a13
     7bb:	07a8           	l32i.n	a10, a7, 0
     7bd:	c202d2        	l8ui	a13, a2, 194
     7c0:	11bb80        	slli	a11, a11, 8
     7c3:	ca4a           	add.n	a12, a10, a4
     7c5:	496cf2        	s32i	a15, a12, 0x124
     7c8:	476c82        	s32i	a8, a12, 0x11c
     7cb:	2b6ce2        	s32i	a14, a12, 172
     7ce:	07daa2        	addmi	a10, a10, 0x700
     7d1:	c302e2        	l8ui	a14, a2, 195
     7d4:	30caa2        	addi	a10, a10, 48
     7d7:	fe1581        	l32r	a8, 2c (8838 <xt_memcpy>)
     7da:	20bbe0        	or	a11, a11, a14
     7dd:	11bb80        	slli	a11, a11, 8
     7e0:	20bbd0        	or	a11, a11, a13
     7e3:	486cb2        	s32i	a11, a12, 0x120
     7e6:	6c0c           	movi.n	a12, 6
     7e8:	02d3b2        	addmi	a11, a3, 0x200
     7eb:	6acbb2        	addi	a11, a11, 106
     7ee:	0008e0        	callx8	a8
     7f1:	d402d2        	l8ui	a13, a2, 212
     7f4:	d502b2        	l8ui	a11, a2, 213
     7f7:	07a8           	l32i.n	a10, a7, 0
     7f9:	01d252        	addmi	a5, a2, 0x100
     7fc:	4e0582        	l8ui	a8, a5, 78
     7ff:	3a0562        	l8ui	a6, a5, 58
     802:	3b05e2        	l8ui	a14, a5, 59
     805:	4f05f2        	l8ui	a15, a5, 79
     808:	ca4a           	add.n	a12, a10, a4
     80a:	11bb80        	slli	a11, a11, 8
     80d:	11ff80        	slli	a15, a15, 8
     810:	11ee80        	slli	a14, a14, 8
     813:	20bbd0        	or	a11, a11, a13
     816:	07daa2        	addmi	a10, a10, 0x700
     819:	48caa2        	addi	a10, a10, 72
     81c:	d202d2        	l8ui	a13, a2, 210
     81f:	11bb80        	slli	a11, a11, 8
     822:	20ee60        	or	a14, a14, a6
     825:	20ff80        	or	a15, a15, a8
     828:	4d0562        	l8ui	a6, a5, 77
     82b:	390582        	l8ui	a8, a5, 57
     82e:	11ff80        	slli	a15, a15, 8
     831:	11ee80        	slli	a14, a14, 8
     834:	20ee80        	or	a14, a14, a8
     837:	20ff60        	or	a15, a15, a6
     83a:	fdfc81        	l32r	a8, 2c (8838 <xt_memcpy>)
     83d:	11ff80        	slli	a15, a15, 8
     840:	380562        	l8ui	a6, a5, 56
     843:	11ee80        	slli	a14, a14, 8
     846:	4c0552        	l8ui	a5, a5, 76
     849:	20ee60        	or	a14, a14, a6
     84c:	4f6ce2        	s32i	a14, a12, 0x13c
     84f:	d302e2        	l8ui	a14, a2, 211
     852:	20ff50        	or	a15, a15, a5
     855:	4d6cf2        	s32i	a15, a12, 0x134
     858:	20bbe0        	or	a11, a11, a14
     85b:	11bb80        	slli	a11, a11, 8
     85e:	20bbd0        	or	a11, a11, a13
     861:	4e6cb2        	s32i	a11, a12, 0x138
     864:	2c0c           	movi.n	a12, 2
     866:	02d3b2        	addmi	a11, a3, 0x200
     869:	7acbb2        	addi	a11, a11, 122
     86c:	0008e0        	callx8	a8
     86f:	2c0c           	movi.n	a12, 2
     871:	fdee81        	l32r	a8, 2c (8838 <xt_memcpy>)
     874:	07a8           	l32i.n	a10, a7, 0
     876:	03d3b2        	addmi	a11, a3, 0x300
     879:	8acbb2        	addi	a11, a11, -118
     87c:	07daa2        	addmi	a10, a10, 0x700
     87f:	4ccaa2        	addi	a10, a10, 76
     882:	0008e0        	callx8	a8
     885:	4c0c           	movi.n	a12, 4
     887:	fde981        	l32r	a8, 2c (8838 <xt_memcpy>)
     88a:	07a8           	l32i.n	a10, a7, 0
     88c:	03d3b2        	addmi	a11, a3, 0x300
     88f:	e4cbb2        	addi	a11, a11, -28
     892:	07daa2        	addmi	a10, a10, 0x700
     895:	50caa2        	addi	a10, a10, 80
     898:	0008e0        	callx8	a8
     89b:	9c0c           	movi.n	a12, 9
     89d:	fde381        	l32r	a8, 2c (8838 <xt_memcpy>)
     8a0:	07a8           	l32i.n	a10, a7, 0
     8a2:	03d3b2        	addmi	a11, a3, 0x300
     8a5:	92cbb2        	addi	a11, a11, -110
     8a8:	07daa2        	addmi	a10, a10, 0x700
     8ab:	58caa2        	addi	a10, a10, 88
     8ae:	0008e0        	callx8	a8
     8b1:	2c0c           	movi.n	a12, 2
     8b3:	fdde81        	l32r	a8, 2c (8838 <xt_memcpy>)
     8b6:	e402e2        	l8ui	a14, a2, 228
     8b9:	e50292        	l8ui	a9, a2, 229
     8bc:	07a8           	l32i.n	a10, a7, 0
     8be:	03d3b2        	addmi	a11, a3, 0x300
     8c1:	e0cbb2        	addi	a11, a11, -32
     8c4:	da4a           	add.n	a13, a10, a4
     8c6:	119980        	slli	a9, a9, 8
     8c9:	2099e0        	or	a9, a9, a14
     8cc:	07daa2        	addmi	a10, a10, 0x700
     8cf:	6ccaa2        	addi	a10, a10, 108
     8d2:	899d           	ae_sext16	a9, a9
     8d4:	b15d92        	s16i	a9, a13, 0x162
     8d7:	0008e0        	callx8	a8
     8da:	2c0c           	movi.n	a12, 2
     8dc:	fdd481        	l32r	a8, 2c (8838 <xt_memcpy>)
     8df:	07a8           	l32i.n	a10, a7, 0
     8e1:	03d3b2        	addmi	a11, a3, 0x300
     8e4:	bb8b           	addi.n	a11, a11, 8
     8e6:	07daa2        	addmi	a10, a10, 0x700
     8e9:	70caa2        	addi	a10, a10, 112
     8ec:	0008e0        	callx8	a8
     8ef:	6c0c           	movi.n	a12, 6
     8f1:	fdce81        	l32r	a8, 2c (8838 <xt_memcpy>)
     8f4:	07a8           	l32i.n	a10, a7, 0
     8f6:	03d3b2        	addmi	a11, a3, 0x300
     8f9:	bbcb           	addi.n	a11, a11, 12
     8fb:	07daa2        	addmi	a10, a10, 0x700
     8fe:	74caa2        	addi	a10, a10, 116
     901:	0008e0        	callx8	a8
     904:	6c0c           	movi.n	a12, 6
     906:	fdc981        	l32r	a8, 2c (8838 <xt_memcpy>)
     909:	07a8           	l32i.n	a10, a7, 0
     90b:	03d3b2        	addmi	a11, a3, 0x300
     90e:	34cbb2        	addi	a11, a11, 52
     911:	08daa2        	addmi	a10, a10, 0x800
     914:	80caa2        	addi	a10, a10, -128
     917:	0008e0        	callx8	a8
     91a:	fdc481        	l32r	a8, 2c (8838 <xt_memcpy>)
     91d:	07a8           	l32i.n	a10, a7, 0
     91f:	02d2e2        	addmi	a14, a2, 0x200
     922:	9cced2        	addi	a13, a14, -100
     925:	9ecec2        	addi	a12, a14, -98
     928:	010cb2        	l8ui	a11, a12, 1
     92b:	000df2        	l8ui	a15, a13, 0
     92e:	000cc2        	l8ui	a12, a12, 0
     931:	8ecee2        	addi	a14, a14, -114
     934:	010dd2        	l8ui	a13, a13, 1
     937:	000e52        	l8ui	a5, a14, 0
     93a:	010ee2        	l8ui	a14, a14, 1
     93d:	11bb80        	slli	a11, a11, 8
     940:	11dd80        	slli	a13, a13, 8
     943:	20bbc0        	or	a11, a11, a12
     946:	8bbd           	ae_sext16	a11, a11
     948:	ca4a           	add.n	a12, a10, a4
     94a:	20ddf0        	or	a13, a13, a15
     94d:	11ee80        	slli	a14, a14, 8
     950:	8ddd           	ae_sext16	a13, a13
     952:	08daa2        	addmi	a10, a10, 0x800
     955:	94caa2        	addi	a10, a10, -108
     958:	c35cd2        	s16i	a13, a12, 0x186
     95b:	c45cb2        	s16i	a11, a12, 0x188
     95e:	20ee50        	or	a14, a14, a5
     961:	02d3b2        	addmi	a11, a3, 0x200
     964:	8eed           	ae_sext16	a14, a14
     966:	c25ce2        	s16i	a14, a12, 0x184
     969:	7ecbb2        	addi	a11, a11, 126
     96c:	5c0c           	movi.n	a12, 5
     96e:	0008e0        	callx8	a8
     971:	ac1c           	movi.n	a12, 26
     973:	fdae81        	l32r	a8, 2c (8838 <xt_memcpy>)
     976:	07a8           	l32i.n	a10, a7, 0
     978:	03d3b2        	addmi	a11, a3, 0x300
     97b:	a4cbb2        	addi	a11, a11, -92
     97e:	08daa2        	addmi	a10, a10, 0x800
     981:	a0caa2        	addi	a10, a10, -96
     984:	0008e0        	callx8	a8
     987:	f01d           	retw.n

00000989 <TX_ECNR_PARA_init+0x3d1>:
     989:	000000                                        ...

0000098c <RX_ECNR_PARA_init>:
     98c:	004136        	entry	a1, 32
     98f:	fda861        	l32r	a6, 30 (e798 <p_ecnr_mem>)
     992:	fda881        	l32r	a8, 34 (520 <share_tmp_buffer>)
     995:	06a8           	l32i.n	a10, a6, 0
     997:	0008e0        	callx8	a8
     99a:	fda751        	l32r	a5, 38 (ce00 <ABS_THR45+0x40>)
     99d:	06a8           	l32i.n	a10, a6, 0
     99f:	03bd           	mov.n	a11, a3
     9a1:	fda781        	l32r	a8, 40 (544 <common_ECNR_PARA_init_v2>)
     9a4:	fda631        	l32r	a3, 3c (e78c <aec_nr_para>)
     9a7:	aa5a           	add.n	a10, a10, a5
     9a9:	412aa2        	l32i	a10, a10, 0x104
     9ac:	03a9           	s32i.n	a10, a3, 0
     9ae:	0008e0        	callx8	a8
     9b1:	03a8           	l32i.n	a10, a3, 0
     9b3:	b42b           	addi.n	a11, a4, 2
     9b5:	02daa2        	addmi	a10, a10, 0x200
     9b8:	f0caa2        	addi	a10, a10, -16
     9bb:	f29c           	beqz.n	a2, 9de <RX_ECNR_PARA_init+0x52>
     9bd:	fd9b81        	l32r	a8, 2c (8838 <xt_memcpy>)
     9c0:	80a0c2        	movi	a12, 128
     9c3:	0008e0        	callx8	a8
     9c6:	0023b2        	l32i	a11, a3, 0
     9c9:	fd9ea1        	l32r	a10, 44 (1000 <inv_mel_filter+0x4>)
     9cc:	80a0c2        	movi	a12, 128
     9cf:	03db92        	addmi	a9, a11, 0x300
     9d2:	f0c992        	addi	a9, a9, -16
     9d5:	02ac76        	loopgtz	a12, 9db <RX_ECNR_PARA_init+0x4f>
     9d8:	09c9a4        	ae_s16ip	a10, a9, 2

000009db <RX_ECNR_PARA_init+0x4f>:
     9db:	000286        	j	9e9 <RX_ECNR_PARA_init+0x5d>

000009de <RX_ECNR_PARA_init+0x52>:
     9de:	fd9381        	l32r	a8, 2c (8838 <xt_memcpy>)
     9e1:	00a1c2        	movi	a12, 0x100
     9e4:	0008e0        	callx8	a8
     9e7:	03b8           	l32i.n	a11, a3, 0

000009e9 <RX_ECNR_PARA_init+0x5d>:
     9e9:	06a8           	l32i.n	a10, a6, 0
     9eb:	da1b92        	l16ui	a9, a11, 0x1b4
     9ee:	aa5a           	add.n	a10, a10, a5
     9f0:	990b           	addi.n	a9, a9, -1
     9f2:	7e5a92        	s16i	a9, a10, 252
     9f5:	f01d           	retw.n

000009f7 <RX_ECNR_PARA_init+0x6b>:
	...

000009f8 <EQ_update>:
     9f8:	004136        	entry	a1, 32
     9fb:	03bd           	mov.n	a11, a3
     9fd:	fd8cc1        	l32r	a12, 30 (e798 <p_ecnr_mem>)
     a00:	fd92a1        	l32r	a10, 48 (ca78 <sp_matrix45+0x528>)
     a03:	fd8a81        	l32r	a8, 2c (8838 <xt_memcpy>)
     a06:	0c29           	s32i.n	a2, a12, 0
     a08:	a2aa           	add.n	a10, a2, a10
     a0a:	00a1c2        	movi	a12, 0x100
     a0d:	0008e0        	callx8	a8
     a10:	f01d           	retw.n

00000a12 <EQ_update+0x1a>:
	...

00000a14 <HIFI_sqrt>:
     a14:	006136        	entry	a1, 48
     a17:	035d           	mov.n	a5, a3
     a19:	030c           	movi.n	a3, 0
     a1b:	1139           	s32i.n	a3, a1, 4
     a1d:	0139           	s32i.n	a3, a1, 0
     a1f:	0715e6        	bgei	a5, 1, a2a <HIFI_sqrt+0x16>
     a22:	0139           	s32i.n	a3, a1, 0

00000a24 <HIFI_sqrt+0x10>:
     a24:	1139           	s32i.n	a3, a1, 4
     a26:	0128           	l32i.n	a2, a1, 0
     a28:	f01d           	retw.n

00000a2a <HIFI_sqrt+0x16>:
     a2a:	fd8881        	l32r	a8, 4c (ac30 <TABLE_SQRT>)
     a2d:	40e5a0        	nsa	a10, a5
     a30:	c042a0        	sub	a4, a2, a10
     a33:	401a00        	ssl	a10
     a36:	a19500        	sll	a9, a5
     a39:	046040        	extui	a6, a4, 0, 1
     a3c:	400600        	ssr	a6
     a3f:	b19090        	sra	a9, a9
     a42:	419990        	srli	a9, a9, 9
     a45:	317090        	srai	a7, a9, 16
     a48:	300994        	ae_cvtp24a16x2.ll	aep0, a9, a9
     a4b:	f0c772        	addi	a7, a7, -16
     a4e:	537730        	max	a7, a7, a3
     a51:	907780        	addx2	a7, a7, a8
     a54:	278d           	ae_l16si.n	a8, a7, 0
     a56:	377d           	ae_l16si.n	a7, a7, 2
     a58:	346a           	add.n	a3, a4, a6
     a5a:	213130        	srai	a3, a3, 1
     a5d:	c07780        	sub	a7, a7, a8
     a60:	118800        	slli	a8, a8, 16
     a63:	117700        	slli	a7, a7, 16
     a66:	364734        	ae_cvtq48a32s	aeq1, a7
     a69:	360834        	ae_cvtq48a32s	aeq0, a8
     a6c:	030174        	ae_mulaq32sp16u.l	aeq0, aeq1, aep0
     a6f:	0139           	s32i.n	a3, a1, 0
     a71:	368304        	ae_trunca32q48	a3, aeq0
     a74:	ffeb06        	j	a24 <HIFI_sqrt+0x10>

00000a77 <HIFI_sqrt+0x63>:
	...

00000a78 <Log2_norm>:
     a78:	004136        	entry	a1, 32
     a7b:	3212a6        	blti	a2, 1, ab1 <Log2_norm+0x39>
     a7e:	046c           	movi.n	a4, -32
     a80:	2da437        	bge	a4, a3, ab1 <Log2_norm+0x39>
     a83:	052c           	movi.n	a5, 32
     a85:	04a537        	bge	a5, a3, a8d <Log2_norm+0x15>
     a88:	fd7221        	l32r	a2, 50 (7fffffff <_end+0x7fff185f>)
     a8b:	f01d           	retw.n

00000a8d <Log2_norm+0x15>:
     a8d:	fd7141        	l32r	a4, 54 (aca0 <TABLE_LOG2_1530>)
     a90:	558820        	extui	a8, a2, 24, 6
     a93:	1188e0        	slli	a8, a8, 2
     a96:	603484        	ae_lq32f.xu	aeq0, a4, a8
     a99:	604414        	ae_lq32f.i	aeq1, a4, 4
     a9c:	f92ae2022f 	{ ae_movpa24x2	aep0, a2, a2; ae_subq56	aeq1, aeq1, aeq0 }
     aa1:	030174        	ae_mulaq32sp16u.l	aeq0, aeq1, aep0
     aa4:	368204        	ae_trunca32q48	a2, aeq0
     aa7:	014360        	slli	a4, a3, 26
     aaa:	212520        	srai	a2, a2, 5
     aad:	224a           	add.n	a2, a2, a4
     aaf:	f01d           	retw.n

00000ab1 <Log2_norm+0x39>:
     ab1:	fd6921        	l32r	a2, 58 (80000000 <_end+0x7fff1860>)
     ab4:	f01d           	retw.n

00000ab6 <Log2_norm+0x3e>:
	...

00000ab8 <_saturate16>:
     ab8:	004136        	entry	a1, 32
     abb:	fd6851        	l32r	a5, 5c (7fff <xtensa_fft8_32b+0x27>)
     abe:	fd6831        	l32r	a3, 60 (ffff7fff <_end+0xfffe985f>)
     ac1:	03a527        	bge	a5, a2, ac8 <_saturate16+0x10>
     ac4:	052d           	mov.n	a2, a5
     ac6:	f01d           	retw.n

00000ac8 <_saturate16+0x10>:
     ac8:	042327        	blt	a3, a2, ad0 <_saturate16+0x18>
     acb:	fd6621        	l32r	a2, 64 (ffff8000 <_end+0xfffe9860>)
     ace:	f01d           	retw.n

00000ad0 <_saturate16+0x18>:
     ad0:	822d           	ae_sext16	a2, a2
     ad2:	f01d           	retw.n

00000ad4 <HIFI_sqrt_ie>:
     ad4:	006136        	entry	a1, 48
     ad7:	035d           	mov.n	a5, a3
     ad9:	030c           	movi.n	a3, 0
     adb:	1139           	s32i.n	a3, a1, 4
     add:	0139           	s32i.n	a3, a1, 0
     adf:	0715e6        	bgei	a5, 1, aea <HIFI_sqrt_ie+0x16>
     ae2:	0139           	s32i.n	a3, a1, 0

00000ae4 <HIFI_sqrt_ie+0x10>:
     ae4:	1139           	s32i.n	a3, a1, 4
     ae6:	0128           	l32i.n	a2, a1, 0
     ae8:	f01d           	retw.n

00000aea <HIFI_sqrt_ie+0x16>:
     aea:	fd5f81        	l32r	a8, 68 (96d0 <TABLE_IE_43>)
     aed:	40e5a0        	nsa	a10, a5
     af0:	c042a0        	sub	a4, a2, a10
     af3:	401a00        	ssl	a10
     af6:	a19500        	sll	a9, a5
     af9:	046040        	extui	a6, a4, 0, 1
     afc:	400600        	ssr	a6
     aff:	b19090        	sra	a9, a9
     b02:	419990        	srli	a9, a9, 9
     b05:	317090        	srai	a7, a9, 16
     b08:	300994        	ae_cvtp24a16x2.ll	aep0, a9, a9
     b0b:	f0c772        	addi	a7, a7, -16
     b0e:	537730        	max	a7, a7, a3
     b11:	907780        	addx2	a7, a7, a8
     b14:	278d           	ae_l16si.n	a8, a7, 0
     b16:	377d           	ae_l16si.n	a7, a7, 2
     b18:	346a           	add.n	a3, a4, a6
     b1a:	213130        	srai	a3, a3, 1
     b1d:	c07780        	sub	a7, a7, a8
     b20:	118800        	slli	a8, a8, 16
     b23:	117700        	slli	a7, a7, 16
     b26:	364734        	ae_cvtq48a32s	aeq1, a7
     b29:	360834        	ae_cvtq48a32s	aeq0, a8
     b2c:	030174        	ae_mulaq32sp16u.l	aeq0, aeq1, aep0
     b2f:	0139           	s32i.n	a3, a1, 0
     b31:	368304        	ae_trunca32q48	a3, aeq0
     b34:	ffeb06        	j	ae4 <HIFI_sqrt_ie+0x10>

00000b37 <HIFI_sqrt_ie+0x63>:
	...

00000b38 <fxexp>:
     b38:	006136        	entry	a1, 48
     b3b:	fd4c41        	l32r	a4, 6c (9740 <K_VAL_45>)
     b3e:	fd4431        	l32r	a3, 50 (7fffffff <_end+0x7fff185f>)
     b41:	364234        	ae_cvtq48a32s	aeq1, a2
     b44:	fc24bd540f 	{ ae_lq32f.iu	aeq2, a4, 0; ae_zeroq56	aeq0 }
     b49:	019ac4        	ae_addq56	aeq2, aeq1, aeq2
     b4c:	068a44        	ae_satq48s	aeq2, aeq2
     b4f:	098604        	ae_leq56s	b0, aeq2, aeq0
     b52:	36c334        	ae_cvtq48a32s	aeq3, a3
     b55:	601414        	ae_lq32f.iu	aeq0, a4, 4
     b58:	040076        	bf	b0, b60 <fxexp+0x28>
     b5b:	fd147b33cf 	{ ae_sraiq56	aeq3, aeq3, 12; ae_movq56	aeq1, aeq2 }

00000b60 <fxexp+0x28>:
     b60:	0198c4        	ae_addq56	aeq2, aeq1, aeq0
     b63:	0a1084        	ae_zeroq56	aeq0
     b66:	068a44        	ae_satq48s	aeq2, aeq2
     b69:	098614        	ae_leq56s	b1, aeq2, aeq0
     b6c:	601414        	ae_lq32f.iu	aeq0, a4, 4
     b6f:	040176        	bf	b1, b77 <fxexp+0x3f>
     b72:	fd147b32cf 	{ ae_sraiq56	aeq3, aeq3, 8; ae_movq56	aeq1, aeq2 }

00000b77 <fxexp+0x3f>:
     b77:	0198c4        	ae_addq56	aeq2, aeq1, aeq0
     b7a:	0a1084        	ae_zeroq56	aeq0
     b7d:	068a44        	ae_satq48s	aeq2, aeq2
     b80:	098624        	ae_leq56s	b2, aeq2, aeq0
     b83:	601414        	ae_lq32f.iu	aeq0, a4, 4
     b86:	040276        	bf	b2, b8e <fxexp+0x56>
     b89:	fd147b31cf 	{ ae_sraiq56	aeq3, aeq3, 4; ae_movq56	aeq1, aeq2 }

00000b8e <fxexp+0x56>:
     b8e:	0198c4        	ae_addq56	aeq2, aeq1, aeq0
     b91:	0a1084        	ae_zeroq56	aeq0
     b94:	068a44        	ae_satq48s	aeq2, aeq2
     b97:	098634        	ae_leq56s	b3, aeq2, aeq0
     b9a:	601414        	ae_lq32f.iu	aeq0, a4, 4
     b9d:	040376        	bf	b3, ba5 <fxexp+0x6d>
     ba0:	fd147b30ef 	{ ae_sraiq56	aeq3, aeq3, 2; ae_movq56	aeq1, aeq2 }

00000ba5 <fxexp+0x6d>:
     ba5:	0198c4        	ae_addq56	aeq2, aeq1, aeq0
     ba8:	0a1084        	ae_zeroq56	aeq0
     bab:	068a44        	ae_satq48s	aeq2, aeq2
     bae:	098644        	ae_leq56s	b4, aeq2, aeq0
     bb1:	601414        	ae_lq32f.iu	aeq0, a4, 4
     bb4:	040476        	bf	b4, bbc <fxexp+0x84>
     bb7:	fd147b30df 	{ ae_sraiq56	aeq3, aeq3, 1; ae_movq56	aeq1, aeq2 }

00000bbc <fxexp+0x84>:
     bbc:	0198c4        	ae_addq56	aeq2, aeq1, aeq0
     bbf:	0a1084        	ae_zeroq56	aeq0
     bc2:	068a44        	ae_satq48s	aeq2, aeq2
     bc5:	098654        	ae_leq56s	b5, aeq2, aeq0
     bc8:	ff7c7d141f 	{ ae_lq32f.iu	aeq0, a4, 4; ae_truncq32	aeq3, aeq3 }
     bcd:	0a0576        	bf	b5, bdb <fxexp+0xa3>
     bd0:	3570b4        	ae_sraiq56	aeq1, aeq3, 2
     bd3:	065a34        	ae_truncq32	aeq1, aeq1
     bd6:	fb3eff217f 	{ ae_movq56	aeq1, aeq2; ae_subq56	aeq3, aeq3, aeq1 }

00000bdb <fxexp+0xa3>:
     bdb:	0198c4        	ae_addq56	aeq2, aeq1, aeq0
     bde:	0a1084        	ae_zeroq56	aeq0
     be1:	068a44        	ae_satq48s	aeq2, aeq2
     be4:	098664        	ae_leq56s	b6, aeq2, aeq0
     be7:	601414        	ae_lq32f.iu	aeq0, a4, 4
     bea:	0a0676        	bf	b6, bf8 <fxexp+0xc0>
     bed:	3570f4        	ae_sraiq56	aeq1, aeq3, 3
     bf0:	065a34        	ae_truncq32	aeq1, aeq1
     bf3:	fb3eff217f 	{ ae_movq56	aeq1, aeq2; ae_subq56	aeq3, aeq3, aeq1 }

00000bf8 <fxexp+0xc0>:
     bf8:	0198c4        	ae_addq56	aeq2, aeq1, aeq0
     bfb:	0a1084        	ae_zeroq56	aeq0
     bfe:	068a44        	ae_satq48s	aeq2, aeq2
     c01:	098674        	ae_leq56s	b7, aeq2, aeq0
     c04:	601414        	ae_lq32f.iu	aeq0, a4, 4
     c07:	0a0776        	bf	b7, c15 <fxexp+0xdd>
     c0a:	357134        	ae_sraiq56	aeq1, aeq3, 4
     c0d:	065a34        	ae_truncq32	aeq1, aeq1
     c10:	fb3eff217f 	{ ae_movq56	aeq1, aeq2; ae_subq56	aeq3, aeq3, aeq1 }

00000c15 <fxexp+0xdd>:
     c15:	0198c4        	ae_addq56	aeq2, aeq1, aeq0
     c18:	0a1084        	ae_zeroq56	aeq0
     c1b:	068a44        	ae_satq48s	aeq2, aeq2
     c1e:	098684        	ae_leq56s	b8, aeq2, aeq0
     c21:	601414        	ae_lq32f.iu	aeq0, a4, 4
     c24:	0a0876        	bf	b8, c32 <fxexp+0xfa>
     c27:	357174        	ae_sraiq56	aeq1, aeq3, 5
     c2a:	065a34        	ae_truncq32	aeq1, aeq1
     c2d:	fb3eff217f 	{ ae_movq56	aeq1, aeq2; ae_subq56	aeq3, aeq3, aeq1 }

00000c32 <fxexp+0xfa>:
     c32:	0198c4        	ae_addq56	aeq2, aeq1, aeq0
     c35:	0a1084        	ae_zeroq56	aeq0
     c38:	068a44        	ae_satq48s	aeq2, aeq2
     c3b:	098694        	ae_leq56s	b9, aeq2, aeq0
     c3e:	601414        	ae_lq32f.iu	aeq0, a4, 4
     c41:	0a0976        	bf	b9, c4f <fxexp+0x117>
     c44:	3571b4        	ae_sraiq56	aeq1, aeq3, 6
     c47:	065a34        	ae_truncq32	aeq1, aeq1
     c4a:	fb3eff217f 	{ ae_movq56	aeq1, aeq2; ae_subq56	aeq3, aeq3, aeq1 }

00000c4f <fxexp+0x117>:
     c4f:	0198c4        	ae_addq56	aeq2, aeq1, aeq0
     c52:	0a1084        	ae_zeroq56	aeq0
     c55:	068a44        	ae_satq48s	aeq2, aeq2
     c58:	0986a4        	ae_leq56s	b10, aeq2, aeq0
     c5b:	601414        	ae_lq32f.iu	aeq0, a4, 4
     c5e:	0a0a76        	bf	b10, c6c <fxexp+0x134>
     c61:	3571f4        	ae_sraiq56	aeq1, aeq3, 7
     c64:	065a34        	ae_truncq32	aeq1, aeq1
     c67:	fb3eff217f 	{ ae_movq56	aeq1, aeq2; ae_subq56	aeq3, aeq3, aeq1 }

00000c6c <fxexp+0x134>:
     c6c:	0198c4        	ae_addq56	aeq2, aeq1, aeq0
     c6f:	0a1084        	ae_zeroq56	aeq0
     c72:	068a44        	ae_satq48s	aeq2, aeq2
     c75:	098604        	ae_leq56s	b0, aeq2, aeq0
     c78:	fcfe81        	l32r	a8, 70 (10000 <_end+0x1860>)
     c7b:	353234        	ae_sraiq56	aeq0, aeq3, 8
     c7e:	070076        	bf	b0, c89 <fxexp+0x151>
     c81:	060a34        	ae_truncq32	aeq0, aeq0
     c84:	fb3aff217f 	{ ae_movq56	aeq1, aeq2; ae_subq56	aeq3, aeq3, aeq0 }

00000c89 <fxexp+0x151>:
     c89:	360834        	ae_cvtq48a32s	aeq0, a8
     c8c:	0118c4        	ae_addq56	aeq0, aeq1, aeq0
     c8f:	068844        	ae_satq48s	aeq2, aeq0
     c92:	35a394        	ae_slliq56	aeq2, aeq2, 14
     c95:	060a44        	ae_satq48s	aeq0, aeq2
     c98:	098c04        	ae_truncp24q48x2	aep0, aeq0, aeq0
     c9b:	0885e4        	ae_mulfq32sp24s.l	aeq2, aeq3, aep0
     c9e:	062934        	ae_roundsq32asym	aeq0, aeq2
     ca1:	350054        	ae_slliq56	aeq0, aeq0, 1
     ca4:	068844        	ae_satq48s	aeq2, aeq0
     ca7:	36a204        	ae_trunca32q48	a2, aeq2
     caa:	f01d           	retw.n

00000cac <fxarctan2>:
     cac:	004136        	entry	a1, 32
     caf:	0b9237        	bne	a2, a3, cbe <fxarctan2+0x12>
     cb2:	0212e6        	bgei	a2, 1, cb8 <fxarctan2+0xc>
     cb5:	002906        	j	d5d <fxarctan2+0xb1>
     cb8:	fcef91        	l32r	a9, 74 (1922 <fn_st_noise_est+0x48e>)
     cbb:	002686        	j	d59 <fxarctan2+0xad>

00000cbe <fxarctan2+0x12>:
     cbe:	fcee41        	l32r	a4, 78 (8000 <xtensa_fft8_32b+0x28>)
     cc1:	609120        	abs	a9, a2
     cc4:	608130        	abs	a8, a3
     cc7:	608080        	neg	a8, a8
     cca:	609090        	neg	a9, a9
     ccd:	899d           	ae_sext16	a9, a9
     ccf:	888d           	ae_sext16	a8, a8
     cd1:	3ea897        	bge	a8, a9, d13 <fxarctan2+0x67>
     cd4:	fceab1        	l32r	a11, 7c (b1f <HIFI_sqrt_ie+0x4b>)
     cd7:	115210        	slli	a5, a2, 15
     cda:	d25530        	quos	a5, a5, a3
     cdd:	855d           	ae_sext16	a5, a5
     cdf:	60a150        	abs	a10, a5
     ce2:	60a0a0        	neg	a10, a10
     ce5:	d1aab0        	mul16s	a10, a10, a11
     ce8:	11aaf0        	slli	a10, a10, 1
     ceb:	aa4a           	add.n	a10, a10, a4
     ced:	31a0a0        	srai	a10, a10, 16
     cf0:	2bdaa2        	addmi	a10, a10, 0x2b00
     cf3:	1fcaa2        	addi	a10, a10, 31
     cf6:	ffdc25        	call8	ab8 <_saturate16>
     cf9:	d1aa50        	mul16s	a10, a10, a5
     cfc:	90aa40        	addx2	a10, a10, a4
     cff:	31a0a0        	srai	a10, a10, 16
     d02:	0473d6        	bgez	a3, d4d <fxarctan2+0xa1>
     d05:	06b296        	bltz	a2, d74 <fxarctan2+0xc8>
     d08:	fcd5b1        	l32r	a11, 5c (7fff <xtensa_fft8_32b+0x27>)
     d0b:	aaba           	add.n	a10, a10, a11
     d0d:	ffdaa5        	call8	ab8 <_saturate16>
     d10:	000e46        	j	d4d <fxarctan2+0xa1>

00000d13 <fxarctan2+0x67>:
     d13:	fcdab1        	l32r	a11, 7c (b1f <HIFI_sqrt_ie+0x4b>)
     d16:	113310        	slli	a3, a3, 15
     d19:	d23320        	quos	a3, a3, a2
     d1c:	833d           	ae_sext16	a3, a3
     d1e:	60a130        	abs	a10, a3
     d21:	60a0a0        	neg	a10, a10
     d24:	d1aab0        	mul16s	a10, a10, a11
     d27:	11aaf0        	slli	a10, a10, 1
     d2a:	aa4a           	add.n	a10, a10, a4
     d2c:	31a0a0        	srai	a10, a10, 16
     d2f:	2bdaa2        	addmi	a10, a10, 0x2b00
     d32:	1fcaa2        	addi	a10, a10, 31
     d35:	ffd825        	call8	ab8 <_saturate16>
     d38:	d1aa30        	mul16s	a10, a10, a3
     d3b:	90aa40        	addx2	a10, a10, a4
     d3e:	31a0a0        	srai	a10, a10, 16
     d41:	023296        	bltz	a2, d68 <fxarctan2+0xbc>
     d44:	fccfb1        	l32r	a11, 80 (4000 <inear_ast_nr_proc+0x28>)
     d47:	c0aba0        	sub	a10, a11, a10
     d4a:	ffd6e5        	call8	ab8 <_saturate16>

00000d4d <fxarctan2+0xa1>:
     d4d:	fccd91        	l32r	a9, 84 (6488 <AVC_prcs+0x3c>)
     d50:	d19a90        	mul16s	a9, a10, a9
     d53:	909940        	addx2	a9, a9, a4
     d56:	319090        	srai	a9, a9, 16

00000d59 <fxarctan2+0xad>:
     d59:	092d           	mov.n	a2, a9
     d5b:	f01d           	retw.n

00000d5d <fxarctan2+0xb1>:
     d5d:	fcca91        	l32r	a9, 88 (ffffb49b <_end+0xfffeccfb>)
     d60:	0a0c           	movi.n	a10, 0
     d62:	b39a20        	movgez	a9, a10, a2
     d65:	fffc06        	j	d59 <fxarctan2+0xad>

00000d68 <fxarctan2+0xbc>:
     d68:	fcc9b1        	l32r	a11, 8c (ffffc000 <_end+0xfffed860>)
     d6b:	c0aba0        	sub	a10, a11, a10
     d6e:	ffd4a5        	call8	ab8 <_saturate16>
     d71:	fff606        	j	d4d <fxarctan2+0xa1>

00000d74 <fxarctan2+0xc8>:
     d74:	80daa2        	addmi	a10, a10, 0xffff8000
     d77:	ffd425        	call8	ab8 <_saturate16>
     d7a:	fff3c6        	j	d4d <fxarctan2+0xa1>

00000d7d <fxarctan2+0xd1>:
     d7d:	000000                                        ...

00000d80 <fxsqrt_ie>:
     d80:	004136        	entry	a1, 32
     d83:	063216        	beqz	a2, dea <fxsqrt_ie+0x6a>
     d86:	fcbc31        	l32r	a3, 78 (8000 <xtensa_fft8_32b+0x28>)
     d89:	fcb761        	l32r	a6, 68 (96d0 <TABLE_IE_43>)
     d8c:	090c           	movi.n	a9, 0
     d8e:	f40c           	movi.n	a4, 15
     d90:	40e280        	nsa	a8, a2
     d93:	401800        	ssl	a8
     d96:	c04480        	sub	a4, a4, a8
     d99:	a17200        	sll	a7, a2
     d9c:	044040        	extui	a4, a4, 0, 1
     d9f:	400400        	ssr	a4
     da2:	c04480        	sub	a4, a4, a8
     da5:	b17070        	sra	a7, a7
     da8:	417970        	srli	a7, a7, 9
     dab:	44fb           	addi.n	a4, a4, 15
     dad:	315070        	srai	a5, a7, 16
     db0:	f0c552        	addi	a5, a5, -16
     db3:	535590        	max	a5, a5, a9
     db6:	905560        	addx2	a5, a5, a6
     db9:	256d           	ae_l16si.n	a6, a5, 0
     dbb:	355d           	ae_l16si.n	a5, a5, 2
     dbd:	214140        	srai	a4, a4, 1
     dc0:	300774        	ae_cvtp24a16x2.ll	aep0, a7, a7
     dc3:	c05560        	sub	a5, a5, a6
     dc6:	116600        	slli	a6, a6, 16
     dc9:	115500        	slli	a5, a5, 16
     dcc:	36c534        	ae_cvtq48a32s	aeq3, a5
     dcf:	368634        	ae_cvtq48a32s	aeq2, a6
     dd2:	d7e13ec37f 	{ ae_cvtq48a32s	aeq1, a3; ae_mulaq32sp16u.l	aeq2, aeq3, aep0 }
     dd7:	f9c442        	addi	a4, a4, -7
     dda:	fc24fea40f 	{ ae_slaasq56s	aeq0, aeq2, a4; nop }
     ddf:	0109c4        	ae_addq56	aeq0, aeq0, aeq1
     de2:	368204        	ae_trunca32q48	a2, aeq0
     de5:	312020        	srai	a2, a2, 16
     de8:	f01d           	retw.n

00000dea <fxsqrt_ie+0x6a>:
     dea:	020c           	movi.n	a2, 0
     dec:	f01d           	retw.n

00000dee <fxsqrt_ie+0x6e>:
	...

00000df0 <fxlog10>:
     df0:	004136        	entry	a1, 32
     df3:	42cc           	bnez.n	a2, dfb <fxlog10+0xb>
     df5:	fc9b21        	l32r	a2, 64 (ffff8000 <_end+0xfffe9860>)
     df8:	f01d           	retw.n

00000dfa <fxlog10+0xa>:
	...

00000dfb <fxlog10+0xb>:
     dfb:	530c           	movi.n	a3, 5
     dfd:	fca541        	l32r	a4, 94 (241f8 <_end+0x15a58>)
     e00:	fc9691        	l32r	a9, 58 (80000000 <_end+0x7fff1860>)
     e03:	fca3a1        	l32r	a10, 90 (2688 <fn_ini_win_detection+0x14>)
     e06:	050c           	movi.n	a5, 0
     e08:	40e2b0        	nsa	a11, a2
     e0b:	fca4c1        	l32r	a12, 9c (ffff0000 <_end+0xfffe1860>)
     e0e:	36cc34        	ae_cvtq48a32s	aeq3, a12
     e11:	bb1b           	addi.n	a11, a11, 1
     e13:	8bbd           	ae_sext16	a11, a11
     e15:	b35b20        	movgez	a5, a11, a2
     e18:	401500        	ssl	a5
     e1b:	a18200        	sll	a8, a2
     e1e:	d155a0        	mul16s	a5, a5, a10
     e21:	fc9d21        	l32r	a2, 98 (9770 <log_coef_49>)
     e24:	889a           	add.n	a8, a8, a9
     e26:	c04450        	sub	a4, a4, a5
     e29:	f58080        	extui	a8, a8, 16, 16
     e2c:	302884        	ae_cvtp24a16x2.ll	aep2, a8, a8
     e2f:	114480        	slli	a4, a4, 8
     e32:	408204        	ae_lp16f.iu	aep0, a2, 0
     e35:	360434        	ae_cvtq48a32s	aeq0, a4
     e38:	f86afa820f 	{ ae_slliq56	aeq0, aeq0, 8; ae_movp48	aep1, aep2 }
     e3d:	0aa376        	loopgtz	a3, e4b <fxlog10+0x5b>
     e40:	011a74        	ae_mulfp24s.ll	aeq1, aep1, aep2
     e43:	020134        	ae_mulap24s.ll	aeq0, aep0, aep1
     e46:	f86bec821f 	{ ae_lp16f.iu	aep0, a2, 2; ae_roundsp16q48asym	aep1, aeq1 }

00000e4b <fxlog10+0x5b>:
     e4b:	3580f4        	ae_sraiq56	aeq2, aeq0, 3
     e4e:	01b2e4        	ae_andq56	aeq2, aeq2, aeq3
     e51:	1baf04        	ae_roundsp16q48asym	aep0, aeq2
     e54:	360224        	ae_trunca16p24s.l	a2, aep0
     e57:	f01d           	retw.n

00000e59 <fxlog10+0x69>:
     e59:	000000                                        ...

00000e5c <fxln>:
     e5c:	004136        	entry	a1, 32
     e5f:	42cc           	bnez.n	a2, e67 <fxln+0xb>
     e61:	fc8021        	l32r	a2, 64 (ffff8000 <_end+0xfffe9860>)
     e64:	f01d           	retw.n

00000e66 <fxln+0xa>:
	...

00000e67 <fxln+0xb>:
     e67:	530c           	movi.n	a3, 5
     e69:	fc8e41        	l32r	a4, a4 (29973 <_end+0x1b1d3>)
     e6c:	fc7b91        	l32r	a9, 58 (80000000 <_end+0x7fff1860>)
     e6f:	fc8ca1        	l32r	a10, a0 (2c5d <fn_low_bin_noise_est+0x145>)
     e72:	050c           	movi.n	a5, 0
     e74:	40e2b0        	nsa	a11, a2
     e77:	fc89c1        	l32r	a12, 9c (ffff0000 <_end+0xfffe1860>)
     e7a:	36cc34        	ae_cvtq48a32s	aeq3, a12
     e7d:	bb1b           	addi.n	a11, a11, 1
     e7f:	8bbd           	ae_sext16	a11, a11
     e81:	b35b20        	movgez	a5, a11, a2
     e84:	401500        	ssl	a5
     e87:	a18200        	sll	a8, a2
     e8a:	d155a0        	mul16s	a5, a5, a10
     e8d:	fc8621        	l32r	a2, a8 (9780 <ln_coef_51>)
     e90:	889a           	add.n	a8, a8, a9
     e92:	c04450        	sub	a4, a4, a5
     e95:	f58080        	extui	a8, a8, 16, 16
     e98:	302884        	ae_cvtp24a16x2.ll	aep2, a8, a8
     e9b:	114480        	slli	a4, a4, 8
     e9e:	408204        	ae_lp16f.iu	aep0, a2, 0
     ea1:	360434        	ae_cvtq48a32s	aeq0, a4
     ea4:	f86afa820f 	{ ae_slliq56	aeq0, aeq0, 8; ae_movp48	aep1, aep2 }
     ea9:	0aa376        	loopgtz	a3, eb7 <fxln+0x5b>
     eac:	011a74        	ae_mulfp24s.ll	aeq1, aep1, aep2
     eaf:	020134        	ae_mulap24s.ll	aeq0, aep0, aep1
     eb2:	f86bec821f 	{ ae_lp16f.iu	aep0, a2, 2; ae_roundsp16q48asym	aep1, aeq1 }

00000eb7 <fxln+0x5b>:
     eb7:	3580f4        	ae_sraiq56	aeq2, aeq0, 3
     eba:	01b2e4        	ae_andq56	aeq2, aeq2, aeq3
     ebd:	1baf04        	ae_roundsp16q48asym	aep0, aeq2
     ec0:	360224        	ae_trunca16p24s.l	a2, aep0
     ec3:	f01d           	retw.n

00000ec5 <fxln+0x69>:
     ec5:	000000                                        ...

00000ec8 <_saturate16>:
     ec8:	004136        	entry	a1, 32
     ecb:	fc6451        	l32r	a5, 5c (7fff <xtensa_fft8_32b+0x27>)
     ece:	fc6431        	l32r	a3, 60 (ffff7fff <_end+0xfffe985f>)
     ed1:	03a527        	bge	a5, a2, ed8 <_saturate16+0x10>
     ed4:	052d           	mov.n	a2, a5
     ed6:	f01d           	retw.n

00000ed8 <_saturate16+0x10>:
     ed8:	042327        	blt	a3, a2, ee0 <_saturate16+0x18>
     edb:	fc6221        	l32r	a2, 64 (ffff8000 <_end+0xfffe9860>)
     ede:	f01d           	retw.n

00000ee0 <_saturate16+0x18>:
     ee0:	822d           	ae_sext16	a2, a2
     ee2:	f01d           	retw.n

00000ee4 <_saturate32>:
     ee4:	004136        	entry	a1, 32
     ee7:	fc5a71        	l32r	a7, 50 (7fffffff <_end+0x7fff185f>)
     eea:	060c           	movi.n	a6, 0
     eec:	006396        	bltz	a3, ef6 <_saturate32+0x12>
     eef:	13cc           	bnez.n	a3, ef4 <_saturate32+0x10>
     ef1:	01b727        	bgeu	a7, a2, ef6 <_saturate32+0x12>

00000ef4 <_saturate32+0x10>:
     ef4:	160c           	movi.n	a6, 1

00000ef6 <_saturate32+0x12>:
     ef6:	468c           	beqz.n	a6, efe <_saturate32+0x1a>
     ef8:	fc5631        	l32r	a3, 50 (7fffffff <_end+0x7fff185f>)
     efb:	000546        	j	f14 <_saturate32+0x30>

00000efe <_saturate32+0x1a>:
     efe:	fc5471        	l32r	a7, 50 (7fffffff <_end+0x7fff185f>)
     f01:	060c           	movi.n	a6, 0
     f03:	0073d6        	bgez	a3, f0e <_saturate32+0x2a>
     f06:	020366        	bnei	a3, -1, f0c <_saturate32+0x28>
     f09:	013727        	bltu	a7, a2, f0e <_saturate32+0x2a>

00000f0c <_saturate32+0x28>:
     f0c:	160c           	movi.n	a6, 1

00000f0e <_saturate32+0x2a>:
     f0e:	fc5231        	l32r	a3, 58 (80000000 <_end+0x7fff1860>)
     f11:	833260        	moveqz	a3, a2, a6

00000f14 <_saturate32+0x30>:
     f14:	032d           	mov.n	a2, a3
     f16:	f01d           	retw.n

00000f18 <_saturate24>:
     f18:	004136        	entry	a1, 32
     f1b:	fc6471        	l32r	a7, ac (7fffff00 <_end+0x7fff1760>)
     f1e:	060c           	movi.n	a6, 0
     f20:	006396        	bltz	a3, f2a <_saturate24+0x12>
     f23:	13cc           	bnez.n	a3, f28 <_saturate24+0x10>
     f25:	01b727        	bgeu	a7, a2, f2a <_saturate24+0x12>

00000f28 <_saturate24+0x10>:
     f28:	160c           	movi.n	a6, 1

00000f2a <_saturate24+0x12>:
     f2a:	468c           	beqz.n	a6, f32 <_saturate24+0x1a>
     f2c:	fc6031        	l32r	a3, ac (7fffff00 <_end+0x7fff1760>)
     f2f:	000546        	j	f48 <_saturate24+0x30>

00000f32 <_saturate24+0x1a>:
     f32:	fc4771        	l32r	a7, 50 (7fffffff <_end+0x7fff185f>)
     f35:	060c           	movi.n	a6, 0
     f37:	0073d6        	bgez	a3, f42 <_saturate24+0x2a>
     f3a:	020366        	bnei	a3, -1, f40 <_saturate24+0x28>
     f3d:	013727        	bltu	a7, a2, f42 <_saturate24+0x2a>

00000f40 <_saturate24+0x28>:
     f40:	160c           	movi.n	a6, 1

00000f42 <_saturate24+0x2a>:
     f42:	fc4531        	l32r	a3, 58 (80000000 <_end+0x7fff1860>)
     f45:	833260        	moveqz	a3, a2, a6

00000f48 <_saturate24+0x30>:
     f48:	032d           	mov.n	a2, a3
     f4a:	f01d           	retw.n

00000f4c <mel_filter>:
     f4c:	004136        	entry	a1, 32
     f4f:	fc58c1        	l32r	a12, b0 (e460 <all_amt_tab>)
     f52:	fcc3a2        	addi	a10, a3, -4
     f55:	a0b440        	addx4	a11, a4, a4
     f58:	b0bbc0        	addx8	a11, a11, a12
     f5b:	2b4d           	ae_l16si.n	a4, a11, 0
     f5d:	7b88           	l32i.n	a8, a11, 28
     f5f:	2bb8           	l32i.n	a11, a11, 8
     f61:	3d14a6        	blti	a4, 1, fa2 <mel_filter+0x56>
     f64:	90c480        	addx2	a12, a4, a8
     f67:	fe2480007f 	{ movi	a7, 0; ae_zeroq56	aeq2 }
     f6c:	fc145137bf 	{ addx2	a3, a7, a11; ae_movq56	aeq0, aeq2 }

00000f71 <mel_filter+0x25>:
     f71:	28dd           	ae_l16si.n	a13, a8, 0
     f73:	029892        	l16si	a9, a8, 4
     f76:	408304        	ae_lp16f.iu	aep0, a3, 0
     f79:	a04d20        	addx4	a4, a13, a2
     f7c:	c099d0        	sub	a9, a9, a13
     f7f:	444b           	addi.n	a4, a4, 4
     f81:	605404        	ae_lq32f.iu	aeq1, a4, 0
     f84:	990b           	addi.n	a9, a9, -1
     f86:	07a976        	loopgtz	a9, f91 <mel_filter+0x45>
     f89:	f483bd341f 	{ ae_lq32f.iu	aeq1, a4, 4; ae_mulafq32sp16s.l	aeq0, aeq1, aep0 }
     f8e:	408314        	ae_lp16f.iu	aep0, a3, 2

00000f91 <mel_filter+0x45>:
     f91:	882b           	addi.n	a8, a8, 2
     f93:	779a           	add.n	a7, a7, a9
     f95:	f8679137bf 	{ addx2	a3, a7, a11; ae_roundsp24q48asym	aep0, aeq0 }
     f9a:	fc14748a1f 	{ ae_sp24f.l.iu	aep0, a10, 4; ae_movq56	aeq0, aeq2 }
     f9f:	ce98c7        	bne	a8, a12, f71 <mel_filter+0x25>

00000fa2 <mel_filter+0x56>:
     fa2:	f01d           	retw.n

00000fa4 <mel_filter16>:
     fa4:	004136        	entry	a1, 32
     fa7:	fc42c1        	l32r	a12, b0 (e460 <all_amt_tab>)
     faa:	fec3a2        	addi	a10, a3, -2
     fad:	a0b440        	addx4	a11, a4, a4
     fb0:	b0bbc0        	addx8	a11, a11, a12
     fb3:	2b4d           	ae_l16si.n	a4, a11, 0
     fb5:	7b88           	l32i.n	a8, a11, 28
     fb7:	2bb8           	l32i.n	a11, a11, 8
     fb9:	3d14a6        	blti	a4, 1, ffa <mel_filter16+0x56>
     fbc:	90c480        	addx2	a12, a4, a8
     fbf:	fd2480007f 	{ movi	a7, 0; ae_zeroq56	aeq1 }
     fc4:	fc0c5137bf 	{ addx2	a3, a7, a11; ae_movq56	aeq0, aeq1 }

00000fc9 <mel_filter16+0x25>:
     fc9:	28dd           	ae_l16si.n	a13, a8, 0
     fcb:	029892        	l16si	a9, a8, 4
     fce:	408304        	ae_lp16f.iu	aep0, a3, 0
     fd1:	904d20        	addx2	a4, a13, a2
     fd4:	c099d0        	sub	a9, a9, a13
     fd7:	442b           	addi.n	a4, a4, 2
     fd9:	409404        	ae_lp16f.iu	aep1, a4, 0
     fdc:	990b           	addi.n	a9, a9, -1
     fde:	07a976        	loopgtz	a9, fe9 <mel_filter16+0x45>
     fe1:	e207ac941f 	{ ae_lp16f.iu	aep1, a4, 2; ae_mulafp24s.ll	aeq0, aep1, aep0 }
     fe6:	408314        	ae_lp16f.iu	aep0, a3, 2

00000fe9 <mel_filter16+0x45>:
     fe9:	882b           	addi.n	a8, a8, 2
     feb:	779a           	add.n	a7, a7, a9
     fed:	f8e39137bf 	{ addx2	a3, a7, a11; ae_roundsp16q48sym	aep0, aeq0 }
     ff2:	fc0c728a1f 	{ ae_sp16f.l.iu	aep0, a10, 2; ae_movq56	aeq0, aeq1 }
     ff7:	ce98c7        	bne	a8, a12, fc9 <mel_filter16+0x25>

00000ffa <mel_filter16+0x56>:
     ffa:	f01d           	retw.n

00000ffc <inv_mel_filter>:
     ffc:	004136        	entry	a1, 32
     fff:	80a052        	movi	a5, 128
    1002:	02d3b2        	addmi	a11, a3, 0x200
    1005:	fc2a71        	l32r	a7, b0 (e460 <all_amt_tab>)
    1008:	a06440        	addx4	a6, a4, a4
    100b:	0a0c           	movi.n	a10, 0
    100d:	fcc342        	addi	a4, a3, -4
    1010:	b06670        	addx8	a6, a6, a7
    1013:	1698           	l32i.n	a9, a6, 4
    1015:	2678           	l32i.n	a7, a6, 8
    1017:	072682        	l32i	a8, a6, 28
    101a:	fc20a0066e 	{ l16si	a6, a6, 0; ae_zerop48	aep0 }
    101f:	6bad           	ae_s16i.n	a10, a11, 0
    1021:	02a576        	loopgtz	a5, 1027 <inv_mel_filter+0x2b>
    1024:	468414        	ae_sp16x2f.iu	aep0, a4, 4

00001027 <inv_mel_filter+0x2b>:
    1027:	508904        	ae_lp24f.iu	aep0, a9, 0
    102a:	40a204        	ae_lp16f.iu	aep2, a2, 0
    102d:	409704        	ae_lp16f.iu	aep1, a7, 0
    1030:	3e16a6        	blti	a6, 1, 1072 <inv_mel_filter+0x76>
    1033:	ea4191a68f 	{ addx2	a10, a6, a8; ae_mulfp24s.ll	aeq0, aep0, aep2 }

00001038 <inv_mel_filter+0x3c>:
    1038:	284d           	ae_l16si.n	a4, a8, 0
    103a:	0298b2        	l16si	a11, a8, 4
    103d:	882b           	addi.n	a8, a8, 2
    103f:	441b           	addi.n	a4, a4, 1
    1041:	844d           	ae_sext16	a4, a4
    1043:	c0bb40        	sub	a11, a11, a4
    1046:	904430        	addx2	a4, a4, a3
    1049:	f967ac840f 	{ ae_lp16f.iu	aep0, a4, 0; ae_roundsp24q48asym	aep2, aeq0 }
    104e:	14ab76        	loopgtz	a11, 1066 <inv_mel_filter+0x6a>
    1051:	012974        	ae_mulfp24s.ll	aeq1, aep2, aep1
    1054:	1b9d34        	ae_roundsp24q48asym	aep3, aeq1
    1057:	0bb414        	ae_sllisp24s	aep1, aep3, 8
    105a:	079004        	ae_addsp24s	aep0, aep1, aep0
    105d:	428404        	ae_sp16f.l.iu	aep0, a4, 0
    1060:	408414        	ae_lp16f.iu	aep0, a4, 2
    1063:	409714        	ae_lp16f.iu	aep1, a7, 2

00001066 <inv_mel_filter+0x6a>:
    1066:	40a214        	ae_lp16f.iu	aep2, a2, 2
    1069:	508914        	ae_lp24f.iu	aep0, a9, 4
    106c:	010274        	ae_mulfp24s.ll	aeq0, aep0, aep2
    106f:	c598a7        	bne	a8, a10, 1038 <inv_mel_filter+0x3c>

00001072 <inv_mel_filter+0x76>:
    1072:	f01d           	retw.n

00001074 <calc_amt>:
    1074:	012136        	entry	a1, 144
    1077:	9129           	s32i.n	a2, a1, 36
    1079:	62cb           	addi.n	a6, a2, 12
    107b:	4159           	s32i.n	a5, a1, 16
    107d:	6149           	s32i.n	a4, a1, 24
    107f:	039d           	mov.n	a9, a3
    1081:	0199           	s32i.n	a9, a1, 0
    1083:	fc0b41        	l32r	a4, b0 (e460 <all_amt_tab>)
    1086:	049232        	l16si	a3, a2, 8
    1089:	78c152        	addi	a5, a1, 120
    108c:	605604        	ae_lq32f.iu	aeq1, a6, 0
    108f:	6315b4        	ae_sq56s.i	aeq1, a5, -40
    1092:	330b           	addi.n	a3, a3, -1
    1094:	833d           	ae_sext16	a3, a3
    1096:	5139           	s32i.n	a3, a1, 20
    1098:	a03330        	addx4	a3, a3, a3
    109b:	b03340        	addx8	a3, a3, a4
    109e:	4348           	l32i.n	a4, a3, 16
    10a0:	6388           	l32i.n	a8, a3, 24
    10a2:	3358           	l32i.n	a5, a3, 12
    10a4:	53a8           	l32i.n	a10, a3, 20
    10a6:	11a9           	s32i.n	a10, a1, 4
    10a8:	3159           	s32i.n	a5, a1, 12
    10aa:	2189           	s32i.n	a8, a1, 8
    10ac:	8358           	l32i.n	a5, a3, 32
    10ae:	238d           	ae_l16si.n	a8, a3, 0
    10b0:	fc248781ae 	{ addi	a10, a1, 120; ae_zeroq56	aeq0 }
    10b5:	630aa4        	ae_sq56s.i	aeq0, a10, -48
    10b8:	082d           	mov.n	a2, a8
    10ba:	fc20a0133e 	{ l16si	a3, a3, 2; ae_zerop48	aep0 }
    10bf:	4118a6        	blti	a8, 1, 1104 <calc_amt+0x90>
    10c2:	070c           	movi.n	a7, 0
    10c4:	560ad4        	ae_sp24x2s.i	aep0, a10, -24

000010c7 <calc_amt+0x53>:
    10c7:	fbfb81        	l32r	a8, b4 (e5c <fxln>)
    10ca:	78c192        	addi	a9, a1, 120
    10cd:	61c9b4        	ae_lq56.i	aeq3, a9, -40
    10d0:	35f2f4        	ae_sraiq56	aeq3, aeq3, 11
    10d3:	06b934        	ae_roundsq32asym	aeq2, aeq3
    10d6:	36aa04        	ae_trunca32q48	a10, aeq2
    10d9:	0008e0        	callx8	a8
    10dc:	771b           	addi.n	a7, a7, 1
    10de:	301aa4        	ae_cvtp24a16x2.ll	aep1, a10, a10
    10e1:	78c1f2        	addi	a15, a1, 120
    10e4:	610fb4        	ae_lq56.i	aeq0, a15, -40
    10e7:	cc44700fdf 	{ ae_lp24x2.i	aep0, a15, -24; ae_sraip24	aep1, aep1, 8 }
    10ec:	d8213dafaf 	{ ae_lq56.i	aeq1, a15, -48; ae_addsp24s	aep0, aep0, aep1 }
    10f1:	560fd4        	ae_sp24x2s.i	aep0, a15, -24
    10f4:	fa6a3d161f 	{ ae_lq32f.iu	aeq0, a6, 4; ae_addq56	aeq2, aeq1, aeq0 }
    10f9:	fd80fa0fbf 	{ ae_sq56s.i	aeq0, a15, -40; ae_satq48s	aeq1, aeq2 }
    10fe:	631fa4        	ae_sq56s.i	aeq1, a15, -48
    1101:	c29277        	bne	a2, a7, 10c7 <calc_amt+0x53>

00001104 <calc_amt+0x90>:
    1104:	fbed81        	l32r	a8, b8 (b38 <fxexp>)
    1107:	302334        	ae_cvtp24a16x2.ll	aep2, a3, a3
    110a:	ea418781ae 	{ addi	a10, a1, 120; ae_mulfp24s.ll	aeq0, aep0, aep2 }
    110f:	61caa4        	ae_lq56.i	aeq3, a10, -48
    1112:	d7eb3b020f 	{ ae_sraiq56	aeq0, aeq0, 8; ae_mulfq32sp16s.l	aeq2, aeq3, aep2 }
    1117:	fd2447819e 	{ addi	a9, a1, 120; ae_roundsq32asym	aeq1, aeq0 }
    111c:	355154        	ae_slliq56	aeq1, aeq1, 5
    111f:	fc347f1aef 	{ ae_trunca32q48	a10, aeq1; ae_roundsq32asym	aeq0, aeq2 }
    1124:	35c114        	ae_slliq56	aeq3, aeq0, 4
    1127:	6339a4        	ae_sq56s.i	aeq3, a9, -48
    112a:	0008e0        	callx8	a8
    112d:	78c1b2        	addi	a11, a1, 120
    1130:	614ba4        	ae_lq56.i	aeq1, a11, -48
    1133:	369d04        	ae_trunca32q48	a13, aeq1
    1136:	3dcc           	bnez.n	a13, 113d <calc_amt+0xc9>
    1138:	0d0c           	movi.n	a13, 0
    113a:	000bc6        	j	116d <calc_amt+0xf9>

0000113d <calc_amt+0xc9>:
    113d:	052ad7        	blt	a10, a13, 1146 <calc_amt+0xd2>
    1140:	fbc7d1        	l32r	a13, 5c (7fff <xtensa_fft8_32b+0x27>)
    1143:	000986        	j	116d <calc_amt+0xf9>

00001146 <calc_amt+0xd2>:
    1146:	364d34        	ae_cvtq48a32s	aeq1, a13
    1149:	36ca34        	ae_cvtq48a32s	aeq3, a10
    114c:	40edf0        	nsa	a15, a13
    114f:	8ffd           	ae_sext16	a15, a15
    1151:	fc24febf8f 	{ ae_slaasq56s	aeq2, aeq3, a15; nop }
    1156:	fc80cf1ffe 	{ addi	a15, a15, -15; ae_satq48s	aeq0, aeq2 }
    115b:	fc24fe9fcf 	{ ae_slaasq56s	aeq3, aeq1, a15; nop }
    1160:	fe84ff0def 	{ ae_trunca32q48	a13, aeq0; ae_satq48s	aeq2, aeq3 }
    1165:	36ae04        	ae_trunca32q48	a14, aeq2
    1168:	d2dde0        	quos	a13, a13, a14
    116b:	addd           	ae_clamps16	a13, a13
    116d:	fbd381        	l32r	a8, bc (df0 <fxlog10>)
    1170:	364d34        	ae_cvtq48a32s	aeq1, a13
    1173:	355054        	ae_slliq56	aeq1, aeq1, 1
    1176:	060944        	ae_satq48s	aeq0, aeq1
    1179:	368a04        	ae_trunca32q48	a10, aeq0
    117c:	0008e0        	callx8	a8
    117f:	a0aaa0        	addx4	a10, a10, a10
    1182:	3aadb2        	movi	a11, 0xfffffd3a
    1185:	303bb4        	ae_cvtp24a16x2.ll	aep3, a11, a11
    1188:	11aaf0        	slli	a10, a10, 1
    118b:	360a34        	ae_cvtq48a32s	aeq0, a10
    118e:	033214        	ae_mulfq32sp16s.l	aeq0, aeq0, aep3
    1191:	166152        	s32i	a5, a1, 88
    1194:	36c4d4        	ae_sllisq56s	aeq3, aeq0, 19
    1197:	fe84d3744f 	{ or	a7, a4, a4; ae_satq48s	aeq2, aeq3 }
    119c:	f8f3ec870f 	{ ae_lp16f.iu	aep0, a7, 0; ae_roundsp16q48sym	aep1, aeq2 }
    11a1:	361924        	ae_trunca16p24s.l	a9, aep1
    11a4:	7199           	s32i.n	a9, a1, 28
    11a6:	0212e6        	bgei	a2, 1, 11ac <calc_amt+0x138>
    11a9:	006346        	j	133a <calc_amt+0x2c6>
    11ac:	0138           	l32i.n	a3, a1, 0
    11ae:	3158           	l32i.n	a5, a1, 12
    11b0:	561174        	ae_sp24x2s.i	aep1, a1, 56
    11b3:	9148           	l32i.n	a4, a1, 36
    11b5:	fbc2e1        	l32r	a14, c0 (ccd <fxarctan2+0x21>)
    11b8:	fbc3d1        	l32r	a13, c4 (b00 <HIFI_sqrt_ie+0x2c>)
    11bb:	2188           	l32i.n	a8, a1, 8
    11bd:	1621c2        	l32i	a12, a1, 88
    11c0:	11b8           	l32i.n	a11, a1, 4
    11c2:	d1b9           	s32i.n	a11, a1, 52
    11c4:	b1c9           	s32i.n	a12, a1, 44
    11c6:	c189           	s32i.n	a8, a1, 48
    11c8:	78c1c2        	addi	a12, a1, 120
    11cb:	304de4        	ae_cvtp24a16x2.ll	aep4, a13, a14
    11ce:	908280        	addx2	a8, a2, a8
    11d1:	8189           	s32i.n	a8, a1, 32
    11d3:	564c94        	ae_sp24x2s.i	aep4, a12, -56
    11d6:	a02240        	addx4	a2, a2, a4
    11d9:	fc24b0614e 	{ l32i	a4, a1, 24; ae_zeroq56	aeq0 }

000011de <calc_amt+0x16a>:
    11de:	9188           	l32i.n	a8, a1, 36
    11e0:	c168           	l32i.n	a6, a1, 48
    11e2:	d1d8           	l32i.n	a13, a1, 52
    11e4:	78c1e2        	addi	a14, a1, 120
    11e7:	266d           	ae_l16si.n	a6, a6, 0
    11e9:	560ee4        	ae_sp24x2s.i	aep0, a14, -16
    11ec:	2ddd           	ae_l16si.n	a13, a13, 0
    11ee:	a06680        	addx4	a6, a6, a8
    11f1:	66cb           	addi.n	a6, a6, 12
    11f3:	605604        	ae_lq32f.iu	aeq1, a6, 0
    11f6:	0dad76        	loopgtz	a13, 1207 <calc_amt+0x193>
    11f9:	78c182        	addi	a8, a1, 120
    11fc:	f403bd361f 	{ ae_lq32f.iu	aeq1, a6, 4; ae_mulafq32sp16s.h	aeq0, aeq1, aep0 }
    1201:	408714        	ae_lp16f.iu	aep0, a7, 2
    1204:	5608e4        	ae_sp24x2s.i	aep0, a8, -16

00001207 <calc_amt+0x193>:
    1207:	fbad81        	l32r	a8, bc (df0 <fxlog10>)
    120a:	404b00        	ssai	11
    120d:	78c1d2        	addi	a13, a1, 120
    1210:	543174        	ae_lp24x2.i	aep3, a1, 56
    1213:	7198           	l32i.n	a9, a1, 28
    1215:	fb91e1        	l32r	a14, 5c (7fff <xtensa_fft8_32b+0x27>)
    1218:	fc2470b1fe 	{ l32i	a15, a1, 44; ae_roundsq32asym	aeq0, aeq0 }
    121d:	368a04        	ae_trunca32q48	a10, aeq0
    1220:	302ee4        	ae_cvtp24a16x2.ll	aep2, a14, a14
    1223:	2ffd           	ae_l16si.n	a15, a15, 0
    1225:	31cfa0        	srai	a12, a10, 31
    1228:	04dab2        	addmi	a11, a10, 0x400
    122b:	d1ff90        	mul16s	a15, a15, a9
    122e:	36cf34        	ae_cvtq48a32s	aeq3, a15
    1231:	dc6afab0df 	{ ae_slliq56	aeq3, aeq3, 1; ae_subsp24s	aep1, aep2, aep3 }
    1236:	fe84f00d9f 	{ ae_lp24x2.i	aep0, a13, -56; ae_satq48s	aeq2, aeq3 }
    123b:	009024        	ae_mulafs32p16s.lh	aeq2, aep1, aep0
    123e:	62aba0        	saltu	a10, a11, a10
    1241:	1bae74        	ae_roundsp16q48sym	aep7, aeq2
    1244:	ea1f50aacf 	{ add	a10, a10, a12; ae_mulfs32p16s.ll	aeq1, aep7, aep0 }
    1249:	81aab0        	src	a10, a10, a11
    124c:	1b9e64        	ae_roundsp16q48sym	aep6, aeq1
    124f:	366924        	ae_trunca16p24s.l	a9, aep6
    1252:	a199           	s32i.n	a9, a1, 40
    1254:	0008e0        	callx8	a8
    1257:	0a6d           	mov.n	a6, a10
    1259:	a1a8           	l32i.n	a10, a1, 40
    125b:	11aad0        	slli	a10, a10, 3
    125e:	ffc6a5        	call8	ec8 <_saturate16>
    1261:	c0a6a0        	sub	a10, a6, a10
    1264:	ffc625        	call8	ec8 <_saturate16>
    1267:	fb98b1        	l32r	a11, c8 (49af <inear_ast_nr_proc+0x9d7>)
    126a:	fb9381        	l32r	a8, b8 (b38 <fxexp>)
    126d:	d1aab0        	mul16s	a10, a10, a11
    1270:	404900        	ssai	9
    1273:	31cfa0        	srai	a12, a10, 31
    1276:	01dab2        	addmi	a11, a10, 0x100
    1279:	62aba0        	saltu	a10, a11, a10
    127c:	aaca           	add.n	a10, a10, a12
    127e:	81aab0        	src	a10, a10, a11
    1281:	0008e0        	callx8	a8
    1284:	404504        	ae_lp16f.i	aep4, a5, 0
    1287:	360a34        	ae_cvtq48a32s	aeq0, a10
    128a:	034214        	ae_mulfq32sp16s.l	aeq0, aeq0, aep4
    128d:	36c054        	ae_sllisq56s	aeq3, aeq0, 1
    1290:	068b44        	ae_satq48s	aeq2, aeq3
    1293:	fd347032ee 	{ l32i	a14, a2, 12; ae_roundsq32asym	aeq1, aeq2 }
    1298:	369f04        	ae_trunca32q48	a15, aeq1
    129b:	03d8           	l32i.n	a13, a3, 0
    129d:	53eef0        	max	a14, a14, a15
    12a0:	3dcc           	bnez.n	a13, 12a7 <calc_amt+0x233>
    12a2:	0d0c           	movi.n	a13, 0
    12a4:	000bc6        	j	12d7 <calc_amt+0x263>

000012a7 <calc_amt+0x233>:
    12a7:	052ed7        	blt	a14, a13, 12b0 <calc_amt+0x23c>
    12aa:	fb6cd1        	l32r	a13, 5c (7fff <xtensa_fft8_32b+0x27>)
    12ad:	000986        	j	12d7 <calc_amt+0x263>

000012b0 <calc_amt+0x23c>:
    12b0:	360d34        	ae_cvtq48a32s	aeq0, a13
    12b3:	368e34        	ae_cvtq48a32s	aeq2, a14
    12b6:	40ed80        	nsa	a8, a13
    12b9:	888d           	ae_sext16	a8, a8
    12bb:	fc24fea84f 	{ ae_slaasq56s	aeq1, aeq2, a8; nop }
    12c0:	ff04cf188e 	{ addi	a8, a8, -15; ae_satq48s	aeq3, aeq1 }
    12c5:	fc24fe888f 	{ ae_slaasq56s	aeq2, aeq0, a8; nop }
    12ca:	fd80ff3def 	{ ae_trunca32q48	a13, aeq3; ae_satq48s	aeq1, aeq2 }
    12cf:	369f04        	ae_trunca32q48	a15, aeq1
    12d2:	d2ddf0        	quos	a13, a13, a15
    12d5:	addd           	ae_clamps16	a13, a13
    12d7:	fb7781        	l32r	a8, b4 (e5c <fxln>)
    12da:	404300        	ssai	3
    12dd:	31cfd0        	srai	a12, a13, 31
    12e0:	bd4b           	addi.n	a11, a13, 4
    12e2:	62abd0        	saltu	a10, a11, a13
    12e5:	aaca           	add.n	a10, a10, a12
    12e7:	81aab0        	src	a10, a10, a11
    12ea:	0008e0        	callx8	a8
    12ed:	fb7281        	l32r	a8, b8 (b38 <fxexp>)
    12f0:	360a34        	ae_cvtq48a32s	aeq0, a10
    12f3:	350154        	ae_slliq56	aeq0, aeq0, 5
    12f6:	06c844        	ae_satq48s	aeq3, aeq0
    12f9:	36ba04        	ae_trunca32q48	a10, aeq3
    12fc:	0008e0        	callx8	a8
    12ff:	364a34        	ae_cvtq48a32s	aeq1, a10
    1302:	faebe004ae 	{ l16si	a10, a4, 0; ae_roundsp16q48sym	aep5, aeq1 }
    1307:	365b24        	ae_trunca16p24s.l	a11, aep5
    130a:	aaba           	add.n	a10, a10, a11
    130c:	ffbba5        	call8	ec8 <_saturate16>
    130f:	09c4a4        	ae_s16ip	a10, a4, 2
    1312:	224b           	addi.n	a2, a2, 4
    1314:	334b           	addi.n	a3, a3, 4
    1316:	552b           	addi.n	a5, a5, 2
    1318:	81d8           	l32i.n	a13, a1, 32
    131a:	b1f8           	l32i.n	a15, a1, 44
    131c:	d1e8           	l32i.n	a14, a1, 52
    131e:	c1c8           	l32i.n	a12, a1, 48
    1320:	78c182        	addi	a8, a1, 120
    1323:	5408e4        	ae_lp24x2.i	aep0, a8, -16
    1326:	cc2b           	addi.n	a12, a12, 2
    1328:	ee2b           	addi.n	a14, a14, 2
    132a:	ff2b           	addi.n	a15, a15, 2
    132c:	b1f9           	s32i.n	a15, a1, 44
    132e:	d1e9           	s32i.n	a14, a1, 52
    1330:	c1c9           	s32i.n	a12, a1, 48
    1332:	fc2495ccdf 	{ sub	a12, a12, a13; ae_zeroq56	aeq0 }
    1337:	ea3c56        	bnez	a12, 11de <calc_amt+0x16a>

0000133a <calc_amt+0x2c6>:
    133a:	61a8           	l32i.n	a10, a1, 24
    133c:	fb6481        	l32r	a8, cc (ffc <inv_mel_filter>)
    133f:	41b8           	l32i.n	a11, a1, 16
    1341:	51c8           	l32i.n	a12, a1, 20
    1343:	0008e0        	callx8	a8
    1346:	f01d           	retw.n

00001348 <fn_ini_fb_noise_est>:
    1348:	004136        	entry	a1, 32
    134b:	02ad           	mov.n	a10, a2
    134d:	fb6081        	l32r	a8, d0 (8820 <xt_memset>)
    1350:	0b0c           	movi.n	a11, 0
    1352:	0ea2c2        	movi	a12, 0x20e
    1355:	0008e0        	callx8	a8
    1358:	03bd           	mov.n	a11, a3
    135a:	fb3481        	l32r	a8, 2c (8838 <xt_memcpy>)
    135d:	02ad           	mov.n	a10, a2
    135f:	cc0c           	movi.n	a12, 12
    1361:	0008e0        	callx8	a8
    1364:	18c292        	addi	a9, a2, 24
    1367:	00a1a2        	movi	a10, 0x100
    136a:	01a1b2        	movi	a11, 0x101
    136d:	02ab76        	loopgtz	a11, 1373 <fn_ini_fb_noise_est+0x2b>
    1370:	09e9a4        	ae_s32ip	a10, a9, 4

00001373 <fn_ini_fb_noise_est+0x2b>:
    1373:	f01d           	retw.n

00001375 <fn_ini_fb_noise_est+0x2d>:
    1375:	000000                                        ...

00001378 <fn_fb_noise_est>:
    1378:	004136        	entry	a1, 32
    137b:	50a304        	ae_lp24f.iu	aep2, a3, 0
    137e:	01a192        	movi	a9, 0x101
    1381:	80a0d2        	movi	a13, 128
    1384:	18c282        	addi	a8, a2, 24
    1387:	087d           	mov.n	a7, a8
    1389:	508704        	ae_lp24f.iu	aep0, a7, 0
    138c:	54ec           	bnez.n	a4, 13b5 <fn_fb_noise_est+0x3d>
    138e:	012262        	l32i	a6, a2, 4
    1391:	002242        	l32i	a4, a2, 0
    1394:	216860        	srai	a6, a6, 8
    1397:	214840        	srai	a4, a4, 8
    139a:	399464        	ae_movpa24x2	aep1, a4, a6
    139d:	11a976        	loopgtz	a9, 13b2 <fn_fb_noise_est+0x3a>
    13a0:	010144        	ae_mulfp24s.hh	aeq0, aep0, aep1
    13a3:	012134        	ae_mulafp24s.ll	aeq0, aep2, aep1
    13a6:	1b8d04        	ae_roundsp24q48asym	aep0, aeq0
    13a9:	528704        	ae_sp24f.l.iu	aep0, a7, 0
    13ac:	508714        	ae_lp24f.iu	aep0, a7, 4
    13af:	50a314        	ae_lp24f.iu	aep2, a3, 4

000013b2 <fn_fb_noise_est+0x3a>:
    13b2:	000d86        	j	13ec <fn_fb_noise_est+0x74>

000013b5 <fn_fb_noise_est+0x3d>:
    13b5:	22a8           	l32i.n	a10, a2, 8
    13b7:	80a0b2        	movi	a11, 128
    13ba:	81a092        	movi	a9, 129
    13bd:	21a8a0        	srai	a10, a10, 8
    13c0:	399aa4        	ae_movpa24x2	aep1, a10, a10
    13c3:	f03d           	nop.n
    13c5:	0ba976        	loopgtz	a9, 13d4 <fn_fb_noise_est+0x5c>
    13c8:	010944        	ae_mulfp24s.hh	aeq1, aep0, aep1
    13cb:	1b9d24        	ae_roundsp24q48asym	aep2, aeq1
    13ce:	52a704        	ae_sp24f.l.iu	aep2, a7, 0
    13d1:	508714        	ae_lp24f.iu	aep0, a7, 4

000013d4 <fn_fb_noise_est+0x5c>:
    13d4:	0322c2        	l32i	a12, a2, 12
    13d7:	21c8c0        	srai	a12, a12, 8
    13da:	399cc4        	ae_movpa24x2	aep1, a12, a12
    13dd:	0bab76        	loopgtz	a11, 13ec <fn_fb_noise_est+0x74>
    13e0:	018144        	ae_mulfp24s.hh	aeq2, aep0, aep1
    13e3:	1bad34        	ae_roundsp24q48asym	aep3, aeq2
    13e6:	52b704        	ae_sp24f.l.iu	aep3, a7, 0
    13e9:	508714        	ae_lp24f.iu	aep0, a7, 4

000013ec <fn_fb_noise_est+0x74>:
    13ec:	42e8           	l32i.n	a14, a2, 16
    13ee:	fcc532        	addi	a3, a5, -4
    13f1:	508804        	ae_lp24f.iu	aep0, a8, 0
    13f4:	21e8e0        	srai	a14, a14, 8
    13f7:	399ee4        	ae_movpa24x2	aep1, a14, a14
    13fa:	0ead76        	loopgtz	a13, 140c <fn_fb_noise_est+0x94>
    13fd:	018974        	ae_mulfp24s.ll	aeq3, aep0, aep1
    1400:	1bbd54        	ae_roundsp24q48asym	aep5, aeq3
    1403:	07d044        	ae_addsp24s	aep4, aep5, aep0
    1406:	52c314        	ae_sp24f.l.iu	aep4, a3, 4
    1409:	508814        	ae_lp24f.iu	aep0, a8, 4

0000140c <fn_fb_noise_est+0x94>:
    140c:	5248           	l32i.n	a4, a2, 20
    140e:	81a0f2        	movi	a15, 129
    1411:	214840        	srai	a4, a4, 8
    1414:	399444        	ae_movpa24x2	aep1, a4, a4
    1417:	0eaf76        	loopgtz	a15, 1429 <fn_fb_noise_est+0xb1>
    141a:	010174        	ae_mulfp24s.ll	aeq0, aep0, aep1
    141d:	1b8d74        	ae_roundsp24q48asym	aep7, aeq0
    1420:	07f064        	ae_addsp24s	aep6, aep7, aep0
    1423:	52e314        	ae_sp24f.l.iu	aep6, a3, 4
    1426:	508814        	ae_lp24f.iu	aep0, a8, 4
    1429:	f01d           	retw.n

0000142b <fn_fb_noise_est+0xb3>:
	...

0000142c <fn_ini_st_noise_est>:
    142c:	004136        	entry	a1, 32
    142f:	02ad           	mov.n	a10, a2
    1431:	fb2781        	l32r	a8, d0 (8820 <xt_memset>)
    1434:	0b0c           	movi.n	a11, 0
    1436:	5ea3c2        	movi	a12, 0x35e
    1439:	0008e0        	callx8	a8
    143c:	fb26a1        	l32r	a10, d4 (ffffb800 <_end+0xfffed060>)
    143f:	c80c           	movi.n	a8, 12
    1441:	98a4f2        	movi	a15, 0x498
    1444:	0b0c           	movi.n	a11, 0
    1446:	05d2d2        	addmi	a13, a2, 0x500
    1449:	07d2e2        	addmi	a14, a2, 0x700
    144c:	06d2c2        	addmi	a12, a2, 0x600
    144f:	6cccc2        	addi	a12, a12, 108
    1452:	90cee2        	addi	a14, a14, -112
    1455:	c8cdd2        	addi	a13, a13, -56
    1458:	9b2a           	add.n	a9, a11, a2
    145a:	99fa           	add.n	a9, a9, a15

0000145c <fn_ini_st_noise_est+0x30>:
    145c:	30cdd2        	addi	a13, a13, 48
    145f:	0ca9           	s32i.n	a10, a12, 0
    1461:	30cbb2        	addi	a11, a11, 48
    1464:	cc4b           	addi.n	a12, a12, 4
    1466:	02a876        	loopgtz	a8, 146c <fn_ini_st_noise_est+0x40>
    1469:	09e9a4        	ae_s32ip	a10, a9, 4

0000146c <fn_ini_st_noise_est+0x40>:
    146c:	c80c           	movi.n	a8, 12
    146e:	9b2a           	add.n	a9, a11, a2
    1470:	99fa           	add.n	a9, a9, a15
    1472:	e69ce7        	bne	a12, a14, 145c <fn_ini_st_noise_est+0x30>
    1475:	03bd           	mov.n	a11, a3
    1477:	faed81        	l32r	a8, 2c (8838 <xt_memcpy>)
    147a:	02ad           	mov.n	a10, a2
    147c:	4c1c           	movi.n	a12, 20
    147e:	0008e0        	callx8	a8
    1481:	28c292        	addi	a9, a2, 40
    1484:	00a1a2        	movi	a10, 0x100
    1487:	eda0b2        	movi	a11, 237
    148a:	02ab76        	loopgtz	a11, 1490 <fn_ini_st_noise_est+0x64>
    148d:	09e9a4        	ae_s32ip	a10, a9, 4
    1490:	f01d           	retw.n

00001492 <fn_ini_st_noise_est+0x66>:
	...

00001494 <fn_st_noise_est>:
    1494:	010136        	entry	a1, 128
    1497:	faf871        	l32r	a7, 78 (8000 <xtensa_fft8_32b+0x28>)
    149a:	060c           	movi.n	a6, 0
    149c:	f139           	s32i.n	a3, a1, 60
    149e:	03d282        	addmi	a8, a2, 0x300
    14a1:	049d           	mov.n	a9, a4
    14a3:	9a0c           	movi.n	a10, 9
    14a5:	05d2b2        	addmi	a11, a2, 0x500
    14a8:	b1b9           	s32i.n	a11, a1, 44
    14aa:	1361a2        	s32i	a10, a1, 76
    14ad:	fb0a41        	l32r	a4, d8 (e4e0 <sb_ptn>)
    14b0:	4199           	s32i.n	a9, a1, 16
    14b2:	c189           	s32i.n	a8, a1, 48
    14b4:	085d           	mov.n	a5, a8
    14b6:	430c           	movi.n	a3, 4
    14b8:	dd5b62        	s16i	a6, a11, 0x1ba
    14bb:	39b334        	ae_movpa24x2	aep3, a3, a3
    14be:	fc20c2488e 	{ addi	a8, a8, 36; ae_zerop48	aep1 }
    14c3:	156182        	s32i	a8, a1, 84

000014c6 <fn_st_noise_est+0x32>:
    14c6:	24dd           	ae_l16si.n	a13, a4, 0
    14c8:	34cd           	ae_l16si.n	a12, a4, 2
    14ca:	0f2192        	l32i	a9, a1, 60
    14cd:	006162        	s32i	a6, a1, 0
    14d0:	c0ccd0        	sub	a12, a12, a13
    14d3:	a09d90        	addx4	a9, a13, a9
    14d6:	50a904        	ae_lp24f.iu	aep2, a9, 0
    14d9:	0aac76        	loopgtz	a12, 14e7 <fn_st_noise_est+0x53>
    14dc:	07a324        	ae_addsp24s	aep2, aep2, aep3
    14df:	0f21a4        	ae_sraip24	aep2, aep2, 3
    14e2:	d8456ea91f 	{ ae_lp24f.iu	aep2, a9, 4; ae_addsp24s	aep1, aep1, aep2 }

000014e7 <fn_st_noise_est+0x53>:
    14e7:	521104        	ae_sp24f.l.i	aep1, a1, 0
    14ea:	01a8           	l32i.n	a10, a1, 0
    14ec:	faf481        	l32r	a8, bc (df0 <fxlog10>)
    14ef:	21a8a0        	srai	a10, a10, 8
    14f2:	0008e0        	callx8	a8
    14f5:	faf9c1        	l32r	a12, dc (6a4d <Voice_WB_TX_Inear_Prcs+0x48d>)
    14f8:	d1cac0        	mul16s	a12, a10, a12
    14fb:	5d2592        	l32i	a9, a5, 0x174
    14fe:	90cc70        	addx2	a12, a12, a7
    1501:	31c0c0        	srai	a12, a12, 16
    1504:	11ac00        	slli	a10, a12, 16
    1507:	4b65c2        	s32i	a12, a5, 0x12c
    150a:	228d           	ae_l16si.n	a8, a2, 0
    150c:	323d           	ae_l16si.n	a3, a2, 2
    150e:	31b0c0        	srai	a11, a12, 16
    1511:	7299c0        	salt	a9, a9, a12
    1514:	933890        	movnez	a3, a8, a9
    1517:	833d           	ae_sext16	a3, a3
    1519:	ff9ca5        	call8	ee4 <_saturate32>
    151c:	4b25e2        	l32i	a14, a5, 0x12c
    151f:	5d25d2        	l32i	a13, a5, 0x174
    1522:	1061a2        	s32i	a10, a1, 64
    1525:	c0ade0        	sub	a10, a13, a14
    1528:	ff99e5        	call8	ec8 <_saturate16>
    152b:	1021c2        	l32i	a12, a1, 64
    152e:	d1d3a0        	mul16s	a13, a3, a10
    1531:	90adc0        	addx2	a10, a13, a12
    1534:	62bac0        	saltu	a11, a10, a12
    1537:	11ddf0        	slli	a13, a13, 1
    153a:	31dfd0        	srai	a13, a13, 31
    153d:	31cfc0        	srai	a12, a12, 31
    1540:	ccda           	add.n	a12, a12, a13
    1542:	bbca           	add.n	a11, a11, a12
    1544:	ff99e5        	call8	ee4 <_saturate32>
    1547:	5425c2        	l32i	a12, a5, 0x150
    154a:	4b2592        	l32i	a9, a5, 0x12c
    154d:	da7a           	add.n	a13, a10, a7
    154f:	31d0d0        	srai	a13, a13, 16
    1552:	5d65d2        	s32i	a13, a5, 0x174
    1555:	029282        	l16si	a8, a2, 4
    1558:	039232        	l16si	a3, a2, 6
    155b:	31b090        	srai	a11, a9, 16
    155e:	11a900        	slli	a10, a9, 16
    1561:	7299c0        	salt	a9, a9, a12
    1564:	933890        	movnez	a3, a8, a9
    1567:	833d           	ae_sext16	a3, a3
    1569:	ff97a5        	call8	ee4 <_saturate32>
    156c:	4b25f2        	l32i	a15, a5, 0x12c
    156f:	5425e2        	l32i	a14, a5, 0x150
    1572:	1161a2        	s32i	a10, a1, 68
    1575:	c0aef0        	sub	a10, a14, a15
    1578:	ff94e5        	call8	ec8 <_saturate16>
    157b:	1121c2        	l32i	a12, a1, 68
    157e:	d1d3a0        	mul16s	a13, a3, a10
    1581:	90adc0        	addx2	a10, a13, a12
    1584:	62bac0        	saltu	a11, a10, a12
    1587:	11ddf0        	slli	a13, a13, 1
    158a:	31dfd0        	srai	a13, a13, 31
    158d:	31cfc0        	srai	a12, a12, 31
    1590:	ccda           	add.n	a12, a12, a13
    1592:	bbca           	add.n	a11, a11, a12
    1594:	ff94e5        	call8	ee4 <_saturate32>
    1597:	ba7a           	add.n	a11, a10, a7
    1599:	430c           	movi.n	a3, 4
    159b:	5d25a2        	l32i	a10, a5, 0x174
    159e:	31b0b0        	srai	a11, a11, 16
    15a1:	5465b2        	s32i	a11, a5, 0x150
    15a4:	c0aab0        	sub	a10, a10, a11
    15a7:	ff9225        	call8	ec8 <_saturate16>
    15aa:	0492c2        	l16si	a12, a2, 8
    15ad:	11aca7        	bge	a12, a10, 15c2 <fn_st_noise_est+0x12e>
    15b0:	b1b8           	l32i.n	a11, a1, 44
    15b2:	0592a2        	l16si	a10, a2, 10
    15b5:	dd9bb2        	l16si	a11, a11, 0x1ba
    15b8:	aaba           	add.n	a10, a10, a11
    15ba:	ff90e5        	call8	ec8 <_saturate16>
    15bd:	b1c8           	l32i.n	a12, a1, 44
    15bf:	dd5ca2        	s16i	a10, a12, 0x1ba

000015c2 <fn_st_noise_est+0x12e>:
    15c2:	554b           	addi.n	a5, a5, 4
    15c4:	1321d2        	l32i	a13, a1, 76
    15c7:	442b           	addi.n	a4, a4, 2
    15c9:	39b334        	ae_movpa24x2	aep3, a3, a3
    15cc:	fc20cffdde 	{ addi	a13, a13, -1; ae_zerop48	aep1 }
    15d1:	1361d2        	s32i	a13, a1, 76
    15d4:	eeed56        	bnez	a13, 14c6 <fn_st_noise_est+0x32>
    15d7:	c158           	l32i.n	a5, a1, 48
    15d9:	069282        	l16si	a8, a2, 12
    15dc:	b1a8           	l32i.n	a10, a1, 44
    15de:	090c           	movi.n	a9, 0
    15e0:	9b0c           	movi.n	a11, 9
    15e2:	dd9aa2        	l16si	a10, a10, 0x1ba
    15e5:	079232        	l16si	a3, a2, 14
    15e8:	1461b2        	s32i	a11, a1, 80
    15eb:	7299a0        	salt	a9, a9, a10
    15ee:	933890        	movnez	a3, a8, a9
    15f1:	833d           	ae_sext16	a3, a3

000015f3 <fn_st_noise_est+0x15f>:
    15f3:	4b25a2        	l32i	a10, a5, 0x12c
    15f6:	b148           	l32i.n	a4, a1, 44
    15f8:	404010        	ssai	16
    15fb:	31bfa0        	srai	a11, a10, 31
    15fe:	81bba0        	src	a11, a11, a10
    1601:	11aa00        	slli	a10, a10, 16
    1604:	ff8de5        	call8	ee4 <_saturate32>
    1607:	4b25d2        	l32i	a13, a5, 0x12c
    160a:	d225c2        	l32i	a12, a5, 0x348
    160d:	1261a2        	s32i	a10, a1, 72
    1610:	c0acd0        	sub	a10, a12, a13
    1613:	ff8b65        	call8	ec8 <_saturate16>
    1616:	d1a3a0        	mul16s	a10, a3, a10
    1619:	1221e2        	l32i	a14, a1, 72
    161c:	e1e9           	s32i.n	a14, a1, 56
    161e:	11daf0        	slli	a13, a10, 1
    1621:	31dfd0        	srai	a13, a13, 31
    1624:	31cfe0        	srai	a12, a14, 31
    1627:	d1c9           	s32i.n	a12, a1, 52
    1629:	90aae0        	addx2	a10, a10, a14
    162c:	62bae0        	saltu	a11, a10, a14
    162f:	ccda           	add.n	a12, a12, a13
    1631:	bbca           	add.n	a11, a11, a12
    1633:	ff8b25        	call8	ee4 <_saturate32>
    1636:	faaab1        	l32r	a11, e0 (ffff8400 <_end+0xfffe9c60>)
    1639:	ca7a           	add.n	a12, a10, a7
    163b:	31c0c0        	srai	a12, a12, 16
    163e:	2d2cb7        	blt	a12, a11, 166f <fn_st_noise_est+0x1db>
    1641:	4b25b2        	l32i	a11, a5, 0x12c
    1644:	d225a2        	l32i	a10, a5, 0x348
    1647:	c0aab0        	sub	a10, a10, a11
    164a:	ff87e5        	call8	ec8 <_saturate16>
    164d:	e1b8           	l32i.n	a11, a1, 56
    164f:	d1d3a0        	mul16s	a13, a3, a10
    1652:	d1c8           	l32i.n	a12, a1, 52
    1654:	90adb0        	addx2	a10, a13, a11
    1657:	62bab0        	saltu	a11, a10, a11
    165a:	11ddf0        	slli	a13, a13, 1
    165d:	31dfd0        	srai	a13, a13, 31
    1660:	ccda           	add.n	a12, a12, a13
    1662:	bbca           	add.n	a11, a11, a12
    1664:	ff87e5        	call8	ee4 <_saturate32>
    1667:	9a7a           	add.n	a9, a10, a7
    1669:	319090        	srai	a9, a9, 16
    166c:	000086        	j	1672 <fn_st_noise_est+0x1de>

0000166f <fn_st_noise_est+0x1db>:
    166f:	fa9c91        	l32r	a9, e0 (ffff8400 <_end+0xfffe9c60>)

00001672 <fn_st_noise_est+0x1de>:
    1672:	1421a2        	l32i	a10, a1, 80
    1675:	d26592        	s32i	a9, a5, 0x348
    1678:	554b           	addi.n	a5, a5, 4
    167a:	aa0b           	addi.n	a10, a10, -1
    167c:	1461a2        	s32i	a10, a1, 80
    167f:	f70a56        	bnez	a10, 15f3 <fn_st_noise_est+0x15f>
    1682:	da9492        	l16si	a9, a4, 0x1b4
    1685:	991b           	addi.n	a9, a9, 1
    1687:	899d           	ae_sext16	a9, a9
    1689:	da5492        	s16i	a9, a4, 0x1b4
    168c:	04a9a6        	blti	a9, 12, 1694 <fn_st_noise_est+0x200>
    168f:	da5462        	s16i	a6, a4, 0x1b4
    1692:	090c           	movi.n	a9, 0

00001694 <fn_st_noise_est+0x200>:
    1694:	9ca2a2        	movi	a10, 0x29c
    1697:	0b0956        	bnez	a9, 174b <fn_st_noise_est+0x2b7>
    169a:	db94b2        	l16si	a11, a4, 0x1b6
    169d:	bb1b           	addi.n	a11, a11, 1
    169f:	8bbd           	ae_sext16	a11, a11
    16a1:	db54b2        	s16i	a11, a4, 0x1b6
    16a4:	02aba6        	blti	a11, 12, 16aa <fn_st_noise_est+0x216>
    16a7:	db5462        	s16i	a6, a4, 0x1b6

000016aa <fn_st_noise_est+0x216>:
    16aa:	c158           	l32i.n	a5, a1, 48
    16ac:	03d2d2        	addmi	a13, a2, 0x300
    16af:	9c0c           	movi.n	a12, 9
    16b1:	e1ab           	addi.n	a14, a1, 10
    16b3:	0f0c           	movi.n	a15, 0
    16b5:	91f9           	s32i.n	a15, a1, 36
    16b7:	71e9           	s32i.n	a14, a1, 28
    16b9:	61c9           	s32i.n	a12, a1, 24
    16bb:	9ccdd2        	addi	a13, a13, -100
    16be:	81d9           	s32i.n	a13, a1, 32

000016c0 <fn_st_noise_est+0x22c>:
    16c0:	8188           	l32i.n	a8, a1, 32
    16c2:	fa6691        	l32r	a9, 5c (7fff <xtensa_fft8_32b+0x27>)
    16c5:	065192        	s16i	a9, a1, 12
    16c8:	7f2882        	l32i	a8, a8, 0x1fc
    16cb:	075182        	s16i	a8, a1, 14
    16ce:	9188           	l32i.n	a8, a1, 36
    16d0:	055192        	s16i	a9, a1, 10
    16d3:	045192        	s16i	a9, a1, 8
    16d6:	381b           	addi.n	a3, a8, 1
    16d8:	a03320        	addx4	a3, a3, a2
    16db:	88cb           	addi.n	a8, a8, 12
    16dd:	5189           	s32i.n	a8, a1, 20
    16df:	03d332        	addmi	a3, a3, 0x300
    16e2:	9cc332        	addi	a3, a3, -100
    16e5:	a08820        	addx4	a8, a8, a2
    16e8:	03d882        	addmi	a8, a8, 0x300
    16eb:	9cc882        	addi	a8, a8, -100
    16ee:	a189           	s32i.n	a8, a1, 40

000016f0 <fn_st_noise_est+0x25c>:
    16f0:	0791b2        	l16si	a11, a1, 14
    16f3:	7f23a2        	l32i	a10, a3, 0x1fc
    16f6:	14aab7        	bge	a10, a11, 170e <fn_st_noise_est+0x27a>
    16f9:	a18b           	addi.n	a10, a1, 8
    16fb:	fa4c81        	l32r	a8, 2c (8838 <xt_memcpy>)
    16fe:	71b8           	l32i.n	a11, a1, 28
    1700:	3c0c           	movi.n	a12, 3
    1702:	0008e0        	callx8	a8
    1705:	7f2392        	l32i	a9, a3, 0x1fc
    1708:	075192        	s16i	a9, a1, 14
    170b:	000c86        	j	1741 <fn_st_noise_est+0x2ad>

0000170e <fn_st_noise_est+0x27a>:
    170e:	0691b2        	l16si	a11, a1, 12
    1711:	0591c2        	l16si	a12, a1, 10
    1714:	14aab7        	bge	a10, a11, 172c <fn_st_noise_est+0x298>
    1717:	a18b           	addi.n	a10, a1, 8
    1719:	fa4481        	l32r	a8, 2c (8838 <xt_memcpy>)
    171c:	71b8           	l32i.n	a11, a1, 28
    171e:	2c0c           	movi.n	a12, 2
    1720:	0008e0        	callx8	a8
    1723:	7f2392        	l32i	a9, a3, 0x1fc
    1726:	065192        	s16i	a9, a1, 12
    1729:	000506        	j	1741 <fn_st_noise_est+0x2ad>

0000172c <fn_st_noise_est+0x298>:
    172c:	08aac7        	bge	a10, a12, 1738 <fn_st_noise_est+0x2a4>
    172f:	0451c2        	s16i	a12, a1, 8
    1732:	0551a2        	s16i	a10, a1, 10
    1735:	000206        	j	1741 <fn_st_noise_est+0x2ad>

00001738 <fn_st_noise_est+0x2a4>:
    1738:	0491b2        	l16si	a11, a1, 8
    173b:	43bab0        	min	a11, a10, a11
    173e:	0451b2        	s16i	a11, a1, 8
    1741:	a1c8           	l32i.n	a12, a1, 40
    1743:	334b           	addi.n	a3, a3, 4
    1745:	a793c7        	bne	a3, a12, 16f0 <fn_st_noise_est+0x25c>
    1748:	005486        	j	189e <fn_st_noise_est+0x40a>

0000174b <fn_st_noise_est+0x2b7>:
    174b:	c158           	l32i.n	a5, a1, 48
    174d:	090c           	movi.n	a9, 0
    174f:	9d0c           	movi.n	a13, 9
    1751:	19ad76        	loopgtz	a13, 176e <fn_st_noise_est+0x2da>
    1754:	db94f2        	l16si	a15, a4, 0x1b6
    1757:	d22582        	l32i	a8, a5, 0x348
    175a:	ff9a           	add.n	a15, a15, a9
    175c:	a0ff20        	addx4	a15, a15, a2
    175f:	ffaa           	add.n	a15, a15, a10
    1761:	7f2fe2        	l32i	a14, a15, 0x1fc
    1764:	554b           	addi.n	a5, a5, 4
    1766:	99cb           	addi.n	a9, a9, 12
    1768:	43ee80        	min	a14, a14, a8
    176b:	7f6fe2        	s32i	a14, a15, 0x1fc

0000176e <fn_st_noise_est+0x2da>:
    176e:	c158           	l32i.n	a5, a1, 48
    1770:	030c           	movi.n	a3, 0

00001772 <fn_st_noise_est+0x2de>:
    1772:	db25b2        	l32i	a11, a5, 0x36c
    1775:	d225a2        	l32i	a10, a5, 0x348
    1778:	c0aab0        	sub	a10, a10, a11
    177b:	ff74e5        	call8	ec8 <_saturate16>
    177e:	fa59b1        	l32r	a11, e4 (e39 <fxlog10+0x49>)
    1781:	d1aab0        	mul16s	a10, a10, a11
    1784:	90aa70        	addx2	a10, a10, a7
    1787:	31a0a0        	srai	a10, a10, 16
    178a:	a3aa           	add.n	a10, a3, a10
    178c:	ff73a5        	call8	ec8 <_saturate16>
    178f:	1521c2        	l32i	a12, a1, 84
    1792:	0a3d           	mov.n	a3, a10
    1794:	554b           	addi.n	a5, a5, 4
    1796:	d895c7        	bne	a5, a12, 1772 <fn_st_noise_est+0x2de>
    1799:	c158           	l32i.n	a5, a1, 48
    179b:	fa5371        	l32r	a7, e8 (e520 <vad_thrd_bands>)
    179e:	fa5331        	l32r	a3, ec (e500 <score_bands>)
    17a1:	06dd           	mov.n	a13, a6
    17a3:	099792        	l16si	a9, a7, 18
    17a6:	0f0c           	movi.n	a15, 0
    17a8:	fa2de1        	l32r	a14, 5c (7fff <xtensa_fft8_32b+0x27>)
    17ab:	c08a90        	sub	a8, a10, a9
    17ae:	72ff80        	salt	a15, a15, a8
    17b1:	93def0        	movnez	a13, a14, a15
    17b4:	dc54d2        	s16i	a13, a4, 0x1b8

000017b7 <fn_st_noise_est+0x323>:
    17b7:	db25b2        	l32i	a11, a5, 0x36c
    17ba:	d225a2        	l32i	a10, a5, 0x348
    17bd:	c0aab0        	sub	a10, a10, a11
    17c0:	ff7065        	call8	ec8 <_saturate16>
    17c3:	27cd           	ae_l16si.n	a12, a7, 0
    17c5:	c0aac0        	sub	a10, a10, a12
    17c8:	ff6fe5        	call8	ec8 <_saturate16>
    17cb:	e465a2        	s32i	a10, a5, 0x390
    17ce:	0c1aa6        	blti	a10, 1, 17de <fn_st_noise_est+0x34a>
    17d1:	dc94b2        	l16si	a11, a4, 0x1b8
    17d4:	23ad           	ae_l16si.n	a10, a3, 0
    17d6:	aaba           	add.n	a10, a10, a11
    17d8:	ff6ee5        	call8	ec8 <_saturate16>
    17db:	dc54a2        	s16i	a10, a4, 0x1b8

000017de <fn_st_noise_est+0x34a>:
    17de:	332b           	addi.n	a3, a3, 2
    17e0:	1521c2        	l32i	a12, a1, 84
    17e3:	772b           	addi.n	a7, a7, 2
    17e5:	554b           	addi.n	a5, a5, 4
    17e7:	cc95c7        	bne	a5, a12, 17b7 <fn_st_noise_est+0x323>
    17ea:	0892d2        	l16si	a13, a2, 16
    17ed:	dc94a2        	l16si	a10, a4, 0x1b8
    17f0:	70aad7        	bge	a10, a13, 1864 <fn_st_noise_est+0x3d0>
    17f3:	0a92e2        	l16si	a14, a2, 20
    17f6:	042ea7        	blt	a14, a10, 17fe <fn_st_noise_est+0x36a>
    17f9:	6298           	l32i.n	a9, a2, 24
    17fb:	000306        	j	180b <fn_st_noise_est+0x377>

000017fe <fn_st_noise_est+0x36a>:
    17fe:	72f8           	l32i.n	a15, a2, 28
    1800:	099282        	l16si	a8, a2, 18
    1803:	8298           	l32i.n	a9, a2, 32
    1805:	c088a0        	sub	a8, a8, a10
    1808:	b39f80        	movgez	a9, a15, a8

0000180b <fn_st_noise_est+0x377>:
    180b:	c158           	l32i.n	a5, a1, 48
    180d:	fa3241        	l32r	a4, d8 (e4e0 <sb_ptn>)
    1810:	21c890        	srai	a12, a9, 8
    1813:	00afd2        	movi	a13, 0xffffff00

00001816 <fn_st_noise_est+0x382>:
    1816:	e42592        	l32i	a9, a5, 0x390
    1819:	04c552        	addi	a5, a5, 4
    181c:	3c19e6        	bgei	a9, 1, 185c <fn_st_noise_est+0x3c8>
    181f:	368d34        	ae_cvtq48a32s	aeq2, a13
    1822:	399cc4        	ae_movpa24x2	aep1, a12, a12
    1825:	24fd           	ae_l16si.n	a15, a4, 0
    1827:	34ed           	ae_l16si.n	a14, a4, 2
    1829:	0f21a2        	l32i	a10, a1, 60
    182c:	a09f20        	addx4	a9, a15, a2
    182f:	c0eef0        	sub	a14, a14, a15
    1832:	24c9b2        	addi	a11, a9, 36
    1835:	a0afa0        	addx4	a10, a15, a10
    1838:	605a04        	ae_lq32f.iu	aeq1, a10, 0
    183b:	28c992        	addi	a9, a9, 40
    183e:	601904        	ae_lq32f.iu	aeq0, a9, 0
    1841:	17ae76        	loopgtz	a14, 185c <fn_st_noise_est+0x3c8>
    1844:	01e1e4        	ae_andq56	aeq3, aeq1, aeq2
    1847:	010fc4        	ae_subq56	aeq0, aeq0, aeq3
    184a:	098c44        	ae_truncp24q48x2	aep4, aeq0, aeq0
    184d:	014934        	ae_mulafp24s.ll	aeq1, aep4, aep1
    1850:	1b9d34        	ae_roundsp24q48asym	aep3, aeq1
    1853:	52bb14        	ae_sp24f.l.iu	aep3, a11, 4
    1856:	605a14        	ae_lq32f.iu	aeq1, a10, 4
    1859:	601914        	ae_lq32f.iu	aeq0, a9, 4
    185c:	1521b2        	l32i	a11, a1, 84
    185f:	442b           	addi.n	a4, a4, 2
    1861:	b195b7        	bne	a5, a11, 1816 <fn_st_noise_est+0x382>

00001864 <fn_st_noise_est+0x3d0>:
    1864:	eda0c2        	movi	a12, 237
    1867:	92b8           	l32i.n	a11, a2, 36
    1869:	41a8           	l32i.n	a10, a1, 16
    186b:	28c292        	addi	a9, a2, 40
    186e:	508904        	ae_lp24f.iu	aep0, a9, 0
    1871:	fccaa2        	addi	a10, a10, -4
    1874:	21b8b0        	srai	a11, a11, 8
    1877:	39abb4        	ae_movpa24x2	aep2, a11, a11
    187a:	0eac76        	loopgtz	a12, 188c <fn_st_noise_est+0x3f8>
    187d:	010274        	ae_mulfp24s.ll	aeq0, aep0, aep2
    1880:	1b8d64        	ae_roundsp24q48asym	aep6, aeq0
    1883:	07e054        	ae_addsp24s	aep5, aep6, aep0
    1886:	52da14        	ae_sp24f.l.iu	aep5, a10, 4
    1889:	508914        	ae_lp24f.iu	aep0, a9, 4

0000188c <fn_st_noise_est+0x3f8>:
    188c:	4198           	l32i.n	a9, a1, 16
    188e:	4c1c           	movi.n	a12, 20
    1890:	04d992        	addmi	a9, a9, 0x400
    1893:	b4c992        	addi	a9, a9, -76
    1896:	02ac76        	loopgtz	a12, 189c <fn_st_noise_est+0x408>
    1899:	09e964        	ae_s32ip	a6, a9, 4
    189c:	f01d           	retw.n

0000189e <fn_st_noise_est+0x40a>:
    189e:	0591a2        	l16si	a10, a1, 10
    18a1:	0491b2        	l16si	a11, a1, 8
    18a4:	31dfa0        	srai	a13, a10, 31
    18a7:	31cfb0        	srai	a12, a11, 31
    18aa:	abaa           	add.n	a10, a11, a10
    18ac:	ccda           	add.n	a12, a12, a13
    18ae:	62bab0        	saltu	a11, a10, a11
    18b1:	bbca           	add.n	a11, a11, a12
    18b3:	ff6325        	call8	ee4 <_saturate32>
    18b6:	0691b2        	l16si	a11, a1, 12
    18b9:	31dfa0        	srai	a13, a10, 31
    18bc:	31cfb0        	srai	a12, a11, 31
    18bf:	ccda           	add.n	a12, a12, a13
    18c1:	abaa           	add.n	a10, a11, a10
    18c3:	62bab0        	saltu	a11, a10, a11
    18c6:	bbca           	add.n	a11, a11, a12
    18c8:	ff61a5        	call8	ee4 <_saturate32>
    18cb:	0791b2        	l16si	a11, a1, 14
    18ce:	31dfa0        	srai	a13, a10, 31
    18d1:	31cfb0        	srai	a12, a11, 31
    18d4:	ccda           	add.n	a12, a12, a13
    18d6:	abaa           	add.n	a10, a11, a10
    18d8:	62bab0        	saltu	a11, a10, a11
    18db:	bbca           	add.n	a11, a11, a12
    18dd:	ff6065        	call8	ee4 <_saturate32>
    18e0:	5138           	l32i.n	a3, a1, 20
    18e2:	404200        	ssai	2
    18e5:	31cfa0        	srai	a12, a10, 31
    18e8:	ba2b           	addi.n	a11, a10, 2
    18ea:	62aba0        	saltu	a10, a11, a10
    18ed:	aaca           	add.n	a10, a10, a12
    18ef:	81aab0        	src	a10, a10, a11
    18f2:	ff5d65        	call8	ec8 <_saturate16>
    18f5:	61d8           	l32i.n	a13, a1, 24
    18f7:	8188           	l32i.n	a8, a1, 32
    18f9:	d225e2        	l32i	a14, a5, 0x348
    18fc:	db65a2        	s32i	a10, a5, 0x36c
    18ff:	db94f2        	l16si	a15, a4, 0x1b6
    1902:	554b           	addi.n	a5, a5, 4
    1904:	30c882        	addi	a8, a8, 48
    1907:	dd0b           	addi.n	a13, a13, -1
    1909:	8189           	s32i.n	a8, a1, 32
    190b:	9188           	l32i.n	a8, a1, 36
    190d:	61d9           	s32i.n	a13, a1, 24
    190f:	9139           	s32i.n	a3, a1, 36
    1911:	ff8a           	add.n	a15, a15, a8
    1913:	a0ff20        	addx4	a15, a15, a2
    1916:	03dff2        	addmi	a15, a15, 0x300
    1919:	9ccff2        	addi	a15, a15, -100
    191c:	7f6fe2        	s32i	a14, a15, 0x1fc
    191f:	d9dd56        	bnez	a13, 16c0 <fn_st_noise_est+0x22c>
    1922:	ff9206        	j	176e <fn_st_noise_est+0x2da>

00001925 <fn_st_noise_est+0x491>:
    1925:	000000                                        ...

00001928 <fn_ini_analysis_frame>:
    1928:	004136        	entry	a1, 32
    192b:	02ad           	mov.n	a10, a2
    192d:	f9e881        	l32r	a8, d0 (8820 <xt_memset>)
    1930:	0b0c           	movi.n	a11, 0
    1932:	c8a3c2        	movi	a12, 0x3c8
    1935:	0008e0        	callx8	a8
    1938:	07d292        	addmi	a9, a2, 0x700
    193b:	226932        	s32i	a3, a9, 136
    193e:	f01d           	retw.n

00001940 <fn_analysis_frame>:
    1940:	004136        	entry	a1, 32
    1943:	78a0c2        	movi	a12, 120
    1946:	06d2a2        	addmi	a10, a2, 0x600
    1949:	622aa2        	l32i	a10, a10, 0x188
    194c:	04d292        	addmi	a9, a2, 0x400
    194f:	c4c992        	addi	a9, a9, -60
    1952:	08da72        	addmi	a7, a10, 0x800
    1955:	571566        	bnei	a5, 1, 19b0 <fn_analysis_frame+0x70>
    1958:	301664        	ae_cvtp24a16x2.ll	aep1, a6, a6
    195b:	44a304        	ae_lp16x2f.iu	aep2, a3, 0
    195e:	12b8           	l32i.n	a11, a2, 4
    1960:	0022d2        	l32i	a13, a2, 0
    1963:	f9e3f1        	l32r	a15, f0 (15cc64 <_end+0x14e4c4>)
    1966:	f9e3e1        	l32r	a14, f4 (7af1aa <_end+0x7a0a0a>)
    1969:	39cef4        	ae_movpa24x2	aep4, a14, a15
    196c:	21d8d0        	srai	a13, a13, 8
    196f:	21b8b0        	srai	a11, a11, 8
    1972:	398bd4        	ae_movpa24x2	aep0, a11, a13
    1975:	2eac76        	loopgtz	a12, 19a7 <fn_analysis_frame+0x67>
    1978:	0a8a84        	ae_cvtq48p24s.h	aeq2, aep2
    197b:	ff4c3e20cf 	{ ae_selp24.hh	aep3, aep2, aep0; ae_cvtq48p24s.l	aeq3, aep2 }
    1980:	05cb84        	ae_mulsafp24s.hh.ll	aeq3, aep4, aep3
    1983:	05c084        	ae_mulsafp24s.hh.ll	aeq2, aep4, aep0
    1986:	063934        	ae_roundsq32asym	aeq0, aeq3
    1989:	066934        	ae_roundsq32asym	aeq1, aeq2
    198c:	031a54        	ae_mulfq32sp16s.l	aeq1, aeq1, aep1
    198f:	031214        	ae_mulfq32sp16s.l	aeq0, aeq0, aep1
    1992:	36d114        	ae_sllisq56s	aeq3, aeq1, 4
    1995:	fe3c7ac14f 	{ ae_sllisq56s	aeq1, aeq0, 4; ae_roundsq32asym	aeq2, aeq3 }
    199a:	fc2c79e91f 	{ ae_sq32f.iu	aeq2, a9, 4; ae_roundsq32asym	aeq0, aeq1 }
    199f:	624914        	ae_sq32f.iu	aeq0, a9, 4
    19a2:	dc49ada31f 	{ ae_lp16x2f.iu	aep2, a3, 4; ae_selp24.lh	aep0, aep2, aep2 }

000019a7 <fn_analysis_frame+0x67>:
    19a7:	1a80c4        	ae_selp24.lh	aep4, aep0, aep0
    19aa:	5e4204        	ae_sp24x2f.i	aep4, a2, 0
    19ad:	0009c6        	j	19d8 <fn_analysis_frame+0x98>

000019b0 <fn_analysis_frame+0x70>:
    19b0:	fcc3b2        	addi	a11, a3, -4
    19b3:	301664        	ae_cvtp24a16x2.ll	aep1, a6, a6
    19b6:	1eac76        	loopgtz	a12, 19d8 <fn_analysis_frame+0x98>
    19b9:	44db14        	ae_lp16x2f.iu	aep5, a11, 4
    19bc:	0a0584        	ae_cvtq48p24s.l	aeq0, aep5
    19bf:	0a4d84        	ae_cvtq48p24s.h	aeq1, aep5
    19c2:	031a54        	ae_mulfq32sp16s.l	aeq1, aeq1, aep1
    19c5:	031214        	ae_mulfq32sp16s.l	aeq0, aeq0, aep1
    19c8:	36d114        	ae_sllisq56s	aeq3, aeq1, 4
    19cb:	fe3c7ac14f 	{ ae_sllisq56s	aeq1, aeq0, 4; ae_roundsq32asym	aeq2, aeq3 }
    19d0:	fc2c79e91f 	{ ae_sq32f.iu	aeq2, a9, 4; ae_roundsq32asym	aeq0, aeq1 }
    19d5:	624914        	ae_sq32f.iu	aeq0, a9, 4

000019d8 <fn_analysis_frame+0x98>:
    19d8:	fccac2        	addi	a12, a10, -4
    19db:	0e2c           	movi.n	a14, 32
    19dd:	f0a0d2        	movi	a13, 240
    19e0:	f9c691        	l32r	a9, f8 (b4c0 <window>)
    19e3:	328b           	addi.n	a3, a2, 8
    19e5:	03bd           	mov.n	a11, a3
    19e7:	601b04        	ae_lq32f.iu	aeq0, a11, 0
    19ea:	448904        	ae_lp16x2f.iu	aep0, a9, 0
    19ed:	1aad76        	loopgtz	a13, 1a0b <fn_analysis_frame+0xcb>
    19f0:	030a04        	ae_mulfq32sp16s.h	aeq1, aeq0, aep0
    19f3:	061934        	ae_roundsq32asym	aeq0, aeq1
    19f6:	624c14        	ae_sq32f.iu	aeq0, a12, 4
    19f9:	60db14        	ae_lq32f.iu	aeq3, a11, 4
    19fc:	038ad4        	ae_mulfq32sp16s.l	aeq3, aeq3, aep0
    19ff:	06b934        	ae_roundsq32asym	aeq2, aeq3
    1a02:	626c14        	ae_sq32f.iu	aeq2, a12, 4
    1a05:	601b14        	ae_lq32f.iu	aeq0, a11, 4
    1a08:	448914        	ae_lp16x2f.iu	aep0, a9, 4

00001a0b <fn_analysis_frame+0xcb>:
    1a0b:	0b0c           	movi.n	a11, 0
    1a0d:	08da92        	addmi	a9, a10, 0x800
    1a10:	80c992        	addi	a9, a9, -128
    1a13:	f03d           	nop.n
    1a15:	02ae76        	loopgtz	a14, 1a1b <fn_analysis_frame+0xdb>
    1a18:	09e9b4        	ae_s32ip	a11, a9, 4
    1a1b:	f9b881        	l32r	a8, fc (4d38 <real_512_fft>)
    1a1e:	07bd           	mov.n	a11, a7
    1a20:	0008e0        	callx8	a8
    1a23:	f8c4b2        	addi	a11, a4, -8
    1a26:	01a1c2        	movi	a12, 0x101
    1a29:	fccaa2        	addi	a10, a10, -4
    1a2c:	079d           	mov.n	a9, a7
    1a2e:	5c8904        	ae_lp24x2f.iu	aep0, a9, 0
    1a31:	8aad           	ae_sext16	a10, a10
    1a33:	111aa6        	blti	a10, 1, 1a48 <fn_analysis_frame+0x108>
    1a36:	0316a4        	wur.ae_sar	a10
    1a39:	08ac76        	loopgtz	a12, 1a45 <fn_analysis_frame+0x105>
    1a3c:	0b00e4        	ae_sllssp24s	aep6, aep0
    1a3f:	5eeb14        	ae_sp24x2f.iu	aep6, a11, 8
    1a42:	5c8914        	ae_lp24x2f.iu	aep0, a9, 8
    1a45:	000446        	j	1a5a <fn_analysis_frame+0x11a>

00001a48 <fn_analysis_frame+0x108>:
    1a48:	60e0a0        	neg	a14, a10
    1a4b:	0316e4        	wur.ae_sar	a14
    1a4e:	08ac76        	loopgtz	a12, 1a5a <fn_analysis_frame+0x11a>
    1a51:	0b03f4        	ae_srasp24	aep7, aep0
    1a54:	5efb14        	ae_sp24x2f.iu	aep7, a11, 8
    1a57:	5c8914        	ae_lp24x2f.iu	aep0, a9, 8

00001a5a <fn_analysis_frame+0x11a>:
    1a5a:	03ad           	mov.n	a10, a3
    1a5c:	e0a1c2        	movi	a12, 0x1e0
    1a5f:	f97381        	l32r	a8, 2c (8838 <xt_memcpy>)
    1a62:	04d2b2        	addmi	a11, a2, 0x400
    1a65:	c8cbb2        	addi	a11, a11, -56
    1a68:	0008e0        	callx8	a8
    1a6b:	f01d           	retw.n

00001a6d <fn_analysis_frame+0x12d>:
    1a6d:	000000                                        ...

00001a70 <fn_analysis_frame_32>:
    1a70:	008136        	entry	a1, 64
    1a73:	4149           	s32i.n	a4, a1, 16
    1a75:	f0a0e2        	movi	a14, 240
    1a78:	029d           	mov.n	a9, a2
    1a7a:	850b           	addi.n	a8, a5, -1
    1a7c:	062d           	mov.n	a2, a6
    1a7e:	0199           	s32i.n	a9, a1, 0
    1a80:	04d9a2        	addmi	a10, a9, 0x400
    1a83:	06d9c2        	addmi	a12, a9, 0x600
    1a86:	622cc2        	l32i	a12, a12, 0x188
    1a89:	c8ca72        	addi	a7, a10, -56
    1a8c:	61c9           	s32i.n	a12, a1, 24
    1a8e:	08dcb2        	addmi	a11, a12, 0x800
    1a91:	31b9           	s32i.n	a11, a1, 12
    1a93:	217856        	bnez	a8, 1cae <fn_analysis_frame_32+0x23e>
    1a96:	03f8           	l32i.n	a15, a3, 0
    1a98:	404f10        	ssai	31
    1a9b:	f995e1        	l32r	a14, f0 (15cc64 <_end+0x14e4c4>)
    1a9e:	09d8           	l32i.n	a13, a9, 0
    1aa0:	1958           	l32i.n	a5, a9, 4
    1aa2:	f99461        	l32r	a6, f4 (7af1aa <_end+0x7a0a0a>)
    1aa5:	21d8d0        	srai	a13, a13, 8
    1aa8:	215850        	srai	a5, a5, 8
    1aab:	82b560        	mull	a11, a5, a6
    1aae:	82cde0        	mull	a12, a13, a14
    1ab1:	b25560        	mulsh	a5, a5, a6
    1ab4:	b2dde0        	mulsh	a13, a13, a14
    1ab7:	060c           	movi.n	a6, 0
    1ab9:	81ddc0        	src	a13, a13, a12
    1abc:	31eff0        	srai	a14, a15, 31
    1abf:	404010        	ssai	16
    1ac2:	81eef0        	src	a14, a14, a15
    1ac5:	404f10        	ssai	31
    1ac8:	11ff00        	slli	a15, a15, 16
    1acb:	8155b0        	src	a5, a5, a11
    1ace:	404010        	ssai	16
    1ad1:	c0ee50        	sub	a14, a14, a5
    1ad4:	11bbf0        	slli	a11, a11, 1
    1ad7:	f96851        	l32r	a5, 78 (8000 <xtensa_fft8_32b+0x28>)
    1ada:	c0bfb0        	sub	a11, a15, a11
    1add:	62ffb0        	saltu	a15, a15, a11
    1ae0:	c0eef0        	sub	a14, a14, a15
    1ae3:	90bcb0        	addx2	a11, a12, a11
    1ae6:	ab5a           	add.n	a10, a11, a5
    1ae8:	ddea           	add.n	a13, a13, a14
    1aea:	11ccf0        	slli	a12, a12, 1
    1aed:	62cbc0        	saltu	a12, a11, a12
    1af0:	ccda           	add.n	a12, a12, a13
    1af2:	62bab0        	saltu	a11, a10, a11
    1af5:	bbca           	add.n	a11, a11, a12
    1af7:	81aba0        	src	a10, a11, a10
    1afa:	31b0b0        	srai	a11, a11, 16
    1afd:	ff3e65        	call8	ee4 <_saturate32>
    1b00:	07a9           	s32i.n	a10, a7, 0
    1b02:	5129           	s32i.n	a2, a1, 20
    1b04:	fe7c           	movi.n	a14, -1
    1b06:	404b10        	ssai	27
    1b09:	82d2a0        	mull	a13, a2, a10
    1b0c:	b2c2a0        	mulsh	a12, a2, a10
    1b0f:	f95341        	l32r	a4, 5c (7fff <xtensa_fft8_32b+0x27>)
    1b12:	81ccd0        	src	a12, a12, a13
    1b15:	11ddb0        	slli	a13, a13, 5
    1b18:	092c47        	blt	a12, a4, 1b25 <fn_analysis_frame_32+0xb5>
    1b1b:	029c47        	bne	a12, a4, 1b21 <fn_analysis_frame_32+0xb1>
    1b1e:	033de7        	bltu	a13, a14, 1b25 <fn_analysis_frame_32+0xb5>

00001b21 <fn_analysis_frame_32+0xb1>:
    1b21:	0edd           	mov.n	a13, a14
    1b23:	04cd           	mov.n	a12, a4

00001b25 <fn_analysis_frame_32+0xb5>:
    1b25:	404010        	ssai	16
    1b28:	ad5a           	add.n	a10, a13, a5
    1b2a:	cc6a           	add.n	a12, a12, a6
    1b2c:	62bad0        	saltu	a11, a10, a13
    1b2f:	bbca           	add.n	a11, a11, a12
    1b31:	81aba0        	src	a10, a11, a10
    1b34:	31b0b0        	srai	a11, a11, 16
    1b37:	ff3ae5        	call8	ee4 <_saturate32>
    1b3a:	404f10        	ssai	31
    1b3d:	f96ce1        	l32r	a14, f0 (15cc64 <_end+0x14e4c4>)
    1b40:	f96d91        	l32r	a9, f4 (7af1aa <_end+0x7a0a0a>)
    1b43:	01d8           	l32i.n	a13, a1, 0
    1b45:	07a9           	s32i.n	a10, a7, 0
    1b47:	0388           	l32i.n	a8, a3, 0
    1b49:	13f8           	l32i.n	a15, a3, 4
    1b4b:	1dd8           	l32i.n	a13, a13, 4
    1b4d:	218880        	srai	a8, a8, 8
    1b50:	82b890        	mull	a11, a8, a9
    1b53:	21d8d0        	srai	a13, a13, 8
    1b56:	82cde0        	mull	a12, a13, a14
    1b59:	b2dde0        	mulsh	a13, a13, a14
    1b5c:	b28890        	mulsh	a8, a8, a9
    1b5f:	81ddc0        	src	a13, a13, a12
    1b62:	31eff0        	srai	a14, a15, 31
    1b65:	404010        	ssai	16
    1b68:	81eef0        	src	a14, a14, a15
    1b6b:	404f10        	ssai	31
    1b6e:	11ff00        	slli	a15, a15, 16
    1b71:	8188b0        	src	a8, a8, a11
    1b74:	404010        	ssai	16
    1b77:	c0ee80        	sub	a14, a14, a8
    1b7a:	11bbf0        	slli	a11, a11, 1
    1b7d:	c0bfb0        	sub	a11, a15, a11
    1b80:	62ffb0        	saltu	a15, a15, a11
    1b83:	c0eef0        	sub	a14, a14, a15
    1b86:	90bcb0        	addx2	a11, a12, a11
    1b89:	ab5a           	add.n	a10, a11, a5
    1b8b:	ddea           	add.n	a13, a13, a14
    1b8d:	11ccf0        	slli	a12, a12, 1
    1b90:	62cbc0        	saltu	a12, a11, a12
    1b93:	ccda           	add.n	a12, a12, a13
    1b95:	62bab0        	saltu	a11, a10, a11
    1b98:	cc6a           	add.n	a12, a12, a6
    1b9a:	bbca           	add.n	a11, a11, a12
    1b9c:	81aba0        	src	a10, a11, a10
    1b9f:	31b0b0        	srai	a11, a11, 16
    1ba2:	ff3425        	call8	ee4 <_saturate32>
    1ba5:	51c8           	l32i.n	a12, a1, 20
    1ba7:	17a9           	s32i.n	a10, a7, 4
    1ba9:	fe7c           	movi.n	a14, -1
    1bab:	82dca0        	mull	a13, a12, a10
    1bae:	b2cca0        	mulsh	a12, a12, a10
    1bb1:	404b10        	ssai	27
    1bb4:	81ccd0        	src	a12, a12, a13
    1bb7:	11ddb0        	slli	a13, a13, 5
    1bba:	092c47        	blt	a12, a4, 1bc7 <fn_analysis_frame_32+0x157>
    1bbd:	029c47        	bne	a12, a4, 1bc3 <fn_analysis_frame_32+0x153>
    1bc0:	033de7        	bltu	a13, a14, 1bc7 <fn_analysis_frame_32+0x157>

00001bc3 <fn_analysis_frame_32+0x153>:
    1bc3:	0edd           	mov.n	a13, a14
    1bc5:	04cd           	mov.n	a12, a4

00001bc7 <fn_analysis_frame_32+0x157>:
    1bc7:	2139           	s32i.n	a3, a1, 8
    1bc9:	1179           	s32i.n	a7, a1, 4
    1bcb:	404010        	ssai	16
    1bce:	ad5a           	add.n	a10, a13, a5
    1bd0:	cc6a           	add.n	a12, a12, a6
    1bd2:	62bad0        	saltu	a11, a10, a13
    1bd5:	bbca           	add.n	a11, a11, a12
    1bd7:	81aba0        	src	a10, a11, a10
    1bda:	31b0b0        	srai	a11, a11, 16
    1bdd:	ff3065        	call8	ee4 <_saturate32>
    1be0:	eea032        	movi	a3, 238
    1be3:	1198           	l32i.n	a9, a1, 4
    1be5:	08ae82        	movi	a8, 0xfffffe08
    1be8:	2178           	l32i.n	a7, a1, 8
    1bea:	298b           	addi.n	a2, a9, 8
    1bec:	19a9           	s32i.n	a10, a9, 4
    1bee:	778a           	add.n	a7, a7, a8

00001bf0 <fn_analysis_frame_32+0x180>:
    1bf0:	8027f2        	l32i	a15, a7, 0x200
    1bf3:	404f10        	ssai	31
    1bf6:	f93f91        	l32r	a9, f4 (7af1aa <_end+0x7a0a0a>)
    1bf9:	7f2782        	l32i	a8, a7, 0x1fc
    1bfc:	7e27d2        	l32i	a13, a7, 0x1f8
    1bff:	f93ce1        	l32r	a14, f0 (15cc64 <_end+0x14e4c4>)
    1c02:	218880        	srai	a8, a8, 8
    1c05:	21d8d0        	srai	a13, a13, 8
    1c08:	82cde0        	mull	a12, a13, a14
    1c0b:	82b890        	mull	a11, a8, a9
    1c0e:	b2dde0        	mulsh	a13, a13, a14
    1c11:	b28890        	mulsh	a8, a8, a9
    1c14:	81ddc0        	src	a13, a13, a12
    1c17:	31eff0        	srai	a14, a15, 31
    1c1a:	404010        	ssai	16
    1c1d:	81eef0        	src	a14, a14, a15
    1c20:	404f10        	ssai	31
    1c23:	11ff00        	slli	a15, a15, 16
    1c26:	8188b0        	src	a8, a8, a11
    1c29:	404010        	ssai	16
    1c2c:	c0ee80        	sub	a14, a14, a8
    1c2f:	11bbf0        	slli	a11, a11, 1
    1c32:	c0bfb0        	sub	a11, a15, a11
    1c35:	62ffb0        	saltu	a15, a15, a11
    1c38:	c0eef0        	sub	a14, a14, a15
    1c3b:	90bcb0        	addx2	a11, a12, a11
    1c3e:	ab5a           	add.n	a10, a11, a5
    1c40:	ddea           	add.n	a13, a13, a14
    1c42:	11ccf0        	slli	a12, a12, 1
    1c45:	62cbc0        	saltu	a12, a11, a12
    1c48:	ccda           	add.n	a12, a12, a13
    1c4a:	62bab0        	saltu	a11, a10, a11
    1c4d:	cc6a           	add.n	a12, a12, a6
    1c4f:	bbca           	add.n	a11, a11, a12
    1c51:	81aba0        	src	a10, a11, a10
    1c54:	31b0b0        	srai	a11, a11, 16
    1c57:	ff28e5        	call8	ee4 <_saturate32>
    1c5a:	51c8           	l32i.n	a12, a1, 20
    1c5c:	02a9           	s32i.n	a10, a2, 0
    1c5e:	fe7c           	movi.n	a14, -1
    1c60:	82dca0        	mull	a13, a12, a10
    1c63:	b2cca0        	mulsh	a12, a12, a10
    1c66:	404b10        	ssai	27
    1c69:	81ccd0        	src	a12, a12, a13
    1c6c:	11ddb0        	slli	a13, a13, 5
    1c6f:	092c47        	blt	a12, a4, 1c7c <fn_analysis_frame_32+0x20c>
    1c72:	029c47        	bne	a12, a4, 1c78 <fn_analysis_frame_32+0x208>
    1c75:	033de7        	bltu	a13, a14, 1c7c <fn_analysis_frame_32+0x20c>

00001c78 <fn_analysis_frame_32+0x208>:
    1c78:	0edd           	mov.n	a13, a14
    1c7a:	04cd           	mov.n	a12, a4

00001c7c <fn_analysis_frame_32+0x20c>:
    1c7c:	404010        	ssai	16
    1c7f:	ad5a           	add.n	a10, a13, a5
    1c81:	cc6a           	add.n	a12, a12, a6
    1c83:	62bad0        	saltu	a11, a10, a13
    1c86:	bbca           	add.n	a11, a11, a12
    1c88:	81aba0        	src	a10, a11, a10
    1c8b:	31b0b0        	srai	a11, a11, 16
    1c8e:	ff2565        	call8	ee4 <_saturate32>
    1c91:	09e2a4        	ae_s32ip	a10, a2, 4
    1c94:	774b           	addi.n	a7, a7, 4
    1c96:	330b           	addi.n	a3, a3, -1
    1c98:	f54356        	bnez	a3, 1bf0 <fn_analysis_frame_32+0x180>
    1c9b:	21d8           	l32i.n	a13, a1, 8
    1c9d:	0198           	l32i.n	a9, a1, 0
    1c9f:	61c8           	l32i.n	a12, a1, 24
    1ca1:	ee2de2        	l32i	a14, a13, 0x3b8
    1ca4:	09e9           	s32i.n	a14, a9, 0
    1ca6:	ef2dd2        	l32i	a13, a13, 0x3bc
    1ca9:	19d9           	s32i.n	a13, a9, 4
    1cab:	000786        	j	1ccd <fn_analysis_frame_32+0x25d>

00001cae <fn_analysis_frame_32+0x23e>:
    1cae:	c4cad2        	addi	a13, a10, -60
    1cb1:	300664        	ae_cvtp24a16x2.ll	aep0, a6, a6
    1cb4:	03ad           	mov.n	a10, a3
    1cb6:	601a04        	ae_lq32f.iu	aeq0, a10, 0
    1cb9:	0eae76        	loopgtz	a14, 1ccb <fn_analysis_frame_32+0x25b>
    1cbc:	038214        	ae_mulfq32sp16s.l	aeq2, aeq0, aep0
    1cbf:	366114        	ae_sllisq56s	aeq1, aeq2, 4
    1cc2:	061934        	ae_roundsq32asym	aeq0, aeq1
    1cc5:	624d14        	ae_sq32f.iu	aeq0, a13, 4
    1cc8:	601a14        	ae_lq32f.iu	aeq0, a10, 4

00001ccb <fn_analysis_frame_32+0x25b>:
    1ccb:	1179           	s32i.n	a7, a1, 4

00001ccd <fn_analysis_frame_32+0x25d>:
    1ccd:	1178           	l32i.n	a7, a1, 4
    1ccf:	fcccd2        	addi	a13, a12, -4
    1cd2:	0b2c           	movi.n	a11, 32
    1cd4:	398b           	addi.n	a3, a9, 8
    1cd6:	f0a082        	movi	a8, 240
    1cd9:	f90791        	l32r	a9, f8 (b4c0 <window>)
    1cdc:	20a330        	or	a10, a3, a3
    1cdf:	601a04        	ae_lq32f.iu	aeq0, a10, 0
    1ce2:	448904        	ae_lp16x2f.iu	aep0, a9, 0
    1ce5:	1aa876        	loopgtz	a8, 1d03 <fn_analysis_frame_32+0x293>
    1ce8:	038204        	ae_mulfq32sp16s.h	aeq2, aeq0, aep0
    1ceb:	066934        	ae_roundsq32asym	aeq1, aeq2
    1cee:	625d14        	ae_sq32f.iu	aeq1, a13, 4
    1cf1:	601a14        	ae_lq32f.iu	aeq0, a10, 4
    1cf4:	030214        	ae_mulfq32sp16s.l	aeq0, aeq0, aep0
    1cf7:	06c934        	ae_roundsq32asym	aeq3, aeq0
    1cfa:	627d14        	ae_sq32f.iu	aeq3, a13, 4
    1cfd:	601a14        	ae_lq32f.iu	aeq0, a10, 4
    1d00:	448914        	ae_lp16x2f.iu	aep0, a9, 4

00001d03 <fn_analysis_frame_32+0x293>:
    1d03:	0a0c           	movi.n	a10, 0
    1d05:	08dc92        	addmi	a9, a12, 0x800
    1d08:	80c992        	addi	a9, a9, -128
    1d0b:	f03d           	nop.n
    1d0d:	02ab76        	loopgtz	a11, 1d13 <fn_analysis_frame_32+0x2a3>
    1d10:	09e9a4        	ae_s32ip	a10, a9, 4
    1d13:	0cad           	mov.n	a10, a12
    1d15:	3128           	l32i.n	a2, a1, 12
    1d17:	f8f981        	l32r	a8, fc (4d38 <real_512_fft>)
    1d1a:	4148           	l32i.n	a4, a1, 16
    1d1c:	20b220        	or	a11, a2, a2
    1d1f:	0008e0        	callx8	a8
    1d22:	f8c4b2        	addi	a11, a4, -8
    1d25:	01a1c2        	movi	a12, 0x101
    1d28:	fccaa2        	addi	a10, a10, -4
    1d2b:	209220        	or	a9, a2, a2
    1d2e:	5c8904        	ae_lp24x2f.iu	aep0, a9, 0
    1d31:	8aad           	ae_sext16	a10, a10
    1d33:	111aa6        	blti	a10, 1, 1d48 <fn_analysis_frame_32+0x2d8>
    1d36:	0316a4        	wur.ae_sar	a10
    1d39:	08ac76        	loopgtz	a12, 1d45 <fn_analysis_frame_32+0x2d5>
    1d3c:	0b0084        	ae_sllssp24s	aep0, aep0
    1d3f:	5e8b14        	ae_sp24x2f.iu	aep0, a11, 8
    1d42:	5c8914        	ae_lp24x2f.iu	aep0, a9, 8
    1d45:	000446        	j	1d5a <fn_analysis_frame_32+0x2ea>

00001d48 <fn_analysis_frame_32+0x2d8>:
    1d48:	60e0a0        	neg	a14, a10
    1d4b:	0316e4        	wur.ae_sar	a14
    1d4e:	08ac76        	loopgtz	a12, 1d5a <fn_analysis_frame_32+0x2ea>
    1d51:	0b0394        	ae_srasp24	aep1, aep0
    1d54:	5e9b14        	ae_sp24x2f.iu	aep1, a11, 8
    1d57:	5c8914        	ae_lp24x2f.iu	aep0, a9, 8

00001d5a <fn_analysis_frame_32+0x2ea>:
    1d5a:	07bd           	mov.n	a11, a7
    1d5c:	f8b481        	l32r	a8, 2c (8838 <xt_memcpy>)
    1d5f:	03ad           	mov.n	a10, a3
    1d61:	e0a1c2        	movi	a12, 0x1e0
    1d64:	0008e0        	callx8	a8
    1d67:	f01d           	retw.n

00001d69 <fn_analysis_frame_32+0x2f9>:
    1d69:	000000                                        ...

00001d6c <fn_ini_syn_frame>:
    1d6c:	004136        	entry	a1, 32
    1d6f:	02ad           	mov.n	a10, a2
    1d71:	f8d781        	l32r	a8, d0 (8820 <xt_memset>)
    1d74:	0b0c           	movi.n	a11, 0
    1d76:	e8a1c2        	movi	a12, 0x1e8
    1d79:	0008e0        	callx8	a8
    1d7c:	f26232        	s32i	a3, a2, 0x3c8
    1d7f:	f01d           	retw.n

00001d81 <fn_ini_syn_frame+0x15>:
    1d81:	000000                                        ...

00001d84 <fn_syn_frame>:
    1d84:	004136        	entry	a1, 32
    1d87:	03ad           	mov.n	a10, a3
    1d89:	f8dd81        	l32r	a8, 100 (4e20 <real_512_ifft>)
    1d8c:	20b440        	or	a11, a4, a4
    1d8f:	f22232        	l32i	a3, a2, 0x3c8
    1d92:	0008e0        	callx8	a8
    1d95:	f0a0d2        	movi	a13, 240
    1d98:	ffc582        	addi	a8, a5, -1
    1d9b:	78a0f2        	movi	a15, 120
    1d9e:	209440        	or	a9, a4, a4
    1da1:	04cac2        	addi	a12, a10, 4
    1da4:	fcc3b2        	addi	a11, a3, -4
    1da7:	f8d4a1        	l32r	a10, f8 (b4c0 <window>)
    1daa:	601904        	ae_lq32f.iu	aeq0, a9, 0
    1dad:	8ccd           	ae_sext16	a12, a12
    1daf:	448a04        	ae_lp16x2f.iu	aep0, a10, 0
    1db2:	301ca6        	blti	a12, 1, 1de6 <fn_syn_frame+0x62>
    1db5:	2aad76        	loopgtz	a13, 1de3 <fn_syn_frame+0x5f>
    1db8:	fc24fe8c0f 	{ ae_slaasq56s	aeq0, aeq0, a12; nop }
    1dbd:	030204        	ae_mulfq32sp16s.h	aeq0, aeq0, aep0
    1dc0:	06c844        	ae_satq48s	aeq3, aeq0
    1dc3:	09bf14        	ae_truncp24q48x2	aep1, aeq3, aeq3
    1dc6:	529b14        	ae_sp24f.l.iu	aep1, a11, 4
    1dc9:	609914        	ae_lq32f.iu	aeq2, a9, 4
    1dcc:	fc24feac4f 	{ ae_slaasq56s	aeq1, aeq2, a12; nop }
    1dd1:	030a54        	ae_mulfq32sp16s.l	aeq1, aeq1, aep0
    1dd4:	060944        	ae_satq48s	aeq0, aeq1
    1dd7:	098c04        	ae_truncp24q48x2	aep0, aeq0, aeq0
    1dda:	528b14        	ae_sp24f.l.iu	aep0, a11, 4
    1ddd:	601914        	ae_lq32f.iu	aeq0, a9, 4
    1de0:	448a14        	ae_lp16x2f.iu	aep0, a10, 4

00001de3 <fn_syn_frame+0x5f>:
    1de3:	000b46        	j	1e14 <fn_syn_frame+0x90>

00001de6 <fn_syn_frame+0x62>:
    1de6:	2aad76        	loopgtz	a13, 1e14 <fn_syn_frame+0x90>
    1de9:	fc24fe8c4f 	{ ae_slaasq56s	aeq1, aeq0, a12; nop }
    1dee:	061934        	ae_roundsq32asym	aeq0, aeq1
    1df1:	030204        	ae_mulfq32sp16s.h	aeq0, aeq0, aep0
    1df4:	1b8d34        	ae_roundsp24q48asym	aep3, aeq0
    1df7:	52bb14        	ae_sp24f.l.iu	aep3, a11, 4
    1dfa:	60d914        	ae_lq32f.iu	aeq3, a9, 4
    1dfd:	fc24febc8f 	{ ae_slaasq56s	aeq2, aeq3, a12; nop }
    1e02:	066934        	ae_roundsq32asym	aeq1, aeq2
    1e05:	030a54        	ae_mulfq32sp16s.l	aeq1, aeq1, aep0
    1e08:	1b9d24        	ae_roundsp24q48asym	aep2, aeq1
    1e0b:	52ab14        	ae_sp24f.l.iu	aep2, a11, 4
    1e0e:	601914        	ae_lq32f.iu	aeq0, a9, 4
    1e11:	448a14        	ae_lp16x2f.iu	aep0, a10, 4

00001e14 <fn_syn_frame+0x90>:
    1e14:	f8c4b2        	addi	a11, a4, -8
    1e17:	039d           	mov.n	a9, a3
    1e19:	a28b           	addi.n	a10, a2, 8
    1e1b:	5c8a04        	ae_lp24x2f.iu	aep0, a10, 0
    1e1e:	5c9904        	ae_lp24x2f.iu	aep1, a9, 0
    1e21:	0baf76        	loopgtz	a15, 1e30 <fn_syn_frame+0xac>
    1e24:	078144        	ae_addsp24s	aep4, aep0, aep1
    1e27:	5ecb14        	ae_sp24x2f.iu	aep4, a11, 8
    1e2a:	5c8a14        	ae_lp24x2f.iu	aep0, a10, 8
    1e2d:	5c9914        	ae_lp24x2f.iu	aep1, a9, 8

00001e30 <fn_syn_frame+0xac>:
    1e30:	114856        	bnez	a8, 1f48 <fn_syn_frame+0x1c4>
    1e33:	404010        	ssai	16
    1e36:	04c8           	l32i.n	a12, a4, 0
    1e38:	f8af61        	l32r	a6, f4 (7af1aa <_end+0x7a0a0a>)
    1e3b:	1258           	l32i.n	a5, a2, 4
    1e3d:	02e8           	l32i.n	a14, a2, 0
    1e3f:	f8acf1        	l32r	a15, f0 (15cc64 <_end+0x14e4c4>)
    1e42:	215850        	srai	a5, a5, 8
    1e45:	21e8e0        	srai	a14, a14, 8
    1e48:	82bef0        	mull	a11, a14, a15
    1e4b:	82d560        	mull	a13, a5, a6
    1e4e:	b2eef0        	mulsh	a14, a14, a15
    1e51:	b25560        	mulsh	a5, a5, a6
    1e54:	31ffc0        	srai	a15, a12, 31
    1e57:	060c           	movi.n	a6, 0
    1e59:	81ffc0        	src	a15, a15, a12
    1e5c:	11cc00        	slli	a12, a12, 16
    1e5f:	404f10        	ssai	31
    1e62:	81eeb0        	src	a14, a14, a11
    1e65:	8155d0        	src	a5, a5, a13
    1e68:	11bbf0        	slli	a11, a11, 1
    1e6b:	11ddf0        	slli	a13, a13, 1
    1e6e:	ff5a           	add.n	a15, a15, a5
    1e70:	404810        	ssai	24
    1e73:	f8a451        	l32r	a5, 104 (800000 <_end+0x7f1860>)
    1e76:	dcda           	add.n	a13, a12, a13
    1e78:	c0bdb0        	sub	a11, a13, a11
    1e7b:	62cdc0        	saltu	a12, a13, a12
    1e7e:	ccfa           	add.n	a12, a12, a15
    1e80:	ab5a           	add.n	a10, a11, a5
    1e82:	62ddb0        	saltu	a13, a13, a11
    1e85:	c0cce0        	sub	a12, a12, a14
    1e88:	c0ccd0        	sub	a12, a12, a13
    1e8b:	62bab0        	saltu	a11, a10, a11
    1e8e:	bbca           	add.n	a11, a11, a12
    1e90:	81aba0        	src	a10, a11, a10
    1e93:	31b8b0        	srai	a11, a11, 24
    1e96:	81bba0        	src	a11, a11, a10
    1e99:	11aa80        	slli	a10, a10, 8
    1e9c:	ff07a5        	call8	f18 <_saturate24>
    1e9f:	404010        	ssai	16
    1ea2:	14c8           	l32i.n	a12, a4, 4
    1ea4:	f893f1        	l32r	a15, f0 (15cc64 <_end+0x14e4c4>)
    1ea7:	f89391        	l32r	a9, f4 (7af1aa <_end+0x7a0a0a>)
    1eaa:	04a9           	s32i.n	a10, a4, 0
    1eac:	12e8           	l32i.n	a14, a2, 4
    1eae:	2188a0        	srai	a8, a10, 8
    1eb1:	82d890        	mull	a13, a8, a9
    1eb4:	21e8e0        	srai	a14, a14, 8
    1eb7:	82bef0        	mull	a11, a14, a15
    1eba:	b28890        	mulsh	a8, a8, a9
    1ebd:	b2eef0        	mulsh	a14, a14, a15
    1ec0:	31ffc0        	srai	a15, a12, 31
    1ec3:	81ffc0        	src	a15, a15, a12
    1ec6:	11cc00        	slli	a12, a12, 16
    1ec9:	404f10        	ssai	31
    1ecc:	81eeb0        	src	a14, a14, a11
    1ecf:	8188d0        	src	a8, a8, a13
    1ed2:	ff8a           	add.n	a15, a15, a8
    1ed4:	11bbf0        	slli	a11, a11, 1
    1ed7:	11ddf0        	slli	a13, a13, 1
    1eda:	404810        	ssai	24
    1edd:	dcda           	add.n	a13, a12, a13
    1edf:	62cdc0        	saltu	a12, a13, a12
    1ee2:	c0bdb0        	sub	a11, a13, a11
    1ee5:	ab5a           	add.n	a10, a11, a5
    1ee7:	ccfa           	add.n	a12, a12, a15
    1ee9:	62ddb0        	saltu	a13, a13, a11
    1eec:	c0cce0        	sub	a12, a12, a14
    1eef:	c0ccd0        	sub	a12, a12, a13
    1ef2:	62bab0        	saltu	a11, a10, a11
    1ef5:	cc6a           	add.n	a12, a12, a6
    1ef7:	bbca           	add.n	a11, a11, a12
    1ef9:	81aba0        	src	a10, a11, a10
    1efc:	31b8b0        	srai	a11, a11, 24
    1eff:	81bba0        	src	a11, a11, a10
    1f02:	11aa80        	slli	a10, a10, 8
    1f05:	ff0125        	call8	f18 <_saturate24>
    1f08:	08c492        	addi	a9, a4, 8
    1f0b:	f879c1        	l32r	a12, f0 (15cc64 <_end+0x14e4c4>)
    1f0e:	0164a2        	s32i	a10, a4, 4
    1f11:	f878b1        	l32r	a11, f4 (7af1aa <_end+0x7a0a0a>)
    1f14:	eea0a2        	movi	a10, 238
    1f17:	39bbc4        	ae_movpa24x2	aep3, a11, a12
    1f1a:	50d904        	ae_lp24f.iu	aep5, a9, 0
    1f1d:	5019f4        	ae_lp24f.i	aep1, a9, -4
    1f20:	fcac2e09ef 	{ ae_lp24f.i	aep0, a9, -8; ae_cvtq48p24s.l	aeq0, aep5 }
    1f25:	13aa76        	loopgtz	a10, 1f3c <fn_syn_frame+0x1b8>
    1f28:	011304        	ae_mulafp24s.hh	aeq0, aep1, aep3
    1f2b:	0103b4        	ae_mulsfp24s.ll	aeq0, aep0, aep3

00001f2e <fn_syn_frame+0x1aa>:
    1f2e:	f867ff103f 	{ ae_movp48	aep0, aep1; ae_roundsp24q48asym	aep1, aeq0 }
    1f33:	529904        	ae_sp24f.l.iu	aep1, a9, 0
    1f36:	50e914        	ae_lp24f.iu	aep6, a9, 4
    1f39:	0a0684        	ae_cvtq48p24s.l	aeq0, aep6

00001f3c <fn_syn_frame+0x1b8>:
    1f3c:	ee24e2        	l32i	a14, a4, 0x3b8
    1f3f:	0062e2        	s32i	a14, a2, 0
    1f42:	ef24d2        	l32i	a13, a4, 0x3bc
    1f45:	0162d2        	s32i	a13, a2, 4

00001f48 <fn_syn_frame+0x1c4>:
    1f48:	78a0f2        	movi	a15, 120
    1f4b:	04d392        	addmi	a9, a3, 0x400
    1f4e:	b8c992        	addi	a9, a9, -72
    1f51:	05af76        	loopgtz	a15, 1f5a <fn_syn_frame+0x1d6>
    1f54:	5cf914        	ae_lp24x2f.iu	aep7, a9, 8
    1f57:	5ef214        	ae_sp24x2f.iu	aep7, a2, 8

00001f5a <fn_syn_frame+0x1d6>:
    1f5a:	f01d           	retw.n

00001f5c <fn_ini_calc_sup_gain>:
    1f5c:	008136        	entry	a1, 64
    1f5f:	02ad           	mov.n	a10, a2
    1f61:	f85b81        	l32r	a8, d0 (8820 <xt_memset>)
    1f64:	0b0c           	movi.n	a11, 0
    1f66:	0aa2c2        	movi	a12, 0x20a
    1f69:	0008e0        	callx8	a8
    1f6c:	02ad           	mov.n	a10, a2
    1f6e:	f82f81        	l32r	a8, 2c (8838 <xt_memcpy>)
    1f71:	03bd           	mov.n	a11, a3
    1f73:	6c0c           	movi.n	a12, 6
    1f75:	0008e0        	callx8	a8
    1f78:	0493b2        	l16si	a11, a3, 8
    1f7b:	f84de1        	l32r	a14, b0 (e460 <all_amt_tab>)
    1f7e:	0593c2        	l16si	a12, a3, 10
    1f81:	4bcc           	bnez.n	a11, 1f89 <fn_ini_calc_sup_gain+0x2d>
    1f83:	01a1d2        	movi	a13, 0x101
    1f86:	000586        	j	1fa0 <fn_ini_calc_sup_gain+0x44>

00001f89 <fn_ini_calc_sup_gain+0x2d>:
    1f89:	ab0b           	addi.n	a10, a11, -1
    1f8b:	8aad           	ae_sext16	a10, a10
    1f8d:	a0daa0        	addx4	a13, a10, a10
    1f90:	b0dde0        	addx8	a13, a13, a14
    1f93:	2ddd           	ae_l16si.n	a13, a13, 0
    1f95:	61ad           	ae_s16i.n	a10, a1, 0
    1f97:	a09d20        	addx4	a9, a13, a2
    1f9a:	0cc992        	addi	a9, a9, 12
    1f9d:	016192        	s32i	a9, a1, 4

00001fa0 <fn_ini_calc_sup_gain+0x44>:
    1fa0:	92cb           	addi.n	a9, a2, 12
    1fa2:	00a1a2        	movi	a10, 0x100
    1fa5:	02ad76        	loopgtz	a13, 1fab <fn_ini_calc_sup_gain+0x4f>
    1fa8:	09e9a4        	ae_s32ip	a10, a9, 4

00001fab <fn_ini_calc_sup_gain+0x4f>:
    1fab:	4129           	s32i.n	a2, a1, 16
    1fad:	092b16        	beqz	a11, 2043 <fn_ini_calc_sup_gain+0xe7>
    1fb0:	05ccd6        	bgez	a12, 2010 <fn_ini_calc_sup_gain+0xb4>
    1fb3:	4129           	s32i.n	a2, a1, 16
    1fb5:	021de6        	bgei	a13, 1, 1fbb <fn_ini_calc_sup_gain+0x5f>
    1fb8:	0021c6        	j	2043 <fn_ini_calc_sup_gain+0xe7>
    1fbb:	050c           	movi.n	a5, 0
    1fbd:	0b0c           	movi.n	a11, 0
    1fbf:	1a0c           	movi.n	a10, 1
    1fc1:	3149           	s32i.n	a4, a1, 12
    1fc3:	f85181        	l32r	a8, 108 (887c <__ashldi3>)
    1fc6:	1168           	l32i.n	a6, a1, 4
    1fc8:	212d           	ae_l16si.n	a2, a1, 0
    1fca:	6030c0        	neg	a3, a12
    1fcd:	f77c           	movi.n	a7, -1
    1fcf:	c0c7c0        	sub	a12, a7, a12
    1fd2:	a02220        	addx4	a2, a2, a2
    1fd5:	a07d60        	addx4	a7, a13, a6
    1fd8:	b022e0        	addx8	a2, a2, a14
    1fdb:	0008e0        	callx8	a8
    1fde:	0a4d           	mov.n	a4, a10
    1fe0:	21b9           	s32i.n	a11, a1, 8

00001fe2 <fn_ini_calc_sup_gain+0x86>:
    1fe2:	92a8           	l32i.n	a10, a2, 36
    1fe4:	a5aa           	add.n	a10, a5, a10
    1fe6:	0aa8           	l32i.n	a10, a10, 0
    1fe8:	1713a6        	blti	a3, 1, 2003 <fn_ini_calc_sup_gain+0xa7>
    1feb:	f84881        	l32r	a8, 10c (8894 <__ashrdi3>)
    1fee:	21d8           	l32i.n	a13, a1, 8
    1ff0:	31cfa0        	srai	a12, a10, 31
    1ff3:	9a4a           	add.n	a9, a10, a4
    1ff5:	62b9a0        	saltu	a11, a9, a10
    1ff8:	ccda           	add.n	a12, a12, a13
    1ffa:	bbca           	add.n	a11, a11, a12
    1ffc:	09ad           	mov.n	a10, a9
    1ffe:	03cd           	mov.n	a12, a3
    2000:	0008e0        	callx8	a8

00002003 <fn_ini_calc_sup_gain+0xa7>:
    2003:	554b           	addi.n	a5, a5, 4
    2005:	09e6a4        	ae_s32ip	a10, a6, 4
    2008:	d69677        	bne	a6, a7, 1fe2 <fn_ini_calc_sup_gain+0x86>
    200b:	3148           	l32i.n	a4, a1, 12
    200d:	000c86        	j	2043 <fn_ini_calc_sup_gain+0xe7>

00002010 <fn_ini_calc_sup_gain+0xb4>:
    2010:	4129           	s32i.n	a2, a1, 16
    2012:	2d1da6        	blti	a13, 1, 2043 <fn_ini_calc_sup_gain+0xe7>
    2015:	1168           	l32i.n	a6, a1, 4
    2017:	212d           	ae_l16si.n	a2, a1, 0
    2019:	050c           	movi.n	a5, 0
    201b:	a07d60        	addx4	a7, a13, a6
    201e:	a02220        	addx4	a2, a2, a2
    2021:	b022e0        	addx8	a2, a2, a14

00002024 <fn_ini_calc_sup_gain+0xc8>:
    2024:	92b8           	l32i.n	a11, a2, 36
    2026:	bb5a           	add.n	a11, a11, a5
    2028:	0bb8           	l32i.n	a11, a11, 0
    202a:	0593c2        	l16si	a12, a3, 10
    202d:	f83681        	l32r	a8, 108 (887c <__ashldi3>)
    2030:	0bad           	mov.n	a10, a11
    2032:	31bfb0        	srai	a11, a11, 31
    2035:	0008e0        	callx8	a8
    2038:	feeaa5        	call8	ee4 <_saturate32>
    203b:	554b           	addi.n	a5, a5, 4
    203d:	09e6a4        	ae_s32ip	a10, a6, 4
    2040:	e09677        	bne	a6, a7, 2024 <fn_ini_calc_sup_gain+0xc8>
    2043:	41c8           	l32i.n	a12, a1, 16
    2045:	04dcc2        	addmi	a12, a12, 0x400
    2048:	4c49           	s32i.n	a4, a12, 16
    204a:	f01d           	retw.n

0000204c <fn_calc_sup_gain>:
    204c:	014136        	entry	a1, 160
    204f:	0492b2        	l16si	a11, a2, 8
    2052:	1159           	s32i.n	a5, a1, 4
    2054:	036d           	mov.n	a6, a3
    2056:	abcc           	bnez.n	a11, 2064 <fn_calc_sup_gain+0x18>
    2058:	053d           	mov.n	a3, a5
    205a:	3149           	s32i.n	a4, a1, 12
    205c:	2139           	s32i.n	a3, a1, 8
    205e:	01a132        	movi	a3, 0x101
    2061:	000d46        	j	209a <fn_calc_sup_gain+0x4e>

00002064 <fn_calc_sup_gain+0x18>:
    2064:	f82b81        	l32r	a8, 110 (f4c <mel_filter>)
    2067:	f81261        	l32r	a6, b0 (e460 <all_amt_tab>)
    206a:	03ad           	mov.n	a10, a3
    206c:	7b0b           	addi.n	a7, a11, -1
    206e:	877d           	ae_sext16	a7, a7
    2070:	a03770        	addx4	a3, a7, a7
    2073:	b03360        	addx8	a3, a3, a6
    2076:	233d           	ae_l16si.n	a3, a3, 0
    2078:	04d262        	addmi	a6, a2, 0x400
    207b:	4668           	l32i.n	a6, a6, 16
    207d:	07cd           	mov.n	a12, a7
    207f:	3169           	s32i.n	a6, a1, 12
    2081:	b09360        	addx8	a9, a3, a6
    2084:	2199           	s32i.n	a9, a1, 8
    2086:	a06360        	addx4	a6, a3, a6
    2089:	06bd           	mov.n	a11, a6
    208b:	0008e0        	callx8	a8
    208e:	07cd           	mov.n	a12, a7
    2090:	f82081        	l32r	a8, 110 (f4c <mel_filter>)
    2093:	04ad           	mov.n	a10, a4
    2095:	31b8           	l32i.n	a11, a1, 12
    2097:	0008e0        	callx8	a8

0000209a <fn_calc_sup_gain+0x4e>:
    209a:	229d           	ae_l16si.n	a9, a2, 0
    209c:	029272        	l16si	a7, a2, 4
    209f:	324d           	ae_l16si.n	a4, a2, 2
    20a1:	0a2956        	bnez	a9, 2147 <fn_calc_sup_gain+0xfb>
    20a4:	31e8           	l32i.n	a14, a1, 12
    20a6:	0292c2        	l16si	a12, a2, 4
    20a9:	32bd           	ae_l16si.n	a11, a2, 2
    20ab:	42cb           	addi.n	a4, a2, 12
    20ad:	06fd           	mov.n	a15, a6
    20af:	601f04        	ae_lq32f.iu	aeq0, a15, 0
    20b2:	609404        	ae_lq32f.iu	aeq2, a4, 0
    20b5:	300bc4        	ae_cvtp24a16x2.ll	aep0, a11, a12
    20b8:	560174        	ae_sp24x2s.i	aep0, a1, 56
    20bb:	21c8           	l32i.n	a12, a1, 8
    20bd:	605e04        	ae_lq32f.iu	aeq1, a14, 0
    20c0:	599316        	beqz	a3, 265d <fn_calc_sup_gain+0x611>

000020c3 <fn_calc_sup_gain+0x77>:
    20c3:	01e9c4        	ae_addq56	aeq3, aeq2, aeq1
    20c6:	ff84f0217f 	{ ae_lp24x2.i	aep2, a1, 56; ae_satq48s	aeq3, aeq3 }
    20cb:	03aac4        	ae_mulfq32sp16s.h	aeq3, aeq3, aep2
    20ce:	03a814        	ae_mulafq32sp16s.l	aeq3, aeq0, aep2
    20d1:	1bbd14        	ae_roundsp24q48asym	aep1, aeq3
    20d4:	009ad4        	ae_cvta32p24.h	a10, aep1
    20d7:	fa427f1bef 	{ ae_trunca32q48	a11, aeq1; ae_truncp24q48x2	aep5, aeq0, aeq0 }
    20dc:	3acc           	bnez.n	a10, 20e3 <fn_calc_sup_gain+0x97>
    20de:	0a0c           	movi.n	a10, 0
    20e0:	000bc6        	j	2113 <fn_calc_sup_gain+0xc7>

000020e3 <fn_calc_sup_gain+0x97>:
    20e3:	052ba7        	blt	a11, a10, 20ec <fn_calc_sup_gain+0xa0>
    20e6:	f7dda1        	l32r	a10, 5c (7fff <xtensa_fft8_32b+0x27>)
    20e9:	000986        	j	2113 <fn_calc_sup_gain+0xc7>

000020ec <fn_calc_sup_gain+0xa0>:
    20ec:	364a34        	ae_cvtq48a32s	aeq1, a10
    20ef:	36cb34        	ae_cvtq48a32s	aeq3, a11
    20f2:	40ea80        	nsa	a8, a10
    20f5:	888d           	ae_sext16	a8, a8
    20f7:	fc24feb88f 	{ ae_slaasq56s	aeq2, aeq3, a8; nop }
    20fc:	ff80cf188e 	{ addi	a8, a8, -15; ae_satq48s	aeq3, aeq2 }
    2101:	fc24fe988f 	{ ae_slaasq56s	aeq2, aeq1, a8; nop }
    2106:	fd80ff3aef 	{ ae_trunca32q48	a10, aeq3; ae_satq48s	aeq1, aeq2 }
    210b:	369d04        	ae_trunca32q48	a13, aeq1
    210e:	d2aad0        	quos	a10, a10, a13
    2111:	aaad           	ae_clamps16	a10, a10
    2113:	f7d2b1        	l32r	a11, 5c (7fff <xtensa_fft8_32b+0x27>)
    2116:	039292        	l16si	a9, a2, 6
    2119:	c0bba0        	sub	a11, a11, a10
    211c:	8bbd           	ae_sext16	a11, a11
    211e:	5399b0        	max	a9, a9, a11
    2121:	899d           	ae_sext16	a9, a9
    2123:	306994        	ae_cvtp24a16x2.ll	aep6, a9, a9
    2126:	01e644        	ae_mulfp24s.hh	aeq2, aep6, aep6
    2129:	1bad44        	ae_roundsp24q48asym	aep4, aeq2
    212c:	014d44        	ae_mulfp24s.hh	aeq1, aep4, aep5
    212f:	09cc94        	ae_s16ip	a9, a12, 2
    2132:	1b9d34        	ae_roundsp24q48asym	aep3, aeq1
    2135:	0a0384        	ae_cvtq48p24s.l	aeq0, aep3
    2138:	624404        	ae_sq32f.iu	aeq0, a4, 0
    213b:	609414        	ae_lq32f.iu	aeq2, a4, 4
    213e:	601f14        	ae_lq32f.iu	aeq0, a15, 4
    2141:	605e14        	ae_lq32f.iu	aeq1, a14, 4
    2144:	ffdec6        	j	20c3 <fn_calc_sup_gain+0x77>

00002147 <fn_calc_sup_gain+0xfb>:
    2147:	c90b           	addi.n	a12, a9, -1
    2149:	318c56        	bnez	a12, 2465 <fn_calc_sup_gain+0x419>
    214c:	0213e6        	bgei	a3, 1, 2152 <fn_calc_sup_gain+0x106>
    214f:	014286        	j	265d <fn_calc_sup_gain+0x611>
    2152:	f7ec41        	l32r	a4, 104 (800000 <_end+0x7f1860>)
    2155:	3178           	l32i.n	a7, a1, 12
    2157:	21a8           	l32i.n	a10, a1, 8
    2159:	c169           	s32i.n	a6, a1, 48
    215b:	92cb           	addi.n	a9, a2, 12
    215d:	9199           	s32i.n	a9, a1, 36
    215f:	f7c661        	l32r	a6, 78 (8000 <xtensa_fft8_32b+0x28>)
    2162:	9053a0        	addx2	a5, a3, a10
    2165:	0a3d           	mov.n	a3, a10

00002167 <fn_calc_sup_gain+0x11b>:
    2167:	c1b8           	l32i.n	a11, a1, 48
    2169:	07a8           	l32i.n	a10, a7, 0
    216b:	0bb8           	l32i.n	a11, a11, 0
    216d:	31dfa0        	srai	a13, a10, 31
    2170:	c0aba0        	sub	a10, a11, a10
    2173:	62cba0        	saltu	a12, a11, a10
    2176:	31bfb0        	srai	a11, a11, 31
    2179:	c0bbd0        	sub	a11, a11, a13
    217c:	c0bbc0        	sub	a11, a11, a12
    217f:	fed665        	call8	ee4 <_saturate32>
    2182:	91d8           	l32i.n	a13, a1, 36
    2184:	07e8           	l32i.n	a14, a7, 0
    2186:	0b0c           	movi.n	a11, 0
    2188:	0dd8           	l32i.n	a13, a13, 0
    218a:	3ecc           	bnez.n	a14, 2191 <fn_calc_sup_gain+0x145>
    218c:	0a0c           	movi.n	a10, 0
    218e:	000d46        	j	21c7 <fn_calc_sup_gain+0x17b>

00002191 <fn_calc_sup_gain+0x145>:
    2191:	53aba0        	max	a10, a11, a10
    2194:	21a8a0        	srai	a10, a10, 8
    2197:	052ae7        	blt	a10, a14, 21a0 <fn_calc_sup_gain+0x154>
    219a:	f7b0a1        	l32r	a10, 5c (7fff <xtensa_fft8_32b+0x27>)
    219d:	000986        	j	21c7 <fn_calc_sup_gain+0x17b>

000021a0 <fn_calc_sup_gain+0x154>:
    21a0:	368e34        	ae_cvtq48a32s	aeq2, a14
    21a3:	360a34        	ae_cvtq48a32s	aeq0, a10
    21a6:	40eec0        	nsa	a12, a14
    21a9:	8ccd           	ae_sext16	a12, a12
    21ab:	fc24fe8ccf 	{ ae_slaasq56s	aeq3, aeq0, a12; nop }
    21b0:	fd84cf1cce 	{ addi	a12, a12, -15; ae_satq48s	aeq1, aeq3 }
    21b5:	fc24feac0f 	{ ae_slaasq56s	aeq0, aeq2, a12; nop }
    21ba:	ff00ff1aef 	{ ae_trunca32q48	a10, aeq1; ae_satq48s	aeq3, aeq0 }
    21bf:	36bb04        	ae_trunca32q48	a11, aeq3
    21c2:	d2aab0        	quos	a10, a10, a11
    21c5:	aaad           	ae_clamps16	a10, a10
    21c7:	81a9           	s32i.n	a10, a1, 32
    21c9:	21a8d0        	srai	a10, a13, 8
    21cc:	3ecc           	bnez.n	a14, 21d3 <fn_calc_sup_gain+0x187>
    21ce:	0a0c           	movi.n	a10, 0
    21d0:	000bc6        	j	2203 <fn_calc_sup_gain+0x1b7>

000021d3 <fn_calc_sup_gain+0x187>:
    21d3:	052ae7        	blt	a10, a14, 21dc <fn_calc_sup_gain+0x190>
    21d6:	f7a1a1        	l32r	a10, 5c (7fff <xtensa_fft8_32b+0x27>)
    21d9:	000986        	j	2203 <fn_calc_sup_gain+0x1b7>

000021dc <fn_calc_sup_gain+0x190>:
    21dc:	360e34        	ae_cvtq48a32s	aeq0, a14
    21df:	368a34        	ae_cvtq48a32s	aeq2, a10
    21e2:	40eec0        	nsa	a12, a14
    21e5:	8ccd           	ae_sext16	a12, a12
    21e7:	fc24feac4f 	{ ae_slaasq56s	aeq1, aeq2, a12; nop }
    21ec:	ff04cf1cce 	{ addi	a12, a12, -15; ae_satq48s	aeq3, aeq1 }
    21f1:	fc24fe8c8f 	{ ae_slaasq56s	aeq2, aeq0, a12; nop }
    21f6:	fd80ff3aef 	{ ae_trunca32q48	a10, aeq3; ae_satq48s	aeq1, aeq2 }
    21fb:	369b04        	ae_trunca32q48	a11, aeq1
    21fe:	d2aab0        	quos	a10, a10, a11
    2201:	aaad           	ae_clamps16	a10, a10
    2203:	404f10        	ssai	31
    2206:	81f8           	l32i.n	a15, a1, 32
    2208:	32dd           	ae_l16si.n	a13, a2, 2
    220a:	11ea00        	slli	a14, a10, 16
    220d:	21e8e0        	srai	a14, a14, 8
    2210:	11dd00        	slli	a13, a13, 16
    2213:	21d8d0        	srai	a13, a13, 8
    2216:	82cde0        	mull	a12, a13, a14
    2219:	b2dde0        	mulsh	a13, a13, a14
    221c:	0292e2        	l16si	a14, a2, 4
    221f:	11ff00        	slli	a15, a15, 16
    2222:	21f8f0        	srai	a15, a15, 8
    2225:	11ee00        	slli	a14, a14, 16
    2228:	21e8e0        	srai	a14, a14, 8
    222b:	82bef0        	mull	a11, a14, a15
    222e:	b2eef0        	mulsh	a14, a14, a15
    2231:	81ddc0        	src	a13, a13, a12
    2234:	81eeb0        	src	a14, a14, a11
    2237:	404810        	ssai	24
    223a:	ddea           	add.n	a13, a13, a14
    223c:	11bbf0        	slli	a11, a11, 1
    223f:	90bcb0        	addx2	a11, a12, a11
    2242:	ab4a           	add.n	a10, a11, a4
    2244:	11ccf0        	slli	a12, a12, 1
    2247:	62cbc0        	saltu	a12, a11, a12
    224a:	ccda           	add.n	a12, a12, a13
    224c:	62bab0        	saltu	a11, a10, a11
    224f:	bbca           	add.n	a11, a11, a12
    2251:	81aba0        	src	a10, a11, a10
    2254:	31b8b0        	srai	a11, a11, 24
    2257:	81bba0        	src	a11, a11, a10
    225a:	11aa80        	slli	a10, a10, 8
    225d:	fecba5        	call8	f18 <_saturate24>
    2260:	404700        	ssai	7
    2263:	21f8a0        	srai	a15, a10, 8
    2266:	82baf0        	mull	a11, a10, a15
    2269:	b2caf0        	mulsh	a12, a10, a15
    226c:	b1f9           	s32i.n	a15, a1, 44
    226e:	81bcb0        	src	a11, a12, a11
    2271:	31fff0        	srai	a15, a15, 31
    2274:	a1f9           	s32i.n	a15, a1, 40
    2276:	404010        	ssai	16
    2279:	ab6a           	add.n	a10, a11, a6
    227b:	21c7c0        	srai	a12, a12, 7
    227e:	62bab0        	saltu	a11, a10, a11
    2281:	bbca           	add.n	a11, a11, a12
    2283:	81aba0        	src	a10, a11, a10
    2286:	31b0b0        	srai	a11, a11, 16
    2289:	fec5a5        	call8	ee4 <_saturate32>
    228c:	b1b8           	l32i.n	a11, a1, 44
    228e:	a1d8           	l32i.n	a13, a1, 40
    2290:	41a9           	s32i.n	a10, a1, 16
    2292:	cb6a           	add.n	a12, a11, a6
    2294:	0cad           	mov.n	a10, a12
    2296:	62bcb0        	saltu	a11, a12, a11
    2299:	bbda           	add.n	a11, a11, a13
    229b:	fec4a5        	call8	ee4 <_saturate32>
    229e:	81b8           	l32i.n	a11, a1, 32
    22a0:	51a9           	s32i.n	a10, a1, 20
    22a2:	11cb80        	slli	a12, a11, 8
    22a5:	31b8b0        	srai	a11, a11, 24
    22a8:	0cad           	mov.n	a10, a12
    22aa:	fec3a5        	call8	ee4 <_saturate32>
    22ad:	0acd           	mov.n	a12, a10
    22af:	aa6a           	add.n	a10, a10, a6
    22b1:	62bac0        	saltu	a11, a10, a12
    22b4:	31cfc0        	srai	a12, a12, 31
    22b7:	bbca           	add.n	a11, a11, a12
    22b9:	fec2a5        	call8	ee4 <_saturate32>
    22bc:	a1e8           	l32i.n	a14, a1, 40
    22be:	b1d8           	l32i.n	a13, a1, 44
    22c0:	41c8           	l32i.n	a12, a1, 16
    22c2:	01a9           	s32i.n	a10, a1, 0
    22c4:	71c9           	s32i.n	a12, a1, 28
    22c6:	dcda           	add.n	a13, a12, a13
    22c8:	62bdc0        	saltu	a11, a13, a12
    22cb:	0dad           	mov.n	a10, a13
    22cd:	31cfc0        	srai	a12, a12, 31
    22d0:	61c9           	s32i.n	a12, a1, 24
    22d2:	ccea           	add.n	a12, a12, a14
    22d4:	bbca           	add.n	a11, a11, a12
    22d6:	fec0e5        	call8	ee4 <_saturate32>
    22d9:	0abd           	mov.n	a11, a10
    22db:	31cfa0        	srai	a12, a10, 31
    22de:	ccca           	add.n	a12, a12, a12
    22e0:	aaaa           	add.n	a10, a10, a10
    22e2:	62bab0        	saltu	a11, a10, a11
    22e5:	bbca           	add.n	a11, a11, a12
    22e7:	febfe5        	call8	ee4 <_saturate32>
    22ea:	01e8           	l32i.n	a14, a1, 0
    22ec:	404800        	ssai	8
    22ef:	31cfa0        	srai	a12, a10, 31
    22f2:	3ecc           	bnez.n	a14, 22f9 <fn_calc_sup_gain+0x2ad>
    22f4:	0a0c           	movi.n	a10, 0
    22f6:	000f46        	j	2337 <fn_calc_sup_gain+0x2eb>

000022f9 <fn_calc_sup_gain+0x2ad>:
    22f9:	01dab2        	addmi	a11, a10, 0x100
    22fc:	80cbb2        	addi	a11, a11, -128
    22ff:	62aba0        	saltu	a10, a11, a10
    2302:	aaca           	add.n	a10, a10, a12
    2304:	81aab0        	src	a10, a10, a11
    2307:	052ae7        	blt	a10, a14, 2310 <fn_calc_sup_gain+0x2c4>
    230a:	f754a1        	l32r	a10, 5c (7fff <xtensa_fft8_32b+0x27>)
    230d:	000986        	j	2337 <fn_calc_sup_gain+0x2eb>

00002310 <fn_calc_sup_gain+0x2c4>:
    2310:	368e34        	ae_cvtq48a32s	aeq2, a14
    2313:	360a34        	ae_cvtq48a32s	aeq0, a10
    2316:	40eec0        	nsa	a12, a14
    2319:	8ccd           	ae_sext16	a12, a12
    231b:	fc24fe8ccf 	{ ae_slaasq56s	aeq3, aeq0, a12; nop }
    2320:	fd84cf1cce 	{ addi	a12, a12, -15; ae_satq48s	aeq1, aeq3 }
    2325:	fc24feac0f 	{ ae_slaasq56s	aeq0, aeq2, a12; nop }
    232a:	ff00ff1aef 	{ ae_trunca32q48	a10, aeq1; ae_satq48s	aeq3, aeq0 }
    232f:	36bb04        	ae_trunca32q48	a11, aeq3
    2332:	d2aab0        	quos	a10, a10, a11
    2335:	aaad           	ae_clamps16	a10, a10
    2337:	31bba0        	srai	a11, a10, 27
    233a:	11dab0        	slli	a13, a10, 5
    233d:	0dad           	mov.n	a10, a13
    233f:	feba65        	call8	ee4 <_saturate32>
    2342:	404300        	ssai	3
    2345:	6188           	l32i.n	a8, a1, 24
    2347:	71e8           	l32i.n	a14, a1, 28
    2349:	0abd           	mov.n	a11, a10
    234b:	31cfb0        	srai	a12, a11, 31
    234e:	fe4b           	addi.n	a15, a14, 4
    2350:	62efe0        	saltu	a14, a15, a14
    2353:	ee8a           	add.n	a14, a14, a8
    2355:	81eef0        	src	a14, a14, a15
    2358:	aaea           	add.n	a10, a10, a14
    235a:	31dfe0        	srai	a13, a14, 31
    235d:	ccda           	add.n	a12, a12, a13
    235f:	62bab0        	saltu	a11, a10, a11
    2362:	bbca           	add.n	a11, a11, a12
    2364:	feb7e5        	call8	ee4 <_saturate32>
    2367:	f76b81        	l32r	a8, 114 (d80 <fxsqrt_ie>)
    236a:	0008e0        	callx8	a8
    236d:	0abd           	mov.n	a11, a10
    236f:	11aa70        	slli	a10, a10, 9
    2372:	31b7b0        	srai	a11, a11, 23
    2375:	feb6e5        	call8	ee4 <_saturate32>
    2378:	0abd           	mov.n	a11, a10
    237a:	a1d8           	l32i.n	a13, a1, 40
    237c:	b1a8           	l32i.n	a10, a1, 44
    237e:	31cfb0        	srai	a12, a11, 31
    2381:	ccda           	add.n	a12, a12, a13
    2383:	abaa           	add.n	a10, a11, a10
    2385:	62bab0        	saltu	a11, a10, a11
    2388:	bbca           	add.n	a11, a11, a12
    238a:	feb5a5        	call8	ee4 <_saturate32>
    238d:	51b8           	l32i.n	a11, a1, 20
    238f:	1461a2        	s32i	a10, a1, 80
    2392:	31dfb0        	srai	a13, a11, 31
    2395:	cbba           	add.n	a12, a11, a11
    2397:	0cad           	mov.n	a10, a12
    2399:	ddda           	add.n	a13, a13, a13
    239b:	62bcb0        	saltu	a11, a12, a11
    239e:	bbda           	add.n	a11, a11, a13
    23a0:	feb425        	call8	ee4 <_saturate32>
    23a3:	1421e2        	l32i	a14, a1, 80
    23a6:	3acc           	bnez.n	a10, 23ad <fn_calc_sup_gain+0x361>
    23a8:	0a0c           	movi.n	a10, 0
    23aa:	000bc6        	j	23dd <fn_calc_sup_gain+0x391>

000023ad <fn_calc_sup_gain+0x361>:
    23ad:	052ea7        	blt	a14, a10, 23b6 <fn_calc_sup_gain+0x36a>
    23b0:	f72ba1        	l32r	a10, 5c (7fff <xtensa_fft8_32b+0x27>)
    23b3:	000986        	j	23dd <fn_calc_sup_gain+0x391>

000023b6 <fn_calc_sup_gain+0x36a>:
    23b6:	360a34        	ae_cvtq48a32s	aeq0, a10
    23b9:	368e34        	ae_cvtq48a32s	aeq2, a14
    23bc:	40eac0        	nsa	a12, a10
    23bf:	8ccd           	ae_sext16	a12, a12
    23c1:	fc24feac4f 	{ ae_slaasq56s	aeq1, aeq2, a12; nop }
    23c6:	ff04cf1cce 	{ addi	a12, a12, -15; ae_satq48s	aeq3, aeq1 }
    23cb:	fc24fe8c8f 	{ ae_slaasq56s	aeq2, aeq0, a12; nop }
    23d0:	fd80ff3aef 	{ ae_trunca32q48	a10, aeq3; ae_satq48s	aeq1, aeq2 }
    23d5:	369b04        	ae_trunca32q48	a11, aeq1
    23d8:	d2aab0        	quos	a10, a10, a11
    23db:	aaad           	ae_clamps16	a10, a10
    23dd:	63ad           	ae_s16i.n	a10, a3, 0
    23df:	0392e2        	l16si	a14, a2, 6
    23e2:	03aae7        	bge	a10, a14, 23e9 <fn_calc_sup_gain+0x39d>
    23e5:	0ead           	mov.n	a10, a14
    23e7:	63ed           	ae_s16i.n	a14, a3, 0

000023e9 <fn_calc_sup_gain+0x39d>:
    23e9:	404f10        	ssai	31
    23ec:	11ca00        	slli	a12, a10, 16
    23ef:	21c8c0        	srai	a12, a12, 8
    23f2:	82acc0        	mull	a10, a12, a12
    23f5:	b2ccc0        	mulsh	a12, a12, a12
    23f8:	11baf0        	slli	a11, a10, 1
    23fb:	81cca0        	src	a12, a12, a10
    23fe:	90aa40        	addx2	a10, a10, a4
    2401:	62bab0        	saltu	a11, a10, a11
    2404:	404810        	ssai	24
    2407:	bbca           	add.n	a11, a11, a12
    2409:	81aba0        	src	a10, a11, a10
    240c:	31b8b0        	srai	a11, a11, 24
    240f:	81bba0        	src	a11, a11, a10
    2412:	11aa80        	slli	a10, a10, 8
    2415:	feb025        	call8	f18 <_saturate24>
    2418:	c1c8           	l32i.n	a12, a1, 48
    241a:	0cc8           	l32i.n	a12, a12, 0
    241c:	404f10        	ssai	31
    241f:	21d8a0        	srai	a13, a10, 8
    2422:	21c8c0        	srai	a12, a12, 8
    2425:	82acd0        	mull	a10, a12, a13
    2428:	b2ccd0        	mulsh	a12, a12, a13
    242b:	11baf0        	slli	a11, a10, 1
    242e:	81cca0        	src	a12, a12, a10
    2431:	90aa40        	addx2	a10, a10, a4
    2434:	62bab0        	saltu	a11, a10, a11
    2437:	404810        	ssai	24
    243a:	bbca           	add.n	a11, a11, a12
    243c:	81aba0        	src	a10, a11, a10
    243f:	31b8b0        	srai	a11, a11, 24
    2442:	81bba0        	src	a11, a11, a10
    2445:	11aa80        	slli	a10, a10, 8
    2448:	feace5        	call8	f18 <_saturate24>
    244b:	774b           	addi.n	a7, a7, 4
    244d:	91f8           	l32i.n	a15, a1, 36
    244f:	c1e8           	l32i.n	a14, a1, 48
    2451:	332b           	addi.n	a3, a3, 2
    2453:	c0d350        	sub	a13, a3, a5
    2456:	ee4b           	addi.n	a14, a14, 4
    2458:	09efa4        	ae_s32ip	a10, a15, 4
    245b:	91f9           	s32i.n	a15, a1, 36
    245d:	c1e9           	s32i.n	a14, a1, 48
    245f:	d04d56        	bnez	a13, 2167 <fn_calc_sup_gain+0x11b>
    2462:	007dc6        	j	265d <fn_calc_sup_gain+0x611>

00002465 <fn_calc_sup_gain+0x419>:
    2465:	508604        	ae_lp24f.iu	aep0, a6, 0
    2468:	307474        	ae_cvtp24a16x2.ll	aep7, a4, a7
    246b:	567174        	ae_sp24x2s.i	aep7, a1, 56
    246e:	3148           	l32i.n	a4, a1, 12
    2470:	72cb           	addi.n	a7, a2, 12
    2472:	50a704        	ae_lp24f.iu	aep2, a7, 0
    2475:	fc24ae940f 	{ ae_lp24f.iu	aep1, a4, 0; ae_zeroq56	aeq0 }
    247a:	0213e6        	bgei	a3, 1, 2480 <fn_calc_sup_gain+0x434>
    247d:	007706        	j	265d <fn_calc_sup_gain+0x611>
    2480:	2188           	l32i.n	a8, a1, 8
    2482:	0a4184        	ae_cvtq48p24s.l	aeq1, aep1
    2485:	fe0c11538f 	{ addx2	a5, a3, a8; ae_cvtq48p24s.l	aeq2, aep0 }
    248a:	fa36d3388f 	{ or	a3, a8, a8; ae_subq56	aeq2, aeq2, aeq1 }

0000248f <fn_calc_sup_gain+0x443>:
    248f:	06ca44        	ae_satq48s	aeq3, aeq2
    2492:	098304        	ae_ltq56s	b0, aeq3, aeq0
    2495:	0304a0        	rsr.br	a10
    2498:	d4447f01bf 	{ ae_movq56	aeq2, aeq0; ae_eqq56	b1, aeq1, aeq0 }
    249d:	04a0a0        	extui	a10, a10, 0, 1
    24a0:	1acc           	bnez.n	a10, 24a5 <fn_calc_sup_gain+0x459>
    24a2:	06bb34        	ae_movq56	aeq2, aeq3

000024a5 <fn_calc_sup_gain+0x459>:
    24a5:	030490        	rsr.br	a9
    24a8:	049190        	extui	a9, a9, 1, 1
    24ab:	398c           	beqz.n	a9, 24b2 <fn_calc_sup_gain+0x466>
    24ad:	0a0c           	movi.n	a10, 0
    24af:	000c86        	j	24e5 <fn_calc_sup_gain+0x499>

000024b2 <fn_calc_sup_gain+0x466>:
    24b2:	35a234        	ae_sraiq56	aeq2, aeq2, 8
    24b5:	09a524        	ae_leq56s	b2, aeq1, aeq2
    24b8:	365c04        	ae_nsaq56s	a12, aeq1
    24bb:	f6e8a1        	l32r	a10, 5c (7fff <xtensa_fft8_32b+0x27>)
    24be:	020276        	bf	b2, 24c4 <fn_calc_sup_gain+0x478>
    24c1:	000806        	j	24e5 <fn_calc_sup_gain+0x499>

000024c4 <fn_calc_sup_gain+0x478>:
    24c4:	f8ccc2        	addi	a12, a12, -8
    24c7:	8ccd           	ae_sext16	a12, a12
    24c9:	fc24feaccf 	{ ae_slaasq56s	aeq3, aeq2, a12; nop }
    24ce:	fe84cf1cce 	{ addi	a12, a12, -15; ae_satq48s	aeq2, aeq3 }
    24d3:	fc24fe9ccf 	{ ae_slaasq56s	aeq3, aeq1, a12; nop }
    24d8:	fe84ff2aef 	{ ae_trunca32q48	a10, aeq2; ae_satq48s	aeq2, aeq3 }
    24dd:	36ab04        	ae_trunca32q48	a11, aeq2
    24e0:	d2aab0        	quos	a10, a10, a11
    24e3:	aaad           	ae_clamps16	a10, a10
    24e5:	543174        	ae_lp24x2.i	aep3, a1, 56
    24e8:	f6e4d1        	l32r	a13, 78 (8000 <xtensa_fft8_32b+0x28>)
    24eb:	398c           	beqz.n	a9, 24f2 <fn_calc_sup_gain+0x4a6>
    24ed:	090c           	movi.n	a9, 0
    24ef:	000d06        	j	2527 <fn_calc_sup_gain+0x4db>

000024f2 <fn_calc_sup_gain+0x4a6>:
    24f2:	fe4c3f1caf 	{ ae_nsaq56s	a12, aeq1; ae_cvtq48p24s.l	aeq2, aep2 }
    24f7:	35a234        	ae_sraiq56	aeq2, aeq2, 8
    24fa:	09a534        	ae_leq56s	b3, aeq1, aeq2
    24fd:	f6d791        	l32r	a9, 5c (7fff <xtensa_fft8_32b+0x27>)
    2500:	f8ccc2        	addi	a12, a12, -8
    2503:	020376        	bf	b3, 2509 <fn_calc_sup_gain+0x4bd>
    2506:	000746        	j	2527 <fn_calc_sup_gain+0x4db>

00002509 <fn_calc_sup_gain+0x4bd>:
    2509:	8ccd           	ae_sext16	a12, a12
    250b:	fc24feaccf 	{ ae_slaasq56s	aeq3, aeq2, a12; nop }
    2510:	fe84cf1cce 	{ addi	a12, a12, -15; ae_satq48s	aeq2, aeq3 }
    2515:	fc24fe9ccf 	{ ae_slaasq56s	aeq3, aeq1, a12; nop }
    251a:	fe84ff29ef 	{ ae_trunca32q48	a9, aeq2; ae_satq48s	aeq2, aeq3 }
    251f:	36ab04        	ae_trunca32q48	a11, aeq2
    2522:	d299b0        	quos	a9, a9, a11
    2525:	a99d           	ae_clamps16	a9, a9
    2527:	304994        	ae_cvtp24a16x2.ll	aep4, a9, a9
    252a:	e97098aaaf 	{ ae_cvtp24a16x2.ll	aep2, a10, a10; ae_mulfp24s.hh	aeq2, aep4, aep3 }
    252f:	01a334        	ae_mulafp24s.ll	aeq2, aep2, aep3
    2532:	11ca80        	slli	a12, a10, 8
    2535:	1bad14        	ae_roundsp24q48asym	aep1, aeq2
    2538:	e824fecdff 	{ ae_cvtq48a32s	aeq3, a13; ae_mulfp24s.hh	aeq1, aep1, aep1 }
    253d:	fc2c3eccbf 	{ ae_cvtq48a32s	aeq2, a12; ae_cvtq48p24s.l	aeq0, aep1 }
    2542:	faf63b020f 	{ ae_sraiq56	aeq0, aeq0, 8; ae_addq56	aeq2, aeq2, aeq3 }
    2547:	01cbc4        	ae_addq56	aeq3, aeq0, aeq3
    254a:	fd2c4781be 	{ addi	a11, a1, 120; ae_roundsq32asym	aeq1, aeq1 }
    254f:	f8663a0b9f 	{ ae_sq56s.i	aeq0, a11, -56; ae_addq56	aeq0, aeq0, aeq1 }
    2554:	ff00fa3baf 	{ ae_sq56s.i	aeq3, a11, -48; ae_satq48s	aeq3, aeq0 }
    2559:	fc248000af 	{ movi	a10, 0; ae_zeroq56	aeq0 }
    255e:	d4c2bb32cf 	{ ae_sraiq56	aeq3, aeq3, 8; ae_eqq56	b10, aeq2, aeq0 }
    2563:	ff3c7d8baf 	{ ae_lq56.i	aeq0, a11, -48; ae_roundsq32asym	aeq3, aeq3 }
    2568:	d5dafa0baf 	{ ae_sq56s.i	aeq0, a11, -48; ae_leq56s	b11, aeq2, aeq3 }
    256d:	050a76        	bf	b10, 2576 <fn_calc_sup_gain+0x52a>
    2570:	560bc4        	ae_sp24x2s.i	aep0, a11, -32
    2573:	000d86        	j	25ad <fn_calc_sup_gain+0x561>

00002576 <fn_calc_sup_gain+0x52a>:
    2576:	080b76        	bf	b11, 2582 <fn_calc_sup_gain+0x536>
    2579:	f6b8a1        	l32r	a10, 5c (7fff <xtensa_fft8_32b+0x27>)
    257c:	560bc4        	ae_sp24x2s.i	aep0, a11, -32
    257f:	000a86        	j	25ad <fn_calc_sup_gain+0x561>

00002582 <fn_calc_sup_gain+0x536>:
    2582:	366c04        	ae_nsaq56s	a12, aeq2
    2585:	f8ccc2        	addi	a12, a12, -8
    2588:	8ccd           	ae_sext16	a12, a12
    258a:	fc24febccf 	{ ae_slaasq56s	aeq3, aeq3, a12; nop }
    258f:	ff84cf1cce 	{ addi	a12, a12, -15; ae_satq48s	aeq3, aeq3 }
    2594:	36ba04        	ae_trunca32q48	a10, aeq3
    2597:	fc24feaccf 	{ ae_slaasq56s	aeq3, aeq2, a12; nop }
    259c:	06cb44        	ae_satq48s	aeq3, aeq3
    259f:	36bb04        	ae_trunca32q48	a11, aeq3
    25a2:	d2aab0        	quos	a10, a10, a11
    25a5:	aaad           	ae_clamps16	a10, a10
    25a7:	78c1b2        	addi	a11, a1, 120
    25aa:	560bc4        	ae_sp24x2s.i	aep0, a11, -32
    25ad:	f6d981        	l32r	a8, 114 (d80 <fxsqrt_ie>)
    25b0:	3590f4        	ae_sraiq56	aeq2, aeq1, 3
    25b3:	364a34        	ae_cvtq48a32s	aeq1, a10
    25b6:	fc347a915f 	{ ae_slliq56	aeq1, aeq1, 5; ae_roundsq32asym	aeq0, aeq2 }
    25bb:	0109c4        	ae_addq56	aeq0, aeq0, aeq1
    25be:	368a04        	ae_trunca32q48	a10, aeq0
    25c1:	0008e0        	callx8	a8
    25c4:	78c1b2        	addi	a11, a1, 120
    25c7:	618ba4        	ae_lq56.i	aeq2, a11, -48
    25ca:	fc24baa09f 	{ ae_slliq56	aeq2, aeq2, 1; ae_zeroq56	aeq0 }
    25cf:	064a44        	ae_satq48s	aeq1, aeq2
    25d2:	d4470000cf 	{ movi	a12, 0; ae_eqq56	b12, aeq1, aeq0 }
    25d7:	540bc4        	ae_lp24x2.i	aep0, a11, -32
    25da:	61cb94        	ae_lq56.i	aeq3, a11, -56
    25dd:	060c76        	bf	b12, 25e7 <fn_calc_sup_gain+0x59b>
    25e0:	0a0c           	movi.n	a10, 0
    25e2:	63cd           	ae_s16i.n	a12, a3, 0
    25e4:	001086        	j	262a <fn_calc_sup_gain+0x5de>

000025e7 <fn_calc_sup_gain+0x59b>:
    25e7:	11ea70        	slli	a14, a10, 9
    25ea:	368e34        	ae_cvtq48a32s	aeq2, a14
    25ed:	01fac4        	ae_addq56	aeq3, aeq3, aeq2
    25f0:	068b44        	ae_satq48s	aeq2, aeq3
    25f3:	09a5d4        	ae_leq56s	b13, aeq1, aeq2
    25f6:	f699f1        	l32r	a15, 5c (7fff <xtensa_fft8_32b+0x27>)
    25f9:	f698a1        	l32r	a10, 5c (7fff <xtensa_fft8_32b+0x27>)
    25fc:	040d76        	bf	b13, 2604 <fn_calc_sup_gain+0x5b8>
    25ff:	63fd           	ae_s16i.n	a15, a3, 0
    2601:	000946        	j	262a <fn_calc_sup_gain+0x5de>

00002604 <fn_calc_sup_gain+0x5b8>:
    2604:	365c04        	ae_nsaq56s	a12, aeq1
    2607:	f8ccc2        	addi	a12, a12, -8
    260a:	8ccd           	ae_sext16	a12, a12
    260c:	fc24feaccf 	{ ae_slaasq56s	aeq3, aeq2, a12; nop }
    2611:	fe84cf1cce 	{ addi	a12, a12, -15; ae_satq48s	aeq2, aeq3 }
    2616:	fc24fe9ccf 	{ ae_slaasq56s	aeq3, aeq1, a12; nop }
    261b:	fe84ff2aef 	{ ae_trunca32q48	a10, aeq2; ae_satq48s	aeq2, aeq3 }
    2620:	36ab04        	ae_trunca32q48	a11, aeq2
    2623:	d2aab0        	quos	a10, a10, a11
    2626:	aaad           	ae_clamps16	a10, a10
    2628:	63ad           	ae_s16i.n	a10, a3, 0
    262a:	0392e2        	l16si	a14, a2, 6
    262d:	03aae7        	bge	a10, a14, 2634 <fn_calc_sup_gain+0x5e8>
    2630:	0ead           	mov.n	a10, a14
    2632:	63ed           	ae_s16i.n	a14, a3, 0

00002634 <fn_calc_sup_gain+0x5e8>:
    2634:	307aa4        	ae_cvtp24a16x2.ll	aep7, a10, a10
    2637:	01f774        	ae_mulfp24s.ll	aeq2, aep7, aep7
    263a:	1bad64        	ae_roundsp24q48asym	aep6, aeq2
    263d:	016874        	ae_mulfp24s.ll	aeq1, aep6, aep0
    2640:	fa6fc0233e 	{ addi	a3, a3, 2; ae_roundsp24q48asym	aep5, aeq1 }
    2645:	52d704        	ae_sp24f.l.iu	aep5, a7, 0
    2648:	509414        	ae_lp24f.iu	aep1, a4, 4
    264b:	fd2c2e861f 	{ ae_lp24f.iu	aep0, a6, 4; ae_cvtq48p24s.l	aeq1, aep1 }
    2650:	fe0c15d35f 	{ sub	a13, a3, a5; ae_cvtq48p24s.l	aeq2, aep0 }
    2655:	fa36eea71f 	{ ae_lp24f.iu	aep2, a7, 4; ae_subq56	aeq2, aeq2, aeq1 }
    265a:	e31d56        	bnez	a13, 248f <fn_calc_sup_gain+0x443>
    265d:	0492e2        	l16si	a14, a2, 8
    2660:	ce8c           	beqz.n	a14, 2670 <fn_calc_sup_gain+0x624>
    2662:	02ad           	mov.n	a10, a2
    2664:	31b8           	l32i.n	a11, a1, 12
    2666:	f6ac81        	l32r	a8, 118 (1074 <calc_amt>)
    2669:	21c8           	l32i.n	a12, a1, 8
    266b:	11d8           	l32i.n	a13, a1, 4
    266d:	0008e0        	callx8	a8

00002670 <fn_calc_sup_gain+0x624>:
    2670:	f01d           	retw.n

00002672 <fn_calc_sup_gain+0x626>:
	...

00002674 <fn_ini_win_detection>:
    2674:	004136        	entry	a1, 32
    2677:	02ad           	mov.n	a10, a2
    2679:	f69581        	l32r	a8, d0 (8820 <xt_memset>)
    267c:	0b0c           	movi.n	a11, 0
    267e:	64a2c2        	movi	a12, 0x264
    2681:	0008e0        	callx8	a8
    2684:	03bd           	mov.n	a11, a3
    2686:	f66981        	l32r	a8, 2c (8838 <xt_memcpy>)
    2689:	02ad           	mov.n	a10, a2
    268b:	8c1c           	movi.n	a12, 24
    268d:	0008e0        	callx8	a8
    2690:	f6a3c1        	l32r	a12, 11c (1000000 <_end+0xff1860>)
    2693:	92b8           	l32i.n	a11, a2, 36
    2695:	0292a2        	l16si	a10, a2, 4
    2698:	03d292        	addmi	a9, a2, 0x300
    269b:	bbca           	add.n	a11, a11, a12
    269d:	6e69b2        	s32i	a11, a9, 0x1b8
    26a0:	1952a2        	s16i	a10, a2, 50
    26a3:	1852a2        	s16i	a10, a2, 48
    26a6:	706942        	s32i	a4, a9, 0x1c0
    26a9:	f01d           	retw.n

000026ab <fn_ini_win_detection+0x37>:
	...

000026ac <fn_win_detection>:
    26ac:	00c136        	entry	a1, 96
    26af:	4129           	s32i.n	a2, a1, 16
    26b1:	3169           	s32i.n	a6, a1, 12
    26b3:	1179           	s32i.n	a7, a1, 4
    26b5:	079282        	l16si	a8, a2, 14
    26b8:	0a0c           	movi.n	a10, 0
    26ba:	04a092        	movi	a9, 4
    26bd:	39a994        	ae_movpa24x2	aep2, a9, a9
    26c0:	0061a2        	s32i	a10, a1, 0
    26c3:	10c592        	addi	a9, a5, 16
    26c6:	5c9904        	ae_lp24x2f.iu	aep1, a9, 0
    26c9:	fc208fc88e 	{ addi	a8, a8, -4; ae_zerop48	aep0 }
    26ce:	218180        	srai	a8, a8, 1
    26d1:	0aa876        	loopgtz	a8, 26df <fn_win_detection+0x33>
    26d4:	079214        	ae_addsp24s	aep1, aep1, aep2
    26d7:	0f1194        	ae_sraip24	aep1, aep1, 3
    26da:	d8212f991f 	{ ae_lp24x2f.iu	aep1, a9, 8; ae_addsp24s	aep0, aep0, aep1 }

000026df <fn_win_detection+0x33>:
    26df:	1a88b4        	ae_selp24.hh	aep3, aep0, aep0
    26e2:	078324        	ae_addsp24s	aep2, aep0, aep3
    26e5:	522104        	ae_sp24f.l.i	aep2, a1, 0
    26e8:	01a8           	l32i.n	a10, a1, 0
    26ea:	f67481        	l32r	a8, bc (df0 <fxlog10>)
    26ed:	21a8a0        	srai	a10, a10, 8
    26f0:	0008e0        	callx8	a8
    26f3:	41b8           	l32i.n	a11, a1, 16
    26f5:	f67981        	l32r	a8, dc (6a4d <Voice_WB_TX_Inear_Prcs+0x48d>)
    26f8:	f66051        	l32r	a5, 78 (8000 <xtensa_fft8_32b+0x28>)
    26fb:	029b22        	l16si	a2, a11, 4
    26fe:	d18a80        	mul16s	a8, a10, a8
    2701:	189bb2        	l16si	a11, a11, 48
    2704:	1188f0        	slli	a8, a8, 1
    2707:	885a           	add.n	a8, a8, a5
    2709:	318080        	srai	a8, a8, 16
    270c:	532280        	max	a2, a2, a8
    270f:	822d           	ae_sext16	a2, a2
    2711:	c0a2b0        	sub	a10, a2, a11
    2714:	022b27        	blt	a11, a2, 271a <fn_win_detection+0x6e>
    2717:	00ba06        	j	2a03 <fn_win_detection+0x357>
    271a:	fe7ae5        	call8	ec8 <_saturate16>
    271d:	41c8           	l32i.n	a12, a1, 16
    271f:	039cb2        	l16si	a11, a12, 6
    2722:	d1bba0        	mul16s	a11, a11, a10
    2725:	189ca2        	l16si	a10, a12, 48
    2728:	90bb50        	addx2	a11, a11, a5
    272b:	31b0b0        	srai	a11, a11, 16
    272e:	aaba           	add.n	a10, a10, a11
    2730:	fe7965        	call8	ec8 <_saturate16>

00002733 <fn_win_detection+0x87>:
    2733:	41d8           	l32i.n	a13, a1, 16
    2735:	199dc2        	l16si	a12, a13, 50
    2738:	185da2        	s16i	a10, a13, 48
    273b:	c0a2c0        	sub	a10, a2, a12
    273e:	1b2c27        	blt	a12, a2, 275d <fn_win_detection+0xb1>
    2741:	fe7865        	call8	ec8 <_saturate16>
    2744:	41c8           	l32i.n	a12, a1, 16
    2746:	069cb2        	l16si	a11, a12, 12
    2749:	d1bba0        	mul16s	a11, a11, a10
    274c:	199ca2        	l16si	a10, a12, 50
    274f:	90bb50        	addx2	a11, a11, a5
    2752:	31b0b0        	srai	a11, a11, 16
    2755:	aaba           	add.n	a10, a10, a11
    2757:	fe7725        	call8	ec8 <_saturate16>
    275a:	000606        	j	2776 <fn_win_detection+0xca>

0000275d <fn_win_detection+0xb1>:
    275d:	fe76a5        	call8	ec8 <_saturate16>
    2760:	41c8           	l32i.n	a12, a1, 16
    2762:	059cb2        	l16si	a11, a12, 10
    2765:	d1bba0        	mul16s	a11, a11, a10
    2768:	199ca2        	l16si	a10, a12, 50
    276b:	90bb50        	addx2	a11, a11, a5
    276e:	31b0b0        	srai	a11, a11, 16
    2771:	aaba           	add.n	a10, a10, a11
    2773:	fe7565        	call8	ec8 <_saturate16>

00002776 <fn_win_detection+0xca>:
    2776:	41e8           	l32i.n	a14, a1, 16
    2778:	189ed2        	l16si	a13, a14, 48
    277b:	2ecd           	ae_l16si.n	a12, a14, 0
    277d:	195ea2        	s16i	a10, a14, 50
    2780:	acda           	add.n	a10, a12, a13
    2782:	fe7465        	call8	ec8 <_saturate16>
    2785:	41f8           	l32i.n	a15, a1, 16
    2787:	199ff2        	l16si	a15, a15, 50
    278a:	080c           	movi.n	a8, 0
    278c:	022af7        	blt	a10, a15, 2792 <fn_win_detection+0xe6>
    278f:	00a306        	j	2a1f <fn_win_detection+0x373>
    2792:	190c           	movi.n	a9, 1

00002794 <fn_win_detection+0xe8>:
    2794:	41a8           	l32i.n	a10, a1, 16
    2796:	1a5a92        	s16i	a9, a10, 52
    2799:	1b5a82        	s16i	a8, a10, 54
    279c:	000186        	j	27a6 <fn_win_detection+0xfa>

0000279f <fn_win_detection+0xf3>:
    279f:	41c8           	l32i.n	a12, a1, 16
    27a1:	ba1b           	addi.n	a11, a10, 1
    27a3:	1b5cb2        	s16i	a11, a12, 54
    27a6:	4178           	l32i.n	a7, a1, 16
    27a8:	31a8           	l32i.n	a10, a1, 12
    27aa:	076d           	mov.n	a6, a7
    27ac:	47c8           	l32i.n	a12, a7, 16
    27ae:	9788           	l32i.n	a8, a7, 36
    27b0:	77b8           	l32i.n	a11, a7, 28
    27b2:	38c752        	addi	a5, a7, 56
    27b5:	1a9792        	l16si	a9, a7, 52
    27b8:	02d722        	addmi	a2, a7, 0x200
    27bb:	6a9d           	ae_s16i.n	a9, a10, 0
    27bd:	0a0c           	movi.n	a10, 0
    27bf:	5ca274        	ae_lp24x2f.iu	aep2, a2, 56
    27c2:	509504        	ae_lp24f.iu	aep1, a5, 0
    27c5:	21b8b0        	srai	a11, a11, 8
    27c8:	218e80        	srai	a8, a8, 14
    27cb:	21c8c0        	srai	a12, a12, 8
    27ce:	398cc4        	ae_movpa24x2	aep0, a12, a12
    27d1:	04d882        	addmi	a8, a8, 0x400
    27d4:	5189           	s32i.n	a8, a1, 20
    27d6:	560144        	ae_sp24x2s.i	aep0, a1, 32
    27d9:	0c0c           	movi.n	a12, 0
    27db:	01c9           	s32i.n	a12, a1, 0
    27dd:	39fbc4        	ae_movpa24x2	aep7, a11, a12
    27e0:	567134        	ae_sp24x2s.i	aep7, a1, 24
    27e3:	04bd           	mov.n	a11, a4
    27e5:	5cbb04        	ae_lp24x2f.iu	aep3, a11, 0
    27e8:	03cd           	mov.n	a12, a3
    27ea:	03d742        	addmi	a4, a7, 0x300
    27ed:	3cc442        	addi	a4, a4, 60
    27f0:	5ccc04        	ae_lp24x2f.iu	aep4, a12, 0
    27f3:	01d732        	addmi	a3, a7, 0x100
    27f6:	074c           	movi.n	a7, 64
    27f8:	38c332        	addi	a3, a3, 56
    27fb:	508304        	ae_lp24f.iu	aep0, a3, 0

000027fe <fn_win_detection+0x152>:
    27fe:	545134        	ae_lp24x2.i	aep5, a1, 24
    2801:	07b574        	ae_addsp24s	aep7, aep3, aep5
    2804:	07c564        	ae_addsp24s	aep6, aep4, aep5
    2807:	04e604        	ae_mulzaafp24s.hh.ll	aeq2, aep6, aep6
    280a:	047704        	ae_mulzaafp24s.hh.ll	aeq0, aep7, aep7
    280d:	046f04        	ae_mulzaafp24s.hh.ll	aeq1, aep6, aep7
    2810:	f7f8fac20f 	{ ae_sllisq56s	aeq0, aeq0, 8; ae_mulzsafp24s.hl.lh	aeq3, aep6, aep7 }
    2815:	060844        	ae_satq48s	aeq0, aeq0
    2818:	fa67fae20f 	{ ae_sllisq56s	aeq0, aeq2, 8; ae_roundsp24q48asym	aep5, aeq0 }
    281d:	068844        	ae_satq48s	aeq2, aeq0
    2820:	df16baf20f 	{ ae_sllisq56s	aeq0, aeq3, 8; ae_subsp24s	aep6, aep5, aep0 }
    2825:	fd00fad2cf 	{ ae_sllisq56s	aeq3, aeq1, 8; ae_satq48s	aeq1, aeq0 }
    282a:	1bad74        	ae_roundsp24q48asym	aep7, aeq2
    282d:	07f1d4        	ae_subsp24s	aep5, aep7, aep1
    2830:	fc84f0714f 	{ ae_lp24x2.i	aep7, a1, 32; ae_satq48s	aeq0, aeq3 }
    2835:	01d744        	ae_mulfp24s.hh	aeq2, aep5, aep7
    2838:	01ef44        	ae_mulfp24s.hh	aeq3, aep6, aep7
    283b:	1b8d54        	ae_roundsp24q48asym	aep5, aeq0
    283e:	07d2e4        	ae_subsp24s	aep6, aep5, aep2
    2841:	016744        	ae_mulfp24s.hh	aeq0, aep6, aep7
    2844:	1b9d54        	ae_roundsp24q48asym	aep5, aeq1
    2847:	07d2e4        	ae_subsp24s	aep6, aep5, aep2
    284a:	016f64        	ae_mulfp24s.lh	aeq1, aep6, aep7
    284d:	1bbd54        	ae_roundsp24q48asym	aep5, aeq3
    2850:	078504        	ae_addsp24s	aep0, aep0, aep5
    2853:	1bad74        	ae_roundsp24q48asym	aep7, aeq2
    2856:	1b9d64        	ae_roundsp24q48asym	aep6, aeq1
    2859:	07a664        	ae_addsp24s	aep6, aep2, aep6
    285c:	079754        	ae_addsp24s	aep5, aep1, aep7
    285f:	01d874        	ae_mulfp24s.ll	aeq3, aep5, aep0
    2862:	1b8d74        	ae_roundsp24q48asym	aep7, aeq0
    2865:	dbe97051ee 	{ l32i	a14, a1, 20; ae_addsp24s	aep7, aep2, aep7 }
    286a:	dfdcc100ff 	{ movi	a15, 0x100; ae_selp24.hl	aep7, aep7, aep6 }
    286f:	fe3c76f20f 	{ ae_sp24x2f.iu	aep7, a2, 0; ae_roundsq32asym	aeq2, aeq3 }
    2874:	36ad04        	ae_trunca32q48	a13, aeq2
    2877:	52d504        	ae_sp24f.l.iu	aep5, a5, 0
    287a:	f1fef4830f 	{ ae_sp24f.l.iu	aep0, a3, 0; ae_mulzaafp24s.hh.ll	aeq3, aep7, aep7 }
    287f:	022fd7        	blt	a15, a13, 2885 <fn_win_detection+0x1d9>
    2882:	002c46        	j	2937 <fn_win_detection+0x28b>
    2885:	a1c9           	s32i.n	a12, a1, 40
    2887:	b1b9           	s32i.n	a11, a1, 44
    2889:	3dcc           	bnez.n	a13, 2890 <fn_win_detection+0x1e4>
    288b:	0e0c           	movi.n	a14, 0
    288d:	000d46        	j	28c6 <fn_win_detection+0x21a>

00002890 <fn_win_detection+0x1e4>:
    2890:	067934        	ae_roundsq32asym	aeq1, aeq3
    2893:	369e04        	ae_trunca32q48	a14, aeq1
    2896:	364d34        	ae_cvtq48a32s	aeq1, a13
    2899:	36ce34        	ae_cvtq48a32s	aeq3, a14
    289c:	052ed7        	blt	a14, a13, 28a5 <fn_win_detection+0x1f9>
    289f:	f5efe1        	l32r	a14, 5c (7fff <xtensa_fft8_32b+0x27>)
    28a2:	000806        	j	28c6 <fn_win_detection+0x21a>

000028a5 <fn_win_detection+0x1f9>:
    28a5:	40ed80        	nsa	a8, a13
    28a8:	888d           	ae_sext16	a8, a8
    28aa:	fc24feb88f 	{ ae_slaasq56s	aeq2, aeq3, a8; nop }
    28af:	fc80cf188e 	{ addi	a8, a8, -15; ae_satq48s	aeq0, aeq2 }
    28b4:	fc24fe98cf 	{ ae_slaasq56s	aeq3, aeq1, a8; nop }
    28b9:	fe84ff0eef 	{ ae_trunca32q48	a14, aeq0; ae_satq48s	aeq2, aeq3 }
    28be:	36af04        	ae_trunca32q48	a15, aeq2
    28c1:	d2eef0        	quos	a14, a14, a15
    28c4:	aeed           	ae_clamps16	a14, a14
    28c6:	21a9           	s32i.n	a10, a1, 8

000028c8 <fn_win_detection+0x21c>:
    28c8:	00afb2        	movi	a11, 0xffffff00
    28cb:	11ae00        	slli	a10, a14, 16
    28ce:	7e54e2        	s16i	a14, a4, 252
    28d1:	01c8           	l32i.n	a12, a1, 0
    28d3:	21a8a0        	srai	a10, a10, 8
    28d6:	10aab0        	and	a10, a10, a11
    28d9:	acaa           	add.n	a10, a12, a10
    28db:	62bac0        	saltu	a11, a10, a12
    28de:	31cfc0        	srai	a12, a12, 31
    28e1:	bbca           	add.n	a11, a11, a12
    28e3:	fe6365        	call8	f18 <_saturate24>
    28e6:	21c8           	l32i.n	a12, a1, 8
    28e8:	e6b8           	l32i.n	a11, a6, 56
    28ea:	01a9           	s32i.n	a10, a1, 0
    28ec:	31efc0        	srai	a14, a12, 31
    28ef:	31dfb0        	srai	a13, a11, 31
    28f2:	cbca           	add.n	a12, a11, a12
    28f4:	0cad           	mov.n	a10, a12
    28f6:	ddea           	add.n	a13, a13, a14
    28f8:	62bcb0        	saltu	a11, a12, a11
    28fb:	bbda           	add.n	a11, a11, a13
    28fd:	fe61a5        	call8	f18 <_saturate24>
    2900:	664b           	addi.n	a6, a6, 4
    2902:	442b           	addi.n	a4, a4, 2
    2904:	5ca214        	ae_lp24x2f.iu	aep2, a2, 8
    2907:	509514        	ae_lp24f.iu	aep1, a5, 4
    290a:	508314        	ae_lp24f.iu	aep0, a3, 4
    290d:	a1c8           	l32i.n	a12, a1, 40
    290f:	b1b8           	l32i.n	a11, a1, 44
    2911:	770b           	addi.n	a7, a7, -1
    2913:	5ccc14        	ae_lp24x2f.iu	aep4, a12, 8
    2916:	5cbb14        	ae_lp24x2f.iu	aep3, a11, 8
    2919:	ee1756        	bnez	a7, 27fe <fn_win_detection+0x152>
    291c:	00aff2        	movi	a15, 0xffffff00
    291f:	21e6a0        	srai	a14, a10, 6
    2922:	10eef0        	and	a14, a14, a15
    2925:	41f8           	l32i.n	a15, a1, 16
    2927:	aff8           	l32i.n	a15, a15, 40
    2929:	f5f641        	l32r	a4, 104 (800000 <_end+0x7f1860>)
    292c:	050c           	movi.n	a5, 0
    292e:	02aef7        	bge	a14, a15, 2934 <fn_win_detection+0x288>
    2931:	0022c6        	j	29c0 <fn_win_detection+0x314>
    2934:	000206        	j	2940 <fn_win_detection+0x294>

00002937 <fn_win_detection+0x28b>:
    2937:	a1c9           	s32i.n	a12, a1, 40
    2939:	b1b9           	s32i.n	a11, a1, 44
    293b:	21a9           	s32i.n	a10, a1, 8
    293d:	ffe1c6        	j	28c8 <fn_win_detection+0x21c>

00002940 <fn_win_detection+0x294>:
    2940:	4138           	l32i.n	a3, a1, 16
    2942:	03d332        	addmi	a3, a3, 0x300
    2945:	6e23c2        	l32i	a12, a3, 0x1b8
    2948:	309182        	l16si	a8, a1, 96
    294b:	c0c332        	addi	a3, a3, -64
    294e:	0cad           	mov.n	a10, a12
    2950:	771866        	bnei	a8, 1, 29cb <fn_win_detection+0x31f>
    2953:	0188           	l32i.n	a8, a1, 0
    2955:	31dfc0        	srai	a13, a12, 31
    2958:	31bf80        	srai	a11, a8, 31
    295b:	c0a8c0        	sub	a10, a8, a12
    295e:	c0bbd0        	sub	a11, a11, a13
    2961:	62d8a0        	saltu	a13, a8, a10
    2964:	c0bbd0        	sub	a11, a11, a13
    2967:	022c87        	blt	a12, a8, 296d <fn_win_detection+0x2c1>
    296a:	004c06        	j	2a9e <fn_win_detection+0x3f2>
    296d:	fe5aa5        	call8	f18 <_saturate24>
    2970:	41c8           	l32i.n	a12, a1, 16
    2972:	5cc8           	l32i.n	a12, a12, 20
    2974:	404f10        	ssai	31
    2977:	21d8a0        	srai	a13, a10, 8
    297a:	21c8c0        	srai	a12, a12, 8
    297d:	82acd0        	mull	a10, a12, a13
    2980:	b2ccd0        	mulsh	a12, a12, a13
    2983:	11baf0        	slli	a11, a10, 1
    2986:	81cca0        	src	a12, a12, a10
    2989:	cc5a           	add.n	a12, a12, a5
    298b:	90aa40        	addx2	a10, a10, a4
    298e:	62bab0        	saltu	a11, a10, a11
    2991:	404810        	ssai	24
    2994:	bbca           	add.n	a11, a11, a12
    2996:	81aba0        	src	a10, a11, a10
    2999:	31b8b0        	srai	a11, a11, 24
    299c:	81bba0        	src	a11, a11, a10
    299f:	11aa80        	slli	a10, a10, 8
    29a2:	fe5765        	call8	f18 <_saturate24>
    29a5:	7e23b2        	l32i	a11, a3, 0x1f8
    29a8:	31dfa0        	srai	a13, a10, 31
    29ab:	31cfb0        	srai	a12, a11, 31
    29ae:	ccda           	add.n	a12, a12, a13
    29b0:	abaa           	add.n	a10, a11, a10
    29b2:	62bab0        	saltu	a11, a10, a11
    29b5:	bbca           	add.n	a11, a11, a12
    29b7:	fe5625        	call8	f18 <_saturate24>

000029ba <fn_win_detection+0x30e>:
    29ba:	7e63a2        	s32i	a10, a3, 0x1f8
    29bd:	000286        	j	29cb <fn_win_detection+0x31f>

000029c0 <fn_win_detection+0x314>:
    29c0:	41a8           	l32i.n	a10, a1, 16
    29c2:	03daa2        	addmi	a10, a10, 0x300
    29c5:	c0ca32        	addi	a3, a10, -64
    29c8:	6e2aa2        	l32i	a10, a10, 0x1b8

000029cb <fn_win_detection+0x31f>:
    29cb:	41c8           	l32i.n	a12, a1, 16
    29cd:	8cc8           	l32i.n	a12, a12, 32
    29cf:	11b8           	l32i.n	a11, a1, 4
    29d1:	4198           	l32i.n	a9, a1, 16
    29d3:	24aac7        	bge	a10, a12, 29fb <fn_win_detection+0x34f>
    29d6:	2a0c           	movi.n	a10, 2

000029d8 <fn_win_detection+0x32c>:
    29d8:	6bad           	ae_s16i.n	a10, a11, 0
    29da:	01b8           	l32i.n	a11, a1, 0
    29dc:	7f23a2        	l32i	a10, a3, 0x1fc
    29df:	582ab7        	blt	a10, a11, 2a3b <fn_win_detection+0x38f>
    29e2:	7f63b2        	s32i	a11, a3, 0x1fc
    29e5:	0bad           	mov.n	a10, a11

000029e7 <fn_win_detection+0x33b>:
    29e7:	41d8           	l32i.n	a13, a1, 16
    29e9:	bdd8           	l32i.n	a13, a13, 44
    29eb:	802382        	l32i	a8, a3, 0x200
    29ee:	05ada7        	bge	a13, a10, 29f7 <fn_win_detection+0x34b>
    29f1:	31f8           	l32i.n	a15, a1, 12
    29f3:	0e0c           	movi.n	a14, 0
    29f5:	6fed           	ae_s16i.n	a14, a15, 0

000029f7 <fn_win_detection+0x34b>:
    29f7:	08b9           	s32i.n	a11, a8, 0
    29f9:	f01d           	retw.n

000029fb <fn_win_detection+0x34f>:
    29fb:	9998           	l32i.n	a9, a9, 36
    29fd:	72aa90        	salt	a10, a10, a9
    2a00:	fff506        	j	29d8 <fn_win_detection+0x32c>

00002a03 <fn_win_detection+0x357>:
    2a03:	fe4c65        	call8	ec8 <_saturate16>
    2a06:	41c8           	l32i.n	a12, a1, 16
    2a08:	049cb2        	l16si	a11, a12, 8
    2a0b:	d1bba0        	mul16s	a11, a11, a10
    2a0e:	189ca2        	l16si	a10, a12, 48
    2a11:	90bb50        	addx2	a11, a11, a5
    2a14:	31b0b0        	srai	a11, a11, 16
    2a17:	aaba           	add.n	a10, a10, a11
    2a19:	fe4ae5        	call8	ec8 <_saturate16>
    2a1c:	ff44c6        	j	2733 <fn_win_detection+0x87>

00002a1f <fn_win_detection+0x373>:
    2a1f:	41a8           	l32i.n	a10, a1, 16
    2a21:	1a9ac2        	l16si	a12, a10, 52
    2a24:	1b9aa2        	l16si	a10, a10, 54
    2a27:	cc0b           	addi.n	a12, a12, -1
    2a29:	d72c56        	bnez	a12, 279f <fn_win_detection+0xf3>
    2a2c:	41b8           	l32i.n	a11, a1, 16
    2a2e:	3bbd           	ae_l16si.n	a11, a11, 2
    2a30:	022ba7        	blt	a11, a10, 2a36 <fn_win_detection+0x38a>
    2a33:	ff5a06        	j	279f <fn_win_detection+0xf3>
    2a36:	090c           	movi.n	a9, 0
    2a38:	ff5606        	j	2794 <fn_win_detection+0xe8>

00002a3b <fn_win_detection+0x38f>:
    2a3b:	31dfa0        	srai	a13, a10, 31
    2a3e:	c0aba0        	sub	a10, a11, a10
    2a41:	62cba0        	saltu	a12, a11, a10
    2a44:	31bfb0        	srai	a11, a11, 31
    2a47:	c0bbd0        	sub	a11, a11, a13
    2a4a:	c0bbc0        	sub	a11, a11, a12
    2a4d:	fe4ca5        	call8	f18 <_saturate24>
    2a50:	f5b4d1        	l32r	a13, 120 (19999a <_end+0x18b1fa>)
    2a53:	404f10        	ssai	31
    2a56:	21c8a0        	srai	a12, a10, 8
    2a59:	82bcd0        	mull	a11, a12, a13
    2a5c:	b2ccd0        	mulsh	a12, a12, a13
    2a5f:	90ab40        	addx2	a10, a11, a4
    2a62:	81ccb0        	src	a12, a12, a11
    2a65:	cc5a           	add.n	a12, a12, a5
    2a67:	11bbf0        	slli	a11, a11, 1
    2a6a:	62bab0        	saltu	a11, a10, a11
    2a6d:	404810        	ssai	24
    2a70:	bbca           	add.n	a11, a11, a12
    2a72:	81aba0        	src	a10, a11, a10
    2a75:	31b8b0        	srai	a11, a11, 24
    2a78:	81bba0        	src	a11, a11, a10
    2a7b:	11aa80        	slli	a10, a10, 8
    2a7e:	fe49a5        	call8	f18 <_saturate24>
    2a81:	7f23b2        	l32i	a11, a3, 0x1fc
    2a84:	31dfa0        	srai	a13, a10, 31
    2a87:	31cfb0        	srai	a12, a11, 31
    2a8a:	ccda           	add.n	a12, a12, a13
    2a8c:	abaa           	add.n	a10, a11, a10
    2a8e:	62bab0        	saltu	a11, a10, a11
    2a91:	bbca           	add.n	a11, a11, a12
    2a93:	fe4865        	call8	f18 <_saturate24>
    2a96:	7f63a2        	s32i	a10, a3, 0x1fc
    2a99:	01b8           	l32i.n	a11, a1, 0
    2a9b:	ffd206        	j	29e7 <fn_win_detection+0x33b>

00002a9e <fn_win_detection+0x3f2>:
    2a9e:	fe47a5        	call8	f18 <_saturate24>
    2aa1:	41c8           	l32i.n	a12, a1, 16
    2aa3:	6cc8           	l32i.n	a12, a12, 24
    2aa5:	404f10        	ssai	31
    2aa8:	21d8a0        	srai	a13, a10, 8
    2aab:	21c8c0        	srai	a12, a12, 8
    2aae:	82acd0        	mull	a10, a12, a13
    2ab1:	b2ccd0        	mulsh	a12, a12, a13
    2ab4:	11baf0        	slli	a11, a10, 1
    2ab7:	81cca0        	src	a12, a12, a10
    2aba:	cc5a           	add.n	a12, a12, a5
    2abc:	90aa40        	addx2	a10, a10, a4
    2abf:	62bab0        	saltu	a11, a10, a11
    2ac2:	404810        	ssai	24
    2ac5:	bbca           	add.n	a11, a11, a12
    2ac7:	81aba0        	src	a10, a11, a10
    2aca:	31b8b0        	srai	a11, a11, 24
    2acd:	81bba0        	src	a11, a11, a10
    2ad0:	11aa80        	slli	a10, a10, 8
    2ad3:	fe4465        	call8	f18 <_saturate24>
    2ad6:	7e23b2        	l32i	a11, a3, 0x1f8
    2ad9:	31dfa0        	srai	a13, a10, 31
    2adc:	31cfb0        	srai	a12, a11, 31
    2adf:	ccda           	add.n	a12, a12, a13
    2ae1:	abaa           	add.n	a10, a11, a10
    2ae3:	62bab0        	saltu	a11, a10, a11
    2ae6:	bbca           	add.n	a11, a11, a12
    2ae8:	fe42e5        	call8	f18 <_saturate24>
    2aeb:	ffb2c6        	j	29ba <fn_win_detection+0x30e>

00002aee <fn_win_detection+0x442>:
	...

00002af0 <fn_calc_pow>:
    2af0:	004136        	entry	a1, 32
    2af3:	fcc332        	addi	a3, a3, -4
    2af6:	5c8204        	ae_lp24x2f.iu	aep0, a2, 0
    2af9:	c06540        	sub	a6, a5, a4
    2afc:	f03d           	nop.n
    2afe:	11a676        	loopgtz	a6, 2b13 <fn_calc_pow+0x23>
    2b01:	048804        	ae_mulzaafp24s.hh.ll	aeq3, aep0, aep0
    2b04:	36b114        	ae_sllisq56s	aeq2, aeq3, 4
    2b07:	064a44        	ae_satq48s	aeq1, aeq2
    2b0a:	061934        	ae_roundsq32asym	aeq0, aeq1
    2b0d:	624314        	ae_sq32f.iu	aeq0, a3, 4
    2b10:	5c8214        	ae_lp24x2f.iu	aep0, a2, 8

00002b13 <fn_calc_pow+0x23>:
    2b13:	f01d           	retw.n

00002b15 <fn_calc_pow+0x25>:
    2b15:	000000                                        ...

00002b18 <fn_low_bin_noise_est>:
    2b18:	008136        	entry	a1, 64
    2b1b:	05fd           	mov.n	a15, a5
    2b1d:	860b           	addi.n	a8, a6, -1
    2b1f:	1139           	s32i.n	a3, a1, 4
    2b21:	04d262        	addmi	a6, a2, 0x400
    2b24:	2826a2        	l32i	a10, a6, 160
    2b27:	3d96d2        	l16si	a13, a6, 122
    2b2a:	0149           	s32i.n	a4, a1, 0
    2b2c:	80c672        	addi	a7, a6, -128
    2b2f:	b0bda0        	addx8	a11, a13, a10
    2b32:	31b9           	s32i.n	a11, a1, 12
    2b34:	0de856        	bnez	a8, 2c16 <fn_low_bin_noise_est+0xfe>
    2b37:	f54941        	l32r	a4, 5c (7fff <xtensa_fft8_32b+0x27>)
    2b3a:	fe7c           	movi.n	a14, -1
    2b3c:	4196c2        	l16si	a12, a6, 130
    2b3f:	050c           	movi.n	a5, 0
    2b41:	f57031        	l32r	a3, 104 (800000 <_end+0x7f1860>)
    2b44:	04c5c0        	extui	a12, a12, 5, 1
    2b47:	118c16        	beqz	a12, 2c63 <fn_low_bin_noise_est+0x14b>
    2b4a:	021de6        	bgei	a13, 1, 2b50 <fn_low_bin_noise_est+0x38>
    2b4d:	0031c6        	j	2c18 <fn_low_bin_noise_est+0x100>
    2b50:	056d           	mov.n	a6, a5
    2b52:	0fcd           	mov.n	a12, a15
    2b54:	41a9           	s32i.n	a10, a1, 16
    2b56:	51a9           	s32i.n	a10, a1, 20
    2b58:	03d222        	addmi	a2, a2, 0x300
    2b5b:	fcc222        	addi	a2, a2, -4

00002b5e <fn_low_bin_noise_est+0x46>:
    2b5e:	7e9282        	l16si	a8, a2, 252
    2b61:	0cd8           	l32i.n	a13, a12, 0
    2b63:	21c9           	s32i.n	a12, a1, 8
    2b65:	118800        	slli	a8, a8, 16
    2b68:	21d8d0        	srai	a13, a13, 8
    2b6b:	218880        	srai	a8, a8, 8
    2b6e:	82fd80        	mull	a15, a13, a8
    2b71:	b2dd80        	mulsh	a13, a13, a8
    2b74:	404b10        	ssai	27
    2b77:	81ddf0        	src	a13, a13, a15
    2b7a:	11ffb0        	slli	a15, a15, 5
    2b7d:	0d2d47        	blt	a13, a4, 2b8e <fn_low_bin_noise_est+0x76>
    2b80:	049d47        	bne	a13, a4, 2b88 <fn_low_bin_noise_est+0x70>
    2b83:	21c9           	s32i.n	a12, a1, 8
    2b85:	053fe7        	bltu	a15, a14, 2b8e <fn_low_bin_noise_est+0x76>

00002b88 <fn_low_bin_noise_est+0x70>:
    2b88:	0efd           	mov.n	a15, a14
    2b8a:	04dd           	mov.n	a13, a4
    2b8c:	21c9           	s32i.n	a12, a1, 8

00002b8e <fn_low_bin_noise_est+0x76>:
    2b8e:	404810        	ssai	24
    2b91:	af3a           	add.n	a10, a15, a3
    2b93:	cd5a           	add.n	a12, a13, a5
    2b95:	62baf0        	saltu	a11, a10, a15
    2b98:	bbca           	add.n	a11, a11, a12
    2b9a:	81aba0        	src	a10, a11, a10
    2b9d:	31b8b0        	srai	a11, a11, 24
    2ba0:	81bba0        	src	a11, a11, a10
    2ba3:	11aa80        	slli	a10, a10, 8
    2ba6:	fe3725        	call8	f18 <_saturate24>
    2ba9:	404b10        	ssai	27
    2bac:	41d8           	l32i.n	a13, a1, 16
    2bae:	21c8           	l32i.n	a12, a1, 8
    2bb0:	7e92e2        	l16si	a14, a2, 252
    2bb3:	0da9           	s32i.n	a10, a13, 0
    2bb5:	1cc8           	l32i.n	a12, a12, 4
    2bb7:	11ee00        	slli	a14, a14, 16
    2bba:	21e8e0        	srai	a14, a14, 8
    2bbd:	21c8c0        	srai	a12, a12, 8
    2bc0:	82dce0        	mull	a13, a12, a14
    2bc3:	b2cce0        	mulsh	a12, a12, a14
    2bc6:	fe7c           	movi.n	a14, -1
    2bc8:	81ccd0        	src	a12, a12, a13
    2bcb:	11ddb0        	slli	a13, a13, 5
    2bce:	092c47        	blt	a12, a4, 2bdb <fn_low_bin_noise_est+0xc3>
    2bd1:	029c47        	bne	a12, a4, 2bd7 <fn_low_bin_noise_est+0xbf>
    2bd4:	033de7        	bltu	a13, a14, 2bdb <fn_low_bin_noise_est+0xc3>

00002bd7 <fn_low_bin_noise_est+0xbf>:
    2bd7:	0edd           	mov.n	a13, a14
    2bd9:	04cd           	mov.n	a12, a4

00002bdb <fn_low_bin_noise_est+0xc3>:
    2bdb:	404810        	ssai	24
    2bde:	ad3a           	add.n	a10, a13, a3
    2be0:	cc5a           	add.n	a12, a12, a5
    2be2:	62bad0        	saltu	a11, a10, a13
    2be5:	bbca           	add.n	a11, a11, a12
    2be7:	81aba0        	src	a10, a11, a10
    2bea:	31b8b0        	srai	a11, a11, 24
    2bed:	81bba0        	src	a11, a11, a10
    2bf0:	11aa80        	slli	a10, a10, 8
    2bf3:	fe3265        	call8	f18 <_saturate24>
    2bf6:	fe7c           	movi.n	a14, -1
    2bf8:	222b           	addi.n	a2, a2, 2
    2bfa:	7d97d2        	l16si	a13, a7, 250
    2bfd:	41f8           	l32i.n	a15, a1, 16
    2bff:	21c8           	l32i.n	a12, a1, 8
    2c01:	661b           	addi.n	a6, a6, 1
    2c03:	1fa9           	s32i.n	a10, a15, 4
    2c05:	cc8b           	addi.n	a12, a12, 8
    2c07:	ff8b           	addi.n	a15, a15, 8
    2c09:	41f9           	s32i.n	a15, a1, 16
    2c0b:	02a6d7        	bge	a6, a13, 2c11 <fn_low_bin_noise_est+0xf9>
    2c0e:	ffd306        	j	2b5e <fn_low_bin_noise_est+0x46>
    2c11:	51a8           	l32i.n	a10, a1, 20
    2c13:	000046        	j	2c18 <fn_low_bin_noise_est+0x100>

00002c16 <fn_low_bin_noise_est+0xfe>:
    2c16:	05ad           	mov.n	a10, a5

00002c18 <fn_low_bin_noise_est+0x100>:
    2c18:	3128           	l32i.n	a2, a1, 12
    2c1a:	f54281        	l32r	a8, 124 (2af0 <fn_calc_pow>)
    2c1d:	0c0c           	movi.n	a12, 0
    2c1f:	02bd           	mov.n	a11, a2
    2c21:	0008e0        	callx8	a8
    2c24:	7d9792        	l16si	a9, a7, 250
    2c27:	1138           	l32i.n	a3, a1, 4
    2c29:	0148           	l32i.n	a4, a1, 0
    2c2b:	3219a6        	blti	a9, 1, 2c61 <fn_low_bin_noise_est+0x149>
    2c2e:	00a152        	movi	a5, 0x100
    2c31:	060c           	movi.n	a6, 0

00002c33 <fn_low_bin_noise_est+0x11b>:
    2c33:	02a8           	l32i.n	a10, a2, 0
    2c35:	04b8           	l32i.n	a11, a4, 0
    2c37:	31dfa0        	srai	a13, a10, 31
    2c3a:	c0aba0        	sub	a10, a11, a10
    2c3d:	62cba0        	saltu	a12, a11, a10
    2c40:	31bfb0        	srai	a11, a11, 31
    2c43:	c0bbd0        	sub	a11, a11, a13
    2c46:	c0bbc0        	sub	a11, a11, a12
    2c49:	fe2ce5        	call8	f18 <_saturate24>
    2c4c:	03a9           	s32i.n	a10, a3, 0
    2c4e:	224b           	addi.n	a2, a2, 4
    2c50:	7d97b2        	l16si	a11, a7, 250
    2c53:	444b           	addi.n	a4, a4, 4
    2c55:	661b           	addi.n	a6, a6, 1
    2c57:	011ae6        	bgei	a10, 1, 2c5c <fn_low_bin_noise_est+0x144>
    2c5a:	0359           	s32i.n	a5, a3, 0

00002c5c <fn_low_bin_noise_est+0x144>:
    2c5c:	334b           	addi.n	a3, a3, 4
    2c5e:	d126b7        	blt	a6, a11, 2c33 <fn_low_bin_noise_est+0x11b>

00002c61 <fn_low_bin_noise_est+0x149>:
    2c61:	f01d           	retw.n

00002c63 <fn_low_bin_noise_est+0x14b>:
    2c63:	3e9692        	l16si	a9, a6, 124
    2c66:	0a2d           	mov.n	a2, a10
    2c68:	060c           	movi.n	a6, 0
    2c6a:	1619a6        	blti	a9, 1, 2c84 <fn_low_bin_noise_est+0x16c>
    2c6d:	0f5d           	mov.n	a5, a15
    2c6f:	11d9f0        	slli	a13, a9, 1

00002c72 <fn_low_bin_noise_est+0x15a>:
    2c72:	661b           	addi.n	a6, a6, 1
    2c74:	0588           	l32i.n	a8, a5, 0
    2c76:	09e284        	ae_s32ip	a8, a2, 4
    2c79:	554b           	addi.n	a5, a5, 4
    2c7b:	f326d7        	blt	a6, a13, 2c72 <fn_low_bin_noise_est+0x15a>
    2c7e:	7d97d2        	l16si	a13, a7, 250
    2c81:	000046        	j	2c86 <fn_low_bin_noise_est+0x16e>

00002c84 <fn_low_bin_noise_est+0x16c>:
    2c84:	056d           	mov.n	a6, a5

00002c86 <fn_low_bin_noise_est+0x16e>:
    2c86:	119df0        	slli	a9, a13, 1
    2c89:	8ba697        	bge	a6, a9, 2c18 <fn_low_bin_noise_est+0x100>
    2c8c:	a026a0        	addx4	a2, a6, a10
    2c8f:	a056f0        	addx4	a5, a6, a15
    2c92:	51a9           	s32i.n	a10, a1, 20

00002c94 <fn_low_bin_noise_est+0x17c>:
    2c94:	7c97f2        	l16si	a15, a7, 248
    2c97:	05c8           	l32i.n	a12, a5, 0
    2c99:	11ff00        	slli	a15, a15, 16
    2c9c:	21c8c0        	srai	a12, a12, 8
    2c9f:	21f8f0        	srai	a15, a15, 8
    2ca2:	82dcf0        	mull	a13, a12, a15
    2ca5:	b2ccf0        	mulsh	a12, a12, a15
    2ca8:	404b10        	ssai	27
    2cab:	81ccd0        	src	a12, a12, a13
    2cae:	11ddb0        	slli	a13, a13, 5
    2cb1:	092c47        	blt	a12, a4, 2cbe <fn_low_bin_noise_est+0x1a6>
    2cb4:	029c47        	bne	a12, a4, 2cba <fn_low_bin_noise_est+0x1a2>
    2cb7:	033de7        	bltu	a13, a14, 2cbe <fn_low_bin_noise_est+0x1a6>

00002cba <fn_low_bin_noise_est+0x1a2>:
    2cba:	0edd           	mov.n	a13, a14
    2cbc:	04cd           	mov.n	a12, a4

00002cbe <fn_low_bin_noise_est+0x1a6>:
    2cbe:	ad3a           	add.n	a10, a13, a3
    2cc0:	404810        	ssai	24
    2cc3:	62bad0        	saltu	a11, a10, a13
    2cc6:	bbca           	add.n	a11, a11, a12
    2cc8:	81aba0        	src	a10, a11, a10
    2ccb:	31b8b0        	srai	a11, a11, 24
    2cce:	81bba0        	src	a11, a11, a10
    2cd1:	11aa80        	slli	a10, a10, 8
    2cd4:	fe2425        	call8	f18 <_saturate24>
    2cd7:	fe7c           	movi.n	a14, -1
    2cd9:	09e2a4        	ae_s32ip	a10, a2, 4
    2cdc:	7d97d2        	l16si	a13, a7, 250
    2cdf:	554b           	addi.n	a5, a5, 4
    2ce1:	661b           	addi.n	a6, a6, 1
    2ce3:	11fdf0        	slli	a15, a13, 1
    2ce6:	aa26f7        	blt	a6, a15, 2c94 <fn_low_bin_noise_est+0x17c>
    2ce9:	51a8           	l32i.n	a10, a1, 20
    2ceb:	ffca46        	j	2c18 <fn_low_bin_noise_est+0x100>

00002cee <fn_low_bin_noise_est+0x1d6>:
	...

00002cf0 <fn_low_bin_compensate_phase>:
    2cf0:	008136        	entry	a1, 64
    2cf3:	045d           	mov.n	a5, a4
    2cf5:	03d282        	addmi	a8, a2, 0x300
    2cf8:	5c8304        	ae_lp24x2f.iu	aep0, a3, 0
    2cfb:	560124        	ae_sp24x2s.i	aep0, a1, 16
    2cfe:	7cc892        	addi	a9, a8, 124
    2d01:	bd9882        	l16si	a8, a8, 0x17a
    2d04:	2199           	s32i.n	a9, a1, 8
    2d06:	5c8504        	ae_lp24x2f.iu	aep0, a5, 0
    2d09:	0218e6        	bgei	a8, 1, 2d0f <fn_low_bin_compensate_phase+0x1f>
    2d0c:	003d46        	j	2e05 <fn_low_bin_compensate_phase+0x115>
    2d0f:	060c           	movi.n	a6, 0

00002d11 <fn_low_bin_compensate_phase+0x21>:
    2d11:	048004        	ae_mulzaafp24s.hh.ll	aeq2, aep0, aep0
    2d14:	f50081        	l32r	a8, 114 (d80 <fxsqrt_ie>)
    2d17:	366054        	ae_sllisq56s	aeq1, aeq2, 1
    2d1a:	060944        	ae_satq48s	aeq0, aeq1
    2d1d:	1b8d14        	ae_roundsp24q48asym	aep1, aeq0
    2d20:	4e1104        	ae_sp24s.l.i	aep1, a1, 0
    2d23:	01a8           	l32i.n	a10, a1, 0
    2d25:	0008e0        	callx8	a8
    2d28:	0abd           	mov.n	a11, a10
    2d2a:	120c           	movi.n	a2, 1
    2d2c:	01aad0        	slli	a10, a10, 19
    2d2f:	21bdb0        	srai	a11, a11, 13
    2d32:	fe1b25        	call8	ee4 <_saturate32>
    2d35:	04b8           	l32i.n	a11, a4, 0
    2d37:	53a2a0        	max	a10, a2, a10
    2d3a:	3acc           	bnez.n	a10, 2d41 <fn_low_bin_compensate_phase+0x51>
    2d3c:	020c           	movi.n	a2, 0
    2d3e:	000bc6        	j	2d71 <fn_low_bin_compensate_phase+0x81>

00002d41 <fn_low_bin_compensate_phase+0x51>:
    2d41:	052ba7        	blt	a11, a10, 2d4a <fn_low_bin_compensate_phase+0x5a>
    2d44:	f4c621        	l32r	a2, 5c (7fff <xtensa_fft8_32b+0x27>)
    2d47:	000986        	j	2d71 <fn_low_bin_compensate_phase+0x81>

00002d4a <fn_low_bin_compensate_phase+0x5a>:
    2d4a:	368a34        	ae_cvtq48a32s	aeq2, a10
    2d4d:	360b34        	ae_cvtq48a32s	aeq0, a11
    2d50:	40ea90        	nsa	a9, a10
    2d53:	899d           	ae_sext16	a9, a9
    2d55:	fc24fe89cf 	{ ae_slaasq56s	aeq3, aeq0, a9; nop }
    2d5a:	fd84cf199e 	{ addi	a9, a9, -15; ae_satq48s	aeq1, aeq3 }
    2d5f:	fc24fea90f 	{ ae_slaasq56s	aeq0, aeq2, a9; nop }
    2d64:	ff00ff12ef 	{ ae_trunca32q48	a2, aeq1; ae_satq48s	aeq3, aeq0 }
    2d69:	36b804        	ae_trunca32q48	a8, aeq3
    2d6c:	d22280        	quos	a2, a2, a8
    2d6f:	a22d           	ae_clamps16	a2, a2
    2d71:	027d           	mov.n	a7, a2
    2d73:	14b8           	l32i.n	a11, a4, 4
    2d75:	3acc           	bnez.n	a10, 2d7c <fn_low_bin_compensate_phase+0x8c>
    2d77:	020c           	movi.n	a2, 0
    2d79:	000bc6        	j	2dac <fn_low_bin_compensate_phase+0xbc>

00002d7c <fn_low_bin_compensate_phase+0x8c>:
    2d7c:	052ba7        	blt	a11, a10, 2d85 <fn_low_bin_compensate_phase+0x95>
    2d7f:	f4b721        	l32r	a2, 5c (7fff <xtensa_fft8_32b+0x27>)
    2d82:	000986        	j	2dac <fn_low_bin_compensate_phase+0xbc>

00002d85 <fn_low_bin_compensate_phase+0x95>:
    2d85:	360a34        	ae_cvtq48a32s	aeq0, a10
    2d88:	368b34        	ae_cvtq48a32s	aeq2, a11
    2d8b:	40ea90        	nsa	a9, a10
    2d8e:	899d           	ae_sext16	a9, a9
    2d90:	fc24fea94f 	{ ae_slaasq56s	aeq1, aeq2, a9; nop }
    2d95:	ff04cf199e 	{ addi	a9, a9, -15; ae_satq48s	aeq3, aeq1 }
    2d9a:	fc24fe898f 	{ ae_slaasq56s	aeq2, aeq0, a9; nop }
    2d9f:	fd80ff32ef 	{ ae_trunca32q48	a2, aeq3; ae_satq48s	aeq1, aeq2 }
    2da4:	369804        	ae_trunca32q48	a8, aeq1
    2da7:	d22280        	quos	a2, a2, a8
    2daa:	a22d           	ae_clamps16	a2, a2
    2dac:	543124        	ae_lp24x2.i	aep3, a1, 16
    2daf:	043b04        	ae_mulzaafp24s.hh.ll	aeq1, aep3, aep3
    2db2:	f4d881        	l32r	a8, 114 (d80 <fxsqrt_ie>)
    2db5:	361054        	ae_sllisq56s	aeq0, aeq1, 1
    2db8:	06c844        	ae_satq48s	aeq3, aeq0
    2dbb:	f97f80419e 	{ addi	a9, a1, 4; ae_roundsp24q48asym	aep2, aeq3 }
    2dc0:	4e2904        	ae_sp24s.l.i	aep2, a9, 0
    2dc3:	11a8           	l32i.n	a10, a1, 4
    2dc5:	0008e0        	callx8	a8
    2dc8:	301774        	ae_cvtp24a16x2.ll	aep1, a7, a7
    2dcb:	307aa4        	ae_cvtp24a16x2.ll	aep7, a10, a10
    2dce:	eb3dd8822f 	{ ae_cvtp24a16x2.ll	aep0, a2, a2; ae_mulfp24s.ll	aeq3, aep7, aep1 }
    2dd3:	01f074        	ae_mulfp24s.ll	aeq2, aep7, aep0
    2dd6:	3670d4        	ae_sllisq56s	aeq1, aeq3, 3
    2dd9:	fe04fae03f 	{ ae_sllisq56s	aeq0, aeq2, 3; ae_satq48s	aeq2, aeq1 }
    2dde:	06c844        	ae_satq48s	aeq3, aeq0
    2de1:	fb7f80844e 	{ addi	a4, a4, 8; ae_roundsp24q48asym	aep6, aeq3 }
    2de6:	fa77c0166e 	{ addi	a6, a6, 1; ae_roundsp24q48asym	aep5, aeq2 }
    2deb:	ded57021ae 	{ l32i	a10, a1, 8; ae_selp24.hh	aep5, aep5, aep6 }
    2df0:	5ed304        	ae_sp24x2f.iu	aep5, a3, 0
    2df3:	5c8514        	ae_lp24x2f.iu	aep0, a5, 8
    2df6:	7f9aa2        	l16si	a10, a10, 254
    2df9:	5cc314        	ae_lp24x2f.iu	aep4, a3, 8
    2dfc:	564124        	ae_sp24x2s.i	aep4, a1, 16
    2dff:	02a6a7        	bge	a6, a10, 2e05 <fn_low_bin_compensate_phase+0x115>
    2e02:	ffc2c6        	j	2d11 <fn_low_bin_compensate_phase+0x21>

00002e05 <fn_low_bin_compensate_phase+0x115>:
    2e05:	f01d           	retw.n

00002e07 <fn_low_bin_compensate_phase+0x117>:
	...

00002e08 <fn_calc_zp_gain>:
    2e08:	008136        	entry	a1, 64
    2e0b:	5c8304        	ae_lp24x2f.iu	aep0, a3, 0
    2e0e:	070c           	movi.n	a7, 0
    2e10:	5129           	s32i.n	a2, a1, 20
    2e12:	2159           	s32i.n	a5, a1, 8
    2e14:	049d           	mov.n	a9, a4
    2e16:	0cd262        	addmi	a6, a2, 0xc00
    2e19:	664b           	addi.n	a6, a6, 4
    2e1b:	01a142        	movi	a4, 0x101
    2e1e:	750c           	movi.n	a5, 7
    2e20:	1199           	s32i.n	a9, a1, 4
    2e22:	fcc222        	addi	a2, a2, -4
    2e25:	3129           	s32i.n	a2, a1, 12

00002e27 <fn_calc_zp_gain+0x1f>:
    2e27:	048804        	ae_mulzaafp24s.hh.ll	aeq3, aep0, aep0
    2e2a:	36b054        	ae_sllisq56s	aeq2, aeq3, 1
    2e2d:	066934        	ae_roundsq32asym	aeq1, aeq2
    2e30:	369b04        	ae_trunca32q48	a11, aeq1
    2e33:	f4bd81        	l32r	a8, 128 (ad4 <HIFI_sqrt_ie>)
    2e36:	40ebc0        	nsa	a12, a11
    2e39:	8ccd           	ae_sext16	a12, a12
    2e3b:	c0a5c0        	sub	a10, a5, a12
    2e3e:	401c00        	ssl	a12
    2e41:	a1bb00        	sll	a11, a11
    2e44:	0008e0        	callx8	a8
    2e47:	771b           	addi.n	a7, a7, 1
    2e49:	40ebd0        	nsa	a13, a11
    2e4c:	fc248feaae 	{ addi	a10, a10, -2; ae_zeroq56	aeq0 }
    2e51:	8aad           	ae_sext16	a10, a10
    2e53:	8ddd           	ae_sext16	a13, a13
    2e55:	05ada7        	bge	a13, a10, 2e5e <fn_calc_zp_gain+0x56>
    2e58:	f47ed1        	l32r	a13, 50 (7fffffff <_end+0x7fff185f>)
    2e5b:	000506        	j	2e73 <fn_calc_zp_gain+0x6b>

00002e5e <fn_calc_zp_gain+0x56>:
    2e5e:	0b1ae6        	bgei	a10, 1, 2e6d <fn_calc_zp_gain+0x65>
    2e61:	60c0a0        	neg	a12, a10
    2e64:	400c00        	ssr	a12
    2e67:	b1d0b0        	sra	a13, a11
    2e6a:	000146        	j	2e73 <fn_calc_zp_gain+0x6b>

00002e6d <fn_calc_zp_gain+0x65>:
    2e6d:	401a00        	ssl	a10
    2e70:	a1db00        	sll	a13, a11

00002e73 <fn_calc_zp_gain+0x6b>:
    2e73:	364d34        	ae_cvtq48a32s	aeq1, a13
    2e76:	625614        	ae_sq32f.iu	aeq1, a6, 4
    2e79:	625214        	ae_sq32f.iu	aeq1, a2, 4
    2e7c:	624614        	ae_sq32f.iu	aeq0, a6, 4
    2e7f:	5c8314        	ae_lp24x2f.iu	aep0, a3, 8
    2e82:	a19747        	bne	a7, a4, 2e27 <fn_calc_zp_gain+0x1f>
    2e85:	51a8           	l32i.n	a10, a1, 20
    2e87:	f49e81        	l32r	a8, 100 (4e20 <real_512_ifft>)
    2e8a:	04dab2        	addmi	a11, a10, 0x400
    2e8d:	0cdaa2        	addmi	a10, a10, 0xc00
    2e90:	bb8b           	addi.n	a11, a11, 8
    2e92:	41b9           	s32i.n	a11, a1, 16
    2e94:	aa8b           	addi.n	a10, a10, 8
    2e96:	01a9           	s32i.n	a10, a1, 0
    2e98:	0008e0        	callx8	a8
    2e9b:	00a2d2        	movi	a13, 0x200
    2e9e:	573c           	movi.n	a7, 53
    2ea0:	6ba0f2        	movi	a15, 107
    2ea3:	5138           	l32i.n	a3, a1, 20
    2ea5:	4198           	l32i.n	a9, a1, 16
    2ea7:	fecac2        	addi	a12, a10, -2
    2eaa:	8ccd           	ae_sext16	a12, a12
    2eac:	601904        	ae_lq32f.iu	aeq0, a9, 0
    2eaf:	03d332        	addmi	a3, a3, 0x300
    2eb2:	e0c332        	addi	a3, a3, -32
    2eb5:	131ca6        	blti	a12, 1, 2ecc <fn_calc_zp_gain+0xc4>
    2eb8:	0dad76        	loopgtz	a13, 2ec9 <fn_calc_zp_gain+0xc1>
    2ebb:	fc24fe8ccf 	{ ae_slaasq56s	aeq3, aeq0, a12; nop }
    2ec0:	068b44        	ae_satq48s	aeq2, aeq3
    2ec3:	626904        	ae_sq32f.iu	aeq2, a9, 0
    2ec6:	601914        	ae_lq32f.iu	aeq0, a9, 4

00002ec9 <fn_calc_zp_gain+0xc1>:
    2ec9:	000486        	j	2edf <fn_calc_zp_gain+0xd7>

00002ecc <fn_calc_zp_gain+0xc4>:
    2ecc:	f03d           	nop.n
    2ece:	0dad76        	loopgtz	a13, 2edf <fn_calc_zp_gain+0xd7>
    2ed1:	fc24fe8c4f 	{ ae_slaasq56s	aeq1, aeq0, a12; nop }
    2ed6:	061934        	ae_roundsq32asym	aeq0, aeq1
    2ed9:	624904        	ae_sq32f.iu	aeq0, a9, 0
    2edc:	601914        	ae_lq32f.iu	aeq0, a9, 4

00002edf <fn_calc_zp_gain+0xd7>:
    2edf:	5c3c           	movi.n	a12, 53
    2ee1:	f492d1        	l32r	a13, 12c (fffe7961 <_end+0xfffd91c1>)
    2ee4:	f03d           	nop.n
    2ee6:	0daf76        	loopgtz	a15, 2ef7 <fn_calc_zp_gain+0xef>
    2ee9:	7f23e2        	l32i	a14, a3, 0x1fc
    2eec:	334b           	addi.n	a3, a3, 4
    2eee:	03ade7        	bge	a13, a14, 2ef5 <fn_calc_zp_gain+0xed>
    2ef1:	0edd           	mov.n	a13, a14
    2ef3:	07cd           	mov.n	a12, a7

00002ef5 <fn_calc_zp_gain+0xed>:
    2ef5:	771b           	addi.n	a7, a7, 1

00002ef7 <fn_calc_zp_gain+0xef>:
    2ef7:	5138           	l32i.n	a3, a1, 20
    2ef9:	f48d21        	l32r	a2, 130 (e540 <scale_tab>)
    2efc:	461c           	movi.n	a6, 20
    2efe:	6169           	s32i.n	a6, a1, 24
    2f00:	907c20        	addx2	a7, a12, a2
    2f03:	a06c30        	addx4	a6, a12, a3
    2f06:	02d662        	addmi	a6, a6, 0x200
    2f09:	02d332        	addmi	a3, a3, 0x200
    2f0c:	33cb           	addi.n	a3, a3, 12
    2f0e:	66cb           	addi.n	a6, a6, 12

00002f10 <fn_calc_zp_gain+0x108>:
    2f10:	22bd           	ae_l16si.n	a11, a2, 0
    2f12:	11ab30        	slli	a10, a11, 13
    2f15:	31b3b0        	srai	a11, a11, 19
    2f18:	fdfca5        	call8	ee4 <_saturate32>
    2f1b:	27bd           	ae_l16si.n	a11, a7, 0
    2f1d:	0a4d           	mov.n	a4, a10
    2f1f:	11cb10        	slli	a12, a11, 15
    2f22:	31b1b0        	srai	a11, a11, 17
    2f25:	0cad           	mov.n	a10, a12
    2f27:	fdfbe5        	call8	ee4 <_saturate32>
    2f2a:	fe7c           	movi.n	a14, -1
    2f2c:	3acc           	bnez.n	a10, 2f33 <fn_calc_zp_gain+0x12b>
    2f2e:	0c0c           	movi.n	a12, 0
    2f30:	000bc6        	j	2f63 <fn_calc_zp_gain+0x15b>

00002f33 <fn_calc_zp_gain+0x12b>:
    2f33:	0524a7        	blt	a4, a10, 2f3c <fn_calc_zp_gain+0x134>
    2f36:	f449c1        	l32r	a12, 5c (7fff <xtensa_fft8_32b+0x27>)
    2f39:	000986        	j	2f63 <fn_calc_zp_gain+0x15b>

00002f3c <fn_calc_zp_gain+0x134>:
    2f3c:	364a34        	ae_cvtq48a32s	aeq1, a10
    2f3f:	36c434        	ae_cvtq48a32s	aeq3, a4
    2f42:	40eaf0        	nsa	a15, a10
    2f45:	8ffd           	ae_sext16	a15, a15
    2f47:	fc24febf8f 	{ ae_slaasq56s	aeq2, aeq3, a15; nop }
    2f4c:	fc80cf1ffe 	{ addi	a15, a15, -15; ae_satq48s	aeq0, aeq2 }
    2f51:	fc24fe9fcf 	{ ae_slaasq56s	aeq3, aeq1, a15; nop }
    2f56:	fe84ff0cef 	{ ae_trunca32q48	a12, aeq0; ae_satq48s	aeq2, aeq3 }
    2f5b:	36ad04        	ae_trunca32q48	a13, aeq2
    2f5e:	d2ccd0        	quos	a12, a12, a13
    2f61:	accd           	ae_clamps16	a12, a12
    2f63:	7f26f2        	l32i	a15, a6, 0x1fc
    2f66:	404d10        	ssai	29
    2f69:	f43c81        	l32r	a8, 5c (7fff <xtensa_fft8_32b+0x27>)
    2f6c:	82dcf0        	mull	a13, a12, a15
    2f6f:	b2ccf0        	mulsh	a12, a12, a15
    2f72:	08fd           	mov.n	a15, a8
    2f74:	81ccd0        	src	a12, a12, a13
    2f77:	11ddd0        	slli	a13, a13, 3
    2f7a:	092c87        	blt	a12, a8, 2f87 <fn_calc_zp_gain+0x17f>
    2f7d:	029c87        	bne	a12, a8, 2f83 <fn_calc_zp_gain+0x17b>
    2f80:	033de7        	bltu	a13, a14, 2f87 <fn_calc_zp_gain+0x17f>

00002f83 <fn_calc_zp_gain+0x17b>:
    2f83:	0fcd           	mov.n	a12, a15
    2f85:	0edd           	mov.n	a13, a14

00002f87 <fn_calc_zp_gain+0x17f>:
    2f87:	f43c41        	l32r	a4, 78 (8000 <xtensa_fft8_32b+0x28>)
    2f8a:	404010        	ssai	16
    2f8d:	ad4a           	add.n	a10, a13, a4
    2f8f:	62bad0        	saltu	a11, a10, a13
    2f92:	bbca           	add.n	a11, a11, a12
    2f94:	81aba0        	src	a10, a11, a10
    2f97:	31b0b0        	srai	a11, a11, 16
    2f9a:	fdf4a5        	call8	ee4 <_saturate32>
    2f9d:	664b           	addi.n	a6, a6, 4
    2f9f:	772b           	addi.n	a7, a7, 2
    2fa1:	6188           	l32i.n	a8, a1, 24
    2fa3:	222b           	addi.n	a2, a2, 2
    2fa5:	7f23f2        	l32i	a15, a3, 0x1fc
    2fa8:	880b           	addi.n	a8, a8, -1
    2faa:	6189           	s32i.n	a8, a1, 24
    2fac:	02aaf7        	bge	a10, a15, 2fb2 <fn_calc_zp_gain+0x1aa>
    2faf:	7f63a2        	s32i	a10, a3, 0x1fc

00002fb2 <fn_calc_zp_gain+0x1aa>:
    2fb2:	334b           	addi.n	a3, a3, 4
    2fb4:	f58856        	bnez	a8, 2f10 <fn_calc_zp_gain+0x108>
    2fb7:	5138           	l32i.n	a3, a1, 20
    2fb9:	3198           	l32i.n	a9, a1, 12
    2fbb:	3a1c           	movi.n	a10, 19
    2fbd:	02d332        	addmi	a3, a3, 0x200
    2fc0:	0ad992        	addmi	a9, a9, 0xa00
    2fc3:	0cc992        	addi	a9, a9, 12
    2fc6:	10c332        	addi	a3, a3, 16
    2fc9:	0aaa76        	loopgtz	a10, 2fd7 <fn_calc_zp_gain+0x1cf>
    2fcc:	7f23a2        	l32i	a10, a3, 0x1fc
    2fcf:	fcc992        	addi	a9, a9, -4
    2fd2:	8069a2        	s32i	a10, a9, 0x200
    2fd5:	334b           	addi.n	a3, a3, 4

00002fd7 <fn_calc_zp_gain+0x1cf>:
    2fd7:	0138           	l32i.n	a3, a1, 0
    2fd9:	f44881        	l32r	a8, fc (4d38 <real_512_fft>)
    2fdc:	41a8           	l32i.n	a10, a1, 16
    2fde:	03bd           	mov.n	a11, a3
    2fe0:	0008e0        	callx8	a8
    2fe3:	02a292        	movi	a9, 0x202
    2fe6:	036d           	mov.n	a6, a3
    2fe8:	601604        	ae_lq32f.iu	aeq0, a6, 0
    2feb:	131aa6        	blti	a10, 1, 3002 <fn_calc_zp_gain+0x1fa>
    2fee:	0da976        	loopgtz	a9, 2fff <fn_calc_zp_gain+0x1f7>
    2ff1:	fc24fe8a4f 	{ ae_slaasq56s	aeq1, aeq0, a10; nop }
    2ff6:	060944        	ae_satq48s	aeq0, aeq1
    2ff9:	624604        	ae_sq32f.iu	aeq0, a6, 0
    2ffc:	601614        	ae_lq32f.iu	aeq0, a6, 4
    2fff:	0004c6        	j	3016 <fn_calc_zp_gain+0x20e>

00003002 <fn_calc_zp_gain+0x1fa>:
    3002:	0020f0        	nop
    3005:	0da976        	loopgtz	a9, 3016 <fn_calc_zp_gain+0x20e>
    3008:	fc24fe8acf 	{ ae_slaasq56s	aeq3, aeq0, a10; nop }
    300d:	06b934        	ae_roundsq32asym	aeq2, aeq3
    3010:	626604        	ae_sq32f.iu	aeq2, a6, 0
    3013:	601614        	ae_lq32f.iu	aeq0, a6, 4

00003016 <fn_calc_zp_gain+0x20e>:
    3016:	01a132        	movi	a3, 0x101
    3019:	5128           	l32i.n	a2, a1, 20
    301b:	0168           	l32i.n	a6, a1, 0
    301d:	1148           	l32i.n	a4, a1, 4
    301f:	2178           	l32i.n	a7, a1, 8
    3021:	5c8604        	ae_lp24x2f.iu	aep0, a6, 0

00003024 <fn_calc_zp_gain+0x21c>:
    3024:	048004        	ae_mulzaafp24s.hh.ll	aeq2, aep0, aep0
    3027:	366054        	ae_sllisq56s	aeq1, aeq2, 1
    302a:	061934        	ae_roundsq32asym	aeq0, aeq1
    302d:	368b04        	ae_trunca32q48	a11, aeq0
    3030:	f43e81        	l32r	a8, 128 (ad4 <HIFI_sqrt_ie>)
    3033:	40ebc0        	nsa	a12, a11
    3036:	8ccd           	ae_sext16	a12, a12
    3038:	c0a5c0        	sub	a10, a5, a12
    303b:	401c00        	ssl	a12
    303e:	a1bb00        	sll	a11, a11
    3041:	0008e0        	callx8	a8
    3044:	40ebd0        	nsa	a13, a11
    3047:	fecaa2        	addi	a10, a10, -2
    304a:	8aad           	ae_sext16	a10, a10
    304c:	8ddd           	ae_sext16	a13, a13
    304e:	05ada7        	bge	a13, a10, 3057 <fn_calc_zp_gain+0x24f>
    3051:	f3ffa1        	l32r	a10, 50 (7fffffff <_end+0x7fff185f>)
    3054:	000506        	j	306c <fn_calc_zp_gain+0x264>

00003057 <fn_calc_zp_gain+0x24f>:
    3057:	0b1ae6        	bgei	a10, 1, 3066 <fn_calc_zp_gain+0x25e>
    305a:	60c0a0        	neg	a12, a10
    305d:	400c00        	ssr	a12
    3060:	b1a0b0        	sra	a10, a11
    3063:	000146        	j	306c <fn_calc_zp_gain+0x264>

00003066 <fn_calc_zp_gain+0x25e>:
    3066:	401a00        	ssl	a10
    3069:	a1ab00        	sll	a10, a11

0000306c <fn_calc_zp_gain+0x264>:
    306c:	02b8           	l32i.n	a11, a2, 0
    306e:	330b           	addi.n	a3, a3, -1
    3070:	224b           	addi.n	a2, a2, 4
    3072:	3bcc           	bnez.n	a11, 3079 <fn_calc_zp_gain+0x271>
    3074:	0c0c           	movi.n	a12, 0
    3076:	000bc6        	j	30a9 <fn_calc_zp_gain+0x2a1>

00003079 <fn_calc_zp_gain+0x271>:
    3079:	052ab7        	blt	a10, a11, 3082 <fn_calc_zp_gain+0x27a>
    307c:	f3f8c1        	l32r	a12, 5c (7fff <xtensa_fft8_32b+0x27>)
    307f:	000986        	j	30a9 <fn_calc_zp_gain+0x2a1>

00003082 <fn_calc_zp_gain+0x27a>:
    3082:	368b34        	ae_cvtq48a32s	aeq2, a11
    3085:	360a34        	ae_cvtq48a32s	aeq0, a10
    3088:	40ebe0        	nsa	a14, a11
    308b:	8eed           	ae_sext16	a14, a14
    308d:	fc24fe8ecf 	{ ae_slaasq56s	aeq3, aeq0, a14; nop }
    3092:	fd84cf1eee 	{ addi	a14, a14, -15; ae_satq48s	aeq1, aeq3 }
    3097:	fc24feae0f 	{ ae_slaasq56s	aeq0, aeq2, a14; nop }
    309c:	ff00ff1cef 	{ ae_trunca32q48	a12, aeq1; ae_satq48s	aeq3, aeq0 }
    30a1:	36bd04        	ae_trunca32q48	a13, aeq3
    30a4:	d2ccd0        	quos	a12, a12, a13
    30a7:	accd           	ae_clamps16	a12, a12
    30a9:	53f7c0        	max	a15, a7, a12
    30ac:	09c4f4        	ae_s16ip	a15, a4, 2
    30af:	5c8614        	ae_lp24x2f.iu	aep0, a6, 8
    30b2:	f6e356        	bnez	a3, 3024 <fn_calc_zp_gain+0x21c>
    30b5:	f01d           	retw.n

000030b7 <fn_calc_zp_gain+0x2af>:
	...

000030b8 <fn_ini_pitch_detection>:
    30b8:	004136        	entry	a1, 32
    30bb:	02ad           	mov.n	a10, a2
    30bd:	f40481        	l32r	a8, d0 (8820 <xt_memset>)
    30c0:	0b0c           	movi.n	a11, 0
    30c2:	2c1c           	movi.n	a12, 18
    30c4:	0008e0        	callx8	a8
    30c7:	03bd           	mov.n	a11, a3
    30c9:	f3d881        	l32r	a8, 2c (8838 <xt_memcpy>)
    30cc:	02ad           	mov.n	a10, a2
    30ce:	ec0c           	movi.n	a12, 14
    30d0:	0008e0        	callx8	a8
    30d3:	8249           	s32i.n	a4, a2, 32
    30d5:	f01d           	retw.n

000030d7 <fn_ini_pitch_detection+0x1f>:
	...

000030d8 <fn_pitch_detection>:
    30d8:	006136        	entry	a1, 48
    30db:	039d           	mov.n	a9, a3
    30dd:	8238           	l32i.n	a3, a2, 32
    30df:	0a9282        	l16si	a8, a2, 20
    30e2:	2139           	s32i.n	a3, a1, 8
    30e4:	08d3a2        	addmi	a10, a3, 0x800
    30e7:	31a9           	s32i.n	a10, a1, 12
    30e9:	5418a6        	blti	a8, 1, 3141 <fn_pitch_detection+0x69>
    30ec:	050c           	movi.n	a5, 0
    30ee:	2168           	l32i.n	a6, a1, 8
    30f0:	093d           	mov.n	a3, a9

000030f2 <fn_pitch_detection+0x1a>:
    30f2:	03a8           	l32i.n	a10, a3, 0
    30f4:	f3f281        	l32r	a8, bc (df0 <fxlog10>)
    30f7:	aa1b           	addi.n	a10, a10, 1
    30f9:	0008e0        	callx8	a8
    30fc:	f40eb1        	l32r	a11, 134 (ffffcb05 <_end+0xfffee365>)
    30ff:	aaba           	add.n	a10, a10, a11
    3101:	fddc65        	call8	ec8 <_saturate16>
    3104:	f3ddd1        	l32r	a13, 78 (8000 <xtensa_fft8_32b+0x28>)
    3107:	f40cc1        	l32r	a12, 138 (6a4d3c26 <_end+0x6a4c5486>)
    310a:	0a7d           	mov.n	a7, a10
    310c:	404f10        	ssai	31
    310f:	82aac0        	mull	a10, a10, a12
    3112:	b2c7c0        	mulsh	a12, a7, a12
    3115:	11baf0        	slli	a11, a10, 1
    3118:	81cca0        	src	a12, a12, a10
    311b:	90aad0        	addx2	a10, a10, a13
    311e:	404010        	ssai	16
    3121:	62bab0        	saltu	a11, a10, a11
    3124:	bbca           	add.n	a11, a11, a12
    3126:	81aba0        	src	a10, a11, a10
    3129:	31b0b0        	srai	a11, a11, 16
    312c:	fddb65        	call8	ee4 <_saturate32>
    312f:	09e6a4        	ae_s32ip	a10, a6, 4
    3132:	0a92d2        	l16si	a13, a2, 20
    3135:	334b           	addi.n	a3, a3, 4
    3137:	551b           	addi.n	a5, a5, 1
    3139:	b525d7        	blt	a5, a13, 30f2 <fn_pitch_detection+0x1a>
    313c:	617d           	ae_s16i.n	a7, a1, 0
    313e:	0000c6        	j	3145 <fn_pitch_detection+0x6d>

00003141 <fn_pitch_detection+0x69>:
    3141:	050c           	movi.n	a5, 0
    3143:	2139           	s32i.n	a3, a1, 8

00003145 <fn_pitch_detection+0x6d>:
    3145:	3178           	l32i.n	a7, a1, 12
    3147:	2138           	l32i.n	a3, a1, 8
    3149:	ffa182        	movi	a8, 0x1ff
    314c:	00a1e2        	movi	a14, 0x100
    314f:	142e57        	blt	a14, a5, 3167 <fn_pitch_detection+0x8f>
    3152:	f3fa91        	l32r	a9, 13c (c0000000 <_end+0xbfff1860>)
    3155:	a06530        	addx4	a6, a5, a3
    3158:	01a1f2        	movi	a15, 0x101
    315b:	c0ff50        	sub	a15, a15, a5
    315e:	02af76        	loopgtz	a15, 3164 <fn_pitch_detection+0x8c>
    3161:	09e694        	ae_s32ip	a9, a6, 4

00003164 <fn_pitch_detection+0x8c>:
    3164:	01a152        	movi	a5, 0x101

00003167 <fn_pitch_detection+0x8f>:
    3167:	1f2857        	blt	a8, a5, 318a <fn_pitch_detection+0xb2>
    316a:	a06530        	addx4	a6, a5, a3
    316d:	1195e0        	slli	a9, a5, 2
    3170:	00a2a2        	movi	a10, 0x200
    3173:	c0aa50        	sub	a10, a10, a5
    3176:	c09390        	sub	a9, a3, a9
    3179:	06d992        	addmi	a9, a9, 0x600
    317c:	f03d           	nop.n
    317e:	08aa76        	loopgtz	a10, 318a <fn_pitch_detection+0xb2>
    3181:	fcc992        	addi	a9, a9, -4
    3184:	8129b2        	l32i	a11, a9, 0x204
    3187:	09e6b4        	ae_s32ip	a11, a6, 4

0000318a <fn_pitch_detection+0xb2>:
    318a:	f3dc81        	l32r	a8, fc (4d38 <real_512_fft>)
    318d:	03ad           	mov.n	a10, a3
    318f:	07bd           	mov.n	a11, a7
    3191:	0008e0        	callx8	a8
    3194:	049252        	l16si	a5, a2, 8
    3197:	0a6d           	mov.n	a6, a10
    3199:	059292        	l16si	a9, a2, 10
    319c:	b0b570        	addx8	a11, a5, a7
    319f:	a0c530        	addx4	a12, a5, a3
    31a2:	fcccc2        	addi	a12, a12, -4
    31a5:	5c8b04        	ae_lp24x2f.iu	aep0, a11, 0
    31a8:	34a597        	bge	a5, a9, 31e0 <fn_pitch_detection+0x108>
    31ab:	010844        	ae_mulfp24s.hh	aeq1, aep0, aep0
    31ae:	e203cc19af 	{ movi	a10, 0xfffffc19; ae_mulafp24s.ll	aeq1, aep0, aep0 }
    31b3:	217d           	ae_l16si.n	a7, a1, 0
    31b5:	355074        	ae_sraiq56	aeq1, aeq1, 1

000031b8 <fn_pitch_detection+0xe0>:
    31b8:	061934        	ae_roundsq32asym	aeq0, aeq1
    31bb:	624c14        	ae_sq32f.iu	aeq0, a12, 4
    31be:	368d04        	ae_trunca32q48	a13, aeq0
    31c1:	5c8b14        	ae_lp24x2f.iu	aep0, a11, 8
    31c4:	010844        	ae_mulfp24s.hh	aeq1, aep0, aep0
    31c7:	03aad7        	bge	a10, a13, 31ce <fn_pitch_detection+0xf6>
    31ca:	0dad           	mov.n	a10, a13
    31cc:	057d           	mov.n	a7, a5

000031ce <fn_pitch_detection+0xf6>:
    31ce:	e203e052de 	{ l16si	a13, a2, 10; ae_mulafp24s.ll	aeq1, aep0, aep0 }
    31d3:	551b           	addi.n	a5, a5, 1
    31d5:	355074        	ae_sraiq56	aeq1, aeq1, 1
    31d8:	dc25d7        	blt	a5, a13, 31b8 <fn_pitch_detection+0xe0>
    31db:	617d           	ae_s16i.n	a7, a1, 0
    31dd:	000086        	j	31e3 <fn_pitch_detection+0x10b>

000031e0 <fn_pitch_detection+0x108>:
    31e0:	19aca2        	movi	a10, 0xfffffc19

000031e3 <fn_pitch_detection+0x10b>:
    31e3:	f3cc81        	l32r	a8, 114 (d80 <fxsqrt_ie>)
    31e6:	0008e0        	callx8	a8
    31e9:	31bfa0        	srai	a11, a10, 31
    31ec:	565b           	addi.n	a5, a6, 5
    31ee:	f3c681        	l32r	a8, 108 (887c <__ashldi3>)
    31f1:	855d           	ae_sext16	a5, a5
    31f3:	05cd           	mov.n	a12, a5
    31f5:	0008e0        	callx8	a8
    31f8:	fdcea5        	call8	ee4 <_saturate32>
    31fb:	0288           	l32i.n	a8, a2, 0
    31fd:	0faa87        	bge	a10, a8, 3210 <fn_pitch_detection+0x138>
    3200:	1298           	l32i.n	a9, a2, 4
    3202:	052a97        	blt	a10, a9, 320b <fn_pitch_detection+0x133>
    3205:	0e92a2        	l16si	a10, a2, 28
    3208:	115a56        	bnez	a10, 3321 <fn_pitch_detection+0x249>

0000320b <fn_pitch_detection+0x133>:
    320b:	070c           	movi.n	a7, 0
    320d:	000046        	j	3212 <fn_pitch_detection+0x13a>

00003210 <fn_pitch_detection+0x138>:
    3210:	217d           	ae_l16si.n	a7, a1, 0

00003212 <fn_pitch_detection+0x13a>:
    3212:	0e5272        	s16i	a7, a2, 28
    3215:	27cc           	bnez.n	a7, 321b <fn_pitch_detection+0x143>
    3217:	020c           	movi.n	a2, 0
    3219:	f01d           	retw.n

0000321b <fn_pitch_detection+0x143>:
    321b:	049d           	mov.n	a9, a4
    321d:	01a1a2        	movi	a10, 0x101
    3220:	05aa76        	loopgtz	a10, 3229 <fn_pitch_detection+0x151>
    3223:	0892b2        	l16si	a11, a2, 16
    3226:	09c9b4        	ae_s16ip	a11, a9, 2

00003229 <fn_pitch_detection+0x151>:
    3229:	04ae82        	movi	a8, 0xfffffe04
    322c:	a03730        	addx4	a3, a7, a3
    322f:	338a           	add.n	a3, a3, a8
    3231:	8023a2        	l32i	a10, a3, 0x200
    3234:	7e23b2        	l32i	a11, a3, 0x1f8
    3237:	31dfa0        	srai	a13, a10, 31
    323a:	31cfb0        	srai	a12, a11, 31
    323d:	abaa           	add.n	a10, a11, a10
    323f:	ccda           	add.n	a12, a12, a13
    3241:	62bab0        	saltu	a11, a10, a11
    3244:	bbca           	add.n	a11, a11, a12
    3246:	fdc9e5        	call8	ee4 <_saturate32>
    3249:	7f2392        	l32i	a9, a3, 0x1fc
    324c:	0a5d           	mov.n	a5, a10
    324e:	404f10        	ssai	31
    3251:	31bf90        	srai	a11, a9, 31
    3254:	81bb90        	src	a11, a11, a9
    3257:	1199f0        	slli	a9, a9, 1
    325a:	09ad           	mov.n	a10, a9
    325c:	fdc865        	call8	ee4 <_saturate32>
    325f:	31bf50        	srai	a11, a5, 31
    3262:	0add           	mov.n	a13, a10
    3264:	31dfd0        	srai	a13, a13, 31
    3267:	c0a5a0        	sub	a10, a5, a10
    326a:	62c5a0        	saltu	a12, a5, a10
    326d:	c0bbd0        	sub	a11, a11, a13
    3270:	c0bbc0        	sub	a11, a11, a12
    3273:	fdc725        	call8	ee4 <_saturate32>
    3276:	8023e2        	l32i	a14, a3, 0x200
    3279:	7e23b2        	l32i	a11, a3, 0x1f8
    327c:	0a3d           	mov.n	a3, a10
    327e:	31dfe0        	srai	a13, a14, 31
    3281:	c0ebe0        	sub	a14, a11, a14
    3284:	62cbe0        	saltu	a12, a11, a14
    3287:	0ead           	mov.n	a10, a14
    3289:	31bfb0        	srai	a11, a11, 31
    328c:	c0bbd0        	sub	a11, a11, a13
    328f:	c0bbc0        	sub	a11, a11, a12
    3292:	fdc525        	call8	ee4 <_saturate32>
    3295:	0d92b2        	l16si	a11, a2, 26
    3298:	f3aad1        	l32r	a13, 140 (200000 <_end+0x1f1860>)
    329b:	11f790        	slli	a15, a7, 7
    329e:	11ea90        	slli	a14, a10, 7
    32a1:	d2ee30        	quos	a14, a14, a3
    32a4:	eefa           	add.n	a14, a14, a15
    32a6:	d2dde0        	quos	a13, a13, a14
    32a9:	2f0c           	movi.n	a15, 2
    32ab:	0e2c           	movi.n	a14, 32
    32ad:	10cdc2        	addi	a12, a13, 16
    32b0:	d2f7f0        	quos	a15, a7, a15
    32b3:	8ffd           	ae_sext16	a15, a15
    32b5:	ff0b           	addi.n	a15, a15, -1
    32b7:	d2cce0        	quos	a12, a12, a14
    32ba:	8ccd           	ae_sext16	a12, a12
    32bc:	04afe2        	movi	a14, -252
    32bf:	909c40        	addx2	a9, a12, a4
    32c2:	99ea           	add.n	a9, a9, a14
    32c4:	7d59b2        	s16i	a11, a9, 250
    32c7:	0992a2        	l16si	a10, a2, 18
    32ca:	7e59a2        	s16i	a10, a9, 252
    32cd:	80add0        	add	a10, a13, a13
    32d0:	0d9282        	l16si	a8, a2, 26
    32d3:	7f5982        	s16i	a8, a9, 254
    32d6:	10caa2        	addi	a10, a10, 16
    32d9:	25af76        	loopgtz	a15, 3302 <fn_pitch_detection+0x22a>
    32dc:	0c9292        	l16si	a9, a2, 24
    32df:	0c2c           	movi.n	a12, 32
    32e1:	d2cac0        	quos	a12, a10, a12
    32e4:	8ccd           	ae_sext16	a12, a12
    32e6:	90bc40        	addx2	a11, a12, a4
    32e9:	bbea           	add.n	a11, a11, a14
    32eb:	7d5b92        	s16i	a9, a11, 250
    32ee:	079282        	l16si	a8, a2, 14
    32f1:	7e5b82        	s16i	a8, a11, 252
    32f4:	0b92f2        	l16si	a15, a2, 22
    32f7:	aada           	add.n	a10, a10, a13
    32f9:	05acf7        	bge	a12, a15, 3302 <fn_pitch_detection+0x22a>
    32fc:	0c92f2        	l16si	a15, a2, 24
    32ff:	7f5bf2        	s16i	a15, a11, 254

00003302 <fn_pitch_detection+0x22a>:
    3302:	072d           	mov.n	a2, a7
    3304:	02cc52        	addi	a5, a12, 2
    3307:	fea082        	movi	a8, 254
    330a:	1128c7        	blt	a8, a12, 331f <fn_pitch_detection+0x247>
    330d:	f34da1        	l32r	a10, 44 (1000 <inv_mel_filter+0x4>)
    3310:	909540        	addx2	a9, a5, a4
    3313:	ffa0b2        	movi	a11, 255
    3316:	c0bbc0        	sub	a11, a11, a12
    3319:	02ab76        	loopgtz	a11, 331f <fn_pitch_detection+0x247>
    331c:	09c9a4        	ae_s16ip	a10, a9, 2

0000331f <fn_pitch_detection+0x247>:
    331f:	f01d           	retw.n

00003321 <fn_pitch_detection+0x249>:
    3321:	217d           	ae_l16si.n	a7, a1, 0
    3323:	0692c2        	l16si	a12, a2, 12
    3326:	c0da70        	sub	a13, a10, a7
    3329:	60d1d0        	abs	a13, a13
    332c:	022cd7        	blt	a12, a13, 3332 <fn_pitch_detection+0x25a>
    332f:	ffb7c6        	j	3212 <fn_pitch_detection+0x13a>
    3332:	060c           	movi.n	a6, 0
    3334:	1159           	s32i.n	a5, a1, 4
    3336:	4e1c           	movi.n	a14, 20
    3338:	a09730        	addx4	a9, a7, a3
    333b:	d8c992        	addi	a9, a9, -40
    333e:	02ae76        	loopgtz	a14, 3344 <fn_pitch_detection+0x26c>
    3341:	09e964        	ae_s32ip	a6, a9, 4

00003344 <fn_pitch_detection+0x26c>:
    3344:	0592a2        	l16si	a10, a2, 10
    3347:	049252        	l16si	a5, a2, 8
    334a:	20a5a7        	bge	a5, a10, 336e <fn_pitch_detection+0x296>
    334d:	a0b530        	addx4	a11, a5, a3
    3350:	1d0c           	movi.n	a13, 1
    3352:	c0ca50        	sub	a12, a10, a5
    3355:	19aca2        	movi	a10, 0xfffffc19
    3358:	53ccd0        	max	a12, a12, a13
    335b:	0cac76        	loopgtz	a12, 336b <fn_pitch_detection+0x293>
    335e:	0bd8           	l32i.n	a13, a11, 0
    3360:	bb4b           	addi.n	a11, a11, 4
    3362:	03aad7        	bge	a10, a13, 3369 <fn_pitch_detection+0x291>
    3365:	0dad           	mov.n	a10, a13
    3367:	857d           	ae_sext16	a7, a5

00003369 <fn_pitch_detection+0x291>:
    3369:	551b           	addi.n	a5, a5, 1

0000336b <fn_pitch_detection+0x293>:
    336b:	000086        	j	3371 <fn_pitch_detection+0x299>

0000336e <fn_pitch_detection+0x296>:
    336e:	19aca2        	movi	a10, 0xfffffc19

00003371 <fn_pitch_detection+0x299>:
    3371:	f36881        	l32r	a8, 114 (d80 <fxsqrt_ie>)
    3374:	0008e0        	callx8	a8
    3377:	f36481        	l32r	a8, 108 (887c <__ashldi3>)
    337a:	11c8           	l32i.n	a12, a1, 4
    337c:	31bfa0        	srai	a11, a10, 31
    337f:	0008e0        	callx8	a8
    3382:	fdb625        	call8	ee4 <_saturate32>
    3385:	12c8           	l32i.n	a12, a2, 4
    3387:	0e92e2        	l16si	a14, a2, 28
    338a:	0692d2        	l16si	a13, a2, 12
    338d:	72cac0        	salt	a12, a10, a12
    3390:	c0ee70        	sub	a14, a14, a7
    3393:	60e1e0        	abs	a14, a14
    3396:	72dde0        	salt	a13, a13, a14
    3399:	9376d0        	movnez	a7, a6, a13
    339c:	877d           	ae_sext16	a7, a7
    339e:	9376c0        	movnez	a7, a6, a12
    33a1:	ff9b46        	j	3212 <fn_pitch_detection+0x13a>

000033a4 <fn_ini_mic_chk_status>:
    33a4:	004136        	entry	a1, 32
    33a7:	02ad           	mov.n	a10, a2
    33a9:	f34981        	l32r	a8, d0 (8820 <xt_memset>)
    33ac:	0b0c           	movi.n	a11, 0
    33ae:	9c0c           	movi.n	a12, 9
    33b0:	0008e0        	callx8	a8
    33b3:	02ad           	mov.n	a10, a2
    33b5:	f31d81        	l32r	a8, 2c (8838 <xt_memcpy>)
    33b8:	03bd           	mov.n	a11, a3
    33ba:	6c0c           	movi.n	a12, 6
    33bc:	0008e0        	callx8	a8
    33bf:	339d           	ae_l16si.n	a9, a3, 2
    33c1:	02d992        	addmi	a9, a9, 0x200
    33c4:	9ac992        	addi	a9, a9, -102
    33c7:	075292        	s16i	a9, a2, 14
    33ca:	f01d           	retw.n

000033cc <fn_mic_chk_status>:
    33cc:	006136        	entry	a1, 48
    33cf:	027d           	mov.n	a7, a2
    33d1:	860b           	addi.n	a8, a6, -1
    33d3:	042d           	mov.n	a2, a4
    33d5:	107856        	bnez	a8, 34e0 <fn_mic_chk_status+0x114>
    33d8:	ffc592        	addi	a9, a5, -1
    33db:	101956        	bnez	a9, 34e0 <fn_mic_chk_status+0x114>
    33de:	40a0a2        	movi	a10, 64
    33e1:	609304        	ae_lq32f.iu	aeq2, a3, 0
    33e4:	00a2b2        	movi	a11, 0x200
    33e7:	fc2493944f 	{ or	a9, a4, a4; ae_zeroq56	aeq0 }
    33ec:	630114        	ae_sq56s.i	aeq0, a1, 8
    33ef:	60d904        	ae_lq32f.iu	aeq3, a9, 0
    33f2:	300bb4        	ae_cvtp24a16x2.ll	aep0, a11, a11
    33f5:	420104        	ae_sp16f.l.i	aep0, a1, 0
    33f8:	fd046c010f 	{ ae_lp16f.i	aep0, a1, 0; ae_movq56	aeq1, aeq0 }
    33fd:	0daa76        	loopgtz	a10, 340e <fn_mic_chk_status+0x42>
    3400:	0308d4        	ae_mulafq32sp16s.l	aeq1, aeq3, aep0
    3403:	f682bd791f 	{ ae_lq32f.iu	aeq3, a9, 4; ae_mulafq32sp16s.l	aeq0, aeq2, aep0 }
    3408:	609314        	ae_lq32f.iu	aeq2, a3, 4
    340b:	630114        	ae_sq56s.i	aeq0, a1, 8

0000340e <fn_mic_chk_status+0x42>:
    340e:	f32b81        	l32r	a8, bc (df0 <fxlog10>)
    3411:	369a04        	ae_trunca32q48	a10, aeq1
    3414:	0008e0        	callx8	a8
    3417:	610114        	ae_lq56.i	aeq0, a1, 8
    341a:	368904        	ae_trunca32q48	a9, aeq0
    341d:	f32781        	l32r	a8, bc (df0 <fxlog10>)
    3420:	0a3d           	mov.n	a3, a10
    3422:	20a990        	or	a10, a9, a9
    3425:	0008e0        	callx8	a8
    3428:	c0a3a0        	sub	a10, a3, a10
    342b:	fda9e5        	call8	ec8 <_saturate16>
    342e:	0397b2        	l16si	a11, a7, 6
    3431:	029792        	l16si	a9, a7, 4
    3434:	fd24933aaf 	{ or	a3, a10, a10; ae_zeroq56	aeq1 }
    3439:	f302a1        	l32r	a10, 44 (1000 <inv_mel_filter+0x4>)
    343c:	631114        	ae_sq56s.i	aeq1, a1, 8
    343f:	301aa4        	ae_cvtp24a16x2.ll	aep1, a10, a10
    3442:	08a0a2        	movi	a10, 8
    3445:	a09920        	addx4	a9, a9, a2
    3448:	a0bb20        	addx4	a11, a11, a2
    344b:	609b04        	ae_lq32f.iu	aeq2, a11, 0
    344e:	60d904        	ae_lq32f.iu	aeq3, a9, 0
    3451:	421114        	ae_sp16f.l.i	aep1, a1, 2
    3454:	fc0c6c011f 	{ ae_lp16f.i	aep0, a1, 2; ae_movq56	aeq0, aeq1 }
    3459:	0daa76        	loopgtz	a10, 346a <fn_mic_chk_status+0x9e>
    345c:	0308d4        	ae_mulafq32sp16s.l	aeq1, aeq3, aep0
    345f:	f682bd791f 	{ ae_lq32f.iu	aeq3, a9, 4; ae_mulafq32sp16s.l	aeq0, aeq2, aep0 }
    3464:	609b14        	ae_lq32f.iu	aeq2, a11, 4
    3467:	630114        	ae_sq56s.i	aeq0, a1, 8
    346a:	f31481        	l32r	a8, bc (df0 <fxlog10>)
    346d:	369a04        	ae_trunca32q48	a10, aeq1
    3470:	0008e0        	callx8	a8
    3473:	614114        	ae_lq56.i	aeq1, a1, 8
    3476:	369904        	ae_trunca32q48	a9, aeq1
    3479:	f31081        	l32r	a8, bc (df0 <fxlog10>)
    347c:	0a2d           	mov.n	a2, a10
    347e:	09ad           	mov.n	a10, a9
    3480:	0008e0        	callx8	a8
    3483:	c0a2a0        	sub	a10, a2, a10
    3486:	fda425        	call8	ec8 <_saturate16>
    3489:	0697b2        	l16si	a11, a7, 12
    348c:	0a2d           	mov.n	a2, a10
    348e:	c0a3b0        	sub	a10, a3, a11
    3491:	fda365        	call8	ec8 <_saturate16>
    3494:	0497b2        	l16si	a11, a7, 8
    3497:	d1bba0        	mul16s	a11, a11, a10
    349a:	0697a2        	l16si	a10, a7, 12
    349d:	11bbf0        	slli	a11, a11, 1
    34a0:	31b0b0        	srai	a11, a11, 16
    34a3:	aaba           	add.n	a10, a10, a11
    34a5:	fda225        	call8	ec8 <_saturate16>
    34a8:	0797c2        	l16si	a12, a7, 14
    34ab:	0657a2        	s16i	a10, a7, 12
    34ae:	c0a2c0        	sub	a10, a2, a12
    34b1:	fda165        	call8	ec8 <_saturate16>
    34b4:	0597b2        	l16si	a11, a7, 10
    34b7:	d1bba0        	mul16s	a11, a11, a10
    34ba:	0797a2        	l16si	a10, a7, 14
    34bd:	11bbf0        	slli	a11, a11, 1
    34c0:	31b0b0        	srai	a11, a11, 16
    34c3:	aaba           	add.n	a10, a10, a11
    34c5:	fda025        	call8	ec8 <_saturate16>
    34c8:	0757a2        	s16i	a10, a7, 14
    34cb:	0697d2        	l16si	a13, a7, 12
    34ce:	27cd           	ae_l16si.n	a12, a7, 0
    34d0:	0897b2        	l16si	a11, a7, 16
    34d3:	378d           	ae_l16si.n	a8, a7, 2
    34d5:	12acd7        	bge	a12, a13, 34eb <fn_mic_chk_status+0x11f>
    34d8:	1e0c           	movi.n	a14, 1
    34da:	20bbe0        	or	a11, a11, a14
    34dd:	0003c6        	j	34f0 <fn_mic_chk_status+0x124>

000034e0 <fn_mic_chk_status+0x114>:
    34e0:	368c           	beqz.n	a6, 34e7 <fn_mic_chk_status+0x11b>
    34e2:	089722        	l16si	a2, a7, 16
    34e5:	f01d           	retw.n

000034e7 <fn_mic_chk_status+0x11b>:
    34e7:	420c           	movi.n	a2, 4
    34e9:	f01d           	retw.n

000034eb <fn_mic_chk_status+0x11f>:
    34eb:	ef7c           	movi.n	a15, -2
    34ed:	10bbf0        	and	a11, a11, a15

000034f0 <fn_mic_chk_status+0x124>:
    34f0:	0857b2        	s16i	a11, a7, 16
    34f3:	07aa87        	bge	a10, a8, 34fe <fn_mic_chk_status+0x132>
    34f6:	220c           	movi.n	a2, 2
    34f8:	202b20        	or	a2, a11, a2
    34fb:	000106        	j	3503 <fn_mic_chk_status+0x137>

000034fe <fn_mic_chk_status+0x132>:
    34fe:	d27c           	movi.n	a2, -3
    3500:	102b20        	and	a2, a11, a2

00003503 <fn_mic_chk_status+0x137>:
    3503:	085722        	s16i	a2, a7, 16
    3506:	f01d           	retw.n

00003508 <biquad_sec>:
    3508:	004136        	entry	a1, 32
    350b:	1488           	l32i.n	a8, a4, 4
    350d:	404700        	ssai	7
    3510:	34e8           	l32i.n	a14, a4, 12
    3512:	0498           	l32i.n	a9, a4, 0
    3514:	24a8           	l32i.n	a10, a4, 8
    3516:	43f8           	l32i.n	a15, a3, 16
    3518:	13c8           	l32i.n	a12, a3, 4
    351a:	33b8           	l32i.n	a11, a3, 12
    351c:	21f8f0        	srai	a15, a15, 8
    351f:	21c8c0        	srai	a12, a12, 8
    3522:	21b8b0        	srai	a11, a11, 8
    3525:	825ab0        	mull	a5, a10, a11
    3528:	8269c0        	mull	a6, a9, a12
    352b:	82def0        	mull	a13, a14, a15
    352e:	b299c0        	mulsh	a9, a9, a12
    3531:	b2eef0        	mulsh	a14, a14, a15
    3534:	b2aab0        	mulsh	a10, a10, a11
    3537:	23b8           	l32i.n	a11, a3, 8
    3539:	815a50        	src	a5, a10, a5
    353c:	81ded0        	src	a13, a14, a13
    353f:	816960        	src	a6, a9, a6
    3542:	21e7e0        	srai	a14, a14, 7
    3545:	219790        	srai	a9, a9, 7
    3548:	21b8b0        	srai	a11, a11, 8
    354b:	21a7a0        	srai	a10, a10, 7
    354e:	82c8b0        	mull	a12, a8, a11
    3551:	b288b0        	mulsh	a8, a8, a11
    3554:	03b8           	l32i.n	a11, a3, 0
    3556:	aaaa           	add.n	a10, a10, a10
    3558:	81c8c0        	src	a12, a8, a12
    355b:	21b8b0        	srai	a11, a11, 8
    355e:	82f2b0        	mull	a15, a2, a11
    3561:	b2b2b0        	mulsh	a11, a2, a11
    3564:	218780        	srai	a8, a8, 7
    3567:	81fbf0        	src	a15, a11, a15
    356a:	404010        	ssai	16
    356d:	21b7b0        	srai	a11, a11, 7
    3570:	f6fa           	add.n	a15, a6, a15
    3572:	626f60        	saltu	a6, a15, a6
    3575:	99ba           	add.n	a9, a9, a11
    3577:	cfca           	add.n	a12, a15, a12
    3579:	b55a           	add.n	a11, a5, a5
    357b:	62fcf0        	saltu	a15, a12, a15
    357e:	625b50        	saltu	a5, a11, a5
    3581:	669a           	add.n	a6, a6, a9
    3583:	668a           	add.n	a6, a6, a8
    3585:	55aa           	add.n	a5, a5, a10
    3587:	bcba           	add.n	a11, a12, a11
    3589:	f2bba1        	l32r	a10, 78 (8000 <xtensa_fft8_32b+0x28>)
    358c:	62cbc0        	saltu	a12, a11, a12
    358f:	ff6a           	add.n	a15, a15, a6
    3591:	ff5a           	add.n	a15, a15, a5
    3593:	ccfa           	add.n	a12, a12, a15
    3595:	adaa           	add.n	a10, a13, a10
    3597:	62dad0        	saltu	a13, a10, a13
    359a:	abaa           	add.n	a10, a11, a10
    359c:	ddea           	add.n	a13, a13, a14
    359e:	ccda           	add.n	a12, a12, a13
    35a0:	62bab0        	saltu	a11, a10, a11
    35a3:	bbca           	add.n	a11, a11, a12
    35a5:	81aba0        	src	a10, a11, a10
    35a8:	31b0b0        	srai	a11, a11, 16
    35ab:	fd93a5        	call8	ee4 <_saturate32>
    35ae:	24c8           	l32i.n	a12, a4, 8
    35b0:	04d8           	l32i.n	a13, a4, 0
    35b2:	14d9           	s32i.n	a13, a4, 4
    35b4:	34c9           	s32i.n	a12, a4, 12
    35b6:	0429           	s32i.n	a2, a4, 0
    35b8:	24a9           	s32i.n	a10, a4, 8
    35ba:	0a2d           	mov.n	a2, a10
    35bc:	f01d           	retw.n

000035be <biquad_sec+0xb6>:
	...

000035c0 <fn_ini_over_subtract>:
    35c0:	004136        	entry	a1, 32
    35c3:	02ad           	mov.n	a10, a2
    35c5:	f2c281        	l32r	a8, d0 (8820 <xt_memset>)
    35c8:	0b0c           	movi.n	a11, 0
    35ca:	ac3c           	movi.n	a12, 58
    35cc:	0008e0        	callx8	a8
    35cf:	f01d           	retw.n

000035d1 <fn_ini_over_subtract+0x11>:
    35d1:	000000                                        ...

000035d4 <fn_over_subtract>:
    35d4:	008136        	entry	a1, 64
    35d7:	0e0c           	movi.n	a14, 0
    35d9:	4169           	s32i.n	a6, a1, 16
    35db:	02ad           	mov.n	a10, a2
    35dd:	680c           	movi.n	a8, 6
    35df:	f2d971        	l32r	a7, 144 (e6b0 <biquad_coef>)
    35e2:	40b304        	ae_lp16f.iu	aep3, a3, 0
    35e5:	f2cb           	addi.n	a15, a2, 12
    35e7:	0149           	s32i.n	a4, a1, 0
    35e9:	05dd           	mov.n	a13, a5
    35eb:	f0a042        	movi	a4, 240
    35ee:	51d9           	s32i.n	a13, a1, 20
    35f0:	fc24939fff 	{ or	a9, a15, a15; ae_zeroq56	aeq0 }
    35f5:	630114        	ae_sq56s.i	aeq0, a1, 8
    35f8:	fc6c13b77f 	{ or	a11, a7, a7; ae_cvtq48p24s.l	aeq0, aep3 }

000035fd <fn_over_subtract+0x29>:
    35fd:	40b314        	ae_lp16f.iu	aep3, a3, 2
    3600:	ee1b           	addi.n	a14, a14, 1
    3602:	44a876        	loopgtz	a8, 364a <fn_over_subtract+0x76>
    3605:	3a88           	l32i.n	a8, a10, 12
    3607:	368504        	ae_trunca32q48	a5, aeq0
    360a:	09cd           	mov.n	a12, a9
    360c:	0bdd           	mov.n	a13, a11
    360e:	10c992        	addi	a9, a9, 16
    3611:	18cbb2        	addi	a11, a11, 24
    3614:	605c04        	ae_lq32f.iu	aeq1, a12, 0
    3617:	5cdd04        	ae_lp24x2f.iu	aep5, a13, 0
    361a:	5ccd14        	ae_lp24x2f.iu	aep4, a13, 8
    361d:	f8143d7c1f 	{ ae_lq32f.iu	aeq3, a12, 4; ae_mulfq32sp24s.h	aeq0, aeq0, aep5 }
    3622:	f4d7bd5c1f 	{ ae_lq32f.iu	aeq2, a12, 4; ae_mulafq32sp24s.l	aeq0, aeq1, aep5 }
    3627:	f653afad1f 	{ ae_lp24x2f.iu	aep2, a13, 8; ae_mulafq32sp24s.h	aeq0, aeq3, aep4 }
    362c:	f6d2b05ade 	{ l32i	a13, a10, 20; ae_mulafq32sp24s.l	aeq0, aeq2, aep4 }
    3631:	f6d2bd3c1f 	{ ae_lq32f.iu	aeq1, a12, 4; ae_mulafq32sp24s.l	aeq0, aeq2, aep4 }
    3636:	f44b944a8f 	{ s32i.n	a8, a10, 16; ae_mulafq32sp24s.h	aeq0, aeq1, aep2 }
    363b:	6ad9           	s32i.n	a13, a10, 24
    363d:	fc24543a5f 	{ s32i.n	a5, a10, 12; ae_roundsq32asym	aeq0, aeq0 }
    3642:	368c04        	ae_trunca32q48	a12, aeq0
    3645:	5ac9           	s32i.n	a12, a10, 20
    3647:	10caa2        	addi	a10, a10, 16

0000364a <fn_over_subtract+0x76>:
    364a:	0f9d           	mov.n	a9, a15
    364c:	07bd           	mov.n	a11, a7
    364e:	ff00bdc11f 	{ ae_lq56.i	aeq2, a1, 8; ae_absq56	aeq3, aeq0 }
    3653:	fbf613a22f 	{ or	a10, a2, a2; ae_addq56	aeq3, aeq2, aeq3 }
    3658:	fe3c40068f 	{ movi	a8, 6; ae_roundsq32asym	aeq2, aeq3 }
    365d:	fc6c3a211f 	{ ae_sq56s.i	aeq2, a1, 8; ae_cvtq48p24s.l	aeq0, aep3 }
    3662:	979e47        	bne	a14, a4, 35fd <fn_over_subtract+0x29>
    3665:	12a8           	l32i.n	a10, a2, 4
    3667:	610114        	ae_lq56.i	aeq0, a1, 8
    366a:	368304        	ae_trunca32q48	a3, aeq0
    366d:	31bfa0        	srai	a11, a10, 31
    3670:	317f30        	srai	a7, a3, 31
    3673:	c0a3a0        	sub	a10, a3, a10
    3676:	62c3a0        	saltu	a12, a3, a10
    3679:	c0b7b0        	sub	a11, a7, a11
    367c:	c0bbc0        	sub	a11, a11, a12
    367f:	fd8665        	call8	ee4 <_saturate32>
    3682:	31bfa0        	srai	a11, a10, 31
    3685:	ca8b           	addi.n	a12, a10, 8
    3687:	404400        	ssai	4
    368a:	62aca0        	saltu	a10, a12, a10
    368d:	aaba           	add.n	a10, a10, a11
    368f:	12b8           	l32i.n	a11, a2, 4
    3691:	81aac0        	src	a10, a10, a12
    3694:	31dfa0        	srai	a13, a10, 31
    3697:	31cfb0        	srai	a12, a11, 31
    369a:	ccda           	add.n	a12, a12, a13
    369c:	abaa           	add.n	a10, a11, a10
    369e:	62bab0        	saltu	a11, a10, a11
    36a1:	bbca           	add.n	a11, a11, a12
    36a3:	fd8425        	call8	ee4 <_saturate32>
    36a6:	02c8           	l32i.n	a12, a2, 0
    36a8:	12a9           	s32i.n	a10, a2, 4
    36aa:	31bfc0        	srai	a11, a12, 31
    36ad:	c0b7b0        	sub	a11, a7, a11
    36b0:	c0a3c0        	sub	a10, a3, a12
    36b3:	62d3a0        	saltu	a13, a3, a10
    36b6:	c0bbd0        	sub	a11, a11, a13
    36b9:	3fac37        	bge	a12, a3, 36fc <fn_over_subtract+0x128>
    36bc:	fd8265        	call8	ee4 <_saturate32>
    36bf:	404800        	ssai	8
    36c2:	01dac2        	addmi	a12, a10, 0x100
    36c5:	31bfa0        	srai	a11, a10, 31
    36c8:	80ccc2        	addi	a12, a12, -128
    36cb:	62aca0        	saltu	a10, a12, a10
    36ce:	aaba           	add.n	a10, a10, a11
    36d0:	02b8           	l32i.n	a11, a2, 0
    36d2:	81aac0        	src	a10, a10, a12
    36d5:	31dfa0        	srai	a13, a10, 31
    36d8:	31cfb0        	srai	a12, a11, 31
    36db:	ccda           	add.n	a12, a12, a13
    36dd:	abaa           	add.n	a10, a11, a10
    36df:	62bab0        	saltu	a11, a10, a11
    36e2:	bbca           	add.n	a11, a11, a12
    36e4:	fd7fe5        	call8	ee4 <_saturate32>

000036e7 <fn_over_subtract+0x113>:
    36e7:	12e8           	l32i.n	a14, a2, 4
    36e9:	f297d1        	l32r	a13, 148 (a3d70a <_end+0xa2ef6a>)
    36ec:	02a9           	s32i.n	a10, a2, 0
    36ee:	f29761        	l32r	a6, 14c (2000 <fn_ini_calc_sup_gain+0xa4>)
    36f1:	31ade7        	bge	a13, a14, 3726 <fn_over_subtract+0x152>
    36f4:	1b1a56        	bnez	a10, 38a9 <fn_over_subtract+0x2d5>
    36f7:	0c0c           	movi.n	a12, 0
    36f9:	001546        	j	3752 <fn_over_subtract+0x17e>

000036fc <fn_over_subtract+0x128>:
    36fc:	fd7e65        	call8	ee4 <_saturate32>
    36ff:	31bfa0        	srai	a11, a10, 31
    3702:	ca8b           	addi.n	a12, a10, 8
    3704:	404400        	ssai	4
    3707:	62aca0        	saltu	a10, a12, a10
    370a:	aaba           	add.n	a10, a10, a11
    370c:	02b8           	l32i.n	a11, a2, 0
    370e:	81aac0        	src	a10, a10, a12
    3711:	31dfa0        	srai	a13, a10, 31
    3714:	31cfb0        	srai	a12, a11, 31
    3717:	ccda           	add.n	a12, a12, a13
    3719:	abaa           	add.n	a10, a11, a10
    371b:	62bab0        	saltu	a11, a10, a11
    371e:	bbca           	add.n	a11, a11, a12
    3720:	fd7c25        	call8	ee4 <_saturate32>
    3723:	fff006        	j	36e7 <fn_over_subtract+0x113>

00003726 <fn_over_subtract+0x152>:
    3726:	06cd           	mov.n	a12, a6
    3728:	000986        	j	3752 <fn_over_subtract+0x17e>

0000372b <fn_over_subtract+0x157>:
    372b:	360a34        	ae_cvtq48a32s	aeq0, a10
    372e:	368b34        	ae_cvtq48a32s	aeq2, a11
    3731:	40eae0        	nsa	a14, a10
    3734:	8eed           	ae_sext16	a14, a14
    3736:	fc24feae4f 	{ ae_slaasq56s	aeq1, aeq2, a14; nop }
    373b:	ff04cf1eee 	{ addi	a14, a14, -15; ae_satq48s	aeq3, aeq1 }
    3740:	fc24fe8e8f 	{ ae_slaasq56s	aeq2, aeq0, a14; nop }
    3745:	fd80ff3cef 	{ ae_trunca32q48	a12, aeq3; ae_satq48s	aeq1, aeq2 }
    374a:	369d04        	ae_trunca32q48	a13, aeq1
    374d:	d2ccd0        	quos	a12, a12, a13
    3750:	accd           	ae_clamps16	a12, a12

00003752 <fn_over_subtract+0x17e>:
    3752:	f27fa1        	l32r	a10, 150 (1fff <fn_ini_calc_sup_gain+0xa3>)
    3755:	3652c2        	s16i	a12, a2, 108
    3758:	022ac7        	blt	a10, a12, 375e <fn_over_subtract+0x18a>
    375b:	365262        	s16i	a6, a2, 108

0000375e <fn_over_subtract+0x18a>:
    375e:	0158           	l32i.n	a5, a1, 0
    3760:	070c           	movi.n	a7, 0
    3762:	2239           	s32i.n	a3, a2, 8
    3764:	04d542        	addmi	a4, a5, 0x400
    3767:	c0c442        	addi	a4, a4, -64
    376a:	03d552        	addmi	a5, a5, 0x300
    376d:	80c552        	addi	a5, a5, -128
    3770:	053d           	mov.n	a3, a5

00003772 <fn_over_subtract+0x19e>:
    3772:	03d8           	l32i.n	a13, a3, 0
    3774:	31cf70        	srai	a12, a7, 31
    3777:	404600        	ssai	6
    377a:	31ffd0        	srai	a15, a13, 31
    377d:	20cde2        	addi	a14, a13, 32
    3780:	62ded0        	saltu	a13, a14, a13
    3783:	ddfa           	add.n	a13, a13, a15
    3785:	81dde0        	src	a13, a13, a14
    3788:	a7da           	add.n	a10, a7, a13
    378a:	62ba70        	saltu	a11, a10, a7
    378d:	31dfd0        	srai	a13, a13, 31
    3790:	ccda           	add.n	a12, a12, a13
    3792:	bbca           	add.n	a11, a11, a12
    3794:	fd74e5        	call8	ee4 <_saturate32>
    3797:	0a7d           	mov.n	a7, a10
    3799:	334b           	addi.n	a3, a3, 4
    379b:	d39347        	bne	a3, a4, 3772 <fn_over_subtract+0x19e>
    379e:	0138           	l32i.n	a3, a1, 0
    37a0:	040c           	movi.n	a4, 0
    37a2:	01d332        	addmi	a3, a3, 0x100
    37a5:	40c332        	addi	a3, a3, 64

000037a8 <fn_over_subtract+0x1d4>:
    37a8:	03d8           	l32i.n	a13, a3, 0
    37aa:	31cf40        	srai	a12, a4, 31
    37ad:	404600        	ssai	6
    37b0:	31ffd0        	srai	a15, a13, 31
    37b3:	20cde2        	addi	a14, a13, 32
    37b6:	62ded0        	saltu	a13, a14, a13
    37b9:	ddfa           	add.n	a13, a13, a15
    37bb:	81dde0        	src	a13, a13, a14
    37be:	a4da           	add.n	a10, a4, a13
    37c0:	62ba40        	saltu	a11, a10, a4
    37c3:	31dfd0        	srai	a13, a13, 31
    37c6:	ccda           	add.n	a12, a12, a13
    37c8:	bbca           	add.n	a11, a11, a12
    37ca:	fd71a5        	call8	ee4 <_saturate32>
    37cd:	0a4d           	mov.n	a4, a10
    37cf:	334b           	addi.n	a3, a3, 4
    37d1:	d39357        	bne	a3, a5, 37a8 <fn_over_subtract+0x1d4>
    37d4:	31df40        	srai	a13, a4, 31
    37d7:	31bf70        	srai	a11, a7, 31
    37da:	c0a7a0        	sub	a10, a7, a10
    37dd:	62c7a0        	saltu	a12, a7, a10
    37e0:	c0bbd0        	sub	a11, a11, a13
    37e3:	c0bbc0        	sub	a11, a11, a12
    37e6:	fd6fe5        	call8	ee4 <_saturate32>
    37e9:	4138           	l32i.n	a3, a1, 16
    37eb:	5158           	l32i.n	a5, a1, 20
    37ed:	f258b1        	l32r	a11, 150 (1fff <fn_ini_calc_sup_gain+0xa3>)
    37f0:	f259f1        	l32r	a15, 154 (2800000 <_end+0x27f1860>)
    37f3:	0e0c           	movi.n	a14, 0
    37f5:	0a7d           	mov.n	a7, a10
    37f7:	72faf0        	salt	a15, a10, a15
    37fa:	937ef0        	movnez	a7, a14, a15
    37fd:	34cc           	bnez.n	a4, 3804 <fn_over_subtract+0x230>
    37ff:	0c0c           	movi.n	a12, 0
    3801:	000fc6        	j	3844 <fn_over_subtract+0x270>

00003804 <fn_over_subtract+0x230>:
    3804:	404200        	ssai	2
    3807:	31df70        	srai	a13, a7, 31
    380a:	c72b           	addi.n	a12, a7, 2
    380c:	62ac70        	saltu	a10, a12, a7
    380f:	aada           	add.n	a10, a10, a13
    3811:	81aac0        	src	a10, a10, a12
    3814:	052a47        	blt	a10, a4, 381d <fn_over_subtract+0x249>
    3817:	f211c1        	l32r	a12, 5c (7fff <xtensa_fft8_32b+0x27>)
    381a:	000986        	j	3844 <fn_over_subtract+0x270>

0000381d <fn_over_subtract+0x249>:
    381d:	368434        	ae_cvtq48a32s	aeq2, a4
    3820:	360a34        	ae_cvtq48a32s	aeq0, a10
    3823:	40e4e0        	nsa	a14, a4
    3826:	8eed           	ae_sext16	a14, a14
    3828:	fc24fe8ecf 	{ ae_slaasq56s	aeq3, aeq0, a14; nop }
    382d:	fd84cf1eee 	{ addi	a14, a14, -15; ae_satq48s	aeq1, aeq3 }
    3832:	fc24feae0f 	{ ae_slaasq56s	aeq0, aeq2, a14; nop }
    3837:	ff00ff1cef 	{ ae_trunca32q48	a12, aeq1; ae_satq48s	aeq3, aeq0 }
    383c:	36bd04        	ae_trunca32q48	a13, aeq3
    383f:	d2ccd0        	quos	a12, a12, a13
    3842:	accd           	ae_clamps16	a12, a12
    3844:	3752c2        	s16i	a12, a2, 110
    3847:	052bc7        	blt	a11, a12, 3850 <fn_over_subtract+0x27c>
    384a:	375262        	s16i	a6, a2, 110
    384d:	f23fc1        	l32r	a12, 14c (2000 <fn_ini_calc_sup_gain+0xa4>)

00003850 <fn_over_subtract+0x27c>:
    3850:	3692b2        	l16si	a11, a2, 108
    3853:	3892a2        	l16si	a10, a2, 112
    3856:	53bbc0        	max	a11, a11, a12
    3859:	8bbd           	ae_sext16	a11, a11
    385b:	1aaba7        	bge	a11, a10, 3879 <fn_over_subtract+0x2a5>
    385e:	c0aba0        	sub	a10, a11, a10
    3861:	fd6665        	call8	ec8 <_saturate16>
    3864:	ba8b           	addi.n	a11, a10, 8
    3866:	3892a2        	l16si	a10, a2, 112
    3869:	21b4b0        	srai	a11, a11, 4
    386c:	8bbd           	ae_sext16	a11, a11
    386e:	aaba           	add.n	a10, a10, a11
    3870:	fd6565        	call8	ec8 <_saturate16>
    3873:	3852a2        	s16i	a10, a2, 112
    3876:	000106        	j	387e <fn_over_subtract+0x2aa>

00003879 <fn_over_subtract+0x2a5>:
    3879:	0bad           	mov.n	a10, a11
    387b:	3852b2        	s16i	a11, a2, 112

0000387e <fn_over_subtract+0x2aa>:
    387e:	300aa4        	ae_cvtp24a16x2.ll	aep0, a10, a10
    3881:	00a1c2        	movi	a12, 0x100
    3884:	a0a350        	addx4	a10, a3, a5
    3887:	601a04        	ae_lq32f.iu	aeq0, a10, 0
    388a:	192c37        	blt	a12, a3, 38a7 <fn_over_subtract+0x2d3>
    388d:	01a1d2        	movi	a13, 0x101
    3890:	c0dd30        	sub	a13, a13, a3
    3893:	f03d           	nop.n
    3895:	0ead76        	loopgtz	a13, 38a7 <fn_over_subtract+0x2d3>
    3898:	038214        	ae_mulfq32sp16s.l	aeq2, aeq0, aep0
    389b:	35a094        	ae_slliq56	aeq2, aeq2, 2
    389e:	066934        	ae_roundsq32asym	aeq1, aeq2
    38a1:	625a04        	ae_sq32f.iu	aeq1, a10, 0
    38a4:	601a14        	ae_lq32f.iu	aeq0, a10, 4

000038a7 <fn_over_subtract+0x2d3>:
    38a7:	f01d           	retw.n

000038a9 <fn_over_subtract+0x2d5>:
    38a9:	404200        	ssai	2
    38ac:	c32b           	addi.n	a12, a3, 2
    38ae:	62bc30        	saltu	a11, a12, a3
    38b1:	bb7a           	add.n	a11, a11, a7
    38b3:	81bbc0        	src	a11, a11, a12
    38b6:	02aba7        	bge	a11, a10, 38bc <fn_over_subtract+0x2e8>
    38b9:	ff9b86        	j	372b <fn_over_subtract+0x157>
    38bc:	f1e8c1        	l32r	a12, 5c (7fff <xtensa_fft8_32b+0x27>)
    38bf:	ffa3c6        	j	3752 <fn_over_subtract+0x17e>

000038c2 <fn_over_subtract+0x2ee>:
	...

000038c4 <fn_ini_noise_cancellation>:
    38c4:	004136        	entry	a1, 32
    38c7:	02ad           	mov.n	a10, a2
    38c9:	f20181        	l32r	a8, d0 (8820 <xt_memset>)
    38cc:	0b0c           	movi.n	a11, 0
    38ce:	f222c1        	l32r	a12, 158 (98c <RX_ECNR_PARA_init>)
    38d1:	0008e0        	callx8	a8
    38d4:	12d292        	addmi	a9, a2, 0x1200
    38d7:	875942        	s16i	a4, a9, 0x10e
    38da:	426932        	s32i	a3, a9, 0x108
    38dd:	885952        	s16i	a5, a9, 0x110
    38e0:	f01d           	retw.n

000038e2 <fn_ini_noise_cancellation+0x1e>:
	...

000038e4 <dot_prod_q31>:
    38e4:	004136        	entry	a1, 32
    38e7:	03d8           	l32i.n	a13, a3, 0
    38e9:	02b8           	l32i.n	a11, a2, 0
    38eb:	404f10        	ssai	31
    38ee:	21d8d0        	srai	a13, a13, 8
    38f1:	21b8b0        	srai	a11, a11, 8
    38f4:	82cbd0        	mull	a12, a11, a13
    38f7:	b2bbd0        	mulsh	a11, a11, a13
    38fa:	11acf0        	slli	a10, a12, 1
    38fd:	81bbc0        	src	a11, a11, a12
    3900:	2924a6        	blti	a4, 2, 392d <dot_prod_q31+0x49>
    3903:	924b           	addi.n	a9, a2, 4
    3905:	e40b           	addi.n	a14, a4, -1
    3907:	22ae76        	loopgtz	a14, 392d <dot_prod_q31+0x49>
    390a:	09c8           	l32i.n	a12, a9, 0
    390c:	13d8           	l32i.n	a13, a3, 4
    390e:	334b           	addi.n	a3, a3, 4
    3910:	994b           	addi.n	a9, a9, 4
    3912:	21d8d0        	srai	a13, a13, 8
    3915:	21c8c0        	srai	a12, a12, 8
    3918:	82ecd0        	mull	a14, a12, a13
    391b:	b2ccd0        	mulsh	a12, a12, a13
    391e:	90dea0        	addx2	a13, a14, a10
    3921:	62fda0        	saltu	a15, a13, a10
    3924:	81cce0        	src	a12, a12, a14
    3927:	0dad           	mov.n	a10, a13
    3929:	bbca           	add.n	a11, a11, a12
    392b:	bfba           	add.n	a11, a15, a11

0000392d <dot_prod_q31+0x49>:
    392d:	f1d2c1        	l32r	a12, 78 (8000 <xtensa_fft8_32b+0x28>)
    3930:	404010        	ssai	16
    3933:	caca           	add.n	a12, a10, a12
    3935:	62dca0        	saltu	a13, a12, a10
    3938:	bdba           	add.n	a11, a13, a11
    393a:	81abc0        	src	a10, a11, a12
    393d:	31b0b0        	srai	a11, a11, 16
    3940:	fd5a25        	call8	ee4 <_saturate32>
    3943:	0a2d           	mov.n	a2, a10
    3945:	f01d           	retw.n

00003947 <dot_prod_q31+0x63>:
	...

00003948 <fn_noise_cancellation>:
    3948:	010136        	entry	a1, 128
    394b:	0c0c           	movi.n	a12, 0
    394d:	2b0c           	movi.n	a11, 2
    394f:	5159           	s32i.n	a5, a1, 20
    3951:	126122        	s32i	a2, a1, 72
    3954:	116142        	s32i	a4, a1, 68
    3957:	052d           	mov.n	a2, a5
    3959:	122142        	l32i	a4, a1, 72
    395c:	035d           	mov.n	a5, a3
    395e:	409504        	ae_lp16f.iu	aep1, a5, 0
    3961:	561174        	ae_sp24x2s.i	aep1, a1, 56
    3964:	2159           	s32i.n	a5, a1, 8
    3966:	04dd           	mov.n	a13, a4
    3968:	112152        	l32i	a5, a1, 68
    396b:	08d472        	addmi	a7, a4, 0x800
    396e:	12d482        	addmi	a8, a4, 0x1200
    3971:	28c4e2        	addi	a14, a4, 40
    3974:	f48b           	addi.n	a15, a4, 8
    3976:	61f9           	s32i.n	a15, a1, 24
    3978:	71e9           	s32i.n	a14, a1, 28
    397a:	10c882        	addi	a8, a8, 16
    397d:	c4c772        	addi	a7, a7, -60
    3980:	a179           	s32i.n	a7, a1, 40
    3982:	9189           	s32i.n	a8, a1, 36
    3984:	f1f6e1        	l32r	a14, 15c (e740 <nc_biquad_coef>)
    3987:	f0a082        	movi	a8, 240
    398a:	408504        	ae_lp16f.iu	aep0, a5, 0
    398d:	560164        	ae_sp24x2s.i	aep0, a1, 48
    3990:	b189           	s32i.n	a8, a1, 44

00003992 <fn_noise_cancellation+0x4a>:
    3992:	540164        	ae_lp24x2.i	aep0, a1, 48
    3995:	2198           	l32i.n	a9, a1, 8
    3997:	61f8           	l32i.n	a15, a1, 24
    3999:	541174        	ae_lp24x2.i	aep1, a1, 56
    399c:	fd2c2c991f 	{ ae_lp16f.iu	aep1, a9, 2; ae_cvtq48p24s.l	aeq1, aep1 }
    39a1:	2199           	s32i.n	a9, a1, 8
    39a3:	561174        	ae_sp24x2s.i	aep1, a1, 56
    39a6:	4eab76        	loopgtz	a11, 39f8 <fn_noise_cancellation+0xb0>
    39a9:	369604        	ae_trunca32q48	a6, aeq1
    39ac:	78c1b2        	addi	a11, a1, 120
    39af:	0f3d           	mov.n	a3, a15
    39b1:	0e8d           	mov.n	a8, a14
    39b3:	10cff2        	addi	a15, a15, 16
    39b6:	18cee2        	addi	a14, a14, 24
    39b9:	609304        	ae_lq32f.iu	aeq2, a3, 0
    39bc:	5cd804        	ae_lp24x2f.iu	aep5, a8, 0
    39bf:	5cc814        	ae_lp24x2f.iu	aep4, a8, 8
    39c2:	60d314        	ae_lq32f.iu	aeq3, a3, 4
    39c5:	633bb4        	ae_sq56s.i	aeq3, a11, -40
    39c8:	5cb814        	ae_lp24x2f.iu	aep3, a8, 8
    39cb:	f815702d8e 	{ l32i	a8, a13, 8; ae_mulfq32sp24s.h	aeq1, aeq1, aep5 }
    39d0:	f6d6fd8bbf 	{ ae_lq56.i	aeq0, a11, -40; ae_mulafq32sp24s.l	aeq1, aeq2, aep5 }
    39d5:	f452fd731f 	{ ae_lq32f.iu	aeq3, a3, 4; ae_mulafq32sp24s.h	aeq1, aeq0, aep4 }
    39da:	f6d3fd531f 	{ ae_lq32f.iu	aeq2, a3, 4; ae_mulafq32sp24s.l	aeq1, aeq3, aep4 }
    39df:	f6d3f04d3e 	{ l32i	a3, a13, 16; ae_mulafq32sp24s.l	aeq1, aeq3, aep4 }
    39e4:	f64ed45d3f 	{ s32i.n	a3, a13, 20; ae_mulafq32sp24s.h	aeq1, aeq2, aep3 }
    39e9:	3d89           	s32i.n	a8, a13, 12
    39eb:	fd2c542d6f 	{ s32i.n	a6, a13, 8; ae_roundsq32asym	aeq1, aeq1 }
    39f0:	369604        	ae_trunca32q48	a6, aeq1
    39f3:	4d69           	s32i.n	a6, a13, 16
    39f5:	10cdd2        	addi	a13, a13, 16

000039f8 <fn_noise_cancellation+0xb0>:
    39f8:	71f8           	l32i.n	a15, a1, 28
    39fa:	04dd           	mov.n	a13, a4
    39fc:	f1d8e1        	l32r	a14, 15c (e740 <nc_biquad_coef>)
    39ff:	1061c2        	s32i	a12, a1, 64
    3a02:	280c           	movi.n	a8, 2
    3a04:	0769           	s32i.n	a6, a7, 0

00003a06 <fn_noise_cancellation+0xbe>:
    3a06:	fd0c2c851f 	{ ae_lp16f.iu	aep0, a5, 2; ae_cvtq48p24s.l	aeq1, aep0 }
    3a0b:	560164        	ae_sp24x2s.i	aep0, a1, 48
    3a0e:	4da876        	loopgtz	a8, 3a5f <fn_noise_cancellation+0x117>
    3a11:	ad38           	l32i.n	a3, a13, 40
    3a13:	369a04        	ae_trunca32q48	a10, aeq1
    3a16:	78c162        	addi	a6, a1, 120
    3a19:	0e9d           	mov.n	a9, a14
    3a1b:	0f8d           	mov.n	a8, a15
    3a1d:	10cdd2        	addi	a13, a13, 16
    3a20:	10cff2        	addi	a15, a15, 16
    3a23:	18cee2        	addi	a14, a14, 24
    3a26:	60d804        	ae_lq32f.iu	aeq3, a8, 0
    3a29:	5cc904        	ae_lp24x2f.iu	aep4, a9, 0
    3a2c:	5cb914        	ae_lp24x2f.iu	aep3, a9, 8
    3a2f:	601814        	ae_lq32f.iu	aeq0, a8, 4
    3a32:	6306b4        	ae_sq56s.i	aeq0, a6, -40
    3a35:	f8113d581f 	{ ae_lq32f.iu	aeq2, a8, 4; ae_mulfq32sp24s.h	aeq0, aeq1, aep4 }
    3a3a:	f6d3bde6bf 	{ ae_lq56.i	aeq3, a6, -40; ae_mulafq32sp24s.l	aeq0, aeq3, aep4 }
    3a3f:	f64fafa91f 	{ ae_lp24x2f.iu	aep2, a9, 8; ae_mulafq32sp24s.h	aeq0, aeq3, aep3 }
    3a44:	f6ceb08d9e 	{ l32i	a9, a13, 32; ae_mulafq32sp24s.l	aeq0, aeq2, aep3 }
    3a49:	f6cebd381f 	{ ae_lq32f.iu	aeq1, a8, 4; ae_mulafq32sp24s.l	aeq0, aeq2, aep3 }
    3a4e:	f44b947d3f 	{ s32i.n	a3, a13, 28; ae_mulafq32sp24s.h	aeq0, aeq1, aep2 }
    3a53:	6da9           	s32i.n	a10, a13, 24
    3a55:	fd24549d9f 	{ s32i.n	a9, a13, 36; ae_roundsq32asym	aeq1, aeq0 }
    3a5a:	369604        	ae_trunca32q48	a6, aeq1
    3a5d:	8d69           	s32i.n	a6, a13, 32

00003a5f <fn_noise_cancellation+0x117>:
    3a5f:	0269           	s32i.n	a6, a2, 0
    3a61:	9138           	l32i.n	a3, a1, 36
    3a63:	609160        	abs	a9, a6
    3a66:	3199           	s32i.n	a9, a1, 12
    3a68:	809332        	l16si	a3, a3, 0x100
    3a6b:	31df90        	srai	a13, a9, 31
    3a6e:	41d9           	s32i.n	a13, a1, 16
    3a70:	2913a6        	blti	a3, 1, 3a9d <fn_noise_cancellation+0x155>
    3a73:	0b0c           	movi.n	a11, 0
    3a75:	f1a481        	l32r	a8, 108 (887c <__ashldi3>)
    3a78:	1a0c           	movi.n	a10, 1
    3a7a:	c30b           	addi.n	a12, a3, -1
    3a7c:	0008e0        	callx8	a8
    3a7f:	41c8           	l32i.n	a12, a1, 16
    3a81:	ccba           	add.n	a12, a12, a11
    3a83:	31b8           	l32i.n	a11, a1, 12
    3a85:	f1a181        	l32r	a8, 10c (8894 <__ashrdi3>)
    3a88:	abaa           	add.n	a10, a11, a10
    3a8a:	62bab0        	saltu	a11, a10, a11
    3a8d:	bbca           	add.n	a11, a11, a12
    3a8f:	03cd           	mov.n	a12, a3
    3a91:	0008e0        	callx8	a8
    3a94:	31dfa0        	srai	a13, a10, 31
    3a97:	1021c2        	l32i	a12, a1, 64
    3a9a:	000046        	j	3a9f <fn_noise_cancellation+0x157>

00003a9d <fn_noise_cancellation+0x155>:
    3a9d:	09ad           	mov.n	a10, a9

00003a9f <fn_noise_cancellation+0x157>:
    3a9f:	acaa           	add.n	a10, a12, a10
    3aa1:	31efc0        	srai	a14, a12, 31
    3aa4:	deda           	add.n	a13, a14, a13
    3aa6:	62bac0        	saltu	a11, a10, a12
    3aa9:	bbda           	add.n	a11, a11, a13
    3aab:	fd43a5        	call8	ee4 <_saturate32>
    3aae:	224b           	addi.n	a2, a2, 4
    3ab0:	774b           	addi.n	a7, a7, 4
    3ab2:	0acd           	mov.n	a12, a10
    3ab4:	81a9           	s32i.n	a10, a1, 32
    3ab6:	04dd           	mov.n	a13, a4
    3ab8:	b1f8           	l32i.n	a15, a1, 44
    3aba:	f1a8e1        	l32r	a14, 15c (e740 <nc_biquad_coef>)
    3abd:	2b0c           	movi.n	a11, 2
    3abf:	ff0b           	addi.n	a15, a15, -1
    3ac1:	b1f9           	s32i.n	a15, a1, 44
    3ac3:	ecbf56        	bnez	a15, 3992 <fn_noise_cancellation+0x4a>
    3ac6:	dfa182        	movi	a8, 0x1df
    3ac9:	04d422        	addmi	a2, a4, 0x400
    3acc:	0cd492        	addmi	a9, a4, 0xc00
    3acf:	88c992        	addi	a9, a9, -120
    3ad2:	224b           	addi.n	a2, a2, 4
    3ad4:	02bd           	mov.n	a11, a2
    3ad6:	05a876        	loopgtz	a8, 3adf <fn_noise_cancellation+0x197>
    3ad9:	605b14        	ae_lq32f.iu	aeq1, a11, 4
    3adc:	625914        	ae_sq32f.iu	aeq1, a9, 4

00003adf <fn_noise_cancellation+0x197>:
    3adf:	48c462        	addi	a6, a4, 72
    3ae2:	0b0c           	movi.n	a11, 0
    3ae4:	f0a032        	movi	a3, 240
    3ae7:	51e8           	l32i.n	a14, a1, 20
    3ae9:	0cd452        	addmi	a5, a4, 0xc00
    3aec:	04d472        	addmi	a7, a4, 0x400
    3aef:	778b           	addi.n	a7, a7, 8
    3af1:	8cc552        	addi	a5, a5, -116
    3af4:	05dd           	mov.n	a13, a5
    3af6:	07cd           	mov.n	a12, a7
    3af8:	fc24bd5e0f 	{ ae_lq32f.iu	aeq2, a14, 0; ae_zeroq56	aeq0 }

00003afd <fn_noise_cancellation+0x1b5>:
    3afd:	78a082        	movi	a8, 120
    3b00:	06fd           	mov.n	a15, a6
    3b02:	fd046f8f0f 	{ ae_lp24x2f.iu	aep0, a15, 0; ae_movq56	aeq1, aeq0 }
    3b07:	04eb07        	bbsi	a11, 0, 3b0f <fn_noise_cancellation+0x1c7>
    3b0a:	0c9d           	mov.n	a9, a12
    3b0c:	000046        	j	3b11 <fn_noise_cancellation+0x1c9>

00003b0f <fn_noise_cancellation+0x1c7>:
    3b0f:	0d9d           	mov.n	a9, a13

00003b11 <fn_noise_cancellation+0x1c9>:
    3b11:	5c9904        	ae_lp24x2f.iu	aep1, a9, 0
    3b14:	f03d           	nop.n
    3b16:	07a876        	loopgtz	a8, 3b21 <fn_noise_cancellation+0x1d9>
    3b19:	e2206f8f1f 	{ ae_lp24x2f.iu	aep0, a15, 8; ae_mulaafp24s.hh.ll	aeq1, aep0, aep1 }
    3b1e:	5c9914        	ae_lp24x2f.iu	aep1, a9, 8

00003b21 <fn_noise_cancellation+0x1d9>:
    3b21:	ff2c404dde 	{ addi	a13, a13, 4; ae_roundsq32asym	aeq3, aeq1 }
    3b26:	fbb6c04cce 	{ addi	a12, a12, 4; ae_subq56	aeq3, aeq2, aeq3 }
    3b2b:	fe3c401bbe 	{ addi	a11, a11, 1; ae_roundsq32asym	aeq2, aeq3 }
    3b30:	626e04        	ae_sq32f.iu	aeq2, a14, 0
    3b33:	609e14        	ae_lq32f.iu	aeq2, a14, 4
    3b36:	c39b37        	bne	a11, a3, 3afd <fn_noise_cancellation+0x1b5>
    3b39:	1498           	l32i.n	a9, a4, 4
    3b3b:	81c8           	l32i.n	a12, a1, 32
    3b3d:	11c9           	s32i.n	a12, a1, 4
    3b3f:	31ef90        	srai	a14, a9, 31
    3b42:	31bfc0        	srai	a11, a12, 31
    3b45:	01b9           	s32i.n	a11, a1, 0
    3b47:	c0ac90        	sub	a10, a12, a9
    3b4a:	62dca0        	saltu	a13, a12, a10
    3b4d:	c0bbe0        	sub	a11, a11, a14
    3b50:	c0bbd0        	sub	a11, a11, a13
    3b53:	0229c7        	blt	a9, a12, 3b59 <fn_noise_cancellation+0x211>
    3b56:	005486        	j	3cac <fn_noise_cancellation+0x364>
    3b59:	fd38a5        	call8	ee4 <_saturate32>
    3b5c:	404800        	ssai	8
    3b5f:	01dac2        	addmi	a12, a10, 0x100
    3b62:	31bfa0        	srai	a11, a10, 31
    3b65:	80ccc2        	addi	a12, a12, -128
    3b68:	62aca0        	saltu	a10, a12, a10
    3b6b:	aaba           	add.n	a10, a10, a11
    3b6d:	14b8           	l32i.n	a11, a4, 4
    3b6f:	81aac0        	src	a10, a10, a12
    3b72:	31dfa0        	srai	a13, a10, 31
    3b75:	31cfb0        	srai	a12, a11, 31
    3b78:	ccda           	add.n	a12, a12, a13
    3b7a:	abaa           	add.n	a10, a11, a10
    3b7c:	62bab0        	saltu	a11, a10, a11
    3b7f:	bbca           	add.n	a11, a11, a12
    3b81:	fd3625        	call8	ee4 <_saturate32>

00003b84 <fn_noise_cancellation+0x23c>:
    3b84:	81d8           	l32i.n	a13, a1, 32
    3b86:	04b8           	l32i.n	a11, a4, 0
    3b88:	14a9           	s32i.n	a10, a4, 4
    3b8a:	3e2bd7        	blt	a11, a13, 3bcc <fn_noise_cancellation+0x284>
    3b8d:	11c8           	l32i.n	a12, a1, 4
    3b8f:	31dfb0        	srai	a13, a11, 31
    3b92:	c0acb0        	sub	a10, a12, a11
    3b95:	01b8           	l32i.n	a11, a1, 0
    3b97:	62cca0        	saltu	a12, a12, a10
    3b9a:	c0bbd0        	sub	a11, a11, a13
    3b9d:	c0bbc0        	sub	a11, a11, a12
    3ba0:	fd3425        	call8	ee4 <_saturate32>
    3ba3:	31bfa0        	srai	a11, a10, 31
    3ba6:	10cac2        	addi	a12, a10, 16
    3ba9:	404500        	ssai	5
    3bac:	62aca0        	saltu	a10, a12, a10
    3baf:	aaba           	add.n	a10, a10, a11
    3bb1:	04b8           	l32i.n	a11, a4, 0
    3bb3:	81aac0        	src	a10, a10, a12
    3bb6:	31dfa0        	srai	a13, a10, 31
    3bb9:	31cfb0        	srai	a12, a11, 31
    3bbc:	ccda           	add.n	a12, a12, a13
    3bbe:	abaa           	add.n	a10, a11, a10
    3bc0:	62bab0        	saltu	a11, a10, a11
    3bc3:	bbca           	add.n	a11, a11, a12
    3bc5:	fd31e5        	call8	ee4 <_saturate32>
    3bc8:	81a9           	s32i.n	a10, a1, 32
    3bca:	14a8           	l32i.n	a10, a4, 4

00003bcc <fn_noise_cancellation+0x284>:
    3bcc:	91e8           	l32i.n	a14, a1, 36
    3bce:	81f8           	l32i.n	a15, a1, 32
    3bd0:	04f9           	s32i.n	a15, a4, 0
    3bd2:	3e2ee2        	l32i	a14, a14, 248
    3bd5:	31dfa0        	srai	a13, a10, 31
    3bd8:	caea           	add.n	a12, a10, a14
    3bda:	62bca0        	saltu	a11, a12, a10
    3bdd:	31efe0        	srai	a14, a14, 31
    3be0:	0cad           	mov.n	a10, a12
    3be2:	ddea           	add.n	a13, a13, a14
    3be4:	bbda           	add.n	a11, a11, a13
    3be6:	fd2fe5        	call8	ee4 <_saturate32>
    3be9:	0488           	l32i.n	a8, a4, 0
    3beb:	9198           	l32i.n	a9, a1, 36
    3bed:	0a1084        	ae_zeroq56	aeq0
    3bf0:	728a80        	salt	a8, a10, a8
    3bf3:	7e5982        	s16i	a8, a9, 252
    3bf6:	05a856        	bnez	a8, 3c54 <fn_noise_cancellation+0x30c>
    3bf9:	78a0a2        	movi	a10, 120
    3bfc:	0fd492        	addmi	a9, a4, 0xf00
    3bff:	48c992        	addi	a9, a9, 72
    3c02:	fd046f890f 	{ ae_lp24x2f.iu	aep0, a9, 0; ae_movq56	aeq1, aeq0 }
    3c07:	04aa76        	loopgtz	a10, 3c0f <fn_noise_cancellation+0x2c7>
    3c0a:	e2006f891f 	{ ae_lp24x2f.iu	aep0, a9, 8; ae_mulaafp24s.hh.ll	aeq1, aep0, aep0 }

00003c0f <fn_noise_cancellation+0x2c7>:
    3c0f:	91b8           	l32i.n	a11, a1, 36
    3c11:	fe2c67fbbe 	{ l16si	a11, a11, 254; ae_roundsq32asym	aeq2, aeq1 }
    3c16:	36aa04        	ae_trunca32q48	a10, aeq2
    3c19:	11bb00        	slli	a11, a11, 16
    3c1c:	0b6a56        	bnez	a10, 3cd6 <fn_noise_cancellation+0x38e>
    3c1f:	090c           	movi.n	a9, 0
    3c21:	001986        	j	3c8b <fn_noise_cancellation+0x343>

00003c24 <fn_noise_cancellation+0x2dc>:
    3c24:	059d           	mov.n	a9, a5

00003c26 <fn_noise_cancellation+0x2de>:
    3c26:	5c9904        	ae_lp24x2f.iu	aep1, a9, 0
    3c29:	f03d           	nop.n
    3c2b:	f03d           	nop.n
    3c2d:	07ae76        	loopgtz	a14, 3c38 <fn_noise_cancellation+0x2f0>
    3c30:	e2206f8b1f 	{ ae_lp24x2f.iu	aep0, a11, 8; ae_mulaafp24s.hh.ll	aeq1, aep0, aep1 }
    3c35:	5c9914        	ae_lp24x2f.iu	aep1, a9, 8

00003c38 <fn_noise_cancellation+0x2f0>:
    3c38:	06d934        	ae_roundsq32asym	aeq3, aeq1
    3c3b:	03aad4        	ae_mulfq32sp16s.l	aeq3, aeq3, aep2
    3c3e:	04c552        	addi	a5, a5, 4
    3c41:	ff3c40477e 	{ addi	a7, a7, 4; ae_roundsq32asym	aeq3, aeq3 }
    3c46:	fbf6001cce 	{ addi	a12, a12, 1; ae_addq56	aeq3, aeq2, aeq3 }
    3c4b:	627d04        	ae_sq32f.iu	aeq3, a13, 0
    3c4e:	609d14        	ae_lq32f.iu	aeq2, a13, 4
    3c51:	429c37        	bne	a12, a3, 3c97 <fn_noise_cancellation+0x34f>

00003c54 <fn_noise_cancellation+0x30c>:
    3c54:	a198           	l32i.n	a9, a1, 40
    3c56:	efa0f2        	movi	a15, 239
    3c59:	05af76        	loopgtz	a15, 3c62 <fn_noise_cancellation+0x31a>
    3c5c:	601914        	ae_lq32f.iu	aeq0, a9, 4
    3c5f:	624214        	ae_sq32f.iu	aeq0, a2, 4

00003c62 <fn_noise_cancellation+0x31a>:
    3c62:	f01d           	retw.n

00003c64 <fn_noise_cancellation+0x31c>:
    3c64:	364a34        	ae_cvtq48a32s	aeq1, a10
    3c67:	36cb34        	ae_cvtq48a32s	aeq3, a11
    3c6a:	40ead0        	nsa	a13, a10
    3c6d:	8ddd           	ae_sext16	a13, a13
    3c6f:	fc24febd8f 	{ ae_slaasq56s	aeq2, aeq3, a13; nop }
    3c74:	ff80cf1dde 	{ addi	a13, a13, -15; ae_satq48s	aeq3, aeq2 }
    3c79:	fc24fe9d8f 	{ ae_slaasq56s	aeq2, aeq1, a13; nop }
    3c7e:	fd80ff39ef 	{ ae_trunca32q48	a9, aeq3; ae_satq48s	aeq1, aeq2 }
    3c83:	369c04        	ae_trunca32q48	a12, aeq1
    3c86:	d299c0        	quos	a9, a9, a12
    3c89:	a99d           	ae_clamps16	a9, a9

00003c8b <fn_noise_cancellation+0x343>:
    3c8b:	51a8           	l32i.n	a10, a1, 20
    3c8d:	302994        	ae_cvtp24a16x2.ll	aep2, a9, a9
    3c90:	0c0c           	movi.n	a12, 0
    3c92:	609604        	ae_lq32f.iu	aeq2, a6, 0
    3c95:	06dd           	mov.n	a13, a6

00003c97 <fn_noise_cancellation+0x34f>:
    3c97:	78a0e2        	movi	a14, 120
    3c9a:	0abd           	mov.n	a11, a10
    3c9c:	fd046f8b0f 	{ ae_lp24x2f.iu	aep0, a11, 0; ae_movq56	aeq1, aeq0 }
    3ca1:	026c07        	bbci	a12, 0, 3ca7 <fn_noise_cancellation+0x35f>
    3ca4:	ffdf06        	j	3c24 <fn_noise_cancellation+0x2dc>
    3ca7:	079d           	mov.n	a9, a7
    3ca9:	ffde46        	j	3c26 <fn_noise_cancellation+0x2de>

00003cac <fn_noise_cancellation+0x364>:
    3cac:	fd2365        	call8	ee4 <_saturate32>
    3caf:	31bfa0        	srai	a11, a10, 31
    3cb2:	ca8b           	addi.n	a12, a10, 8
    3cb4:	404400        	ssai	4
    3cb7:	62aca0        	saltu	a10, a12, a10
    3cba:	aaba           	add.n	a10, a10, a11
    3cbc:	14b8           	l32i.n	a11, a4, 4
    3cbe:	81aac0        	src	a10, a10, a12
    3cc1:	31dfa0        	srai	a13, a10, 31
    3cc4:	31cfb0        	srai	a12, a11, 31
    3cc7:	ccda           	add.n	a12, a12, a13
    3cc9:	abaa           	add.n	a10, a11, a10
    3ccb:	62bab0        	saltu	a11, a10, a11
    3cce:	bbca           	add.n	a11, a11, a12
    3cd0:	fd2125        	call8	ee4 <_saturate32>
    3cd3:	ffab46        	j	3b84 <fn_noise_cancellation+0x23c>

00003cd6 <fn_noise_cancellation+0x38e>:
    3cd6:	8a2ba7        	blt	a11, a10, 3c64 <fn_noise_cancellation+0x31c>
    3cd9:	f0e091        	l32r	a9, 5c (7fff <xtensa_fft8_32b+0x27>)
    3cdc:	ffeac6        	j	3c8b <fn_noise_cancellation+0x343>

00003cdf <fn_noise_cancellation+0x397>:
	...

00003ce0 <fn_gen_noise_fd_frame>:
    3ce0:	004136        	entry	a1, 32
    3ce3:	fcc442        	addi	a4, a4, -4
    3ce6:	e67c           	movi.n	a6, -2
    3ce8:	04d352        	addmi	a5, a3, 0x400
    3ceb:	554b           	addi.n	a5, a5, 4

00003ced <fn_gen_noise_fd_frame+0xd>:
    3ced:	03a8           	l32i.n	a10, a3, 0
    3cef:	f10981        	l32r	a8, 114 (d80 <fxsqrt_ie>)
    3cf2:	404100        	ssai	1
    3cf5:	31cfa0        	srai	a12, a10, 31
    3cf8:	ba1b           	addi.n	a11, a10, 1
    3cfa:	62aba0        	saltu	a10, a11, a10
    3cfd:	aaca           	add.n	a10, a10, a12
    3cff:	81aab0        	src	a10, a10, a11
    3d02:	0008e0        	callx8	a8
    3d05:	f116c1        	l32r	a12, 160 (bb75 <mel_tab26+0x285>)
    3d08:	42dd           	ae_l16ui.n	a13, a2, 0
    3d0a:	301aa4        	ae_cvtp24a16x2.ll	aep1, a10, a10
    3d0d:	c1ddc0        	mul16u	a13, a13, a12
    3d10:	302dd4        	ae_cvtp24a16x2.ll	aep2, a13, a13
    3d13:	002974        	ae_mulfs32p16s.ll	aeq1, aep2, aep1
    3d16:	62dd           	ae_s16i.n	a13, a2, 0
    3d18:	fc24fe960f 	{ ae_slaasq56s	aeq0, aeq1, a6; nop }
    3d1d:	06c934        	ae_roundsq32asym	aeq3, aeq0
    3d20:	627414        	ae_sq32f.iu	aeq3, a4, 4
    3d23:	42bd           	ae_l16ui.n	a11, a2, 0
    3d25:	c1bbc0        	mul16u	a11, a11, a12
    3d28:	300bb4        	ae_cvtp24a16x2.ll	aep0, a11, a11
    3d2b:	008174        	ae_mulfs32p16s.ll	aeq2, aep0, aep1
    3d2e:	62bd           	ae_s16i.n	a11, a2, 0
    3d30:	fc24fea64f 	{ ae_slaasq56s	aeq1, aeq2, a6; nop }
    3d35:	fc2c40433e 	{ addi	a3, a3, 4; ae_roundsq32asym	aeq0, aeq1 }
    3d3a:	624414        	ae_sq32f.iu	aeq0, a4, 4
    3d3d:	ac9357        	bne	a3, a5, 3ced <fn_gen_noise_fd_frame+0xd>
    3d40:	f01d           	retw.n

00003d42 <fn_gen_noise_fd_frame+0x62>:
	...

00003d44 <fn_get_airdump>:
    3d44:	004136        	entry	a1, 32
    3d47:	4bd242        	addmi	a4, a2, 0x4b00
    3d4a:	4ed282        	addmi	a8, a2, 0x4e00
    3d4d:	972892        	l32i	a9, a8, 0x25c
    3d50:	962882        	l32i	a8, a8, 0x258
    3d53:	025392        	s16i	a9, a3, 4
    3d56:	319090        	srai	a9, a9, 16
    3d59:	638d           	ae_s16i.n	a8, a3, 0
    3d5b:	035392        	s16i	a9, a3, 6
    3d5e:	318080        	srai	a8, a8, 16
    3d61:	738d           	ae_s16i.n	a8, a3, 2
    3d63:	699452        	l16si	a5, a4, 210
    3d66:	045352        	s16i	a5, a3, 8
    3d69:	689442        	l16si	a4, a4, 208
    3d6c:	055342        	s16i	a4, a3, 10
    3d6f:	f01d           	retw.n

00003d71 <fn_get_airdump+0x2d>:
    3d71:	000000                                        ...

00003d74 <fn_ini_inear_ast_nr>:
    3d74:	024136        	entry	a1, 0x120
    3d77:	02ad           	mov.n	a10, a2
    3d79:	f0d581        	l32r	a8, d0 (8820 <xt_memset>)
    3d7c:	0b0c           	movi.n	a11, 0
    3d7e:	f0f9c1        	l32r	a12, 164 (321c <fn_pitch_detection+0x144>)
    3d81:	0008e0        	callx8	a8
    3d84:	01ad           	mov.n	a10, a1
    3d86:	f0a981        	l32r	a8, 2c (8838 <xt_memcpy>)
    3d89:	03bd           	mov.n	a11, a3
    3d8b:	6c0c           	movi.n	a12, 6
    3d8d:	0008e0        	callx8	a8
    3d90:	a1cb           	addi.n	a10, a1, 12
    3d92:	f0a681        	l32r	a8, 2c (8838 <xt_memcpy>)
    3d95:	b3cb           	addi.n	a11, a3, 12
    3d97:	6c0c           	movi.n	a12, 6
    3d99:	0008e0        	callx8	a8
    3d9c:	18c1a2        	addi	a10, a1, 24
    3d9f:	6c0c           	movi.n	a12, 6
    3da1:	f0a281        	l32r	a8, 2c (8838 <xt_memcpy>)
    3da4:	01d3b2        	addmi	a11, a3, 0x100
    3da7:	10cbb2        	addi	a11, a11, 16
    3daa:	0008e0        	callx8	a8
    3dad:	24c1a2        	addi	a10, a1, 36
    3db0:	f09f81        	l32r	a8, 2c (8838 <xt_memcpy>)
    3db3:	58c3b2        	addi	a11, a3, 88
    3db6:	4c1c           	movi.n	a12, 20
    3db8:	0008e0        	callx8	a8
    3dbb:	4cc1a2        	addi	a10, a1, 76
    3dbe:	4c1c           	movi.n	a12, 20
    3dc0:	f09b81        	l32r	a8, 2c (8838 <xt_memcpy>)
    3dc3:	01d3b2        	addmi	a11, a3, 0x100
    3dc6:	80cbb2        	addi	a11, a11, -128
    3dc9:	0008e0        	callx8	a8
    3dcc:	74c1a2        	addi	a10, a1, 116
    3dcf:	cc0c           	movi.n	a12, 12
    3dd1:	f09681        	l32r	a8, 2c (8838 <xt_memcpy>)
    3dd4:	01d3b2        	addmi	a11, a3, 0x100
    3dd7:	a8cbb2        	addi	a11, a11, -88
    3dda:	0008e0        	callx8	a8
    3ddd:	cc0c           	movi.n	a12, 12
    3ddf:	01d3b2        	addmi	a11, a3, 0x100
    3de2:	7fc1a2        	addi	a10, a1, 127
    3de5:	f09181        	l32r	a8, 2c (8838 <xt_memcpy>)
    3de8:	aadb           	addi.n	a10, a10, 13
    3dea:	c0cbb2        	addi	a11, a11, -64
    3ded:	0008e0        	callx8	a8
    3df0:	18c3b2        	addi	a11, a3, 24
    3df3:	8c1c           	movi.n	a12, 24
    3df5:	f08d81        	l32r	a8, 2c (8838 <xt_memcpy>)
    3df8:	7fc1a2        	addi	a10, a1, 127
    3dfb:	25caa2        	addi	a10, a10, 37
    3dfe:	0008e0        	callx8	a8
    3e01:	ec0c           	movi.n	a12, 14
    3e03:	01d3b2        	addmi	a11, a3, 0x100
    3e06:	7fc1a2        	addi	a10, a1, 127
    3e09:	f08881        	l32r	a8, 2c (8838 <xt_memcpy>)
    3e0c:	55caa2        	addi	a10, a10, 85
    3e0f:	e8cbb2        	addi	a11, a11, -24
    3e12:	0008e0        	callx8	a8
    3e15:	6c0c           	movi.n	a12, 6
    3e17:	01d3b2        	addmi	a11, a3, 0x100
    3e1a:	7fc1a2        	addi	a10, a1, 127
    3e1d:	f08381        	l32r	a8, 2c (8838 <xt_memcpy>)
    3e20:	71caa2        	addi	a10, a10, 113
    3e23:	bb4b           	addi.n	a11, a11, 4
    3e25:	0008e0        	callx8	a8
    3e28:	48c3b2        	addi	a11, a3, 72
    3e2b:	7c0c           	movi.n	a12, 7
    3e2d:	04d2a2        	addmi	a10, a2, 0x400
    3e30:	63d272        	addmi	a7, a2, 0x6300
    3e33:	180c           	movi.n	a8, 1
    3e35:	9b5782        	s16i	a8, a7, 0x136
    3e38:	f07d81        	l32r	a8, 2c (8838 <xt_memcpy>)
    3e3b:	78caa2        	addi	a10, a10, 120
    3e3e:	34c772        	addi	a7, a7, 52
    3e41:	0008e0        	callx8	a8
    3e44:	8c0c           	movi.n	a12, 8
    3e46:	01d3b2        	addmi	a11, a3, 0x100
    3e49:	05d2a2        	addmi	a10, a2, 0x500
    3e4c:	f07881        	l32r	a8, 2c (8838 <xt_memcpy>)
    3e4f:	86caa2        	addi	a10, a10, -122
    3e52:	d8cbb2        	addi	a11, a11, -40
    3e55:	0008e0        	callx8	a8
    3e58:	f07581        	l32r	a8, 2c (8838 <xt_memcpy>)
    3e5b:	8e93a2        	l16si	a10, a3, 0x11c
    3e5e:	8f93b2        	l16si	a11, a3, 0x11e
    3e61:	04d292        	addmi	a9, a2, 0x400
    3e64:	9093c2        	l16si	a12, a3, 0x120
    3e67:	4c59c2        	s16i	a12, a9, 152
    3e6a:	4b59b2        	s16i	a11, a9, 150
    3e6d:	fea0c2        	movi	a12, 254
    3e70:	b56b           	addi.n	a11, a5, 6
    3e72:	5951a2        	s16i	a10, a1, 178
    3e75:	98c952        	addi	a5, a9, -104
    3e78:	02ad           	mov.n	a10, a2
    3e7a:	0008e0        	callx8	a8
    3e7d:	b46b           	addi.n	a11, a4, 6
    3e7f:	fea0c2        	movi	a12, 254
    3e82:	f06a81        	l32r	a8, 2c (8838 <xt_memcpy>)
    3e85:	02d2a2        	addmi	a10, a2, 0x200
    3e88:	fccaa2        	addi	a10, a10, -4
    3e8b:	0008e0        	callx8	a8
    3e8e:	b62b           	addi.n	a11, a6, 2
    3e90:	0c4c           	movi.n	a12, 64
    3e92:	f06681        	l32r	a8, 2c (8838 <xt_memcpy>)
    3e95:	04d2a2        	addmi	a10, a2, 0x400
    3e98:	f8caa2        	addi	a10, a10, -8
    3e9b:	0008e0        	callx8	a8
    3e9e:	f0b231        	l32r	a3, 168 (9298 <_DYNAMIC+0x9d0>)
    3ea1:	64d282        	addmi	a8, a2, 0x6400
    3ea4:	64a092        	movi	a9, 100
    3ea7:	05d2a2        	addmi	a10, a2, 0x500
    3eaa:	a8caa2        	addi	a10, a10, -88
    3ead:	7e5792        	s16i	a9, a7, 252
    3eb0:	38c882        	addi	a8, a8, 56
    3eb3:	323a           	add.n	a3, a2, a3
    3eb5:	416582        	s32i	a8, a5, 0x104
    3eb8:	f0ad81        	l32r	a8, 16c (1928 <fn_ini_analysis_frame>)
    3ebb:	426532        	s32i	a3, a5, 0x108
    3ebe:	03bd           	mov.n	a11, a3
    3ec0:	0008e0        	callx8	a8
    3ec3:	03bd           	mov.n	a11, a3
    3ec5:	f0a981        	l32r	a8, 16c (1928 <fn_ini_analysis_frame>)
    3ec8:	0cd2a2        	addmi	a10, a2, 0xc00
    3ecb:	38caa2        	addi	a10, a10, 56
    3ece:	0008e0        	callx8	a8
    3ed1:	03bd           	mov.n	a11, a3
    3ed3:	f0a681        	l32r	a8, 16c (1928 <fn_ini_analysis_frame>)
    3ed6:	14d2a2        	addmi	a10, a2, 0x1400
    3ed9:	c8caa2        	addi	a10, a10, -56
    3edc:	0008e0        	callx8	a8
    3edf:	03bd           	mov.n	a11, a3
    3ee1:	f0a381        	l32r	a8, 170 (1d6c <fn_ini_syn_frame>)
    3ee4:	1bd2a2        	addmi	a10, a2, 0x1b00
    3ee7:	58caa2        	addi	a10, a10, 88
    3eea:	0008e0        	callx8	a8
    3eed:	03bd           	mov.n	a11, a3
    3eef:	f0a081        	l32r	a8, 170 (1d6c <fn_ini_syn_frame>)
    3ef2:	1fd2a2        	addmi	a10, a2, 0x1f00
    3ef5:	28caa2        	addi	a10, a10, 40
    3ef8:	0008e0        	callx8	a8
    3efb:	03cd           	mov.n	a12, a3
    3efd:	7fc1b2        	addi	a11, a1, 127
    3f00:	4cd2a2        	addmi	a10, a2, 0x4c00
    3f03:	f09c81        	l32r	a8, 174 (2674 <fn_ini_win_detection>)
    3f06:	a0caa2        	addi	a10, a10, -96
    3f09:	25cbb2        	addi	a11, a11, 37
    3f0c:	0008e0        	callx8	a8
    3f0f:	03cd           	mov.n	a12, a3
    3f11:	7fc1b2        	addi	a11, a1, 127
    3f14:	50d2a2        	addmi	a10, a2, 0x5000
    3f17:	f09881        	l32r	a8, 178 (30b8 <fn_ini_pitch_detection>)
    3f1a:	68caa2        	addi	a10, a10, 104
    3f1d:	55cbb2        	addi	a11, a11, 85
    3f20:	0008e0        	callx8	a8
    3f23:	7fc1b2        	addi	a11, a1, 127
    3f26:	51d2a2        	addmi	a10, a2, 0x5100
    3f29:	f09481        	l32r	a8, 17c (33a4 <fn_ini_mic_chk_status>)
    3f2c:	8ccaa2        	addi	a10, a10, -116
    3f2f:	71cbb2        	addi	a11, a11, 113
    3f32:	0008e0        	callx8	a8
    3f35:	01bd           	mov.n	a11, a1
    3f37:	03cd           	mov.n	a12, a3
    3f39:	f09181        	l32r	a8, 180 (1f5c <fn_ini_calc_sup_gain>)
    3f3c:	23d2a2        	addmi	a10, a2, 0x2300
    3f3f:	f8caa2        	addi	a10, a10, -8
    3f42:	0008e0        	callx8	a8
    3f45:	b1cb           	addi.n	a11, a1, 12
    3f47:	03cd           	mov.n	a12, a3
    3f49:	f08d81        	l32r	a8, 180 (1f5c <fn_ini_calc_sup_gain>)
    3f4c:	27d2a2        	addmi	a10, a2, 0x2700
    3f4f:	aacb           	addi.n	a10, a10, 12
    3f51:	0008e0        	callx8	a8
    3f54:	03cd           	mov.n	a12, a3
    3f56:	18c1b2        	addi	a11, a1, 24
    3f59:	f08981        	l32r	a8, 180 (1f5c <fn_ini_calc_sup_gain>)
    3f5c:	2bd2a2        	addmi	a10, a2, 0x2b00
    3f5f:	20caa2        	addi	a10, a10, 32
    3f62:	0008e0        	callx8	a8
    3f65:	4cc1b2        	addi	a11, a1, 76
    3f68:	f08781        	l32r	a8, 184 (142c <fn_ini_st_noise_est>)
    3f6b:	36d2a2        	addmi	a10, a2, 0x3600
    3f6e:	f0caa2        	addi	a10, a10, -16
    3f71:	0008e0        	callx8	a8
    3f74:	24c1b2        	addi	a11, a1, 36
    3f77:	f08381        	l32r	a8, 184 (142c <fn_ini_st_noise_est>)
    3f7a:	2fd2a2        	addmi	a10, a2, 0x2f00
    3f7d:	34caa2        	addi	a10, a10, 52
    3f80:	0008e0        	callx8	a8
    3f83:	24c1b2        	addi	a11, a1, 36
    3f86:	f07f81        	l32r	a8, 184 (142c <fn_ini_st_noise_est>)
    3f89:	3dd2a2        	addmi	a10, a2, 0x3d00
    3f8c:	accaa2        	addi	a10, a10, -84
    3f8f:	0008e0        	callx8	a8
    3f92:	7fc1b2        	addi	a11, a1, 127
    3f95:	48d2a2        	addmi	a10, a2, 0x4800
    3f98:	f07c81        	l32r	a8, 188 (1348 <fn_ini_fb_noise_est>)
    3f9b:	84caa2        	addi	a10, a10, -124
    3f9e:	bbdb           	addi.n	a11, a11, 13
    3fa0:	0008e0        	callx8	a8
    3fa3:	74c1b2        	addi	a11, a1, 116
    3fa6:	f07881        	l32r	a8, 188 (1348 <fn_ini_fb_noise_est>)
    3fa9:	43d2a2        	addmi	a10, a2, 0x4300
    3fac:	68caa2        	addi	a10, a10, 104
    3faf:	0008e0        	callx8	a8
    3fb2:	f07681        	l32r	a8, 18c (35c0 <fn_ini_over_subtract>)
    3fb5:	51d2a2        	addmi	a10, a2, 0x5100
    3fb8:	a0caa2        	addi	a10, a10, -96
    3fbb:	0008e0        	callx8	a8
    3fbe:	8095d2        	l16si	a13, a5, 0x100
    3fc1:	f073b1        	l32r	a11, 190 (13333333 <_end+0x13324b93>)
    3fc4:	48a1c2        	movi	a12, 0x148
    3fc7:	f07381        	l32r	a8, 194 (38c4 <fn_ini_noise_cancellation>)
    3fca:	51d2a2        	addmi	a10, a2, 0x5100
    3fcd:	18caa2        	addi	a10, a10, 24
    3fd0:	0008e0        	callx8	a8
    3fd3:	f01d           	retw.n

00003fd5 <fn_ini_inear_ast_nr+0x261>:
    3fd5:	000000                                        ...

00003fd8 <inear_ast_nr_proc>:
    3fd8:	020136        	entry	a1, 0x100
    3fdb:	116162        	s32i	a6, a1, 68
    3fde:	146172        	s32i	a7, a1, 80
    3fe1:	186142        	s32i	a4, a1, 96
    3fe4:	05d2a2        	addmi	a10, a2, 0x500
    3fe7:	176132        	s32i	a3, a1, 92
    3fea:	126152        	s32i	a5, a1, 72
    3fed:	03d232        	addmi	a3, a2, 0x300
    3ff0:	c193d2        	l16si	a13, a3, 0x182
    3ff3:	672352        	l32i	a5, a3, 0x19c
    3ff6:	a8caa2        	addi	a10, a10, -88
    3ff9:	04d0d0        	extui	a13, a13, 0, 1
    3ffc:	1cd5f2        	addmi	a15, a5, 0x1c00
    3fff:	24d5c2        	addmi	a12, a5, 0x2400
    4002:	20d5e2        	addmi	a14, a5, 0x2000
    4005:	28d5b2        	addmi	a11, a5, 0x2800
    4008:	14d582        	addmi	a8, a5, 0x1400
    400b:	18d542        	addmi	a4, a5, 0x1800
    400e:	10d572        	addmi	a7, a5, 0x1000
    4011:	08d562        	addmi	a6, a5, 0x800
    4014:	10c662        	addi	a6, a6, 16
    4017:	20c772        	addi	a7, a7, 32
    401a:	30c442        	addi	a4, a4, 48
    401d:	28c882        	addi	a8, a8, 40
    4020:	50cbb2        	addi	a11, a11, 80
    4023:	40cee2        	addi	a14, a14, 64
    4026:	48ccc2        	addi	a12, a12, 72
    4029:	38cff2        	addi	a15, a15, 56
    402c:	1361f2        	s32i	a15, a1, 76
    402f:	1061c2        	s32i	a12, a1, 64
    4032:	f1e9           	s32i.n	a14, a1, 60
    4034:	61b9           	s32i.n	a11, a1, 24
    4036:	1a6182        	s32i	a8, a1, 104
    4039:	1721b2        	l32i	a11, a1, 92
    403c:	f05881        	l32r	a8, 19c (1940 <fn_analysis_frame>)
    403f:	f056e1        	l32r	a14, 198 (800 <TX_ECNR_PARA_init+0x248>)
    4042:	05cd           	mov.n	a12, a5
    4044:	0008e0        	callx8	a8
    4047:	0cd2a2        	addmi	a10, a2, 0xc00
    404a:	c19392        	l16si	a9, a3, 0x182
    404d:	38caa2        	addi	a10, a10, 56
    4050:	1f61a2        	s32i	a10, a1, 124
    4053:	6369c7        	bbci	a9, 12, 40ba <inear_ast_nr_proc+0xe2>
    4056:	1721b2        	l32i	a11, a1, 92
    4059:	1821c2        	l32i	a12, a1, 96
    405c:	1a21d2        	l32i	a13, a1, 104
    405f:	6198           	l32i.n	a9, a1, 24
    4061:	51d2a2        	addmi	a10, a2, 0x5100
    4064:	f04f81        	l32r	a8, 1a0 (3948 <fn_noise_cancellation>)
    4067:	18caa2        	addi	a10, a10, 24
    406a:	196192        	s32i	a9, a1, 100
    406d:	0008e0        	callx8	a8
    4070:	1f21f2        	l32i	a15, a1, 124
    4073:	c693e2        	l16si	a14, a3, 0x18c
    4076:	c193a2        	l16si	a10, a3, 0x182
    4079:	14d2b2        	addmi	a11, a2, 0x1400
    407c:	c8cbb2        	addi	a11, a11, -56
    407f:	b1b9           	s32i.n	a11, a1, 44
    4081:	04d0a0        	extui	a13, a10, 0, 1
    4084:	02ea37        	bbsi	a10, 3, 408a <inear_ast_nr_proc+0xb2>
    4087:	02efc6        	j	4c4a <inear_ast_nr_proc+0xc72>
    408a:	0fad           	mov.n	a10, a15
    408c:	1821b2        	l32i	a11, a1, 96
    408f:	61c8           	l32i.n	a12, a1, 24
    4091:	f04281        	l32r	a8, 19c (1940 <fn_analysis_frame>)
    4094:	60e0e0        	neg	a14, a14
    4097:	8eed           	ae_sext16	a14, a14
    4099:	0008e0        	callx8	a8
    409c:	b1a8           	l32i.n	a10, a1, 44
    409e:	1a21b2        	l32i	a11, a1, 104
    40a1:	06cd           	mov.n	a12, a6
    40a3:	c193d2        	l16si	a13, a3, 0x182
    40a6:	c693e2        	l16si	a14, a3, 0x18c
    40a9:	f03e81        	l32r	a8, 1a4 (1a70 <fn_analysis_frame_32>)
    40ac:	04d0d0        	extui	a13, a13, 0, 1
    40af:	60e0e0        	neg	a14, a14
    40b2:	8eed           	ae_sext16	a14, a14
    40b4:	0008e0        	callx8	a8
    40b7:	000a46        	j	40e4 <inear_ast_nr_proc+0x10c>

000040ba <inear_ast_nr_proc+0xe2>:
    40ba:	196162        	s32i	a6, a1, 100
    40bd:	c693e2        	l16si	a14, a3, 0x18c
    40c0:	04d090        	extui	a13, a9, 0, 1
    40c3:	126937        	bbci	a9, 3, 40d9 <inear_ast_nr_proc+0x101>
    40c6:	1821b2        	l32i	a11, a1, 96
    40c9:	06cd           	mov.n	a12, a6
    40cb:	f03481        	l32r	a8, 19c (1940 <fn_analysis_frame>)
    40ce:	60e0e0        	neg	a14, a14
    40d1:	8eed           	ae_sext16	a14, a14
    40d3:	0008e0        	callx8	a8
    40d6:	000286        	j	40e4 <inear_ast_nr_proc+0x10c>

000040d9 <inear_ast_nr_proc+0x101>:
    40d9:	f03081        	l32r	a8, 19c (1940 <fn_analysis_frame>)
    40dc:	1821b2        	l32i	a11, a1, 96
    40df:	06cd           	mov.n	a12, a6
    40e1:	0008e0        	callx8	a8

000040e4 <inear_ast_nr_proc+0x10c>:
    40e4:	05ad           	mov.n	a10, a5
    40e6:	07bd           	mov.n	a11, a7
    40e8:	f00f81        	l32r	a8, 124 (2af0 <fn_calc_pow>)
    40eb:	0c0c           	movi.n	a12, 0
    40ed:	01a1d2        	movi	a13, 0x101
    40f0:	0008e0        	callx8	a8
    40f3:	06ad           	mov.n	a10, a6
    40f5:	04bd           	mov.n	a11, a4
    40f7:	f00b81        	l32r	a8, 124 (2af0 <fn_calc_pow>)
    40fa:	0c0c           	movi.n	a12, 0
    40fc:	01a1d2        	movi	a13, 0x101
    40ff:	0008e0        	callx8	a8
    4102:	04bd           	mov.n	a11, a4
    4104:	1021c2        	l32i	a12, a1, 64
    4107:	f02881        	l32r	a8, 1a8 (1494 <fn_st_noise_est>)
    410a:	36d2a2        	addmi	a10, a2, 0x3600
    410d:	f0caa2        	addi	a10, a10, -16
    4110:	0008e0        	callx8	a8
    4113:	07bd           	mov.n	a11, a7
    4115:	f1c8           	l32i.n	a12, a1, 60
    4117:	f02481        	l32r	a8, 1a8 (1494 <fn_st_noise_est>)
    411a:	2fd2a2        	addmi	a10, a2, 0x2f00
    411d:	34caa2        	addi	a10, a10, 52
    4120:	0008e0        	callx8	a8
    4123:	c19392        	l16si	a9, a3, 0x182
    4126:	63d2b2        	addmi	a11, a2, 0x6300
    4129:	64d2f2        	addmi	a15, a2, 0x6400
    412c:	4cd2a2        	addmi	a10, a2, 0x4c00
    412f:	a0caa2        	addi	a10, a10, -96
    4132:	32cff2        	addi	a15, a15, 50
    4135:	34cbc2        	addi	a12, a11, 52
    4138:	1c61c2        	s32i	a12, a1, 112
    413b:	02e9a7        	bbsi	a9, 10, 4141 <inear_ast_nr_proc+0x169>
    413e:	02bbc6        	j	4c31 <inear_ast_nr_proc+0xc59>
    4141:	989bc2        	l16si	a12, a11, 0x130
    4144:	c593d2        	l16si	a13, a3, 0x18a
    4147:	cc1b           	addi.n	a12, a12, 1
    4149:	8ccd           	ae_sext16	a12, a12
    414b:	985bc2        	s16i	a12, a11, 0x130
    414e:	162cd7        	blt	a12, a13, 4168 <inear_ast_nr_proc+0x190>
    4151:	1921c2        	l32i	a12, a1, 100
    4154:	05bd           	mov.n	a11, a5
    4156:	04dd           	mov.n	a13, a4
    4158:	10c1e2        	addi	a14, a1, 16
    415b:	f01481        	l32r	a8, 1ac (26ac <fn_win_detection>)
    415e:	190c           	movi.n	a9, 1
    4160:	0199           	s32i.n	a9, a1, 0
    4162:	0008e0        	callx8	a8
    4165:	0004c6        	j	417c <inear_ast_nr_proc+0x1a4>

00004168 <inear_ast_nr_proc+0x190>:
    4168:	1921c2        	l32i	a12, a1, 100
    416b:	05bd           	mov.n	a11, a5
    416d:	04dd           	mov.n	a13, a4
    416f:	10c1e2        	addi	a14, a1, 16
    4172:	f00e81        	l32r	a8, 1ac (26ac <fn_win_detection>)
    4175:	090c           	movi.n	a9, 0
    4177:	0199           	s32i.n	a9, a1, 0
    4179:	0008e0        	callx8	a8

0000417c <inear_ast_nr_proc+0x1a4>:
    417c:	1c21b2        	l32i	a11, a1, 112
    417f:	7e9bb2        	l16si	a11, a11, 252
    4182:	64a0a2        	movi	a10, 100
    4185:	05aab7        	bge	a10, a11, 418e <inear_ast_nr_proc+0x1b6>

00004188 <inear_ast_nr_proc+0x1b0>:
    4188:	1c21c2        	l32i	a12, a1, 112
    418b:	7e5ca2        	s16i	a10, a12, 252

0000418e <inear_ast_nr_proc+0x1b6>:
    418e:	c29382        	l16si	a8, a3, 0x184
    4191:	3cd2f2        	addmi	a15, a2, 0x3c00
    4194:	549ff2        	l16si	a15, a15, 168
    4197:	0891d2        	l16si	a13, a1, 16
    419a:	090c           	movi.n	a9, 0
    419c:	72ff80        	salt	a15, a15, a8
    419f:	93d9f0        	movnez	a13, a9, a15
    41a2:	0851d2        	s16i	a13, a1, 16
    41a5:	c193e2        	l16si	a14, a3, 0x182
    41a8:	1b6e97        	bbci	a14, 9, 41c7 <inear_ast_nr_proc+0x1ef>
    41ab:	8091e2        	l16si	a14, a1, 0x100
    41ae:	07bd           	mov.n	a11, a7
    41b0:	04cd           	mov.n	a12, a4
    41b2:	efff81        	l32r	a8, 1b0 (33cc <fn_mic_chk_status>)
    41b5:	51d2a2        	addmi	a10, a2, 0x5100
    41b8:	8ccaa2        	addi	a10, a10, -116
    41bb:	0008e0        	callx8	a8
    41be:	1c21f2        	l32i	a15, a1, 112
    41c1:	805fa2        	s16i	a10, a15, 0x100
    41c4:	0001c6        	j	41cf <inear_ast_nr_proc+0x1f7>

000041c7 <inear_ast_nr_proc+0x1ef>:
    41c7:	1c2182        	l32i	a8, a1, 112
    41ca:	0a0c           	movi.n	a10, 0
    41cc:	805892        	s16i	a9, a8, 0x100

000041cf <inear_ast_nr_proc+0x1f7>:
    41cf:	2e0c           	movi.n	a14, 2
    41d1:	e149           	s32i.n	a4, a1, 56
    41d3:	eff8f1        	l32r	a15, 1b4 (50a0 <SBAEC_INIT+0x1e4>)
    41d6:	089192        	l16si	a9, a1, 16
    41d9:	04c1a0        	extui	a12, a10, 1, 1
    41dc:	1b0c           	movi.n	a11, 1
    41de:	939bc0        	movnez	a9, a11, a12
    41e1:	085192        	s16i	a9, a1, 16
    41e4:	0a6a07        	bbci	a10, 0, 41f2 <inear_ast_nr_proc+0x21a>
    41e7:	1c21a2        	l32i	a10, a1, 112
    41ea:	e149           	s32i.n	a4, a1, 56
    41ec:	7f5ae2        	s16i	a14, a10, 254
    41ef:	809aa2        	l16si	a10, a10, 0x100

000041f2 <inear_ast_nr_proc+0x21a>:
    41f2:	eff1e1        	l32r	a14, 1b8 (5068 <SBAEC_INIT+0x1ac>)
    41f5:	00a142        	movi	a4, 0x100
    41f8:	0eea27        	bbsi	a10, 2, 420a <inear_ast_nr_proc+0x232>
    41fb:	0481a0        	extui	a8, a10, 1, 1
    41fe:	5f3816        	beqz	a8, 47f5 <inear_ast_nr_proc+0x81d>
    4201:	1c2192        	l32i	a9, a1, 112
    4204:	7f9992        	l16si	a9, a9, 254
    4207:	5ea956        	bnez	a9, 47f5 <inear_ast_nr_proc+0x81d>

0000420a <inear_ast_nr_proc+0x232>:
    420a:	c19392        	l16si	a9, a3, 0x182
    420d:	6148           	l32i.n	a4, a1, 24
    420f:	196967        	bbci	a9, 6, 422c <inear_ast_nr_proc+0x254>
    4212:	a2ea           	add.n	a10, a2, a14
    4214:	07bd           	mov.n	a11, a7
    4216:	efe981        	l32r	a8, 1bc (30d8 <fn_pitch_detection>)
    4219:	04d4c2        	addmi	a12, a4, 0x400
    421c:	cc8b           	addi.n	a12, a12, 8
    421e:	0008e0        	callx8	a8
    4221:	0aed           	mov.n	a14, a10
    4223:	efe4f1        	l32r	a15, 1b4 (50a0 <SBAEC_INIT+0x1e4>)
    4226:	c19392        	l16si	a9, a3, 0x182
    4229:	000046        	j	422e <inear_ast_nr_proc+0x256>

0000422c <inear_ast_nr_proc+0x254>:
    422c:	0e0c           	movi.n	a14, 0

0000422e <inear_ast_nr_proc+0x256>:
    422e:	71e9           	s32i.n	a14, a1, 28
    4230:	1069a7        	bbci	a9, 10, 4244 <inear_ast_nr_proc+0x26c>
    4233:	a2fa           	add.n	a10, a2, a15
    4235:	1721b2        	l32i	a11, a1, 92
    4238:	07cd           	mov.n	a12, a7
    423a:	efe181        	l32r	a8, 1c0 (35d4 <fn_over_subtract>)
    423d:	f1d8           	l32i.n	a13, a1, 60
    423f:	0e0c           	movi.n	a14, 0
    4241:	0008e0        	callx8	a8

00004244 <inear_ast_nr_proc+0x26c>:
    4244:	07bd           	mov.n	a11, a7
    4246:	f1c8           	l32i.n	a12, a1, 60
    4248:	04dd           	mov.n	a13, a4
    424a:	efde81        	l32r	a8, 1c4 (204c <fn_calc_sup_gain>)
    424d:	23d2a2        	addmi	a10, a2, 0x2300
    4250:	f8caa2        	addi	a10, a10, -8
    4253:	0008e0        	callx8	a8
    4256:	8291b2        	l16si	a11, a1, 0x104
    4259:	1661b2        	s32i	a11, a1, 88

0000425c <inear_ast_nr_proc+0x284>:
    425c:	0891c2        	l16si	a12, a1, 16
    425f:	01a1a2        	movi	a10, 0x101
    4262:	2f1c66        	bnei	a12, 1, 4295 <inear_ast_nr_proc+0x2bd>
    4265:	71d8           	l32i.n	a13, a1, 28
    4267:	adac           	beqz.n	a13, 4295 <inear_ast_nr_proc+0x2bd>
    4269:	c193e2        	l16si	a14, a3, 0x182
    426c:	256e67        	bbci	a14, 6, 4295 <inear_ast_nr_proc+0x2bd>
    426f:	01a1f2        	movi	a15, 0x101
    4272:	04d492        	addmi	a9, a4, 0x400
    4275:	04ed           	mov.n	a14, a4
    4277:	409e04        	ae_lp16f.iu	aep1, a14, 0
    427a:	408944        	ae_lp16f.iu	aep0, a9, 8
    427d:	14af76        	loopgtz	a15, 4295 <inear_ast_nr_proc+0x2bd>
    4280:	019074        	ae_mulfp24s.ll	aeq2, aep1, aep0
    4283:	3660d4        	ae_sllisq56s	aeq1, aeq2, 3
    4286:	060944        	ae_satq48s	aeq0, aeq1
    4289:	1b8e04        	ae_roundsp16q48sym	aep0, aeq0
    428c:	428e04        	ae_sp16f.l.iu	aep0, a14, 0
    428f:	409e14        	ae_lp16f.iu	aep1, a14, 2
    4292:	408914        	ae_lp16f.iu	aep0, a9, 2
    4295:	20e440        	or	a14, a4, a4
    4298:	209550        	or	a9, a5, a5
    429b:	5c9904        	ae_lp24x2f.iu	aep1, a9, 0
    429e:	408e04        	ae_lp16f.iu	aep0, a14, 0
    42a1:	17aa76        	loopgtz	a10, 42bc <inear_ast_nr_proc+0x2e4>
    42a4:	011074        	ae_mulfp24s.ll	aeq0, aep1, aep0
    42a7:	019854        	ae_mulfp24s.hl	aeq3, aep1, aep0
    42aa:	1b8d24        	ae_roundsp24q48asym	aep2, aeq0
    42ad:	1bbd14        	ae_roundsp24q48asym	aep1, aeq3
    42b0:	1a9a94        	ae_selp24.hh	aep1, aep1, aep2
    42b3:	5e9904        	ae_sp24x2f.iu	aep1, a9, 0
    42b6:	5c9914        	ae_lp24x2f.iu	aep1, a9, 8
    42b9:	408e14        	ae_lp16f.iu	aep0, a14, 2

000042bc <inear_ast_nr_proc+0x2e4>:
    42bc:	c193b2        	l16si	a11, a3, 0x182
    42bf:	5a6bb7        	bbci	a11, 11, 431d <inear_ast_nr_proc+0x345>
    42c2:	05ad           	mov.n	a10, a5
    42c4:	07bd           	mov.n	a11, a7
    42c6:	ef9781        	l32r	a8, 124 (2af0 <fn_calc_pow>)
    42c9:	0c0c           	movi.n	a12, 0
    42cb:	01a1d2        	movi	a13, 0x101
    42ce:	0008e0        	callx8	a8
    42d1:	07bd           	mov.n	a11, a7
    42d3:	1a21c2        	l32i	a12, a1, 104
    42d6:	efb481        	l32r	a8, 1a8 (1494 <fn_st_noise_est>)
    42d9:	3dd2a2        	addmi	a10, a2, 0x3d00
    42dc:	accaa2        	addi	a10, a10, -84
    42df:	0008e0        	callx8	a8
    42e2:	1a21c2        	l32i	a12, a1, 104
    42e5:	07bd           	mov.n	a11, a7
    42e7:	04dd           	mov.n	a13, a4
    42e9:	efb681        	l32r	a8, 1c4 (204c <fn_calc_sup_gain>)
    42ec:	2bd2a2        	addmi	a10, a2, 0x2b00
    42ef:	20caa2        	addi	a10, a10, 32
    42f2:	0008e0        	callx8	a8
    42f5:	01a1a2        	movi	a10, 0x101
    42f8:	049d           	mov.n	a9, a4
    42fa:	05ed           	mov.n	a14, a5
    42fc:	5c9e04        	ae_lp24x2f.iu	aep1, a14, 0
    42ff:	408904        	ae_lp16f.iu	aep0, a9, 0
    4302:	17aa76        	loopgtz	a10, 431d <inear_ast_nr_proc+0x345>
    4305:	019074        	ae_mulfp24s.ll	aeq2, aep1, aep0
    4308:	011854        	ae_mulfp24s.hl	aeq1, aep1, aep0
    430b:	1bad44        	ae_roundsp24q48asym	aep4, aeq2
    430e:	1b9d34        	ae_roundsp24q48asym	aep3, aeq1
    4311:	1abcb4        	ae_selp24.hh	aep3, aep3, aep4
    4314:	5ebe04        	ae_sp24x2f.iu	aep3, a14, 0
    4317:	5c9e14        	ae_lp24x2f.iu	aep1, a14, 8
    431a:	408914        	ae_lp16f.iu	aep0, a9, 2

0000431d <inear_ast_nr_proc+0x345>:
    431d:	1c21b2        	l32i	a11, a1, 112
    4320:	7f9bb2        	l16si	a11, a11, 254
    4323:	13db16        	beqz	a11, 4464 <inear_ast_nr_proc+0x48c>
    4326:	c193c2        	l16si	a12, a3, 0x182
    4329:	04c8c0        	extui	a12, a12, 8, 1
    432c:	0fdc16        	beqz	a12, 442d <inear_ast_nr_proc+0x455>
    432f:	1c0c           	movi.n	a12, 1
    4331:	efa581        	l32r	a8, 1c8 (fa4 <mel_filter16>)
    4334:	04d4b2        	addmi	a11, a4, 0x400
    4337:	02d4a2        	addmi	a10, a4, 0x200
    433a:	aa4b           	addi.n	a10, a10, 4
    433c:	bb8b           	addi.n	a11, a11, 8
    433e:	81b9           	s32i.n	a11, a1, 32
    4340:	1561a2        	s32i	a10, a1, 84
    4343:	0008e0        	callx8	a8
    4346:	81a8           	l32i.n	a10, a1, 32
    4348:	ef6181        	l32r	a8, cc (ffc <inv_mel_filter>)
    434b:	1521b2        	l32i	a11, a1, 84
    434e:	01a0c2        	movi	a12, 1
    4351:	0008e0        	callx8	a8
    4354:	10c6e2        	addi	a14, a6, 16
    4357:	fea0b2        	movi	a11, 254
    435a:	0e21a2        	l32i	a10, a1, 56
    435d:	02d492        	addmi	a9, a4, 0x200
    4360:	408954        	ae_lp16f.iu	aep0, a9, 10
    4363:	18caa2        	addi	a10, a10, 24
    4366:	5c9a04        	ae_lp24x2f.iu	aep1, a10, 0
    4369:	17ab76        	loopgtz	a11, 4384 <inear_ast_nr_proc+0x3ac>
    436c:	011074        	ae_mulfp24s.ll	aeq0, aep1, aep0
    436f:	019854        	ae_mulfp24s.hl	aeq3, aep1, aep0
    4372:	1b8d64        	ae_roundsp24q48asym	aep6, aeq0
    4375:	1bbd54        	ae_roundsp24q48asym	aep5, aeq3
    4378:	1aded4        	ae_selp24.hh	aep5, aep5, aep6
    437b:	5ede14        	ae_sp24x2f.iu	aep5, a14, 8
    437e:	5c9a14        	ae_lp24x2f.iu	aep1, a10, 8
    4381:	408914        	ae_lp16f.iu	aep0, a9, 2

00004384 <inear_ast_nr_proc+0x3ac>:
    4384:	1621b2        	l32i	a11, a1, 88
    4387:	bb0b           	addi.n	a11, a11, -1
    4389:	0a0b56        	bnez	a11, 442d <inear_ast_nr_proc+0x455>
    438c:	1421c2        	l32i	a12, a1, 80
    438f:	028ca6        	blti	a12, 8, 4395 <inear_ast_nr_proc+0x3bd>
    4392:	0025c6        	j	442d <inear_ast_nr_proc+0x455>
    4395:	7d3c           	movi.n	a13, 55
    4397:	069d           	mov.n	a9, a6
    4399:	4221e2        	l32i	a14, a1, 0x108
    439c:	1b61e2        	s32i	a14, a1, 108
    439f:	5c8904        	ae_lp24x2f.iu	aep0, a9, 0
    43a2:	401e44        	ae_lp16f.i	aep1, a14, 8
    43a5:	14ad76        	loopgtz	a13, 43bd <inear_ast_nr_proc+0x3e5>
    43a8:	018174        	ae_mulfp24s.ll	aeq2, aep0, aep1
    43ab:	010954        	ae_mulfp24s.hl	aeq1, aep0, aep1
    43ae:	1bad04        	ae_roundsp24q48asym	aep0, aeq2
    43b1:	1b9d74        	ae_roundsp24q48asym	aep7, aeq1
    43b4:	1af8f4        	ae_selp24.hh	aep7, aep7, aep0
    43b7:	5ef904        	ae_sp24x2f.iu	aep7, a9, 0
    43ba:	5c8914        	ae_lp24x2f.iu	aep0, a9, 8
    43bd:	1b2182        	l32i	a8, a1, 108
    43c0:	df1c           	movi.n	a15, 29
    43c2:	401854        	ae_lp16f.i	aep1, a8, 10
    43c5:	14af76        	loopgtz	a15, 43dd <inear_ast_nr_proc+0x405>
    43c8:	010174        	ae_mulfp24s.ll	aeq0, aep0, aep1
    43cb:	018954        	ae_mulfp24s.hl	aeq3, aep0, aep1
    43ce:	1b8d34        	ae_roundsp24q48asym	aep3, aeq0
    43d1:	1bbd24        	ae_roundsp24q48asym	aep2, aeq3
    43d4:	1aaba4        	ae_selp24.hh	aep2, aep2, aep3
    43d7:	5ea904        	ae_sp24x2f.iu	aep2, a9, 0
    43da:	5c8914        	ae_lp24x2f.iu	aep0, a9, 8
    43dd:	80a0a2        	movi	a10, 128
    43e0:	1b21b2        	l32i	a11, a1, 108
    43e3:	069d           	mov.n	a9, a6
    43e5:	5c8904        	ae_lp24x2f.iu	aep0, a9, 0
    43e8:	401b64        	ae_lp16f.i	aep1, a11, 12
    43eb:	f03d           	nop.n
    43ed:	14aa76        	loopgtz	a10, 4405 <inear_ast_nr_proc+0x42d>
    43f0:	018174        	ae_mulfp24s.ll	aeq2, aep0, aep1
    43f3:	010954        	ae_mulfp24s.hl	aeq1, aep0, aep1
    43f6:	1bad54        	ae_roundsp24q48asym	aep5, aeq2
    43f9:	1b9d44        	ae_roundsp24q48asym	aep4, aeq1
    43fc:	1acdc4        	ae_selp24.hh	aep4, aep4, aep5
    43ff:	5ec904        	ae_sp24x2f.iu	aep4, a9, 0
    4402:	5c8914        	ae_lp24x2f.iu	aep0, a9, 8
    4405:	01a1c2        	movi	a12, 0x101
    4408:	1b21d2        	l32i	a13, a1, 108
    440b:	069d           	mov.n	a9, a6
    440d:	5c8904        	ae_lp24x2f.iu	aep0, a9, 0
    4410:	401d74        	ae_lp16f.i	aep1, a13, 14
    4413:	f03d           	nop.n
    4415:	14ac76        	loopgtz	a12, 442d <inear_ast_nr_proc+0x455>
    4418:	010174        	ae_mulfp24s.ll	aeq0, aep0, aep1
    441b:	018954        	ae_mulfp24s.hl	aeq3, aep0, aep1
    441e:	1b8d74        	ae_roundsp24q48asym	aep7, aeq0
    4421:	1bbd64        	ae_roundsp24q48asym	aep6, aeq3
    4424:	1aefe4        	ae_selp24.hh	aep6, aep6, aep7
    4427:	5ee904        	ae_sp24x2f.iu	aep6, a9, 0
    442a:	5c8914        	ae_lp24x2f.iu	aep0, a9, 8
    442d:	fea0e2        	movi	a14, 254
    4430:	02d2a2        	addmi	a10, a2, 0x200
    4433:	18c692        	addi	a9, a6, 24
    4436:	5c9904        	ae_lp24x2f.iu	aep1, a9, 0
    4439:	408ae4        	ae_lp16f.iu	aep0, a10, -4
    443c:	f03d           	nop.n
    443e:	22ae76        	loopgtz	a14, 4464 <inear_ast_nr_proc+0x48c>
    4441:	019054        	ae_mulfp24s.hl	aeq2, aep1, aep0
    4444:	011874        	ae_mulfp24s.ll	aeq1, aep1, aep0
    4447:	3620d4        	ae_sllisq56s	aeq0, aeq2, 3

0000444a <inear_ast_nr_proc+0x472>:
    444a:	fd00fad0ff 	{ ae_sllisq56s	aeq3, aeq1, 3; ae_satq48s	aeq1, aeq0 }
    444f:	068b44        	ae_satq48s	aeq2, aeq3
    4452:	1bad14        	ae_roundsp24q48asym	aep1, aeq2
    4455:	1b9d04        	ae_roundsp24q48asym	aep0, aeq1
    4458:	1a8984        	ae_selp24.hh	aep0, aep0, aep1
    445b:	5e8904        	ae_sp24x2f.iu	aep0, a9, 0
    445e:	5c9914        	ae_lp24x2f.iu	aep1, a9, 8
    4461:	408a14        	ae_lp16f.iu	aep0, a10, 2

00004464 <inear_ast_nr_proc+0x48c>:
    4464:	1621f2        	l32i	a15, a1, 88
    4467:	ef59a1        	l32r	a10, 1cc (6436 <aec_post_prcs+0x56>)
    446a:	ff0b           	addi.n	a15, a15, -1
    446c:	188f56        	bnez	a15, 45f8 <inear_ast_nr_proc+0x620>
    446f:	142182        	l32i	a8, a1, 80
    4472:	0288a6        	blti	a8, 8, 4478 <inear_ast_nr_proc+0x4a0>
    4475:	005fc6        	j	45f8 <inear_ast_nr_proc+0x620>
    4478:	1c2192        	l32i	a9, a1, 112
    447b:	422142        	l32i	a4, a1, 0x108
    447e:	7f9992        	l16si	a9, a9, 254
    4481:	64d2a2        	addmi	a10, a2, 0x6400
    4484:	36caa2        	addi	a10, a10, 54
    4487:	fec992        	addi	a9, a9, -2
    448a:	5f2956        	bnez	a9, 4a80 <inear_ast_nr_proc+0xaa8>
    448d:	ef5081        	l32r	a8, 1d0 (3ce0 <fn_gen_noise_fd_frame>)
    4490:	1021b2        	l32i	a11, a1, 64
    4493:	07cd           	mov.n	a12, a7
    4495:	0008e0        	callx8	a8
    4498:	26d2a2        	addmi	a10, a2, 0x2600
    449b:	ca93b2        	l16si	a11, a3, 0x194
    449e:	899aa2        	l16si	a10, a10, 0x112
    44a1:	d1aab0        	mul16s	a10, a10, a11
    44a4:	eef5b1        	l32r	a11, 78 (8000 <xtensa_fft8_32b+0x28>)
    44a7:	90aab0        	addx2	a10, a10, a11
    44aa:	31a0a0        	srai	a10, a10, 16
    44ad:	11aae0        	slli	a10, a10, 2
    44b0:	fca165        	call8	ec8 <_saturate16>
    44b3:	51a9           	s32i.n	a10, a1, 20
    44b5:	0494b2        	l16si	a11, a4, 8
    44b8:	eee9a1        	l32r	a10, 5c (7fff <xtensa_fft8_32b+0x27>)
    44bb:	c0aab0        	sub	a10, a10, a11
    44be:	fca0a5        	call8	ec8 <_saturate16>
    44c1:	7c3c           	movi.n	a12, 55
    44c3:	eeed81        	l32r	a8, 78 (8000 <xtensa_fft8_32b+0x28>)
    44c6:	06ed           	mov.n	a14, a6
    44c8:	07fd           	mov.n	a15, a7
    44ca:	51d8           	l32i.n	a13, a1, 20
    44cc:	0c61d2        	s32i	a13, a1, 48
    44cf:	5c9f04        	ae_lp24x2f.iu	aep1, a15, 0
    44d2:	d1dad0        	mul16s	a13, a10, a13
    44d5:	5c8e04        	ae_lp24x2f.iu	aep0, a14, 0
    44d8:	90dd80        	addx2	a13, a13, a8
    44db:	31d0d0        	srai	a13, a13, 16
    44de:	303dd4        	ae_cvtp24a16x2.ll	aep3, a13, a13
    44e1:	1aac76        	loopgtz	a12, 44ff <inear_ast_nr_proc+0x527>
    44e4:	011374        	ae_mulfp24s.ll	aeq0, aep1, aep3
    44e7:	019b54        	ae_mulfp24s.hl	aeq3, aep1, aep3
    44ea:	1b8d54        	ae_roundsp24q48asym	aep5, aeq0
    44ed:	1bbd44        	ae_roundsp24q48asym	aep4, aeq3
    44f0:	1acdc4        	ae_selp24.hh	aep4, aep4, aep5
    44f3:	078424        	ae_addsp24s	aep2, aep0, aep4
    44f6:	5eae04        	ae_sp24x2f.iu	aep2, a14, 0
    44f9:	5c9f14        	ae_lp24x2f.iu	aep1, a15, 8
    44fc:	5c8e14        	ae_lp24x2f.iu	aep0, a14, 8

000044ff <inear_ast_nr_proc+0x527>:
    44ff:	2261e2        	s32i	a14, a1, 136
    4502:	2361f2        	s32i	a15, a1, 140
    4505:	0594b2        	l16si	a11, a4, 10
    4508:	eed5a1        	l32r	a10, 5c (7fff <xtensa_fft8_32b+0x27>)
    450b:	78c182        	addi	a8, a1, 120
    450e:	561844        	ae_sp24x2s.i	aep1, a8, 32
    4511:	560854        	ae_sp24x2s.i	aep0, a8, 40
    4514:	c0aab0        	sub	a10, a10, a11
    4517:	fc9b25        	call8	ec8 <_saturate16>
    451a:	232192        	l32i	a9, a1, 140
    451d:	2221e2        	l32i	a14, a1, 136
    4520:	c1d8           	l32i.n	a13, a1, 48
    4522:	78c1f2        	addi	a15, a1, 120
    4525:	540f54        	ae_lp24x2.i	aep0, a15, 40
    4528:	541f44        	ae_lp24x2.i	aep1, a15, 32
    452b:	eed3f1        	l32r	a15, 78 (8000 <xtensa_fft8_32b+0x28>)
    452e:	d1dad0        	mul16s	a13, a10, a13
    4531:	1da0c2        	movi	a12, 29
    4534:	90ddf0        	addx2	a13, a13, a15
    4537:	31d0d0        	srai	a13, a13, 16
    453a:	303dd4        	ae_cvtp24a16x2.ll	aep3, a13, a13
    453d:	1aac76        	loopgtz	a12, 455b <inear_ast_nr_proc+0x583>
    4540:	019374        	ae_mulfp24s.ll	aeq2, aep1, aep3
    4543:	011b54        	ae_mulfp24s.hl	aeq1, aep1, aep3
    4546:	1bad14        	ae_roundsp24q48asym	aep1, aeq2
    4549:	1b9d74        	ae_roundsp24q48asym	aep7, aeq1
    454c:	1af9f4        	ae_selp24.hh	aep7, aep7, aep1
    454f:	078764        	ae_addsp24s	aep6, aep0, aep7
    4552:	5eee04        	ae_sp24x2f.iu	aep6, a14, 0
    4555:	5c9914        	ae_lp24x2f.iu	aep1, a9, 8
    4558:	5c8e14        	ae_lp24x2f.iu	aep0, a14, 8
    455b:	0694b2        	l16si	a11, a4, 12
    455e:	eebfa1        	l32r	a10, 5c (7fff <xtensa_fft8_32b+0x27>)
    4561:	c0aab0        	sub	a10, a10, a11
    4564:	fc9625        	call8	ec8 <_saturate16>
    4567:	80a0c2        	movi	a12, 128
    456a:	eec3f1        	l32r	a15, 78 (8000 <xtensa_fft8_32b+0x28>)
    456d:	f8c6e2        	addi	a14, a6, -8
    4570:	c1d8           	l32i.n	a13, a1, 48
    4572:	079d           	mov.n	a9, a7
    4574:	5c9904        	ae_lp24x2f.iu	aep1, a9, 0
    4577:	d1dad0        	mul16s	a13, a10, a13
    457a:	20aee0        	or	a10, a14, a14
    457d:	5c8a04        	ae_lp24x2f.iu	aep0, a10, 0
    4580:	90ddf0        	addx2	a13, a13, a15
    4583:	31d0d0        	srai	a13, a13, 16
    4586:	303dd4        	ae_cvtp24a16x2.ll	aep3, a13, a13
    4589:	1aac76        	loopgtz	a12, 45a7 <inear_ast_nr_proc+0x5cf>
    458c:	011374        	ae_mulfp24s.ll	aeq0, aep1, aep3
    458f:	019b54        	ae_mulfp24s.hl	aeq3, aep1, aep3
    4592:	1b8d54        	ae_roundsp24q48asym	aep5, aeq0
    4595:	1bbd44        	ae_roundsp24q48asym	aep4, aeq3
    4598:	1acdc4        	ae_selp24.hh	aep4, aep4, aep5
    459b:	078424        	ae_addsp24s	aep2, aep0, aep4
    459e:	5eaa04        	ae_sp24x2f.iu	aep2, a10, 0
    45a1:	5c9914        	ae_lp24x2f.iu	aep1, a9, 8
    45a4:	5c8a14        	ae_lp24x2f.iu	aep0, a10, 8
    45a7:	0794b2        	l16si	a11, a4, 14
    45aa:	eeaca1        	l32r	a10, 5c (7fff <xtensa_fft8_32b+0x27>)
    45ad:	2161e2        	s32i	a14, a1, 132
    45b0:	c0aab0        	sub	a10, a10, a11
    45b3:	fc9165        	call8	ec8 <_saturate16>
    45b6:	01a1c2        	movi	a12, 0x101
    45b9:	eeaff1        	l32r	a15, 78 (8000 <xtensa_fft8_32b+0x28>)
    45bc:	2121e2        	l32i	a14, a1, 132
    45bf:	c1d8           	l32i.n	a13, a1, 48
    45c1:	079d           	mov.n	a9, a7
    45c3:	5c9904        	ae_lp24x2f.iu	aep1, a9, 0
    45c6:	d1dad0        	mul16s	a13, a10, a13
    45c9:	5c8e04        	ae_lp24x2f.iu	aep0, a14, 0
    45cc:	90ddf0        	addx2	a13, a13, a15
    45cf:	31d0d0        	srai	a13, a13, 16
    45d2:	303dd4        	ae_cvtp24a16x2.ll	aep3, a13, a13
    45d5:	1aac76        	loopgtz	a12, 45f3 <inear_ast_nr_proc+0x61b>
    45d8:	019374        	ae_mulfp24s.ll	aeq2, aep1, aep3
    45db:	011b54        	ae_mulfp24s.hl	aeq1, aep1, aep3
    45de:	1bad14        	ae_roundsp24q48asym	aep1, aeq2
    45e1:	1b9d74        	ae_roundsp24q48asym	aep7, aeq1
    45e4:	1af9f4        	ae_selp24.hh	aep7, aep7, aep1
    45e7:	078764        	ae_addsp24s	aep6, aep0, aep7
    45ea:	5eee04        	ae_sp24x2f.iu	aep6, a14, 0
    45ed:	5c9914        	ae_lp24x2f.iu	aep1, a9, 8
    45f0:	5c8e14        	ae_lp24x2f.iu	aep0, a14, 8
    45f3:	9159           	s32i.n	a5, a1, 36
    45f5:	000346        	j	4606 <inear_ast_nr_proc+0x62e>

000045f8 <inear_ast_nr_proc+0x620>:
    45f8:	a2aa           	add.n	a10, a2, a10
    45fa:	eef581        	l32r	a8, 1d0 (3ce0 <fn_gen_noise_fd_frame>)
    45fd:	f1b8           	l32i.n	a11, a1, 60
    45ff:	07cd           	mov.n	a12, a7
    4601:	0008e0        	callx8	a8
    4604:	9159           	s32i.n	a5, a1, 36

00004606 <inear_ast_nr_proc+0x62e>:
    4606:	ee9541        	l32r	a4, 5c (7fff <xtensa_fft8_32b+0x27>)
    4609:	0a0c           	movi.n	a10, 0
    460b:	06fd           	mov.n	a15, a6
    460d:	9158           	l32i.n	a5, a1, 36
    460f:	1c2192        	l32i	a9, a1, 112
    4612:	3b0c           	movi.n	a11, 3
    4614:	05dd           	mov.n	a13, a5
    4616:	7f9992        	l16si	a9, a9, 254
    4619:	18c5e2        	addi	a14, a5, 24
    461c:	2061e2        	s32i	a14, a1, 128
    461f:	c90b           	addi.n	a12, a9, -1
    4621:	0bab76        	loopgtz	a11, 4630 <inear_ast_nr_proc+0x658>
    4624:	0da9           	s32i.n	a10, a13, 0
    4626:	1da9           	s32i.n	a10, a13, 4
    4628:	0fa9           	s32i.n	a10, a15, 0
    462a:	1fa9           	s32i.n	a10, a15, 4
    462c:	dd8b           	addi.n	a13, a13, 8
    462e:	ff8b           	addi.n	a15, a15, 8

00004630 <inear_ast_nr_proc+0x658>:
    4630:	11fc56        	bnez	a12, 4753 <inear_ast_nr_proc+0x77b>
    4633:	c793a2        	l16si	a10, a3, 0x18e
    4636:	c0a4a0        	sub	a10, a4, a10
    4639:	fc88e5        	call8	ec8 <_saturate16>
    463c:	305aa4        	ae_cvtp24a16x2.ll	aep5, a10, a10
    463f:	0b4c           	movi.n	a11, 64
    4641:	05cd           	mov.n	a12, a5
    4643:	06ed           	mov.n	a14, a6
    4645:	c793d2        	l16si	a13, a3, 0x18e
    4648:	bf93f2        	l16si	a15, a3, 0x17e
    464b:	301ff4        	ae_cvtp24a16x2.ll	aep1, a15, a15
    464e:	302dd4        	ae_cvtp24a16x2.ll	aep2, a13, a13
    4651:	5cce04        	ae_lp24x2f.iu	aep4, a14, 0
    4654:	5c8c04        	ae_lp24x2f.iu	aep0, a12, 0
    4657:	1e61c2        	s32i	a12, a1, 120
    465a:	2eab76        	loopgtz	a11, 468c <inear_ast_nr_proc+0x6b4>
    465d:	01c174        	ae_mulfp24s.ll	aeq2, aep4, aep1
    4660:	014944        	ae_mulfp24s.hh	aeq1, aep4, aep1
    4663:	1bad64        	ae_roundsp24q48asym	aep6, aeq2
    4666:	1b9d74        	ae_roundsp24q48asym	aep7, aeq1
    4669:	01fa44        	ae_mulfp24s.hh	aeq3, aep7, aep2
    466c:	016274        	ae_mulfp24s.ll	aeq0, aep6, aep2
    466f:	010534        	ae_mulafp24s.ll	aeq0, aep0, aep5
    4672:	018d04        	ae_mulafp24s.hh	aeq3, aep0, aep5
    4675:	fa67b1e18e 	{ l32i	a8, a1, 120; ae_roundsp24q48asym	aep4, aeq0 }
    467a:	1bbd34        	ae_roundsp24q48asym	aep3, aeq3
    467d:	1abcb4        	ae_selp24.hh	aep3, aep3, aep4
    4680:	5eb804        	ae_sp24x2f.iu	aep3, a8, 0
    4683:	5cce14        	ae_lp24x2f.iu	aep4, a14, 8
    4686:	5c8814        	ae_lp24x2f.iu	aep0, a8, 8
    4689:	1e6182        	s32i	a8, a1, 120
    468c:	1e2162        	l32i	a6, a1, 120
    468f:	1d61e2        	s32i	a14, a1, 116
    4692:	c893a2        	l16si	a10, a3, 0x190
    4695:	78c1c2        	addi	a12, a1, 120
    4698:	561c34        	ae_sp24x2s.i	aep1, a12, 24
    469b:	564c64        	ae_sp24x2s.i	aep4, a12, 48
    469e:	560c74        	ae_sp24x2s.i	aep0, a12, 56
    46a1:	c0a4a0        	sub	a10, a4, a10
    46a4:	fc8225        	call8	ec8 <_saturate16>
    46a7:	1d21e2        	l32i	a14, a1, 116
    46aa:	305aa4        	ae_cvtp24a16x2.ll	aep5, a10, a10
    46ad:	0b4c           	movi.n	a11, 64
    46af:	c893c2        	l16si	a12, a3, 0x190
    46b2:	78c1f2        	addi	a15, a1, 120
    46b5:	540f74        	ae_lp24x2.i	aep0, a15, 56
    46b8:	541f64        	ae_lp24x2.i	aep1, a15, 48
    46bb:	543f34        	ae_lp24x2.i	aep3, a15, 24
    46be:	302cc4        	ae_cvtp24a16x2.ll	aep2, a12, a12
    46c1:	2eab76        	loopgtz	a11, 46f3 <inear_ast_nr_proc+0x71b>
    46c4:	019374        	ae_mulfp24s.ll	aeq2, aep1, aep3
    46c7:	011b44        	ae_mulfp24s.hh	aeq1, aep1, aep3
    46ca:	1bad44        	ae_roundsp24q48asym	aep4, aeq2
    46cd:	1b9d64        	ae_roundsp24q48asym	aep6, aeq1
    46d0:	01ea44        	ae_mulfp24s.hh	aeq3, aep6, aep2
    46d3:	014274        	ae_mulfp24s.ll	aeq0, aep4, aep2
    46d6:	010534        	ae_mulafp24s.ll	aeq0, aep0, aep5
    46d9:	018d04        	ae_mulafp24s.hh	aeq3, aep0, aep5
    46dc:	1b8d14        	ae_roundsp24q48asym	aep1, aeq0
    46df:	1bbd04        	ae_roundsp24q48asym	aep0, aeq3
    46e2:	dc2107818e 	{ addi	a8, a1, 120; ae_selp24.hh	aep0, aep0, aep1 }
    46e7:	5e8604        	ae_sp24x2f.iu	aep0, a6, 0
    46ea:	5c8614        	ae_lp24x2f.iu	aep0, a6, 8
    46ed:	5c9e14        	ae_lp24x2f.iu	aep1, a14, 8
    46f0:	561864        	ae_sp24x2s.i	aep1, a8, 48
    46f3:	1d61e2        	s32i	a14, a1, 116
    46f6:	c993a2        	l16si	a10, a3, 0x192
    46f9:	78c192        	addi	a9, a1, 120
    46fc:	560974        	ae_sp24x2s.i	aep0, a9, 56
    46ff:	c0a4a0        	sub	a10, a4, a10
    4702:	fc7c65        	call8	ec8 <_saturate16>
    4705:	1d2192        	l32i	a9, a1, 116
    4708:	305aa4        	ae_cvtp24a16x2.ll	aep5, a10, a10
    470b:	81a0b2        	movi	a11, 129
    470e:	c993c2        	l16si	a12, a3, 0x192
    4711:	78c1f2        	addi	a15, a1, 120
    4714:	540f74        	ae_lp24x2.i	aep0, a15, 56
    4717:	541f64        	ae_lp24x2.i	aep1, a15, 48
    471a:	543f34        	ae_lp24x2.i	aep3, a15, 24
    471d:	302cc4        	ae_cvtp24a16x2.ll	aep2, a12, a12
    4720:	29ab76        	loopgtz	a11, 474d <inear_ast_nr_proc+0x775>
    4723:	019374        	ae_mulfp24s.ll	aeq2, aep1, aep3
    4726:	011b44        	ae_mulfp24s.hh	aeq1, aep1, aep3
    4729:	1bad14        	ae_roundsp24q48asym	aep1, aeq2
    472c:	1b9d44        	ae_roundsp24q48asym	aep4, aeq1
    472f:	01ca44        	ae_mulfp24s.hh	aeq3, aep4, aep2
    4732:	011274        	ae_mulfp24s.ll	aeq0, aep1, aep2
    4735:	010534        	ae_mulafp24s.ll	aeq0, aep0, aep5
    4738:	018d04        	ae_mulafp24s.hh	aeq3, aep0, aep5
    473b:	1b8d04        	ae_roundsp24q48asym	aep0, aeq0
    473e:	1bbd74        	ae_roundsp24q48asym	aep7, aeq3
    4741:	1af8f4        	ae_selp24.hh	aep7, aep7, aep0
    4744:	5ef604        	ae_sp24x2f.iu	aep7, a6, 0
    4747:	5c9914        	ae_lp24x2f.iu	aep1, a9, 8
    474a:	5c8614        	ae_lp24x2f.iu	aep0, a6, 8
    474d:	2021e2        	l32i	a14, a1, 128
    4750:	000c06        	j	4784 <inear_ast_nr_proc+0x7ac>

00004753 <inear_ast_nr_proc+0x77b>:
    4753:	2d2966        	bnei	a9, 2, 4784 <inear_ast_nr_proc+0x7ac>
    4756:	01a182        	movi	a8, 0x101
    4759:	06ad           	mov.n	a10, a6
    475b:	c09392        	l16si	a9, a3, 0x180
    475e:	302994        	ae_cvtp24a16x2.ll	aep2, a9, a9
    4761:	5c8a04        	ae_lp24x2f.iu	aep0, a10, 0
    4764:	059d           	mov.n	a9, a5
    4766:	5cd904        	ae_lp24x2f.iu	aep5, a9, 0
    4769:	17a876        	loopgtz	a8, 4784 <inear_ast_nr_proc+0x7ac>
    476c:	010274        	ae_mulfp24s.ll	aeq0, aep0, aep2
    476f:	018a44        	ae_mulfp24s.hh	aeq3, aep0, aep2
    4772:	1b8d04        	ae_roundsp24q48asym	aep0, aeq0
    4775:	1bbd74        	ae_roundsp24q48asym	aep7, aeq3
    4778:	1af8f4        	ae_selp24.hh	aep7, aep7, aep0
    477b:	5ef904        	ae_sp24x2f.iu	aep7, a9, 0
    477e:	5c8a14        	ae_lp24x2f.iu	aep0, a10, 8
    4781:	5ce914        	ae_lp24x2f.iu	aep6, a9, 8
    4784:	5c9e04        	ae_lp24x2f.iu	aep1, a14, 0
    4787:	fea0a2        	movi	a10, 254
    478a:	029d           	mov.n	a9, a2
    478c:	408904        	ae_lp16f.iu	aep0, a9, 0
    478f:	22aa76        	loopgtz	a10, 47b5 <inear_ast_nr_proc+0x7dd>
    4792:	019054        	ae_mulfp24s.hl	aeq2, aep1, aep0
    4795:	011874        	ae_mulfp24s.ll	aeq1, aep1, aep0
    4798:	3620d4        	ae_sllisq56s	aeq0, aeq2, 3
    479b:	fd00fad0ff 	{ ae_sllisq56s	aeq3, aeq1, 3; ae_satq48s	aeq1, aeq0 }
    47a0:	068b44        	ae_satq48s	aeq2, aeq3
    47a3:	1bad24        	ae_roundsp24q48asym	aep2, aeq2
    47a6:	1b9d14        	ae_roundsp24q48asym	aep1, aeq1
    47a9:	1a9a94        	ae_selp24.hh	aep1, aep1, aep2
    47ac:	5e9e04        	ae_sp24x2f.iu	aep1, a14, 0
    47af:	5c9e14        	ae_lp24x2f.iu	aep1, a14, 8
    47b2:	408914        	ae_lp16f.iu	aep0, a9, 2

000047b5 <inear_ast_nr_proc+0x7dd>:
    47b5:	05bd           	mov.n	a11, a5
    47b7:	ee8781        	l32r	a8, 1d4 (1d84 <fn_syn_frame>)
    47ba:	f148           	l32i.n	a4, a1, 60
    47bc:	c193d2        	l16si	a13, a3, 0x182
    47bf:	1bd2a2        	addmi	a10, a2, 0x1b00
    47c2:	58caa2        	addi	a10, a10, 88
    47c5:	04d0d0        	extui	a13, a13, 0, 1
    47c8:	04cd           	mov.n	a12, a4
    47ca:	0008e0        	callx8	a8
    47cd:	07bd           	mov.n	a11, a7
    47cf:	112162        	l32i	a6, a1, 68
    47d2:	ee8081        	l32r	a8, 1d4 (1d84 <fn_syn_frame>)
    47d5:	102152        	l32i	a5, a1, 64
    47d8:	c193d2        	l16si	a13, a3, 0x182
    47db:	1fd2a2        	addmi	a10, a2, 0x1f00
    47de:	28caa2        	addi	a10, a10, 40
    47e1:	04d0d0        	extui	a13, a13, 0, 1
    47e4:	05cd           	mov.n	a12, a5
    47e6:	0008e0        	callx8	a8
    47e9:	1221e2        	l32i	a14, a1, 72
    47ec:	089122        	l16si	a2, a1, 16
    47ef:	0e49           	s32i.n	a4, a14, 0
    47f1:	0659           	s32i.n	a5, a6, 0
    47f3:	f01d           	retw.n

000047f5 <inear_ast_nr_proc+0x81d>:
    47f5:	e1b8           	l32i.n	a11, a1, 56
    47f7:	0891c2        	l16si	a12, a1, 16
    47fa:	1321d2        	l32i	a13, a1, 76
    47fd:	ee7681        	l32r	a8, 1d8 (1378 <fn_fb_noise_est>)
    4800:	48d2a2        	addmi	a10, a2, 0x4800
    4803:	84caa2        	addi	a10, a10, -124
    4806:	0008e0        	callx8	a8
    4809:	07bd           	mov.n	a11, a7
    480b:	0891c2        	l16si	a12, a1, 16
    480e:	1a21d2        	l32i	a13, a1, 104
    4811:	ee7181        	l32r	a8, 1d8 (1378 <fn_fb_noise_est>)
    4814:	43d2a2        	addmi	a10, a2, 0x4300
    4817:	68caa2        	addi	a10, a10, 104
    481a:	0008e0        	callx8	a8
    481d:	1021a2        	l32i	a10, a1, 64
    4820:	1321f2        	l32i	a15, a1, 76
    4823:	f1e8           	l32i.n	a14, a1, 60
    4825:	1a2192        	l32i	a9, a1, 104
    4828:	01a1b2        	movi	a11, 0x101
    482b:	1dab76        	loopgtz	a11, 484c <inear_ast_nr_proc+0x874>
    482e:	0fb8           	l32i.n	a11, a15, 0
    4830:	0a88           	l32i.n	a8, a10, 0
    4832:	5388b0        	max	a8, a8, a11
    4835:	538840        	max	a8, a8, a4
    4838:	09ef84        	ae_s32ip	a8, a15, 4
    483b:	09d8           	l32i.n	a13, a9, 0
    483d:	0ec8           	l32i.n	a12, a14, 0
    483f:	aa4b           	addi.n	a10, a10, 4
    4841:	ee4b           	addi.n	a14, a14, 4
    4843:	53ccd0        	max	a12, a12, a13
    4846:	53cc40        	max	a12, a12, a4
    4849:	09e9c4        	ae_s32ip	a12, a9, 4

0000484c <inear_ast_nr_proc+0x874>:
    484c:	c19392        	l16si	a9, a3, 0x182
    484f:	1969a7        	bbci	a9, 10, 486c <inear_ast_nr_proc+0x894>
    4852:	1721b2        	l32i	a11, a1, 92
    4855:	07cd           	mov.n	a12, a7
    4857:	1a21d2        	l32i	a13, a1, 104
    485a:	cb93e2        	l16si	a14, a3, 0x196
    485d:	ee5881        	l32r	a8, 1c0 (35d4 <fn_over_subtract>)
    4860:	51d2a2        	addmi	a10, a2, 0x5100
    4863:	a0caa2        	addi	a10, a10, -96
    4866:	0008e0        	callx8	a8
    4869:	c19392        	l16si	a9, a3, 0x182

0000486c <inear_ast_nr_proc+0x894>:
    486c:	6148           	l32i.n	a4, a1, 24
    486e:	1d6967        	bbci	a9, 6, 488f <inear_ast_nr_proc+0x8b7>
    4871:	0891b2        	l16si	a11, a1, 16
    4874:	171b66        	bnei	a11, 1, 488f <inear_ast_nr_proc+0x8b7>
    4877:	e1b8           	l32i.n	a11, a1, 56
    4879:	04d4c2        	addmi	a12, a4, 0x400
    487c:	50d2a2        	addmi	a10, a2, 0x5000
    487f:	ee4f81        	l32r	a8, 1bc (30d8 <fn_pitch_detection>)
    4882:	68caa2        	addi	a10, a10, 104
    4885:	cc8b           	addi.n	a12, a12, 8
    4887:	0008e0        	callx8	a8
    488a:	71a9           	s32i.n	a10, a1, 28
    488c:	0000c6        	j	4893 <inear_ast_nr_proc+0x8bb>

0000488f <inear_ast_nr_proc+0x8b7>:
    488f:	0b0c           	movi.n	a11, 0
    4891:	71b9           	s32i.n	a11, a1, 28

00004893 <inear_ast_nr_proc+0x8bb>:
    4893:	1321c2        	l32i	a12, a1, 76
    4896:	e1b8           	l32i.n	a11, a1, 56
    4898:	ee4b81        	l32r	a8, 1c4 (204c <fn_calc_sup_gain>)
    489b:	02d4d2        	addmi	a13, a4, 0x200
    489e:	27d2a2        	addmi	a10, a2, 0x2700
    48a1:	aacb           	addi.n	a10, a10, 12
    48a3:	dd4b           	addi.n	a13, a13, 4
    48a5:	1561d2        	s32i	a13, a1, 84
    48a8:	0008e0        	callx8	a8
    48ab:	0891e2        	l16si	a14, a1, 16
    48ae:	301e66        	bnei	a14, 1, 48e2 <inear_ast_nr_proc+0x90a>
    48b1:	71f8           	l32i.n	a15, a1, 28
    48b3:	bfac           	beqz.n	a15, 48e2 <inear_ast_nr_proc+0x90a>
    48b5:	c19382        	l16si	a8, a3, 0x182
    48b8:	266867        	bbci	a8, 6, 48e2 <inear_ast_nr_proc+0x90a>
    48bb:	01a1a2        	movi	a10, 0x101
    48be:	1521e2        	l32i	a14, a1, 84
    48c1:	04d492        	addmi	a9, a4, 0x400
    48c4:	408944        	ae_lp16f.iu	aep0, a9, 8
    48c7:	409e04        	ae_lp16f.iu	aep1, a14, 0
    48ca:	14aa76        	loopgtz	a10, 48e2 <inear_ast_nr_proc+0x90a>
    48cd:	011874        	ae_mulfp24s.ll	aeq1, aep1, aep0
    48d0:	3610d4        	ae_sllisq56s	aeq0, aeq1, 3
    48d3:	06c844        	ae_satq48s	aeq3, aeq0
    48d6:	1bbe34        	ae_roundsp16q48sym	aep3, aeq3
    48d9:	42be04        	ae_sp16f.l.iu	aep3, a14, 0
    48dc:	409e14        	ae_lp16f.iu	aep1, a14, 2
    48df:	408914        	ae_lp16f.iu	aep0, a9, 2
    48e2:	e1a8           	l32i.n	a10, a1, 56
    48e4:	edd281        	l32r	a8, 2c (8838 <xt_memcpy>)
    48e7:	06bd           	mov.n	a11, a6
    48e9:	04a4c2        	movi	a12, 0x404
    48ec:	0008e0        	callx8	a8
    48ef:	01a1a2        	movi	a10, 0x101
    48f2:	152192        	l32i	a9, a1, 84
    48f5:	06ed           	mov.n	a14, a6
    48f7:	5c9e04        	ae_lp24x2f.iu	aep1, a14, 0
    48fa:	408904        	ae_lp16f.iu	aep0, a9, 0
    48fd:	17aa76        	loopgtz	a10, 4918 <inear_ast_nr_proc+0x940>
    4900:	019874        	ae_mulfp24s.ll	aeq3, aep1, aep0
    4903:	019054        	ae_mulfp24s.hl	aeq2, aep1, aep0
    4906:	1bbd54        	ae_roundsp24q48asym	aep5, aeq3
    4909:	1bad44        	ae_roundsp24q48asym	aep4, aeq2
    490c:	1acdc4        	ae_selp24.hh	aep4, aep4, aep5
    490f:	5ece04        	ae_sp24x2f.iu	aep4, a14, 0
    4912:	5c9e14        	ae_lp24x2f.iu	aep1, a14, 8
    4915:	408914        	ae_lp16f.iu	aep0, a9, 2

00004918 <inear_ast_nr_proc+0x940>:
    4918:	c193b2        	l16si	a11, a3, 0x182
    491b:	5d6b47        	bbci	a11, 4, 497c <inear_ast_nr_proc+0x9a4>
    491e:	6823a2        	l32i	a10, a3, 0x1a0
    4921:	06bd           	mov.n	a11, a6
    4923:	ee2e81        	l32r	a8, 1dc (2e08 <fn_calc_zp_gain>)
    4926:	04cd           	mov.n	a12, a4
    4928:	c393d2        	l16si	a13, a3, 0x186
    492b:	0008e0        	callx8	a8
    492e:	c19392        	l16si	a9, a3, 0x182
    4931:	1f6987        	bbci	a9, 8, 4954 <inear_ast_nr_proc+0x97c>
    4934:	01a1a2        	movi	a10, 0x101
    4937:	1521e2        	l32i	a14, a1, 84
    493a:	049d           	mov.n	a9, a4
    493c:	408904        	ae_lp16f.iu	aep0, a9, 0
    493f:	409e04        	ae_lp16f.iu	aep1, a14, 0
    4942:	0eaa76        	loopgtz	a10, 4954 <inear_ast_nr_proc+0x97c>
    4945:	011074        	ae_mulfp24s.ll	aeq0, aep1, aep0
    4948:	1b8e64        	ae_roundsp16q48sym	aep6, aeq0
    494b:	426e04        	ae_sp16f.l.i	aep6, a14, 0
    494e:	409e14        	ae_lp16f.iu	aep1, a14, 2
    4951:	408914        	ae_lp16f.iu	aep0, a9, 2

00004954 <inear_ast_nr_proc+0x97c>:
    4954:	01a1b2        	movi	a11, 0x101
    4957:	049d           	mov.n	a9, a4
    4959:	06ed           	mov.n	a14, a6
    495b:	5c9e04        	ae_lp24x2f.iu	aep1, a14, 0
    495e:	408904        	ae_lp16f.iu	aep0, a9, 0
    4961:	17ab76        	loopgtz	a11, 497c <inear_ast_nr_proc+0x9a4>
    4964:	019074        	ae_mulfp24s.ll	aeq2, aep1, aep0
    4967:	011854        	ae_mulfp24s.hl	aeq1, aep1, aep0
    496a:	1bad04        	ae_roundsp24q48asym	aep0, aeq2
    496d:	1b9d74        	ae_roundsp24q48asym	aep7, aeq1
    4970:	1af8f4        	ae_selp24.hh	aep7, aep7, aep0
    4973:	5efe04        	ae_sp24x2f.iu	aep7, a14, 0
    4976:	5c9e14        	ae_lp24x2f.iu	aep1, a14, 8
    4979:	408914        	ae_lp16f.iu	aep0, a9, 2

0000497c <inear_ast_nr_proc+0x9a4>:
    497c:	8291c2        	l16si	a12, a1, 0x104
    497f:	1661c2        	s32i	a12, a1, 88
    4982:	cc0b           	addi.n	a12, a12, -1
    4984:	09dc56        	bnez	a12, 4a25 <inear_ast_nr_proc+0xa4d>
    4987:	1421d2        	l32i	a13, a1, 80
    498a:	028da6        	blti	a13, 8, 4990 <inear_ast_nr_proc+0x9b8>
    498d:	002506        	j	4a25 <inear_ast_nr_proc+0xa4d>
    4990:	7e3c           	movi.n	a14, 55
    4992:	209660        	or	a9, a6, a6
    4995:	4221f2        	l32i	a15, a1, 0x108
    4998:	1b61f2        	s32i	a15, a1, 108
    499b:	5c8904        	ae_lp24x2f.iu	aep0, a9, 0
    499e:	401f44        	ae_lp16f.i	aep1, a15, 8
    49a1:	14ae76        	loopgtz	a14, 49b9 <inear_ast_nr_proc+0x9e1>
    49a4:	010174        	ae_mulfp24s.ll	aeq0, aep0, aep1
    49a7:	018954        	ae_mulfp24s.hl	aeq3, aep0, aep1
    49aa:	1b8d34        	ae_roundsp24q48asym	aep3, aeq0
    49ad:	1bbd24        	ae_roundsp24q48asym	aep2, aeq3
    49b0:	1aaba4        	ae_selp24.hh	aep2, aep2, aep3
    49b3:	5ea904        	ae_sp24x2f.iu	aep2, a9, 0
    49b6:	5c8914        	ae_lp24x2f.iu	aep0, a9, 8

000049b9 <inear_ast_nr_proc+0x9e1>:
    49b9:	1b21a2        	l32i	a10, a1, 108
    49bc:	d81c           	movi.n	a8, 29
    49be:	401a54        	ae_lp16f.i	aep1, a10, 10
    49c1:	14a876        	loopgtz	a8, 49d9 <inear_ast_nr_proc+0xa01>
    49c4:	018174        	ae_mulfp24s.ll	aeq2, aep0, aep1
    49c7:	010954        	ae_mulfp24s.hl	aeq1, aep0, aep1
    49ca:	1bad54        	ae_roundsp24q48asym	aep5, aeq2
    49cd:	1b9d44        	ae_roundsp24q48asym	aep4, aeq1
    49d0:	1acdc4        	ae_selp24.hh	aep4, aep4, aep5
    49d3:	5ec904        	ae_sp24x2f.iu	aep4, a9, 0
    49d6:	5c8914        	ae_lp24x2f.iu	aep0, a9, 8
    49d9:	80a0b2        	movi	a11, 128
    49dc:	1b21c2        	l32i	a12, a1, 108
    49df:	069d           	mov.n	a9, a6
    49e1:	5c8904        	ae_lp24x2f.iu	aep0, a9, 0
    49e4:	401c64        	ae_lp16f.i	aep1, a12, 12
    49e7:	14ab76        	loopgtz	a11, 49ff <inear_ast_nr_proc+0xa27>
    49ea:	010174        	ae_mulfp24s.ll	aeq0, aep0, aep1
    49ed:	018954        	ae_mulfp24s.hl	aeq3, aep0, aep1
    49f0:	1b8d74        	ae_roundsp24q48asym	aep7, aeq0
    49f3:	1bbd64        	ae_roundsp24q48asym	aep6, aeq3
    49f6:	1aefe4        	ae_selp24.hh	aep6, aep6, aep7
    49f9:	5ee904        	ae_sp24x2f.iu	aep6, a9, 0
    49fc:	5c8914        	ae_lp24x2f.iu	aep0, a9, 8
    49ff:	01a1d2        	movi	a13, 0x101
    4a02:	1b21e2        	l32i	a14, a1, 108
    4a05:	069d           	mov.n	a9, a6
    4a07:	5c8904        	ae_lp24x2f.iu	aep0, a9, 0
    4a0a:	401e74        	ae_lp16f.i	aep1, a14, 14
    4a0d:	14ad76        	loopgtz	a13, 4a25 <inear_ast_nr_proc+0xa4d>
    4a10:	018174        	ae_mulfp24s.ll	aeq2, aep0, aep1
    4a13:	010954        	ae_mulfp24s.hl	aeq1, aep0, aep1
    4a16:	1bad24        	ae_roundsp24q48asym	aep2, aeq2
    4a19:	1b9d04        	ae_roundsp24q48asym	aep0, aeq1
    4a1c:	1a8a84        	ae_selp24.hh	aep0, aep0, aep2
    4a1f:	5e8904        	ae_sp24x2f.iu	aep0, a9, 0
    4a22:	5c8914        	ae_lp24x2f.iu	aep0, a9, 8
    4a25:	c19392        	l16si	a9, a3, 0x182
    4a28:	1d6917        	bbci	a9, 1, 4a49 <inear_ast_nr_proc+0xa71>
    4a2b:	086977        	bbci	a9, 7, 4a37 <inear_ast_nr_proc+0xa5f>
    4a2e:	c49382        	l16si	a8, a3, 0x188
    4a31:	1421f2        	l32i	a15, a1, 80
    4a34:	112f87        	blt	a15, a8, 4a49 <inear_ast_nr_proc+0xa71>

00004a37 <inear_ast_nr_proc+0xa5f>:
    4a37:	02ad           	mov.n	a10, a2
    4a39:	1a21b2        	l32i	a11, a1, 104
    4a3c:	07cd           	mov.n	a12, a7
    4a3e:	ede881        	l32r	a8, 1e0 (2b18 <fn_low_bin_noise_est>)
    4a41:	06dd           	mov.n	a13, a6
    4a43:	0891e2        	l16si	a14, a1, 16
    4a46:	0008e0        	callx8	a8
    4a49:	07bd           	mov.n	a11, a7
    4a4b:	1a21c2        	l32i	a12, a1, 104
    4a4e:	04dd           	mov.n	a13, a4
    4a50:	eddd81        	l32r	a8, 1c4 (204c <fn_calc_sup_gain>)
    4a53:	23d2a2        	addmi	a10, a2, 0x2300
    4a56:	f8caa2        	addi	a10, a10, -8
    4a59:	0008e0        	callx8	a8
    4a5c:	c193b2        	l16si	a11, a3, 0x182
    4a5f:	04b2b0        	extui	a11, a11, 2, 1
    4a62:	1bcc           	bnez.n	a11, 4a67 <inear_ast_nr_proc+0xa8f>
    4a64:	fdfd06        	j	425c <inear_ast_nr_proc+0x284>
    4a67:	0891c2        	l16si	a12, a1, 16
    4a6a:	cc0b           	addi.n	a12, a12, -1
    4a6c:	1c8c           	beqz.n	a12, 4a71 <inear_ast_nr_proc+0xa99>
    4a6e:	fdfa86        	j	425c <inear_ast_nr_proc+0x284>
    4a71:	02ad           	mov.n	a10, a2
    4a73:	eddc81        	l32r	a8, 1e4 (2cf0 <fn_low_bin_compensate_phase>)
    4a76:	05bd           	mov.n	a11, a5
    4a78:	06cd           	mov.n	a12, a6
    4a7a:	0008e0        	callx8	a8
    4a7d:	fdf6c6        	j	425c <inear_ast_nr_proc+0x284>

00004a80 <inear_ast_nr_proc+0xaa8>:
    4a80:	edd481        	l32r	a8, 1d0 (3ce0 <fn_gen_noise_fd_frame>)
    4a83:	f1b8           	l32i.n	a11, a1, 60
    4a85:	07cd           	mov.n	a12, a7
    4a87:	0008e0        	callx8	a8
    4a8a:	22d2b2        	addmi	a11, a2, 0x2200
    4a8d:	ca93a2        	l16si	a10, a3, 0x194
    4a90:	7f9bb2        	l16si	a11, a11, 254
    4a93:	d1aab0        	mul16s	a10, a10, a11
    4a96:	ed78b1        	l32r	a11, 78 (8000 <xtensa_fft8_32b+0x28>)
    4a99:	90aab0        	addx2	a10, a10, a11
    4a9c:	31a0a0        	srai	a10, a10, 16
    4a9f:	11aae0        	slli	a10, a10, 2
    4aa2:	fc4265        	call8	ec8 <_saturate16>
    4aa5:	a1a9           	s32i.n	a10, a1, 40
    4aa7:	24bd           	ae_l16si.n	a11, a4, 0
    4aa9:	ed6ca1        	l32r	a10, 5c (7fff <xtensa_fft8_32b+0x27>)
    4aac:	1b6142        	s32i	a4, a1, 108
    4aaf:	9159           	s32i.n	a5, a1, 36
    4ab1:	c0aab0        	sub	a10, a10, a11
    4ab4:	fc4125        	call8	ec8 <_saturate16>
    4ab7:	7c3c           	movi.n	a12, 55
    4ab9:	9158           	l32i.n	a5, a1, 36
    4abb:	1b21e2        	l32i	a14, a1, 108
    4abe:	a1d8           	l32i.n	a13, a1, 40
    4ac0:	074d           	mov.n	a4, a7
    4ac2:	5ca404        	ae_lp24x2f.iu	aep2, a4, 0
    4ac5:	0d61d2        	s32i	a13, a1, 52
    4ac8:	403e04        	ae_lp16f.i	aep3, a14, 0
    4acb:	ed6be1        	l32r	a14, 78 (8000 <xtensa_fft8_32b+0x28>)
    4ace:	d1dad0        	mul16s	a13, a10, a13
    4ad1:	5c9504        	ae_lp24x2f.iu	aep1, a5, 0
    4ad4:	90dde0        	addx2	a13, a13, a14
    4ad7:	31d0d0        	srai	a13, a13, 16
    4ada:	300dd4        	ae_cvtp24a16x2.ll	aep0, a13, a13
    4add:	29ac76        	loopgtz	a12, 4b0a <inear_ast_nr_proc+0xb32>
    4ae0:	011b74        	ae_mulfp24s.ll	aeq1, aep1, aep3
    4ae3:	01a074        	ae_mulfp24s.ll	aeq2, aep2, aep0
    4ae6:	012054        	ae_mulfp24s.hl	aeq0, aep2, aep0
    4ae9:	019b54        	ae_mulfp24s.hl	aeq3, aep1, aep3
    4aec:	1b8d74        	ae_roundsp24q48asym	aep7, aeq0
    4aef:	1bbd64        	ae_roundsp24q48asym	aep6, aeq3
    4af2:	1bad44        	ae_roundsp24q48asym	aep4, aeq2
    4af5:	1b9d24        	ae_roundsp24q48asym	aep2, aeq1
    4af8:	07a454        	ae_addsp24s	aep5, aep2, aep4
    4afb:	07e744        	ae_addsp24s	aep4, aep6, aep7
    4afe:	1acdc4        	ae_selp24.hh	aep4, aep4, aep5
    4b01:	5ec504        	ae_sp24x2f.iu	aep4, a5, 0
    4b04:	5c9514        	ae_lp24x2f.iu	aep1, a5, 8
    4b07:	5ca414        	ae_lp24x2f.iu	aep2, a4, 8

00004b0a <inear_ast_nr_proc+0xb32>:
    4b0a:	1b21b2        	l32i	a11, a1, 108
    4b0d:	ed53a1        	l32r	a10, 5c (7fff <xtensa_fft8_32b+0x27>)
    4b10:	01d1c2        	addmi	a12, a1, 0x100
    4b13:	3bbd           	ae_l16si.n	a11, a11, 2
    4b15:	80ccc2        	addi	a12, a12, -128
    4b18:	560c74        	ae_sp24x2s.i	aep0, a12, 56
    4b1b:	c0aab0        	sub	a10, a10, a11
    4b1e:	01d1b2        	addmi	a11, a1, 0x100
    4b21:	561b84        	ae_sp24x2s.i	aep1, a11, -64
    4b24:	562b94        	ae_sp24x2s.i	aep2, a11, -56
    4b27:	563ba4        	ae_sp24x2s.i	aep3, a11, -48
    4b2a:	fc39e5        	call8	ec8 <_saturate16>
    4b2d:	dc1c           	movi.n	a12, 29
    4b2f:	01d182        	addmi	a8, a1, 0x100
    4b32:	5408a4        	ae_lp24x2.i	aep0, a8, -48
    4b35:	541894        	ae_lp24x2.i	aep1, a8, -56
    4b38:	542884        	ae_lp24x2.i	aep2, a8, -64
    4b3b:	80c8d2        	addi	a13, a8, -128
    4b3e:	543d74        	ae_lp24x2.i	aep3, a13, 56
    4b41:	29ac76        	loopgtz	a12, 4b6e <inear_ast_nr_proc+0xb96>
    4b44:	01a854        	ae_mulfp24s.hl	aeq3, aep2, aep0
    4b47:	012874        	ae_mulfp24s.ll	aeq1, aep2, aep0
    4b4a:	011354        	ae_mulfp24s.hl	aeq0, aep1, aep3
    4b4d:	019374        	ae_mulfp24s.ll	aeq2, aep1, aep3
    4b50:	1b8d14        	ae_roundsp24q48asym	aep1, aeq0
    4b53:	1bad54        	ae_roundsp24q48asym	aep5, aeq2
    4b56:	1b9d44        	ae_roundsp24q48asym	aep4, aeq1
    4b59:	1bbd74        	ae_roundsp24q48asym	aep7, aeq3
    4b5c:	07c564        	ae_addsp24s	aep6, aep4, aep5
    4b5f:	07f154        	ae_addsp24s	aep5, aep7, aep1
    4b62:	1aded4        	ae_selp24.hh	aep5, aep5, aep6
    4b65:	5ed504        	ae_sp24x2f.iu	aep5, a5, 0
    4b68:	5ca514        	ae_lp24x2f.iu	aep2, a5, 8
    4b6b:	5c9414        	ae_lp24x2f.iu	aep1, a4, 8
    4b6e:	1b21b2        	l32i	a11, a1, 108
    4b71:	ed3aa1        	l32r	a10, 5c (7fff <xtensa_fft8_32b+0x27>)
    4b74:	029bb2        	l16si	a11, a11, 4
    4b77:	c0aab0        	sub	a10, a10, a11
    4b7a:	fc34e5        	call8	ec8 <_saturate16>
    4b7d:	80a0c2        	movi	a12, 128
    4b80:	9158           	l32i.n	a5, a1, 36
    4b82:	d1d8           	l32i.n	a13, a1, 52
    4b84:	1b21e2        	l32i	a14, a1, 108
    4b87:	074d           	mov.n	a4, a7
    4b89:	5c9404        	ae_lp24x2f.iu	aep1, a4, 0
    4b8c:	402e04        	ae_lp16f.i	aep2, a14, 0
    4b8f:	ed3ae1        	l32r	a14, 78 (8000 <xtensa_fft8_32b+0x28>)
    4b92:	d1dad0        	mul16s	a13, a10, a13
    4b95:	5c8504        	ae_lp24x2f.iu	aep0, a5, 0
    4b98:	90dde0        	addx2	a13, a13, a14
    4b9b:	31d0d0        	srai	a13, a13, 16
    4b9e:	304dd4        	ae_cvtp24a16x2.ll	aep4, a13, a13
    4ba1:	29ac76        	loopgtz	a12, 4bce <inear_ast_nr_proc+0xbf6>
    4ba4:	010a74        	ae_mulfp24s.ll	aeq1, aep0, aep2
    4ba7:	019474        	ae_mulfp24s.ll	aeq2, aep1, aep4
    4baa:	011454        	ae_mulfp24s.hl	aeq0, aep1, aep4
    4bad:	018a54        	ae_mulfp24s.hl	aeq3, aep0, aep2
    4bb0:	1b8d14        	ae_roundsp24q48asym	aep1, aeq0
    4bb3:	1bbd04        	ae_roundsp24q48asym	aep0, aeq3
    4bb6:	1bad54        	ae_roundsp24q48asym	aep5, aeq2
    4bb9:	1b9d34        	ae_roundsp24q48asym	aep3, aeq1
    4bbc:	07b574        	ae_addsp24s	aep7, aep3, aep5
    4bbf:	078164        	ae_addsp24s	aep6, aep0, aep1
    4bc2:	1aefe4        	ae_selp24.hh	aep6, aep6, aep7
    4bc5:	5ee504        	ae_sp24x2f.iu	aep6, a5, 0
    4bc8:	5c8514        	ae_lp24x2f.iu	aep0, a5, 8
    4bcb:	5c9414        	ae_lp24x2f.iu	aep1, a4, 8
    4bce:	1b21b2        	l32i	a11, a1, 108
    4bd1:	ed22a1        	l32r	a10, 5c (7fff <xtensa_fft8_32b+0x27>)
    4bd4:	039bb2        	l16si	a11, a11, 6
    4bd7:	c0aab0        	sub	a10, a10, a11
    4bda:	fc2ee5        	call8	ec8 <_saturate16>
    4bdd:	01a1c2        	movi	a12, 0x101
    4be0:	9158           	l32i.n	a5, a1, 36
    4be2:	d1d8           	l32i.n	a13, a1, 52
    4be4:	1b21e2        	l32i	a14, a1, 108
    4be7:	074d           	mov.n	a4, a7
    4be9:	5c8404        	ae_lp24x2f.iu	aep0, a4, 0
    4bec:	402e04        	ae_lp16f.i	aep2, a14, 0
    4bef:	ed22e1        	l32r	a14, 78 (8000 <xtensa_fft8_32b+0x28>)
    4bf2:	d1dad0        	mul16s	a13, a10, a13
    4bf5:	5c9504        	ae_lp24x2f.iu	aep1, a5, 0
    4bf8:	90dde0        	addx2	a13, a13, a14
    4bfb:	31d0d0        	srai	a13, a13, 16
    4bfe:	304dd4        	ae_cvtp24a16x2.ll	aep4, a13, a13
    4c01:	29ac76        	loopgtz	a12, 4c2e <inear_ast_nr_proc+0xc56>
    4c04:	019a54        	ae_mulfp24s.hl	aeq3, aep1, aep2
    4c07:	010454        	ae_mulfp24s.hl	aeq0, aep0, aep4
    4c0a:	018474        	ae_mulfp24s.ll	aeq2, aep0, aep4
    4c0d:	011a74        	ae_mulfp24s.ll	aeq1, aep1, aep2
    4c10:	1bad54        	ae_roundsp24q48asym	aep5, aeq2
    4c13:	1b9d34        	ae_roundsp24q48asym	aep3, aeq1
    4c16:	07b574        	ae_addsp24s	aep7, aep3, aep5
    4c19:	1b8d14        	ae_roundsp24q48asym	aep1, aeq0
    4c1c:	1bbd04        	ae_roundsp24q48asym	aep0, aeq3
    4c1f:	078164        	ae_addsp24s	aep6, aep0, aep1
    4c22:	1aefe4        	ae_selp24.hh	aep6, aep6, aep7
    4c25:	5ee504        	ae_sp24x2f.iu	aep6, a5, 0
    4c28:	5c9514        	ae_lp24x2f.iu	aep1, a5, 8
    4c2b:	5c8414        	ae_lp24x2f.iu	aep0, a4, 8
    4c2e:	fe7506        	j	4606 <inear_ast_nr_proc+0x62e>

00004c31 <inear_ast_nr_proc+0xc59>:
    4c31:	1921c2        	l32i	a12, a1, 100
    4c34:	05bd           	mov.n	a11, a5
    4c36:	04dd           	mov.n	a13, a4
    4c38:	10c1e2        	addi	a14, a1, 16
    4c3b:	ed5c81        	l32r	a8, 1ac (26ac <fn_win_detection>)
    4c3e:	090c           	movi.n	a9, 0
    4c40:	0199           	s32i.n	a9, a1, 0
    4c42:	0008e0        	callx8	a8
    4c45:	0a0c           	movi.n	a10, 0
    4c47:	fd4f46        	j	4188 <inear_ast_nr_proc+0x1b0>

00004c4a <inear_ast_nr_proc+0xc72>:
    4c4a:	0fad           	mov.n	a10, a15
    4c4c:	ed5481        	l32r	a8, 19c (1940 <fn_analysis_frame>)
    4c4f:	1821b2        	l32i	a11, a1, 96
    4c52:	61c8           	l32i.n	a12, a1, 24
    4c54:	0008e0        	callx8	a8
    4c57:	b1a8           	l32i.n	a10, a1, 44
    4c59:	1a21b2        	l32i	a11, a1, 104
    4c5c:	06cd           	mov.n	a12, a6
    4c5e:	c193d2        	l16si	a13, a3, 0x182
    4c61:	ed5081        	l32r	a8, 1a4 (1a70 <fn_analysis_frame_32>)
    4c64:	c693e2        	l16si	a14, a3, 0x18c
    4c67:	04d0d0        	extui	a13, a13, 0, 1
    4c6a:	0008e0        	callx8	a8
    4c6d:	fd1cc6        	j	40e4 <inear_ast_nr_proc+0x10c>

00004c70 <_start>:
    4c70:	004136        	entry	a1, 32
    4c73:	ed5ea1        	l32r	a10, 1ec (978c <ln_coef_51+0xc>)
    4c76:	ed5c31        	l32r	a3, 1e8 (e794 <printf_ptr>)
    4c79:	0288           	l32i.n	a8, a2, 0
    4c7b:	ed5db1        	l32r	a11, 1f0 (5ca8 <get_ECNR_SVN>)
    4c7e:	0389           	s32i.n	a8, a3, 0
    4c80:	0008e0        	callx8	a8
    4c83:	0388           	l32i.n	a8, a3, 0
    4c85:	ed5ba1        	l32r	a10, 1f4 (97a0 <ln_coef_51+0x20>)
    4c88:	ed5cb1        	l32r	a11, 1f8 (5cb0 <get_aec_nr_memsize>)
    4c8b:	0008e0        	callx8	a8
    4c8e:	0388           	l32i.n	a8, a3, 0
    4c90:	ed5ba1        	l32r	a10, 1fc (97bc <ln_coef_51+0x3c>)
    4c93:	ed5bb1        	l32r	a11, 200 (5db0 <Voice_WB_TX_Inear_Init>)
    4c96:	0008e0        	callx8	a8
    4c99:	0388           	l32i.n	a8, a3, 0
    4c9b:	ed5aa1        	l32r	a10, 204 (97dc <ln_coef_51+0x5c>)
    4c9e:	ed5ab1        	l32r	a11, 208 (65c0 <Voice_WB_TX_Inear_Prcs>)
    4ca1:	0008e0        	callx8	a8
    4ca4:	0388           	l32i.n	a8, a3, 0
    4ca6:	ed59a1        	l32r	a10, 20c (97fc <ln_coef_51+0x7c>)
    4ca9:	ed59b1        	l32r	a11, 210 (6dac <EC_REF_GAIN_READBACK>)
    4cac:	0008e0        	callx8	a8
    4caf:	0388           	l32i.n	a8, a3, 0
    4cb1:	ed58a1        	l32r	a10, 214 (9818 <ln_coef_51+0x98>)
    4cb4:	ed59b1        	l32r	a11, 218 (72b8 <NB_RX_NR_init>)
    4cb7:	0008e0        	callx8	a8
    4cba:	0388           	l32i.n	a8, a3, 0
    4cbc:	ed58a1        	l32r	a10, 21c (982c <ln_coef_51+0xac>)
    4cbf:	ed58b1        	l32r	a11, 220 (6cf0 <Voice_NB_RX_Prcs>)
    4cc2:	0008e0        	callx8	a8
    4cc5:	0388           	l32i.n	a8, a3, 0
    4cc7:	ed57a1        	l32r	a10, 224 (9844 <ln_coef_51+0xc4>)
    4cca:	ed57b1        	l32r	a11, 228 (7038 <WB_RX_NR_init>)
    4ccd:	0008e0        	callx8	a8
    4cd0:	0388           	l32i.n	a8, a3, 0
    4cd2:	ed56a1        	l32r	a10, 22c (9858 <ln_coef_51+0xd8>)
    4cd5:	ed56b1        	l32r	a11, 230 (6d4c <Voice_WB_RX_Prcs>)
    4cd8:	0008e0        	callx8	a8
    4cdb:	0388           	l32i.n	a8, a3, 0
    4cdd:	ed55a1        	l32r	a10, 234 (9870 <ln_coef_51+0xf0>)
    4ce0:	ed56b1        	l32r	a11, 238 (6dec <EC_PreLim_Coef_READBACK>)
    4ce3:	0008e0        	callx8	a8
    4ce6:	0388           	l32i.n	a8, a3, 0
    4ce8:	ed55a1        	l32r	a10, 23c (9890 <ln_coef_51+0x110>)
    4ceb:	ed55b1        	l32r	a11, 240 (6e08 <AEC_NR_Write_FLASH>)
    4cee:	0008e0        	callx8	a8
    4cf1:	0388           	l32i.n	a8, a3, 0
    4cf3:	ed54a1        	l32r	a10, 244 (98ac <ln_coef_51+0x12c>)
    4cf6:	ed54b1        	l32r	a11, 248 (9f8 <EQ_update>)
    4cf9:	0008e0        	callx8	a8
    4cfc:	0388           	l32i.n	a8, a3, 0
    4cfe:	ed53a1        	l32r	a10, 24c (98bc <ln_coef_51+0x13c>)
    4d01:	ed53b1        	l32r	a11, 250 (5cb8 <get_txnr_pitch_last>)
    4d04:	0008e0        	callx8	a8
    4d07:	0388           	l32i.n	a8, a3, 0
    4d09:	ed52a1        	l32r	a10, 254 (98d8 <ln_coef_51+0x158>)
    4d0c:	ed53b1        	l32r	a11, 258 (6e00 <DaulMIC_power_Coef_READBACK>)
    4d0f:	0008e0        	callx8	a8
    4d12:	0388           	l32i.n	a8, a3, 0
    4d14:	ed52a1        	l32r	a10, 25c (98fc <ln_coef_51+0x17c>)
    4d17:	ed52b1        	l32r	a11, 260 (6e10 <TWO_MIC_WB_Write_FLASH>)
    4d1a:	0008e0        	callx8	a8
    4d1d:	0388           	l32i.n	a8, a3, 0
    4d1f:	ed51a1        	l32r	a10, 264 (991c <ln_coef_51+0x19c>)
    4d22:	ed51b1        	l32r	a11, 268 (6e18 <IE_EC_REF_GAIN_READBACK>)
    4d25:	0008e0        	callx8	a8
    4d28:	0388           	l32i.n	a8, a3, 0
    4d2a:	ed50a1        	l32r	a10, 26c (993c <ln_coef_51+0x1bc>)
    4d2d:	ed50b1        	l32r	a11, 270 (5d98 <Get_AirDump_Inear>)
    4d30:	0008e0        	callx8	a8
    4d33:	ed5021        	l32r	a2, 274 (ab50 <export_parameter_array>)
    4d36:	f01d           	retw.n

00004d38 <real_512_fft>:
    4d38:	004136        	entry	a1, 32
    4d3b:	fcc242        	addi	a4, a2, -4
    4d3e:	ed4e91        	l32r	a9, 278 (9960 <fftorder_512>)
    4d41:	2b0c           	movi.n	a11, 2
    4d43:	00a182        	movi	a8, 0x100
    4d46:	fcc352        	addi	a5, a3, -4
    4d49:	05ad           	mov.n	a10, a5
    4d4b:	19a876        	loopgtz	a8, 4d68 <real_512_fft+0x30>
    4d4e:	29dd           	ae_l16si.n	a13, a9, 0
    4d50:	992b           	addi.n	a9, a9, 2
    4d52:	d2ddb0        	quos	a13, a13, a11
    4d55:	8ddd           	ae_sext16	a13, a13
    4d57:	11ddd0        	slli	a13, a13, 3
    4d5a:	cd4b           	addi.n	a12, a13, 4
    4d5c:	6062d4        	ae_lq32f.x	aeq1, a2, a13
    4d5f:	625a14        	ae_sq32f.iu	aeq1, a10, 4
    4d62:	6022c4        	ae_lq32f.x	aeq0, a2, a12
    4d65:	624a14        	ae_sq32f.iu	aeq0, a10, 4

00004d68 <real_512_fft+0x30>:
    4d68:	03ad           	mov.n	a10, a3
    4d6a:	00a1b2        	movi	a11, 0x100
    4d6d:	8c0c           	movi.n	a12, 8
    4d6f:	ed4381        	l32r	a8, 27c (8740 <sw_fft_32b_2811>)
    4d72:	1d0c           	movi.n	a13, 1
    4d74:	1e0c           	movi.n	a14, 1
    4d76:	0008e0        	callx8	a8
    4d79:	06d3f2        	addmi	a15, a3, 0x600
    4d7c:	00a2b2        	movi	a11, 0x200
    4d7f:	ed40c1        	l32r	a12, 280 (9d60 <A_RI>)
    4d82:	039d           	mov.n	a9, a3
    4d84:	601904        	ae_lq32f.iu	aeq0, a9, 0
    4d87:	44ac04        	ae_lp16x2f.iu	aep2, a12, 0
    4d8a:	0bab76        	loopgtz	a11, 4d99 <real_512_fft+0x61>
    4d8d:	35c0b4        	ae_sraiq56	aeq3, aeq0, 2
    4d90:	06b934        	ae_roundsq32asym	aeq2, aeq3
    4d93:	626414        	ae_sq32f.iu	aeq2, a4, 4
    4d96:	601914        	ae_lq32f.iu	aeq0, a9, 4
    4d99:	08d292        	addmi	a9, a2, 0x800
    4d9c:	ed3ab1        	l32r	a11, 284 (a160 <B_RI>)
    4d9f:	024d           	mov.n	a4, a2
    4da1:	605404        	ae_lq32f.iu	aeq1, a4, 0
    4da4:	d56b7d141f 	{ ae_lq32f.iu	aeq0, a4, 4; ae_mulfq32sp16s.h	aeq3, aeq1, aep2 }
    4da9:	03a204        	ae_mulfq32sp16s.h	aeq2, aeq0, aep2
    4dac:	f988ed9b0f 	{ ae_lp16x2f.iu	aep1, a11, 0; ae_mulsfq32sp16s.l	aeq3, aeq0, aep2 }
    4db1:	039844        	ae_mulafq32sp16s.h	aeq3, aeq1, aep1
    4db4:	03a054        	ae_mulafq32sp16s.l	aeq2, aeq1, aep2
    4db7:	f58780ffdf 	{ movi	a13, 255; ae_mulafq32sp16s.l	aeq2, aeq1, aep1 }
    4dbc:	f586c000ef 	{ movi	a14, 0; ae_mulafq32sp16s.l	aeq3, aeq0, aep1 }
    4dc1:	f904802a2e 	{ addi	a2, a10, 2; ae_mulsfq32sp16s.h	aeq2, aeq0, aep1 }
    4dc6:	f92af9f51f 	{ ae_sq32f.iu	aeq3, a5, 4; ae_subq56	aeq1, aeq1, aeq0 }
    4dcb:	fc04f9e51f 	{ ae_sq32f.iu	aeq2, a5, 4; ae_satq48s	aeq0, aeq1 }
    4dd0:	816fe2        	s32i	a14, a15, 0x204
    4dd3:	368804        	ae_trunca32q48	a8, aeq0
    4dd6:	806f82        	s32i	a8, a15, 0x200
    4dd9:	449c14        	ae_lp16x2f.iu	aep1, a12, 4
    4ddc:	448b14        	ae_lp16x2f.iu	aep0, a11, 4
    4ddf:	605414        	ae_lq32f.iu	aeq1, a4, 4
    4de2:	6019e4        	ae_lq32f.iu	aeq0, a9, -8
    4de5:	32ad76        	loopgtz	a13, 4e1b <real_512_fft+0xe3>
    4de8:	d5677d541f 	{ ae_lq32f.iu	aeq2, a4, 4; ae_mulfq32sp16s.h	aeq3, aeq1, aep1 }
    4ded:	039c94        	ae_mulsfq32sp16s.l	aeq3, aeq2, aep1
    4df0:	038804        	ae_mulafq32sp16s.h	aeq3, aeq0, aep0
    4df3:	039284        	ae_mulfq32sp16s.h	aeq2, aeq2, aep1
    4df6:	039054        	ae_mulafq32sp16s.l	aeq2, aeq1, aep1

00004df9 <real_512_fft+0xc1>:
    4df9:	f582bd091f 	{ ae_lq32f.i	aeq0, a9, 4; ae_mulafq32sp16s.l	aeq2, aeq0, aep0 }
    4dfe:	038814        	ae_mulafq32sp16s.l	aeq3, aeq0, aep0
    4e01:	038404        	ae_mulsfq32sp16s.h	aeq2, aeq0, aep0
    4e04:	06f934        	ae_roundsq32asym	aeq3, aeq3
    4e07:	fd3479f51f 	{ ae_sq32f.iu	aeq3, a5, 4; ae_roundsq32asym	aeq1, aeq2 }
    4e0c:	625514        	ae_sq32f.iu	aeq1, a5, 4
    4e0f:	449c14        	ae_lp16x2f.iu	aep1, a12, 4
    4e12:	448b14        	ae_lp16x2f.iu	aep0, a11, 4
    4e15:	605414        	ae_lq32f.iu	aeq1, a4, 4
    4e18:	6019e4        	ae_lq32f.iu	aeq0, a9, -8

00004e1b <real_512_fft+0xe3>:
    4e1b:	822d           	ae_sext16	a2, a2
    4e1d:	f01d           	retw.n

00004e1f <real_512_fft+0xe7>:
	...

00004e20 <real_512_ifft>:
    4e20:	004136        	entry	a1, 32
    4e23:	fcc3d2        	addi	a13, a3, -4
    4e26:	00a182        	movi	a8, 0x100
    4e29:	ed16b1        	l32r	a11, 284 (a160 <B_RI>)
    4e2c:	ed15c1        	l32r	a12, 280 (9d60 <A_RI>)
    4e2f:	08d292        	addmi	a9, a2, 0x800
    4e32:	02ad           	mov.n	a10, a2
    4e34:	605a04        	ae_lq32f.iu	aeq1, a10, 0
    4e37:	601904        	ae_lq32f.iu	aeq0, a9, 0
    4e3a:	449c04        	ae_lp16x2f.iu	aep1, a12, 0
    4e3d:	448b04        	ae_lp16x2f.iu	aep0, a11, 0
    4e40:	32a876        	loopgtz	a8, 4e76 <real_512_ifft+0x56>
    4e43:	d5677d5a1f 	{ ae_lq32f.iu	aeq2, a10, 4; ae_mulfq32sp16s.h	aeq3, aeq1, aep1 }
    4e48:	039894        	ae_mulafq32sp16s.l	aeq3, aeq2, aep1
    4e4b:	038804        	ae_mulafq32sp16s.h	aeq3, aeq0, aep0
    4e4e:	039284        	ae_mulfq32sp16s.h	aeq2, aeq2, aep1
    4e51:	039454        	ae_mulsfq32sp16s.l	aeq2, aeq1, aep1
    4e54:	f980bd091f 	{ ae_lq32f.i	aeq0, a9, 4; ae_mulsfq32sp16s.l	aeq2, aeq0, aep0 }
    4e59:	038c14        	ae_mulsfq32sp16s.l	aeq3, aeq0, aep0
    4e5c:	038404        	ae_mulsfq32sp16s.h	aeq2, aeq0, aep0
    4e5f:	06f934        	ae_roundsq32asym	aeq3, aeq3
    4e62:	fc3479fd1f 	{ ae_sq32f.iu	aeq3, a13, 4; ae_roundsq32asym	aeq0, aeq2 }
    4e67:	624d14        	ae_sq32f.iu	aeq0, a13, 4
    4e6a:	449c14        	ae_lp16x2f.iu	aep1, a12, 4
    4e6d:	448b14        	ae_lp16x2f.iu	aep0, a11, 4
    4e70:	605a14        	ae_lq32f.iu	aeq1, a10, 4
    4e73:	6019e4        	ae_lq32f.iu	aeq0, a9, -8

00004e76 <real_512_ifft+0x56>:
    4e76:	02ad           	mov.n	a10, a2
    4e78:	ed0091        	l32r	a9, 278 (9960 <fftorder_512>)
    4e7b:	00a1b2        	movi	a11, 0x100
    4e7e:	10ab76        	loopgtz	a11, 4e92 <real_512_ifft+0x72>
    4e81:	29cd           	ae_l16si.n	a12, a9, 0
    4e83:	992b           	addi.n	a9, a9, 2
    4e85:	a0cc30        	addx4	a12, a12, a3
    4e88:	1cd8           	l32i.n	a13, a12, 4
    4e8a:	0ad9           	s32i.n	a13, a10, 0
    4e8c:	0cc8           	l32i.n	a12, a12, 0
    4e8e:	1ac9           	s32i.n	a12, a10, 4
    4e90:	aa8b           	addi.n	a10, a10, 8
    4e92:	02ad           	mov.n	a10, a2
    4e94:	00a1b2        	movi	a11, 0x100
    4e97:	8c0c           	movi.n	a12, 8
    4e99:	ecf881        	l32r	a8, 27c (8740 <sw_fft_32b_2811>)
    4e9c:	1d0c           	movi.n	a13, 1
    4e9e:	1e0c           	movi.n	a14, 1
    4ea0:	0008e0        	callx8	a8
    4ea3:	00a192        	movi	a9, 0x100
    4ea6:	0ba976        	loopgtz	a9, 4eb5 <real_512_ifft+0x95>
    4ea9:	12c8           	l32i.n	a12, a2, 4
    4eab:	03c9           	s32i.n	a12, a3, 0
    4ead:	02b8           	l32i.n	a11, a2, 0
    4eaf:	13b9           	s32i.n	a11, a3, 4
    4eb1:	228b           	addi.n	a2, a2, 8
    4eb3:	338b           	addi.n	a3, a3, 8
    4eb5:	f8ca22        	addi	a2, a10, -8
    4eb8:	822d           	ae_sext16	a2, a2
    4eba:	f01d           	retw.n

00004ebc <SBAEC_INIT>:
    4ebc:	00a136        	entry	a1, 80
    4ebf:	ec5c21        	l32r	a2, 30 (e798 <p_ecnr_mem>)
    4ec2:	0b0c           	movi.n	a11, 0
    4ec4:	0298           	l32i.n	a9, a2, 0
    4ec6:	88a1c2        	movi	a12, 0x188
    4ec9:	ec8181        	l32r	a8, d0 (8820 <xt_memset>)
    4ecc:	0dd942        	addmi	a4, a9, 0xd00
    4ecf:	10d952        	addmi	a5, a9, 0x1000
    4ed2:	0fd962        	addmi	a6, a9, 0xf00
    4ed5:	b8c672        	addi	a7, a6, -72
    4ed8:	a8c552        	addi	a5, a5, -88
    4edb:	8179           	s32i.n	a7, a1, 32
    4edd:	768b           	addi.n	a7, a6, 8
    4edf:	0ed992        	addmi	a9, a9, 0xe00
    4ee2:	58c662        	addi	a6, a6, 88
    4ee5:	18c9a2        	addi	a10, a9, 24
    4ee8:	c8c9d2        	addi	a13, a9, -56
    4eeb:	51d9           	s32i.n	a13, a1, 20
    4eed:	61a9           	s32i.n	a10, a1, 24
    4eef:	68c992        	addi	a9, a9, 104
    4ef2:	7199           	s32i.n	a9, a1, 28
    4ef4:	78c492        	addi	a9, a4, 120
    4ef7:	4199           	s32i.n	a9, a1, 16
    4ef9:	28c442        	addi	a4, a4, 40
    4efc:	04ad           	mov.n	a10, a4
    4efe:	0008e0        	callx8	a8
    4f01:	0b0c           	movi.n	a11, 0
    4f03:	02a8           	l32i.n	a10, a2, 0
    4f05:	c0a4c2        	movi	a12, 0x4c0
    4f08:	ec7281        	l32r	a8, d0 (8820 <xt_memset>)
    4f0b:	03daa2        	addmi	a10, a10, 0x300
    4f0e:	b0caa2        	addi	a10, a10, -80
    4f11:	0008e0        	callx8	a8
    4f14:	ec4a21        	l32r	a2, 3c (e78c <aec_nr_para>)
    4f17:	02e8           	l32i.n	a14, a2, 0
    4f19:	e39e92        	l16si	a9, a14, 0x1c6
    4f1c:	02d432        	addmi	a3, a4, 0x200
    4f1f:	59dc           	bnez.n	a9, 4f38 <SBAEC_INIT+0x7c>
    4f21:	0c2c           	movi.n	a12, 32
    4f23:	8d1c           	movi.n	a13, 24
    4f25:	0f3c           	movi.n	a15, 48
    4f27:	084c           	movi.n	a8, 64
    4f29:	765382        	s16i	a8, a3, 236
    4f2c:	7753f2        	s16i	a15, a3, 238
    4f2f:	7853d2        	s16i	a13, a3, 240
    4f32:	7953c2        	s16i	a12, a3, 242
    4f35:	001306        	j	4f85 <SBAEC_INIT+0xc9>

00004f38 <SBAEC_INIT+0x7c>:
    4f38:	131ea2        	l16ui	a10, a14, 38
    4f3b:	34b490        	extui	a11, a9, 4, 4
    4f3e:	34c090        	extui	a12, a9, 0, 4
    4f41:	cc1b           	addi.n	a12, a12, 1
    4f43:	bb1b           	addi.n	a11, a11, 1
    4f45:	11bbd0        	slli	a11, a11, 3
    4f48:	11cce0        	slli	a12, a12, 2
    4f4b:	7653c2        	s16i	a12, a3, 236
    4f4e:	7753b2        	s16i	a11, a3, 238
    4f51:	8ccd           	ae_sext16	a12, a12
    4f53:	43aac0        	min	a10, a10, a12
    4f56:	8bbd           	ae_sext16	a11, a11
    4f58:	2c0c           	movi.n	a12, 2
    4f5a:	d2bbc0        	quos	a11, a11, a12
    4f5d:	8bbd           	ae_sext16	a11, a11
    4f5f:	43aab0        	min	a10, a10, a11
    4f62:	34b890        	extui	a11, a9, 8, 4
    4f65:	bb1b           	addi.n	a11, a11, 1
    4f67:	11bbe0        	slli	a11, a11, 2
    4f6a:	7853b2        	s16i	a11, a3, 240
    4f6d:	8bbd           	ae_sext16	a11, a11
    4f6f:	43aab0        	min	a10, a10, a11
    4f72:	34bc90        	extui	a11, a9, 12, 4
    4f75:	bb1b           	addi.n	a11, a11, 1
    4f77:	11bbe0        	slli	a11, a11, 2
    4f7a:	7953b2        	s16i	a11, a3, 242
    4f7d:	8bbd           	ae_sext16	a11, a11
    4f7f:	43aab0        	min	a10, a10, a11
    4f82:	135ea2        	s16i	a10, a14, 38

00004f85 <SBAEC_INIT+0xc9>:
    4f85:	beeb           	addi.n	a11, a14, 14
    4f87:	ec2981        	l32r	a8, 2c (8838 <xt_memcpy>)
    4f8a:	a42b           	addi.n	a10, a4, 2
    4f8c:	ec0c           	movi.n	a12, 14
    4f8e:	0008e0        	callx8	a8
    4f91:	04ed           	mov.n	a14, a4
    4f93:	ecbe81        	l32r	a8, 28c (5290 <Fill_CH_MEM_WB>)
    4f96:	ec26f1        	l32r	a15, 30 (e798 <p_ecnr_mem>)
    4f99:	02b8           	l32i.n	a11, a2, 0
    4f9b:	ecbb91        	l32r	a9, 288 (cd10 <bc45+0x10>)
    4f9e:	0ff8           	l32i.n	a15, a15, 0
    4fa0:	061ba2        	l16ui	a10, a11, 12
    4fa3:	d99bd2        	l16si	a13, a11, 0x1b2
    4fa6:	d81bc2        	l16ui	a12, a11, 0x1b0
    4fa9:	1054c2        	s16i	a12, a4, 32
    4fac:	1154d2        	s16i	a13, a4, 34
    4faf:	61c8           	l32i.n	a12, a1, 24
    4fb1:	71d8           	l32i.n	a13, a1, 28
    4fb3:	11aac0        	slli	a10, a10, 4
    4fb6:	c61bb2        	l16ui	a11, a11, 0x18c
    4fb9:	9f9a           	add.n	a9, a15, a9
    4fbb:	7f2992        	l32i	a9, a9, 0x1fc
    4fbe:	0f54b2        	s16i	a11, a4, 30
    4fc1:	94a9           	s32i.n	a10, a4, 36
    4fc3:	03dff2        	addmi	a15, a15, 0x300
    4fc6:	41a8           	l32i.n	a10, a1, 16
    4fc8:	b0cff2        	addi	a15, a15, -80
    4fcb:	51b8           	l32i.n	a11, a1, 20
    4fcd:	0199           	s32i.n	a9, a1, 0
    4fcf:	0008e0        	callx8	a8
    4fd2:	06cd           	mov.n	a12, a6
    4fd4:	05dd           	mov.n	a13, a5
    4fd6:	04ed           	mov.n	a14, a4
    4fd8:	7993b2        	l16si	a11, a3, 242
    4fdb:	7793a2        	l16si	a10, a3, 238
    4fde:	ec1481        	l32r	a8, 30 (e798 <p_ecnr_mem>)
    4fe1:	7693f2        	l16si	a15, a3, 236
    4fe4:	789392        	l16si	a9, a3, 240
    4fe7:	0888           	l32i.n	a8, a8, 0
    4fe9:	ffaa           	add.n	a15, a15, a10
    4feb:	99ba           	add.n	a9, a9, a11
    4fed:	81a8           	l32i.n	a10, a1, 32
    4fef:	07bd           	mov.n	a11, a7
    4ff1:	ff9a           	add.n	a15, a15, a9
    4ff3:	eca591        	l32r	a9, 288 (cd10 <bc45+0x10>)
    4ff6:	a0ff80        	addx4	a15, a15, a8
    4ff9:	03dff2        	addmi	a15, a15, 0x300
    4ffc:	989a           	add.n	a9, a8, a9
    4ffe:	7f2992        	l32i	a9, a9, 0x1fc
    5001:	b0cff2        	addi	a15, a15, -80
    5004:	eca281        	l32r	a8, 28c (5290 <Fill_CH_MEM_WB>)
    5007:	01d992        	addmi	a9, a9, 0x100
    500a:	18c992        	addi	a9, a9, 24
    500d:	0199           	s32i.n	a9, a1, 0
    500f:	0008e0        	callx8	a8
    5012:	61d8           	l32i.n	a13, a1, 24
    5014:	ec07a1        	l32r	a10, 30 (e798 <p_ecnr_mem>)
    5017:	8188           	l32i.n	a8, a1, 32
    5019:	51e8           	l32i.n	a14, a1, 20
    501b:	0aa8           	l32i.n	a10, a10, 0
    501d:	71b8           	l32i.n	a11, a1, 28
    501f:	122ee2        	l32i	a14, a14, 72
    5022:	a72a92        	l32i	a9, a10, 0x29c
    5025:	a32ac2        	l32i	a12, a10, 0x28c
    5028:	116bc2        	s32i	a12, a11, 68
    502b:	126b92        	s32i	a9, a11, 72
    502e:	02c8           	l32i.n	a12, a2, 0
    5030:	a52aa2        	l32i	a10, a10, 0x294
    5033:	7693b2        	l16si	a11, a3, 236
    5036:	1165a2        	s32i	a10, a5, 68
    5039:	41a8           	l32i.n	a10, a1, 16
    503b:	126592        	s32i	a9, a5, 72
    503e:	169cc2        	l16si	a12, a12, 44
    5041:	122af2        	l32i	a15, a10, 72
    5044:	1268f2        	s32i	a15, a8, 72
    5047:	1267e2        	s32i	a14, a7, 72
    504a:	122dd2        	l32i	a13, a13, 72
    504d:	ec9081        	l32r	a8, 290 (5230 <Fill_sbco>)
    5050:	1266d2        	s32i	a13, a6, 72
    5053:	1d0c           	movi.n	a13, 1
    5055:	0008e0        	callx8	a8
    5058:	51a8           	l32i.n	a10, a1, 20
    505a:	ec8d81        	l32r	a8, 290 (5230 <Fill_sbco>)
    505d:	02c8           	l32i.n	a12, a2, 0
    505f:	7793b2        	l16si	a11, a3, 238
    5062:	2d0c           	movi.n	a13, 2
    5064:	179cc2        	l16si	a12, a12, 46
    5067:	d2bbd0        	quos	a11, a11, a13
    506a:	8bbd           	ae_sext16	a11, a11
    506c:	1d0c           	movi.n	a13, 1
    506e:	0008e0        	callx8	a8
    5071:	61a8           	l32i.n	a10, a1, 24
    5073:	7893b2        	l16si	a11, a3, 240
    5076:	02c8           	l32i.n	a12, a2, 0
    5078:	ec8681        	l32r	a8, 290 (5230 <Fill_sbco>)
    507b:	1d0c           	movi.n	a13, 1
    507d:	189cc2        	l16si	a12, a12, 48
    5080:	0008e0        	callx8	a8
    5083:	71a8           	l32i.n	a10, a1, 28
    5085:	7993b2        	l16si	a11, a3, 242
    5088:	02c8           	l32i.n	a12, a2, 0
    508a:	ec8181        	l32r	a8, 290 (5230 <Fill_sbco>)
    508d:	1d0c           	movi.n	a13, 1
    508f:	199cc2        	l16si	a12, a12, 50
    5092:	0008e0        	callx8	a8
    5095:	81a8           	l32i.n	a10, a1, 32
    5097:	7693b2        	l16si	a11, a3, 236
    509a:	02c8           	l32i.n	a12, a2, 0
    509c:	4d0c           	movi.n	a13, 4
    509e:	ec7c81        	l32r	a8, 290 (5230 <Fill_sbco>)
    50a1:	07dcc2        	addmi	a12, a12, 0x700
    50a4:	509cc2        	l16si	a12, a12, 160
    50a7:	0008e0        	callx8	a8
    50aa:	07ad           	mov.n	a10, a7
    50ac:	ec7981        	l32r	a8, 290 (5230 <Fill_sbco>)
    50af:	02c8           	l32i.n	a12, a2, 0
    50b1:	7793b2        	l16si	a11, a3, 238
    50b4:	2d0c           	movi.n	a13, 2
    50b6:	07dcc2        	addmi	a12, a12, 0x700
    50b9:	d2bbd0        	quos	a11, a11, a13
    50bc:	8bbd           	ae_sext16	a11, a11
    50be:	4d0c           	movi.n	a13, 4
    50c0:	a4ccc2        	addi	a12, a12, -92
    50c3:	7f9cc2        	l16si	a12, a12, 254
    50c6:	0008e0        	callx8	a8
    50c9:	06ad           	mov.n	a10, a6
    50cb:	7893b2        	l16si	a11, a3, 240
    50ce:	02c8           	l32i.n	a12, a2, 0
    50d0:	4d0c           	movi.n	a13, 4
    50d2:	ec6f81        	l32r	a8, 290 (5230 <Fill_sbco>)
    50d5:	07dcc2        	addmi	a12, a12, 0x700
    50d8:	a4ccc2        	addi	a12, a12, -92
    50db:	809cc2        	l16si	a12, a12, 0x100
    50de:	0008e0        	callx8	a8
    50e1:	05ad           	mov.n	a10, a5
    50e3:	7993b2        	l16si	a11, a3, 242
    50e6:	02c8           	l32i.n	a12, a2, 0
    50e8:	4d0c           	movi.n	a13, 4
    50ea:	ec6981        	l32r	a8, 290 (5230 <Fill_sbco>)
    50ed:	07dcc2        	addmi	a12, a12, 0x700
    50f0:	a4ccc2        	addi	a12, a12, -92
    50f3:	819cc2        	l16si	a12, a12, 0x102
    50f6:	0008e0        	callx8	a8
    50f9:	02d8           	l32i.n	a13, a2, 0
    50fb:	41a8           	l32i.n	a10, a1, 16
    50fd:	ec6581        	l32r	a8, 294 (526c <Fill_sbco_v2>)
    5100:	eb9db2        	l16si	a11, a13, 0x1d6
    5103:	ef9dc2        	l16si	a12, a13, 0x1de
    5106:	f39dd2        	l16si	a13, a13, 0x1e6
    5109:	21b8b0        	srai	a11, a11, 8
    510c:	21c8c0        	srai	a12, a12, 8
    510f:	21d8d0        	srai	a13, a13, 8
    5112:	0008e0        	callx8	a8
    5115:	02d8           	l32i.n	a13, a2, 0
    5117:	51a8           	l32i.n	a10, a1, 20
    5119:	ec5e81        	l32r	a8, 294 (526c <Fill_sbco_v2>)
    511c:	eb9db2        	l16si	a11, a13, 0x1d6
    511f:	ef9dc2        	l16si	a12, a13, 0x1de
    5122:	f39dd2        	l16si	a13, a13, 0x1e6
    5125:	0008e0        	callx8	a8
    5128:	02d8           	l32i.n	a13, a2, 0
    512a:	61a8           	l32i.n	a10, a1, 24
    512c:	ec5a81        	l32r	a8, 294 (526c <Fill_sbco_v2>)
    512f:	ec9db2        	l16si	a11, a13, 0x1d8
    5132:	f09dc2        	l16si	a12, a13, 0x1e0
    5135:	f49dd2        	l16si	a13, a13, 0x1e8
    5138:	21b8b0        	srai	a11, a11, 8
    513b:	21c8c0        	srai	a12, a12, 8
    513e:	21d8d0        	srai	a13, a13, 8
    5141:	0008e0        	callx8	a8
    5144:	02d8           	l32i.n	a13, a2, 0
    5146:	71a8           	l32i.n	a10, a1, 28
    5148:	ec5381        	l32r	a8, 294 (526c <Fill_sbco_v2>)
    514b:	ec9db2        	l16si	a11, a13, 0x1d8
    514e:	f09dc2        	l16si	a12, a13, 0x1e0
    5151:	f49dd2        	l16si	a13, a13, 0x1e8
    5154:	0008e0        	callx8	a8
    5157:	02d8           	l32i.n	a13, a2, 0
    5159:	81a8           	l32i.n	a10, a1, 32
    515b:	ec4e81        	l32r	a8, 294 (526c <Fill_sbco_v2>)
    515e:	ed9db2        	l16si	a11, a13, 0x1da
    5161:	f19dc2        	l16si	a12, a13, 0x1e2
    5164:	f59dd2        	l16si	a13, a13, 0x1ea
    5167:	21b8b0        	srai	a11, a11, 8
    516a:	21c8c0        	srai	a12, a12, 8
    516d:	21d8d0        	srai	a13, a13, 8
    5170:	0008e0        	callx8	a8
    5173:	02d8           	l32i.n	a13, a2, 0
    5175:	07ad           	mov.n	a10, a7
    5177:	ec4781        	l32r	a8, 294 (526c <Fill_sbco_v2>)
    517a:	ed9db2        	l16si	a11, a13, 0x1da
    517d:	f19dc2        	l16si	a12, a13, 0x1e2
    5180:	f59dd2        	l16si	a13, a13, 0x1ea
    5183:	0008e0        	callx8	a8
    5186:	02d8           	l32i.n	a13, a2, 0
    5188:	06ad           	mov.n	a10, a6
    518a:	ec4281        	l32r	a8, 294 (526c <Fill_sbco_v2>)
    518d:	ee9db2        	l16si	a11, a13, 0x1dc
    5190:	f29dc2        	l16si	a12, a13, 0x1e4
    5193:	f69dd2        	l16si	a13, a13, 0x1ec
    5196:	21b8b0        	srai	a11, a11, 8
    5199:	21c8c0        	srai	a12, a12, 8
    519c:	21d8d0        	srai	a13, a13, 8
    519f:	0008e0        	callx8	a8
    51a2:	05ad           	mov.n	a10, a5
    51a4:	eba361        	l32r	a6, 30 (e798 <p_ecnr_mem>)
    51a7:	02d8           	l32i.n	a13, a2, 0
    51a9:	74a172        	movi	a7, 0x174
    51ac:	ec3a81        	l32r	a8, 294 (526c <Fill_sbco_v2>)
    51af:	ee9db2        	l16si	a11, a13, 0x1dc
    51b2:	f29dc2        	l16si	a12, a13, 0x1e4
    51b5:	f69dd2        	l16si	a13, a13, 0x1ec
    51b8:	0008e0        	callx8	a8
    51bb:	eba891        	l32r	a9, 5c (7fff <xtensa_fft8_32b+0x27>)
    51be:	02e8           	l32i.n	a14, a2, 0
    51c0:	06c8           	l32i.n	a12, a6, 0
    51c2:	ec3581        	l32r	a8, 298 (ff00 <_end+0x1760>)
    51c5:	151ea2        	l16ui	a10, a14, 42
    51c8:	cc7a           	add.n	a12, a12, a7
    51ca:	041eb2        	l16ui	a11, a14, 8
    51cd:	f79ef2        	l16si	a15, a14, 0x1ee
    51d0:	eb9e52        	l16si	a5, a14, 0x1d6
    51d3:	7b53f2        	s16i	a15, a3, 246
    51d6:	021ef2        	l16ui	a15, a14, 4
    51d9:	105580        	and	a5, a5, a8
    51dc:	04d0b0        	extui	a13, a11, 0, 1
    51df:	6853d2        	s16i	a13, a3, 208
    51e2:	180c           	movi.n	a8, 1
    51e4:	14b1b0        	extui	a11, a11, 1, 2
    51e7:	935850        	movnez	a5, a8, a5
    51ea:	231e82        	l16ui	a8, a14, 70
    51ed:	7a5352        	s16i	a5, a3, 244
    51f0:	825cb2        	s16i	a11, a12, 0x104
    51f3:	051e52        	l16ui	a5, a14, 10
    51f6:	7d5ca2        	s16i	a10, a12, 250
    51f9:	dc1ee2        	l16ui	a14, a14, 0x1b8
    51fc:	155492        	s16i	a9, a4, 42
    51ff:	6a5382        	s16i	a8, a3, 212
    5202:	695352        	s16i	a5, a3, 210
    5205:	64fd           	ae_s16i.n	a15, a4, 0
    5207:	d643e2        	s8i	a14, a3, 214
    520a:	02d8           	l32i.n	a13, a2, 0
    520c:	32c4a2        	addi	a10, a4, 50
    520f:	dc1dd2        	l16ui	a13, a13, 0x1b8
    5212:	442cc2        	l32i	a12, a12, 0x110
    5215:	eb8581        	l32r	a8, 2c (8838 <xt_memcpy>)
    5218:	41d8d0        	srli	a13, a13, 8
    521b:	d743d2        	s8i	a13, a3, 215
    521e:	02b8           	l32i.n	a11, a2, 0
    5220:	3a63c2        	s32i	a12, a3, 232
    5223:	3c0c           	movi.n	a12, 3
    5225:	08dbb2        	addmi	a11, a11, 0x800
    5228:	94cbb2        	addi	a11, a11, -108
    522b:	0008e0        	callx8	a8
    522e:	f01d           	retw.n

00005230 <Fill_sbco>:
    5230:	004136        	entry	a1, 32
    5233:	115232        	s16i	a3, a2, 34
    5236:	125252        	s16i	a5, a2, 36
    5239:	118400        	slli	a8, a4, 16
    523c:	eb8861        	l32r	a6, 5c (7fff <xtensa_fft8_32b+0x27>)
    523f:	105262        	s16i	a6, a2, 32
    5242:	5289           	s32i.n	a8, a2, 20
    5244:	4289           	s32i.n	a8, a2, 16
    5246:	f01d           	retw.n

00005248 <dt_ratio_thrd_form>:
    5248:	004136        	entry	a1, 32
    524b:	ec1431        	l32r	a3, 29c (6666 <Voice_WB_TX_Inear_Prcs+0xa6>)
    524e:	742020        	extui	a2, a2, 0, 8
    5251:	d12230        	mul16s	a2, a2, a3
    5254:	48a132        	movi	a3, 0x148
    5257:	40c222        	addi	a2, a2, 64
    525a:	212720        	srai	a2, a2, 7
    525d:	822230        	mull	a2, a2, a3
    5260:	ec1031        	l32r	a3, 2a0 (cd080 <_end+0xbe8e0>)
    5263:	223a           	add.n	a2, a2, a3
    5265:	212820        	srai	a2, a2, 8
    5268:	a22d           	ae_clamps16	a2, a2
    526a:	f01d           	retw.n

0000526c <Fill_sbco_v2>:
    526c:	004136        	entry	a1, 32
    526f:	04ad           	mov.n	a10, a4
    5271:	ec0c81        	l32r	a8, 2a4 (5248 <dt_ratio_thrd_form>)
    5274:	749030        	extui	a9, a3, 0, 8
    5277:	1a5292        	s16i	a9, a2, 52
    527a:	0008e0        	callx8	a8
    527d:	ec0ab1        	l32r	a11, 2a8 (a560 <T_aec_min_gain_42>)
    5280:	1952a2        	s16i	a10, a2, 50
    5283:	74a050        	extui	a10, a5, 0, 8
    5286:	90aab0        	addx2	a10, a10, a11
    5289:	2aad           	ae_l16si.n	a10, a10, 0
    528b:	1852a2        	s16i	a10, a2, 48
    528e:	f01d           	retw.n

00005290 <Fill_CH_MEM_WB>:
    5290:	004136        	entry	a1, 32
    5293:	8188           	l32i.n	a8, a1, 32
    5295:	a279           	s32i.n	a7, a2, 40
    5297:	02d6b2        	addmi	a11, a6, 0x200
    529a:	799be2        	l16si	a14, a11, 242
    529d:	769bc2        	l16si	a12, a11, 236
    52a0:	789ba2        	l16si	a10, a11, 240
    52a3:	779bb2        	l16si	a11, a11, 238
    52a6:	909c70        	addx2	a9, a12, a7
    52a9:	a399           	s32i.n	a9, a3, 40
    52ab:	90db90        	addx2	a13, a11, a9
    52ae:	a4d9           	s32i.n	a13, a4, 40
    52b0:	90dad0        	addx2	a13, a10, a13
    52b3:	a5d9           	s32i.n	a13, a5, 40
    52b5:	90eed0        	addx2	a14, a14, a13
    52b8:	90cce0        	addx2	a12, a12, a14
    52bb:	90bbc0        	addx2	a11, a11, a12
    52be:	90aab0        	addx2	a10, a10, a11
    52c1:	b2e9           	s32i.n	a14, a2, 44
    52c3:	a2f8           	l32i.n	a15, a2, 40
    52c5:	a4e8           	l32i.n	a14, a4, 40
    52c7:	b3c9           	s32i.n	a12, a3, 44
    52c9:	b4b9           	s32i.n	a11, a4, 44
    52cb:	28c8c2        	addi	a12, a8, 40
    52ce:	50c8b2        	addi	a11, a8, 80
    52d1:	b5a9           	s32i.n	a10, a5, 44
    52d3:	106392        	s32i	a9, a3, 64
    52d6:	64c8a2        	addi	a10, a8, 100
    52d9:	78c892        	addi	a9, a8, 120
    52dc:	1062f2        	s32i	a15, a2, 64
    52df:	1064e2        	s32i	a14, a4, 64
    52e2:	1065d2        	s32i	a13, a5, 64
    52e5:	116382        	s32i	a8, a3, 68
    52e8:	1363c2        	s32i	a12, a3, 76
    52eb:	01d882        	addmi	a8, a8, 0x100
    52ee:	1162b2        	s32i	a11, a2, 68
    52f1:	8cc8c2        	addi	a12, a8, -116
    52f4:	a0c8b2        	addi	a11, a8, -96
    52f7:	1164a2        	s32i	a10, a4, 68
    52fa:	136292        	s32i	a9, a2, 76
    52fd:	c8c8a2        	addi	a10, a8, -56
    5300:	f0c892        	addi	a9, a8, -16
    5303:	1364c2        	s32i	a12, a4, 76
    5306:	884b           	addi.n	a8, a8, 4
    5308:	1365b2        	s32i	a11, a5, 76
    530b:	1263a2        	s32i	a10, a3, 72
    530e:	126292        	s32i	a9, a2, 72
    5311:	126482        	s32i	a8, a4, 72
    5314:	f01d           	retw.n

00005316 <Fill_CH_MEM_WB+0x86>:
	...

00005318 <common_x_pow>:
    5318:	006136        	entry	a1, 48
    531b:	ebe591        	l32r	a9, 2b0 (aba0 <immediate_num>)
    531e:	36c434        	ae_cvtq48a32s	aeq3, a4
    5321:	fe84bec33f 	{ ae_cvtq48a32s	aeq0, a3; ae_absq56	aeq2, aeq3 }
    5326:	065864        	ae_absq56	aeq1, aeq0
    5329:	d65413622f 	{ or	a6, a2, a2; ae_ltq56s	b0, aeq1, aeq2 }
    532e:	eb8451        	l32r	a5, 140 (200000 <_end+0x1f1860>)
    5331:	441904        	ae_lp16x2f.i	aep1, a9, 0
    5334:	200076        	bf	b0, 5358 <common_x_pow+0x40>
    5337:	fb36fec57f 	{ ae_cvtq48a32s	aeq1, a5; ae_subq56	aeq3, aeq2, aeq1 }
    533c:	d65d80012f 	{ movi	a2, 1; ae_ltq56s	b6, aeq1, aeq3 }
    5341:	ebda81        	l32r	a8, 2ac (2aaa00 <_end+0x29c260>)
    5344:	ff0462088f 	{ ae_movpa24x2	aep0, a8, a8; ae_movq56	aeq3, aeq0 }
    5349:	080676        	bf	b6, 5355 <common_x_pow+0x3d>
    534c:	030a14        	ae_mulfq32sp16s.l	aeq1, aeq0, aep0
    534f:	06d934        	ae_roundsq32asym	aeq3, aeq1
    5352:	ffffc6        	j	5355 <common_x_pow+0x3d>

00005355 <common_x_pow+0x3d>:
    5355:	000046        	j	535a <common_x_pow+0x42>

00005358 <common_x_pow+0x40>:
    5358:	020c           	movi.n	a2, 0

0000535a <common_x_pow+0x42>:
    535a:	608624        	ae_lq32f.i	aeq2, a6, 8
    535d:	0f243d263f 	{ ae_lq32f.i	aeq1, a6, 12; ae_mulzaafq32sp16s.lh	aeq2, aeq2, aep1, aeq0, aep1 }
    5362:	c11974        	ae_mulzaafq32sp16s.lh	aeq1, aeq1, aep1, aeq3, aep1
    5365:	06a934        	ae_roundsq32asym	aeq2, aeq2
    5368:	fe2c79a62f 	{ ae_sq32f.i	aeq2, a6, 8; ae_roundsq32asym	aeq2, aeq1 }
    536d:	622634        	ae_sq32f.i	aeq2, a6, 12
    5370:	f01d           	retw.n

00005372 <common_x_pow+0x5a>:
	...

00005374 <ref_gain_adapt>:
    5374:	004136        	entry	a1, 32
    5377:	eb7291        	l32r	a9, 140 (200000 <_end+0x1f1860>)
    537a:	5378           	l32i.n	a7, a3, 20
    537c:	ebce81        	l32r	a8, 2b4 (aba4 <immediate_num+0x4>)
    537f:	360734        	ae_cvtq48a32s	aeq0, a7
    5382:	0205d6        	bgez	a5, 53a6 <ref_gain_adapt+0x32>
    5385:	440804        	ae_lp16x2f.i	aep0, a8, 0
    5388:	059262        	l16si	a6, a2, 10
    538b:	368434        	ae_cvtq48a32s	aeq2, a4
    538e:	038a84        	ae_mulfq32sp16s.h	aeq3, aeq2, aep0
    5391:	116600        	slli	a6, a6, 16
    5394:	364634        	ae_cvtq48a32s	aeq1, a6
    5397:	09b104        	ae_ltq56s	b0, aeq1, aeq3
    539a:	1e0076        	bf	b0, 53bc <ref_gain_adapt+0x48>
    539d:	a10004        	ae_mulzaafq32sp16s.ll	aeq0, aeq0, aep0, aeq0, aep0

000053a0 <ref_gain_adapt+0x2c>:
    53a0:	060934        	ae_roundsq32asym	aeq0, aeq0
    53a3:	368704        	ae_trunca32q48	a7, aeq0

000053a6 <ref_gain_adapt+0x32>:
    53a6:	608344        	ae_lq32f.i	aeq2, a3, 16
    53a9:	539790        	max	a9, a7, a9
    53ac:	5399           	s32i.n	a9, a3, 20
    53ae:	440844        	ae_lp16x2f.i	aep0, a8, 16
    53b1:	c18084        	ae_mulzaafq32sp16s.lh	aeq2, aeq2, aep0, aeq0, aep0
    53b4:	066934        	ae_roundsq32asym	aeq1, aeq2
    53b7:	621344        	ae_sq32f.i	aeq1, a3, 16
    53ba:	f01d           	retw.n

000053bc <ref_gain_adapt+0x48>:
    53bc:	440814        	ae_lp16x2f.i	aep0, a8, 4
    53bf:	038a84        	ae_mulfq32sp16s.h	aeq3, aeq2, aep0
    53c2:	09b114        	ae_ltq56s	b1, aeq1, aeq3
    53c5:	050176        	bf	b1, 53ce <ref_gain_adapt+0x5a>
    53c8:	a10004        	ae_mulzaafq32sp16s.ll	aeq0, aeq0, aep0, aeq0, aep0
    53cb:	fff446        	j	53a0 <ref_gain_adapt+0x2c>

000053ce <ref_gain_adapt+0x5a>:
    53ce:	440824        	ae_lp16x2f.i	aep0, a8, 8
    53d1:	038a44        	ae_mulfq32sp16s.h	aeq3, aeq1, aep0
    53d4:	09b224        	ae_ltq56s	b2, aeq2, aeq3
    53d7:	d5e36d183f 	{ ae_lp16x2f.i	aep1, a8, 12; ae_mulfq32sp16s.l	aeq3, aeq1, aep0 }
    53dc:	c00276        	bf	b2, 53a0 <ref_gain_adapt+0x2c>
    53df:	09a334        	ae_ltq56s	b3, aeq3, aeq2
    53e2:	02d2b2        	addmi	a11, a2, 0x200
    53e5:	3a0c           	movi.n	a10, 3
    53e7:	051376        	bt	b3, 53f0 <ref_gain_adapt+0x7c>
    53ea:	d60bb2        	l8ui	a11, a11, 214
    53ed:	af0ab7        	bnone	a10, a11, 53a0 <ref_gain_adapt+0x2c>

000053f0 <ref_gain_adapt+0x7c>:
    53f0:	031214        	ae_mulfq32sp16s.l	aeq0, aeq0, aep1
    53f3:	ffea46        	j	53a0 <ref_gain_adapt+0x2c>

000053f6 <ref_gain_adapt+0x82>:
	...

000053f8 <aec_post_calc>:
    53f8:	006136        	entry	a1, 48
    53fb:	ebaf91        	l32r	a9, 2b8 (80000 <_end+0x71860>)
    53fe:	eb1ca1        	l32r	a10, 70 (10000 <_end+0x1860>)
    5401:	5d4466        	bnei	a4, 4, 5462 <aec_post_calc+0x6a>
    5404:	364934        	ae_cvtq48a32s	aeq1, a9
    5407:	20c2d2        	addi	a13, a2, 32
    540a:	400d04        	ae_lp16f.i	aep0, a13, 0
    540d:	d4e3f023be 	{ l32i	a11, a3, 8; ae_mulfq32sp16u.l	aeq1, aeq1, aep0 }
    5412:	360a34        	ae_cvtq48a32s	aeq0, a10
    5415:	621104        	ae_sq32f.i	aeq1, a1, 0
    5418:	d4e2b001ce 	{ l32i	a12, a1, 0; ae_mulfq32sp16u.l	aeq0, aeq0, aep0 }
    541d:	620104        	ae_sq32f.i	aeq0, a1, 0
    5420:	53bbc0        	max	a11, a11, a12

00005423 <aec_post_calc+0x2b>:
    5423:	01c8           	l32i.n	a12, a1, 0
    5425:	33a8           	l32i.n	a10, a3, 12
    5427:	eba581        	l32r	a8, 2bc (7f40 <airoha_divide_limit_1>)
    542a:	53aac0        	max	a10, a10, a12
    542d:	43aba0        	min	a10, a11, a10
    5430:	0008e0        	callx8	a8
    5433:	4c2244        	ae_lp24.i	aep2, a2, 16
    5436:	379aa4        	ae_truncp24a32x2	aep1, a10, a10
    5439:	60c364        	ae_lq32f.i	aeq3, a3, 24
    543c:	019a34        	ae_mulafp24s.ll	aeq3, aep1, aep2
    543f:	fe3c7d037f 	{ ae_lq32f.i	aeq0, a3, 28; ae_roundsq32asym	aeq2, aeq3 }
    5444:	622364        	ae_sq32f.i	aeq2, a3, 24
    5447:	1792e2        	l16si	a14, a2, 46
    544a:	0292d2        	l16si	a13, a2, 4
    544d:	403274        	ae_lp16f.i	aep3, a2, 14
    5450:	f866a162fe 	{ l16si	a15, a2, 44; ae_movp48	aep0, aep1 }
    5455:	2bade7        	bge	a13, a14, 5484 <aec_post_calc+0x8c>
    5458:	0a9292        	l16si	a9, a2, 20
    545b:	411fe6        	bgei	a15, 1, 54a0 <aec_post_calc+0xa8>
    545e:	001006        	j	54a2 <aec_post_calc+0xaa>

00005461 <aec_post_calc+0x69>:
	...

00005462 <aec_post_calc+0x6a>:
    5462:	364934        	ae_cvtq48a32s	aeq1, a9
    5465:	1ec2d2        	addi	a13, a2, 30
    5468:	401d04        	ae_lp16f.i	aep1, a13, 0
    546b:	d4e7f023be 	{ l32i	a11, a3, 8; ae_mulfq32sp16u.l	aeq1, aeq1, aep1 }
    5470:	360a34        	ae_cvtq48a32s	aeq0, a10
    5473:	621104        	ae_sq32f.i	aeq1, a1, 0
    5476:	d4e6b001ce 	{ l32i	a12, a1, 0; ae_mulfq32sp16u.l	aeq0, aeq0, aep1 }
    547b:	620104        	ae_sq32f.i	aeq0, a1, 0
    547e:	53bbc0        	max	a11, a11, a12
    5481:	ffe786        	j	5423 <aec_post_calc+0x2b>

00005484 <aec_post_calc+0x8c>:
    5484:	0b9292        	l16si	a9, a2, 22
    5487:	e90b           	addi.n	a14, a9, -1
    5489:	05ae76        	loopgtz	a14, 5492 <aec_post_calc+0x9a>
    548c:	018174        	ae_mulfp24s.ll	aeq2, aep0, aep1
    548f:	1bad04        	ae_roundsp24q48asym	aep0, aeq2

00005492 <aec_post_calc+0x9a>:
    5492:	070b34        	ae_maxp24s	aep3, aep0, aep3
    5495:	013234        	ae_mulafp24s.ll	aeq0, aep3, aep2
    5498:	06c934        	ae_roundsq32asym	aeq3, aeq0
    549b:	623374        	ae_sq32f.i	aeq3, a3, 28
    549e:	f01d           	retw.n

000054a0 <aec_post_calc+0xa8>:
    54a0:	992b           	addi.n	a9, a9, 2

000054a2 <aec_post_calc+0xaa>:
    54a2:	031694        	wur.ae_sar	a9
    54a5:	0b1084        	ae_sllssp24s	aep0, aep1
    54a8:	fff986        	j	5492 <aec_post_calc+0x9a>

000054ab <aec_post_calc+0xb3>:
	...

000054ac <aec_post_calc_sb>:
    54ac:	006136        	entry	a1, 48
    54af:	eb8381        	l32r	a8, 2bc (7f40 <airoha_divide_limit_1>)
    54b2:	33c8           	l32i.n	a12, a3, 12
    54b4:	eaefd1        	l32r	a13, 70 (10000 <_end+0x1860>)
    54b7:	eb80e1        	l32r	a14, 2b8 (80000 <_end+0x71860>)
    54ba:	00a1f2        	movi	a15, 0x100
    54bd:	300ff4        	ae_cvtp24a16x2.ll	aep0, a15, a15
    54c0:	364e34        	ae_cvtq48a32s	aeq1, a14
    54c3:	d4e3f023ae 	{ l32i	a10, a3, 8; ae_mulfq32sp16u.l	aeq1, aeq1, aep0 }
    54c8:	360d34        	ae_cvtq48a32s	aeq0, a13
    54cb:	d4e2b9910f 	{ ae_sq32f.i	aeq1, a1, 0; ae_mulfq32sp16u.l	aeq0, aeq0, aep0 }
    54d0:	01b8           	l32i.n	a11, a1, 0
    54d2:	620104        	ae_sq32f.i	aeq0, a1, 0
    54d5:	01d8           	l32i.n	a13, a1, 0
    54d7:	53aab0        	max	a10, a10, a11
    54da:	0abd           	mov.n	a11, a10
    54dc:	53ccd0        	max	a12, a12, a13
    54df:	43aac0        	min	a10, a10, a12
    54e2:	0008e0        	callx8	a8
    54e5:	4c2244        	ae_lp24.i	aep2, a2, 16
    54e8:	379aa4        	ae_truncp24a32x2	aep1, a10, a10
    54eb:	60c364        	ae_lq32f.i	aeq3, a3, 24
    54ee:	019a34        	ae_mulafp24s.ll	aeq3, aep1, aep2
    54f1:	30c3c2        	addi	a12, a3, 48
    54f4:	fe3c61c39e 	{ l16si	a9, a3, 56; ae_roundsq32asym	aeq2, aeq3 }
    54f9:	622364        	ae_sq32f.i	aeq2, a3, 24
    54fc:	029282        	l16si	a8, a2, 4
    54ff:	1b93a2        	l16si	a10, a3, 54
    5502:	f866bd437f 	{ ae_lq32f.i	aeq2, a3, 28; ae_movp48	aep0, aep1 }
    5507:	09a897        	bge	a8, a9, 5514 <aec_post_calc_sb+0x68>
    550a:	0a9292        	l16si	a9, a2, 20
    550d:	221ae6        	bgei	a10, 1, 5533 <aec_post_calc_sb+0x87>
    5510:	000846        	j	5535 <aec_post_calc_sb+0x89>

00005513 <aec_post_calc_sb+0x67>:
	...

00005514 <aec_post_calc_sb+0x68>:
    5514:	1a9392        	l16si	a9, a3, 52
    5517:	b90b           	addi.n	a11, a9, -1
    5519:	05ab76        	loopgtz	a11, 5522 <aec_post_calc_sb+0x76>
    551c:	010174        	ae_mulfp24s.ll	aeq0, aep0, aep1
    551f:	1b8d04        	ae_roundsp24q48asym	aep0, aeq0

00005522 <aec_post_calc_sb+0x76>:
    5522:	401c04        	ae_lp16f.i	aep1, a12, 0
    5525:	070914        	ae_maxp24s	aep1, aep0, aep1
    5528:	019234        	ae_mulafp24s.ll	aeq2, aep1, aep2
    552b:	066934        	ae_roundsq32asym	aeq1, aeq2
    552e:	621374        	ae_sq32f.i	aeq1, a3, 28
    5531:	f01d           	retw.n

00005533 <aec_post_calc_sb+0x87>:
    5533:	992b           	addi.n	a9, a9, 2

00005535 <aec_post_calc_sb+0x89>:
    5535:	031694        	wur.ae_sar	a9
    5538:	0b1084        	ae_sllssp24s	aep0, aep1
    553b:	fff8c6        	j	5522 <aec_post_calc_sb+0x76>

0000553e <aec_post_calc_sb+0x92>:
	...

00005540 <aec_post_calc_FB>:
    5540:	004136        	entry	a1, 32
    5543:	eb5e81        	l32r	a8, 2bc (7f40 <airoha_divide_limit_1>)
    5546:	eabfb1        	l32r	a11, 44 (1000 <inv_mel_filter+0x4>)
    5549:	33c8           	l32i.n	a12, a3, 12
    554b:	23a8           	l32i.n	a10, a3, 8
    554d:	00a2d2        	movi	a13, 0x200
    5550:	53ccd0        	max	a12, a12, a13
    5553:	53aab0        	max	a10, a10, a11
    5556:	0abd           	mov.n	a11, a10
    5558:	43aac0        	min	a10, a10, a12
    555b:	0008e0        	callx8	a8
    555e:	4c2244        	ae_lp24.i	aep2, a2, 16
    5561:	379aa4        	ae_truncp24a32x2	aep1, a10, a10
    5564:	604364        	ae_lq32f.i	aeq1, a3, 24
    5567:	011a34        	ae_mulafp24s.ll	aeq1, aep1, aep2
    556a:	fc2c4322be 	{ addi	a11, a2, 50; ae_roundsq32asym	aeq0, aeq1 }
    556f:	620364        	ae_sq32f.i	aeq0, a3, 24
    5572:	1c92f2        	l16si	a15, a2, 56
    5575:	0292e2        	l16si	a14, a2, 4
    5578:	600374        	ae_lq32f.i	aeq0, a3, 28
    557b:	f866a1d28e 	{ l16si	a8, a2, 58; ae_movp48	aep0, aep1 }
    5580:	08aef7        	bge	a14, a15, 558c <aec_post_calc_FB+0x4c>
    5583:	0a9292        	l16si	a9, a2, 20
    5586:	2118e6        	bgei	a8, 1, 55ab <aec_post_calc_FB+0x6b>
    5589:	000806        	j	55ad <aec_post_calc_FB+0x6d>

0000558c <aec_post_calc_FB+0x4c>:
    558c:	0b9292        	l16si	a9, a2, 22
    558f:	a90b           	addi.n	a10, a9, -1
    5591:	05aa76        	loopgtz	a10, 559a <aec_post_calc_FB+0x5a>
    5594:	018174        	ae_mulfp24s.ll	aeq2, aep0, aep1
    5597:	1bad04        	ae_roundsp24q48asym	aep0, aeq2

0000559a <aec_post_calc_FB+0x5a>:
    559a:	401b04        	ae_lp16f.i	aep1, a11, 0
    559d:	070914        	ae_maxp24s	aep1, aep0, aep1
    55a0:	011234        	ae_mulafp24s.ll	aeq0, aep1, aep2
    55a3:	06c934        	ae_roundsq32asym	aeq3, aeq0
    55a6:	623374        	ae_sq32f.i	aeq3, a3, 28
    55a9:	f01d           	retw.n

000055ab <aec_post_calc_FB+0x6b>:
    55ab:	992b           	addi.n	a9, a9, 2

000055ad <aec_post_calc_FB+0x6d>:
    55ad:	031694        	wur.ae_sar	a9
    55b0:	0b1084        	ae_sllssp24s	aep0, aep1
    55b3:	fff8c6        	j	559a <aec_post_calc_FB+0x5a>

000055b6 <aec_post_calc_FB+0x76>:
	...

000055b8 <aec_post_calc_FB_sb>:
    55b8:	004136        	entry	a1, 32
    55bb:	eb4081        	l32r	a8, 2bc (7f40 <airoha_divide_limit_1>)
    55be:	eaa1b1        	l32r	a11, 44 (1000 <inv_mel_filter+0x4>)
    55c1:	33c8           	l32i.n	a12, a3, 12
    55c3:	23a8           	l32i.n	a10, a3, 8
    55c5:	00a2d2        	movi	a13, 0x200
    55c8:	53ccd0        	max	a12, a12, a13
    55cb:	53aab0        	max	a10, a10, a11
    55ce:	0abd           	mov.n	a11, a10
    55d0:	43aac0        	min	a10, a10, a12
    55d3:	0008e0        	callx8	a8
    55d6:	4c2244        	ae_lp24.i	aep2, a2, 16
    55d9:	379aa4        	ae_truncp24a32x2	aep1, a10, a10
    55dc:	604364        	ae_lq32f.i	aeq1, a3, 24
    55df:	e247c303be 	{ addi	a11, a3, 48; ae_mulafp24s.ll	aeq1, aep1, aep2 }
    55e4:	1b9382        	l16si	a8, a3, 54
    55e7:	fc2c61c3fe 	{ l16si	a15, a3, 56; ae_roundsq32asym	aeq0, aeq1 }
    55ec:	620364        	ae_sq32f.i	aeq0, a3, 24
    55ef:	0292e2        	l16si	a14, a2, 4
    55f2:	600374        	ae_lq32f.i	aeq0, a3, 28
    55f5:	f866a0a29e 	{ l16si	a9, a2, 20; ae_movp48	aep0, aep1 }
    55fa:	06aef7        	bge	a14, a15, 5604 <aec_post_calc_FB_sb+0x4c>
    55fd:	2218e6        	bgei	a8, 1, 5623 <aec_post_calc_FB_sb+0x6b>
    5600:	000846        	j	5625 <aec_post_calc_FB_sb+0x6d>

00005603 <aec_post_calc_FB_sb+0x4b>:
	...

00005604 <aec_post_calc_FB_sb+0x4c>:
    5604:	1a9392        	l16si	a9, a3, 52
    5607:	a90b           	addi.n	a10, a9, -1
    5609:	05aa76        	loopgtz	a10, 5612 <aec_post_calc_FB_sb+0x5a>
    560c:	018174        	ae_mulfp24s.ll	aeq2, aep0, aep1
    560f:	1bad04        	ae_roundsp24q48asym	aep0, aeq2

00005612 <aec_post_calc_FB_sb+0x5a>:
    5612:	401b04        	ae_lp16f.i	aep1, a11, 0
    5615:	070914        	ae_maxp24s	aep1, aep0, aep1
    5618:	011234        	ae_mulafp24s.ll	aeq0, aep1, aep2
    561b:	06c934        	ae_roundsq32asym	aeq3, aeq0
    561e:	623374        	ae_sq32f.i	aeq3, a3, 28
    5621:	f01d           	retw.n

00005623 <aec_post_calc_FB_sb+0x6b>:
    5623:	992b           	addi.n	a9, a9, 2

00005625 <aec_post_calc_FB_sb+0x6d>:
    5625:	031694        	wur.ae_sar	a9
    5628:	0b1084        	ae_sllssp24s	aep0, aep1
    562b:	fff8c6        	j	5612 <aec_post_calc_FB_sb+0x5a>

0000562e <aec_post_calc_FB_sb+0x76>:
	...

00005630 <subband_aec_block>:
    5630:	008136        	entry	a1, 64
    5633:	069d           	mov.n	a9, a6
    5635:	1023d2        	l32i	a13, a3, 64
    5638:	4e0c           	movi.n	a14, 4
    563a:	60c344        	ae_lq32f.i	aeq3, a3, 16
    563d:	119382        	l16si	a8, a3, 34
    5640:	1223c2        	l32i	a12, a3, 72
    5643:	ba22b2        	l32i	a11, a2, 0x2e8
    5646:	2a0c           	movi.n	a10, 2
    5648:	a3f8           	l32i.n	a15, a3, 40
    564a:	f3f6f0        	wur.ae_cbegin0	a15
    564d:	d2a4a0        	quos	a10, a4, a10
    5650:	fccbb2        	addi	a11, a11, -4
    5653:	440c04        	ae_lp16x2f.i	aep0, a12, 0
    5656:	fc249188ff 	{ addx2	a8, a8, a15; ae_zeroq56	aeq0 }
    565b:	f3f780        	wur.ae_cend0	a8
    565e:	19aa76        	loopgtz	a10, 567b <subband_aec_block+0x4b>
    5661:	a180f4        	ae_mulzaafq32sp16s.ll	aeq2, aeq3, aep0, aeq3, aep0
    5664:	b108f4        	ae_mulzaafq32sp16s.hh	aeq1, aeq3, aep0, aeq3, aep0
    5667:	f9739abdef 	{ ae_lp16x2f.c	aep3, a13, a14; ae_roundsp16q48asym	aep2, aeq2 }
    566c:	f86bed8c1f 	{ ae_lp16x2f.iu	aep0, a12, 4; ae_roundsp16q48asym	aep1, aeq1 }
    5671:	f06e3e125f 	{ ae_selp24.hl	aep1, aep1, aep2; ae_mulssfp24s.hh.ll	aeq0, aep3, aep3 }
    5676:	e224339b1f 	{ ae_sp16x2f.iu	aep1, a11, 4; ae_mulaafp24s.hh.ll	aeq0, aep1, aep1 }

0000567b <subband_aec_block+0x4b>:
    567b:	31a9           	s32i.n	a10, a1, 12
    567d:	35c234        	ae_sraiq56	aeq3, aeq0, 8
    5680:	618304        	ae_lq56.i	aeq2, a3, 0
    5683:	faf63092be 	{ l32i	a11, a2, 36; ae_addq56	aeq2, aeq2, aeq3 }
    5688:	fc80fecb7f 	{ ae_cvtq48a32s	aeq1, a11; ae_satq48s	aeq0, aeq2 }
    568d:	f86b14219f 	{ s32i.n	a9, a1, 8; ae_maxq56s	aeq0, aeq0, aeq1 }
    5692:	630304        	ae_sq56s.i	aeq0, a3, 0
    5695:	0145d6        	bgez	a5, 56ad <subband_aec_block+0x7d>
    5698:	1093a2        	l16si	a10, a3, 32
    569b:	eb0981        	l32r	a8, 2c0 (7e38 <airoha_divide>)
    569e:	368b04        	ae_trunca32q48	a11, aeq0
    56a1:	11aa70        	slli	a10, a10, 9
    56a4:	0008e0        	callx8	a8
    56a7:	0061b2        	s32i	a11, a1, 0
    56aa:	0161a2        	s32i	a10, a1, 4

000056ad <subband_aec_block+0x7d>:
    56ad:	270c           	movi.n	a7, 2
    56af:	1023a2        	l32i	a10, a3, 64
    56b2:	119362        	l16si	a6, a3, 34
    56b5:	132392        	l32i	a9, a3, 76
    56b8:	ba22d2        	l32i	a13, a2, 0x2e8
    56bb:	0b23c2        	l32i	a12, a3, 44
    56be:	1123e2        	l32i	a14, a3, 68
    56c1:	fecdd2        	addi	a13, a13, -2
    56c4:	feccc2        	addi	a12, a12, -2
    56c7:	feceb2        	addi	a11, a14, -2
    56ca:	fec9f2        	addi	a15, a9, -2
    56cd:	6014a6        	blti	a4, 1, 5731 <subband_aec_block+0x101>
    56d0:	00a0e2        	movi	a14, 0

000056d3 <subband_aec_block+0xa3>:
    56d3:	0c9d           	mov.n	a9, a12
    56d5:	40dd14        	ae_lp16f.iu	aep5, a13, 2
    56d8:	fc24e2da7f 	{ ae_sp16f.l.c	aep5, a10, a7; nop }
    56dd:	40cb14        	ae_lp16f.iu	aep4, a11, 2
    56e0:	fc8c2c891f 	{ ae_lp16f.iu	aep0, a9, 2; ae_cvtq48p24s.l	aeq0, aep4 }
    56e5:	09a676        	loopgtz	a6, 56f2 <subband_aec_block+0xc2>
    56e8:	fc24d96a7f 	{ ae_lp16f.c	aep6, a10, a7; nop }
    56ed:	eec1ac891f 	{ ae_lp16f.iu	aep0, a9, 2; ae_mulsfp24s.ll	aeq0, aep0, aep6 }

000056f2 <subband_aec_block+0xc2>:
    56f2:	f863801eee 	{ addi	a14, a14, 1; ae_roundsp16q48asym	aep0, aeq0 }
    56f7:	428f14        	ae_sp16f.l.iu	aep0, a15, 2
    56fa:	02a5d6        	bgez	a5, 5728 <subband_aec_block+0xf8>
    56fd:	002192        	l32i	a9, a1, 0
    5700:	364934        	ae_cvtq48a32s	aeq1, a9
    5703:	d4e370118e 	{ l32i	a8, a1, 4; ae_mulfq32sp16s.l	aeq1, aeq1, aep0 }
    5708:	209cc0        	or	a9, a12, a12
    570b:	fc24fe980f 	{ ae_slaasq56s	aeq0, aeq1, a8; nop }
    5710:	f967ac891f 	{ ae_lp16f.iu	aep0, a9, 2; ae_roundsp24q48asym	aep2, aeq0 }
    5715:	0fa676        	loopgtz	a6, 5728 <subband_aec_block+0xf8>

00005718 <subband_aec_block+0xe8>:
    5718:	fe0c190a7f 	{ ae_lp16f.c	aep0, a10, a7; ae_cvtq48p24s.l	aeq2, aep0 }
    571d:	01a034        	ae_mulafp24s.ll	aeq2, aep2, aep0
    5720:	fb73ec891f 	{ ae_lp16f.iu	aep0, a9, 2; ae_roundsp16q48asym	aep7, aeq2 }
    5725:	4279f4        	ae_sp16f.l.i	aep7, a9, -2
    5728:	a794e7        	bne	a4, a14, 56d3 <subband_aec_block+0xa3>
    572b:	1123e2        	l32i	a14, a3, 68
    572e:	132392        	l32i	a9, a3, 76

00005731 <subband_aec_block+0x101>:
    5731:	31b8           	l32i.n	a11, a1, 12
    5733:	1063a2        	s32i	a10, a3, 64
    5736:	fcc992        	addi	a9, a9, -4
    5739:	fd248fceae 	{ addi	a10, a14, -4; ae_zeroq56	aeq1 }
    573e:	fe0c7f113f 	{ ae_movq56	aeq0, aeq1; ae_movq56	aeq2, aeq1 }
    5743:	f03d           	nop.n
    5745:	0dab76        	loopgtz	a11, 5756 <subband_aec_block+0x126>
    5748:	449a14        	ae_lp16x2f.iu	aep1, a10, 4
    574b:	e2242da91f 	{ ae_lp16x2f.iu	aep2, a9, 4; ae_mulaafp24s.hh.ll	aeq0, aep1, aep1 }
    5750:	05a204        	ae_mulaafp24s.hh.ll	aeq2, aep2, aep2
    5753:	051a04        	ae_mulaafp24s.hh.ll	aeq1, aep1, aep2

00005756 <subband_aec_block+0x126>:
    5756:	21c8           	l32i.n	a12, a1, 8
    5758:	114ca6        	blti	a12, 4, 576d <subband_aec_block+0x13d>
    575b:	35e134        	ae_sraiq56	aeq3, aeq2, 4
    575e:	01efc4        	ae_subq56	aeq3, aeq2, aeq3
    5761:	09b004        	ae_ltq56s	b0, aeq0, aeq3
    5764:	030460        	rsr.br	a6
    5767:	046060        	extui	a6, a6, 0, 1
    576a:	000046        	j	576f <subband_aec_block+0x13f>

0000576d <subband_aec_block+0x13d>:
    576d:	060c           	movi.n	a6, 0

0000576f <subband_aec_block+0x13f>:
    576f:	03ad           	mov.n	a10, a3
    5771:	ead481        	l32r	a8, 2c4 (5318 <common_x_pow>)
    5774:	35c134        	ae_sraiq56	aeq3, aeq0, 4
    5777:	fd3c7b118f 	{ ae_sraiq56	aeq2, aeq1, 4; ae_roundsq32asym	aeq1, aeq3 }
    577c:	fc347f1bef 	{ ae_trunca32q48	a11, aeq1; ae_roundsq32asym	aeq0, aeq2 }
    5781:	368c04        	ae_trunca32q48	a12, aeq0
    5784:	0008e0        	callx8	a8
    5787:	9a6a           	add.n	a9, a10, a6
    5789:	c98c           	beqz.n	a9, 5799 <subband_aec_block+0x169>
    578b:	04cd           	mov.n	a12, a4
    578d:	ea2781        	l32r	a8, 2c (8838 <xt_memcpy>)
    5790:	1323a2        	l32i	a10, a3, 76
    5793:	1123b2        	l32i	a11, a3, 68
    5796:	0008e0        	callx8	a8

00005799 <subband_aec_block+0x169>:
    5799:	2d0c           	movi.n	a13, 2
    579b:	b3c8           	l32i.n	a12, a3, 44
    579d:	0d92a2        	l16si	a10, a2, 26
    57a0:	fc24a1139e 	{ l16si	a9, a3, 34; ae_zeroq56	aeq0 }
    57a5:	630124        	ae_sq56s.i	aeq0, a1, 16
    57a8:	11baf0        	slli	a11, a10, 1
    57ab:	9099c0        	addx2	a9, a9, a12
    57ae:	d2aad0        	quos	a10, a10, a13
    57b1:	8aad           	ae_sext16	a10, a10
    57b3:	c099b0        	sub	a9, a9, a11
    57b6:	fcc992        	addi	a9, a9, -4
    57b9:	08aa76        	loopgtz	a10, 57c5 <subband_aec_block+0x195>
    57bc:	44b914        	ae_lp16x2f.iu	aep3, a9, 4
    57bf:	053304        	ae_mulaafp24s.hh.ll	aeq0, aep3, aep3
    57c2:	630124        	ae_sq56s.i	aeq0, a1, 16

000057c5 <subband_aec_block+0x195>:
    57c5:	eabd81        	l32r	a8, 2bc (7f40 <airoha_divide_limit_1>)
    57c8:	33a8           	l32i.n	a10, a3, 12
    57ca:	610124        	ae_lq56.i	aeq0, a1, 16
    57cd:	3540b4        	ae_sraiq56	aeq1, aeq0, 2
    57d0:	fc2c4000bf 	{ movi	a11, 0; ae_roundsq32asym	aeq0, aeq1 }
    57d5:	53aab0        	max	a10, a10, a11
    57d8:	630124        	ae_sq56s.i	aeq0, a1, 16
    57db:	23b8           	l32i.n	a11, a3, 8
    57dd:	0008e0        	callx8	a8
    57e0:	610124        	ae_lq56.i	aeq0, a1, 16
    57e3:	0492f2        	l16si	a15, a2, 8
    57e6:	ea1de1        	l32r	a14, 5c (7fff <xtensa_fft8_32b+0x27>)
    57e9:	3180a0        	srai	a8, a10, 16
    57ec:	1293b2        	l16si	a11, a3, 36
    57ef:	c0ee80        	sub	a14, a14, a8
    57f2:	53eef0        	max	a14, a14, a15
    57f5:	256b17        	bbci	a11, 1, 581e <subband_aec_block+0x1ee>
    57f8:	05dd           	mov.n	a13, a5
    57fa:	02ad           	mov.n	a10, a2
    57fc:	03bd           	mov.n	a11, a3
    57fe:	039292        	l16si	a9, a2, 6
    5801:	368404        	ae_trunca32q48	a4, aeq0
    5804:	eab181        	l32r	a8, 2c8 (5374 <ref_gain_adapt>)
    5807:	8299e0        	mull	a9, a9, a14
    580a:	04cd           	mov.n	a12, a4
    580c:	40d992        	addmi	a9, a9, 0x4000
    580f:	219f90        	srai	a9, a9, 15
    5812:	105392        	s16i	a9, a3, 32
    5815:	0008e0        	callx8	a8
    5818:	1293b2        	l16si	a11, a3, 36
    581b:	000146        	j	5824 <subband_aec_block+0x1f4>

0000581e <subband_aec_block+0x1ee>:
    581e:	1053e2        	s16i	a14, a3, 32
    5821:	368404        	ae_trunca32q48	a4, aeq0

00005824 <subband_aec_block+0x1f4>:
    5824:	0592a2        	l16si	a10, a2, 10
    5827:	11aa00        	slli	a10, a10, 16
    582a:	54aa47        	bge	a10, a4, 5882 <subband_aec_block+0x252>
    582d:	eaa7a1        	l32r	a10, 2cc (abb8 <immediate_num+0x18>)
    5830:	0692c2        	l16si	a12, a2, 12
    5833:	20bb70        	or	a11, a11, a7
    5836:	1253b2        	s16i	a11, a3, 36
    5839:	11cc00        	slli	a12, a12, 16
    583c:	05ac47        	bge	a12, a4, 5845 <subband_aec_block+0x215>
    583f:	403a04        	ae_lp16f.i	aep3, a10, 0
    5842:	000086        	j	5848 <subband_aec_block+0x218>

00005845 <subband_aec_block+0x215>:
    5845:	403a14        	ae_lp16f.i	aep3, a10, 2

00005848 <subband_aec_block+0x218>:
    5848:	b3e8           	l32i.n	a14, a3, 44
    584a:	0d92d2        	l16si	a13, a2, 26
    584d:	1193a2        	l16si	a10, a3, 34
    5850:	2f0c           	movi.n	a15, 2
    5852:	11cdf0        	slli	a12, a13, 1
    5855:	90aae0        	addx2	a10, a10, a14
    5858:	d2ddf0        	quos	a13, a13, a15
    585b:	8ddd           	ae_sext16	a13, a13
    585d:	c0aac0        	sub	a10, a10, a12
    5860:	feca92        	addi	a9, a10, -2
    5863:	440a04        	ae_lp16x2f.i	aep0, a10, 0
    5866:	181da6        	blti	a13, 1, 5882 <subband_aec_block+0x252>
    5869:	12ad76        	loopgtz	a13, 587f <subband_aec_block+0x24f>
    586c:	018b54        	ae_mulfp24s.hl	aeq3, aep0, aep3
    586f:	018374        	ae_mulfp24s.ll	aeq2, aep0, aep3
    5872:	fa7bed8a1f 	{ ae_lp16x2f.iu	aep0, a10, 4; ae_roundsp16q48asym	aep5, aeq3 }
    5877:	fa73b2d91f 	{ ae_sp16f.l.iu	aep5, a9, 2; ae_roundsp16q48asym	aep4, aeq2 }
    587c:	42c914        	ae_sp16f.l.iu	aep4, a9, 2

0000587f <subband_aec_block+0x24f>:
    587f:	1293b2        	l16si	a11, a3, 36
    5882:	146b07        	bbci	a11, 0, 589a <subband_aec_block+0x26a>
    5885:	02d282        	addmi	a8, a2, 0x200
    5888:	7a9882        	l16si	a8, a8, 244
    588b:	311866        	bnei	a8, 1, 58c0 <subband_aec_block+0x290>
    588e:	ea9081        	l32r	a8, 2d0 (54ac <aec_post_calc_sb>)
    5891:	02ad           	mov.n	a10, a2
    5893:	03bd           	mov.n	a11, a3
    5895:	0008e0        	callx8	a8
    5898:	f01d           	retw.n

0000589a <subband_aec_block+0x26a>:
    589a:	206b27        	bbci	a11, 2, 58be <subband_aec_block+0x28e>
    589d:	02d292        	addmi	a9, a2, 0x200
    58a0:	7a9992        	l16si	a9, a9, 244
    58a3:	0b1966        	bnei	a9, 1, 58b2 <subband_aec_block+0x282>
    58a6:	ea8b81        	l32r	a8, 2d4 (55b8 <aec_post_calc_FB_sb>)
    58a9:	02ad           	mov.n	a10, a2
    58ab:	03bd           	mov.n	a11, a3
    58ad:	0008e0        	callx8	a8
    58b0:	f01d           	retw.n

000058b2 <subband_aec_block+0x282>:
    58b2:	02ad           	mov.n	a10, a2
    58b4:	ea8981        	l32r	a8, 2d8 (5540 <aec_post_calc_FB>)
    58b7:	03bd           	mov.n	a11, a3
    58b9:	21c8           	l32i.n	a12, a1, 8
    58bb:	0008e0        	callx8	a8
    58be:	f01d           	retw.n

000058c0 <subband_aec_block+0x290>:
    58c0:	03bd           	mov.n	a11, a3
    58c2:	ea8681        	l32r	a8, 2dc (53f8 <aec_post_calc>)
    58c5:	02ad           	mov.n	a10, a2
    58c7:	21c8           	l32i.n	a12, a1, 8
    58c9:	0008e0        	callx8	a8
    58cc:	f01d           	retw.n

000058ce <subband_aec_block+0x29e>:
	...

000058d0 <subband_aec_mid_channel>:
    58d0:	008136        	entry	a1, 64
    58d3:	102392        	l32i	a9, a3, 64
    58d6:	60c344        	ae_lq32f.i	aeq3, a3, 16
    58d9:	460c           	movi.n	a6, 4
    58db:	2159           	s32i.n	a5, a1, 8
    58dd:	0aa082        	movi	a8, 10
    58e0:	1193c2        	l16si	a12, a3, 34
    58e3:	0a23d2        	l32i	a13, a3, 40
    58e6:	ba22b2        	l32i	a11, a2, 0x2e8
    58e9:	f3f6d0        	wur.ae_cbegin0	a13
    58ec:	a0ccd0        	addx4	a12, a12, a13
    58ef:	1223d2        	l32i	a13, a3, 72
    58f2:	fccbb2        	addi	a11, a11, -4
    58f5:	f3f7c0        	wur.ae_cend0	a12
    58f8:	fc24ad0d0f 	{ ae_lp16x2f.i	aep0, a13, 0; ae_zeroq56	aeq0 }
    58fd:	19a876        	loopgtz	a8, 591a <subband_aec_mid_channel+0x4a>
    5900:	a180f4        	ae_mulzaafq32sp16s.ll	aeq2, aeq3, aep0, aeq3, aep0
    5903:	b108f4        	ae_mulzaafq32sp16s.hh	aeq1, aeq3, aep0, aeq3, aep0
    5906:	f9739ab96f 	{ ae_lp16x2f.c	aep3, a9, a6; ae_roundsp16q48asym	aep2, aeq2 }
    590b:	f86bed8d1f 	{ ae_lp16x2f.iu	aep0, a13, 4; ae_roundsp16q48asym	aep1, aeq1 }
    5910:	f06e3e125f 	{ ae_selp24.hl	aep1, aep1, aep2; ae_mulssfp24s.hh.ll	aeq0, aep3, aep3 }
    5915:	e224339b1f 	{ ae_sp16x2f.iu	aep1, a11, 4; ae_mulaafp24s.hh.ll	aeq0, aep1, aep1 }

0000591a <subband_aec_mid_channel+0x4a>:
    591a:	92e8           	l32i.n	a14, a2, 36
    591c:	35c1b4        	ae_sraiq56	aeq3, aeq0, 6
    591f:	618304        	ae_lq56.i	aeq2, a3, 0
    5922:	01abc4        	ae_addq56	aeq2, aeq2, aeq3
    5925:	11eee0        	slli	a14, a14, 2
    5928:	fc80fece7f 	{ ae_cvtq48a32s	aeq1, a14; ae_satq48s	aeq0, aeq2 }
    592d:	0110c4        	ae_maxq56s	aeq0, aeq0, aeq1
    5930:	630304        	ae_sq56s.i	aeq0, a3, 0
    5933:	0154d6        	bgez	a4, 594c <subband_aec_mid_channel+0x7c>
    5936:	1093a2        	l16si	a10, a3, 32
    5939:	ea6181        	l32r	a8, 2c0 (7e38 <airoha_divide>)
    593c:	368b04        	ae_trunca32q48	a11, aeq0
    593f:	11aa50        	slli	a10, a10, 11
    5942:	0008e0        	callx8	a8
    5945:	0bed           	mov.n	a14, a11
    5947:	0add           	mov.n	a13, a10
    5949:	ffffc6        	j	594c <subband_aec_mid_channel+0x7c>

0000594c <subband_aec_mid_channel+0x7c>:
    594c:	102392        	l32i	a9, a3, 64
    594f:	119352        	l16si	a5, a3, 34
    5952:	a70c           	movi.n	a7, 10
    5954:	11e9           	s32i.n	a14, a1, 4
    5956:	01d9           	s32i.n	a13, a1, 0
    5958:	b3c8           	l32i.n	a12, a3, 44
    595a:	1123f2        	l32i	a15, a3, 68
    595d:	1323a2        	l32i	a10, a3, 76
    5960:	ba22b2        	l32i	a11, a2, 0x2e8
    5963:	fccff2        	addi	a15, a15, -4
    5966:	fecaa2        	addi	a10, a10, -2
    5969:	fccbb2        	addi	a11, a11, -4
    596c:	fecc82        	addi	a8, a12, -2
    596f:	3189           	s32i.n	a8, a1, 12

00005971 <subband_aec_mid_channel+0xa1>:
    5971:	44db14        	ae_lp16x2f.iu	aep5, a11, 4
    5974:	fc24e4596f 	{ ae_sp16x2f.c	aep5, a9, a6; nop }
    5979:	44cf14        	ae_lp16x2f.iu	aep4, a15, 4
    597c:	fd8413dccf 	{ or	a13, a12, a12; ae_cvtq48p24s.h	aeq1, aep4 }
    5981:	fc8c2d0c0f 	{ ae_lp16x2f.i	aep0, a12, 0; ae_cvtq48p24s.l	aeq0, aep4 }
    5986:	0ca576        	loopgtz	a5, 5996 <subband_aec_mid_channel+0xc6>
    5989:	fc24dae96f 	{ ae_lp16x2f.c	aep6, a9, a6; nop }
    598e:	050ec4        	ae_mulssfp24s.hh.ll	aeq1, aep0, aep6
    5991:	eec02d8d1f 	{ ae_lp16x2f.iu	aep0, a13, 4; ae_mulsafp24s.hl.lh	aeq0, aep0, aep6 }

00005996 <subband_aec_mid_channel+0xc6>:
    5996:	f86b8ff77e 	{ addi	a7, a7, -1; ae_roundsp16q48asym	aep0, aeq1 }
    599b:	f863f28a1f 	{ ae_sp16f.l.iu	aep0, a10, 2; ae_roundsp16q48asym	aep1, aeq0 }
    59a0:	429a14        	ae_sp16f.l.iu	aep1, a10, 2
    59a3:	0444d6        	bgez	a4, 59eb <subband_aec_mid_channel+0x11b>
    59a6:	0121d2        	l32i	a13, a1, 4
    59a9:	368d34        	ae_cvtq48a32s	aeq2, a13
    59ac:	038a94        	ae_mulfq32sp16s.l	aeq3, aeq2, aep0
    59af:	d7e630018e 	{ l32i	a8, a1, 0; ae_mulfq32sp16s.l	aeq2, aeq2, aep1 }
    59b4:	fc24feb80f 	{ ae_slaasq56s	aeq0, aeq3, a8; nop }
    59b9:	fc24fea84f 	{ ae_slaasq56s	aeq1, aeq2, a8; nop }
    59be:	fa6fb031ee 	{ l32i	a14, a1, 12; ae_roundsp24q48asym	aep4, aeq1 }
    59c3:	f967d3dccf 	{ or	a13, a12, a12; ae_roundsp24q48asym	aep3, aeq0 }
    59c8:	dd8ced0c0f 	{ ae_lp16x2f.i	aep0, a12, 0; ae_selp24.hl	aep3, aep3, aep4 }
    59cd:	1aa576        	loopgtz	a5, 59eb <subband_aec_mid_channel+0x11b>
    59d0:	0ac084        	ae_cvtq48p24s.l	aeq3, aep0
    59d3:	fc041af96f 	{ ae_lp16x2f.c	aep7, a9, a6; ae_cvtq48p24s.h	aeq0, aep0 }
    59d8:	053704        	ae_mulaafp24s.hh.ll	aeq0, aep3, aep7
    59db:	05bf54        	ae_mulasfp24s.hl.lh	aeq3, aep3, aep7
    59de:	fb63ad8d1f 	{ ae_lp16x2f.iu	aep0, a13, 4; ae_roundsp16q48asym	aep6, aeq0 }
    59e3:	fa7bf2ee1f 	{ ae_sp16f.l.iu	aep6, a14, 2; ae_roundsp16q48asym	aep5, aeq3 }
    59e8:	42de14        	ae_sp16f.l.iu	aep5, a14, 2
    59eb:	f82756        	bnez	a7, 5971 <subband_aec_mid_channel+0xa1>
    59ee:	0aa0e2        	movi	a14, 10
    59f1:	1123f2        	l32i	a15, a3, 68
    59f4:	106392        	s32i	a9, a3, 64
    59f7:	fe24b1339e 	{ l32i	a9, a3, 76; ae_zeroq56	aeq2 }
    59fc:	632124        	ae_sq56s.i	aeq2, a1, 16
    59ff:	fd146d0f0f 	{ ae_lp16x2f.i	aep0, a15, 0; ae_movq56	aeq1, aeq2 }
    5a04:	fc146d190f 	{ ae_lp16x2f.i	aep1, a9, 0; ae_movq56	aeq0, aeq2 }
    5a09:	10ae76        	loopgtz	a14, 5a1d <subband_aec_mid_channel+0x14d>
    5a0c:	050004        	ae_mulaafp24s.hh.ll	aeq0, aep0, aep0
    5a0f:	050904        	ae_mulaafp24s.hh.ll	aeq1, aep0, aep1

00005a12 <subband_aec_mid_channel+0x142>:
    5a12:	eb202d991f 	{ ae_lp16x2f.iu	aep1, a9, 4; ae_mulasfp24s.hl.lh	aeq2, aep0, aep1 }
    5a17:	630124        	ae_sq56s.i	aeq0, a1, 16
    5a1a:	448f14        	ae_lp16x2f.iu	aep0, a15, 4

00005a1d <subband_aec_mid_channel+0x14d>:
    5a1d:	ea3081        	l32r	a8, 2e0 (a14 <HIFI_sqrt>)
    5a20:	35a134        	ae_sraiq56	aeq2, aeq2, 4
    5a23:	f877fb114f 	{ ae_sraiq56	aeq1, aeq1, 4; ae_roundsp24q48asym	aep1, aeq2 }
    5a28:	1b9d04        	ae_roundsp24q48asym	aep0, aeq1
    5a2b:	dc20bda12f 	{ ae_lq56.i	aeq1, a1, 16; ae_selp24.hl	aep0, aep0, aep1 }
    5a30:	f002bb118f 	{ ae_sraiq56	aeq2, aeq1, 4; ae_mulzaafp24s.hh.ll	aeq0, aep0, aep0 }
    5a35:	fd344000af 	{ movi	a10, 0; ae_roundsq32asym	aeq1, aeq2 }
    5a3a:	ff247a112f 	{ ae_sq56s.i	aeq1, a1, 16; ae_roundsq32asym	aeq3, aeq0 }
    5a3f:	36bb04        	ae_trunca32q48	a11, aeq3
    5a42:	0008e0        	callx8	a8
    5a45:	ea1f81        	l32r	a8, 2c4 (5318 <common_x_pow>)
    5a48:	614124        	ae_lq56.i	aeq1, a1, 16
    5a4b:	368b34        	ae_cvtq48a32s	aeq2, a11
    5a4e:	fc24feaa0f 	{ ae_slaasq56s	aeq0, aeq2, a10; nop }
    5a53:	369b04        	ae_trunca32q48	a11, aeq1
    5a56:	ff2453a33f 	{ or	a10, a3, a3; ae_roundsq32asym	aeq3, aeq0 }
    5a5b:	36bc04        	ae_trunca32q48	a12, aeq3
    5a5e:	0008e0        	callx8	a8
    5a61:	da8c           	beqz.n	a10, 5a72 <subband_aec_mid_channel+0x1a2>
    5a63:	1323a2        	l32i	a10, a3, 76
    5a66:	e97181        	l32r	a8, 2c (8838 <xt_memcpy>)
    5a69:	1123b2        	l32i	a11, a3, 68
    5a6c:	14a0c2        	movi	a12, 20
    5a6f:	0008e0        	callx8	a8

00005a72 <subband_aec_mid_channel+0x1a2>:
    5a72:	0d92a2        	l16si	a10, a2, 26
    5a75:	119392        	l16si	a9, a3, 34
    5a78:	fc24b0b3be 	{ l32i	a11, a3, 44; ae_zeroq56	aeq0 }
    5a7d:	630134        	ae_sq56s.i	aeq0, a1, 24
    5a80:	c099a0        	sub	a9, a9, a10
    5a83:	a099b0        	addx4	a9, a9, a11
    5a86:	fcc992        	addi	a9, a9, -4
    5a89:	08aa76        	loopgtz	a10, 5a95 <subband_aec_mid_channel+0x1c5>
    5a8c:	44a914        	ae_lp16x2f.iu	aep2, a9, 4
    5a8f:	052204        	ae_mulaafp24s.hh.ll	aeq0, aep2, aep2
    5a92:	630134        	ae_sq56s.i	aeq0, a1, 24

00005a95 <subband_aec_mid_channel+0x1c5>:
    5a95:	33a8           	l32i.n	a10, a3, 12
    5a97:	ea0981        	l32r	a8, 2bc (7f40 <airoha_divide_limit_1>)
    5a9a:	61c134        	ae_lq56.i	aeq3, a1, 24
    5a9d:	3530b4        	ae_sraiq56	aeq0, aeq3, 2
    5aa0:	ff247023be 	{ l32i	a11, a3, 8; ae_roundsq32asym	aeq3, aeq0 }
    5aa5:	633134        	ae_sq56s.i	aeq3, a1, 24
    5aa8:	0008e0        	callx8	a8
    5aab:	610134        	ae_lq56.i	aeq0, a1, 24
    5aae:	1293b2        	l16si	a11, a3, 36
    5ab1:	e96ae1        	l32r	a14, 5c (7fff <xtensa_fft8_32b+0x27>)
    5ab4:	0492f2        	l16si	a15, a2, 8
    5ab7:	3160a0        	srai	a6, a10, 16
    5aba:	c0ee60        	sub	a14, a14, a6
    5abd:	53eef0        	max	a14, a14, a15
    5ac0:	260c           	movi.n	a6, 2
    5ac2:	266b17        	bbci	a11, 1, 5aec <subband_aec_mid_channel+0x21c>
    5ac5:	02ad           	mov.n	a10, a2
    5ac7:	03bd           	mov.n	a11, a3
    5ac9:	04dd           	mov.n	a13, a4
    5acb:	039292        	l16si	a9, a2, 6
    5ace:	368404        	ae_trunca32q48	a4, aeq0
    5ad1:	e9fd81        	l32r	a8, 2c8 (5374 <ref_gain_adapt>)
    5ad4:	8299e0        	mull	a9, a9, a14
    5ad7:	04cd           	mov.n	a12, a4
    5ad9:	40d992        	addmi	a9, a9, 0x4000
    5adc:	219f90        	srai	a9, a9, 15
    5adf:	105392        	s16i	a9, a3, 32
    5ae2:	0008e0        	callx8	a8
    5ae5:	1293b2        	l16si	a11, a3, 36
    5ae8:	000186        	j	5af2 <subband_aec_mid_channel+0x222>

00005aeb <subband_aec_mid_channel+0x21b>:
	...

00005aec <subband_aec_mid_channel+0x21c>:
    5aec:	1053e2        	s16i	a14, a3, 32
    5aef:	368404        	ae_trunca32q48	a4, aeq0

00005af2 <subband_aec_mid_channel+0x222>:
    5af2:	0592a2        	l16si	a10, a2, 10
    5af5:	11aa00        	slli	a10, a10, 16
    5af8:	4aaa47        	bge	a10, a4, 5b46 <subband_aec_mid_channel+0x276>
    5afb:	e9f4a1        	l32r	a10, 2cc (abb8 <immediate_num+0x18>)
    5afe:	0692c2        	l16si	a12, a2, 12
    5b01:	20bb60        	or	a11, a11, a6
    5b04:	1253b2        	s16i	a11, a3, 36
    5b07:	11cc00        	slli	a12, a12, 16
    5b0a:	05ac47        	bge	a12, a4, 5b13 <subband_aec_mid_channel+0x243>
    5b0d:	401a04        	ae_lp16f.i	aep1, a10, 0
    5b10:	000086        	j	5b16 <subband_aec_mid_channel+0x246>

00005b13 <subband_aec_mid_channel+0x243>:
    5b13:	401a14        	ae_lp16f.i	aep1, a10, 2

00005b16 <subband_aec_mid_channel+0x246>:
    5b16:	0d92d2        	l16si	a13, a2, 26
    5b19:	1193a2        	l16si	a10, a3, 34
    5b1c:	b3c8           	l32i.n	a12, a3, 44
    5b1e:	c0aad0        	sub	a10, a10, a13
    5b21:	a0aac0        	addx4	a10, a10, a12
    5b24:	feca92        	addi	a9, a10, -2
    5b27:	440a04        	ae_lp16x2f.i	aep0, a10, 0
    5b2a:	181da6        	blti	a13, 1, 5b46 <subband_aec_mid_channel+0x276>
    5b2d:	12ad76        	loopgtz	a13, 5b43 <subband_aec_mid_channel+0x273>
    5b30:	018154        	ae_mulfp24s.hl	aeq2, aep0, aep1
    5b33:	010974        	ae_mulfp24s.ll	aeq1, aep0, aep1
    5b36:	fa73ad8a1f 	{ ae_lp16x2f.iu	aep0, a10, 4; ae_roundsp16q48asym	aep4, aeq2 }
    5b3b:	f96bf2c91f 	{ ae_sp16f.l.iu	aep4, a9, 2; ae_roundsp16q48asym	aep3, aeq1 }
    5b40:	42b914        	ae_sp16f.l.iu	aep3, a9, 2

00005b43 <subband_aec_mid_channel+0x273>:
    5b43:	1293b2        	l16si	a11, a3, 36
    5b46:	146b07        	bbci	a11, 0, 5b5e <subband_aec_mid_channel+0x28e>
    5b49:	02d2b2        	addmi	a11, a2, 0x200
    5b4c:	7a9bb2        	l16si	a11, a11, 244
    5b4f:	311b66        	bnei	a11, 1, 5b84 <subband_aec_mid_channel+0x2b4>
    5b52:	e9df81        	l32r	a8, 2d0 (54ac <aec_post_calc_sb>)
    5b55:	02ad           	mov.n	a10, a2
    5b57:	03bd           	mov.n	a11, a3
    5b59:	0008e0        	callx8	a8
    5b5c:	f01d           	retw.n

00005b5e <subband_aec_mid_channel+0x28e>:
    5b5e:	206b27        	bbci	a11, 2, 5b82 <subband_aec_mid_channel+0x2b2>
    5b61:	02d292        	addmi	a9, a2, 0x200
    5b64:	7a9992        	l16si	a9, a9, 244
    5b67:	0b1966        	bnei	a9, 1, 5b76 <subband_aec_mid_channel+0x2a6>
    5b6a:	e9da81        	l32r	a8, 2d4 (55b8 <aec_post_calc_FB_sb>)
    5b6d:	02ad           	mov.n	a10, a2
    5b6f:	03bd           	mov.n	a11, a3
    5b71:	0008e0        	callx8	a8
    5b74:	f01d           	retw.n

00005b76 <subband_aec_mid_channel+0x2a6>:
    5b76:	02ad           	mov.n	a10, a2
    5b78:	e9d881        	l32r	a8, 2d8 (5540 <aec_post_calc_FB>)
    5b7b:	03bd           	mov.n	a11, a3
    5b7d:	21c8           	l32i.n	a12, a1, 8
    5b7f:	0008e0        	callx8	a8
    5b82:	f01d           	retw.n

00005b84 <subband_aec_mid_channel+0x2b4>:
    5b84:	03bd           	mov.n	a11, a3
    5b86:	e9d581        	l32r	a8, 2dc (53f8 <aec_post_calc>)
    5b89:	02ad           	mov.n	a10, a2
    5b8b:	21c8           	l32i.n	a12, a1, 8
    5b8d:	0008e0        	callx8	a8
    5b90:	f01d           	retw.n

00005b92 <subband_aec_mid_channel+0x2c2>:
	...

00005b94 <dt_detect>:
    5b94:	004136        	entry	a1, 32
    5b97:	0c9242        	l16si	a4, a2, 24
    5b9a:	179262        	l16si	a6, a2, 46
    5b9d:	189282        	l16si	a8, a2, 48
    5ba0:	114400        	slli	a4, a4, 16
    5ba3:	19a437        	bge	a4, a3, 5bc0 <dt_detect+0x2c>
    5ba6:	054c           	movi.n	a5, 64
    5ba8:	14a587        	bge	a5, a8, 5bc0 <dt_detect+0x2c>
    5bab:	169232        	l16si	a3, a2, 44
    5bae:	0e9252        	l16si	a5, a2, 28
    5bb1:	662b           	addi.n	a6, a6, 2
    5bb3:	334b           	addi.n	a3, a3, 4
    5bb5:	433350        	min	a3, a3, a5
    5bb8:	833d           	ae_sext16	a3, a3
    5bba:	165232        	s16i	a3, a2, 44
    5bbd:	0002c6        	j	5bcc <dt_detect+0x38>

00005bc0 <dt_detect+0x2c>:
    5bc0:	660b           	addi.n	a6, a6, -1
    5bc2:	030c           	movi.n	a3, 0
    5bc4:	0e9252        	l16si	a5, a2, 28
    5bc7:	040c           	movi.n	a4, 0
    5bc9:	165242        	s16i	a4, a2, 44

00005bcc <dt_detect+0x38>:
    5bcc:	538630        	max	a8, a6, a3
    5bcf:	438850        	min	a8, a8, a5
    5bd2:	175282        	s16i	a8, a2, 46
    5bd5:	f01d           	retw.n

00005bd7 <dt_detect+0x43>:
	...

00005bd8 <dt_detect_sb>:
    5bd8:	004136        	entry	a1, 32
    5bdb:	199352        	l16si	a5, a3, 50
    5bde:	1c9372        	l16si	a7, a3, 56
    5be1:	064c           	movi.n	a6, 64
    5be3:	115500        	slli	a5, a5, 16
    5be6:	1aa547        	bge	a5, a4, 5c04 <dt_detect_sb+0x2c>
    5be9:	189282        	l16si	a8, a2, 48
    5bec:	14a687        	bge	a6, a8, 5c04 <dt_detect_sb+0x2c>
    5bef:	1b9342        	l16si	a4, a3, 54
    5bf2:	0e9252        	l16si	a5, a2, 28
    5bf5:	772b           	addi.n	a7, a7, 2
    5bf7:	444b           	addi.n	a4, a4, 4
    5bf9:	434450        	min	a4, a4, a5
    5bfc:	844d           	ae_sext16	a4, a4
    5bfe:	1b5342        	s16i	a4, a3, 54
    5c01:	000206        	j	5c0d <dt_detect_sb+0x35>

00005c04 <dt_detect_sb+0x2c>:
    5c04:	770b           	addi.n	a7, a7, -1
    5c06:	040c           	movi.n	a4, 0
    5c08:	050c           	movi.n	a5, 0
    5c0a:	1b5352        	s16i	a5, a3, 54

00005c0d <dt_detect_sb+0x35>:
    5c0d:	0e9282        	l16si	a8, a2, 28
    5c10:	536740        	max	a6, a7, a4
    5c13:	436680        	min	a6, a6, a8
    5c16:	1c5362        	s16i	a6, a3, 56
    5c19:	f01d           	retw.n

00005c1b <dt_detect_sb+0x43>:
	...

00005c1c <dt_detect_FB>:
    5c1c:	004136        	entry	a1, 32
    5c1f:	1a9242        	l16si	a4, a2, 52
    5c22:	1c9262        	l16si	a6, a2, 56
    5c25:	189282        	l16si	a8, a2, 48
    5c28:	114400        	slli	a4, a4, 16
    5c2b:	19a437        	bge	a4, a3, 5c48 <dt_detect_FB+0x2c>
    5c2e:	054c           	movi.n	a5, 64
    5c30:	14a587        	bge	a5, a8, 5c48 <dt_detect_FB+0x2c>
    5c33:	1d9232        	l16si	a3, a2, 58
    5c36:	1b9252        	l16si	a5, a2, 54
    5c39:	662b           	addi.n	a6, a6, 2
    5c3b:	334b           	addi.n	a3, a3, 4
    5c3d:	433350        	min	a3, a3, a5
    5c40:	833d           	ae_sext16	a3, a3
    5c42:	1d5232        	s16i	a3, a2, 58
    5c45:	0002c6        	j	5c54 <dt_detect_FB+0x38>

00005c48 <dt_detect_FB+0x2c>:
    5c48:	660b           	addi.n	a6, a6, -1
    5c4a:	030c           	movi.n	a3, 0
    5c4c:	1b9252        	l16si	a5, a2, 54
    5c4f:	040c           	movi.n	a4, 0
    5c51:	1d5242        	s16i	a4, a2, 58

00005c54 <dt_detect_FB+0x38>:
    5c54:	538630        	max	a8, a6, a3
    5c57:	438850        	min	a8, a8, a5
    5c5a:	1c5282        	s16i	a8, a2, 56
    5c5d:	f01d           	retw.n

00005c5f <dt_detect_FB+0x43>:
	...

00005c60 <dt_detect_FB_sb>:
    5c60:	004136        	entry	a1, 32
    5c63:	199352        	l16si	a5, a3, 50
    5c66:	1c9372        	l16si	a7, a3, 56
    5c69:	064c           	movi.n	a6, 64
    5c6b:	115500        	slli	a5, a5, 16
    5c6e:	1aa547        	bge	a5, a4, 5c8c <dt_detect_FB_sb+0x2c>
    5c71:	189282        	l16si	a8, a2, 48
    5c74:	1b9252        	l16si	a5, a2, 54
    5c77:	11a687        	bge	a6, a8, 5c8c <dt_detect_FB_sb+0x2c>
    5c7a:	1b9342        	l16si	a4, a3, 54
    5c7d:	772b           	addi.n	a7, a7, 2
    5c7f:	444b           	addi.n	a4, a4, 4
    5c81:	434450        	min	a4, a4, a5
    5c84:	844d           	ae_sext16	a4, a4
    5c86:	1b5342        	s16i	a4, a3, 54
    5c89:	000206        	j	5c95 <dt_detect_FB_sb+0x35>

00005c8c <dt_detect_FB_sb+0x2c>:
    5c8c:	770b           	addi.n	a7, a7, -1
    5c8e:	040c           	movi.n	a4, 0
    5c90:	050c           	movi.n	a5, 0
    5c92:	1b5352        	s16i	a5, a3, 54

00005c95 <dt_detect_FB_sb+0x35>:
    5c95:	1b9282        	l16si	a8, a2, 54
    5c98:	536740        	max	a6, a7, a4
    5c9b:	436680        	min	a6, a6, a8
    5c9e:	1c5362        	s16i	a6, a3, 56
    5ca1:	f01d           	retw.n

00005ca3 <dt_detect_FB_sb+0x43>:
    5ca3:	00000000 00413600                                .....

00005ca8 <get_ECNR_SVN>:
    5ca8:	004136        	entry	a1, 32
    5cab:	21a322        	movi	a2, 0x321
    5cae:	f01d           	retw.n

00005cb0 <get_aec_nr_memsize>:
    5cb0:	004136        	entry	a1, 32
    5cb3:	e98c21        	l32r	a2, 2e4 (cf30 <M_norm64+0xb0>)
    5cb6:	f01d           	retw.n

00005cb8 <get_txnr_pitch_last>:
    5cb8:	004136        	entry	a1, 32
    5cbb:	e8dd21        	l32r	a2, 30 (e798 <p_ecnr_mem>)
    5cbe:	e98a31        	l32r	a3, 2e8 (ce04 <ABS_THR45+0x44>)
    5cc1:	0228           	l32i.n	a2, a2, 0
    5cc3:	223a           	add.n	a2, a2, a3
    5cc5:	7e9222        	l16si	a2, a2, 252
    5cc8:	f01d           	retw.n

00005cca <get_txnr_pitch_last+0x12>:
	...

00005ccc <sb_ana_init>:
    5ccc:	004136        	entry	a1, 32
    5ccf:	0b0c           	movi.n	a11, 0
    5cd1:	ec1c           	movi.n	a12, 30
    5cd3:	e8ff81        	l32r	a8, d0 (8820 <xt_memset>)
    5cd6:	a24b           	addi.n	a10, a2, 4
    5cd8:	02a9           	s32i.n	a10, a2, 0
    5cda:	0008e0        	callx8	a8
    5cdd:	f01d           	retw.n

00005cdf <sb_ana_init+0x13>:
	...

00005ce0 <sb_syn_init>:
    5ce0:	004136        	entry	a1, 32
    5ce3:	0b0c           	movi.n	a11, 0
    5ce5:	cc3c           	movi.n	a12, 60
    5ce7:	e8fa81        	l32r	a8, d0 (8820 <xt_memset>)
    5cea:	a24b           	addi.n	a10, a2, 4
    5cec:	02a9           	s32i.n	a10, a2, 0
    5cee:	0008e0        	callx8	a8
    5cf1:	f01d           	retw.n

00005cf3 <sb_syn_init+0x13>:
	...

00005cf4 <AVC_init>:
    5cf4:	004136        	entry	a1, 32
    5cf7:	e8d181        	l32r	a8, 3c (e78c <aec_nr_para>)
    5cfa:	e8df51        	l32r	a5, 78 (8000 <xtensa_fft8_32b+0x28>)
    5cfd:	0888           	l32i.n	a8, a8, 0
    5cff:	030c           	movi.n	a3, 0
    5d01:	2239           	s32i.n	a3, a2, 8
    5d03:	1e1842        	l16ui	a4, a8, 60
    5d06:	1f1892        	l16ui	a9, a8, 62
    5d09:	025292        	s16i	a9, a2, 4
    5d0c:	201882        	l16ui	a8, a8, 64
    5d0f:	035282        	s16i	a8, a2, 6
    5d12:	c05540        	sub	a5, a5, a4
    5d15:	115500        	slli	a5, a5, 16
    5d18:	445a           	add.n	a4, a4, a5
    5d1a:	0249           	s32i.n	a4, a2, 0
    5d1c:	f01d           	retw.n

00005d1e <AVC_init+0x2a>:
	...

00005d20 <HP_coef_setup>:
    5d20:	004136        	entry	a1, 32
    5d23:	02ad           	mov.n	a10, a2
    5d25:	e8c181        	l32r	a8, 2c (8838 <xt_memcpy>)
    5d28:	03bd           	mov.n	a11, a3
    5d2a:	4c0c           	movi.n	a12, 4
    5d2c:	0008e0        	callx8	a8
    5d2f:	a2cb           	addi.n	a10, a2, 12
    5d31:	e8be81        	l32r	a8, 2c (8838 <xt_memcpy>)
    5d34:	b38b           	addi.n	a11, a3, 8
    5d36:	ac0c           	movi.n	a12, 10
    5d38:	0008e0        	callx8	a8
    5d3b:	1cc3b2        	addi	a11, a3, 28
    5d3e:	e8bb81        	l32r	a8, 2c (8838 <xt_memcpy>)
    5d41:	24c2a2        	addi	a10, a2, 36
    5d44:	8c0c           	movi.n	a12, 8
    5d46:	0008e0        	callx8	a8
    5d49:	7298           	l32i.n	a9, a2, 28
    5d4b:	12a8           	l32i.n	a10, a2, 4
    5d4d:	22a9           	s32i.n	a10, a2, 8
    5d4f:	8299           	s32i.n	a9, a2, 32
    5d51:	f01d           	retw.n

00005d53 <HP_coef_setup+0x33>:
	...

00005d54 <siir_safr>:
    5d54:	004136        	entry	a1, 32
    5d57:	368334        	ae_cvtq48a32s	aeq2, a3
    5d5a:	364234        	ae_cvtq48a32s	aeq1, a2
    5d5d:	05a237        	bge	a2, a3, 5d66 <siir_safr+0x12>
    5d60:	440404        	ae_lp16x2f.i	aep0, a4, 0
    5d63:	000086        	j	5d69 <siir_safr+0x15>

00005d66 <siir_safr+0x12>:
    5d66:	440414        	ae_lp16x2f.i	aep0, a4, 4

00005d69 <siir_safr+0x15>:
    5d69:	c10864        	ae_mulzaafq32sp16s.lh	aeq1, aeq1, aep0, aeq2, aep0
    5d6c:	061934        	ae_roundsq32asym	aeq0, aeq1
    5d6f:	368204        	ae_trunca32q48	a2, aeq0
    5d72:	f01d           	retw.n

00005d74 <tx_ref_vad_init>:
    5d74:	004136        	entry	a1, 32
    5d77:	02ad           	mov.n	a10, a2
    5d79:	e8d581        	l32r	a8, d0 (8820 <xt_memset>)
    5d7c:	0b0c           	movi.n	a11, 0
    5d7e:	ec0c           	movi.n	a12, 14
    5d80:	0008e0        	callx8	a8
    5d83:	02ad           	mov.n	a10, a2
    5d85:	7c0c           	movi.n	a12, 7
    5d87:	e8a981        	l32r	a8, 2c (8838 <xt_memcpy>)
    5d8a:	02d3b2        	addmi	a11, a3, 0x200
    5d8d:	c8cbb2        	addi	a11, a11, -56
    5d90:	0008e0        	callx8	a8
    5d93:	f01d           	retw.n

00005d95 <tx_ref_vad_init+0x21>:
    5d95:	000000                                        ...

00005d98 <Get_AirDump_Inear>:
    5d98:	004136        	entry	a1, 32
    5d9b:	e8a5a1        	l32r	a10, 30 (e798 <p_ecnr_mem>)
    5d9e:	0aa8           	l32i.n	a10, a10, 0
    5da0:	02bd           	mov.n	a11, a2
    5da2:	e95281        	l32r	a8, 2ec (3d44 <fn_get_airdump>)
    5da5:	12daa2        	addmi	a10, a10, 0x1200
    5da8:	f0caa2        	addi	a10, a10, -16
    5dab:	0008e0        	callx8	a8
    5dae:	f01d           	retw.n

00005db0 <Voice_WB_TX_Inear_Init>:
    5db0:	004136        	entry	a1, 32
    5db3:	07dd           	mov.n	a13, a7
    5db5:	06cd           	mov.n	a12, a6
    5db7:	02ad           	mov.n	a10, a2
    5db9:	05bd           	mov.n	a11, a5
    5dbb:	e89d21        	l32r	a2, 30 (e798 <p_ecnr_mem>)
    5dbe:	e94c81        	l32r	a8, 2f0 (5b8 <TX_ECNR_PARA_init>)
    5dc1:	81e8           	l32i.n	a14, a1, 32
    5dc3:	0249           	s32i.n	a4, a2, 0
    5dc5:	0008e0        	callx8	a8
    5dc8:	e89d31        	l32r	a3, 3c (e78c <aec_nr_para>)
    5dcb:	03b8           	l32i.n	a11, a3, 0
    5dcd:	02a8           	l32i.n	a10, a2, 0
    5dcf:	e94981        	l32r	a8, 2f4 (5d20 <HP_coef_setup>)
    5dd2:	01dbb2        	addmi	a11, a11, 0x100
    5dd5:	bb8b           	addi.n	a11, a11, 8
    5dd7:	0008e0        	callx8	a8
    5dda:	0b0c           	movi.n	a11, 0
    5ddc:	02a8           	l32i.n	a10, a2, 0
    5dde:	e8bc81        	l32r	a8, d0 (8820 <xt_memset>)
    5de1:	4c2c           	movi.n	a12, 36
    5de3:	34caa2        	addi	a10, a10, 52
    5de6:	0008e0        	callx8	a8
    5de9:	80a042        	movi	a4, 128
    5dec:	0b0c           	movi.n	a11, 0
    5dee:	02a8           	l32i.n	a10, a2, 0
    5df0:	f0a0c2        	movi	a12, 240
    5df3:	e8b781        	l32r	a8, d0 (8820 <xt_memset>)
    5df6:	01daa2        	addmi	a10, a10, 0x100
    5df9:	80caa2        	addi	a10, a10, -128
    5dfc:	0008e0        	callx8	a8
    5dff:	02a8           	l32i.n	a10, a2, 0
    5e01:	e93d81        	l32r	a8, 2f8 (5ccc <sb_ana_init>)
    5e04:	10daa2        	addmi	a10, a10, 0x1000
    5e07:	38caa2        	addi	a10, a10, 56
    5e0a:	0008e0        	callx8	a8
    5e0d:	02a8           	l32i.n	a10, a2, 0
    5e0f:	e93a81        	l32r	a8, 2f8 (5ccc <sb_ana_init>)
    5e12:	11daa2        	addmi	a10, a10, 0x1100
    5e15:	b8caa2        	addi	a10, a10, -72
    5e18:	0008e0        	callx8	a8
    5e1b:	02a8           	l32i.n	a10, a2, 0
    5e1d:	e93681        	l32r	a8, 2f8 (5ccc <sb_ana_init>)
    5e20:	10daa2        	addmi	a10, a10, 0x1000
    5e23:	78caa2        	addi	a10, a10, 120
    5e26:	0008e0        	callx8	a8
    5e29:	02a8           	l32i.n	a10, a2, 0
    5e2b:	e93481        	l32r	a8, 2fc (5ce0 <sb_syn_init>)
    5e2e:	11daa2        	addmi	a10, a10, 0x1100
    5e31:	f8caa2        	addi	a10, a10, -8
    5e34:	0008e0        	callx8	a8
    5e37:	02a8           	l32i.n	a10, a2, 0
    5e39:	e93081        	l32r	a8, 2fc (5ce0 <sb_syn_init>)
    5e3c:	11daa2        	addmi	a10, a10, 0x1100
    5e3f:	74caa2        	addi	a10, a10, 116
    5e42:	0008e0        	callx8	a8
    5e45:	03b8           	l32i.n	a11, a3, 0
    5e47:	02a8           	l32i.n	a10, a2, 0
    5e49:	07db62        	addmi	a6, a11, 0x700
    5e4c:	0bc8           	l32i.n	a12, a11, 0
    5e4e:	331bf2        	l16ui	a15, a11, 102
    5e51:	8a4a           	add.n	a8, a10, a4
    5e53:	ffd8e2        	addmi	a14, a8, 0xffffff00
    5e56:	3e5af2        	s16i	a15, a10, 124
    5e59:	341bd2        	l16ui	a13, a11, 104
    5e5c:	78ccc2        	addi	a12, a12, 120
    5e5f:	7f5ed2        	s16i	a13, a14, 254
    5e62:	08dbb2        	addmi	a11, a11, 0x800
    5e65:	a8cbb2        	addi	a11, a11, -88
    5e68:	8168c2        	s32i	a12, a8, 0x204
    5e6b:	4d9652        	l16si	a5, a6, 154
    5e6e:	50ccd2        	addi	a13, a12, 80
    5e71:	4e9662        	l16si	a6, a6, 156
    5e74:	8268d2        	s32i	a13, a8, 0x208
    5e77:	78ccc2        	addi	a12, a12, 120
    5e7a:	855d           	ae_sext16	a5, a5
    5e7c:	8368c2        	s32i	a12, a8, 0x20c
    5e7f:	50cce2        	addi	a14, a12, 80
    5e82:	28ccd2        	addi	a13, a12, 40
    5e85:	8468d2        	s32i	a13, a8, 0x210
    5e88:	8568e2        	s32i	a14, a8, 0x214
    5e8b:	e91dd1        	l32r	a13, 300 (ce10 <ABS_THR45+0x50>)
    5e8e:	78ccc2        	addi	a12, a12, 120
    5e91:	8668c2        	s32i	a12, a8, 0x218
    5e94:	78ccf2        	addi	a15, a12, 120
    5e97:	50cce2        	addi	a14, a12, 80
    5e9a:	8968e2        	s32i	a14, a8, 0x224
    5e9d:	dada           	add.n	a13, a10, a13
    5e9f:	8868f2        	s32i	a15, a8, 0x220
    5ea2:	40caa2        	addi	a10, a10, 64
    5ea5:	3e2d72        	l32i	a7, a13, 248
    5ea8:	00a1f2        	movi	a15, 0x100
    5eab:	28ccc2        	addi	a12, a12, 40
    5eae:	5355f0        	max	a5, a5, a15
    5eb1:	8768c2        	s32i	a12, a8, 0x21c
    5eb4:	e894c1        	l32r	a12, 104 (800000 <_end+0x7f1860>)
    5eb7:	04d792        	addmi	a9, a7, 0x400
    5eba:	8a6892        	s32i	a9, a8, 0x228
    5ebd:	06d772        	addmi	a7, a7, 0x600
    5ec0:	e0c772        	addi	a7, a7, -32
    5ec3:	8b6872        	s32i	a7, a8, 0x22c
    5ec6:	815d62        	s16i	a6, a13, 0x102
    5ec9:	811de2        	l16ui	a14, a13, 0x102
    5ecc:	805d52        	s16i	a5, a13, 0x100
    5ecf:	e90981        	l32r	a8, 2f4 (5d20 <HP_coef_setup>)
    5ed2:	53eef0        	max	a14, a14, a15
    5ed5:	9eed           	ae_zext16	a14, a14
    5ed7:	d2cce0        	quos	a12, a12, a14
    5eda:	815dc2        	s16i	a12, a13, 0x102
    5edd:	0008e0        	callx8	a8
    5ee0:	e90981        	l32r	a8, 304 (4ebc <SBAEC_INIT>)
    5ee3:	0008e0        	callx8	a8
    5ee6:	e90881        	l32r	a8, 308 (70c4 <WB_TX_NR_init>)
    5ee9:	0008e0        	callx8	a8
    5eec:	02a8           	l32i.n	a10, a2, 0
    5eee:	e90781        	l32r	a8, 30c (5cf4 <AVC_init>)
    5ef1:	0ddaa2        	addmi	a10, a10, 0xd00
    5ef4:	18caa2        	addi	a10, a10, 24
    5ef7:	0008e0        	callx8	a8
    5efa:	1a0c           	movi.n	a10, 1
    5efc:	e905e1        	l32r	a14, 310 (e79c <avc_vol>)
    5eff:	02b8           	l32i.n	a11, a2, 0
    5f01:	e892d1        	l32r	a13, 14c (2000 <fn_ini_calc_sup_gain+0xa4>)
    5f04:	6edd           	ae_s16i.n	a13, a14, 0
    5f06:	cb4a           	add.n	a12, a11, a4
    5f08:	02db92        	addmi	a9, a11, 0x200
    5f0b:	60c992        	addi	a9, a9, 96
    5f0e:	fe5ca2        	s16i	a10, a12, 0x1fc
    5f11:	00a4a2        	movi	a10, 0x400
    5f14:	7c0c           	movi.n	a12, 7
    5f16:	02ac76        	loopgtz	a12, 5f1c <Voice_WB_TX_Inear_Init+0x16c>
    5f19:	09c9a4        	ae_s16ip	a10, a9, 2

00005f1c <Voice_WB_TX_Inear_Init+0x16c>:
    5f1c:	0c5c           	movi.n	a12, 80
    5f1e:	0cdba2        	addmi	a10, a11, 0xc00
    5f21:	e86b81        	l32r	a8, d0 (8820 <xt_memset>)
    5f24:	30caa2        	addi	a10, a10, 48
    5f27:	0b0c           	movi.n	a11, 0
    5f29:	0008e0        	callx8	a8
    5f2c:	0b0c           	movi.n	a11, 0
    5f2e:	02a8           	l32i.n	a10, a2, 0
    5f30:	4c2c           	movi.n	a12, 36
    5f32:	e86781        	l32r	a8, d0 (8820 <xt_memset>)
    5f35:	0ddaa2        	addmi	a10, a10, 0xd00
    5f38:	d0caa2        	addi	a10, a10, -48
    5f3b:	0008e0        	callx8	a8
    5f3e:	02a8           	l32i.n	a10, a2, 0
    5f40:	03b8           	l32i.n	a11, a3, 0
    5f42:	e8f481        	l32r	a8, 314 (3d74 <fn_ini_inear_ast_nr>)
    5f45:	12daa2        	addmi	a10, a10, 0x1200
    5f48:	04dbe2        	addmi	a14, a11, 0x400
    5f4b:	02dbd2        	addmi	a13, a11, 0x200
    5f4e:	f0cdd2        	addi	a13, a13, -16
    5f51:	70cec2        	addi	a12, a14, 112
    5f54:	f0caa2        	addi	a10, a10, -16
    5f57:	eecee2        	addi	a14, a14, -18
    5f5a:	06dbb2        	addmi	a11, a11, 0x600
    5f5d:	70cbb2        	addi	a11, a11, 112
    5f60:	0008e0        	callx8	a8
    5f63:	e8edc1        	l32r	a12, 318 (cf14 <M_norm64+0x94>)
    5f66:	02a8           	l32i.n	a10, a2, 0
    5f68:	e8ed81        	l32r	a8, 31c (5d74 <tx_ref_vad_init>)
    5f6b:	03b8           	l32i.n	a11, a3, 0
    5f6d:	aaca           	add.n	a10, a10, a12
    5f6f:	0008e0        	callx8	a8
    5f72:	f01d           	retw.n

00005f74 <mic240_delay>:
    5f74:	004136        	entry	a1, 32
    5f77:	02ad           	mov.n	a10, a2
    5f79:	e82c81        	l32r	a8, 2c (8838 <xt_memcpy>)
    5f7c:	04bd           	mov.n	a11, a4
    5f7e:	05cd           	mov.n	a12, a5
    5f80:	0008e0        	callx8	a8
    5f83:	03bd           	mov.n	a11, a3
    5f85:	90a520        	addx2	a10, a5, a2
    5f88:	f0a0c2        	movi	a12, 240
    5f8b:	e82881        	l32r	a8, 2c (8838 <xt_memcpy>)
    5f8e:	c0cc50        	sub	a12, a12, a5
    5f91:	1125f0        	slli	a2, a5, 1
    5f94:	0008e0        	callx8	a8
    5f97:	05cd           	mov.n	a12, a5
    5f99:	04ad           	mov.n	a10, a4
    5f9b:	c0b320        	sub	a11, a3, a2
    5f9e:	e82381        	l32r	a8, 2c (8838 <xt_memcpy>)
    5fa1:	02dbb2        	addmi	a11, a11, 0x200
    5fa4:	e0cbb2        	addi	a11, a11, -32
    5fa7:	0008e0        	callx8	a8
    5faa:	f01d           	retw.n

00005fac <sbiir>:
    5fac:	004136        	entry	a1, 32
    5faf:	4c1404        	ae_lp24.i	aep1, a4, 0
    5fb2:	5c7304        	ae_lp24x2f.i	aep7, a3, 0
    5fb5:	fdec2c020f 	{ ae_lp16f.i	aep0, a2, 0; ae_cvtq48p24s.l	aeq1, aep7 }
    5fba:	fee43e079f 	{ ae_selp24.hl	aep2, aep0, aep7; ae_cvtq48p24s.h	aeq2, aep7 }
    5fbf:	059244        	ae_mulasfp24s.hh.ll	aeq2, aep1, aep2
    5fc2:	5c3314        	ae_lp24x2f.i	aep3, a3, 8
    5fc5:	fa77b4030f 	{ ae_sp24f.l.i	aep0, a3, 0; ae_roundsp24q48asym	aep4, aeq2 }
    5fca:	df71b1541f 	{ ae_lp24.i	aep5, a4, 4; ae_selp24.lh	aep6, aep4, aep3 }
    5fcf:	055e44        	ae_mulasfp24s.hh.ll	aeq1, aep5, aep6
    5fd2:	0a0b84        	ae_cvtq48p24s.h	aeq0, aep3
    5fd5:	f86ff4431f 	{ ae_sp24f.l.i	aep4, a3, 4; ae_roundsp24q48asym	aep1, aeq1 }
    5fda:	dd6671242f 	{ ae_lp24.i	aep2, a4, 8; ae_selp24.ll	aep3, aep1, aep3 }
    5fdf:	052344        	ae_mulasfp24s.hh.ll	aeq0, aep2, aep3
    5fe2:	f867b4132f 	{ ae_sp24f.l.i	aep1, a3, 8; ae_roundsp24q48asym	aep0, aeq0 }
    5fe7:	520334        	ae_sp24f.l.i	aep0, a3, 12
    5fea:	348204        	ae_movap24s.l	a2, aep0
    5fed:	f01d           	retw.n

00005fef <sbiir+0x43>:
	...

00005ff0 <tx_downsample_by2>:
    5ff0:	008136        	entry	a1, 64
    5ff3:	fec332        	addi	a3, a3, -2
    5ff6:	440404        	ae_lp16x2f.i	aep0, a4, 0
    5ff9:	0169           	s32i.n	a6, a1, 0
    5ffb:	e8c981        	l32r	a8, 320 (adbc <wb_r01+0xc>)
    5ffe:	fec272        	addi	a7, a2, -2
    6001:	10c5a2        	addi	a10, a5, 16
    6004:	600604        	ae_lq32f.i	aeq0, a6, 0
    6007:	630124        	ae_sq56s.i	aeq0, a1, 16
    600a:	21a9           	s32i.n	a10, a1, 8
    600c:	020c           	movi.n	a2, 0
    600e:	1189           	s32i.n	a8, a1, 4
    6010:	056d           	mov.n	a6, a5

00006012 <tx_downsample_by2+0x22>:
    6012:	06bd           	mov.n	a11, a6
    6014:	614124        	ae_lq56.i	aeq1, a1, 16
    6017:	e20053a44f 	{ or	a10, a4, a4; ae_mulaafp24s.hh.ll	aeq1, aep0, aep0 }
    601c:	11c8           	l32i.n	a12, a1, 4
    601e:	631124        	ae_sq56s.i	aeq1, a1, 16
    6021:	fff8a5        	call8	5fac <sbiir>
    6024:	21b8           	l32i.n	a11, a1, 8
    6026:	0a5d           	mov.n	a5, a10
    6028:	e8bfc1        	l32r	a12, 324 (adb0 <wb_r01>)
    602b:	a42b           	addi.n	a10, a4, 2
    602d:	fff7e5        	call8	5fac <sbiir>
    6030:	4e1c           	movi.n	a14, 20
    6032:	221b           	addi.n	a2, a2, 1
    6034:	f5aa           	add.n	a15, a5, a10
    6036:	c08a50        	sub	a8, a10, a5
    6039:	218180        	srai	a8, a8, 1
    603c:	21f1f0        	srai	a15, a15, 1
    603f:	39bf84        	ae_movpa24x2	aep3, a15, a8
    6042:	f9eead841f 	{ ae_lp16x2f.iu	aep0, a4, 4; ae_roundsp16asym	aep2, aep3 }
    6047:	dc4972a31f 	{ ae_sp16f.l.iu	aep2, a3, 2; ae_selp24.hh	aep1, aep2, aep2 }
    604c:	429714        	ae_sp16f.l.iu	aep1, a7, 2
    604f:	bf92e7        	bne	a2, a14, 6012 <tx_downsample_by2+0x22>
    6052:	0198           	l32i.n	a9, a1, 0
    6054:	61c124        	ae_lq56.i	aeq3, a1, 16
    6057:	06b934        	ae_roundsq32asym	aeq2, aeq3
    605a:	622904        	ae_sq32f.i	aeq2, a9, 0
    605d:	f01d           	retw.n

0000605f <tx_downsample_by2+0x6f>:
	...

00006060 <tx_upsample_by2>:
    6060:	00a136        	entry	a1, 80
    6063:	401204        	ae_lp16f.i	aep1, a2, 0
    6066:	400304        	ae_lp16f.i	aep0, a3, 0
    6069:	1169           	s32i.n	a6, a1, 4
    606b:	e8ad81        	l32r	a8, 320 (adbc <wb_r01+0xc>)
    606e:	fcc472        	addi	a7, a4, -4
    6071:	10c5a2        	addi	a10, a5, 16
    6074:	c12b           	addi.n	a12, a1, 2
    6076:	600604        	ae_lq32f.i	aeq0, a6, 0
    6079:	630134        	ae_sq56s.i	aeq0, a1, 24
    607c:	21c9           	s32i.n	a12, a1, 8
    607e:	31a9           	s32i.n	a10, a1, 12
    6080:	040c           	movi.n	a4, 0
    6082:	4189           	s32i.n	a8, a1, 16
    6084:	056d           	mov.n	a6, a5

00006086 <tx_upsample_by2+0x26>:
    6086:	06bd           	mov.n	a11, a6
    6088:	e8a7c1        	l32r	a12, 324 (adb0 <wb_r01>)
    608b:	d9053da13f 	{ ae_lq56.i	aeq1, a1, 24; ae_addsp24s	aep2, aep1, aep0 }
    6090:	e24bf021ae 	{ l32i	a10, a1, 8; ae_mulafp24s.ll	aeq1, aep2, aep2 }
    6095:	dc06b2210f 	{ ae_sp16f.l.i	aep2, a1, 0; ae_subsp24s	aep0, aep1, aep0 }
    609a:	420114        	ae_sp16f.l.i	aep0, a1, 2
    609d:	631134        	ae_sq56s.i	aeq1, a1, 24
    60a0:	fff0a5        	call8	5fac <sbiir>
    60a3:	31b8           	l32i.n	a11, a1, 12
    60a5:	0a5d           	mov.n	a5, a10
    60a7:	41c8           	l32i.n	a12, a1, 16
    60a9:	01ad           	mov.n	a10, a1
    60ab:	fff025        	call8	5fac <sbiir>
    60ae:	442b           	addi.n	a4, a4, 2
    60b0:	782c           	movi.n	a8, 39
    60b2:	408314        	ae_lp16f.iu	aep0, a3, 2
    60b5:	39c5a4        	ae_movpa24x2	aep4, a5, a10
    60b8:	f9f2ec921f 	{ ae_lp16f.iu	aep1, a2, 2; ae_roundsp16asym	aep3, aep4 }
    60bd:	46b714        	ae_sp16x2f.iu	aep3, a7, 4
    60c0:	c2a847        	bge	a8, a4, 6086 <tx_upsample_by2+0x26>
    60c3:	1198           	l32i.n	a9, a1, 4
    60c5:	61c134        	ae_lq56.i	aeq3, a1, 24
    60c8:	06b934        	ae_roundsq32asym	aeq2, aeq3
    60cb:	622904        	ae_sq32f.i	aeq2, a9, 0
    60ce:	f01d           	retw.n

000060d0 <emph_filter_N>:
    60d0:	004136        	entry	a1, 32
    60d3:	442304        	ae_lp16x2f.i	aep2, a3, 0
    60d6:	02a062        	movi	a6, 2
    60d9:	440404        	ae_lp16x2f.i	aep0, a4, 0
    60dc:	d26560        	quos	a6, a5, a6
    60df:	fcc252        	addi	a5, a2, -4
    60e2:	fec222        	addi	a2, a2, -2
    60e5:	23a676        	loopgtz	a6, 610c <emph_filter_N+0x3c>
    60e8:	44b514        	ae_lp16x2f.iu	aep3, a5, 4
    60eb:	0a4b84        	ae_cvtq48p24s.h	aeq1, aep3
    60ee:	0a0384        	ae_cvtq48p24s.l	aeq0, aep3
    60f1:	012304        	ae_mulafp24s.hh	aeq0, aep2, aep3
    60f4:	012804        	ae_mulafp24s.hh	aeq1, aep2, aep0
    60f7:	e2087e384f 	{ ae_selp24.hh	aep5, aep3, aep0; ae_mulaafp24s.hh.ll	aeq1, aep2, aep0 }
    60fc:	052504        	ae_mulaafp24s.hh.ll	aeq0, aep2, aep5
    60ff:	1b9f44        	ae_roundsp16q48asym	aep4, aeq1
    6102:	f863f2c21f 	{ ae_sp16f.l.iu	aep4, a2, 2; ae_roundsp16q48asym	aep1, aeq0 }
    6107:	dc6db2921f 	{ ae_sp16f.l.iu	aep1, a2, 2; ae_selp24.lh	aep0, aep3, aep3 }

0000610c <emph_filter_N+0x3c>:
    610c:	460404        	ae_sp16x2f.i	aep0, a4, 0
    610f:	f01d           	retw.n

00006111 <emph_filter_N+0x41>:
    6111:	000000                                        ...

00006114 <deemph_filter_N>:
    6114:	004136        	entry	a1, 32
    6117:	600414        	ae_lq32f.i	aeq0, a4, 4
    611a:	400204        	ae_lp16f.i	aep0, a2, 0
    611d:	e88261        	l32r	a6, 328 (abd0 <immediate_num+0x30>)
    6120:	442304        	ae_lp16x2f.i	aep2, a3, 0
    6123:	604404        	ae_lq32f.i	aeq1, a4, 0
    6126:	9949ad360f 	{ ae_lp16x2f.i	aep3, a6, 0; ae_mulzssfq32sp16s.hh	aeq2, aeq1, aep2, aeq1, aep2 }
    612b:	f03d           	nop.n
    612d:	14a576        	loopgtz	a5, 6145 <deemph_filter_N+0x31>
    6130:	03a414        	ae_mulsfq32sp16s.l	aeq2, aeq0, aep2
    6133:	0583c4        	ae_mulssfp24s.hh.ll	aeq2, aep0, aep3
    6136:	fd347f113f 	{ ae_movq56	aeq0, aeq1; ae_roundsq32asym	aeq1, aeq2 }
    613b:	f86bec821f 	{ ae_lp16f.iu	aep0, a2, 2; ae_roundsp16q48asym	aep1, aeq1 }
    6140:	9949b212ff 	{ ae_sp16f.l.i	aep1, a2, -2; ae_mulzssfq32sp16s.hh	aeq2, aeq1, aep2, aeq1, aep2 }

00006145 <deemph_filter_N+0x31>:
    6145:	621404        	ae_sq32f.i	aeq1, a4, 0
    6148:	620414        	ae_sq32f.i	aeq0, a4, 4
    614b:	f01d           	retw.n

0000614d <deemph_filter_N+0x39>:
    614d:	000000                                        ...

00006150 <analy_3band>:
    6150:	006136        	entry	a1, 48
    6153:	7f0c           	movi.n	a15, 7
    6155:	e875e1        	l32r	a14, 32c (adcc <wb_r01+0x1c>)
    6158:	fcc4b2        	addi	a11, a4, -4
    615b:	e875d1        	l32r	a13, 330 (ae0c <sb_g10+0x3c>)
    615e:	24c2c2        	addi	a12, a2, 36
    6161:	834b           	addi.n	a8, a3, 4
    6163:	fec692        	addi	a9, a6, -2
    6166:	fec5a2        	addi	a10, a5, -2
    6169:	40c372        	addi	a7, a3, 64
    616c:	450c           	movi.n	a5, 4
    616e:	f3f770        	wur.ae_cend0	a7
    6171:	fcc262        	addi	a6, a2, -4
    6174:	f3f680        	wur.ae_cbegin0	a8
    6177:	0328           	l32i.n	a2, a3, 0
    6179:	ff24934ddf 	{ or	a4, a13, a13; ae_zeroq56	aeq3 }
    617e:	fd1c538eef 	{ or	a8, a14, a14; ae_movq56	aeq1, aeq3 }

00006183 <analy_3band+0x33>:
    6183:	443614        	ae_lp16x2f.i	aep3, a6, 4
    6186:	fc24e4325f 	{ ae_sp16x2f.c	aep3, a2, a5; nop }
    618b:	fc24da925f 	{ ae_lp16x2f.c	aep1, a2, a5; nop }
    6190:	44a814        	ae_lp16x2f.iu	aep2, a8, 4
    6193:	eb29ad841f 	{ ae_lp16x2f.iu	aep0, a4, 4; ae_mulfp24s.ll	aeq2, aep2, aep1 }
    6198:	ea2180466e 	{ addi	a6, a6, 4; ae_mulfp24s.ll	aeq0, aep0, aep1 }
    619d:	27af76        	loopgtz	a15, 61c8 <analy_3band+0x78>
    61a0:	fc24da825f 	{ ae_lp16x2f.c	aep0, a2, a5; nop }
    61a5:	449414        	ae_lp16x2f.iu	aep1, a4, 4
    61a8:	011034        	ae_mulafp24s.ll	aeq0, aep1, aep0
    61ab:	e2066df81f 	{ ae_lp16x2f.iu	aep7, a8, 4; ae_mulafp24s.hh	aeq1, aep1, aep0 }
    61b0:	e31f9ad25f 	{ ae_lp16x2f.c	aep5, a2, a5; ae_mulafp24s.ll	aeq2, aep7, aep0 }
    61b5:	e31e6de81f 	{ ae_lp16x2f.iu	aep6, a8, 4; ae_mulafp24s.hh	aeq3, aep7, aep0 }
    61ba:	01ed04        	ae_mulafp24s.hh	aeq3, aep6, aep5
    61bd:	e3bbadc41f 	{ ae_lp16x2f.iu	aep4, a4, 4; ae_mulafp24s.ll	aeq2, aep6, aep5 }
    61c2:	014d04        	ae_mulafp24s.hh	aeq1, aep4, aep5
    61c5:	014534        	ae_mulafp24s.ll	aeq0, aep4, aep5

000061c8 <analy_3band+0x78>:
    61c8:	7f0c           	movi.n	a15, 7
    61ca:	f963d34ddf 	{ or	a4, a13, a13; ae_roundsp16q48asym	aep3, aeq0 }
    61cf:	f8f6138eef 	{ or	a8, a14, a14; ae_addq56	aeq0, aeq2, aeq3 }
    61d4:	f96bbb001f 	{ ae_sraiq56	aeq0, aeq0, 1; ae_roundsp16q48asym	aep2, aeq1 }
    61d9:	f867f2b91f 	{ ae_sp16f.l.iu	aep3, a9, 2; ae_roundsp24q48asym	aep1, aeq0 }
    61de:	f8b6f2a91f 	{ ae_sp16f.l.iu	aep2, a9, 2; ae_subq56	aeq0, aeq2, aeq3 }
    61e3:	ff24bb001f 	{ ae_sraiq56	aeq0, aeq0, 1; ae_zeroq56	aeq3 }
    61e8:	f863b49b1f 	{ ae_sp24f.l.iu	aep1, a11, 4; ae_roundsp16q48asym	aep0, aeq0 }
    61ed:	fd1c728a1f 	{ ae_sp16f.l.iu	aep0, a10, 2; ae_movq56	aeq1, aeq3 }
    61f2:	8d96c7        	bne	a6, a12, 6183 <analy_3band+0x33>
    61f5:	0329           	s32i.n	a2, a3, 0
    61f7:	f01d           	retw.n

000061f9 <analy_3band+0xa9>:
    61f9:	000000                                        ...

000061fc <synth_3band>:
    61fc:	004136        	entry	a1, 32
    61ff:	080c           	movi.n	a8, 0
    6201:	7cc572        	addi	a7, a5, 124
    6204:	b54b           	addi.n	a11, a5, 4
    6206:	fec692        	addi	a9, a6, -2
    6209:	fec2c2        	addi	a12, a2, -2
    620c:	fcc4a2        	addi	a10, a4, -4
    620f:	fec3d2        	addi	a13, a3, -2
    6212:	0548           	l32i.n	a4, a5, 0
    6214:	e84831        	l32r	a3, 334 (ae50 <sb_h2ir_v2>)
    6217:	e84821        	l32r	a2, 338 (add0 <sb_g10>)
    621a:	fe2480046f 	{ movi	a6, 4; ae_zeroq56	aeq2 }
    621f:	f3f6b0        	wur.ae_cbegin0	a11
    6222:	f3f770        	wur.ae_cend0	a7
    6225:	fd147f213f 	{ ae_movq56	aeq0, aeq2; ae_movq56	aeq1, aeq2 }

0000622a <synth_3band+0x2e>:
    622a:	40cd14        	ae_lp16f.iu	aep4, a13, 2
    622d:	40bc14        	ae_lp16f.iu	aep3, a12, 2
    6230:	dd8e80188e 	{ addi	a8, a8, 1; ae_subsp24s	aep2, aep3, aep4 }
    6235:	d88d400fef 	{ movi	a14, 15; ae_addsp24s	aep1, aep3, aep4 }
    623a:	dc466d8a1f 	{ ae_lp16x2f.iu	aep0, a10, 4; ae_selp24.ll	aep1, aep1, aep2 }
    623f:	fc24e4146f 	{ ae_sp16x2f.c	aep1, a4, a6; nop }
    6244:	fc24e4046f 	{ ae_sp16x2f.c	aep0, a4, a6; nop }
    6249:	441204        	ae_lp16x2f.i	aep1, a2, 0
    624c:	440304        	ae_lp16x2f.i	aep0, a3, 0
    624f:	16ae76        	loopgtz	a14, 6269 <synth_3band+0x6d>
    6252:	fc24dae46f 	{ ae_lp16x2f.c	aep6, a4, a6; nop }
    6257:	011e04        	ae_mulafp24s.hh	aeq1, aep1, aep6
    625a:	e2c79ad46f 	{ ae_lp16x2f.c	aep5, a4, a6; ae_mulafp24s.ll	aeq0, aep1, aep6 }
    625f:	eea0ad921f 	{ ae_lp16x2f.iu	aep1, a2, 4; ae_mulsfp24s.hl	aeq0, aep0, aep5 }
    6264:	e2a2ed831f 	{ ae_lp16x2f.iu	aep0, a3, 4; ae_mulafp24s.lh	aeq1, aep0, aep5 }

00006269 <synth_3band+0x6d>:
    6269:	fb6bcc422e 	{ addi	a2, a2, -60; ae_roundsp16q48asym	aep7, aeq1 }
    626e:	f8638c433e 	{ addi	a3, a3, -60; ae_roundsp16q48asym	aep0, aeq0 }
    6273:	fc1472891f 	{ ae_sp16f.l.iu	aep0, a9, 2; ae_movq56	aeq0, aeq2 }
    6278:	fd1472f91f 	{ ae_sp16f.l.iu	aep7, a9, 2; ae_movq56	aeq1, aeq2 }
    627d:	a99866        	bnei	a8, 10, 622a <synth_3band+0x2e>
    6280:	0549           	s32i.n	a4, a5, 0
    6282:	f01d           	retw.n

00006284 <biquad_2cascade_24bitTx>:
    6284:	004136        	entry	a1, 32
    6287:	542304        	ae_lp24x2.i	aep2, a3, 0
    628a:	541314        	ae_lp24x2.i	aep1, a3, 8
    628d:	18c482        	addi	a8, a4, 24
    6290:	540324        	ae_lp24x2.i	aep0, a3, 16
    6293:	fcc242        	addi	a4, a2, -4
    6296:	fec522        	addi	a2, a5, -2
    6299:	40a676        	loopgtz	a6, 62dd <biquad_2cascade_24bitTx+0x59>
    629c:	5468d4        	ae_lp24x2.i	aep6, a8, -24
    629f:	50f414        	ae_lp24f.iu	aep7, a4, 4
    62a2:	5438e4        	ae_lp24x2.i	aep3, a8, -16
    62a5:	f14ebe72af 	{ ae_selp24.lh	aep2, aep7, aep2; ae_mulzaafp24s.hh.ll	aeq2, aep3, aep2 }
    62aa:	e3583058ff 	{ ae_lp24x2.i	aep5, a8, -8; ae_mulaafp24s.hh.ll	aeq2, aep6, aep2 }
    62af:	01d184        	ae_mulsfp24s.hh	aeq2, aep5, aep1
    62b2:	f13630481f 	{ ae_lp24x2.i	aep4, a8, 8; ae_mulssfp24s.hh.ll	aeq2, aep5, aep1 }
    62b7:	044904        	ae_mulzaafp24s.hh.ll	aeq1, aep4, aep1
    62ba:	1bad34        	ae_roundsp24q48asym	aep3, aeq2
    62bd:	dc2df0780f 	{ ae_lp24x2.i	aep7, a8, 0; ae_selp24.lh	aep1, aep3, aep1 }
    62c2:	e23c70682f 	{ ae_lp24x2.i	aep6, a8, 16; ae_mulaafp24s.hh.ll	aeq1, aep7, aep1 }
    62c7:	016884        	ae_mulsfp24s.hh	aeq1, aep6, aep0
    62ca:	0568c4        	ae_mulssfp24s.hh.ll	aeq1, aep6, aep0
    62cd:	fa6fb1586f 	{ ae_lp24.i	aep5, a8, 24; ae_roundsp24q48asym	aep4, aeq1 }
    62d2:	045404        	ae_mulzaafp24s.hh.ll	aeq0, aep5, aep4
    62d5:	1b8f34        	ae_roundsp16q48asym	aep3, aeq0
    62d8:	dc11b2b21f 	{ ae_sp16f.l.iu	aep3, a2, 2; ae_selp24.lh	aep0, aep4, aep0 }

000062dd <biquad_2cascade_24bitTx+0x59>:
    62dd:	562304        	ae_sp24x2s.i	aep2, a3, 0
    62e0:	561314        	ae_sp24x2s.i	aep1, a3, 8
    62e3:	560324        	ae_sp24x2s.i	aep0, a3, 16
    62e6:	f01d           	retw.n

000062e8 <conv_24_to_16>:
    62e8:	004136        	entry	a1, 32
    62eb:	f8c252        	addi	a5, a2, -8
    62ee:	540c           	movi.n	a4, 5
    62f0:	fcc322        	addi	a2, a3, -4
    62f3:	f03d           	nop.n
    62f5:	08a476        	loopgtz	a4, 6301 <conv_24_to_16+0x19>
    62f8:	5c9514        	ae_lp24x2f.iu	aep1, a5, 8
    62fb:	091184        	ae_roundsp16asym	aep0, aep1
    62fe:	468214        	ae_sp16x2f.iu	aep0, a2, 4

00006301 <conv_24_to_16+0x19>:
    6301:	f01d           	retw.n

00006303 <conv_24_to_16+0x1b>:
	...

00006304 <gain_after_ec>:
    6304:	008136        	entry	a1, 64
    6307:	fec332        	addi	a3, a3, -2
    630a:	e74981        	l32r	a8, 30 (e798 <p_ecnr_mem>)
    630d:	07bd           	mov.n	a11, a7
    630f:	440504        	ae_lp16x2f.i	aep0, a5, 0
    6312:	441404        	ae_lp16x2f.i	aep1, a4, 0
    6315:	fec592        	addi	a9, a5, -2
    6318:	fec4c2        	addi	a12, a4, -2
    631b:	01c9           	s32i.n	a12, a1, 0
    631d:	1199           	s32i.n	a9, a1, 4
    631f:	561124        	ae_sp24x2s.i	aep1, a1, 16
    6322:	560134        	ae_sp24x2s.i	aep0, a1, 24
    6325:	fec272        	addi	a7, a2, -2
    6328:	0888           	l32i.n	a8, a8, 0
    632a:	076d           	mov.n	a6, a7
    632c:	032d           	mov.n	a2, a3
    632e:	02d882        	addmi	a8, a8, 0x200
    6331:	6ec882        	addi	a8, a8, 110
    6334:	402804        	ae_lp16f.i	aep2, a8, 0
    6337:	562114        	ae_sp24x2s.i	aep2, a1, 8
    633a:	fb9c           	beqz.n	a11, 635d <gain_after_ec+0x59>
    633c:	e7e181        	l32r	a8, 2c0 (7e38 <airoha_divide>)
    633f:	e74ea1        	l32r	a10, 78 (8000 <xtensa_fft8_32b+0x28>)
    6342:	0008e0        	callx8	a8
    6345:	540134        	ae_lp24x2.i	aep0, a1, 24
    6348:	542114        	ae_lp24x2.i	aep2, a1, 8
    634b:	360b34        	ae_cvtq48a32s	aeq0, a11
    634e:	d4ea30112f 	{ ae_lp24x2.i	aep1, a1, 16; ae_mulfq32sp16s.l	aeq0, aeq0, aep2 }
    6353:	1198           	l32i.n	a9, a1, 4
    6355:	340a94        	ae_sllaq56	aeq0, aeq0, a10
    6358:	f967b001ce 	{ l32i	a12, a1, 0; ae_roundsp24q48asym	aep2, aeq0 }

0000635d <gain_after_ec+0x59>:
    635d:	aa0c           	movi.n	a10, 10
    635f:	47aa76        	loopgtz	a10, 63aa <gain_after_ec+0xa6>
    6362:	ea09acf71f 	{ ae_lp16f.iu	aep7, a7, 2; ae_mulfp24s.ll	aeq0, aep2, aep0 }
    6367:	e828ecd31f 	{ ae_lp16f.iu	aep5, a3, 2; ae_mulfp24s.hh	aeq1, aep2, aep1 }
    636c:	eb29ad941f 	{ ae_lp16x2f.iu	aep1, a4, 4; ae_mulfp24s.ll	aeq2, aep2, aep1 }
    6371:	350114        	ae_slliq56	aeq0, aeq0, 4
    6374:	e908faa18f 	{ ae_slliq56	aeq2, aeq2, 4; ae_mulfp24s.hh	aeq3, aep2, aep0 }
    6379:	faf3ba914f 	{ ae_slliq56	aeq1, aeq1, 4; ae_roundsp16q48sym	aep4, aeq2 }
    637e:	fbebbab1cf 	{ ae_slliq56	aeq3, aeq3, 4; ae_roundsp16q48sym	aep6, aeq1 }
    6383:	eaa9f2ec1f 	{ ae_sp16f.l.iu	aep6, a12, 2; ae_mulfp24s.ll	aeq1, aep2, aep5 }
    6388:	ebe9b2cc1f 	{ ae_sp16f.l.iu	aep4, a12, 2; ae_mulfp24s.ll	aeq2, aep2, aep7 }
    638d:	355114        	ae_slliq56	aeq1, aeq1, 4
    6390:	35a114        	ae_slliq56	aeq2, aeq2, 4
    6393:	f9fbed851f 	{ ae_lp16x2f.iu	aep0, a5, 4; ae_roundsp16q48sym	aep3, aeq3 }
    6398:	fbe3b2b91f 	{ ae_sp16f.l.iu	aep3, a9, 2; ae_roundsp16q48sym	aep6, aeq0 }
    639d:	faf3b2e91f 	{ ae_sp16f.l.iu	aep6, a9, 2; ae_roundsp16q48sym	aep4, aeq2 }
    63a2:	f9ebf2c61f 	{ ae_sp16f.l.iu	aep4, a6, 2; ae_roundsp16q48sym	aep3, aeq1 }
    63a7:	42b214        	ae_sp16f.l.iu	aep3, a2, 2

000063aa <gain_after_ec+0xa6>:
    63aa:	f01d           	retw.n

000063ac <adjust_phase>:
    63ac:	004136        	entry	a1, 32
    63af:	301334        	ae_cvtp24a16x2.ll	aep1, a3, a3
    63b2:	360234        	ae_cvtq48a32s	aeq0, a2
    63b5:	a11104        	ae_mulzaafq32sp16s.ll	aeq0, aeq0, aep1, aeq0, aep1
    63b8:	1b8f04        	ae_roundsp16q48asym	aep0, aeq0
    63bb:	0002d4        	ae_cvta32p24.l	a2, aep0
    63be:	f01d           	retw.n

000063c0 <adjust_bib_state>:
    63c0:	004136        	entry	a1, 32
    63c3:	fcc242        	addi	a4, a2, -4
    63c6:	600204        	ae_lq32f.i	aeq0, a2, 0
    63c9:	830c           	movi.n	a3, 8
    63cb:	f03d           	nop.n
    63cd:	0aa376        	loopgtz	a3, 63db <adjust_bib_state+0x1b>
    63d0:	350074        	ae_sraiq56	aeq0, aeq0, 1
    63d3:	f867bd121f 	{ ae_lq32f.iu	aeq0, a2, 4; ae_roundsp24q48asym	aep0, aeq0 }
    63d8:	528414        	ae_sp24f.l.iu	aep0, a4, 4

000063db <adjust_bib_state+0x1b>:
    63db:	f01d           	retw.n

000063dd <adjust_bib_state+0x1d>:
    63dd:	000000                                        ...

000063e0 <aec_post_prcs>:
    63e0:	004136        	entry	a1, 32
    63e3:	159282        	l16si	a8, a2, 42
    63e6:	03d272        	addmi	a7, a2, 0x300
    63e9:	28c292        	addi	a9, a2, 40
    63ec:	e7d451        	l32r	a5, 33c (7fffff <_end+0x7f185f>)
    63ef:	39b554        	ae_movpa24x2	aep3, a5, a5
    63f2:	406904        	ae_lp16f.i	aep6, a9, 0
    63f5:	d2c762        	addi	a6, a7, -46
    63f8:	302884        	ae_cvtp24a16x2.ll	aep2, a8, a8
    63fb:	d4c772        	addi	a7, a7, -44
    63fe:	149282        	l16si	a8, a2, 40
    6401:	155282        	s16i	a8, a2, 42
    6404:	400704        	ae_lp16f.i	aep0, a7, 0
    6407:	de5aec760f 	{ ae_lp16f.i	aep7, a6, 0; ae_subsp24s	aep5, aep6, aep2 }
    640c:	ea1d8fe42e 	{ addi	a2, a4, -2; ae_mulfp24s.ll	aeq0, aep7, aep0 }
    6411:	ce3440004f 	{ movi	a4, 0; ae_sraip24	aep5, aep5, 4 }
    6416:	fa67ac030f 	{ ae_lp16f.i	aep0, a3, 0; ae_roundsp24q48asym	aep4, aeq0 }

0000641b <aec_post_prcs+0x3b>:
    641b:	07a524        	ae_addsp24s	aep2, aep2, aep5
    641e:	07b294        	ae_subsp24s	aep1, aep3, aep2
    6421:	011c74        	ae_mulfp24s.ll	aeq1, aep1, aep4
    6424:	441b           	addi.n	a4, a4, 1
    6426:	355094        	ae_slliq56	aeq1, aeq1, 2
    6429:	fd2c400f9f 	{ movi	a9, 15; ae_roundsq32asym	aeq1, aeq1 }
    642e:	12a976        	loopgtz	a9, 6444 <aec_post_prcs+0x64>
    6431:	01a874        	ae_mulfp24s.ll	aeq3, aep2, aep0
    6434:	fe3c6cf21f 	{ ae_lp16f.iu	aep7, a2, 2; ae_roundsq32asym	aeq2, aeq3 }
    6439:	03f054        	ae_mulafq32sp16s.l	aeq2, aeq1, aep7
    643c:	fb73ac831f 	{ ae_lp16f.iu	aep0, a3, 2; ae_roundsp16q48asym	aep6, aeq2 }
    6441:	4263f4        	ae_sp16f.l.i	aep6, a3, -2

00006444 <aec_post_prcs+0x64>:
    6444:	d3b466        	bnei	a4, 16, 641b <aec_post_prcs+0x3b>
    6447:	f01d           	retw.n

00006449 <aec_post_prcs+0x69>:
    6449:	000000                                        ...

0000644c <AVC_prcs>:
    644c:	004136        	entry	a1, 32
    644f:	440304        	ae_lp16x2f.i	aep0, a3, 0
    6452:	fc2480788f 	{ movi	a8, 120; ae_zeroq56	aeq0 }
    6457:	04a876        	loopgtz	a8, 645f <AVC_prcs+0x13>
    645a:	e2002d831f 	{ ae_lp16x2f.iu	aep0, a3, 4; ae_mulaafp24s.hh.ll	aeq0, aep0, aep0 }

0000645f <AVC_prcs+0x13>:
    645f:	3581f4        	ae_sraiq56	aeq2, aeq0, 7
    6462:	e7b791        	l32r	a9, 340 (11111 <_end+0x2971>)
    6465:	fd3462099f 	{ ae_movpa24x2	aep0, a9, a9; ae_roundsq32asym	aeq1, aeq2 }
    646a:	080d64        	ae_mulfq32sp24s.l	aeq1, aeq1, aep0
    646d:	e79c81        	l32r	a8, 2e0 (a14 <HIFI_sqrt>)
    6470:	3551d4        	ae_slliq56	aeq1, aeq1, 7
    6473:	fc2c4000af 	{ movi	a10, 0; ae_roundsq32asym	aeq0, aeq1 }
    6478:	368b04        	ae_trunca32q48	a11, aeq0
    647b:	0008e0        	callx8	a8
    647e:	e79081        	l32r	a8, 2c0 (7e38 <airoha_divide>)
    6481:	604224        	ae_lq32f.i	aeq1, a2, 8
    6484:	368b34        	ae_cvtq48a32s	aeq2, a11
    6487:	441204        	ae_lp16x2f.i	aep1, a2, 0
    648a:	0292b2        	l16si	a11, a2, 4
    648d:	fc24feaa0f 	{ ae_slaasq56s	aeq0, aeq2, a10; nop }
    6492:	c11114        	ae_mulzaafq32sp16s.lh	aeq0, aeq0, aep1, aeq1, aep1
    6495:	11bb00        	slli	a11, a11, 16
    6498:	06c934        	ae_roundsq32asym	aeq3, aeq0
    649b:	36ba04        	ae_trunca32q48	a10, aeq3
    649e:	22a9           	s32i.n	a10, a2, 8
    64a0:	0008e0        	callx8	a8
    64a3:	e72a91        	l32r	a9, 14c (2000 <fn_ini_calc_sup_gain+0xa4>)
    64a6:	fecaa2        	addi	a10, a10, -2
    64a9:	360b34        	ae_cvtq48a32s	aeq0, a11
    64ac:	fc24fe8acf 	{ ae_slaasq56s	aeq3, aeq0, a10; nop }
    64b1:	f97ba0328e 	{ l16si	a8, a2, 6; ae_roundsp16q48asym	aep2, aeq3 }
    64b6:	362224        	ae_trunca16p24s.l	a2, aep2
    64b9:	532290        	max	a2, a2, a9
    64bc:	432280        	min	a2, a2, a8
    64bf:	f01d           	retw.n

000064c1 <AVC_prcs+0x75>:
    64c1:	000000                                        ...

000064c4 <gain_ref>:
    64c4:	004136        	entry	a1, 32
    64c7:	303334        	ae_cvtp24a16x2.ll	aep3, a3, a3
    64ca:	fcc222        	addi	a2, a2, -4
    64cd:	448214        	ae_lp16x2f.iu	aep0, a2, 4
    64d0:	17a476        	loopgtz	a4, 64eb <gain_ref+0x27>
    64d3:	010b54        	ae_mulfp24s.hl	aeq1, aep0, aep3
    64d6:	ea61ad821f 	{ ae_lp16x2f.iu	aep0, a2, 4; ae_mulfp24s.ll	aeq0, aep0, aep3 }
    64db:	355094        	ae_slliq56	aeq1, aeq1, 2
    64de:	f96bba802f 	{ ae_slliq56	aeq0, aeq0, 2; ae_roundsp16q48asym	aep2, aeq1 }
    64e3:	f863f222ef 	{ ae_sp16f.l.i	aep2, a2, -4; ae_roundsp16q48asym	aep1, aeq0 }
    64e8:	4212f4        	ae_sp16f.l.i	aep1, a2, -2

000064eb <gain_ref+0x27>:
    64eb:	f01d           	retw.n

000064ed <gain_ref+0x29>:
    64ed:	000000                                        ...

000064f0 <TxRef_VAD>:
    64f0:	006136        	entry	a1, 48
    64f3:	00a0a2        	movi	a10, 0
    64f6:	f0a082        	movi	a8, 240
    64f9:	08a876        	loopgtz	a8, 6505 <TxRef_VAD+0x15>
    64fc:	239d           	ae_l16si.n	a9, a3, 0
    64fe:	332b           	addi.n	a3, a3, 2
    6500:	609190        	abs	a9, a9
    6503:	aa9a           	add.n	a10, a10, a9

00006505 <TxRef_VAD+0x15>:
    6505:	eaac           	beqz.n	a10, 6537 <TxRef_VAD+0x47>
    6507:	e78f81        	l32r	a8, 344 (a78 <Log2_norm>)
    650a:	7b1c           	movi.n	a11, 23
    650c:	40eac0        	nsa	a12, a10
    650f:	401c00        	ssl	a12
    6512:	a1aa00        	sll	a10, a10
    6515:	c0bbc0        	sub	a11, a11, a12
    6518:	0008e0        	callx8	a8
    651b:	e78b81        	l32r	a8, 348 (4d10 <_start+0xa0>)
    651e:	e6ce31        	l32r	a3, 58 (80000000 <_end+0x7fff1860>)
    6521:	829a80        	mull	a9, a10, a8
    6524:	b28a80        	mulsh	a8, a10, a8
    6527:	393a           	add.n	a3, a9, a3
    6529:	623390        	saltu	a3, a3, a9
    652c:	338a           	add.n	a3, a3, a8
    652e:	0ad332        	addmi	a3, a3, 0xa00
    6531:	a2c332        	addi	a3, a3, -94
    6534:	000046        	j	6539 <TxRef_VAD+0x49>

00006537 <TxRef_VAD+0x47>:
    6537:	030c           	movi.n	a3, 0

00006539 <TxRef_VAD+0x49>:
    6539:	0392a2        	l16si	a10, a2, 6
    653c:	029292        	l16si	a9, a2, 4
    653f:	e6ce41        	l32r	a4, 78 (8000 <xtensa_fft8_32b+0x28>)
    6542:	0492b2        	l16si	a11, a2, 8
    6545:	533930        	max	a3, a9, a3
    6548:	c0c4a0        	sub	a12, a4, a10
    654b:	11cc00        	slli	a12, a12, 16
    654e:	aaca           	add.n	a10, a10, a12
    6550:	01a9           	s32i.n	a10, a1, 0
    6552:	c0c4b0        	sub	a12, a4, a11
    6555:	11cc00        	slli	a12, a12, 16
    6558:	bbca           	add.n	a11, a11, a12
    655a:	11b9           	s32i.n	a11, a1, 4
    655c:	01cd           	mov.n	a12, a1
    655e:	03bd           	mov.n	a11, a3
    6560:	42a8           	l32i.n	a10, a2, 16
    6562:	ff7f25        	call8	5d54 <siir_safr>
    6565:	03bd           	mov.n	a11, a3
    6567:	01cd           	mov.n	a12, a1
    6569:	0592d2        	l16si	a13, a2, 10
    656c:	0692e2        	l16si	a14, a2, 12
    656f:	42a9           	s32i.n	a10, a2, 16
    6571:	c0f4d0        	sub	a15, a4, a13
    6574:	11ff00        	slli	a15, a15, 16
    6577:	ddfa           	add.n	a13, a13, a15
    6579:	01d9           	s32i.n	a13, a1, 0
    657b:	c0f4e0        	sub	a15, a4, a14
    657e:	11ff00        	slli	a15, a15, 16
    6581:	eefa           	add.n	a14, a14, a15
    6583:	11e9           	s32i.n	a14, a1, 4
    6585:	52a8           	l32i.n	a10, a2, 20
    6587:	ff7ce5        	call8	5d54 <siir_safr>
    658a:	42b8           	l32i.n	a11, a2, 16
    658c:	52a9           	s32i.n	a10, a2, 20
    658e:	228d           	ae_l16si.n	a8, a2, 0
    6590:	0a9d           	mov.n	a9, a10
    6592:	0a0c           	movi.n	a10, 0
    6594:	88ba           	add.n	a8, a8, a11
    6596:	0ca897        	bge	a8, a9, 65a6 <TxRef_VAD+0xb6>
    6599:	190c           	movi.n	a9, 1

0000659b <TxRef_VAD+0xab>:
    659b:	0c5292        	s16i	a9, a2, 24

0000659e <TxRef_VAD+0xae>:
    659e:	0d52a2        	s16i	a10, a2, 26
    65a1:	0c9222        	l16si	a2, a2, 24
    65a4:	f01d           	retw.n

000065a6 <TxRef_VAD+0xb6>:
    65a6:	0c92c2        	l16si	a12, a2, 24
    65a9:	0d92b2        	l16si	a11, a2, 26
    65ac:	091c66        	bnei	a12, 1, 65b9 <TxRef_VAD+0xc9>
    65af:	32dd           	ae_l16si.n	a13, a2, 2
    65b1:	0a9d           	mov.n	a9, a10
    65b3:	02adb7        	bge	a13, a11, 65b9 <TxRef_VAD+0xc9>
    65b6:	fff846        	j	659b <TxRef_VAD+0xab>

000065b9 <TxRef_VAD+0xc9>:
    65b9:	ab1b           	addi.n	a10, a11, 1
    65bb:	fff7c6        	j	659e <TxRef_VAD+0xae>

000065be <TxRef_VAD+0xce>:
	...

000065c0 <Voice_WB_TX_Inear_Prcs>:
    65c0:	01c136        	entry	a1, 224
    65c3:	286142        	s32i	a4, a1, 160
    65c6:	276172        	s32i	a7, a1, 156
    65c9:	059d           	mov.n	a9, a5
    65cb:	03bd           	mov.n	a11, a3
    65cd:	e69851        	l32r	a5, 30 (e798 <p_ecnr_mem>)
    65d0:	02cd           	mov.n	a12, a2
    65d2:	063d           	mov.n	a3, a6
    65d4:	05f8           	l32i.n	a15, a5, 0
    65d6:	e75d21        	l32r	a2, 34c (ce08 <ABS_THR45+0x48>)
    65d9:	e74d61        	l32r	a6, 310 (e79c <avc_vol>)
    65dc:	01dfd2        	addmi	a13, a15, 0x100
    65df:	ef2a           	add.n	a14, a15, a2
    65e1:	15df72        	addmi	a7, a15, 0x1500
    65e4:	0ddf42        	addmi	a4, a15, 0xd00
    65e7:	28c442        	addi	a4, a4, 40
    65ea:	78c782        	addi	a8, a7, 120
    65ed:	402ea2        	l32i	a10, a14, 0x100
    65f0:	b99772        	l16si	a7, a7, 0x172
    65f3:	1c6182        	s32i	a8, a1, 112
    65f6:	c09d82        	l16si	a8, a13, 0x180
    65f9:	04daa2        	addmi	a10, a10, 0x400
    65fc:	147e70        	extui	a7, a7, 14, 2
    65ff:	3c6807        	bbci	a8, 0, 663f <Voice_WB_TX_Inear_Prcs+0x7f>
    6602:	97fc           	bnez.n	a7, 663f <Voice_WB_TX_Inear_Prcs+0x7f>
    6604:	2c61c2        	s32i	a12, a1, 176
    6607:	1661a2        	s32i	a10, a1, 88
    660a:	266192        	s32i	a9, a1, 152
    660d:	ab2f82        	l32i	a8, a15, 0x2ac
    6610:	2a6182        	s32i	a8, a1, 168
    6613:	50df82        	addmi	a8, a15, 0x5000
    6616:	7fd882        	addmi	a8, a8, 0x7f00
    6619:	0a9882        	l16si	a8, a8, 20
    661c:	aa2f72        	l32i	a7, a15, 0x2a8
    661f:	2b6172        	s32i	a7, a1, 172
    6622:	071816        	beqz	a8, 6697 <Voice_WB_TX_Inear_Prcs+0xd7>
    6625:	e73ca1        	l32r	a10, 318 (cf14 <M_norm64+0x94>)
    6628:	0b7d           	mov.n	a7, a11
    662a:	e74981        	l32r	a8, 350 (64f0 <TxRef_VAD>)
    662d:	2821b2        	l32i	a11, a1, 160
    6630:	afaa           	add.n	a10, a15, a10
    6632:	0008e0        	callx8	a8
    6635:	05f8           	l32i.n	a15, a5, 0
    6637:	ef2a           	add.n	a14, a15, a2
    6639:	01dfd2        	addmi	a13, a15, 0x100
    663c:	0020c6        	j	66c3 <Voice_WB_TX_Inear_Prcs+0x103>

0000663f <Voice_WB_TX_Inear_Prcs+0x7f>:
    663f:	e6c3d1        	l32r	a13, 14c (2000 <fn_ini_calc_sup_gain+0xa4>)
    6642:	66dd           	ae_s16i.n	a13, a6, 0
    6644:	778c           	beqz.n	a7, 664f <Voice_WB_TX_Inear_Prcs+0x8f>
    6646:	052726        	beqi	a7, 2, 664f <Voice_WB_TX_Inear_Prcs+0x8f>
    6649:	0a1726        	beqi	a7, 1, 6657 <Voice_WB_TX_Inear_Prcs+0x97>
    664c:	000046        	j	6651 <Voice_WB_TX_Inear_Prcs+0x91>

0000664f <Voice_WB_TX_Inear_Prcs+0x8f>:
    664f:	0c7d           	mov.n	a7, a12

00006651 <Voice_WB_TX_Inear_Prcs+0x91>:
    6651:	e6d1a1        	l32r	a10, 198 (800 <TX_ECNR_PARA_init+0x248>)
    6654:	0001c6        	j	665f <Voice_WB_TX_Inear_Prcs+0x9f>

00006657 <Voice_WB_TX_Inear_Prcs+0x97>:
    6657:	1c21a2        	l32i	a10, a1, 112
    665a:	0b7d           	mov.n	a7, a11
    665c:	829aa2        	l16si	a10, a10, 0x104
    665f:	301aa4        	ae_cvtp24a16x2.ll	aep1, a10, a10
    6662:	fec9b2        	addi	a11, a9, -2
    6665:	f0a0c2        	movi	a12, 240
    6668:	079d           	mov.n	a9, a7
    666a:	408904        	ae_lp16f.iu	aep0, a9, 0
    666d:	0eac76        	loopgtz	a12, 667f <Voice_WB_TX_Inear_Prcs+0xbf>
    6670:	001874        	ae_mulfs32p16s.ll	aeq1, aep1, aep0
    6673:	361114        	ae_sllisq56s	aeq0, aeq1, 4
    6676:	1b8f04        	ae_roundsp16q48asym	aep0, aeq0
    6679:	428b14        	ae_sp16f.l.iu	aep0, a11, 2
    667c:	408914        	ae_lp16f.iu	aep0, a9, 2

0000667f <Voice_WB_TX_Inear_Prcs+0xbf>:
    667f:	05e8           	l32i.n	a14, a5, 0
    6681:	fe2a           	add.n	a15, a14, a2
    6683:	0cdee2        	addmi	a14, a14, 0xc00
    6686:	7c9ff2        	l16si	a15, a15, 248
    6689:	73fd           	ae_s16i.n	a15, a3, 2
    668b:	949ee2        	l16si	a14, a14, 0x128
    668e:	63ed           	ae_s16i.n	a14, a3, 0
    6690:	26dd           	ae_l16si.n	a13, a6, 0
    6692:	0253d2        	s16i	a13, a3, 4
    6695:	f01d           	retw.n

00006697 <Voice_WB_TX_Inear_Prcs+0xd7>:
    6697:	0b7d           	mov.n	a7, a11
    6699:	680c           	movi.n	a8, 6
    669b:	02df92        	addmi	a9, a15, 0x200
    669e:	60c992        	addi	a9, a9, 96
    66a1:	04a876        	loopgtz	a8, 66a9 <Voice_WB_TX_Inear_Prcs+0xe9>
    66a4:	39ad           	ae_l16si.n	a10, a9, 2
    66a6:	09c9a4        	ae_s16ip	a10, a9, 2

000066a9 <Voice_WB_TX_Inear_Prcs+0xe9>:
    66a9:	bf9dc2        	l16si	a12, a13, 0x17e
    66ac:	11cc90        	slli	a12, a12, 7
    66af:	69cd           	ae_s16i.n	a12, a9, 0
    66b1:	7a1eb2        	l16ui	a11, a14, 244
    66b4:	90bbf0        	addx2	a11, a11, a15
    66b7:	02dbb2        	addmi	a11, a11, 0x200
    66ba:	309bb2        	l16si	a11, a11, 96
    66bd:	ffa3a2        	movi	a10, 0x3ff
    66c0:	72aab0        	salt	a10, a10, a11

000066c3 <Voice_WB_TX_Inear_Prcs+0x103>:
    66c3:	be9d62        	l16si	a6, a13, 0x17c
    66c6:	3aac           	beqz.n	a10, 66ed <Voice_WB_TX_Inear_Prcs+0x12d>
    66c8:	086c           	movi.n	a8, -32
    66ca:	0ba867        	bge	a8, a6, 66d9 <Voice_WB_TX_Inear_Prcs+0x119>
    66cd:	f87c           	movi.n	a8, -1
    66cf:	660b           	addi.n	a6, a6, -1
    66d1:	436680        	min	a6, a6, a8
    66d4:	866d           	ae_sext16	a6, a6
    66d6:	be5d62        	s16i	a6, a13, 0x17c

000066d9 <Voice_WB_TX_Inear_Prcs+0x119>:
    66d9:	1894b2        	l16si	a11, a4, 48
    66dc:	ffa192        	movi	a9, 0x1ff
    66df:	1929b7        	blt	a9, a11, 66fc <Voice_WB_TX_Inear_Prcs+0x13c>
    66e2:	be9d62        	l16si	a6, a13, 0x17c
    66e5:	ab1b           	addi.n	a10, a11, 1
    66e7:	1854a2        	s16i	a10, a4, 48
    66ea:	000386        	j	66fc <Voice_WB_TX_Inear_Prcs+0x13c>

000066ed <Voice_WB_TX_Inear_Prcs+0x12d>:
    66ed:	0bc6e6        	bgei	a6, 32, 66fc <Voice_WB_TX_Inear_Prcs+0x13c>
    66f0:	180c           	movi.n	a8, 1
    66f2:	661b           	addi.n	a6, a6, 1
    66f4:	536680        	max	a6, a6, a8
    66f7:	866d           	ae_sext16	a6, a6
    66f9:	be5d62        	s16i	a6, a13, 0x17c
    66fc:	2821b2        	l32i	a11, a1, 160
    66ff:	7b1ed2        	l16ui	a13, a14, 246
    6702:	2d6132        	s32i	a3, a1, 180
    6705:	e71381        	l32r	a8, 354 (5f74 <mic240_delay>)
    6708:	01d492        	addmi	a9, a4, 0x100
    670b:	0a0c           	movi.n	a10, 0
    670d:	01dfc2        	addmi	a12, a15, 0x100
    6710:	80ccc2        	addi	a12, a12, -128
    6713:	1a64a2        	s32i	a10, a4, 104
    6716:	2e64a2        	s32i	a10, a4, 184
    6719:	4264a2        	s32i	a10, a4, 0x108
    671c:	5664a2        	s32i	a10, a4, 0x158
    671f:	1b64a2        	s32i	a10, a4, 108
    6722:	2f64a2        	s32i	a10, a4, 188
    6725:	4364a2        	s32i	a10, a4, 0x10c
    6728:	5764a2        	s32i	a10, a4, 0x15c
    672b:	6a64a2        	s32i	a10, a4, 0x1a8
    672e:	7e64a2        	s32i	a10, a4, 0x1f8
    6731:	9264a2        	s32i	a10, a4, 0x248
    6734:	a664a2        	s32i	a10, a4, 0x298
    6737:	6b64a2        	s32i	a10, a4, 0x1ac
    673a:	7f64a2        	s32i	a10, a4, 0x1fc
    673d:	9364a2        	s32i	a10, a4, 0x24c
    6740:	a764a2        	s32i	a10, a4, 0x29c
    6743:	1d6192        	s32i	a9, a1, 116
    6746:	1621a2        	l32i	a10, a1, 88
    6749:	0008e0        	callx8	a8
    674c:	162132        	l32i	a3, a1, 88
    674f:	10c1a2        	addi	a10, a1, 16
    6752:	e65f81        	l32r	a8, d0 (8820 <xt_memset>)
    6755:	0b0c           	movi.n	a11, 0
    6757:	ac0c           	movi.n	a12, 10
    6759:	0008e0        	callx8	a8
    675c:	05e8           	l32i.n	a14, a5, 0
    675e:	079d           	mov.n	a9, a7
    6760:	f0a0a2        	movi	a10, 240
    6763:	ee2a           	add.n	a14, a14, a2
    6765:	10aa76        	loopgtz	a10, 6779 <Voice_WB_TX_Inear_Prcs+0x1b9>
    6768:	849ea2        	l16si	a10, a14, 0x108
    676b:	298d           	ae_l16si.n	a8, a9, 0
    676d:	d188a0        	mul16s	a8, a8, a10
    6770:	40d882        	addmi	a8, a8, 0x4000
    6773:	218f80        	srai	a8, a8, 15
    6776:	09c984        	ae_s16ip	a8, a9, 2

00006779 <Voice_WB_TX_Inear_Prcs+0x1b9>:
    6779:	07ad           	mov.n	a10, a7
    677b:	78a0c2        	movi	a12, 120
    677e:	e6f681        	l32r	a8, 358 (6cdc <conv_16_to_24_x2>)
    6781:	3f2eb2        	l32i	a11, a14, 252
    6784:	1761b2        	s32i	a11, a1, 92
    6787:	0008e0        	callx8	a8
    678a:	1721a2        	l32i	a10, a1, 92
    678d:	07dd           	mov.n	a13, a7
    678f:	05b8           	l32i.n	a11, a5, 0
    6791:	f0a0e2        	movi	a14, 240
    6794:	e6f281        	l32r	a8, 35c (6284 <biquad_2cascade_24bitTx>)
    6797:	40cbc2        	addi	a12, a11, 64
    679a:	0ddbb2        	addmi	a11, a11, 0xd00
    679d:	e8cbb2        	addi	a11, a11, -24
    67a0:	0008e0        	callx8	a8
    67a3:	02d4c2        	addmi	a12, a4, 0x200
    67a6:	01d4b2        	addmi	a11, a4, 0x100
    67a9:	02d4a2        	addmi	a10, a4, 0x200
    67ac:	20c1d2        	addi	a13, a1, 32
    67af:	1cc1e2        	addi	a14, a1, 28
    67b2:	18c192        	addi	a9, a1, 24
    67b5:	14c1f2        	addi	a15, a1, 20
    67b8:	50c482        	addi	a8, a4, 80
    67bb:	1e6182        	s32i	a8, a1, 120
    67be:	1961f2        	s32i	a15, a1, 100
    67c1:	186192        	s32i	a9, a1, 96
    67c4:	1a61e2        	s32i	a14, a1, 104
    67c7:	1b61d2        	s32i	a13, a1, 108
    67ca:	e0caa2        	addi	a10, a10, -32
    67cd:	f0cbb2        	addi	a11, a11, -16
    67d0:	1f61b2        	s32i	a11, a1, 124
    67d3:	2561a2        	s32i	a10, a1, 148
    67d6:	01d4d2        	addmi	a13, a4, 0x100
    67d9:	03d4e2        	addmi	a14, a4, 0x300
    67dc:	690c           	movi.n	a9, 6
    67de:	296192        	s32i	a9, a1, 164
    67e1:	80cee2        	addi	a14, a14, -128
    67e4:	40cdf2        	addi	a15, a13, 64
    67e7:	90cc82        	addi	a8, a12, -112
    67ea:	226182        	s32i	a8, a1, 136
    67ed:	2061f2        	s32i	a15, a1, 128
    67f0:	2461e2        	s32i	a14, a1, 144
    67f3:	30ccc2        	addi	a12, a12, 48
    67f6:	a0cdd2        	addi	a13, a13, -96
    67f9:	2161d2        	s32i	a13, a1, 132
    67fc:	2361c2        	s32i	a12, a1, 140

000067ff <Voice_WB_TX_Inear_Prcs+0x23f>:
    67ff:	2c21a2        	l32i	a10, a1, 176
    6802:	05c8           	l32i.n	a12, a5, 0
    6804:	8d2c           	movi.n	a13, 40
    6806:	e6d681        	l32r	a8, 360 (60d0 <emph_filter_N>)
    6809:	7cccb2        	addi	a11, a12, 124
    680c:	34ccc2        	addi	a12, a12, 52
    680f:	0008e0        	callx8	a8
    6812:	03ad           	mov.n	a10, a3
    6814:	05c8           	l32i.n	a12, a5, 0
    6816:	8d2c           	movi.n	a13, 40
    6818:	e6d281        	l32r	a8, 360 (60d0 <emph_filter_N>)
    681b:	7cccb2        	addi	a11, a12, 124
    681e:	38ccc2        	addi	a12, a12, 56
    6821:	0008e0        	callx8	a8
    6824:	2c21c2        	l32i	a12, a1, 176
    6827:	05d8           	l32i.n	a13, a5, 0
    6829:	10c1e2        	addi	a14, a1, 16
    682c:	e6ce81        	l32r	a8, 364 (5ff0 <tx_downsample_by2>)
    682f:	a22da2        	l32i	a10, a13, 0x288
    6832:	a32db2        	l32i	a11, a13, 0x28c
    6835:	0cddd2        	addmi	a13, a13, 0xc00
    6838:	30cdd2        	addi	a13, a13, 48
    683b:	0008e0        	callx8	a8
    683e:	03cd           	mov.n	a12, a3
    6840:	05d8           	l32i.n	a13, a5, 0
    6842:	1821e2        	l32i	a14, a1, 96
    6845:	e6c781        	l32r	a8, 364 (5ff0 <tx_downsample_by2>)
    6848:	a62da2        	l32i	a10, a13, 0x298
    684b:	a72db2        	l32i	a11, a13, 0x29c
    684e:	0cddd2        	addmi	a13, a13, 0xc00
    6851:	50cdd2        	addi	a13, a13, 80
    6854:	0008e0        	callx8	a8
    6857:	4d24d2        	l32i	a13, a4, 0x134
    685a:	05c8           	l32i.n	a12, a5, 0
    685c:	3924e2        	l32i	a14, a4, 228
    685f:	e6c281        	l32r	a8, 368 (6150 <analy_3band>)
    6862:	a22ca2        	l32i	a10, a12, 0x288
    6865:	10dcb2        	addmi	a11, a12, 0x1000
    6868:	38cbb2        	addi	a11, a11, 56
    686b:	a12cc2        	l32i	a12, a12, 0x284
    686e:	0008e0        	callx8	a8
    6871:	2524d2        	l32i	a13, a4, 148
    6874:	05c8           	l32i.n	a12, a5, 0
    6876:	ae0c           	movi.n	a14, 10
    6878:	e6b981        	l32r	a8, 35c (6284 <biquad_2cascade_24bitTx>)
    687b:	a12ca2        	l32i	a10, a12, 0x284
    687e:	0ddcb2        	addmi	a11, a12, 0xd00
    6881:	d0cbb2        	addi	a11, a11, -48
    6884:	0008e0        	callx8	a8
    6887:	4e24d2        	l32i	a13, a4, 0x138
    688a:	05c8           	l32i.n	a12, a5, 0
    688c:	3a24e2        	l32i	a14, a4, 232
    688f:	e6b681        	l32r	a8, 368 (6150 <analy_3band>)
    6892:	a62ca2        	l32i	a10, a12, 0x298
    6895:	10dcb2        	addmi	a11, a12, 0x1000
    6898:	78cbb2        	addi	a11, a11, 120
    689b:	a12cc2        	l32i	a12, a12, 0x284
    689e:	0008e0        	callx8	a8
    68a1:	05a8           	l32i.n	a10, a5, 0
    68a3:	e6b281        	l32r	a8, 36c (62e8 <conv_24_to_16>)
    68a6:	2624b2        	l32i	a11, a4, 152
    68a9:	a12aa2        	l32i	a10, a10, 0x284
    68ac:	0008e0        	callx8	a8
    68af:	04ad           	mov.n	a10, a4
    68b1:	1e21b2        	l32i	a11, a1, 120
    68b4:	ac0c           	movi.n	a12, 10
    68b6:	e6ae81        	l32r	a8, 370 (5630 <subband_aec_block>)
    68b9:	06dd           	mov.n	a13, a6
    68bb:	1e0c           	movi.n	a14, 1
    68bd:	0008e0        	callx8	a8
    68c0:	04ad           	mov.n	a10, a4
    68c2:	1f21b2        	l32i	a11, a1, 124
    68c5:	ac0c           	movi.n	a12, 10
    68c7:	e6aa81        	l32r	a8, 370 (5630 <subband_aec_block>)
    68ca:	06dd           	mov.n	a13, a6
    68cc:	3e0c           	movi.n	a14, 3
    68ce:	0008e0        	callx8	a8
    68d1:	04ad           	mov.n	a10, a4
    68d3:	2021b2        	l32i	a11, a1, 128
    68d6:	4c1c           	movi.n	a12, 20
    68d8:	e6a681        	l32r	a8, 370 (5630 <subband_aec_block>)
    68db:	06dd           	mov.n	a13, a6
    68dd:	4e0c           	movi.n	a14, 4
    68df:	0008e0        	callx8	a8
    68e2:	04ad           	mov.n	a10, a4
    68e4:	2121b2        	l32i	a11, a1, 132
    68e7:	e6a381        	l32r	a8, 374 (58d0 <subband_aec_mid_channel>)
    68ea:	06cd           	mov.n	a12, a6
    68ec:	2d0c           	movi.n	a13, 2
    68ee:	0008e0        	callx8	a8
    68f1:	2724a2        	l32i	a10, a4, 156
    68f4:	4f24b2        	l32i	a11, a4, 0x13c
    68f7:	6324c2        	l32i	a12, a4, 0x18c
    68fa:	3b24d2        	l32i	a13, a4, 236
    68fd:	e69e81        	l32r	a8, 378 (6304 <gain_after_ec>)
    6900:	0e0c           	movi.n	a14, 0
    6902:	0f0c           	movi.n	a15, 0
    6904:	0008e0        	callx8	a8
    6907:	07ad           	mov.n	a10, a7
    6909:	05c8           	l32i.n	a12, a5, 0
    690b:	8d2c           	movi.n	a13, 40
    690d:	e69481        	l32r	a8, 360 (60d0 <emph_filter_N>)
    6910:	7cccb2        	addi	a11, a12, 124
    6913:	3cccc2        	addi	a12, a12, 60
    6916:	0008e0        	callx8	a8
    6919:	07cd           	mov.n	a12, a7
    691b:	05d8           	l32i.n	a13, a5, 0
    691d:	1921e2        	l32i	a14, a1, 100
    6920:	e69181        	l32r	a8, 364 (5ff0 <tx_downsample_by2>)
    6923:	a42da2        	l32i	a10, a13, 0x290
    6926:	a52db2        	l32i	a11, a13, 0x294
    6929:	0cddd2        	addmi	a13, a13, 0xc00
    692c:	70cdd2        	addi	a13, a13, 112
    692f:	0008e0        	callx8	a8
    6932:	9d24d2        	l32i	a13, a4, 0x274
    6935:	05c8           	l32i.n	a12, a5, 0
    6937:	8924e2        	l32i	a14, a4, 0x224
    693a:	e68b81        	l32r	a8, 368 (6150 <analy_3band>)
    693d:	a42ca2        	l32i	a10, a12, 0x290
    6940:	11dcb2        	addmi	a11, a12, 0x1100
    6943:	b8cbb2        	addi	a11, a11, -72
    6946:	a12cc2        	l32i	a12, a12, 0x284
    6949:	0008e0        	callx8	a8
    694c:	05a8           	l32i.n	a10, a5, 0
    694e:	e68781        	l32r	a8, 36c (62e8 <conv_24_to_16>)
    6951:	7524b2        	l32i	a11, a4, 0x1d4
    6954:	a12aa2        	l32i	a10, a10, 0x284
    6957:	0008e0        	callx8	a8
    695a:	04ad           	mov.n	a10, a4
    695c:	2221b2        	l32i	a11, a1, 136
    695f:	ac0c           	movi.n	a12, 10
    6961:	e68381        	l32r	a8, 370 (5630 <subband_aec_block>)
    6964:	06dd           	mov.n	a13, a6
    6966:	1e0c           	movi.n	a14, 1
    6968:	0008e0        	callx8	a8
    696b:	04ad           	mov.n	a10, a4
    696d:	2321b2        	l32i	a11, a1, 140
    6970:	ac0c           	movi.n	a12, 10
    6972:	e67f81        	l32r	a8, 370 (5630 <subband_aec_block>)
    6975:	06dd           	mov.n	a13, a6
    6977:	3e0c           	movi.n	a14, 3
    6979:	0008e0        	callx8	a8
    697c:	04ad           	mov.n	a10, a4
    697e:	2421b2        	l32i	a11, a1, 144
    6981:	4c1c           	movi.n	a12, 20
    6983:	e67b81        	l32r	a8, 370 (5630 <subband_aec_block>)
    6986:	06dd           	mov.n	a13, a6
    6988:	4e0c           	movi.n	a14, 4
    698a:	0008e0        	callx8	a8
    698d:	04ad           	mov.n	a10, a4
    698f:	2521b2        	l32i	a11, a1, 148
    6992:	e67881        	l32r	a8, 374 (58d0 <subband_aec_mid_channel>)
    6995:	06cd           	mov.n	a12, a6
    6997:	2d0c           	movi.n	a13, 2
    6999:	0008e0        	callx8	a8
    699c:	7724a2        	l32i	a10, a4, 0x1dc
    699f:	9f24b2        	l32i	a11, a4, 0x27c
    69a2:	b324c2        	l32i	a12, a4, 0x2cc
    69a5:	8b24d2        	l32i	a13, a4, 0x22c
    69a8:	05f8           	l32i.n	a15, a5, 0
    69aa:	0e0c           	movi.n	a14, 0
    69ac:	e67381        	l32r	a8, 378 (6304 <gain_after_ec>)
    69af:	ff2a           	add.n	a15, a15, a2
    69b1:	849ff2        	l16si	a15, a15, 0x108
    69b4:	0008e0        	callx8	a8
    69b7:	2724a2        	l32i	a10, a4, 156
    69ba:	4f24b2        	l32i	a11, a4, 0x13c
    69bd:	05e8           	l32i.n	a14, a5, 0
    69bf:	3b24c2        	l32i	a12, a4, 236
    69c2:	e66e81        	l32r	a8, 37c (61fc <synth_3band>)
    69c5:	11ded2        	addmi	a13, a14, 0x1100
    69c8:	f8cdd2        	addi	a13, a13, -8
    69cb:	a92ee2        	l32i	a14, a14, 0x2a4
    69ce:	0008e0        	callx8	a8
    69d1:	7724a2        	l32i	a10, a4, 0x1dc
    69d4:	9f24b2        	l32i	a11, a4, 0x27c
    69d7:	05e8           	l32i.n	a14, a5, 0
    69d9:	8b24c2        	l32i	a12, a4, 0x22c
    69dc:	e66881        	l32r	a8, 37c (61fc <synth_3band>)
    69df:	11ded2        	addmi	a13, a14, 0x1100
    69e2:	74cdd2        	addi	a13, a13, 116
    69e5:	a82ee2        	l32i	a14, a14, 0x2a0
    69e8:	0008e0        	callx8	a8
    69eb:	6324b2        	l32i	a11, a4, 0x18c
    69ee:	2a21c2        	l32i	a12, a1, 168
    69f1:	05d8           	l32i.n	a13, a5, 0
    69f3:	1a21e2        	l32i	a14, a1, 104
    69f6:	e66281        	l32r	a8, 380 (6060 <tx_upsample_by2>)
    69f9:	a92da2        	l32i	a10, a13, 0x2a4
    69fc:	0dddd2        	addmi	a13, a13, 0xd00
    69ff:	90cdd2        	addi	a13, a13, -112
    6a02:	0008e0        	callx8	a8
    6a05:	b324b2        	l32i	a11, a4, 0x2cc
    6a08:	2b21c2        	l32i	a12, a1, 172
    6a0b:	05d8           	l32i.n	a13, a5, 0
    6a0d:	1b21e2        	l32i	a14, a1, 108
    6a10:	e65c81        	l32r	a8, 380 (6060 <tx_upsample_by2>)
    6a13:	a82da2        	l32i	a10, a13, 0x2a0
    6a16:	0dddd2        	addmi	a13, a13, 0xd00
    6a19:	b0cdd2        	addi	a13, a13, -80
    6a1c:	0008e0        	callx8	a8
    6a1f:	50c772        	addi	a7, a7, 80
    6a22:	50c332        	addi	a3, a3, 80
    6a25:	2c21b2        	l32i	a11, a1, 176
    6a28:	292182        	l32i	a8, a1, 164
    6a2b:	2b2192        	l32i	a9, a1, 172
    6a2e:	2a21a2        	l32i	a10, a1, 168
    6a31:	880b           	addi.n	a8, a8, -1
    6a33:	50c992        	addi	a9, a9, 80
    6a36:	50caa2        	addi	a10, a10, 80
    6a39:	50cbb2        	addi	a11, a11, 80
    6a3c:	2c61b2        	s32i	a11, a1, 176
    6a3f:	2a61a2        	s32i	a10, a1, 168
    6a42:	2b6192        	s32i	a9, a1, 172
    6a45:	296182        	s32i	a8, a1, 164
    6a48:	db3856        	bnez	a8, 67ff <Voice_WB_TX_Inear_Prcs+0x23f>
    6a4b:	41c8           	l32i.n	a12, a1, 16
    6a4d:	e58c31        	l32r	a3, 80 (4000 <inear_ast_nr_proc+0x28>)
    6a50:	0d23c7        	blt	a3, a12, 6a61 <Voice_WB_TX_Inear_Prcs+0x4a1>
    6a53:	05a8           	l32i.n	a10, a5, 0
    6a55:	e64b81        	l32r	a8, 384 (63c0 <adjust_bib_state>)
    6a58:	0cdaa2        	addmi	a10, a10, 0xc00
    6a5b:	30caa2        	addi	a10, a10, 48
    6a5e:	0008e0        	callx8	a8

00006a61 <Voice_WB_TX_Inear_Prcs+0x4a1>:
    6a61:	71c8           	l32i.n	a12, a1, 28
    6a63:	1d2162        	l32i	a6, a1, 116
    6a66:	0d23c7        	blt	a3, a12, 6a77 <Voice_WB_TX_Inear_Prcs+0x4b7>
    6a69:	05a8           	l32i.n	a10, a5, 0
    6a6b:	e64681        	l32r	a8, 384 (63c0 <adjust_bib_state>)
    6a6e:	0ddaa2        	addmi	a10, a10, 0xd00
    6a71:	90caa2        	addi	a10, a10, -112
    6a74:	0008e0        	callx8	a8

00006a77 <Voice_WB_TX_Inear_Prcs+0x4b7>:
    6a77:	61c8           	l32i.n	a12, a1, 24
    6a79:	0d23c7        	blt	a3, a12, 6a8a <Voice_WB_TX_Inear_Prcs+0x4ca>
    6a7c:	05a8           	l32i.n	a10, a5, 0
    6a7e:	e64181        	l32r	a8, 384 (63c0 <adjust_bib_state>)
    6a81:	0cdaa2        	addmi	a10, a10, 0xc00
    6a84:	50caa2        	addi	a10, a10, 80
    6a87:	0008e0        	callx8	a8

00006a8a <Voice_WB_TX_Inear_Prcs+0x4ca>:
    6a8a:	51c8           	l32i.n	a12, a1, 20
    6a8c:	0d23c7        	blt	a3, a12, 6a9d <Voice_WB_TX_Inear_Prcs+0x4dd>
    6a8f:	05a8           	l32i.n	a10, a5, 0
    6a91:	e63c81        	l32r	a8, 384 (63c0 <adjust_bib_state>)
    6a94:	0cdaa2        	addmi	a10, a10, 0xc00
    6a97:	70caa2        	addi	a10, a10, 112
    6a9a:	0008e0        	callx8	a8

00006a9d <Voice_WB_TX_Inear_Prcs+0x4dd>:
    6a9d:	81c8           	l32i.n	a12, a1, 32
    6a9f:	0d23c7        	blt	a3, a12, 6ab0 <Voice_WB_TX_Inear_Prcs+0x4f0>
    6aa2:	05a8           	l32i.n	a10, a5, 0
    6aa4:	e63881        	l32r	a8, 384 (63c0 <adjust_bib_state>)
    6aa7:	0ddaa2        	addmi	a10, a10, 0xd00
    6aaa:	b0caa2        	addi	a10, a10, -80
    6aad:	0008e0        	callx8	a8

00006ab0 <Voice_WB_TX_Inear_Prcs+0x4f0>:
    6ab0:	fa96c2        	l16si	a12, a6, 0x1f4
    6ab3:	3cfc           	bnez.n	a12, 6aea <Voice_WB_TX_Inear_Prcs+0x52a>
    6ab5:	01d4e2        	addmi	a14, a4, 0x100
    6ab8:	22c4f2        	addi	a15, a4, 34
    6abb:	401f04        	ae_lp16f.i	aep1, a15, 0
    6abe:	58cee2        	addi	a14, a14, 88
    6ac1:	608e04        	ae_lq32f.i	aeq2, a14, 0
    6ac4:	d7e631a4be 	{ l32i	a11, a4, 104; ae_mulfq32sp16s.l	aeq2, aeq2, aep1 }
    6ac9:	30c1d2        	addi	a13, a1, 48
    6acc:	622d04        	ae_sq32f.i	aeq2, a13, 0
    6acf:	c1c8           	l32i.n	a12, a1, 48
    6ad1:	e62d81        	l32r	a8, 388 (5b94 <dt_detect>)
    6ad4:	04ad           	mov.n	a10, a4
    6ad6:	53bbc0        	max	a11, a11, a12
    6ad9:	0008e0        	callx8	a8
    6adc:	e62c81        	l32r	a8, 38c (5c1c <dt_detect_FB>)
    6adf:	04ad           	mov.n	a10, a4
    6ae1:	6a24b2        	l32i	a11, a4, 0x1a8
    6ae4:	0008e0        	callx8	a8
    6ae7:	0021c6        	j	6b72 <Voice_WB_TX_Inear_Prcs+0x5b2>

00006aea <Voice_WB_TX_Inear_Prcs+0x52a>:
    6aea:	1e21b2        	l32i	a11, a1, 120
    6aed:	e62881        	l32r	a8, 390 (5bd8 <dt_detect_sb>)
    6af0:	04ad           	mov.n	a10, a4
    6af2:	1a24c2        	l32i	a12, a4, 104
    6af5:	0008e0        	callx8	a8
    6af8:	2121b2        	l32i	a11, a1, 132
    6afb:	e62581        	l32r	a8, 390 (5bd8 <dt_detect_sb>)
    6afe:	04ad           	mov.n	a10, a4
    6b00:	1a24c2        	l32i	a12, a4, 104
    6b03:	0008e0        	callx8	a8
    6b06:	1f21b2        	l32i	a11, a1, 124
    6b09:	5624d2        	l32i	a13, a4, 0x158
    6b0c:	4224c2        	l32i	a12, a4, 0x108
    6b0f:	e62081        	l32r	a8, 390 (5bd8 <dt_detect_sb>)
    6b12:	04ad           	mov.n	a10, a4
    6b14:	43ccd0        	min	a12, a12, a13
    6b17:	0008e0        	callx8	a8
    6b1a:	2021b2        	l32i	a11, a1, 128
    6b1d:	5624d2        	l32i	a13, a4, 0x158
    6b20:	4224c2        	l32i	a12, a4, 0x108
    6b23:	e61b81        	l32r	a8, 390 (5bd8 <dt_detect_sb>)
    6b26:	04ad           	mov.n	a10, a4
    6b28:	43ccd0        	min	a12, a12, a13
    6b2b:	0008e0        	callx8	a8
    6b2e:	2221b2        	l32i	a11, a1, 136
    6b31:	e61881        	l32r	a8, 394 (5c60 <dt_detect_FB_sb>)
    6b34:	04ad           	mov.n	a10, a4
    6b36:	6a24c2        	l32i	a12, a4, 0x1a8
    6b39:	0008e0        	callx8	a8
    6b3c:	2521b2        	l32i	a11, a1, 148
    6b3f:	e61581        	l32r	a8, 394 (5c60 <dt_detect_FB_sb>)
    6b42:	04ad           	mov.n	a10, a4
    6b44:	6a24c2        	l32i	a12, a4, 0x1a8
    6b47:	0008e0        	callx8	a8
    6b4a:	2321b2        	l32i	a11, a1, 140
    6b4d:	a624d2        	l32i	a13, a4, 0x298
    6b50:	9224c2        	l32i	a12, a4, 0x248
    6b53:	e61081        	l32r	a8, 394 (5c60 <dt_detect_FB_sb>)
    6b56:	04ad           	mov.n	a10, a4
    6b58:	43ccd0        	min	a12, a12, a13
    6b5b:	0008e0        	callx8	a8
    6b5e:	2421b2        	l32i	a11, a1, 144
    6b61:	a624d2        	l32i	a13, a4, 0x298
    6b64:	9224c2        	l32i	a12, a4, 0x248
    6b67:	e60b81        	l32r	a8, 394 (5c60 <dt_detect_FB_sb>)
    6b6a:	04ad           	mov.n	a10, a4
    6b6c:	43ccd0        	min	a12, a12, a13
    6b6f:	0008e0        	callx8	a8

00006b72 <Voice_WB_TX_Inear_Prcs+0x5b2>:
    6b72:	2b26d2        	l32i	a13, a6, 172
    6b75:	532632        	l32i	a3, a6, 0x14c
    6b78:	672672        	l32i	a7, a6, 0x19c
    6b7b:	3f26e2        	l32i	a14, a6, 252
    6b7e:	05a8           	l32i.n	a10, a5, 0
    6b80:	3688           	l32i.n	a8, a6, 12
    6b82:	172692        	l32i	a9, a6, 92
    6b85:	aa2ac2        	l32i	a12, a10, 0x2a8
    6b88:	ab2ab2        	l32i	a11, a10, 0x2ac
    6b8b:	01daf2        	addmi	a15, a10, 0x100
    6b8e:	319090        	srai	a9, a9, 16
    6b91:	318080        	srai	a8, a8, 16
    6b94:	31e0e0        	srai	a14, a14, 16
    6b97:	317070        	srai	a7, a7, 16
    6b9a:	313030        	srai	a3, a3, 16
    6b9d:	31d0d0        	srai	a13, a13, 16
    6ba0:	2451d2        	s16i	a13, a1, 72
    6ba3:	265132        	s16i	a3, a1, 76
    6ba6:	275172        	s16i	a7, a1, 78
    6ba9:	2551e2        	s16i	a14, a1, 74
    6bac:	225182        	s16i	a8, a1, 68
    6baf:	235192        	s16i	a9, a1, 70
    6bb2:	e5f981        	l32r	a8, 398 (3fd8 <inear_ast_nr_proc>)
    6bb5:	40c192        	addi	a9, a1, 64
    6bb8:	1e0c           	movi.n	a14, 1
    6bba:	2f2472        	l32i	a7, a4, 188
    6bbd:	1b2432        	l32i	a3, a4, 108
    6bc0:	12daa2        	addmi	a10, a10, 0x1200
    6bc3:	f0caa2        	addi	a10, a10, -16
    6bc6:	313030        	srai	a3, a3, 16
    6bc9:	317070        	srai	a7, a7, 16
    6bcc:	215172        	s16i	a7, a1, 66
    6bcf:	205132        	s16i	a3, a1, 64
    6bd2:	be9ff2        	l16si	a15, a15, 0x17c
    6bd5:	01e9           	s32i.n	a14, a1, 0
    6bd7:	54c1e2        	addi	a14, a1, 84
    6bda:	fa96d2        	l16si	a13, a6, 0x1f4
    6bdd:	11d9           	s32i.n	a13, a1, 4
    6bdf:	2199           	s32i.n	a9, a1, 8
    6be1:	50c1d2        	addi	a13, a1, 80
    6be4:	0008e0        	callx8	a8
    6be7:	05f8           	l32i.n	a15, a5, 0
    6be9:	3821d2        	l32i	a13, a1, 224
    6bec:	272192        	l32i	a9, a1, 156
    6bef:	75dfc2        	addmi	a12, a15, 0x7500
    6bf2:	ef2a           	add.n	a14, a15, a2
    6bf4:	7c5ea2        	s16i	a10, a14, 248
    6bf7:	919c82        	l16si	a8, a12, 0x122
    6bfa:	698d           	ae_s16i.n	a8, a9, 0
    6bfc:	929cc2        	l16si	a12, a12, 0x124
    6bff:	6dcd           	ae_s16i.n	a12, a13, 0
    6c01:	fa96b2        	l16si	a11, a6, 0x1f4
    6c04:	9bfc           	bnez.n	a11, 6c41 <Voice_WB_TX_Inear_Prcs+0x681>
    6c06:	34ed           	ae_l16si.n	a14, a4, 2
    6c08:	02df82        	addmi	a8, a15, 0x200
    6c0b:	3e9882        	l16si	a8, a8, 124
    6c0e:	022e87        	blt	a14, a8, 6c14 <Voice_WB_TX_Inear_Prcs+0x654>
    6c11:	0028c6        	j	6cb8 <Voice_WB_TX_Inear_Prcs+0x6f8>
    6c14:	e5e291        	l32r	a9, 39c (7fff0000 <_end+0x7ffe1860>)
    6c17:	360934        	ae_cvtq48a32s	aeq0, a9
    6c1a:	0005c6        	j	6c35 <Voice_WB_TX_Inear_Prcs+0x675>

00006c1d <Voice_WB_TX_Inear_Prcs+0x65d>:
    6c1d:	02d4a2        	addmi	a10, a4, 0x200
    6c20:	accaa2        	addi	a10, a10, -84
    6c23:	600a04        	ae_lq32f.i	aeq0, a10, 0
    6c26:	0b1966        	bnei	a9, 1, 6c35 <Voice_WB_TX_Inear_Prcs+0x675>
    6c29:	e5ddb1        	l32r	a11, 3a0 (cf12 <M_norm64+0x92>)
    6c2c:	412fb4        	ae_lp16f.x	aep2, a15, a11
    6c2f:	03aa34        	ae_mulfq32sp16u.l	aeq3, aeq0, aep2
    6c32:	3631d4        	ae_sllisq56s	aeq0, aeq3, 7

00006c35 <Voice_WB_TX_Inear_Prcs+0x675>:
    6c35:	f963c284ce 	{ addi	a12, a4, 40; ae_roundsp16q48asym	aep3, aeq0 }
    6c3a:	423c04        	ae_sp16f.l.i	aep3, a12, 0
    6c3d:	05f8           	l32i.n	a15, a5, 0
    6c3f:	ef2a           	add.n	a14, a15, a2

00006c41 <Voice_WB_TX_Inear_Prcs+0x681>:
    6c41:	2621d2        	l32i	a13, a1, 152
    6c44:	1421c2        	l32i	a12, a1, 80
    6c47:	152192        	l32i	a9, a1, 84
    6c4a:	e50ba1        	l32r	a10, 78 (8000 <xtensa_fft8_32b+0x28>)
    6c4d:	412eb2        	l32i	a11, a14, 0x104
    6c50:	f0a082        	movi	a8, 240
    6c53:	0e0c           	movi.n	a14, 0
    6c55:	1aa876        	loopgtz	a8, 6c73 <Voice_WB_TX_Inear_Prcs+0x6b3>
    6c58:	7bea           	add.n	a7, a11, a14
    6c5a:	0938           	l32i.n	a3, a9, 0
    6c5c:	0c88           	l32i.n	a8, a12, 0
    6c5e:	994b           	addi.n	a9, a9, 4
    6c60:	cc4b           	addi.n	a12, a12, 4
    6c62:	ee2b           	addi.n	a14, a14, 2
    6c64:	88aa           	add.n	a8, a8, a10
    6c66:	33aa           	add.n	a3, a3, a10
    6c68:	313030        	srai	a3, a3, 16
    6c6b:	318080        	srai	a8, a8, 16
    6c6e:	09cd84        	ae_s16ip	a8, a13, 2
    6c71:	673d           	ae_s16i.n	a3, a7, 0

00006c73 <Voice_WB_TX_Inear_Prcs+0x6b3>:
    6c73:	e5cc81        	l32r	a8, 3a4 (644c <AVC_prcs>)
    6c76:	0ddfa2        	addmi	a10, a15, 0xd00
    6c79:	18caa2        	addi	a10, a10, 24
    6c7c:	0008e0        	callx8	a8
    6c7f:	e5a4b1        	l32r	a11, 310 (e79c <avc_vol>)
    6c82:	6bad           	ae_s16i.n	a10, a11, 0
    6c84:	fa9692        	l16si	a9, a6, 0x1f4
    6c87:	2d2132        	l32i	a3, a1, 180
    6c8a:	09dc           	bnez.n	a9, 6c9e <Voice_WB_TX_Inear_Prcs+0x6de>
    6c8c:	04ad           	mov.n	a10, a4
    6c8e:	05c8           	l32i.n	a12, a5, 0
    6c90:	2621b2        	l32i	a11, a1, 152
    6c93:	e5c581        	l32r	a8, 3a8 (63e0 <aec_post_prcs>)
    6c96:	cc2a           	add.n	a12, a12, a2
    6c98:	412cc2        	l32i	a12, a12, 0x104
    6c9b:	0008e0        	callx8	a8

00006c9e <Voice_WB_TX_Inear_Prcs+0x6de>:
    6c9e:	e59c61        	l32r	a6, 310 (e79c <avc_vol>)
    6ca1:	2621a2        	l32i	a10, a1, 152
    6ca4:	05c8           	l32i.n	a12, a5, 0
    6ca6:	f0a0d2        	movi	a13, 240
    6ca9:	e5c081        	l32r	a8, 3ac (6114 <deemph_filter_N>)
    6cac:	7cccb2        	addi	a11, a12, 124
    6caf:	74ccc2        	addi	a12, a12, 116
    6cb2:	0008e0        	callx8	a8
    6cb5:	fe7186        	j	667f <Voice_WB_TX_Inear_Prcs+0xbf>

00006cb8 <Voice_WB_TX_Inear_Prcs+0x6f8>:
    6cb8:	299d           	ae_l16si.n	a9, a9, 0
    6cba:	f5f956        	bnez	a9, 6c1d <Voice_WB_TX_Inear_Prcs+0x65d>
    6cbd:	01d4b2        	addmi	a11, a4, 0x100
    6cc0:	22c4c2        	addi	a12, a4, 34
    6cc3:	404c04        	ae_lp16f.i	aep4, a12, 0
    6cc6:	5ccbb2        	addi	a11, a11, 92
    6cc9:	600b04        	ae_lq32f.i	aeq0, a11, 0
    6ccc:	d4f206c4ae 	{ addi	a10, a4, 108; ae_mulfq32sp16s.l	aeq0, aeq0, aep4 }
    6cd1:	604a04        	ae_lq32f.i	aeq1, a10, 0
    6cd4:	0110c4        	ae_maxq56s	aeq0, aeq0, aeq1
    6cd7:	ffd686        	j	6c35 <Voice_WB_TX_Inear_Prcs+0x675>

00006cda <Voice_WB_TX_Inear_Prcs+0x71a>:
	...

00006cdc <conv_16_to_24_x2>:
    6cdc:	004136        	entry	a1, 32
    6cdf:	f8c332        	addi	a3, a3, -8
    6ce2:	fcc222        	addi	a2, a2, -4
    6ce5:	05a476        	loopgtz	a4, 6cee <conv_16_to_24_x2+0x12>
    6ce8:	448214        	ae_lp16x2f.iu	aep0, a2, 4
    6ceb:	5e8314        	ae_sp24x2f.iu	aep0, a3, 8

00006cee <conv_16_to_24_x2+0x12>:
    6cee:	f01d           	retw.n

00006cf0 <Voice_NB_RX_Prcs>:
    6cf0:	004136        	entry	a1, 32
    6cf3:	e4cf31        	l32r	a3, 30 (e798 <p_ecnr_mem>)
    6cf6:	03a8           	l32i.n	a10, a3, 0
    6cf8:	0fda82        	addmi	a8, a10, 0xf00
    6cfb:	7c1882        	l16ui	a8, a8, 248
    6cfe:	888c           	beqz.n	a8, 6d0a <Voice_NB_RX_Prcs+0x1a>
    6d00:	e5ac81        	l32r	a8, 3b0 (72f4 <NB_RX_NR_frame_process>)
    6d03:	02ad           	mov.n	a10, a2
    6d05:	0008e0        	callx8	a8
    6d08:	03a8           	l32i.n	a10, a3, 0

00006d0a <Voice_NB_RX_Prcs+0x1a>:
    6d0a:	02dac2        	addmi	a12, a10, 0x200
    6d0d:	3ddab2        	addmi	a11, a10, 0x3d00
    6d10:	7fdbb2        	addmi	a11, a11, 0x7f00
    6d13:	409c92        	l16si	a9, a12, 128
    6d16:	5b1bb2        	l16ui	a11, a11, 182
    6d19:	3f5cb2        	s16i	a11, a12, 126
    6d1c:	2a69d7        	bbci	a9, 13, 6d4a <Voice_NB_RX_Prcs+0x5a>
    6d1f:	cc3c           	movi.n	a12, 60
    6d21:	50da42        	addmi	a4, a10, 0x5000
    6d24:	7fd442        	addmi	a4, a4, 0x7f00
    6d27:	1448           	l32i.n	a4, a4, 4
    6d29:	e58b81        	l32r	a8, 358 (6cdc <conv_16_to_24_x2>)
    6d2c:	02ad           	mov.n	a10, a2
    6d2e:	04bd           	mov.n	a11, a4
    6d30:	0008e0        	callx8	a8
    6d33:	02dd           	mov.n	a13, a2
    6d35:	04ad           	mov.n	a10, a4
    6d37:	03c8           	l32i.n	a12, a3, 0
    6d39:	e59ee1        	l32r	a14, 3b4 (ceb8 <M_norm64+0x38>)
    6d3c:	e58881        	l32r	a8, 35c (6284 <biquad_2cascade_24bitTx>)
    6d3f:	0ddcb2        	addmi	a11, a12, 0xd00
    6d42:	ccea           	add.n	a12, a12, a14
    6d44:	78a0e2        	movi	a14, 120
    6d47:	0008e0        	callx8	a8

00006d4a <Voice_NB_RX_Prcs+0x5a>:
    6d4a:	f01d           	retw.n

00006d4c <Voice_WB_RX_Prcs>:
    6d4c:	004136        	entry	a1, 32
    6d4f:	e4b831        	l32r	a3, 30 (e798 <p_ecnr_mem>)
    6d52:	03a8           	l32i.n	a10, a3, 0
    6d54:	0fda82        	addmi	a8, a10, 0xf00
    6d57:	7c1882        	l16ui	a8, a8, 248
    6d5a:	888c           	beqz.n	a8, 6d66 <Voice_WB_RX_Prcs+0x1a>
    6d5c:	e59781        	l32r	a8, 3b8 (7078 <WB_RX_NR_frame_process>)
    6d5f:	02ad           	mov.n	a10, a2
    6d61:	0008e0        	callx8	a8
    6d64:	03a8           	l32i.n	a10, a3, 0

00006d66 <Voice_WB_RX_Prcs+0x1a>:
    6d66:	02dac2        	addmi	a12, a10, 0x200
    6d69:	3ddab2        	addmi	a11, a10, 0x3d00
    6d6c:	7fdbb2        	addmi	a11, a11, 0x7f00
    6d6f:	409c92        	l16si	a9, a12, 128
    6d72:	5b1bb2        	l16ui	a11, a11, 182
    6d75:	3f5cb2        	s16i	a11, a12, 126
    6d78:	2b69d7        	bbci	a9, 13, 6da7 <Voice_WB_RX_Prcs+0x5b>
    6d7b:	78a0c2        	movi	a12, 120
    6d7e:	50da42        	addmi	a4, a10, 0x5000
    6d81:	7fd442        	addmi	a4, a4, 0x7f00
    6d84:	1448           	l32i.n	a4, a4, 4
    6d86:	e57481        	l32r	a8, 358 (6cdc <conv_16_to_24_x2>)
    6d89:	02ad           	mov.n	a10, a2
    6d8b:	04bd           	mov.n	a11, a4
    6d8d:	0008e0        	callx8	a8
    6d90:	02dd           	mov.n	a13, a2
    6d92:	04ad           	mov.n	a10, a4
    6d94:	03c8           	l32i.n	a12, a3, 0
    6d96:	e587e1        	l32r	a14, 3b4 (ceb8 <M_norm64+0x38>)
    6d99:	e57081        	l32r	a8, 35c (6284 <biquad_2cascade_24bitTx>)
    6d9c:	0ddcb2        	addmi	a11, a12, 0xd00
    6d9f:	ccea           	add.n	a12, a12, a14
    6da1:	f0a0e2        	movi	a14, 240
    6da4:	0008e0        	callx8	a8

00006da7 <Voice_WB_RX_Prcs+0x5b>:
    6da7:	f01d           	retw.n

00006da9 <Voice_WB_RX_Prcs+0x5d>:
    6da9:	000000                                        ...

00006dac <EC_REF_GAIN_READBACK>:
    6dac:	004136        	entry	a1, 32
    6daf:	e4a031        	l32r	a3, 30 (e798 <p_ecnr_mem>)
    6db2:	090c           	movi.n	a9, 0
    6db4:	045292        	s16i	a9, a2, 8
    6db7:	055292        	s16i	a9, a2, 10
    6dba:	0338           	l32i.n	a3, a3, 0
    6dbc:	065292        	s16i	a9, a2, 12
    6dbf:	075292        	s16i	a9, a2, 14
    6dc2:	0cd332        	addmi	a3, a3, 0xc00
    6dc5:	622382        	l32i	a8, a3, 0x188
    6dc8:	8a2342        	l32i	a4, a3, 0x228
    6dcb:	762352        	l32i	a5, a3, 0x1d8
    6dce:	9e2332        	l32i	a3, a3, 0x278
    6dd1:	314040        	srai	a4, a4, 16
    6dd4:	315050        	srai	a5, a5, 16
    6dd7:	318080        	srai	a8, a8, 16
    6dda:	628d           	ae_s16i.n	a8, a2, 0
    6ddc:	725d           	ae_s16i.n	a5, a2, 2
    6dde:	025242        	s16i	a4, a2, 4
    6de1:	313030        	srai	a3, a3, 16
    6de4:	035232        	s16i	a3, a2, 6
    6de7:	f01d           	retw.n

00006de9 <EC_REF_GAIN_READBACK+0x3d>:
    6de9:	000000                                        ...

00006dec <EC_PreLim_Coef_READBACK>:
    6dec:	004136        	entry	a1, 32
    6def:	00a042        	movi	a4, 0
    6df2:	09a032        	movi	a3, 9
    6df5:	02a376        	loopgtz	a3, 6dfb <EC_PreLim_Coef_READBACK+0xf>
    6df8:	09c244        	ae_s16ip	a4, a2, 2

00006dfb <EC_PreLim_Coef_READBACK+0xf>:
    6dfb:	f01d           	retw.n

00006dfd <EC_PreLim_Coef_READBACK+0x11>:
    6dfd:	000000                                        ...

00006e00 <DaulMIC_power_Coef_READBACK>:
    6e00:	004136        	entry	a1, 32
    6e03:	020c           	movi.n	a2, 0
    6e05:	f01d           	retw.n

00006e07 <DaulMIC_power_Coef_READBACK+0x7>:
	...

00006e08 <AEC_NR_Write_FLASH>:
    6e08:	004136        	entry	a1, 32
    6e0b:	020c           	movi.n	a2, 0
    6e0d:	f01d           	retw.n

00006e0f <AEC_NR_Write_FLASH+0x7>:
	...

00006e10 <TWO_MIC_WB_Write_FLASH>:
    6e10:	004136        	entry	a1, 32
    6e13:	020c           	movi.n	a2, 0
    6e15:	f01d           	retw.n

00006e17 <TWO_MIC_WB_Write_FLASH+0x7>:
	...

00006e18 <IE_EC_REF_GAIN_READBACK>:
    6e18:	004136        	entry	a1, 32
    6e1b:	e48531        	l32r	a3, 30 (e798 <p_ecnr_mem>)
    6e1e:	0338           	l32i.n	a3, a3, 0
    6e20:	0dd332        	addmi	a3, a3, 0xd00
    6e23:	722382        	l32i	a8, a3, 0x1c8
    6e26:	9a2342        	l32i	a4, a3, 0x268
    6e29:	862352        	l32i	a5, a3, 0x218
    6e2c:	ae2332        	l32i	a3, a3, 0x2b8
    6e2f:	314040        	srai	a4, a4, 16
    6e32:	315050        	srai	a5, a5, 16
    6e35:	318080        	srai	a8, a8, 16
    6e38:	628d           	ae_s16i.n	a8, a2, 0
    6e3a:	725d           	ae_s16i.n	a5, a2, 2
    6e3c:	025242        	s16i	a4, a2, 4
    6e3f:	313030        	srai	a3, a3, 16
    6e42:	035232        	s16i	a3, a2, 6
    6e45:	f01d           	retw.n

00006e47 <IE_EC_REF_GAIN_READBACK+0x2f>:
	...

00006e48 <fill_vad_thrd_Nbands>:
    6e48:	004136        	entry	a1, 32
    6e4b:	00a062        	movi	a6, 0
    6e4e:	e55b71        	l32r	a7, 3bc (7f80 <xtensa_fft4_32b+0x20>)
    6e51:	1ba476        	loopgtz	a4, 6e70 <fill_vad_thrd_Nbands+0x28>
    6e54:	a05620        	addx4	a5, a6, a2
    6e57:	904630        	addx2	a4, a6, a3
    6e5a:	444d           	ae_l16ui.n	a4, a4, 0
    6e5c:	661b           	addi.n	a6, a6, 1
    6e5e:	866d           	ae_sext16	a6, a6
    6e60:	218140        	srai	a8, a4, 1
    6e63:	744040        	extui	a4, a4, 0, 8
    6e66:	108870        	and	a8, a8, a7
    6e69:	658d           	ae_s16i.n	a8, a5, 0
    6e6b:	114490        	slli	a4, a4, 7
    6e6e:	754d           	ae_s16i.n	a4, a5, 2

00006e70 <fill_vad_thrd_Nbands+0x28>:
    6e70:	f01d           	retw.n

00006e72 <fill_vad_thrd_Nbands+0x2a>:
	...

00006e74 <fill_EQ_gain>:
    6e74:	004136        	entry	a1, 32
    6e77:	06a476        	loopgtz	a4, 6e81 <fill_EQ_gain+0xd>
    6e7a:	235d           	ae_l16si.n	a5, a3, 0
    6e7c:	09c254        	ae_s16ip	a5, a2, 2
    6e7f:	332b           	addi.n	a3, a3, 2

00006e81 <fill_EQ_gain+0xd>:
    6e81:	f01d           	retw.n

00006e83 <fill_EQ_gain+0xf>:
	...

00006e84 <complement_para>:
    6e84:	004136        	entry	a1, 32
    6e87:	e47741        	l32r	a4, 64 (ffff8000 <_end+0xfffe9860>)
    6e8a:	623d           	ae_s16i.n	a3, a2, 0
    6e8c:	c04430        	sub	a4, a4, a3
    6e8f:	724d           	ae_s16i.n	a4, a2, 2
    6e91:	f01d           	retw.n

00006e93 <complement_para+0xf>:
	...

00006e94 <WB_NR_init>:
    6e94:	004136        	entry	a1, 32
    6e97:	02ad           	mov.n	a10, a2
    6e99:	e48d81        	l32r	a8, d0 (8820 <xt_memset>)
    6e9c:	0b0c           	movi.n	a11, 0
    6e9e:	e548c1        	l32r	a12, 3c0 (918 <TX_ECNR_PARA_init+0x360>)
    6ea1:	0008e0        	callx8	a8
    6ea4:	e54881        	l32r	a8, 3c4 (6e84 <complement_para>)
    6ea7:	4a14a2        	l16ui	a10, a4, 148
    6eaa:	4414b2        	l16ui	a11, a4, 136
    6ead:	4b1492        	l16ui	a9, a4, 150
    6eb0:	4314c2        	l16ui	a12, a4, 134
    6eb3:	4214d2        	l16ui	a13, a4, 132
    6eb6:	4d14e2        	l16ui	a14, a4, 154
    6eb9:	1052e2        	s16i	a14, a2, 32
    6ebc:	0252d2        	s16i	a13, a2, 4
    6ebf:	1152c2        	s16i	a12, a2, 34
    6ec2:	0f5292        	s16i	a9, a2, 30
    6ec5:	0352b2        	s16i	a11, a2, 6
    6ec8:	0e52a2        	s16i	a10, a2, 28
    6ecb:	4c94b2        	l16si	a11, a4, 152
    6ece:	09d2a2        	addmi	a10, a2, 0x900
    6ed1:	24caa2        	addi	a10, a10, 36
    6ed4:	0008e0        	callx8	a8
    6ed7:	a28b           	addi.n	a10, a2, 8
    6ed9:	5c0c           	movi.n	a12, 5
    6edb:	e53b81        	l32r	a8, 3c8 (6e48 <fill_vad_thrd_Nbands>)
    6ede:	01d4b2        	addmi	a11, a4, 0x100
    6ee1:	8acbb2        	addi	a11, a11, -118
    6ee4:	0008e0        	callx8	a8
    6ee7:	00a1c2        	movi	a12, 0x100
    6eea:	02d4b2        	addmi	a11, a4, 0x200
    6eed:	0ed2a2        	addmi	a10, a2, 0xe00
    6ef0:	e53781        	l32r	a8, 3cc (6e74 <fill_EQ_gain>)
    6ef3:	f0caa2        	addi	a10, a10, -16
    6ef6:	f0cbb2        	addi	a11, a11, -16
    6ef9:	0008e0        	callx8	a8
    6efc:	e53661        	l32r	a6, 3d4 (cdf0 <ABS_THR45+0x30>)
    6eff:	e44ca1        	l32r	a10, 30 (e798 <p_ecnr_mem>)
    6f02:	170c           	movi.n	a7, 1
    6f04:	11d252        	addmi	a5, a2, 0x1100
    6f07:	e532c1        	l32r	a12, 3d0 (b190 <win_rx_512_v3>)
    6f0a:	3202b2        	l8ui	a11, a2, 50
    6f0d:	4765c2        	s32i	a12, a5, 0x11c
    6f10:	20c552        	addi	a5, a5, 32
    6f13:	20bb70        	or	a11, a11, a7
    6f16:	3242b2        	s8i	a11, a2, 50
    6f19:	0aa8           	l32i.n	a10, a10, 0
    6f1b:	6c0c           	movi.n	a12, 6
    6f1d:	4e14b2        	l16ui	a11, a4, 156
    6f20:	9a6a           	add.n	a9, a10, a6
    6f22:	7e59b2        	s16i	a11, a9, 252
    6f25:	e52cb1        	l32r	a11, 3d8 (cef0 <M_norm64+0x70>)
    6f28:	4f1482        	l16ui	a8, a4, 158
    6f2b:	7f5982        	s16i	a8, a9, 254
    6f2e:	e46881        	l32r	a8, d0 (8820 <xt_memset>)
    6f31:	aaba           	add.n	a10, a10, a11
    6f33:	0b0c           	movi.n	a11, 0
    6f35:	0008e0        	callx8	a8
    6f38:	02cd           	mov.n	a12, a2
    6f3a:	36c2d2        	addi	a13, a2, 54
    6f3d:	e465a1        	l32r	a10, d4 (ffffb800 <_end+0xfffed060>)
    6f40:	e527e1        	l32r	a14, 3dc (b8000000 <_end+0xb7ff1860>)
    6f43:	01d232        	addmi	a3, a2, 0x100
    6f46:	119282        	l16si	a8, a2, 34
    6f49:	0e9292        	l16si	a9, a2, 28
    6f4c:	865592        	s16i	a9, a5, 0x10c
    6f4f:	875582        	s16i	a8, a5, 0x10e
    6f52:	f3eb           	addi.n	a15, a3, 14
    6f54:	c80c           	movi.n	a8, 12
    6f56:	7cc332        	addi	a3, a3, 124
    6f59:	03bd           	mov.n	a11, a3

00006f5b <WB_NR_init+0xc7>:
    6f5b:	18ccc2        	addi	a12, a12, 24
    6f5e:	0be9           	s32i.n	a14, a11, 0
    6f60:	209dd0        	or	a9, a13, a13
    6f63:	04cbb2        	addi	a11, a11, 4
    6f66:	18cdd2        	addi	a13, a13, 24
    6f69:	02a876        	loopgtz	a8, 6f6f <WB_NR_init+0xdb>
    6f6c:	09c9a4        	ae_s16ip	a10, a9, 2

00006f6f <WB_NR_init+0xdb>:
    6f6f:	c80c           	movi.n	a8, 12
    6f71:	e69df7        	bne	a13, a15, 6f5b <WB_NR_init+0xc7>
    6f74:	2e94b2        	l16si	a11, a4, 92
    6f77:	e51381        	l32r	a8, 3c4 (6e84 <complement_para>)
    6f7a:	09d2a2        	addmi	a10, a2, 0x900
    6f7d:	10caa2        	addi	a10, a10, 16
    6f80:	0008e0        	callx8	a8
    6f83:	2f94b2        	l16si	a11, a4, 94
    6f86:	e50f81        	l32r	a8, 3c4 (6e84 <complement_para>)
    6f89:	09d2a2        	addmi	a10, a2, 0x900
    6f8c:	14caa2        	addi	a10, a10, 20
    6f8f:	0008e0        	callx8	a8
    6f92:	3094b2        	l16si	a11, a4, 96
    6f95:	e50b81        	l32r	a8, 3c4 (6e84 <complement_para>)
    6f98:	09d2a2        	addmi	a10, a2, 0x900
    6f9b:	18caa2        	addi	a10, a10, 24
    6f9e:	0008e0        	callx8	a8
    6fa1:	3194b2        	l16si	a11, a4, 98
    6fa4:	e50881        	l32r	a8, 3c4 (6e84 <complement_para>)
    6fa7:	09d2a2        	addmi	a10, a2, 0x900
    6faa:	1ccaa2        	addi	a10, a10, 28
    6fad:	0008e0        	callx8	a8
    6fb0:	3294b2        	l16si	a11, a4, 100
    6fb3:	e50481        	l32r	a8, 3c4 (6e84 <complement_para>)
    6fb6:	09d2a2        	addmi	a10, a2, 0x900
    6fb9:	20caa2        	addi	a10, a10, 32
    6fbc:	0008e0        	callx8	a8
    6fbf:	8094a2        	l16si	a10, a4, 0x100
    6fc2:	9b6c           	movi.n	a11, -23
    6fc4:	00a1d2        	movi	a13, 0x100
    6fc7:	08d2c2        	addmi	a12, a2, 0x800
    6fca:	0e6c           	movi.n	a14, -32
    6fcc:	e419f1        	l32r	a15, 30 (e798 <p_ecnr_mem>)
    6fcf:	eea092        	movi	a9, 238
    6fd2:	980c           	movi.n	a8, 9
    6fd4:	344282        	s8i	a8, a2, 52
    6fd7:	354292        	s8i	a9, a2, 53
    6fda:	0488           	l32i.n	a8, a4, 0
    6fdc:	0289           	s32i.n	a8, a2, 0
    6fde:	0ff8           	l32i.n	a15, a15, 0
    6fe0:	10d882        	addmi	a8, a8, 0x1000
    6fe3:	dcc892        	addi	a9, a8, -36
    6fe6:	80ff60        	add	a15, a15, a6
    6fe9:	b8c882        	addi	a8, a8, -72
    6fec:	3e6592        	s32i	a9, a5, 248
    6fef:	462ff2        	l32i	a15, a15, 0x118
    6ff2:	e4ea91        	l32r	a9, 39c (7fff0000 <_end+0x7ffe1860>)
    6ff5:	3c65f2        	s32i	a15, a5, 240
    6ff8:	3d6582        	s32i	a8, a5, 244
    6ffb:	185272        	s16i	a7, a2, 48
    6ffe:	975ce2        	s16i	a14, a12, 0x12e
    7001:	1552d2        	s16i	a13, a2, 42
    7004:	955cb2        	s16i	a11, a12, 0x12a
    7007:	406592        	s32i	a9, a5, 0x100
    700a:	8555a2        	s16i	a10, a5, 0x10a
    700d:	7894a2        	l16si	a10, a4, 240
    7010:	416592        	s32i	a9, a5, 0x104
    7013:	8455a2        	s16i	a10, a5, 0x108
    7016:	051aa6        	blti	a10, 1, 701f <WB_NR_init+0x18b>
    7019:	15a0b2        	movi	a11, 21
    701c:	04aba7        	bge	a11, a10, 7024 <WB_NR_init+0x190>

0000701f <WB_NR_init+0x18b>:
    701f:	cc0c           	movi.n	a12, 12
    7021:	8455c2        	s16i	a12, a5, 0x108

00007024 <WB_NR_init+0x190>:
    7024:	24c332        	addi	a3, a3, 36
    7027:	e4ee91        	l32r	a9, 3e0 (40000000 <_end+0x3fff1860>)
    702a:	eea0d2        	movi	a13, 238
    702d:	02ad76        	loopgtz	a13, 7033 <WB_NR_init+0x19f>
    7030:	09e394        	ae_s32ip	a9, a3, 4

00007033 <WB_NR_init+0x19f>:
    7033:	f01d           	retw.n

00007035 <WB_NR_init+0x1a1>:
    7035:	000000                                        ...

00007038 <WB_RX_NR_init>:
    7038:	004136        	entry	a1, 32
    703b:	03bd           	mov.n	a11, a3
    703d:	04cd           	mov.n	a12, a4
    703f:	e3fc31        	l32r	a3, 30 (e798 <p_ecnr_mem>)
    7042:	e4e881        	l32r	a8, 3e4 (98c <RX_ECNR_PARA_init>)
    7045:	0a0c           	movi.n	a10, 0
    7047:	0329           	s32i.n	a2, a3, 0
    7049:	0008e0        	callx8	a8
    704c:	e3fc21        	l32r	a2, 3c (e78c <aec_nr_para>)
    704f:	e4d9c1        	l32r	a12, 3b4 (ceb8 <M_norm64+0x38>)
    7052:	03a8           	l32i.n	a10, a3, 0
    7054:	02b8           	l32i.n	a11, a2, 0
    7056:	e4a781        	l32r	a8, 2f4 (5d20 <HP_coef_setup>)
    7059:	aaca           	add.n	a10, a10, a12
    705b:	01dbb2        	addmi	a11, a11, 0x100
    705e:	34cbb2        	addi	a11, a11, 52
    7061:	0008e0        	callx8	a8
    7064:	e4e1b1        	l32r	a11, 3e8 (bc88 <mel_tab26+0x398>)
    7067:	03a8           	l32i.n	a10, a3, 0
    7069:	02c8           	l32i.n	a12, a2, 0
    706b:	e4e081        	l32r	a8, 3ec (6e94 <WB_NR_init>)
    706e:	aaba           	add.n	a10, a10, a11
    7070:	1b0c           	movi.n	a11, 1
    7072:	0008e0        	callx8	a8
    7075:	f01d           	retw.n

00007077 <WB_RX_NR_init+0x3f>:
	...

00007078 <WB_RX_NR_frame_process>:
    7078:	004136        	entry	a1, 32
    707b:	02ad           	mov.n	a10, a2
    707d:	e3ec41        	l32r	a4, 30 (e798 <p_ecnr_mem>)
    7080:	f0a0d2        	movi	a13, 240
    7083:	e4d5c1        	l32r	a12, 3d8 (cef0 <M_norm64+0x70>)
    7086:	04b8           	l32i.n	a11, a4, 0
    7088:	e4da31        	l32r	a3, 3f0 (ceec <M_norm64+0x6c>)
    708b:	e4b581        	l32r	a8, 360 (60d0 <emph_filter_N>)
    708e:	cbca           	add.n	a12, a11, a12
    7090:	bb3a           	add.n	a11, a11, a3
    7092:	0008e0        	callx8	a8
    7095:	02bd           	mov.n	a11, a2
    7097:	02cd           	mov.n	a12, a2
    7099:	04a8           	l32i.n	a10, a4, 0
    709b:	e4d3e1        	l32r	a14, 3e8 (bc88 <mel_tab26+0x398>)
    709e:	e4d581        	l32r	a8, 3f4 (70d4 <WB_NR_frame_process>)
    70a1:	50dad2        	addmi	a13, a10, 0x5000
    70a4:	aaea           	add.n	a10, a10, a14
    70a6:	7fddd2        	addmi	a13, a13, 0x7f00
    70a9:	3dd8           	l32i.n	a13, a13, 12
    70ab:	0008e0        	callx8	a8
    70ae:	02ad           	mov.n	a10, a2
    70b0:	04c8           	l32i.n	a12, a4, 0
    70b2:	e4d1d1        	l32r	a13, 3f8 (cef4 <M_norm64+0x74>)
    70b5:	e4bd81        	l32r	a8, 3ac (6114 <deemph_filter_N>)
    70b8:	bc3a           	add.n	a11, a12, a3
    70ba:	ccda           	add.n	a12, a12, a13
    70bc:	f0a0d2        	movi	a13, 240
    70bf:	0008e0        	callx8	a8
    70c2:	f01d           	retw.n

000070c4 <WB_TX_NR_init>:
    70c4:	004136        	entry	a1, 32
    70c7:	f01d           	retw.n

000070c9 <WB_TX_NR_init+0x5>:
    70c9:	000000                                        ...

000070cc <WB_TX_NR_frame_process>:
    70cc:	004136        	entry	a1, 32
    70cf:	f01d           	retw.n

000070d1 <WB_TX_NR_frame_process+0x5>:
    70d1:	000000                                        ...

000070d4 <WB_NR_frame_process>:
    70d4:	004136        	entry	a1, 32
    70d7:	e4c981        	l32r	a8, 3fc (741c <fft_wo>)
    70da:	03bd           	mov.n	a11, a3
    70dc:	02ad           	mov.n	a10, a2
    70de:	0008e0        	callx8	a8
    70e1:	e4c781        	l32r	a8, 400 (75d8 <NR_vad1>)
    70e4:	02ad           	mov.n	a10, a2
    70e6:	0008e0        	callx8	a8
    70e9:	e4c681        	l32r	a8, 404 (7708 <NR_vad2>)
    70ec:	02ad           	mov.n	a10, a2
    70ee:	0008e0        	callx8	a8
    70f1:	e4c581        	l32r	a8, 408 (7858 <NR_NoiseEstimate>)
    70f4:	02ad           	mov.n	a10, a2
    70f6:	0008e0        	callx8	a8
    70f9:	e4c481        	l32r	a8, 40c (7968 <NR_NoiseWithGain>)
    70fc:	02ad           	mov.n	a10, a2
    70fe:	0008e0        	callx8	a8
    7101:	e4c381        	l32r	a8, 410 (7a1c <NR_WienerFilter>)
    7104:	02ad           	mov.n	a10, a2
    7106:	0008e0        	callx8	a8
    7109:	059d           	mov.n	a9, a5
    710b:	00a0a2        	movi	a10, 0
    710e:	00a2b2        	movi	a11, 0x200
    7111:	02ab76        	loopgtz	a11, 7117 <WB_NR_frame_process+0x43>
    7114:	09c9a4        	ae_s16ip	a10, a9, 2

00007117 <WB_NR_frame_process+0x43>:
    7117:	05cd           	mov.n	a12, a5
    7119:	e4be81        	l32r	a8, 414 (7c78 <ifft_wo>)
    711c:	04bd           	mov.n	a11, a4
    711e:	02ad           	mov.n	a10, a2
    7120:	0008e0        	callx8	a8
    7123:	f01d           	retw.n

00007125 <WB_NR_frame_process+0x51>:
    7125:	000000                                        ...

00007128 <NB_NR_init>:
    7128:	004136        	entry	a1, 32
    712b:	02ad           	mov.n	a10, a2
    712d:	e3e881        	l32r	a8, d0 (8820 <xt_memset>)
    7130:	0b0c           	movi.n	a11, 0
    7132:	e4a3c1        	l32r	a12, 3c0 (918 <TX_ECNR_PARA_init+0x360>)
    7135:	0008e0        	callx8	a8
    7138:	e4a381        	l32r	a8, 3c4 (6e84 <complement_para>)
    713b:	e3c041        	l32r	a4, 3c (e78c <aec_nr_para>)
    713e:	09d2a2        	addmi	a10, a2, 0x900
    7141:	11d2d2        	addmi	a13, a2, 0x1100
    7144:	04f8           	l32i.n	a15, a4, 0
    7146:	20cd52        	addi	a5, a13, 32
    7149:	24caa2        	addi	a10, a10, 36
    714c:	3e9fb2        	l16si	a11, a15, 124
    714f:	3d1f92        	l16ui	a9, a15, 122
    7152:	371fe2        	l16ui	a14, a15, 110
    7155:	3c1fc2        	l16ui	a12, a15, 120
    7158:	3f1f62        	l16ui	a6, a15, 126
    715b:	351f32        	l16ui	a3, a15, 106
    715e:	025232        	s16i	a3, a2, 4
    7161:	105262        	s16i	a6, a2, 32
    7164:	361ff2        	l16ui	a15, a15, 108
    7167:	1152f2        	s16i	a15, a2, 34
    716a:	975df2        	s16i	a15, a13, 0x12e
    716d:	0352e2        	s16i	a14, a2, 6
    7170:	0e52c2        	s16i	a12, a2, 28
    7173:	965dc2        	s16i	a12, a13, 0x12c
    7176:	0f5292        	s16i	a9, a2, 30
    7179:	0008e0        	callx8	a8
    717c:	a28b           	addi.n	a10, a2, 8
    717e:	04b8           	l32i.n	a11, a4, 0
    7180:	e49281        	l32r	a8, 3c8 (6e48 <fill_vad_thrd_Nbands>)
    7183:	4c0c           	movi.n	a12, 4
    7185:	70cbb2        	addi	a11, a11, 112
    7188:	0008e0        	callx8	a8
    718b:	80a0c2        	movi	a12, 128
    718e:	e48f81        	l32r	a8, 3cc (6e74 <fill_EQ_gain>)
    7191:	04b8           	l32i.n	a11, a4, 0
    7193:	0ed2a2        	addmi	a10, a2, 0xe00
    7196:	f0caa2        	addi	a10, a10, -16
    7199:	02dbb2        	addmi	a11, a11, 0x200
    719c:	f0cbb2        	addi	a11, a11, -16
    719f:	0008e0        	callx8	a8
    71a2:	e3cb81        	l32r	a8, d0 (8820 <xt_memset>)
    71a5:	e48b61        	l32r	a6, 3d4 (cdf0 <ABS_THR45+0x30>)
    71a8:	e3a2a1        	l32r	a10, 30 (e798 <p_ecnr_mem>)
    71ab:	170c           	movi.n	a7, 1
    71ad:	3202b2        	l8ui	a11, a2, 50
    71b0:	e49ac1        	l32r	a12, 418 (b3b0 <win_rx_256_v3>)
    71b3:	3f65c2        	s32i	a12, a5, 252
    71b6:	20bb70        	or	a11, a11, a7
    71b9:	3242b2        	s8i	a11, a2, 50
    71bc:	0aa8           	l32i.n	a10, a10, 0
    71be:	04c8           	l32i.n	a12, a4, 0
    71c0:	e486b1        	l32r	a11, 3d8 (cef0 <M_norm64+0x70>)
    71c3:	da6a           	add.n	a13, a10, a6
    71c5:	401ce2        	l16ui	a14, a12, 128
    71c8:	aaba           	add.n	a10, a10, a11
    71ca:	7e5de2        	s16i	a14, a13, 252
    71cd:	0b0c           	movi.n	a11, 0
    71cf:	411cc2        	l16ui	a12, a12, 130
    71d2:	7f5dc2        	s16i	a12, a13, 254
    71d5:	6c0c           	movi.n	a12, 6
    71d7:	0008e0        	callx8	a8
    71da:	02cd           	mov.n	a12, a2
    71dc:	36c2d2        	addi	a13, a2, 54
    71df:	e3bda1        	l32r	a10, d4 (ffffb800 <_end+0xfffed060>)
    71e2:	e47ee1        	l32r	a14, 3dc (b8000000 <_end+0xb7ff1860>)
    71e5:	c80c           	movi.n	a8, 12
    71e7:	01d232        	addmi	a3, a2, 0x100
    71ea:	dec3f2        	addi	a15, a3, -34
    71ed:	7cc332        	addi	a3, a3, 124
    71f0:	03bd           	mov.n	a11, a3

000071f2 <NB_NR_init+0xca>:
    71f2:	18ccc2        	addi	a12, a12, 24
    71f5:	0be9           	s32i.n	a14, a11, 0
    71f7:	0d9d           	mov.n	a9, a13
    71f9:	bb4b           	addi.n	a11, a11, 4
    71fb:	18cdd2        	addi	a13, a13, 24
    71fe:	02a876        	loopgtz	a8, 7204 <NB_NR_init+0xdc>
    7201:	09c9a4        	ae_s16ip	a10, a9, 2

00007204 <NB_NR_init+0xdc>:
    7204:	c80c           	movi.n	a8, 12
    7206:	e89df7        	bne	a13, a15, 71f2 <NB_NR_init+0xca>
    7209:	04b8           	l32i.n	a11, a4, 0
    720b:	09d2a2        	addmi	a10, a2, 0x900
    720e:	e46d81        	l32r	a8, 3c4 (6e84 <complement_para>)
    7211:	10caa2        	addi	a10, a10, 16
    7214:	2e9bb2        	l16si	a11, a11, 92
    7217:	0008e0        	callx8	a8
    721a:	04b8           	l32i.n	a11, a4, 0
    721c:	09d2a2        	addmi	a10, a2, 0x900
    721f:	e46981        	l32r	a8, 3c4 (6e84 <complement_para>)
    7222:	14caa2        	addi	a10, a10, 20
    7225:	2f9bb2        	l16si	a11, a11, 94
    7228:	0008e0        	callx8	a8
    722b:	04b8           	l32i.n	a11, a4, 0
    722d:	09d2a2        	addmi	a10, a2, 0x900
    7230:	e46581        	l32r	a8, 3c4 (6e84 <complement_para>)
    7233:	18caa2        	addi	a10, a10, 24
    7236:	309bb2        	l16si	a11, a11, 96
    7239:	0008e0        	callx8	a8
    723c:	04b8           	l32i.n	a11, a4, 0
    723e:	09d2a2        	addmi	a10, a2, 0x900
    7241:	e46081        	l32r	a8, 3c4 (6e84 <complement_para>)
    7244:	1ccaa2        	addi	a10, a10, 28
    7247:	319bb2        	l16si	a11, a11, 98
    724a:	0008e0        	callx8	a8
    724d:	04b8           	l32i.n	a11, a4, 0
    724f:	09d2a2        	addmi	a10, a2, 0x900
    7252:	e45c81        	l32r	a8, 3c4 (6e84 <complement_para>)
    7255:	20caa2        	addi	a10, a10, 32
    7258:	329bb2        	l16si	a11, a11, 100
    725b:	0008e0        	callx8	a8
    725e:	24c332        	addi	a3, a3, 36
    7261:	9e6c           	movi.n	a14, -23
    7263:	00a182        	movi	a8, 0x100
    7266:	08d2f2        	addmi	a15, a2, 0x800
    7269:	096c           	movi.n	a9, -32
    726b:	e371b1        	l32r	a11, 30 (e798 <p_ecnr_mem>)
    726e:	78a0c2        	movi	a12, 120
    7271:	7d0c           	movi.n	a13, 7
    7273:	3442d2        	s8i	a13, a2, 52
    7276:	3542c2        	s8i	a12, a2, 53
    7279:	0bb8           	l32i.n	a11, a11, 0
    727b:	04a8           	l32i.n	a10, a4, 0
    727d:	e447d1        	l32r	a13, 39c (7fff0000 <_end+0x7ffe1860>)
    7280:	bb6a           	add.n	a11, a11, a6
    7282:	0aa8           	l32i.n	a10, a10, 0
    7284:	02a9           	s32i.n	a10, a2, 0
    7286:	462bb2        	l32i	a11, a11, 0x118
    7289:	3c65b2        	s32i	a11, a5, 240
    728c:	10daa2        	addmi	a10, a10, 0x1000
    728f:	dccab2        	addi	a11, a10, -36
    7292:	b8caa2        	addi	a10, a10, -72
    7295:	3e65b2        	s32i	a11, a5, 248
    7298:	3d65a2        	s32i	a10, a5, 244
    729b:	185272        	s16i	a7, a2, 48
    729e:	975f92        	s16i	a9, a15, 0x12e
    72a1:	e44f91        	l32r	a9, 3e0 (40000000 <_end+0x3fff1860>)
    72a4:	155282        	s16i	a8, a2, 42
    72a7:	955fe2        	s16i	a14, a15, 0x12a
    72aa:	4165d2        	s32i	a13, a5, 0x104
    72ad:	02ac76        	loopgtz	a12, 72b3 <NB_NR_init+0x18b>
    72b0:	09e394        	ae_s32ip	a9, a3, 4
    72b3:	f01d           	retw.n

000072b5 <NB_NR_init+0x18d>:
    72b5:	000000                                        ...

000072b8 <NB_RX_NR_init>:
    72b8:	004136        	entry	a1, 32
    72bb:	03bd           	mov.n	a11, a3
    72bd:	04cd           	mov.n	a12, a4
    72bf:	e35c31        	l32r	a3, 30 (e798 <p_ecnr_mem>)
    72c2:	e44881        	l32r	a8, 3e4 (98c <RX_ECNR_PARA_init>)
    72c5:	1a0c           	movi.n	a10, 1
    72c7:	0329           	s32i.n	a2, a3, 0
    72c9:	0008e0        	callx8	a8
    72cc:	e35cb1        	l32r	a11, 3c (e78c <aec_nr_para>)
    72cf:	e439c1        	l32r	a12, 3b4 (ceb8 <M_norm64+0x38>)
    72d2:	03a8           	l32i.n	a10, a3, 0
    72d4:	0bb8           	l32i.n	a11, a11, 0
    72d6:	e40781        	l32r	a8, 2f4 (5d20 <HP_coef_setup>)
    72d9:	aaca           	add.n	a10, a10, a12
    72db:	01dbb2        	addmi	a11, a11, 0x100
    72de:	60cbb2        	addi	a11, a11, 96
    72e1:	0008e0        	callx8	a8
    72e4:	e441b1        	l32r	a11, 3e8 (bc88 <mel_tab26+0x398>)
    72e7:	03a8           	l32i.n	a10, a3, 0
    72e9:	e44c81        	l32r	a8, 41c (7128 <NB_NR_init>)
    72ec:	aaba           	add.n	a10, a10, a11
    72ee:	0008e0        	callx8	a8
    72f1:	f01d           	retw.n

000072f3 <NB_RX_NR_init+0x3b>:
	...

000072f4 <NB_RX_NR_frame_process>:
    72f4:	004136        	entry	a1, 32
    72f7:	02ad           	mov.n	a10, a2
    72f9:	e34d41        	l32r	a4, 30 (e798 <p_ecnr_mem>)
    72fc:	78a0d2        	movi	a13, 120
    72ff:	e436c1        	l32r	a12, 3d8 (cef0 <M_norm64+0x70>)
    7302:	04b8           	l32i.n	a11, a4, 0
    7304:	e43b31        	l32r	a3, 3f0 (ceec <M_norm64+0x6c>)
    7307:	e41681        	l32r	a8, 360 (60d0 <emph_filter_N>)
    730a:	cbca           	add.n	a12, a11, a12
    730c:	bb3a           	add.n	a11, a11, a3
    730e:	0008e0        	callx8	a8
    7311:	02bd           	mov.n	a11, a2
    7313:	02cd           	mov.n	a12, a2
    7315:	04a8           	l32i.n	a10, a4, 0
    7317:	e434e1        	l32r	a14, 3e8 (bc88 <mel_tab26+0x398>)
    731a:	e44181        	l32r	a8, 420 (7340 <NB_NR_frame_process>)
    731d:	50dad2        	addmi	a13, a10, 0x5000
    7320:	aaea           	add.n	a10, a10, a14
    7322:	7fddd2        	addmi	a13, a13, 0x7f00
    7325:	3dd8           	l32i.n	a13, a13, 12
    7327:	0008e0        	callx8	a8
    732a:	02ad           	mov.n	a10, a2
    732c:	04c8           	l32i.n	a12, a4, 0
    732e:	e432d1        	l32r	a13, 3f8 (cef4 <M_norm64+0x74>)
    7331:	e41e81        	l32r	a8, 3ac (6114 <deemph_filter_N>)
    7334:	bc3a           	add.n	a11, a12, a3
    7336:	ccda           	add.n	a12, a12, a13
    7338:	78a0d2        	movi	a13, 120
    733b:	0008e0        	callx8	a8
    733e:	f01d           	retw.n

00007340 <NB_NR_frame_process>:
    7340:	004136        	entry	a1, 32
    7343:	e42e81        	l32r	a8, 3fc (741c <fft_wo>)
    7346:	03bd           	mov.n	a11, a3
    7348:	02ad           	mov.n	a10, a2
    734a:	0008e0        	callx8	a8
    734d:	e42c81        	l32r	a8, 400 (75d8 <NR_vad1>)
    7350:	02ad           	mov.n	a10, a2
    7352:	0008e0        	callx8	a8
    7355:	e42b81        	l32r	a8, 404 (7708 <NR_vad2>)
    7358:	02ad           	mov.n	a10, a2
    735a:	0008e0        	callx8	a8
    735d:	e42a81        	l32r	a8, 408 (7858 <NR_NoiseEstimate>)
    7360:	02ad           	mov.n	a10, a2
    7362:	0008e0        	callx8	a8
    7365:	e42981        	l32r	a8, 40c (7968 <NR_NoiseWithGain>)
    7368:	02ad           	mov.n	a10, a2
    736a:	0008e0        	callx8	a8
    736d:	e42881        	l32r	a8, 410 (7a1c <NR_WienerFilter>)
    7370:	02ad           	mov.n	a10, a2
    7372:	0008e0        	callx8	a8
    7375:	059d           	mov.n	a9, a5
    7377:	00a0a2        	movi	a10, 0
    737a:	00a2b2        	movi	a11, 0x200
    737d:	02ab76        	loopgtz	a11, 7383 <NB_NR_frame_process+0x43>
    7380:	09c9a4        	ae_s16ip	a10, a9, 2

00007383 <NB_NR_frame_process+0x43>:
    7383:	05cd           	mov.n	a12, a5
    7385:	e42381        	l32r	a8, 414 (7c78 <ifft_wo>)
    7388:	04bd           	mov.n	a11, a4
    738a:	02ad           	mov.n	a10, a2
    738c:	0008e0        	callx8	a8
    738f:	f01d           	retw.n

00007391 <NB_NR_frame_process+0x51>:
    7391:	00000000 36000000                                .......

00007398 <take_min_four>:
    7398:	004136        	entry	a1, 32
    739b:	228d           	ae_l16si.n	a8, a2, 0
    739d:	3f23a6        	blti	a3, 2, 73e0 <take_min_four+0x48>
    73a0:	e32f91        	l32r	a9, 5c (7fff <xtensa_fft8_32b+0x27>)
    73a3:	e32e61        	l32r	a6, 5c (7fff <xtensa_fft8_32b+0x27>)
    73a6:	e32d71        	l32r	a7, 5c (7fff <xtensa_fft8_32b+0x27>)
    73a9:	222b           	addi.n	a2, a2, 2
    73ab:	430b           	addi.n	a4, a3, -1
    73ad:	2ca476        	loopgtz	a4, 73dd <take_min_four+0x45>
    73b0:	223d           	ae_l16si.n	a3, a2, 0
    73b2:	222b           	addi.n	a2, a2, 2
    73b4:	0aa387        	bge	a3, a8, 73c2 <take_min_four+0x2a>
    73b7:	069d           	mov.n	a9, a6
    73b9:	076d           	mov.n	a6, a7
    73bb:	087d           	mov.n	a7, a8
    73bd:	038d           	mov.n	a8, a3
    73bf:	000606        	j	73db <take_min_four+0x43>

000073c2 <take_min_four+0x2a>:
    73c2:	08a377        	bge	a3, a7, 73ce <take_min_four+0x36>
    73c5:	069d           	mov.n	a9, a6
    73c7:	076d           	mov.n	a6, a7
    73c9:	037d           	mov.n	a7, a3
    73cb:	000306        	j	73db <take_min_four+0x43>

000073ce <take_min_four+0x36>:
    73ce:	06a367        	bge	a3, a6, 73d8 <take_min_four+0x40>
    73d1:	069d           	mov.n	a9, a6
    73d3:	036d           	mov.n	a6, a3
    73d5:	000086        	j	73db <take_min_four+0x43>

000073d8 <take_min_four+0x40>:
    73d8:	439390        	min	a9, a3, a9
    73db:	f03d           	nop.n

000073dd <take_min_four+0x45>:
    73dd:	000206        	j	73e9 <take_min_four+0x51>

000073e0 <take_min_four+0x48>:
    73e0:	e31f61        	l32r	a6, 5c (7fff <xtensa_fft8_32b+0x27>)
    73e3:	e31e91        	l32r	a9, 5c (7fff <xtensa_fft8_32b+0x27>)
    73e6:	e31d71        	l32r	a7, 5c (7fff <xtensa_fft8_32b+0x27>)

000073e9 <take_min_four+0x51>:
    73e9:	469a           	add.n	a4, a6, a9
    73eb:	287a           	add.n	a2, a8, a7
    73ed:	224a           	add.n	a2, a2, a4
    73ef:	112220        	slli	a2, a2, 14
    73f2:	f01d           	retw.n

000073f4 <equal_power>:
    73f4:	004136        	entry	a1, 32
    73f7:	c08450        	sub	a8, a4, a5
    73fa:	0078d6        	bgez	a8, 7405 <equal_power+0x11>
    73fd:	023d           	mov.n	a3, a2
    73ff:	c08540        	sub	a8, a5, a4
    7402:	000046        	j	7407 <equal_power+0x13>

00007405 <equal_power+0x11>:
    7405:	045d           	mov.n	a5, a4

00007407 <equal_power+0x13>:
    7407:	fcc332        	addi	a3, a3, -4
    740a:	08a676        	loopgtz	a6, 7416 <equal_power+0x22>
    740d:	601314        	ae_lq32f.iu	aeq0, a3, 4
    7410:	3408a4        	ae_srlaq56	aeq0, aeq0, a8
    7413:	620304        	ae_sq32f.i	aeq0, a3, 0

00007416 <equal_power+0x22>:
    7416:	052d           	mov.n	a2, a5
    7418:	f01d           	retw.n

0000741a <equal_power+0x26>:
	...

0000741c <fft_wo>:
    741c:	008136        	entry	a1, 64
    741f:	340282        	l8ui	a8, a2, 52
    7422:	6139           	s32i.n	a3, a1, 24
    7424:	e400c1        	l32r	a12, 424 (a724 <fftorder_512_12b+0x4>)
    7427:	0a88b6        	bltui	a8, 8, 7435 <fft_wo+0x19>
    742a:	f0a062        	movi	a6, 240
    742d:	00a242        	movi	a4, 0x200
    7430:	270c           	movi.n	a7, 2
    7432:	000286        	j	7440 <fft_wo+0x24>

00007435 <fft_wo+0x19>:
    7435:	78a062        	movi	a6, 120
    7438:	00a142        	movi	a4, 0x100
    743b:	470c           	movi.n	a7, 4
    743d:	e3fac1        	l32r	a12, 428 (a728 <fftorder_512_12b+0x8>)

00007440 <fft_wo+0x24>:
    7440:	02f8           	l32i.n	a15, a2, 0
    7442:	1592e2        	l16si	a14, a2, 42
    7445:	430c           	movi.n	a3, 4
    7447:	1916a6        	blti	a6, 1, 7464 <fft_wo+0x48>
    744a:	1196f0        	slli	a9, a6, 1
    744d:	61a8           	l32i.n	a10, a1, 24
    744f:	5199           	s32i.n	a9, a1, 20
    7451:	090c           	movi.n	a9, 0
    7453:	09a676        	loopgtz	a6, 7460 <fft_wo+0x44>
    7456:	2abd           	ae_l16si.n	a11, a10, 0
    7458:	aa2b           	addi.n	a10, a10, 2
    745a:	60b1b0        	abs	a11, a11
    745d:	2099b0        	or	a9, a9, a11

00007460 <fft_wo+0x44>:
    7460:	0001c6        	j	746b <fft_wo+0x4f>

00007463 <fft_wo+0x47>:
	...

00007464 <fft_wo+0x48>:
    7464:	090c           	movi.n	a9, 0
    7466:	11d6f0        	slli	a13, a6, 1
    7469:	51d9           	s32i.n	a13, a1, 20

0000746b <fft_wo+0x4f>:
    746b:	d23430        	quos	a3, a4, a3
    746e:	a0f4f0        	addx4	a15, a4, a15
    7471:	0b0c           	movi.n	a11, 0
    7473:	40e9d0        	nsa	a13, a9
    7476:	f0cdd2        	addi	a13, a13, -16
    7479:	10d292        	addmi	a9, a2, 0x1000
    747c:	18c952        	addi	a5, a9, 24
    747f:	8729a2        	l32i	a10, a9, 0x21c
    7482:	098d           	mov.n	a8, a9
    7484:	53ddb0        	max	a13, a13, a11
    7487:	11d9           	s32i.n	a13, a1, 4
    7489:	4408c4        	ae_lp16x2f.i	aep0, a8, -16
    748c:	43dde0        	min	a13, a13, a14
    748f:	f0c992        	addi	a9, a9, -16
    7492:	441a04        	ae_lp16x2f.i	aep1, a10, 0
    7495:	ff249401df 	{ s32i.n	a13, a1, 0; ae_zeroq56	aeq3 }
    749a:	11e4e0        	slli	a14, a4, 2
    749d:	0316d4        	wur.ae_sar	a13
    74a0:	f9de1421ef 	{ s32i.n	a14, a1, 8; ae_truncp24q48x2	aep2, aeq3, aeq3 }
    74a5:	f823804fee 	{ addi	a14, a15, 4; ae_sllssp24s	aep0, aep0 }
    74aa:	11d7f0        	slli	a13, a7, 1
    74ad:	17a376        	loopgtz	a3, 74c8 <fft_wo+0xac>
    74b0:	010944        	ae_mulfp24s.hh	aeq1, aep0, aep1
    74b3:	010174        	ae_mulfp24s.ll	aeq0, aep0, aep1
    74b6:	629fb4        	ae_sq32f.x	aeq1, a15, a11
    74b9:	628eb4        	ae_sq32f.x	aeq0, a14, a11
    74bc:	2cbd           	ae_l16si.n	a11, a12, 0
    74be:	449914        	ae_lp16x2f.iu	aep1, a9, 4
    74c1:	ccda           	add.n	a12, a12, a13
    74c3:	f827ad9a1f 	{ ae_lp16x2f.iu	aep1, a10, 4; ae_sllssp24s	aep0, aep1 }

000074c8 <fft_wo+0xac>:
    74c8:	290c           	movi.n	a9, 2
    74ca:	5188           	l32i.n	a8, a1, 20
    74cc:	d29690        	quos	a9, a6, a9
    74cf:	10d262        	addmi	a6, a2, 0x1000
    74d2:	3199           	s32i.n	a9, a1, 12
    74d4:	808820        	add	a8, a8, a2
    74d7:	c09390        	sub	a9, a3, a9
    74da:	046192        	s32i	a9, a1, 16
    74dd:	ecc662        	addi	a6, a6, -20
    74e0:	10d892        	addmi	a9, a8, 0x1000
    74e3:	10d882        	addmi	a8, a8, 0x1000
    74e6:	f4c882        	addi	a8, a8, -12
    74e9:	4408f4        	ae_lp16x2f.i	aep0, a8, -4
    74ec:	042182        	l32i	a8, a1, 16
    74ef:	002132        	l32i	a3, a1, 0
    74f2:	f0c992        	addi	a9, a9, -16
    74f5:	09a876        	loopgtz	a8, 7502 <fft_wo+0xe6>
    74f8:	fd0873861f 	{ ae_sp16x2f.iu	aep0, a6, 4; ae_abssp24s	aep3, aep0 }
    74fd:	dd682d891f 	{ ae_lp16x2f.iu	aep0, a9, 4; ae_orp48	aep2, aep2, aep3 }
    7502:	4188           	l32i.n	a8, a1, 16
    7504:	11d7f0        	slli	a13, a7, 1
    7507:	449af4        	ae_lp16x2f.iu	aep1, a10, -4
    750a:	1fa876        	loopgtz	a8, 752d <fft_wo+0x111>
    750d:	0b00d4        	ae_sllssp24s	aep5, aep0
    7510:	015954        	ae_mulfp24s.hl	aeq1, aep5, aep1
    7513:	e835b3861f 	{ ae_sp16x2f.iu	aep0, a6, 4; ae_mulfp24s.lh	aeq0, aep5, aep1 }
    7518:	629fb4        	ae_sq32f.x	aeq1, a15, a11
    751b:	628eb4        	ae_sq32f.x	aeq0, a14, a11
    751e:	449af4        	ae_lp16x2f.iu	aep1, a10, -4

00007521 <fft_wo+0x105>:
    7521:	fe082d891f 	{ ae_lp16x2f.iu	aep0, a9, 4; ae_abssp24s	aep4, aep0 }
    7526:	2cbd           	ae_l16si.n	a11, a12, 0
    7528:	dd8810ccdf 	{ add	a12, a12, a13; ae_orp48	aep2, aep2, aep4 }

0000752d <fft_wo+0x111>:
    752d:	00a9d4        	ae_cvta32p24.h	a9, aep2
    7530:	0028d4        	ae_cvta32p24.l	a8, aep2
    7533:	11d8           	l32i.n	a13, a1, 4
    7535:	208890        	or	a8, a8, a9
    7538:	062192        	l32i	a9, a1, 24
    753b:	40e880        	nsa	a8, a8
    753e:	43dd80        	min	a13, a13, a8
    7541:	1552d2        	s16i	a13, a2, 42
    7544:	032182        	l32i	a8, a1, 12
    7547:	440904        	ae_lp16x2f.i	aep0, a9, 0
    754a:	11d7f0        	slli	a13, a7, 1
    754d:	1aa876        	loopgtz	a8, 756b <fft_wo+0x14f>
    7550:	0b00e4        	ae_sllssp24s	aep6, aep0
    7553:	01e954        	ae_mulfp24s.hl	aeq3, aep6, aep1
    7556:	e939b3861f 	{ ae_sp16x2f.iu	aep0, a6, 4; ae_mulfp24s.lh	aeq2, aep6, aep1 }
    755b:	62bfb4        	ae_sq32f.x	aeq3, a15, a11
    755e:	62aeb4        	ae_sq32f.x	aeq2, a14, a11
    7561:	449af4        	ae_lp16x2f.iu	aep1, a10, -4
    7564:	2cbd           	ae_l16si.n	a11, a12, 0
    7566:	448914        	ae_lp16x2f.iu	aep0, a9, 4
    7569:	ccda           	add.n	a12, a12, a13
    756b:	8c0c           	movi.n	a12, 8
    756d:	1d0c           	movi.n	a13, 1
    756f:	0e0c           	movi.n	a14, 0
    7571:	21f8           	l32i.n	a15, a1, 8
    7573:	02a8           	l32i.n	a10, a2, 0
    7575:	21b140        	srai	a11, a4, 1
    7578:	e34181        	l32r	a8, 27c (8740 <sw_fft_32b_2811>)
    757b:	8bbd           	ae_sext16	a11, a11
    757d:	aafa           	add.n	a10, a10, a15
    757f:	0008e0        	callx8	a8
    7582:	7e2592        	l32i	a9, a5, 0x1f8
    7585:	2c0c           	movi.n	a12, 2
    7587:	c0b3a0        	sub	a11, a3, a10
    758a:	1652b2        	s16i	a11, a2, 44
    758d:	0022a2        	l32i	a10, a2, 0
    7590:	d2c4c0        	quos	a12, a4, a12
    7593:	f8c992        	addi	a9, a9, -8
    7596:	0b1ca6        	blti	a12, 1, 75a5 <fft_wo+0x189>
    7599:	05ac76        	loopgtz	a12, 75a2 <fft_wo+0x186>
    759c:	5cfa14        	ae_lp24x2f.iu	aep7, a10, 8
    759f:	5ef914        	ae_sp24x2f.iu	aep7, a9, 8
    75a2:	1692b2        	l16si	a11, a2, 44

000075a5 <fft_wo+0x189>:
    75a5:	7e2592        	l32i	a9, a5, 0x1f8
    75a8:	02a8           	l32i.n	a10, a2, 0
    75aa:	01a0c2        	movi	a12, 1
    75ad:	11dbf0        	slli	a13, a11, 1
    75b0:	c0ccd0        	sub	a12, a12, a13
    75b3:	09d2d2        	addmi	a13, a2, 0x900
    75b6:	145dc2        	s16i	a12, a13, 40
    75b9:	3502d2        	l8ui	a13, a2, 53
    75bc:	fccaa2        	addi	a10, a10, -4
    75bf:	5c0904        	ae_lp24x2f.i	aep0, a9, 0
    75c2:	03cdd2        	addi	a13, a13, 3
    75c5:	0aad76        	loopgtz	a13, 75d3 <fft_wo+0x1b7>
    75c8:	040824        	ae_mulzaap24s.hh.ll	aeq1, aep0, aep0
    75cb:	fc4c6f891f 	{ ae_lp24x2f.iu	aep0, a9, 8; ae_roundsq32sym	aeq0, aeq1 }
    75d0:	624a14        	ae_sq32f.iu	aeq0, a10, 4

000075d3 <fft_wo+0x1b7>:
    75d3:	f01d           	retw.n

000075d5 <fft_wo+0x1b9>:
    75d5:	000000                                        ...

000075d8 <NR_vad1>:
    75d8:	006136        	entry	a1, 48
    75db:	0129           	s32i.n	a2, a1, 0
    75dd:	0238           	l32i.n	a3, a2, 0
    75df:	340282        	l8ui	a8, a2, 52
    75e2:	1189           	s32i.n	a8, a1, 4
    75e4:	33cb           	addi.n	a3, a3, 12
    75e6:	0788b6        	bltui	a8, 8, 75f1 <NR_vad1+0x19>
    75e9:	e39041        	l32r	a4, 42c (af30 <wb_sb_ptn>)
    75ec:	000106        	j	75f4 <NR_vad1+0x1c>

000075ef <NR_vad1+0x17>:
	...

000075f1 <NR_vad1+0x19>:
    75f1:	e38f41        	l32r	a4, 430 (af60 <nb_sb_ptn>)

000075f4 <NR_vad1+0x1c>:
    75f4:	1188           	l32i.n	a8, a1, 4
    75f6:	608304        	ae_lq32f.i	aeq2, a3, 0
    75f9:	053816        	beqz	a8, 7650 <NR_vad1+0x78>
    75fc:	0168           	l32i.n	a6, a1, 0
    75fe:	907840        	addx2	a7, a8, a4
    7601:	050c           	movi.n	a5, 0
    7603:	08d622        	addmi	a2, a6, 0x800
    7606:	10d662        	addmi	a6, a6, 0x1000
    7609:	fd2481866e 	{ addi	a6, a6, 24; ae_zeroq56	aeq1 }

0000760e <NR_vad1+0x36>:
    760e:	249d           	ae_l16si.n	a9, a4, 0
    7610:	348d           	ae_l16si.n	a8, a4, 2
    7612:	c08890        	sub	a8, a8, a9
    7615:	04a876        	loopgtz	a8, 761d <NR_vad1+0x45>
    7618:	f9ea3d531f 	{ ae_lq32f.iu	aeq2, a3, 4; ae_addq56	aeq1, aeq1, aeq2 }

0000761d <NR_vad1+0x45>:
    761d:	365d04        	ae_nsaq56s	a13, aeq1
    7620:	9492b2        	l16si	a11, a2, 0x128
    7623:	e34881        	l32r	a8, 344 (a78 <Log2_norm>)
    7626:	f8cdc2        	addi	a12, a13, -8
    7629:	c0bbd0        	sub	a11, a11, a13
    762c:	fc24fe9c4f 	{ ae_slaasq56s	aeq1, aeq1, a12; nop }
    7631:	369a04        	ae_trunca32q48	a10, aeq1
    7634:	bb8b           	addi.n	a11, a11, 8
    7636:	0008e0        	callx8	a8
    7639:	7f26e2        	l32i	a14, a6, 0x1fc
    763c:	608304        	ae_lq32f.i	aeq2, a3, 0
    763f:	442b           	addi.n	a4, a4, 2
    7641:	ee5a           	add.n	a14, a14, a5
    7643:	0ea9           	s32i.n	a10, a14, 0
    7645:	fd2480455e 	{ addi	a5, a5, 4; ae_zeroq56	aeq1 }
    764a:	c09477        	bne	a4, a7, 760e <NR_vad1+0x36>
    764d:	0001c6        	j	7658 <NR_vad1+0x80>

00007650 <NR_vad1+0x78>:
    7650:	0168           	l32i.n	a6, a1, 0
    7652:	10d662        	addmi	a6, a6, 0x1000
    7655:	18c662        	addi	a6, a6, 24

00007658 <NR_vad1+0x80>:
    7658:	01a8           	l32i.n	a10, a1, 0
    765a:	7f2692        	l32i	a9, a6, 0x1fc
    765d:	1188           	l32i.n	a8, a1, 4
    765f:	01dab2        	addmi	a11, a10, 0x100
    7662:	604904        	ae_lq32f.i	aeq1, a9, 0
    7665:	039aa2        	l16si	a10, a10, 6
    7668:	10cbc2        	addi	a12, a11, 16
    766b:	0bdd           	mov.n	a13, a11
    766d:	608d44        	ae_lq32f.i	aeq2, a13, 16
    7670:	30cbb2        	addi	a11, a11, 48
    7673:	11aa00        	slli	a10, a10, 16
    7676:	360a34        	ae_cvtq48a32s	aeq0, a10
    7679:	04b816        	beqz	a8, 76c8 <NR_vad1+0xf0>
    767c:	01e8           	l32i.n	a14, a1, 0
    767e:	0a0c           	movi.n	a10, 0
    7680:	09dee2        	addmi	a14, a14, 0x900
    7683:	10cef2        	addi	a15, a14, 16
    7686:	14cee2        	addi	a14, a14, 20
    7689:	349876        	loopnez	a8, 76c1 <NR_vad1+0xe9>
    768c:	099224        	ae_ltq56s	b2, aeq2, aeq1
    768f:	0f8d           	mov.n	a8, a15
    7691:	c38e20        	movf	a8, a14, b2
    7694:	441804        	ae_lp16x2f.i	aep1, a8, 0
    7697:	c19164        	ae_mulzaafq32sp16s.lh	aeq2, aeq1, aep1, aeq2, aep1
    769a:	622c04        	ae_sq32f.i	aeq2, a12, 0
    769d:	60db14        	ae_lq32f.iu	aeq3, a11, 4
    76a0:	09b114        	ae_ltq56s	b1, aeq1, aeq3
    76a3:	0fdd           	mov.n	a13, a15
    76a5:	c3de10        	movf	a13, a14, b1
    76a8:	440d04        	ae_lp16x2f.i	aep0, a13, 0
    76ab:	c18874        	ae_mulzaafq32sp16s.lh	aeq3, aeq1, aep0, aeq3, aep0
    76ae:	fab6c06a8e 	{ addi	a8, a10, 6; ae_subq56	aeq2, aeq2, aeq3 }
    76b3:	d65039bb0f 	{ ae_sq32f.i	aeq3, a11, 0; ae_ltq56s	b0, aeq0, aeq2 }
    76b8:	605914        	ae_lq32f.iu	aeq1, a9, 4
    76bb:	609c14        	ae_lq32f.iu	aeq2, a12, 4
    76be:	d3a800        	movt	a10, a8, b0

000076c1 <NR_vad1+0xe9>:
    76c1:	7f2692        	l32i	a9, a6, 0x1fc
    76c4:	000086        	j	76ca <NR_vad1+0xf2>

000076c7 <NR_vad1+0xef>:
	...

000076c8 <NR_vad1+0xf0>:
    76c8:	0a0c           	movi.n	a10, 0

000076ca <NR_vad1+0xf2>:
    76ca:	051ae6        	bgei	a10, 1, 76d3 <NR_vad1+0xfb>
    76cd:	e359a1        	l32r	a10, 434 (ac1c <NR_immediate_num+0xc>)
    76d0:	000086        	j	76d6 <NR_vad1+0xfe>

000076d3 <NR_vad1+0xfb>:
    76d3:	e359a1        	l32r	a10, 438 (ac18 <NR_immediate_num+0x8>)

000076d6 <NR_vad1+0xfe>:
    76d6:	604904        	ae_lq32f.i	aeq1, a9, 0
    76d9:	01d8           	l32i.n	a13, a1, 0
    76db:	11b8           	l32i.n	a11, a1, 4
    76dd:	440a04        	ae_lp16x2f.i	aep0, a10, 0
    76e0:	109dc2        	l16si	a12, a13, 32
    76e3:	01ddd2        	addmi	a13, a13, 0x100
    76e6:	58cda2        	addi	a10, a13, 88
    76e9:	11cc00        	slli	a12, a12, 16
    76ec:	78cdd2        	addi	a13, a13, 120
    76ef:	608d84        	ae_lq32f.i	aeq2, a13, -32
    76f2:	360c34        	ae_cvtq48a32s	aeq0, a12
    76f5:	0d9b76        	loopnez	a11, 7706 <NR_vad1+0x12e>
    76f8:	c18864        	ae_mulzaafq32sp16s.lh	aeq3, aeq1, aep0, aeq2, aep0
    76fb:	605914        	ae_lq32f.iu	aeq1, a9, 4
    76fe:	fb7b3d5a1f 	{ ae_lq32f.iu	aeq2, a10, 4; ae_maxq56s	aeq3, aeq0, aeq3 }
    7703:	623af4        	ae_sq32f.i	aeq3, a10, -4

00007706 <NR_vad1+0x12e>:
    7706:	f01d           	retw.n

00007708 <NR_vad2>:
    7708:	006136        	entry	a1, 48
    770b:	851c           	movi.n	a5, 24
    770d:	7ca1f2        	movi	a15, 0x17c
    7710:	3402a2        	l8ui	a10, a2, 52
    7713:	1812e2        	l16ui	a14, a2, 48
    7716:	01d2d2        	addmi	a13, a2, 0x100
    7719:	021282        	l16ui	a8, a2, 4
    771c:	58cdc2        	addi	a12, a13, 88
    771f:	5ccdb2        	addi	a11, a13, 92
    7722:	0218e7        	beq	a8, a14, 7728 <NR_vad2+0x20>
    7725:	0021c6        	j	77b0 <NR_vad2+0xa8>
    7728:	109262        	l16si	a6, a2, 32
    772b:	080c           	movi.n	a8, 0
    772d:	7ccd92        	addi	a9, a13, 124
    7730:	0199           	s32i.n	a9, a1, 0
    7732:	185282        	s16i	a8, a2, 48
    7735:	08d662        	addmi	a6, a6, 0x800
    7738:	116600        	slli	a6, a6, 16
    773b:	eaac           	beqz.n	a10, 776d <NR_vad2+0x65>
    773d:	36c232        	addi	a3, a2, 54
    7740:	094d           	mov.n	a4, a9
    7742:	31a9           	s32i.n	a10, a1, 12
    7744:	11c9           	s32i.n	a12, a1, 4
    7746:	21b9           	s32i.n	a11, a1, 8
    7748:	907aa0        	addx2	a7, a10, a10
    774b:	b07720        	addx8	a7, a7, a2
    774e:	36c772        	addi	a7, a7, 54

00007751 <NR_vad2+0x49>:
    7751:	e33a81        	l32r	a8, 43c (7398 <take_min_four>)
    7754:	03ad           	mov.n	a10, a3
    7756:	cb0c           	movi.n	a11, 12
    7758:	0008e0        	callx8	a8
    775b:	18c332        	addi	a3, a3, 24
    775e:	5396a0        	max	a9, a6, a10
    7761:	09e494        	ae_s32ip	a9, a4, 4
    7764:	e99377        	bne	a3, a7, 7751 <NR_vad2+0x49>
    7767:	31a8           	l32i.n	a10, a1, 12
    7769:	21b8           	l32i.n	a11, a1, 8
    776b:	11c8           	l32i.n	a12, a1, 4

0000776d <NR_vad2+0x65>:
    776d:	31a9           	s32i.n	a10, a1, 12
    776f:	330292        	l8ui	a9, a2, 51
    7772:	21b9           	s32i.n	a11, a1, 8
    7774:	11c9           	s32i.n	a12, a1, 4
    7776:	11c8           	l32i.n	a12, a1, 4
    7778:	21b8           	l32i.n	a11, a1, 8
    777a:	991b           	addi.n	a9, a9, 1
    777c:	20dcc0        	or	a13, a12, a12
    777f:	749090        	extui	a9, a9, 0, 8
    7782:	334292        	s8i	a9, a2, 51
    7785:	08a966        	bnei	a9, 12, 7791 <NR_vad2+0x89>
    7788:	00a092        	movi	a9, 0
    778b:	00a0a2        	movi	a10, 0
    778e:	3342a2        	s8i	a10, a2, 51

00007791 <NR_vad2+0x89>:
    7791:	600bf4        	ae_lq32f.i	aeq0, a11, -4
    7794:	0321a2        	l32i	a10, a1, 12
    7797:	909920        	addx2	a9, a9, a2
    779a:	1ec992        	addi	a9, a9, 30
    779d:	079a76        	loopnez	a10, 77a8 <NR_vad2+0xa0>
    77a0:	f8e3bd1d1f 	{ ae_lq32f.iu	aeq0, a13, 4; ae_roundsp16q48sym	aep0, aeq0 }
    77a5:	438954        	ae_sp16f.l.xu	aep0, a9, a5

000077a8 <NR_vad2+0xa0>:
    77a8:	0198           	l32i.n	a9, a1, 0
    77aa:	1812e2        	l16ui	a14, a2, 48
    77ad:	000906        	j	77d5 <NR_vad2+0xcd>

000077b0 <NR_vad2+0xa8>:
    77b0:	330292        	l8ui	a9, a2, 51
    77b3:	0cdd           	mov.n	a13, a12
    77b5:	600bf4        	ae_lq32f.i	aeq0, a11, -4
    77b8:	909920        	addx2	a9, a9, a2
    77bb:	1ec992        	addi	a9, a9, 30
    77be:	1a9c           	beqz.n	a10, 77d3 <NR_vad2+0xcb>
    77c0:	0c9a76        	loopnez	a10, 77d0 <NR_vad2+0xc8>
    77c3:	f9e39a195f 	{ ae_lp16f.xu	aep1, a9, a5; ae_roundsp16q48sym	aep2, aeq0 }
    77c8:	d846fd1d1f 	{ ae_lq32f.iu	aeq0, a13, 4; ae_minp24s	aep1, aep1, aep2 }
    77cd:	421904        	ae_sp16f.l.i	aep1, a9, 0

000077d0 <NR_vad2+0xc8>:
    77d0:	1812e2        	l16ui	a14, a2, 48

000077d3 <NR_vad2+0xcb>:
    77d3:	92fa           	add.n	a9, a2, a15

000077d5 <NR_vad2+0xcd>:
    77d5:	de1b           	addi.n	a13, a14, 1
    77d7:	1852d2        	s16i	a13, a2, 48
    77da:	0cdd           	mov.n	a13, a12
    77dc:	fd24bd0bff 	{ ae_lq32f.i	aeq0, a11, -4; ae_zeroq56	aeq1 }
    77e1:	fc20c062be 	{ addi	a11, a2, 6; ae_zerop48	aep1 }
    77e6:	0c8ab6        	bltui	a10, 8, 77f6 <NR_vad2+0xee>
    77e9:	e315e1        	l32r	a14, 440 (e38e4 <_end+0xd5144>)
    77ec:	39aee4        	ae_movpa24x2	aep2, a14, a14
    77ef:	e315e1        	l32r	a14, 444 (af10 <wb_score_bands>)
    77f2:	000246        	j	77ff <NR_vad2+0xf7>

000077f5 <NR_vad2+0xed>:
	...

000077f6 <NR_vad2+0xee>:
    77f6:	e314e1        	l32r	a14, 448 (af50 <nb_score_bands>)
    77f9:	e314f1        	l32r	a15, 44c (124925 <_end+0x116185>)
    77fc:	39aff4        	ae_movpa24x2	aep2, a15, a15

000077ff <NR_vad2+0xf7>:
    77ff:	09cd           	mov.n	a12, a9
    7801:	01d2f2        	addmi	a15, a2, 0x100
    7804:	fece92        	addi	a9, a14, -2
    7807:	12d2e2        	addmi	a14, a2, 0x1200
    780a:	6ee8           	l32i.n	a14, a14, 24
    780c:	7ccff2        	addi	a15, a15, 124
    780f:	608f04        	ae_lq32f.i	aeq2, a15, 0
    7812:	fccee2        	addi	a14, a14, -4
    7815:	259a76        	loopnez	a10, 783e <NR_vad2+0x136>
    7818:	f8a2ecbb1f 	{ ae_lp16f.iu	aep3, a11, 2; ae_subq56	aeq0, aeq0, aeq2 }
    781d:	0ac384        	ae_cvtq48p24s.l	aeq3, aep3
    7820:	098304        	ae_ltq56s	b0, aeq3, aeq0
    7823:	f4caec891f 	{ ae_lp16f.iu	aep0, a9, 2; ae_mulafq32sp24s.l	aeq1, aeq0, aep2 }
    7828:	020076        	bf	b0, 782e <NR_vad2+0x126>
    782b:	079014        	ae_addsp24s	aep1, aep1, aep0

0000782e <NR_vad2+0x126>:
    782e:	faa6fd1d1f 	{ ae_lq32f.iu	aeq0, a13, 4; ae_subq56	aeq2, aeq0, aeq3 }
    7833:	35a074        	ae_sraiq56	aeq2, aeq2, 1
    7836:	fad27d5c1f 	{ ae_lq32f.iu	aeq2, a12, 4; ae_truncp24q48x2	aep5, aeq2, aeq2 }
    783b:	52de14        	ae_sp24f.l.iu	aep5, a14, 4

0000783e <NR_vad2+0x136>:
    783e:	40eb14        	ae_lp16f.iu	aep6, a11, 2
    7841:	0ac684        	ae_cvtq48p24s.l	aeq3, aep6
    7844:	099314        	ae_ltq56s	b1, aeq3, aeq1
    7847:	2ec2f2        	addi	a15, a2, 46
    784a:	408914        	ae_lp16f.iu	aep0, a9, 2
    784d:	020176        	bf	b1, 7853 <NR_vad2+0x14b>
    7850:	079014        	ae_addsp24s	aep1, aep1, aep0

00007853 <NR_vad2+0x14b>:
    7853:	421f04        	ae_sp16f.l.i	aep1, a15, 0
    7856:	f01d           	retw.n

00007858 <NR_NoiseEstimate>:
    7858:	004136        	entry	a1, 32
    785b:	0c0c           	movi.n	a12, 0
    785d:	0022f2        	l32i	a15, a2, 0
    7860:	0e92b2        	l16si	a11, a2, 28
    7863:	eea082        	movi	a8, 238
    7866:	08dfa2        	addmi	a10, a15, 0x800
    7869:	11bbc0        	slli	a11, a11, 4
    786c:	0cdff2        	addmi	a15, a15, 0xc00
    786f:	b8cff2        	addi	a15, a15, -72
    7872:	209ff0        	or	a9, a15, a15
    7875:	05a876        	loopgtz	a8, 787e <NR_NoiseEstimate+0x26>
    7878:	09eab4        	ae_s32ip	a11, a10, 4
    787b:	09e9c4        	ae_s32ip	a12, a9, 4

0000787e <NR_NoiseEstimate+0x26>:
    787e:	4c1c           	movi.n	a12, 20
    7880:	1712b2        	l16ui	a11, a2, 46
    7883:	08d2a2        	addmi	a10, a2, 0x800
    7886:	24ca62        	addi	a6, a10, 36
    7889:	4b3cb7        	bltu	a12, a11, 78d8 <NR_NoiseEstimate+0x80>
    788c:	340292        	l8ui	a9, a2, 52
    788f:	027bb6        	bltui	a11, 7, 7895 <NR_NoiseEstimate+0x3d>
    7892:	003146        	j	795b <NR_NoiseEstimate+0x103>
    7895:	462aa2        	l32i	a10, a10, 0x118
    7898:	000086        	j	789e <NR_NoiseEstimate+0x46>

0000789b <NR_NoiseEstimate+0x43>:
    789b:	482aa2        	l32i	a10, a10, 0x120

0000789e <NR_NoiseEstimate+0x46>:
    789e:	69bc           	beqz.n	a9, 78d8 <NR_NoiseEstimate+0x80>
    78a0:	11e9e0        	slli	a14, a9, 2
    78a3:	10d2d2        	addmi	a13, a2, 0x1000
    78a6:	0b0c           	movi.n	a11, 0
    78a8:	e2e1c1        	l32r	a12, 42c (af30 <wb_sb_ptn>)
    78ab:	150c           	movi.n	a5, 1

000078ad <NR_NoiseEstimate+0x55>:
    78ad:	862d82        	l32i	a8, a13, 0x218
    78b0:	88ba           	add.n	a8, a8, a11
    78b2:	0888           	l32i.n	a8, a8, 0
    78b4:	bb4b           	addi.n	a11, a11, 4
    78b6:	1918e6        	bgei	a8, 1, 78d3 <NR_NoiseEstimate+0x7b>
    78b9:	2c4d           	ae_l16si.n	a4, a12, 0
    78bb:	3c3d           	ae_l16si.n	a3, a12, 2
    78bd:	a094f0        	addx4	a9, a4, a15
    78c0:	0fa437        	bge	a4, a3, 78d3 <NR_NoiseEstimate+0x7b>
    78c3:	c08340        	sub	a8, a3, a4
    78c6:	538850        	max	a8, a8, a5
    78c9:	06a876        	loopgtz	a8, 78d3 <NR_NoiseEstimate+0x7b>
    78cc:	0988           	l32i.n	a8, a9, 0
    78ce:	88aa           	add.n	a8, a8, a10
    78d0:	09e984        	ae_s32ip	a8, a9, 4
    78d3:	cc2b           	addi.n	a12, a12, 2
    78d5:	d49be7        	bne	a11, a14, 78ad <NR_NoiseEstimate+0x55>
    78d8:	fccf42        	addi	a4, a15, -4
    78db:	a0a172        	movi	a7, 0x1a0
    78de:	8396d2        	l16si	a13, a6, 0x106
    78e1:	0238           	l32i.n	a3, a2, 0
    78e3:	8296c2        	l16si	a12, a6, 0x104
    78e6:	350252        	l8ui	a5, a2, 53
    78e9:	33cb           	addi.n	a3, a3, 12
    78eb:	171cd7        	beq	a12, a13, 7906 <NR_NoiseEstimate+0xae>
    78ee:	20a330        	or	a10, a3, a3
    78f1:	20e550        	or	a14, a5, a5
    78f4:	e2d781        	l32r	a8, 450 (73f4 <equal_power>)
    78f7:	02d2b2        	addmi	a11, a2, 0x200
    78fa:	a0cbb2        	addi	a11, a11, -96
    78fd:	0008e0        	callx8	a8
    7900:	8356a2        	s16i	a10, a6, 0x106
    7903:	8256a2        	s16i	a10, a6, 0x104

00007906 <NR_NoiseEstimate+0xae>:
    7906:	608304        	ae_lq32f.i	aeq2, a3, 0
    7909:	02d292        	addmi	a9, a2, 0x200
    790c:	fc2489c99e 	{ addi	a9, a9, -100; ae_zeroq56	aeq0 }
    7911:	1e9576        	loopnez	a5, 7933 <NR_NoiseEstimate+0xdb>
    7914:	448414        	ae_lp16x2f.iu	aep0, a4, 4
    7917:	24ad           	ae_l16si.n	a10, a4, 0
    7919:	605914        	ae_lq32f.iu	aeq1, a9, 4
    791c:	c18864        	ae_mulzaafq32sp16s.lh	aeq3, aeq1, aep0, aeq2, aep0
    791f:	6acc           	bnez.n	a10, 7929 <NR_NoiseEstimate+0xd1>
    7921:	f86b3d531f 	{ ae_lq32f.iu	aeq2, a3, 4; ae_maxq56s	aeq0, aeq0, aeq1 }
    7926:	0001c6        	j	7931 <NR_NoiseEstimate+0xd9>

00007929 <NR_NoiseEstimate+0xd1>:
    7929:	609314        	ae_lq32f.iu	aeq2, a3, 4
    792c:	f87b39b90f 	{ ae_sq32f.i	aeq3, a9, 0; ae_maxq56s	aeq0, aeq0, aeq3 }

00007931 <NR_NoiseEstimate+0xd9>:
    7931:	f03d           	nop.n

00007933 <NR_NoiseEstimate+0xdb>:
    7933:	364a04        	ae_nsaq56s	a10, aeq0
    7936:	8b0c           	movi.n	a11, 8
    7938:	1daba7        	bge	a11, a10, 7959 <NR_NoiseEstimate+0x101>
    793b:	8396c2        	l16si	a12, a6, 0x106
    793e:	f8caa2        	addi	a10, a10, -8
    7941:	c0cca0        	sub	a12, a12, a10
    7944:	8356c2        	s16i	a12, a6, 0x106
    7947:	e58c           	beqz.n	a5, 7959 <NR_NoiseEstimate+0x101>
    7949:	927a           	add.n	a9, a2, a7
    794b:	401a00        	ssl	a10
    794e:	079576        	loopnez	a5, 7959 <NR_NoiseEstimate+0x101>
    7951:	09d8           	l32i.n	a13, a9, 0
    7953:	a1dd00        	sll	a13, a13
    7956:	09e9d4        	ae_s32ip	a13, a9, 4
    7959:	f01d           	retw.n

0000795b <NR_NoiseEstimate+0x103>:
    795b:	02bbb6        	bltui	a11, 16, 7961 <NR_NoiseEstimate+0x109>
    795e:	ffce46        	j	789b <NR_NoiseEstimate+0x43>
    7961:	472aa2        	l32i	a10, a10, 0x11c
    7964:	ffcd86        	j	789e <NR_NoiseEstimate+0x46>

00007967 <NR_NoiseEstimate+0x10f>:
	...

00007968 <NR_NoiseWithGain>:
    7968:	004136        	entry	a1, 32
    796b:	02b8           	l32i.n	a11, a2, 0
    796d:	171272        	l16ui	a7, a2, 46
    7970:	340262        	l8ui	a6, a2, 52
    7973:	08dbb2        	addmi	a11, a11, 0x800
    7976:	5377b6        	bltui	a7, 7, 79cd <NR_NoiseWithGain+0x65>
    7979:	0f9252        	l16si	a5, a2, 30
    797c:	4c1c           	movi.n	a12, 20
    797e:	073c77        	bltu	a12, a7, 7989 <NR_NoiseWithGain+0x21>
    7981:	551b           	addi.n	a5, a5, 1
    7983:	215150        	srai	a5, a5, 1
    7986:	40d552        	addmi	a5, a5, 0x4000

00007989 <NR_NoiseWithGain+0x21>:
    7989:	040616        	beqz	a6, 79cd <NR_NoiseWithGain+0x65>
    798c:	10d292        	addmi	a9, a2, 0x1000
    798f:	1c0c           	movi.n	a12, 1
    7991:	300554        	ae_cvtp24a16x2.ll	aep0, a5, a5
    7994:	11a6e0        	slli	a10, a6, 2
    7997:	050c           	movi.n	a5, 0
    7999:	e2a461        	l32r	a6, 42c (af30 <wb_sb_ptn>)

0000799c <NR_NoiseWithGain+0x34>:
    799c:	862982        	l32i	a8, a9, 0x218
    799f:	885a           	add.n	a8, a8, a5
    79a1:	0888           	l32i.n	a8, a8, 0
    79a3:	04c552        	addi	a5, a5, 4
    79a6:	1e18a6        	blti	a8, 1, 79c8 <NR_NoiseWithGain+0x60>
    79a9:	268d           	ae_l16si.n	a8, a6, 0
    79ab:	367d           	ae_l16si.n	a7, a6, 2
    79ad:	a048b0        	addx4	a4, a8, a11
    79b0:	14a877        	bge	a8, a7, 79c8 <NR_NoiseWithGain+0x60>
    79b3:	c0d780        	sub	a13, a7, a8
    79b6:	53ddc0        	max	a13, a13, a12
    79b9:	0bad76        	loopgtz	a13, 79c8 <NR_NoiseWithGain+0x60>
    79bc:	600404        	ae_lq32f.i	aeq0, a4, 0
    79bf:	030214        	ae_mulfq32sp16s.l	aeq0, aeq0, aep0
    79c2:	368e04        	ae_trunca32q48	a14, aeq0
    79c5:	09e4e4        	ae_s32ip	a14, a4, 4
    79c8:	662b           	addi.n	a6, a6, 2
    79ca:	ce95a7        	bne	a5, a10, 799c <NR_NoiseWithGain+0x34>
    79cd:	0b4d           	mov.n	a4, a11
    79cf:	fccb52        	addi	a5, a11, -4
    79d2:	4c0b04        	ae_lp24.i	aep0, a11, 0
    79d5:	3502f2        	l8ui	a15, a2, 53
    79d8:	02d232        	addmi	a3, a2, 0x200
    79db:	08d272        	addmi	a7, a2, 0x800
    79de:	959762        	l16si	a6, a7, 0x12a
    79e1:	a0c322        	addi	a2, a3, -96
    79e4:	c0c332        	addi	a3, a3, -64
    79e7:	666b           	addi.n	a6, a6, 6
    79e9:	965762        	s16i	a6, a7, 0x12c
    79ec:	600384        	ae_lq32f.i	aeq0, a3, -32
    79ef:	0a9f76        	loopnez	a15, 79fd <NR_NoiseWithGain+0x95>
    79f2:	f8e071841f 	{ ae_lp24.iu	aep0, a4, 4; ae_mulrfq32sp24s.l	aeq1, aeq0, aep0 }
    79f7:	601214        	ae_lq32f.iu	aeq0, a2, 4
    79fa:	625514        	ae_sq32f.iu	aeq1, a5, 4

000079fd <NR_NoiseWithGain+0x95>:
    79fd:	f01d           	retw.n

000079ff <NR_NoiseWithGain+0x97>:
	...

00007a00 <common_gain_limiter>:
    7a00:	004136        	entry	a1, 32
    7a03:	37a444        	ae_truncp24a32x2	aep2, a4, a4
    7a06:	400304        	ae_lp16f.i	aep0, a3, 0
    7a09:	f03d           	nop.n
    7a0b:	f03d           	nop.n
    7a0d:	07a276        	loopgtz	a2, 7a18 <common_gain_limiter+0x18>
    7a10:	d80a6c832f 	{ ae_lp16f.iu	aep0, a3, 4; ae_maxp24s	aep1, aep2, aep0 }
    7a15:	5213f4        	ae_sp24f.l.i	aep1, a3, -4

00007a18 <common_gain_limiter+0x18>:
    7a18:	032d           	mov.n	a2, a3
    7a1a:	f01d           	retw.n

00007a1c <NR_WienerFilter>:
    7a1c:	008136        	entry	a1, 64
    7a1f:	350242        	l8ui	a4, a2, 53
    7a22:	0278           	l32i.n	a7, a2, 0
    7a24:	08d232        	addmi	a3, a2, 0x800
    7a27:	05d252        	addmi	a5, a2, 0x500
    7a2a:	58c552        	addi	a5, a5, 88
    7a2d:	9793d2        	l16si	a13, a3, 0x12e
    7a30:	2cc362        	addi	a6, a3, 44
    7a33:	8096c2        	l16si	a12, a6, 0x100
    7a36:	949332        	l16si	a3, a3, 0x128
    7a39:	08d782        	addmi	a8, a7, 0x800
    7a3c:	5189           	s32i.n	a8, a1, 20
    7a3e:	77cb           	addi.n	a7, a7, 12
    7a40:	3179           	s32i.n	a7, a1, 12
    7a42:	03ad           	mov.n	a10, a3
    7a44:	0aa3d7        	bge	a3, a13, 7a52 <NR_WienerFilter+0x36>
    7a47:	057d           	mov.n	a7, a5
    7a49:	0d3d           	mov.n	a3, a13
    7a4b:	180c           	movi.n	a8, 1
    7a4d:	2189           	s32i.n	a8, a1, 8
    7a4f:	0000c6        	j	7a56 <NR_WienerFilter+0x3a>

00007a52 <NR_WienerFilter+0x36>:
    7a52:	090c           	movi.n	a9, 0
    7a54:	2199           	s32i.n	a9, a1, 8

00007a56 <NR_WienerFilter+0x3a>:
    7a56:	03a3c7        	bge	a3, a12, 7a5d <NR_WienerFilter+0x41>
    7a59:	0c3d           	mov.n	a3, a12
    7a5b:	5178           	l32i.n	a7, a1, 20

00007a5d <NR_WienerFilter+0x41>:
    7a5d:	121a37        	beq	a10, a3, 7a73 <NR_WienerFilter+0x57>
    7a60:	31b8           	l32i.n	a11, a1, 12
    7a62:	03cd           	mov.n	a12, a3
    7a64:	0add           	mov.n	a13, a10
    7a66:	e27a81        	l32r	a8, 450 (73f4 <equal_power>)
    7a69:	04ed           	mov.n	a14, a4
    7a6b:	07ad           	mov.n	a10, a7
    7a6d:	0008e0        	callx8	a8
    7a70:	8196d2        	l16si	a13, a6, 0x102

00007a73 <NR_WienerFilter+0x57>:
    7a73:	0d1d37        	beq	a13, a3, 7a84 <NR_WienerFilter+0x68>
    7a76:	07ad           	mov.n	a10, a7
    7a78:	05bd           	mov.n	a11, a5
    7a7a:	e27581        	l32r	a8, 450 (73f4 <equal_power>)
    7a7d:	03cd           	mov.n	a12, a3
    7a7f:	04ed           	mov.n	a14, a4
    7a81:	0008e0        	callx8	a8

00007a84 <NR_WienerFilter+0x68>:
    7a84:	8096c2        	l16si	a12, a6, 0x100
    7a87:	0f1c37        	beq	a12, a3, 7a9a <NR_WienerFilter+0x7e>
    7a8a:	07ad           	mov.n	a10, a7
    7a8c:	51b8           	l32i.n	a11, a1, 20
    7a8e:	0cdd           	mov.n	a13, a12
    7a90:	e27081        	l32r	a8, 450 (73f4 <equal_power>)
    7a93:	04ed           	mov.n	a14, a4
    7a95:	03cd           	mov.n	a12, a3
    7a97:	0008e0        	callx8	a8

00007a9a <NR_WienerFilter+0x7e>:
    7a9a:	e170d1        	l32r	a13, 5c (7fff <xtensa_fft8_32b+0x27>)
    7a9d:	815632        	s16i	a3, a6, 0x102
    7aa0:	805632        	s16i	a3, a6, 0x100
    7aa3:	7e5632        	s16i	a3, a6, 252
    7aa6:	31a8           	l32i.n	a10, a1, 12
    7aa8:	51c8           	l32i.n	a12, a1, 20
    7aaa:	05d292        	addmi	a9, a2, 0x500
    7aad:	78c992        	addi	a9, a9, 120
    7ab0:	0cbd           	mov.n	a11, a12
    7ab2:	600c04        	ae_lq32f.i	aeq0, a12, 0
    7ab5:	fccaa2        	addi	a10, a10, -4
    7ab8:	604984        	ae_lq32f.i	aeq1, a9, -32
    7abb:	11a9           	s32i.n	a10, a1, 4
    7abd:	059d           	mov.n	a9, a5
    7abf:	09d2c2        	addmi	a12, a2, 0x900
    7ac2:	44ccc2        	addi	a12, a12, 68
    7ac5:	440c84        	ae_lp16x2f.i	aep0, a12, -32
    7ac8:	3c9476        	loopnez	a4, 7b08 <NR_WienerFilter+0xec>
    7acb:	fa6a3d7a1f 	{ ae_lq32f.iu	aeq3, a10, 4; ae_addq56	aeq2, aeq1, aeq0 }
    7ad0:	c188e4        	ae_mulzaafq32sp16s.lh	aeq3, aeq3, aep0, aeq2, aep0
    7ad3:	364e04        	ae_nsaq56s	a14, aeq0
    7ad6:	367f04        	ae_nsaq56s	a15, aeq3
    7ad9:	43eef0        	min	a14, a14, a15
    7adc:	e9cef2        	addi	a15, a14, -23
    7adf:	fc24febf8f 	{ ae_slaasq56s	aeq2, aeq3, a15; nop }
    7ae4:	36ac04        	ae_trunca32q48	a12, aeq2
    7ae7:	f8cee2        	addi	a14, a14, -8
    7aea:	340e94        	ae_sllaq56	aeq0, aeq0, a14
    7aed:	4ccc           	bnez.n	a12, 7af5 <NR_WienerFilter+0xd9>
    7aef:	e162c1        	l32r	a12, 78 (8000 <xtensa_fft8_32b+0x28>)
    7af2:	000146        	j	7afb <NR_WienerFilter+0xdf>

00007af5 <NR_WienerFilter+0xd9>:
    7af5:	368804        	ae_trunca32q48	a8, aeq0
    7af8:	d2c8c0        	quos	a12, a8, a12

00007afb <NR_WienerFilter+0xdf>:
    7afb:	601b14        	ae_lq32f.iu	aeq0, a11, 4
    7afe:	09fd           	mov.n	a15, a9
    7b00:	c0edc0        	sub	a14, a13, a12
    7b03:	605914        	ae_lq32f.iu	aeq1, a9, 4
    7b06:	0fe9           	s32i.n	a14, a15, 0

00007b08 <NR_WienerFilter+0xec>:
    7b08:	78a082        	movi	a8, 120
    7b0b:	11d2a2        	addmi	a10, a2, 0x1100
    7b0e:	22c292        	addi	a9, a2, 34
    7b11:	4199           	s32i.n	a9, a1, 16
    7b13:	20ca72        	addi	a7, a10, 32
    7b16:	023847        	bltu	a8, a4, 7b1c <NR_WienerFilter+0x100>
    7b19:	002046        	j	7b9e <NR_WienerFilter+0x182>
    7b1c:	400904        	ae_lp16f.i	aep0, a9, 0
    7b1f:	e24d81        	l32r	a8, 454 (7a00 <common_gain_limiter>)
    7b22:	12d292        	addmi	a9, a2, 0x1200
    7b25:	24c992        	addi	a9, a9, 36
    7b28:	60c904        	ae_lq32f.i	aeq3, a9, 0
    7b2b:	d7e3694aae 	{ l16si	a10, a10, 0x128; ae_mulfq32sp16s.l	aeq3, aeq3, aep0 }
    7b30:	05bd           	mov.n	a11, a5
    7b32:	36bc04        	ae_trunca32q48	a12, aeq3
    7b35:	0008e0        	callx8	a8
    7b38:	8497c2        	l16si	a12, a7, 0x108
    7b3b:	0abd           	mov.n	a11, a10
    7b3d:	119232        	l16si	a3, a2, 34
    7b40:	8597a2        	l16si	a10, a7, 0x10a
    7b43:	e24481        	l32r	a8, 454 (7a00 <common_gain_limiter>)
    7b46:	113300        	slli	a3, a3, 16
    7b49:	c0aac0        	sub	a10, a10, a12
    7b4c:	03cd           	mov.n	a12, a3
    7b4e:	0008e0        	callx8	a8
    7b51:	e24081        	l32r	a8, 454 (7a00 <common_gain_limiter>)
    7b54:	379334        	ae_truncp24a32x2	aep1, a3, a3
    7b57:	0abd           	mov.n	a11, a10
    7b59:	12d2d2        	addmi	a13, a2, 0x1200
    7b5c:	e234a1        	l32r	a10, 42c (af30 <wb_sb_ptn>)
    7b5f:	20cdd2        	addi	a13, a13, 32
    7b62:	600d04        	ae_lq32f.i	aeq0, a13, 0
    7b65:	d4e62857ce 	{ l16si	a12, a7, 0x10a; ae_mulfq32sp16s.l	aeq0, aeq0, aep1 }
    7b6a:	089aa2        	l16si	a10, a10, 16
    7b6d:	368304        	ae_trunca32q48	a3, aeq0
    7b70:	01d9           	s32i.n	a13, a1, 0
    7b72:	c0aac0        	sub	a10, a10, a12
    7b75:	03cd           	mov.n	a12, a3
    7b77:	0008e0        	callx8	a8
    7b7a:	e23681        	l32r	a8, 454 (7a00 <common_gain_limiter>)
    7b7d:	01b8           	l32i.n	a11, a1, 0
    7b7f:	e22b91        	l32r	a9, 42c (af30 <wb_sb_ptn>)
    7b82:	37a334        	ae_truncp24a32x2	aep2, a3, a3
    7b85:	503b04        	ae_lp24f.i	aep3, a11, 0
    7b88:	012b74        	ae_mulfp24s.ll	aeq1, aep2, aep3
    7b8b:	089992        	l16si	a9, a9, 16
    7b8e:	369304        	ae_trunca32q48	a3, aeq1
    7b91:	0abd           	mov.n	a11, a10
    7b93:	c0a490        	sub	a10, a4, a9
    7b96:	03cd           	mov.n	a12, a3
    7b98:	0008e0        	callx8	a8
    7b9b:	000446        	j	7bb0 <NR_WienerFilter+0x194>

00007b9e <NR_WienerFilter+0x182>:
    7b9e:	04ad           	mov.n	a10, a4
    7ba0:	119232        	l16si	a3, a2, 34
    7ba3:	05bd           	mov.n	a11, a5
    7ba5:	e22b81        	l32r	a8, 454 (7a00 <common_gain_limiter>)
    7ba8:	113300        	slli	a3, a3, 16
    7bab:	03cd           	mov.n	a12, a3
    7bad:	0008e0        	callx8	a8

00007bb0 <NR_WienerFilter+0x194>:
    7bb0:	05cd           	mov.n	a12, a5
    7bb2:	21e8           	l32i.n	a14, a1, 8
    7bb4:	0298           	l32i.n	a9, a2, 0
    7bb6:	41b8           	l32i.n	a11, a1, 16
    7bb8:	4127a2        	l32i	a10, a7, 0x104
    7bbb:	368a34        	ae_cvtq48a32s	aeq2, a10
    7bbe:	404b04        	ae_lp16f.i	aep4, a11, 0
    7bc1:	d7f200038f 	{ movi	a8, 3; ae_mulfq32sp16s.l	aeq2, aeq2, aep4 }
    7bc6:	11a8           	l32i.n	a10, a1, 4
    7bc8:	f8f78fc99e 	{ addi	a9, a9, -4; ae_roundsp24q48sym	aep0, aeq2 }
    7bcd:	02a876        	loopgtz	a8, 7bd3 <NR_WienerFilter+0x1b7>
    7bd0:	528914        	ae_sp24f.l.iu	aep0, a9, 4

00007bd3 <NR_WienerFilter+0x1b7>:
    7bd3:	500504        	ae_lp24f.i	aep0, a5, 0
    7bd6:	f49c           	beqz.n	a4, 7bf9 <NR_WienerFilter+0x1dd>
    7bd8:	0b0c           	movi.n	a11, 0
    7bda:	179476        	loopnez	a4, 7bf5 <NR_WienerFilter+0x1d9>
    7bdd:	60da14        	ae_lq32f.iu	aeq3, a10, 4
    7be0:	088de4        	ae_mulfq32sp24s.l	aeq3, aeq3, aep0
    7be3:	088dd4        	ae_mulrfq32sp24s.l	aeq3, aeq3, aep0
    7be6:	36bd04        	ae_trunca32q48	a13, aeq3
    7be9:	623c04        	ae_sq32f.i	aeq3, a12, 0
    7bec:	528914        	ae_sp24f.l.iu	aep0, a9, 4
    7bef:	508c14        	ae_lp24f.iu	aep0, a12, 4
    7bf2:	53bbd0        	max	a11, a11, a13
    7bf5:	000086        	j	7bfb <NR_WienerFilter+0x1df>

00007bf8 <NR_WienerFilter+0x1dc>:
	...

00007bf9 <NR_WienerFilter+0x1dd>:
    7bf9:	0b0c           	movi.n	a11, 0

00007bfb <NR_WienerFilter+0x1df>:
    7bfb:	7c0c           	movi.n	a12, 7
    7bfd:	1b1e66        	bnei	a14, 1, 7c1c <NR_WienerFilter+0x200>
    7c00:	8196f2        	l16si	a15, a6, 0x102
    7c03:	40eba0        	nsa	a10, a11
    7c06:	c0ffa0        	sub	a15, a15, a10
    7c09:	8156f2        	s16i	a15, a6, 0x102
    7c0c:	c48c           	beqz.n	a4, 7c1c <NR_WienerFilter+0x200>
    7c0e:	401a00        	ssl	a10
    7c11:	079476        	loopnez	a4, 7c1c <NR_WienerFilter+0x200>
    7c14:	0588           	l32i.n	a8, a5, 0
    7c16:	a18800        	sll	a8, a8
    7c19:	09e584        	ae_s32ip	a8, a5, 4
    7c1c:	80a0e2        	movi	a14, 128
    7c1f:	3402d2        	l8ui	a13, a2, 52
    7c22:	fb0c           	movi.n	a11, 15
    7c24:	5a0c           	movi.n	a10, 5
    7c26:	62ccd0        	saltu	a12, a12, a13
    7c29:	93abc0        	movnez	a10, a11, a12
    7c2c:	101aa6        	blti	a10, 1, 7c40 <NR_WienerFilter+0x224>
    7c2f:	378334        	ae_truncp24a32x2	aep0, a3, a3
    7c32:	02aa76        	loopgtz	a10, 7c38 <NR_WienerFilter+0x21c>
    7c35:	528914        	ae_sp24f.l.iu	aep0, a9, 4

00007c38 <NR_WienerFilter+0x21c>:
    7c38:	3402d2        	l8ui	a13, a2, 52
    7c3b:	7c0c           	movi.n	a12, 7
    7c3d:	62ccd0        	saltu	a12, a12, a13

00007c40 <NR_WienerFilter+0x224>:
    7c40:	0298           	l32i.n	a9, a2, 0
    7c42:	3c27b2        	l32i	a11, a7, 240
    7c45:	00a1d2        	movi	a13, 0x100
    7c48:	0ed2a2        	addmi	a10, a2, 0xe00
    7c4b:	409a84        	ae_lp16f.iu	aep1, a10, -16
    7c4e:	93edc0        	movnez	a14, a13, a12
    7c51:	5c2b04        	ae_lp24x2f.i	aep2, a11, 0
    7c54:	fcc992        	addi	a9, a9, -4
    7c57:	508914        	ae_lp24f.iu	aep0, a9, 4
    7c5a:	17ae76        	loopgtz	a14, 7c75 <NR_WienerFilter+0x259>
    7c5d:	012954        	ae_mulfp24s.hl	aeq1, aep2, aep1
    7c60:	ea29ac9a1f 	{ ae_lp16f.iu	aep1, a10, 2; ae_mulfp24s.ll	aeq0, aep2, aep1 }
    7c65:	f8e16fab1f 	{ ae_lp24x2f.iu	aep2, a11, 8; ae_mulrfq32sp24s.l	aeq1, aeq1, aep0 }
    7c6a:	f8e02e891f 	{ ae_lp24f.iu	aep0, a9, 4; ae_mulrfq32sp24s.l	aeq0, aeq0, aep0 }
    7c6f:	621be4        	ae_sq32f.i	aeq1, a11, -8
    7c72:	620bf4        	ae_sq32f.i	aeq0, a11, -4

00007c75 <NR_WienerFilter+0x259>:
    7c75:	f01d           	retw.n

00007c77 <NR_WienerFilter+0x25b>:
	...

00007c78 <ifft_wo>:
    7c78:	006136        	entry	a1, 48
    7c7b:	049d           	mov.n	a9, a4
    7c7d:	03fd           	mov.n	a15, a3
    7c7f:	340282        	l8ui	a8, a2, 52
    7c82:	0268           	l32i.n	a6, a2, 0
    7c84:	0e0c           	movi.n	a14, 0
    7c86:	10d2a2        	addmi	a10, a2, 0x1000
    7c89:	18cab2        	addi	a11, a10, 24
    7c8c:	01b9           	s32i.n	a11, a1, 0
    7c8e:	842aa2        	l32i	a10, a10, 0x210
    7c91:	16e9           	s32i.n	a14, a6, 4
    7c93:	06e9           	s32i.n	a14, a6, 0
    7c95:	5c1a04        	ae_lp24x2f.i	aep1, a10, 0
    7c98:	1588b6        	bltui	a8, 8, 7cb1 <ifft_wo+0x39>
    7c9b:	f0a032        	movi	a3, 240
    7c9e:	00a272        	movi	a7, 0x200
    7ca1:	1d0c           	movi.n	a13, 1
    7ca3:	e1edb1        	l32r	a11, 458 (a722 <fftorder_512_12b+0x2>)
    7ca6:	9c0c           	movi.n	a12, 9
    7ca8:	11c9           	s32i.n	a12, a1, 4
    7caa:	000486        	j	7cc0 <ifft_wo+0x48>

00007cad <ifft_wo+0x35>:
    7cad:	00000000                                ....

00007cb1 <ifft_wo+0x39>:
    7cb1:	00a172        	movi	a7, 0x100
    7cb4:	2d0c           	movi.n	a13, 2
    7cb6:	e1dbb1        	l32r	a11, 424 (a724 <fftorder_512_12b+0x4>)
    7cb9:	830c           	movi.n	a3, 8
    7cbb:	1139           	s32i.n	a3, a1, 4
    7cbd:	78a032        	movi	a3, 120

00007cc0 <ifft_wo+0x48>:
    7cc0:	e1e781        	l32r	a8, 45c (ac10 <NR_immediate_num>)
    7cc3:	440404        	ae_lp16x2f.i	aep0, a4, 0
    7cc6:	1692c2        	l16si	a12, a2, 44
    7cc9:	442804        	ae_lp16x2f.i	aep2, a8, 0
    7ccc:	444814        	ae_lp16x2f.i	aep4, a8, 4
    7ccf:	00acd6        	bgez	a12, 7cdd <ifft_wo+0x65>
    7cd2:	050c           	movi.n	a5, 0
    7cd4:	60e0c0        	neg	a14, a12
    7cd7:	0316e4        	wur.ae_sar	a14
    7cda:	000106        	j	7ce2 <ifft_wo+0x6a>

00007cdd <ifft_wo+0x65>:
    7cdd:	0316e4        	wur.ae_sar	a14
    7ce0:	0c5d           	mov.n	a5, a12

00007ce2 <ifft_wo+0x6a>:
    7ce2:	11cdf0        	slli	a12, a13, 1
    7ce5:	f8a38002ef 	{ movi	a14, 2; ae_srasp24	aep0, aep0 }
    7cea:	d2e7e0        	quos	a14, a7, a14
    7ced:	1bae76        	loopgtz	a14, 7d0c <ifft_wo+0x94>
    7cf0:	df05be185f 	{ ae_selp24.hl	aep5, aep1, aep0; ae_selp24.lh	aep6, aep1, aep0 }
    7cf5:	f09ae00b8e 	{ l16si	a8, a11, 0; ae_mulzaafp24s.hh.ll	aeq1, aep6, aep4 }
    7cfa:	f05690bbcf 	{ add	a11, a11, a12; ae_mulzaafp24s.hh.ll	aeq0, aep5, aep2 }
    7cff:	5c9a14        	ae_lp24x2f.iu	aep1, a10, 8
    7d02:	f9466d891f 	{ ae_lp16x2f.iu	aep0, a9, 4; ae_truncp24q48x2	aep3, aeq0, aeq1 }
    7d07:	f8a3a9368f 	{ ae_sp24x2f.x	aep3, a6, a8; ae_srasp24	aep0, aep0 }

00007d0c <ifft_wo+0x94>:
    7d0c:	11cdf0        	slli	a12, a13, 1
    7d0f:	5c9ae4        	ae_lp24x2f.iu	aep1, a10, -16
    7d12:	fe982d89ef 	{ ae_lp16x2f.iu	aep0, a9, -8; ae_negsp24s	aep4, aep4 }
    7d17:	f8a38ffe8e 	{ addi	a8, a14, -1; ae_srasp24	aep0, aep0 }
    7d1c:	f03d           	nop.n
    7d1e:	1ba876        	loopgtz	a8, 7d3d <ifft_wo+0xc5>
    7d21:	df05be185f 	{ ae_selp24.hl	aep5, aep1, aep0; ae_selp24.lh	aep6, aep1, aep0 }
    7d26:	f15ae00bde 	{ l16si	a13, a11, 0; ae_mulzaafp24s.hh.ll	aeq3, aep6, aep2 }
    7d2b:	f19690bbcf 	{ add	a11, a11, a12; ae_mulzaafp24s.hh.ll	aeq2, aep5, aep4 }
    7d30:	5c9af4        	ae_lp24x2f.iu	aep1, a10, -8
    7d33:	f9d66d89ff 	{ ae_lp16x2f.iu	aep0, a9, -4; ae_truncp24q48x2	aep3, aeq2, aeq3 }
    7d38:	f8a3a936df 	{ ae_sp24x2f.x	aep3, a6, a13; ae_srasp24	aep0, aep0 }
    7d3d:	06ad           	mov.n	a10, a6
    7d3f:	87bd           	ae_sext16	a11, a7
    7d41:	8c0c           	movi.n	a12, 8
    7d43:	0d0c           	movi.n	a13, 0
    7d45:	e14d81        	l32r	a8, 27c (8740 <sw_fft_32b_2811>)
    7d48:	1e0c           	movi.n	a14, 1
    7d4a:	31f9           	s32i.n	a15, a1, 12
    7d4c:	0008e0        	callx8	a8
    7d4f:	fec4b2        	addi	a11, a4, -2
    7d52:	1188           	l32i.n	a8, a1, 4
    7d54:	169292        	l16si	a9, a2, 44
    7d57:	0afd           	mov.n	a15, a10
    7d59:	c0e730        	sub	a14, a7, a3
    7d5c:	09d2d2        	addmi	a13, a2, 0x900
    7d5f:	2ccdd2        	addi	a13, a13, 44
    7d62:	21e9           	s32i.n	a14, a1, 8
    7d64:	06ad           	mov.n	a10, a6
    7d66:	604a04        	ae_lq32f.i	aeq1, a10, 0
    7d69:	0168           	l32i.n	a6, a1, 0
    7d6b:	601a14        	ae_lq32f.iu	aeq0, a10, 4
    7d6e:	c0ff90        	sub	a15, a15, a9
    7d71:	3198           	l32i.n	a9, a1, 12
    7d73:	812662        	l32i	a6, a6, 0x204
    7d76:	c0ff80        	sub	a15, a15, a8
    7d79:	ff4b           	addi.n	a15, a15, 4
    7d7b:	5f5a           	add.n	a5, a15, a5
    7d7d:	90ee60        	addx2	a14, a14, a6
    7d80:	fec9c2        	addi	a12, a9, -2
    7d83:	fec662        	addi	a6, a6, -2
    7d86:	31a376        	loopgtz	a3, 7dbb <ifft_wo+0x143>
    7d89:	40bef4        	ae_lp16f.iu	aep3, a14, -2
    7d8c:	fc24fe9f4f 	{ ae_slaasq56s	aeq1, aeq1, a15; nop }
    7d91:	fc24fe850f 	{ ae_slaasq56s	aeq0, aeq0, a5; nop }
    7d96:	fc446dad1f 	{ ae_lp16x2f.iu	aep2, a13, 4; ae_roundsq32sym	aeq0, aeq0 }
    7d9b:	01a374        	ae_mulfp24s.ll	aeq2, aep2, aep3
    7d9e:	065834        	ae_roundsq32sym	aeq1, aeq1
    7da1:	eb68ec961f 	{ ae_lp16f.iu	aep1, a6, 2; ae_mulfp24s.hl	aeq3, aep2, aep3 }
    7da6:	039854        	ae_mulafq32sp16s.l	aeq3, aeq1, aep1
    7da9:	f984bd3a1f 	{ ae_lq32f.iu	aeq1, a10, 4; ae_mulsfq32sp16s.l	aeq2, aeq0, aep1 }
    7dae:	f8fbbd1a1f 	{ ae_lq32f.iu	aeq0, a10, 4; ae_roundsp16q48sym	aep0, aeq3 }
    7db3:	fbf3f28c1f 	{ ae_sp16f.l.iu	aep0, a12, 2; ae_roundsp16q48sym	aep7, aeq2 }
    7db8:	42fb14        	ae_sp16f.l.iu	aep7, a11, 2
    7dbb:	04bd           	mov.n	a11, a4
    7dbd:	401404        	ae_lp16f.i	aep1, a4, 0
    7dc0:	0221d2        	l32i	a13, a1, 8
    7dc3:	20c990        	or	a12, a9, a9
    7dc6:	400904        	ae_lp16f.i	aep0, a9, 0
    7dc9:	1183f0        	slli	a8, a3, 1
    7dcc:	c08780        	sub	a8, a7, a8
    7dcf:	a09320        	addx4	a9, a3, a2
    7dd2:	a0dd20        	addx4	a13, a13, a2
    7dd5:	09d992        	addmi	a9, a9, 0x900
    7dd8:	2cc992        	addi	a9, a9, 44
    7ddb:	09ddd2        	addmi	a13, a13, 0x900
    7dde:	2ccdd2        	addi	a13, a13, 44
    7de1:	23a876        	loopgtz	a8, 7e08 <ifft_wo+0x190>
    7de4:	44e914        	ae_lp16x2f.iu	aep6, a9, 4
    7de7:	fd2c2caeff 	{ ae_lp16f.iu	aep2, a14, -2; ae_cvtq48p24s.l	aeq1, aep1 }
    7dec:	fe0c2dfd1f 	{ ae_lp16x2f.iu	aep7, a13, 4; ae_cvtq48p24s.l	aeq2, aep0 }
    7df1:	e35f2c8c1f 	{ ae_lp16f.iu	aep0, a12, 2; ae_mulafp24s.hl	aeq2, aep7, aep2 }
    7df6:	e25fec9b1f 	{ ae_lp16f.iu	aep1, a11, 2; ae_mulafp24s.ll	aeq1, aep7, aep2 }
    7dfb:	faf3f36d0f 	{ ae_sp16x2f.i	aep6, a13, 0; ae_roundsp16q48sym	aep5, aeq2 }
    7e00:	faebb25cff 	{ ae_sp16f.l.i	aep5, a12, -2; ae_roundsp16q48sym	aep4, aeq1 }
    7e05:	424bf4        	ae_sp16f.l.i	aep4, a11, -2
    7e08:	604af4        	ae_lq32f.i	aeq1, a10, -4
    7e0b:	600a04        	ae_lq32f.i	aeq0, a10, 0
    7e0e:	21b8           	l32i.n	a11, a1, 8
    7e10:	09d292        	addmi	a9, a2, 0x900
    7e13:	2ec992        	addi	a9, a9, 46
    7e16:	1bab76        	loopgtz	a11, 7e35 <ifft_wo+0x1bd>
    7e19:	fc24fe9f4f 	{ ae_slaasq56s	aeq1, aeq1, a15; nop }
    7e1e:	fc24fe85cf 	{ ae_slaasq56s	aeq3, aeq0, a5; nop }

00007e23 <ifft_wo+0x1ab>:
    7e23:	faebbd3a1f 	{ ae_lq32f.iu	aeq1, a10, 4; ae_roundsp16q48sym	aep4, aeq1 }
    7e28:	ff94bd1a1f 	{ ae_lq32f.iu	aeq0, a10, 4; ae_negq56	aeq3, aeq3 }
    7e2d:	f9fbf2c91f 	{ ae_sp16f.l.iu	aep4, a9, 2; ae_roundsp16q48sym	aep3, aeq3 }
    7e32:	42b914        	ae_sp16f.l.iu	aep3, a9, 2

00007e35 <ifft_wo+0x1bd>:
    7e35:	f01d           	retw.n

00007e37 <ifft_wo+0x1bf>:
	...

00007e38 <airoha_divide>:
    7e38:	006136        	entry	a1, 48
    7e3b:	028d           	mov.n	a8, a2
    7e3d:	82cc           	bnez.n	a2, 7e49 <airoha_divide+0x11>
    7e3f:	0f0356        	bnez	a3, 7f33 <airoha_divide+0xfb>
    7e42:	e08331        	l32r	a3, 50 (7fffffff <_end+0x7fff185f>)
    7e45:	020c           	movi.n	a2, 0
    7e47:	f01d           	retw.n

00007e49 <airoha_divide+0x11>:
    7e49:	e185e1        	l32r	a14, 460 (80000001 <_end+0x7fff1861>)
    7e4c:	e081d1        	l32r	a13, 50 (7fffffff <_end+0x7fff185f>)
    7e4f:	c3cc           	bnez.n	a3, 7e5f <airoha_divide+0x27>
    7e51:	0e3d           	mov.n	a3, a14
    7e53:	020c           	movi.n	a2, 0
    7e55:	722280        	salt	a2, a2, a8

00007e58 <airoha_divide+0x20>:
    7e58:	933d20        	movnez	a3, a13, a2
    7e5b:	f23c           	movi.n	a2, 63

00007e5d <airoha_divide+0x25>:
    7e5d:	f01d           	retw.n

00007e5f <airoha_divide+0x27>:
    7e5f:	605130        	abs	a5, a3
    7e62:	602180        	abs	a2, a8
    7e65:	02ad           	mov.n	a10, a2
    7e67:	057d           	mov.n	a7, a5
    7e69:	0072d6        	bgez	a2, 7e74 <airoha_divide+0x3c>
    7e6c:	41a120        	srli	a10, a2, 1
    7e6f:	120c           	movi.n	a2, 1
    7e71:	000046        	j	7e76 <airoha_divide+0x3e>

00007e74 <airoha_divide+0x3c>:
    7e74:	020c           	movi.n	a2, 0

00007e76 <airoha_divide+0x3e>:
    7e76:	40ea40        	nsa	a4, a10
    7e79:	401400        	ssl	a4
    7e7c:	a1aa00        	sll	a10, a10
    7e7f:	0045d6        	bgez	a5, 7e87 <airoha_divide+0x4f>
    7e82:	417150        	srli	a7, a5, 1
    7e85:	220b           	addi.n	a2, a2, -1

00007e87 <airoha_divide+0x4f>:
    7e87:	40e7f0        	nsa	a15, a7
    7e8a:	ff1b           	addi.n	a15, a15, 1
    7e8c:	401f00        	ssl	a15
    7e8f:	c04f40        	sub	a4, a15, a4
    7e92:	224a           	add.n	a2, a2, a4
    7e94:	a17700        	sll	a7, a7
    7e97:	97cd           	ae_zext16	a12, a7
    7e99:	f5f070        	extui	a15, a7, 16, 16
    7e9c:	c2baf0        	quou	a11, a10, a15
    7e9f:	0b9d           	mov.n	a9, a11
    7ea1:	824fb0        	mull	a4, a15, a11
    7ea4:	82cbc0        	mull	a12, a11, a12
    7ea7:	c04a40        	sub	a4, a10, a4
    7eaa:	114400        	slli	a4, a4, 16
    7ead:	046d           	mov.n	a6, a4
    7eaf:	10b4c7        	bgeu	a4, a12, 7ec3 <airoha_divide+0x8b>
    7eb2:	647a           	add.n	a6, a4, a7

00007eb4 <airoha_divide+0x7c>:
    7eb4:	9b0b           	addi.n	a9, a11, -1
    7eb6:	093677        	bltu	a6, a7, 7ec3 <airoha_divide+0x8b>
    7eb9:	06b6c7        	bgeu	a6, a12, 7ec3 <airoha_divide+0x8b>
    7ebc:	09bd           	mov.n	a11, a9
    7ebe:	667a           	add.n	a6, a6, a7
    7ec0:	fffc06        	j	7eb4 <airoha_divide+0x7c>

00007ec3 <airoha_divide+0x8b>:
    7ec3:	f5b090        	extui	a11, a9, 16, 16
    7ec6:	c066c0        	sub	a6, a6, a12
    7ec9:	c266f0        	quou	a6, a6, a15
    7ecc:	119900        	slli	a9, a9, 16
    7ecf:	696a           	add.n	a6, a9, a6
    7ed1:	629690        	saltu	a9, a6, a9
    7ed4:	99ba           	add.n	a9, a9, a11
    7ed6:	0b0c           	movi.n	a11, 0
    7ed8:	143a77        	bltu	a10, a7, 7ef0 <airoha_divide+0xb8>
    7edb:	221b           	addi.n	a2, a2, 1
    7edd:	a62b           	addi.n	a10, a6, 2
    7edf:	404200        	ssai	2
    7ee2:	627a60        	saltu	a7, a10, a6
    7ee5:	779a           	add.n	a7, a7, a9
    7ee7:	8167a0        	src	a6, a7, a10
    7eea:	417270        	srli	a7, a7, 2
    7eed:	0003c6        	j	7f00 <airoha_divide+0xc8>

00007ef0 <airoha_divide+0xb8>:
    7ef0:	404100        	ssai	1
    7ef3:	a61b           	addi.n	a10, a6, 1
    7ef5:	627a60        	saltu	a7, a10, a6
    7ef8:	779a           	add.n	a7, a7, a9
    7efa:	8167a0        	src	a6, a7, a10
    7efd:	417170        	srli	a7, a7, 1

00007f00 <airoha_divide+0xc8>:
    7f00:	e054a1        	l32r	a10, 50 (7fffffff <_end+0x7fff185f>)
    7f03:	090c           	movi.n	a9, 0
    7f05:	0637b7        	bltu	a7, a11, 7f0f <airoha_divide+0xd7>
    7f08:	17cc           	bnez.n	a7, 7f0d <airoha_divide+0xd5>
    7f0a:	01ba67        	bgeu	a10, a6, 7f0f <airoha_divide+0xd7>

00007f0d <airoha_divide+0xd5>:
    7f0d:	190c           	movi.n	a9, 1

00007f0f <airoha_divide+0xd7>:
    7f0f:	305830        	xor	a5, a8, a3
    7f12:	315f50        	srai	a5, a5, 31
    7f15:	398c           	beqz.n	a9, 7f1c <airoha_divide+0xe4>
    7f17:	221b           	addi.n	a2, a2, 1
    7f19:	e13161        	l32r	a6, 3e0 (40000000 <_end+0x3fff1860>)

00007f1c <airoha_divide+0xe4>:
    7f1c:	c0c2c2        	addi	a12, a2, -64
    7f1f:	60f060        	neg	a15, a6
    7f22:	063d           	mov.n	a3, a6
    7f24:	933f50        	movnez	a3, a15, a5
    7f27:	f32c56        	bnez	a12, 7e5d <airoha_divide+0x25>
    7f2a:	0d3d           	mov.n	a3, a13
    7f2c:	052d           	mov.n	a2, a5
    7f2e:	0edd           	mov.n	a13, a14
    7f30:	ffc906        	j	7e58 <airoha_divide+0x20>

00007f33 <airoha_divide+0xfb>:
    7f33:	f12256        	bnez	a2, 7e49 <airoha_divide+0x11>
    7f36:	030c           	movi.n	a3, 0
    7f38:	c1af22        	movi	a2, -63
    7f3b:	f01d           	retw.n

00007f3d <airoha_divide+0x105>:
    7f3d:	000000                                        ...

00007f40 <airoha_divide_limit_1>:
    7f40:	006136        	entry	a1, 48
    7f43:	e0df81        	l32r	a8, 2c0 (7e38 <airoha_divide>)
    7f46:	03bd           	mov.n	a11, a3
    7f48:	02ad           	mov.n	a10, a2
    7f4a:	0008e0        	callx8	a8
    7f4d:	368b34        	ae_cvtq48a32s	aeq2, a11
    7f50:	fc24feaa4f 	{ ae_slaasq56s	aeq1, aeq2, a10; nop }
    7f55:	061934        	ae_roundsq32asym	aeq0, aeq1
    7f58:	620104        	ae_sq32f.i	aeq0, a1, 0
    7f5b:	0128           	l32i.n	a2, a1, 0
    7f5d:	f01d           	retw.n

00007f5f <airoha_divide_limit_1+0x1f>:
	...

00007f60 <xtensa_fft4_32b>:
    7f60:	006136        	entry	a1, 48
    7f63:	60c274        	ae_lq32f.i	aeq3, a2, 28
    7f66:	608234        	ae_lq32f.i	aeq2, a2, 12
    7f69:	600214        	ae_lq32f.i	aeq0, a2, 4
    7f6c:	f8e23d225f 	{ ae_lq32f.i	aeq1, a2, 20; ae_addq56	aeq0, aeq0, aeq2 }
    7f71:	f9ee3d621f 	{ ae_lq32f.i	aeq3, a2, 4; ae_addq56	aeq1, aeq1, aeq3 }
    7f76:	fa663a310f 	{ ae_sq56s.i	aeq3, a1, 0; ae_addq56	aeq2, aeq0, aeq1 }
    7f7b:	f826fd226f 	{ ae_lq32f.i	aeq1, a2, 24; ae_subq56	aeq0, aeq0, aeq1 }
    7f80:	622214        	ae_sq32f.i	aeq2, a2, 4
    7f83:	60c254        	ae_lq32f.i	aeq3, a2, 20
    7f86:	620254        	ae_sq32f.i	aeq0, a2, 20
    7f89:	608244        	ae_lq32f.i	aeq2, a2, 16
    7f8c:	600224        	ae_lq32f.i	aeq0, a2, 8
    7f8f:	f9ea3d420f 	{ ae_lq32f.i	aeq2, a2, 0; ae_addq56	aeq1, aeq1, aeq2 }
    7f94:	01a8c4        	ae_addq56	aeq2, aeq2, aeq0
    7f97:	0129c4        	ae_addq56	aeq0, aeq2, aeq1
    7f9a:	fa36fd220f 	{ ae_lq32f.i	aeq1, a2, 0; ae_subq56	aeq2, aeq2, aeq1 }
    7f9f:	620204        	ae_sq32f.i	aeq0, a2, 0
    7fa2:	600274        	ae_lq32f.i	aeq0, a2, 28
    7fa5:	fb3afd022f 	{ ae_lq32f.i	aeq0, a2, 8; ae_subq56	aeq3, aeq3, aeq0 }
    7faa:	f92afd024f 	{ ae_lq32f.i	aeq0, a2, 16; ae_subq56	aeq1, aeq1, aeq0 }
    7faf:	faaef9a24f 	{ ae_sq32f.i	aeq2, a2, 16; ae_subq56	aeq2, aeq1, aeq3 }
    7fb4:	f9ee3d626f 	{ ae_lq32f.i	aeq3, a2, 24; ae_addq56	aeq1, aeq1, aeq3 }
    7fb9:	fb3afd023f 	{ ae_lq32f.i	aeq0, a2, 12; ae_subq56	aeq3, aeq3, aeq0 }
    7fbe:	621224        	ae_sq32f.i	aeq1, a2, 8
    7fc1:	614104        	ae_lq56.i	aeq1, a1, 0
    7fc4:	015cc4        	ae_subq56	aeq1, aeq1, aeq0
    7fc7:	f8ee39a26f 	{ ae_sq32f.i	aeq2, a2, 24; ae_addq56	aeq0, aeq1, aeq3 }
    7fcc:	f9aef9823f 	{ ae_sq32f.i	aeq0, a2, 12; ae_subq56	aeq1, aeq1, aeq3 }
    7fd1:	621274        	ae_sq32f.i	aeq1, a2, 28
    7fd4:	f01d           	retw.n

00007fd6 <xtensa_fft4_32b+0x76>:
	...

00007fd8 <xtensa_fft8_32b>:
    7fd8:	010136        	entry	a1, 128
    7fdb:	604244        	ae_lq32f.i	aeq1, a2, 16
    7fde:	600264        	ae_lq32f.i	aeq0, a2, 24
    7fe1:	e120f1        	l32r	a15, 464 (5a82 <subband_aec_mid_channel+0x1b2>)
    7fe4:	fa26c781ce 	{ addi	a12, a1, 120; ae_subq56	aeq2, aeq0, aeq1 }
    7fe9:	632154        	ae_sq56s.i	aeq2, a1, 40
    7fec:	f8663d220f 	{ ae_lq32f.i	aeq1, a2, 0; ae_addq56	aeq0, aeq0, aeq1 }
    7ff1:	608224        	ae_lq32f.i	aeq2, a2, 8
    7ff4:	fbaafa0ccf 	{ ae_sq56s.i	aeq0, a12, -32; ae_subq56	aeq3, aeq1, aeq2 }
    7ff9:	f9ea3d425f 	{ ae_lq32f.i	aeq2, a2, 20; ae_addq56	aeq1, aeq1, aeq2 }
    7ffe:	633164        	ae_sq56s.i	aeq3, a1, 48
    8001:	631c94        	ae_sq56s.i	aeq1, a12, -56
    8004:	60c274        	ae_lq32f.i	aeq3, a2, 28
    8007:	f8b6fd221f 	{ ae_lq32f.i	aeq1, a2, 4; ae_subq56	aeq0, aeq2, aeq3 }
    800c:	faf63d623f 	{ ae_lq32f.i	aeq3, a2, 12; ae_addq56	aeq2, aeq2, aeq3 }
    8011:	f8aefa017f 	{ ae_sq56s.i	aeq0, a1, 56; ae_subq56	aeq0, aeq1, aeq3 }
    8016:	f9ee0202de 	{ addi	a13, a2, 32; ae_addq56	aeq1, aeq1, aeq3 }
    801b:	fbaafa0caf 	{ ae_sq56s.i	aeq0, a12, -48; ae_subq56	aeq3, aeq1, aeq2 }
    8020:	623254        	ae_sq32f.i	aeq3, a2, 20
    8023:	f9ea3dcc9f 	{ ae_lq56.i	aeq2, a12, -56; ae_addq56	aeq1, aeq1, aeq2 }
    8028:	61ccc4        	ae_lq56.i	aeq3, a12, -32
    802b:	f8f639921f 	{ ae_sq32f.i	aeq1, a2, 4; ae_addq56	aeq0, aeq2, aeq3 }
    8030:	620204        	ae_sq32f.i	aeq0, a2, 0
    8033:	fab6fde16f 	{ ae_lq56.i	aeq3, a1, 48; ae_subq56	aeq2, aeq2, aeq3 }
    8038:	610174        	ae_lq56.i	aeq0, a1, 56
    803b:	f93af9a24f 	{ ae_sq32f.i	aeq2, a2, 16; ae_subq56	aeq1, aeq3, aeq0 }
    8040:	fb7a3d8caf 	{ ae_lq56.i	aeq0, a12, -48; ae_addq56	aeq3, aeq3, aeq0 }
    8045:	621264        	ae_sq32f.i	aeq1, a2, 24
    8048:	614154        	ae_lq56.i	aeq1, a1, 40
    804b:	fa6639b22f 	{ ae_sq32f.i	aeq3, a2, 8; ae_addq56	aeq2, aeq0, aeq1 }
    8050:	f826f9a23f 	{ ae_sq32f.i	aeq2, a2, 12; ae_subq56	aeq0, aeq0, aeq1 }
    8055:	620274        	ae_sq32f.i	aeq0, a2, 28
    8058:	60cd74        	ae_lq32f.i	aeq3, a13, 28
    805b:	604d54        	ae_lq32f.i	aeq1, a13, 20
    805e:	faee3d0d3f 	{ ae_lq32f.i	aeq0, a13, 12; ae_addq56	aeq2, aeq1, aeq3 }
    8063:	622d54        	ae_sq32f.i	aeq2, a13, 20
    8066:	f9aefd4d1f 	{ ae_lq32f.i	aeq2, a13, 4; ae_subq56	aeq1, aeq1, aeq3 }
    806b:	fb72399d7f 	{ ae_sq32f.i	aeq1, a13, 28; ae_addq56	aeq3, aeq2, aeq0 }
    8070:	623d14        	ae_sq32f.i	aeq3, a13, 4
    8073:	fa32fd0d2f 	{ ae_lq32f.i	aeq0, a13, 8; ae_subq56	aeq2, aeq2, aeq0 }
    8078:	60cd04        	ae_lq32f.i	aeq3, a13, 0
    807b:	622d34        	ae_sq32f.i	aeq2, a13, 12
    807e:	f93afd4d4f 	{ ae_lq32f.i	aeq2, a13, 16; ae_subq56	aeq1, aeq3, aeq0 }
    8083:	621d24        	ae_sq32f.i	aeq1, a13, 8
    8086:	fb7a3d0d6f 	{ ae_lq32f.i	aeq0, a13, 24; ae_addq56	aeq3, aeq3, aeq0 }
    808b:	f932f9bd0f 	{ ae_sq32f.i	aeq3, a13, 0; ae_subq56	aeq1, aeq2, aeq0 }
    8090:	621d64        	ae_sq32f.i	aeq1, a13, 24
    8093:	fa723d2d0f 	{ ae_lq32f.i	aeq1, a13, 0; ae_addq56	aeq2, aeq2, aeq0 }
    8098:	622d44        	ae_sq32f.i	aeq2, a13, 16
    809b:	60cd44        	ae_lq32f.i	aeq3, a13, 16
    809e:	011bc4        	ae_addq56	aeq0, aeq1, aeq3
    80a1:	fb3efd420f 	{ ae_lq32f.i	aeq2, a2, 0; ae_subq56	aeq3, aeq3, aeq1 }
    80a6:	633134        	ae_sq56s.i	aeq3, a1, 24
    80a9:	f932fd621f 	{ ae_lq32f.i	aeq3, a2, 4; ae_subq56	aeq1, aeq2, aeq0 }
    80ae:	fa72399d0f 	{ ae_sq32f.i	aeq1, a13, 0; ae_addq56	aeq2, aeq2, aeq0 }
    80b3:	632144        	ae_sq56s.i	aeq2, a1, 32
    80b6:	604d54        	ae_lq32f.i	aeq1, a13, 20
    80b9:	608d14        	ae_lq32f.i	aeq2, a13, 4
    80bc:	0129c4        	ae_addq56	aeq0, aeq2, aeq1
    80bf:	01adc4        	ae_subq56	aeq2, aeq2, aeq1
    80c2:	017cc4        	ae_subq56	aeq1, aeq3, aeq0
    80c5:	fb7a3d814f 	{ ae_lq56.i	aeq0, a1, 32; ae_addq56	aeq3, aeq3, aeq0 }
    80ca:	621d14        	ae_sq32f.i	aeq1, a13, 4
    80cd:	623214        	ae_sq32f.i	aeq3, a2, 4
    80d0:	604244        	ae_lq32f.i	aeq1, a2, 16
    80d3:	f8ea39820f 	{ ae_sq32f.i	aeq0, a2, 0; ae_addq56	aeq0, aeq1, aeq2 }
    80d8:	f9aafd625f 	{ ae_lq32f.i	aeq3, a2, 20; ae_subq56	aeq1, aeq1, aeq2 }
    80dd:	621d44        	ae_sq32f.i	aeq1, a13, 16
    80e0:	614134        	ae_lq56.i	aeq1, a1, 24
    80e3:	01bdc4        	ae_subq56	aeq2, aeq3, aeq1
    80e6:	fb7e39ad5f 	{ ae_sq32f.i	aeq2, a13, 20; ae_addq56	aeq3, aeq3, aeq1 }
    80eb:	623254        	ae_sq32f.i	aeq3, a2, 20
    80ee:	620244        	ae_sq32f.i	aeq0, a2, 16
    80f1:	600d64        	ae_lq32f.i	aeq0, a13, 24
    80f4:	604d74        	ae_lq32f.i	aeq1, a13, 28
    80f7:	0198c4        	ae_addq56	aeq2, aeq1, aeq0
    80fa:	632cb4        	ae_sq56s.i	aeq2, a12, -40
    80fd:	f826fd2d2f 	{ ae_lq32f.i	aeq1, a13, 8; ae_subq56	aeq0, aeq0, aeq1 }
    8102:	608d34        	ae_lq32f.i	aeq2, a13, 12
    8105:	01edc4        	ae_subq56	aeq3, aeq2, aeq1
    8108:	f9ea18afff 	{ ae_cvtp24a16x2.ll	aep2, a15, a15; ae_addq56	aeq1, aeq1, aeq2 }
    810d:	c1a244        	ae_mulzaafq32sp16s.lh	aeq2, aeq1, aep2, aeq0, aep2
    8110:	3c48ba312f 	{ ae_sq56s.i	aeq3, a1, 16; ae_mulzasfq32sp16s.lh	aeq0, aeq0, aep2, aeq1, aep2 }
    8115:	604224        	ae_lq32f.i	aeq1, a2, 8
    8118:	fbea3a010f 	{ ae_sq56s.i	aeq0, a1, 0; ae_addq56	aeq3, aeq1, aeq2 }
    811d:	f9aafd423f 	{ ae_lq32f.i	aeq2, a2, 12; ae_subq56	aeq1, aeq1, aeq2 }
    8122:	621d24        	ae_sq32f.i	aeq1, a13, 8
    8125:	610cb4        	ae_lq56.i	aeq0, a12, -40
    8128:	614124        	ae_lq56.i	aeq1, a1, 16
    812b:	0d497a311f 	{ ae_sq56s.i	aeq3, a1, 8; ae_mulzaafq32sp16s.lh	aeq3, aeq1, aep2, aeq0, aep2 }
    8130:	c52a44        	ae_mulzasfq32sp16s.lh	aeq1, aeq1, aep2, aeq0, aep2
    8133:	012fc4        	ae_subq56	aeq0, aeq2, aeq3
    8136:	faf63de11f 	{ ae_lq56.i	aeq3, a1, 8; ae_addq56	aeq2, aeq2, aeq3 }
    813b:	620d34        	ae_sq32f.i	aeq0, a13, 12
    813e:	622234        	ae_sq32f.i	aeq2, a2, 12
    8141:	600264        	ae_lq32f.i	aeq0, a2, 24
    8144:	fb6639b22f 	{ ae_sq32f.i	aeq3, a2, 8; ae_addq56	aeq3, aeq0, aeq1 }
    8149:	f826fd427f 	{ ae_lq32f.i	aeq2, a2, 28; ae_subq56	aeq0, aeq0, aeq1 }
    814e:	620d64        	ae_sq32f.i	aeq0, a13, 24
    8151:	610104        	ae_lq56.i	aeq0, a1, 0
    8154:	016cc4        	ae_subq56	aeq1, aeq2, aeq0
    8157:	621d74        	ae_sq32f.i	aeq1, a13, 28
    815a:	fa7239b26f 	{ ae_sq32f.i	aeq3, a2, 24; ae_addq56	aeq2, aeq2, aeq0 }
    815f:	622274        	ae_sq32f.i	aeq2, a2, 28
    8162:	f01d           	retw.n

00008164 <F_get_oft_32b>:
    8164:	004136        	entry	a1, 32
    8167:	144226        	beqi	a2, 4, 817f <F_get_oft_32b+0x1b>
    816a:	158226        	beqi	a2, 8, 8183 <F_get_oft_32b+0x1f>
    816d:	16b226        	beqi	a2, 16, 8187 <F_get_oft_32b+0x23>
    8170:	17c226        	beqi	a2, 32, 818b <F_get_oft_32b+0x27>
    8173:	c0c242        	addi	a4, a2, -64
    8176:	430c           	movi.n	a3, 4
    8178:	220c           	movi.n	a2, 2
    817a:	832340        	moveqz	a2, a3, a4
    817d:	f01d           	retw.n

0000817f <F_get_oft_32b+0x1b>:
    817f:	024c           	movi.n	a2, 64
    8181:	f01d           	retw.n

00008183 <F_get_oft_32b+0x1f>:
    8183:	022c           	movi.n	a2, 32
    8185:	f01d           	retw.n

00008187 <F_get_oft_32b+0x23>:
    8187:	021c           	movi.n	a2, 16
    8189:	f01d           	retw.n

0000818b <F_get_oft_32b+0x27>:
    818b:	820c           	movi.n	a2, 8
    818d:	f01d           	retw.n

0000818f <F_get_oft_32b+0x2b>:
	...

00008190 <xtensa_fft_pass_32b>:
    8190:	00a136        	entry	a1, 80
    8193:	83ad           	ae_sext16	a10, a3
    8195:	b09320        	addx8	a9, a3, a2
    8198:	600204        	ae_lq32f.i	aeq0, a2, 0
    819b:	904330        	addx2	a4, a3, a3
    819e:	1153c0        	slli	a5, a3, 4
    81a1:	606254        	ae_lq32f.x	aeq1, a2, a5
    81a4:	b04420        	addx8	a4, a4, a2
    81a7:	608404        	ae_lq32f.i	aeq2, a4, 0
    81aa:	f9ea10825f 	{ add	a8, a2, a5; ae_addq56	aeq1, aeq1, aeq2 }
    81af:	fa663d681f 	{ ae_lq32f.i	aeq3, a8, 4; ae_addq56	aeq2, aeq0, aeq1 }
    81b4:	f826fa211f 	{ ae_sq56s.i	aeq2, a1, 8; ae_subq56	aeq0, aeq0, aeq1 }
    81b9:	630144        	ae_sq56s.i	aeq0, a1, 32
    81bc:	600414        	ae_lq32f.i	aeq0, a4, 4
    81bf:	fb7a3d421f 	{ ae_lq32f.i	aeq2, a2, 4; ae_addq56	aeq3, aeq3, aeq0 }
    81c4:	f9f60fc86e 	{ addi	a6, a8, -4; ae_addq56	aeq1, aeq2, aeq3 }
    81c9:	fab6fd681f 	{ ae_lq32f.i	aeq3, a8, 4; ae_subq56	aeq2, aeq2, aeq3 }
    81ce:	631124        	ae_sq56s.i	aeq1, a1, 16
    81d1:	e0a581        	l32r	a8, 468 (8164 <F_get_oft_32b>)
    81d4:	fb3afb925f 	{ ae_lq32f.x	aeq0, a2, a5; ae_subq56	aeq3, aeq3, aeq0 }
    81d9:	614144        	ae_lq56.i	aeq1, a1, 32
    81dc:	fcc252        	addi	a5, a2, -4
    81df:	633134        	ae_sq56s.i	aeq3, a1, 24
    81e2:	ff4c7d240f 	{ ae_lq32f.i	aeq1, a4, 0; ae_roundsq32sym	aeq3, aeq1 }
    81e7:	f92af9f61f 	{ ae_sq32f.iu	aeq3, a6, 4; ae_subq56	aeq1, aeq1, aeq0 }
    81ec:	fc547de11f 	{ ae_lq56.i	aeq3, a1, 8; ae_roundsq32sym	aeq0, aeq2 }
    81f1:	624614        	ae_sq32f.iu	aeq0, a6, 4
    81f4:	fe5c7d812f 	{ ae_lq56.i	aeq0, a1, 16; ae_roundsq32sym	aeq2, aeq3 }
    81f9:	ff4479e51f 	{ ae_sq32f.iu	aeq2, a5, 4; ae_roundsq32sym	aeq3, aeq0 }
    81fe:	627514        	ae_sq32f.iu	aeq3, a5, 4
    8201:	600914        	ae_lq32f.i	aeq0, a9, 4
    8204:	0189c4        	ae_addq56	aeq2, aeq0, aeq1
    8207:	632104        	ae_sq56s.i	aeq2, a1, 0
    820a:	f826fda13f 	{ ae_lq56.i	aeq1, a1, 24; ae_subq56	aeq0, aeq0, aeq1 }
    820f:	608904        	ae_lq32f.i	aeq2, a9, 0
    8212:	01edc4        	ae_subq56	aeq3, aeq2, aeq1
    8215:	fa760fc92e 	{ addi	a2, a9, -4; ae_addq56	aeq2, aeq2, aeq1 }
    821a:	fd5c4fc44e 	{ addi	a4, a4, -4; ae_roundsq32sym	aeq1, aeq3 }
    821f:	ff447d810f 	{ ae_lq56.i	aeq0, a1, 0; ae_roundsq32sym	aeq3, aeq0 }
    8224:	625414        	ae_sq32f.iu	aeq1, a4, 4
    8227:	fd5479f41f 	{ ae_sq32f.iu	aeq3, a4, 4; ae_roundsq32sym	aeq1, aeq2 }
    822c:	ff4479d21f 	{ ae_sq32f.iu	aeq1, a2, 4; ae_roundsq32sym	aeq3, aeq0 }
    8231:	627214        	ae_sq32f.iu	aeq3, a2, 4
    8234:	0008e0        	callx8	a8
    8237:	21c130        	srai	a12, a3, 1
    823a:	e08c91        	l32r	a9, 46c (a61c <T_aec_min_gain_42+0xbc>)
    823d:	00a082        	movi	a8, 0
    8240:	11baf0        	slli	a11, a10, 1
    8243:	809b90        	add	a9, a11, a9
    8246:	458984        	ae_lp16x2f.xu	aep0, a9, a8
    8249:	88ac76        	loopgtz	a12, 82d5 <xtensa_fft_pass_32b+0x145>
    824c:	60c424        	ae_lq32f.i	aeq3, a4, 8
    824f:	600414        	ae_lq32f.i	aeq0, a4, 4
    8252:	6002fd462f 	{ ae_lq32f.i	aeq2, a6, 8; ae_mulzasq32sp16u.lh	aeq1, aeq0, aep0, aeq3, aep0 }
    8257:	33017d061f 	{ ae_lq32f.i	aeq0, a6, 4; ae_mulzaaq32sp16u.lh	aeq3, aeq3, aep0, aeq0, aep0 }
    825c:	62007a110f 	{ ae_sq56s.i	aeq1, a1, 0; ae_mulzasq32sp16u.lh	aeq1, aeq2, aep0, aeq0, aep0 }
    8261:	c20024        	ae_mulzaaq32sp16u.lh	aeq0, aeq0, aep0, aeq2, aep0
    8264:	019bc4        	ae_addq56	aeq2, aeq1, aeq3
    8267:	015fc4        	ae_subq56	aeq1, aeq1, aeq3
    826a:	631134        	ae_sq56s.i	aeq1, a1, 24
    826d:	604524        	ae_lq32f.i	aeq1, a5, 8
    8270:	01dac4        	ae_addq56	aeq3, aeq1, aeq2
    8273:	633124        	ae_sq56s.i	aeq3, a1, 16
    8276:	f9aafde10f 	{ ae_lq56.i	aeq3, a1, 0; ae_subq56	aeq1, aeq1, aeq2 }
    827b:	018bc4        	ae_addq56	aeq2, aeq0, aeq3
    827e:	fb3afd051f 	{ ae_lq32f.i	aeq0, a5, 4; ae_subq56	aeq3, aeq3, aeq0 }
    8283:	fbe23a311f 	{ ae_sq56s.i	aeq3, a1, 8; ae_addq56	aeq3, aeq0, aeq2 }
    8288:	010ec4        	ae_subq56	aeq0, aeq0, aeq2
    828b:	fe445b89bf 	{ ae_lp16x2f.xu	aep0, a9, a11; ae_roundsq32sym	aeq2, aeq0 }
    8290:	fc4c7da12f 	{ ae_lq56.i	aeq1, a1, 16; ae_roundsq32sym	aeq0, aeq1 }
    8295:	626614        	ae_sq32f.iu	aeq2, a6, 4
    8298:	fe5c79c61f 	{ ae_sq32f.iu	aeq0, a6, 4; ae_roundsq32sym	aeq2, aeq3 }
    829d:	626514        	ae_sq32f.iu	aeq2, a5, 4
    82a0:	fc4c7dc11f 	{ ae_lq56.i	aeq2, a1, 8; ae_roundsq32sym	aeq0, aeq1 }
    82a5:	624514        	ae_sq32f.iu	aeq0, a5, 4
    82a8:	604224        	ae_lq32f.i	aeq1, a2, 8
    82ab:	fbaafd021f 	{ ae_lq32f.i	aeq0, a2, 4; ae_subq56	aeq3, aeq1, aeq2 }
    82b0:	f9ea3dc13f 	{ ae_lq56.i	aeq2, a1, 24; ae_addq56	aeq1, aeq1, aeq2 }
    82b5:	fba2fa314f 	{ ae_sq56s.i	aeq3, a1, 32; ae_subq56	aeq3, aeq0, aeq2 }
    82ba:	010ac4        	ae_addq56	aeq0, aeq0, aeq2
    82bd:	068834        	ae_roundsq32sym	aeq2, aeq0
    82c0:	fc4c7da14f 	{ ae_lq56.i	aeq1, a1, 32; ae_roundsq32sym	aeq0, aeq1 }
    82c5:	626214        	ae_sq32f.iu	aeq2, a2, 4
    82c8:	fe5c79c21f 	{ ae_sq32f.iu	aeq0, a2, 4; ae_roundsq32sym	aeq2, aeq3 }
    82cd:	fc4c79e41f 	{ ae_sq32f.iu	aeq2, a4, 4; ae_roundsq32sym	aeq0, aeq1 }
    82d2:	624414        	ae_sq32f.iu	aeq0, a4, 4

000082d5 <xtensa_fft_pass_32b+0x145>:
    82d5:	60b0b0        	neg	a11, a11
    82d8:	dc0b           	addi.n	a13, a12, -1
    82da:	11eae0        	slli	a14, a10, 2
    82dd:	60e0e0        	neg	a14, a14
    82e0:	4589e4        	ae_lp16x2f.xu	aep0, a9, a14
    82e3:	f03d           	nop.n
    82e5:	88ad76        	loopgtz	a13, 8371 <xtensa_fft_pass_32b+0x1e1>
    82e8:	608414        	ae_lq32f.i	aeq2, a4, 4
    82eb:	60c424        	ae_lq32f.i	aeq3, a4, 8
    82ee:	92033d261f 	{ ae_lq32f.i	aeq1, a6, 4; ae_mulzsaq32sp16u.lh	aeq0, aeq3, aep0, aeq2, aep0 }

000082f3 <xtensa_fft_pass_32b+0x163>:
    82f3:	3302bd662f 	{ ae_lq32f.i	aeq3, a6, 8; ae_mulzaaq32sp16u.lh	aeq2, aeq2, aep0, aeq3, aep0 }
    82f8:	9003ba014f 	{ ae_sq56s.i	aeq0, a1, 32; ae_mulzsaq32sp16u.lh	aeq0, aeq1, aep0, aeq3, aep0 }
    82fd:	c288d4        	ae_mulzaaq32sp16u.lh	aeq3, aeq3, aep0, aeq1, aep0
    8300:	014ac4        	ae_addq56	aeq1, aeq0, aeq2
    8303:	010ec4        	ae_subq56	aeq0, aeq0, aeq2
    8306:	630114        	ae_sq56s.i	aeq0, a1, 8
    8309:	600524        	ae_lq32f.i	aeq0, a5, 8
    830c:	0189c4        	ae_addq56	aeq2, aeq0, aeq1
    830f:	632124        	ae_sq56s.i	aeq2, a1, 16
    8312:	f826fdc14f 	{ ae_lq56.i	aeq2, a1, 32; ae_subq56	aeq0, aeq0, aeq1 }
    8317:	017ac4        	ae_addq56	aeq1, aeq3, aeq2
    831a:	fab6fd651f 	{ ae_lq32f.i	aeq3, a5, 4; ae_subq56	aeq2, aeq2, aeq3 }
    831f:	fa7e3a213f 	{ ae_sq56s.i	aeq2, a1, 24; ae_addq56	aeq2, aeq3, aeq1 }
    8324:	01fdc4        	ae_subq56	aeq3, aeq3, aeq1
    8327:	fd5c5b89bf 	{ ae_lp16x2f.xu	aep0, a9, a11; ae_roundsq32sym	aeq1, aeq3 }
    832c:	ff447d812f 	{ ae_lq56.i	aeq0, a1, 16; ae_roundsq32sym	aeq3, aeq0 }
    8331:	625614        	ae_sq32f.iu	aeq1, a6, 4
    8334:	fd5479f61f 	{ ae_sq32f.iu	aeq3, a6, 4; ae_roundsq32sym	aeq1, aeq2 }
    8339:	625514        	ae_sq32f.iu	aeq1, a5, 4
    833c:	ff447da13f 	{ ae_lq56.i	aeq1, a1, 24; ae_roundsq32sym	aeq3, aeq0 }
    8341:	627514        	ae_sq32f.iu	aeq3, a5, 4
    8344:	600224        	ae_lq32f.i	aeq0, a2, 8
    8347:	fa26fd621f 	{ ae_lq32f.i	aeq3, a2, 4; ae_subq56	aeq2, aeq0, aeq1 }
    834c:	f8663da11f 	{ ae_lq56.i	aeq1, a1, 8; ae_addq56	aeq0, aeq0, aeq1 }
    8351:	fa3efa210f 	{ ae_sq56s.i	aeq2, a1, 0; ae_subq56	aeq2, aeq3, aeq1 }
    8356:	01f9c4        	ae_addq56	aeq3, aeq3, aeq1
    8359:	067834        	ae_roundsq32sym	aeq1, aeq3
    835c:	ff447d810f 	{ ae_lq56.i	aeq0, a1, 0; ae_roundsq32sym	aeq3, aeq0 }
    8361:	625214        	ae_sq32f.iu	aeq1, a2, 4
    8364:	fd5479f21f 	{ ae_sq32f.iu	aeq3, a2, 4; ae_roundsq32sym	aeq1, aeq2 }
    8369:	ff4479d41f 	{ ae_sq32f.iu	aeq1, a4, 4; ae_roundsq32sym	aeq3, aeq0 }
    836e:	627414        	ae_sq32f.iu	aeq3, a4, 4

00008371 <xtensa_fft_pass_32b+0x1e1>:
    8371:	f01d           	retw.n

00008373 <xtensa_fft_pass_32b+0x1e3>:
	...

00008374 <xtensa_fft16_32b>:
    8374:	004136        	entry	a1, 32
    8377:	e03e81        	l32r	a8, 470 (7fd8 <xtensa_fft8_32b>)
    837a:	02ad           	mov.n	a10, a2
    837c:	0008e0        	callx8	a8
    837f:	e03d81        	l32r	a8, 474 (7f60 <xtensa_fft4_32b>)
    8382:	40c2a2        	addi	a10, a2, 64
    8385:	0008e0        	callx8	a8
    8388:	e03b81        	l32r	a8, 474 (7f60 <xtensa_fft4_32b>)
    838b:	60c2a2        	addi	a10, a2, 96
    838e:	0008e0        	callx8	a8
    8391:	e03981        	l32r	a8, 478 (8190 <xtensa_fft_pass_32b>)
    8394:	02ad           	mov.n	a10, a2
    8396:	4b0c           	movi.n	a11, 4
    8398:	0008e0        	callx8	a8
    839b:	f01d           	retw.n

0000839d <xtensa_fft16_32b+0x29>:
    839d:	000000                                        ...

000083a0 <xtensa_fft32_32b>:
    83a0:	004136        	entry	a1, 32
    83a3:	e03681        	l32r	a8, 47c (8374 <xtensa_fft16_32b>)
    83a6:	02ad           	mov.n	a10, a2
    83a8:	0008e0        	callx8	a8
    83ab:	e03181        	l32r	a8, 470 (7fd8 <xtensa_fft8_32b>)
    83ae:	01d2a2        	addmi	a10, a2, 0x100
    83b1:	80caa2        	addi	a10, a10, -128
    83b4:	0008e0        	callx8	a8
    83b7:	e02e81        	l32r	a8, 470 (7fd8 <xtensa_fft8_32b>)
    83ba:	01d2a2        	addmi	a10, a2, 0x100
    83bd:	c0caa2        	addi	a10, a10, -64
    83c0:	0008e0        	callx8	a8
    83c3:	e02d81        	l32r	a8, 478 (8190 <xtensa_fft_pass_32b>)
    83c6:	02ad           	mov.n	a10, a2
    83c8:	8b0c           	movi.n	a11, 8
    83ca:	0008e0        	callx8	a8
    83cd:	f01d           	retw.n

000083cf <xtensa_fft32_32b+0x2f>:
	...

000083d0 <xtensa_fft64_32b>:
    83d0:	004136        	entry	a1, 32
    83d3:	e02b81        	l32r	a8, 480 (83a0 <xtensa_fft32_32b>)
    83d6:	02ad           	mov.n	a10, a2
    83d8:	0008e0        	callx8	a8
    83db:	e02881        	l32r	a8, 47c (8374 <xtensa_fft16_32b>)
    83de:	01d2a2        	addmi	a10, a2, 0x100
    83e1:	0008e0        	callx8	a8
    83e4:	e02681        	l32r	a8, 47c (8374 <xtensa_fft16_32b>)
    83e7:	02d2a2        	addmi	a10, a2, 0x200
    83ea:	80caa2        	addi	a10, a10, -128
    83ed:	0008e0        	callx8	a8
    83f0:	e02281        	l32r	a8, 478 (8190 <xtensa_fft_pass_32b>)
    83f3:	02ad           	mov.n	a10, a2
    83f5:	0b1c           	movi.n	a11, 16
    83f7:	0008e0        	callx8	a8
    83fa:	f01d           	retw.n

000083fc <xtensa_fft128_32b>:
    83fc:	004136        	entry	a1, 32
    83ff:	e02181        	l32r	a8, 484 (83d0 <xtensa_fft64_32b>)
    8402:	02ad           	mov.n	a10, a2
    8404:	0008e0        	callx8	a8
    8407:	e01e81        	l32r	a8, 480 (83a0 <xtensa_fft32_32b>)
    840a:	02d2a2        	addmi	a10, a2, 0x200
    840d:	0008e0        	callx8	a8
    8410:	e01c81        	l32r	a8, 480 (83a0 <xtensa_fft32_32b>)
    8413:	03d2a2        	addmi	a10, a2, 0x300
    8416:	0008e0        	callx8	a8
    8419:	e01781        	l32r	a8, 478 (8190 <xtensa_fft_pass_32b>)
    841c:	02ad           	mov.n	a10, a2
    841e:	0b2c           	movi.n	a11, 32
    8420:	0008e0        	callx8	a8
    8423:	f01d           	retw.n

00008425 <xtensa_fft128_32b+0x29>:
    8425:	000000                                        ...

00008428 <xtensa_fft256_32b>:
    8428:	004136        	entry	a1, 32
    842b:	e01681        	l32r	a8, 484 (83d0 <xtensa_fft64_32b>)
    842e:	02ad           	mov.n	a10, a2
    8430:	0008e0        	callx8	a8
    8433:	e01381        	l32r	a8, 480 (83a0 <xtensa_fft32_32b>)
    8436:	02d2a2        	addmi	a10, a2, 0x200
    8439:	0008e0        	callx8	a8
    843c:	e01181        	l32r	a8, 480 (83a0 <xtensa_fft32_32b>)
    843f:	03d2a2        	addmi	a10, a2, 0x300
    8442:	0008e0        	callx8	a8
    8445:	e00c81        	l32r	a8, 478 (8190 <xtensa_fft_pass_32b>)
    8448:	02ad           	mov.n	a10, a2
    844a:	0b2c           	movi.n	a11, 32
    844c:	0008e0        	callx8	a8
    844f:	e00d81        	l32r	a8, 484 (83d0 <xtensa_fft64_32b>)
    8452:	04d2a2        	addmi	a10, a2, 0x400
    8455:	0008e0        	callx8	a8
    8458:	e00b81        	l32r	a8, 484 (83d0 <xtensa_fft64_32b>)
    845b:	06d2a2        	addmi	a10, a2, 0x600
    845e:	0008e0        	callx8	a8
    8461:	e00581        	l32r	a8, 478 (8190 <xtensa_fft_pass_32b>)
    8464:	02ad           	mov.n	a10, a2
    8466:	0b4c           	movi.n	a11, 64
    8468:	0008e0        	callx8	a8
    846b:	f01d           	retw.n

0000846d <xtensa_fft256_32b+0x45>:
    846d:	000000                                        ...

00008470 <xtensa_fft512_32b>:
    8470:	004136        	entry	a1, 32
    8473:	e00581        	l32r	a8, 488 (8428 <xtensa_fft256_32b>)
    8476:	02ad           	mov.n	a10, a2
    8478:	0008e0        	callx8	a8
    847b:	e00481        	l32r	a8, 48c (83fc <xtensa_fft128_32b>)
    847e:	08d2a2        	addmi	a10, a2, 0x800
    8481:	0008e0        	callx8	a8
    8484:	e00281        	l32r	a8, 48c (83fc <xtensa_fft128_32b>)
    8487:	0cd2a2        	addmi	a10, a2, 0xc00
    848a:	0008e0        	callx8	a8
    848d:	dffa81        	l32r	a8, 478 (8190 <xtensa_fft_pass_32b>)
    8490:	02ad           	mov.n	a10, a2
    8492:	80a0b2        	movi	a11, 128
    8495:	0008e0        	callx8	a8
    8498:	f01d           	retw.n

0000849a <xtensa_fft512_32b+0x2a>:
	...

0000849c <real_split>:
    849c:	00a136        	entry	a1, 80
    849f:	dff281        	l32r	a8, 468 (8164 <F_get_oft_32b>)
    84a2:	03c8           	l32i.n	a12, a3, 0
    84a4:	13d8           	l32i.n	a13, a3, 4
    84a6:	0e0c           	movi.n	a14, 0
    84a8:	219120        	srai	a9, a2, 1
    84ab:	5199           	s32i.n	a9, a1, 20
    84ad:	b07940        	addx8	a7, a9, a4
    84b0:	c05290        	sub	a5, a2, a9
    84b3:	14e9           	s32i.n	a14, a4, 4
    84b5:	b06530        	addx8	a6, a5, a3
    84b8:	16b8           	l32i.n	a11, a6, 4
    84ba:	ccda           	add.n	a12, a12, a13
    84bc:	1199d0        	slli	a9, a9, 3
    84bf:	4199           	s32i.n	a9, a1, 16
    84c1:	04c9           	s32i.n	a12, a4, 0
    84c3:	06a8           	l32i.n	a10, a6, 0
    84c5:	07a9           	s32i.n	a10, a7, 0
    84c7:	bbba           	add.n	a11, a11, a11
    84c9:	82ad           	ae_sext16	a10, a2
    84cb:	60b0b0        	neg	a11, a11
    84ce:	21b1b0        	srai	a11, a11, 1
    84d1:	17b9           	s32i.n	a11, a7, 4
    84d3:	0008e0        	callx8	a8
    84d6:	0acd           	mov.n	a12, a10
    84d8:	2179           	s32i.n	a7, a1, 8
    84da:	1169           	s32i.n	a6, a1, 4
    84dc:	0159           	s32i.n	a5, a1, 0
    84de:	3139           	s32i.n	a3, a1, 12
    84e0:	d48b           	addi.n	a13, a4, 8
    84e2:	b38b           	addi.n	a11, a3, 8
    84e4:	80a0f2        	movi	a15, 128
    84e7:	b0e230        	addx8	a14, a2, a3
    84ea:	fccee2        	addi	a14, a14, -4
    84ed:	022f27        	blt	a15, a2, 84f3 <real_split+0x57>
    84f0:	11caf0        	slli	a12, a10, 1

000084f3 <real_split+0x57>:
    84f3:	dfe761        	l32r	a6, 490 (a620 <ROOTS_512_Q16>)
    84f6:	fecca2        	addi	a10, a12, -2
    84f9:	2181a0        	srai	a8, a10, 1
    84fc:	a08860        	addx4	a8, a8, a6
    84ff:	440804        	ae_lp16x2f.i	aep0, a8, 0
    8502:	07eca6        	blti	a12, 128, 850d <real_split+0x71>
    8505:	1f0c           	movi.n	a15, 1
    8507:	60c0c0        	neg	a12, a12
    850a:	000046        	j	850f <real_split+0x73>

0000850d <real_split+0x71>:
    850d:	0f0c           	movi.n	a15, 0

0000850f <real_split+0x73>:
    850f:	f8cdd2        	addi	a13, a13, -8
    8512:	5b4b           	addi.n	a5, a11, 4
    8514:	604b04        	ae_lq32f.i	aeq1, a11, 0
    8517:	600b14        	ae_lq32f.i	aeq0, a11, 4
    851a:	130c           	movi.n	a3, 1
    851c:	7da072        	movi	a7, 125
    851f:	5198           	l32i.n	a9, a1, 20
    8521:	fcce42        	addi	a4, a14, -4
    8524:	ded581        	l32r	a8, 78 (8000 <xtensa_fft8_32b+0x28>)
    8527:	ee8b           	addi.n	a14, a14, 8
    8529:	448b           	addi.n	a4, a4, 8
    852b:	301884        	ae_cvtp24a16x2.ll	aep1, a8, a8
    852e:	990b           	addi.n	a9, a9, -1
    8530:	1fcc           	bnez.n	a15, 8535 <real_split+0x99>
    8532:	1a8084        	ae_selp24.lh	aep0, aep0, aep0
    8535:	5da976        	loopgtz	a9, 8596 <real_split+0xfa>
    8538:	630144        	ae_sq56s.i	aeq0, a1, 32
    853b:	91013d74ef 	{ ae_lq32f.iu	aeq3, a4, -8; ae_mulzsaq32sp16u.lh	aeq2, aeq1, aep0, aeq0, aep0 }
    8540:	182790aacf 	{ add	a10, a10, a12; ae_mulzaafq32sp16u.lh	aeq0, aeq1, aep1, aeq3, aep1 }
    8545:	2181a0        	srai	a8, a10, 1
    8548:	f8e23d5eef 	{ ae_lq32f.iu	aeq2, a14, -8; ae_addq56	aeq0, aeq0, aeq2 }
    854d:	32037a113f 	{ ae_sq56s.i	aeq1, a1, 24; ae_mulzaaq32sp16u.lh	aeq1, aeq3, aep0, aeq2, aep0 }
    8552:	a08860        	addx4	a8, a8, a6
    8555:	0109c4        	ae_addq56	aeq0, aeq0, aeq1
    8558:	630154        	ae_sq56s.i	aeq0, a1, 40
    855b:	9302fd814f 	{ ae_lq56.i	aeq0, a1, 32; ae_mulzsaq32sp16u.lh	aeq3, aeq2, aep0, aeq3, aep0 }
    8560:	49263da13f 	{ ae_lq56.i	aeq1, a1, 24; ae_mulzasfq32sp16u.lh	aeq2, aeq0, aep1, aeq2, aep1 }
    8565:	ce0014        	ae_mulzssq32sp16u.lh	aeq0, aeq0, aep0, aeq1, aep0
    8568:	440804        	ae_lp16x2f.i	aep0, a8, 0
    856b:	fa723d815f 	{ ae_lq56.i	aeq0, a1, 40; ae_addq56	aeq2, aeq2, aeq0 }
    8570:	faf63b001f 	{ ae_sraiq56	aeq0, aeq0, 1; ae_addq56	aeq2, aeq2, aeq3 }
    8575:	ff447b209f 	{ ae_sraiq56	aeq2, aeq2, 1; ae_roundsq32sym	aeq3, aeq0 }
    857a:	fd5479fd2f 	{ ae_sq32f.iu	aeq3, a13, 8; ae_roundsq32sym	aeq1, aeq2 }
    857f:	621d14        	ae_sq32f.i	aeq1, a13, 4
    8582:	05a7a7        	bge	a7, a10, 858b <real_split+0xef>
    8585:	60c0c0        	neg	a12, a12
    8588:	30ff30        	xor	a15, a15, a3

0000858b <real_split+0xef>:
    858b:	605b24        	ae_lq32f.iu	aeq1, a11, 8
    858e:	1fcc           	bnez.n	a15, 8593 <real_split+0xf7>
    8590:	1a8084        	ae_selp24.lh	aep0, aep0, aep0

00008593 <real_split+0xf7>:
    8593:	601524        	ae_lq32f.iu	aeq0, a5, 8

00008596 <real_split+0xfa>:
    8596:	31d8           	l32i.n	a13, a1, 12
    8598:	41b8           	l32i.n	a11, a1, 16
    859a:	11e8           	l32i.n	a14, a1, 4
    859c:	5198           	l32i.n	a9, a1, 20
    859e:	60c0c0        	neg	a12, a12
    85a1:	fecca2        	addi	a10, a12, -2
    85a4:	2181a0        	srai	a8, a10, 1
    85a7:	991b           	addi.n	a9, a9, 1
    85a9:	fccee2        	addi	a14, a14, -4
    85ac:	a08860        	addx4	a8, a8, a6
    85af:	bbda           	add.n	a11, a11, a13
    85b1:	440804        	ae_lp16x2f.i	aep0, a8, 0
    85b4:	21d8           	l32i.n	a13, a1, 8
    85b6:	bb8b           	addi.n	a11, a11, 8
    85b8:	604b04        	ae_lq32f.i	aeq1, a11, 0
    85bb:	5b4b           	addi.n	a5, a11, 4
    85bd:	600b14        	ae_lq32f.i	aeq0, a11, 4
    85c0:	dd8b           	addi.n	a13, a13, 8
    85c2:	bb8b           	addi.n	a11, a11, 8
    85c4:	05eca6        	blti	a12, 128, 85cd <real_split+0x131>
    85c7:	60c0c0        	neg	a12, a12
    85ca:	30ff30        	xor	a15, a15, a3

000085cd <real_split+0x131>:
    85cd:	1fcc           	bnez.n	a15, 85d2 <real_split+0x136>
    85cf:	1a8084        	ae_selp24.lh	aep0, aep0, aep0

000085d2 <real_split+0x136>:
    85d2:	78a927        	bge	a9, a2, 864e <real_split+0x1b2>
    85d5:	f8cbb2        	addi	a11, a11, -8
    85d8:	f8cdd2        	addi	a13, a13, -8
    85db:	0188           	l32i.n	a8, a1, 0
    85dd:	fcce42        	addi	a4, a14, -4
    85e0:	dea691        	l32r	a9, 78 (8000 <xtensa_fft8_32b+0x28>)
    85e3:	ee8b           	addi.n	a14, a14, 8
    85e5:	448b           	addi.n	a4, a4, 8
    85e7:	301994        	ae_cvtp24a16x2.ll	aep1, a9, a9
    85ea:	ffc882        	addi	a8, a8, -1
    85ed:	5da876        	loopgtz	a8, 864e <real_split+0x1b2>
    85f0:	630144        	ae_sq56s.i	aeq0, a1, 32
    85f3:	c1013d74ef 	{ ae_lq32f.iu	aeq3, a4, -8; ae_mulzssq32sp16u.lh	aeq2, aeq1, aep0, aeq0, aep0 }
    85f8:	182790aacf 	{ add	a10, a10, a12; ae_mulzaafq32sp16u.lh	aeq0, aeq1, aep1, aeq3, aep1 }
    85fd:	2181a0        	srai	a8, a10, 1
    8600:	f8e23d5eef 	{ ae_lq32f.iu	aeq2, a14, -8; ae_addq56	aeq0, aeq0, aeq2 }
    8605:	62037a113f 	{ ae_sq56s.i	aeq1, a1, 24; ae_mulzasq32sp16u.lh	aeq1, aeq3, aep0, aeq2, aep0 }
    860a:	a08860        	addx4	a8, a8, a6
    860d:	0109c4        	ae_addq56	aeq0, aeq0, aeq1
    8610:	630154        	ae_sq56s.i	aeq0, a1, 40
    8613:	c302fd814f 	{ ae_lq56.i	aeq0, a1, 32; ae_mulzssq32sp16u.lh	aeq3, aeq2, aep0, aeq3, aep0 }
    8618:	49263da13f 	{ ae_lq56.i	aeq1, a1, 24; ae_mulzasfq32sp16u.lh	aeq2, aeq0, aep1, aeq2, aep1 }
    861d:	ca0014        	ae_mulzsaq32sp16u.lh	aeq0, aeq0, aep0, aeq1, aep0
    8620:	440804        	ae_lp16x2f.i	aep0, a8, 0
    8623:	fa723d815f 	{ ae_lq56.i	aeq0, a1, 40; ae_addq56	aeq2, aeq2, aeq0 }
    8628:	faf63b001f 	{ ae_sraiq56	aeq0, aeq0, 1; ae_addq56	aeq2, aeq2, aeq3 }
    862d:	ff447b209f 	{ ae_sraiq56	aeq2, aeq2, 1; ae_roundsq32sym	aeq3, aeq0 }
    8632:	fd5479fd2f 	{ ae_sq32f.iu	aeq3, a13, 8; ae_roundsq32sym	aeq1, aeq2 }
    8637:	621d14        	ae_sq32f.i	aeq1, a13, 4
    863a:	05a7a7        	bge	a7, a10, 8643 <real_split+0x1a7>
    863d:	60c0c0        	neg	a12, a12
    8640:	30ff30        	xor	a15, a15, a3

00008643 <real_split+0x1a7>:
    8643:	605b24        	ae_lq32f.iu	aeq1, a11, 8
    8646:	1fcc           	bnez.n	a15, 864b <real_split+0x1af>
    8648:	1a8084        	ae_selp24.lh	aep0, aep0, aep0

0000864b <real_split+0x1af>:
    864b:	601524        	ae_lq32f.iu	aeq0, a5, 8

0000864e <real_split+0x1b2>:
    864e:	f01d           	retw.n

00008650 <xtensa_real_fft_32b>:
    8650:	004136        	entry	a1, 32
    8653:	078266        	bnei	a2, 8, 865e <xtensa_real_fft_32b+0xe>
    8656:	df8681        	l32r	a8, 470 (7fd8 <xtensa_fft8_32b>)
    8659:	03ad           	mov.n	a10, a3
    865b:	0008e0        	callx8	a8

0000865e <xtensa_real_fft_32b+0xe>:
    865e:	07b266        	bnei	a2, 16, 8669 <xtensa_real_fft_32b+0x19>
    8661:	df8681        	l32r	a8, 47c (8374 <xtensa_fft16_32b>)
    8664:	03ad           	mov.n	a10, a3
    8666:	0008e0        	callx8	a8

00008669 <xtensa_real_fft_32b+0x19>:
    8669:	07c266        	bnei	a2, 32, 8674 <xtensa_real_fft_32b+0x24>
    866c:	df8581        	l32r	a8, 480 (83a0 <xtensa_fft32_32b>)
    866f:	03ad           	mov.n	a10, a3
    8671:	0008e0        	callx8	a8

00008674 <xtensa_real_fft_32b+0x24>:
    8674:	07d266        	bnei	a2, 64, 867f <xtensa_real_fft_32b+0x2f>
    8677:	df8381        	l32r	a8, 484 (83d0 <xtensa_fft64_32b>)
    867a:	03ad           	mov.n	a10, a3
    867c:	0008e0        	callx8	a8

0000867f <xtensa_real_fft_32b+0x2f>:
    867f:	07e266        	bnei	a2, 128, 868a <xtensa_real_fft_32b+0x3a>
    8682:	df8281        	l32r	a8, 48c (83fc <xtensa_fft128_32b>)
    8685:	03ad           	mov.n	a10, a3
    8687:	0008e0        	callx8	a8

0000868a <xtensa_real_fft_32b+0x3a>:
    868a:	07f266        	bnei	a2, 0x100, 8695 <xtensa_real_fft_32b+0x45>
    868d:	df7e81        	l32r	a8, 488 (8428 <xtensa_fft256_32b>)
    8690:	03ad           	mov.n	a10, a3
    8692:	0008e0        	callx8	a8

00008695 <xtensa_real_fft_32b+0x45>:
    8695:	00a292        	movi	a9, 0x200
    8698:	079297        	bne	a2, a9, 86a3 <xtensa_real_fft_32b+0x53>
    869b:	df7e81        	l32r	a8, 494 (8470 <xtensa_fft512_32b>)
    869e:	03ad           	mov.n	a10, a3
    86a0:	0008e0        	callx8	a8

000086a3 <xtensa_real_fft_32b+0x53>:
    86a3:	02ad           	mov.n	a10, a2
    86a5:	03bd           	mov.n	a11, a3
    86a7:	1142d0        	slli	a4, a2, 3
    86aa:	df7b81        	l32r	a8, 498 (849c <real_split>)
    86ad:	c04340        	sub	a4, a3, a4
    86b0:	04cd           	mov.n	a12, a4
    86b2:	0008e0        	callx8	a8
    86b5:	a48b           	addi.n	a10, a4, 8
    86b7:	820b           	addi.n	a8, a2, -1
    86b9:	03b8           	l32i.n	a11, a3, 0
    86bb:	13c8           	l32i.n	a12, a3, 4
    86bd:	0d0c           	movi.n	a13, 0
    86bf:	1192c0        	slli	a9, a2, 4
    86c2:	949a           	add.n	a9, a4, a9
    86c4:	13d9           	s32i.n	a13, a3, 4
    86c6:	fcc992        	addi	a9, a9, -4
    86c9:	c0bbc0        	sub	a11, a11, a12
    86cc:	03b9           	s32i.n	a11, a3, 0
    86ce:	13a876        	loopgtz	a8, 86e5 <xtensa_real_fft_32b+0x95>
    86d1:	1ad8           	l32i.n	a13, a10, 4
    86d3:	0ab8           	l32i.n	a11, a10, 0
    86d5:	ffd9c2        	addmi	a12, a9, 0xffffff00
    86d8:	aa8b           	addi.n	a10, a10, 8
    86da:	60d0d0        	neg	a13, a13
    86dd:	09d9           	s32i.n	a13, a9, 0
    86df:	3f6cb2        	s32i	a11, a12, 252
    86e2:	f8c992        	addi	a9, a9, -8

000086e5 <xtensa_real_fft_32b+0x95>:
    86e5:	f01d           	retw.n

000086e7 <xtensa_real_fft_32b+0x97>:
	...

000086e8 <xtensa_comp_fft_32b>:
    86e8:	004136        	entry	a1, 32
    86eb:	078266        	bnei	a2, 8, 86f6 <xtensa_comp_fft_32b+0xe>
    86ee:	df6081        	l32r	a8, 470 (7fd8 <xtensa_fft8_32b>)
    86f1:	03ad           	mov.n	a10, a3
    86f3:	0008e0        	callx8	a8

000086f6 <xtensa_comp_fft_32b+0xe>:
    86f6:	07b266        	bnei	a2, 16, 8701 <xtensa_comp_fft_32b+0x19>
    86f9:	df6081        	l32r	a8, 47c (8374 <xtensa_fft16_32b>)
    86fc:	03ad           	mov.n	a10, a3
    86fe:	0008e0        	callx8	a8

00008701 <xtensa_comp_fft_32b+0x19>:
    8701:	07c266        	bnei	a2, 32, 870c <xtensa_comp_fft_32b+0x24>
    8704:	df5f81        	l32r	a8, 480 (83a0 <xtensa_fft32_32b>)
    8707:	03ad           	mov.n	a10, a3
    8709:	0008e0        	callx8	a8

0000870c <xtensa_comp_fft_32b+0x24>:
    870c:	07d266        	bnei	a2, 64, 8717 <xtensa_comp_fft_32b+0x2f>
    870f:	df5d81        	l32r	a8, 484 (83d0 <xtensa_fft64_32b>)
    8712:	03ad           	mov.n	a10, a3
    8714:	0008e0        	callx8	a8

00008717 <xtensa_comp_fft_32b+0x2f>:
    8717:	07e266        	bnei	a2, 128, 8722 <xtensa_comp_fft_32b+0x3a>
    871a:	df5c81        	l32r	a8, 48c (83fc <xtensa_fft128_32b>)
    871d:	03ad           	mov.n	a10, a3
    871f:	0008e0        	callx8	a8

00008722 <xtensa_comp_fft_32b+0x3a>:
    8722:	07f266        	bnei	a2, 0x100, 872d <xtensa_comp_fft_32b+0x45>
    8725:	df5881        	l32r	a8, 488 (8428 <xtensa_fft256_32b>)
    8728:	03ad           	mov.n	a10, a3
    872a:	0008e0        	callx8	a8

0000872d <xtensa_comp_fft_32b+0x45>:
    872d:	00a292        	movi	a9, 0x200
    8730:	079297        	bne	a2, a9, 873b <xtensa_comp_fft_32b+0x53>
    8733:	df5881        	l32r	a8, 494 (8470 <xtensa_fft512_32b>)
    8736:	03ad           	mov.n	a10, a3
    8738:	0008e0        	callx8	a8

0000873b <xtensa_comp_fft_32b+0x53>:
    873b:	f01d           	retw.n

0000873d <xtensa_comp_fft_32b+0x55>:
    873d:	000000                                        ...

00008740 <sw_fft_32b_2811>:
    8740:	006136        	entry	a1, 48
    8743:	00a2a2        	movi	a10, 0x200
    8746:	191666        	bnei	a6, 1, 8763 <sw_fft_32b_2811+0x23>
    8749:	168326        	beqi	a3, 8, 8763 <sw_fft_32b_2811+0x23>
    874c:	13b326        	beqi	a3, 16, 8763 <sw_fft_32b_2811+0x23>
    874f:	10c326        	beqi	a3, 32, 8763 <sw_fft_32b_2811+0x23>
    8752:	0dd326        	beqi	a3, 64, 8763 <sw_fft_32b_2811+0x23>
    8755:	0ae326        	beqi	a3, 128, 8763 <sw_fft_32b_2811+0x23>
    8758:	07f326        	beqi	a3, 0x100, 8763 <sw_fft_32b_2811+0x23>
    875b:	0413a7        	beq	a3, a10, 8763 <sw_fft_32b_2811+0x23>

0000875e <sw_fft_32b_2811+0x1e>:
    875e:	126c           	movi.n	a2, -31
    8760:	f01d           	retw.n

00008762 <sw_fft_32b_2811+0x22>:
	...

00008763 <sw_fft_32b_2811+0x23>:
    8763:	36dc           	bnez.n	a6, 877a <sw_fft_32b_2811+0x3a>
    8765:	118326        	beqi	a3, 8, 877a <sw_fft_32b_2811+0x3a>
    8768:	0eb326        	beqi	a3, 16, 877a <sw_fft_32b_2811+0x3a>
    876b:	0bc326        	beqi	a3, 32, 877a <sw_fft_32b_2811+0x3a>
    876e:	08d326        	beqi	a3, 64, 877a <sw_fft_32b_2811+0x3a>
    8771:	05e326        	beqi	a3, 128, 877a <sw_fft_32b_2811+0x3a>
    8774:	02f326        	beqi	a3, 0x100, 877a <sw_fft_32b_2811+0x3a>
    8777:	e393a7        	bne	a3, a10, 875e <sw_fft_32b_2811+0x1e>
    877a:	1173f0        	slli	a7, a3, 1
    877d:	029d           	mov.n	a9, a2
    877f:	600204        	ae_lq32f.i	aeq0, a2, 0
    8782:	0b13a6        	blti	a3, 1, 8791 <sw_fft_32b_2811+0x51>
    8785:	08a776        	loopgtz	a7, 8791 <sw_fft_32b_2811+0x51>
    8788:	3404b4        	ae_sraaq56	aeq0, aeq0, a4
    878b:	620904        	ae_sq32f.i	aeq0, a9, 0
    878e:	601914        	ae_lq32f.iu	aeq0, a9, 4

00008791 <sw_fft_32b_2811+0x51>:
    8791:	111666        	bnei	a6, 1, 87a6 <sw_fft_32b_2811+0x66>
    8794:	df4281        	l32r	a8, 49c (86e8 <xtensa_comp_fft_32b>)
    8797:	03ad           	mov.n	a10, a3
    8799:	02bd           	mov.n	a11, a2
    879b:	0008e0        	callx8	a8
    879e:	07bd           	mov.n	a11, a7
    87a0:	090c           	movi.n	a9, 0
    87a2:	0003c6        	j	87b5 <sw_fft_32b_2811+0x75>

000087a5 <sw_fft_32b_2811+0x65>:
	...

000087a6 <sw_fft_32b_2811+0x66>:
    87a6:	df3e81        	l32r	a8, 4a0 (8650 <xtensa_real_fft_32b>)
    87a9:	03ad           	mov.n	a10, a3
    87ab:	02bd           	mov.n	a11, a2
    87ad:	0008e0        	callx8	a8
    87b0:	079d           	mov.n	a9, a7
    87b2:	11b3e0        	slli	a11, a3, 2

000087b5 <sw_fft_32b_2811+0x75>:
    87b5:	3d1566        	bnei	a5, 1, 87f6 <sw_fft_32b_2811+0xb6>
    87b8:	11a9e0        	slli	a10, a9, 2
    87bb:	c0a2a0        	sub	a10, a2, a10
    87be:	0a9d           	mov.n	a9, a10
    87c0:	fd24bd0a0f 	{ ae_lq32f.i	aeq0, a10, 0; ae_zeroq56	aeq1 }
    87c5:	07ab76        	loopgtz	a11, 87d0 <sw_fft_32b_2811+0x90>
    87c8:	069864        	ae_absq56	aeq2, aeq0
    87cb:	f936bd191f 	{ ae_lq32f.iu	aeq0, a9, 4; ae_orq56	aeq1, aeq1, aeq2 }

000087d0 <sw_fft_32b_2811+0x90>:
    87d0:	209aa0        	or	a9, a10, a10
    87d3:	621104        	ae_sq32f.i	aeq1, a1, 0
    87d6:	0021d2        	l32i	a13, a1, 0
    87d9:	600a04        	ae_lq32f.i	aeq0, a10, 0
    87dc:	00a0a2        	movi	a10, 0
    87df:	40edc0        	nsa	a12, a13
    87e2:	b3acd0        	movgez	a10, a12, a13
    87e5:	0aab76        	loopgtz	a11, 87f3 <sw_fft_32b_2811+0xb3>
    87e8:	fc24fe8acf 	{ ae_slaasq56s	aeq3, aeq0, a10; nop }
    87ed:	623904        	ae_sq32f.i	aeq3, a9, 0
    87f0:	601914        	ae_lq32f.iu	aeq0, a9, 4
    87f3:	c044a0        	sub	a4, a4, a10

000087f6 <sw_fft_32b_2811+0xb6>:
    87f6:	842d           	ae_sext16	a2, a4
    87f8:	f01d           	retw.n

000087fa <sw_fft_32b_2811+0xba>:
    87fa:	00000000 41360000                                ......

00008800 <__do_global_ctors_aux>:
    8800:	004136        	entry	a1, 32
    8803:	df2881        	l32r	a8, 4a4 (a934 <fftorder_512_12b+0x214>)
    8806:	7f2882        	l32i	a8, a8, 0x1fc
    8809:	df2721        	l32r	a2, 4a8 (ab30 <__CTOR_LIST___47>)
    880c:	0c0826        	beqi	a8, -1, 881c <__do_global_ctors_aux+0x1c>
    880f:	02a8           	l32i.n	a10, a2, 0

00008811 <__do_global_ctors_aux+0x11>:
    8811:	000ae0        	callx8	a10
    8814:	fcc222        	addi	a2, a2, -4
    8817:	02a8           	l32i.n	a10, a2, 0
    8819:	f40a66        	bnei	a10, -1, 8811 <__do_global_ctors_aux+0x11>

0000881c <__do_global_ctors_aux+0x1c>:
    881c:	f01d           	retw.n

0000881e <__do_global_ctors_aux+0x1e>:
	...

00008820 <xt_memset>:
    8820:	004136        	entry	a1, 32
    8823:	026d           	mov.n	a6, a2
    8825:	42cc           	bnez.n	a2, 882d <xt_memset+0xd>
    8827:	020c           	movi.n	a2, 0
    8829:	f01d           	retw.n

0000882b <xt_memset+0xb>:
	...

0000882d <xt_memset+0xd>:
    882d:	029476        	loopnez	a4, 8833 <xt_memset+0x13>
    8830:	09c634        	ae_s16ip	a3, a6, 2

00008833 <xt_memset+0x13>:
    8833:	f01d           	retw.n

00008835 <xt_memset+0x15>:
    8835:	000000                                        ...

00008838 <xt_memcpy>:
    8838:	004136        	entry	a1, 32
    883b:	22ac           	beqz.n	a2, 8861 <xt_memcpy+0x29>
    883d:	03ac           	beqz.n	a3, 8861 <xt_memcpy+0x29>
    883f:	0bb327        	bgeu	a3, a2, 884e <xt_memcpy+0x16>
    8842:	907430        	addx2	a7, a4, a3
    8845:	05b277        	bgeu	a2, a7, 884e <xt_memcpy+0x16>
    8848:	903420        	addx2	a3, a4, a2
    884b:	0007c6        	j	886e <xt_memcpy+0x36>

0000884e <xt_memcpy+0x16>:
    884e:	026d           	mov.n	a6, a2
    8850:	000186        	j	885a <xt_memcpy+0x22>

00008853 <xt_memcpy+0x1b>:
    8853:	235d           	ae_l16si.n	a5, a3, 0
    8855:	09c654        	ae_s16ip	a5, a6, 2
    8858:	332b           	addi.n	a3, a3, 2

0000885a <xt_memcpy+0x22>:
    885a:	440b           	addi.n	a4, a4, -1
    885c:	f30466        	bnei	a4, -1, 8853 <xt_memcpy+0x1b>

0000885f <xt_memcpy+0x27>:
    885f:	f01d           	retw.n

00008861 <xt_memcpy+0x29>:
    8861:	020c           	movi.n	a2, 0
    8863:	f01d           	retw.n

00008865 <xt_memcpy+0x2d>:
    8865:	063d           	mov.n	a3, a6
    8867:	fec772        	addi	a7, a7, -2
    886a:	278d           	ae_l16si.n	a8, a7, 0
    886c:	668d           	ae_s16i.n	a8, a6, 0

0000886e <xt_memcpy+0x36>:
    886e:	fec362        	addi	a6, a3, -2
    8871:	440b           	addi.n	a4, a4, -1
    8873:	ee0466        	bnei	a4, -1, 8865 <xt_memcpy+0x2d>
    8876:	fff946        	j	885f <xt_memcpy+0x27>

00008879 <xt_memcpy+0x41>:
    8879:	000000                                        ...

0000887c <__ashldi3>:
    887c:	002136        	entry	a1, 16
    887f:	401400        	ssl	a4
    8882:	07c4e6        	bgei	a4, 32, 888d <__ashldi3+0x11>
    8885:	813320        	src	a3, a3, a2
    8888:	a12200        	sll	a2, a2
    888b:	f01d           	retw.n

0000888d <__ashldi3+0x11>:
    888d:	a13200        	sll	a3, a2
    8890:	020c           	movi.n	a2, 0
    8892:	f01d           	retw.n

00008894 <__ashrdi3>:
    8894:	002136        	entry	a1, 16
    8897:	400400        	ssr	a4
    889a:	07c4e6        	bgei	a4, 32, 88a5 <__ashrdi3+0x11>
    889d:	812320        	src	a2, a3, a2
    88a0:	b13030        	sra	a3, a3
    88a3:	f01d           	retw.n

000088a5 <__ashrdi3+0x11>:
    88a5:	b12030        	sra	a2, a3
    88a8:	313f30        	srai	a3, a3, 31
    88ab:	f01d           	retw.n

000088ad <__ashrdi3+0x19>:
    88ad:	000000                                        ...

000088b0 <_fini>:
    88b0:	008136        	entry	a1, 64
    88b3:	defe81        	l32r	a8, 4ac (4c8 <__do_global_dtors_aux>)
    88b6:	f03d           	nop.n
    88b8:	0008e0        	callx8	a8

000088bb <_fini+0xb>:
    88bb:	f01d           	retw.n
