
Build/lib/pisplit_ec_rxnr_position_independent.splitload.lib:     file format elf32-xtensa-le


Disassembly of section .text:

00000000 <_init-0x3e0>:
       0:	00000434 00005ea8 00007ac0 00007374     4....^...z..ts..
      10:	00000000 0000735c 00000000 00007ac4     ....\s.......z..
      20:	00005ee0 00007ae4 00007adc 00000450     .^...z...z..P...
      30:	00001000 0000063c 89442379 0000bb75     ....<...y#D.u...
      40:	00007450 7fffffff 000074c0 80000000     Pt.......t......
      50:	00007ae0 00006a60 00001398 00006a7c     .z..`j......|j..
      60:	00001424 00006a90 000029a0 00006aa4     $....j...)...j..
      70:	00002894 00006abc 00002a9c 00006ad8     .(...j...*...j..
      80:	0000314c 00006aec 000029ec 00006b04     L1...j...)...k..
      90:	00002ec8 00006b18 00002a44 00006b30     .....k..D*..0k..
      a0:	000013a0 00006b50 00001610 00006b6c     ....Pk......lk..
      b0:	000029bc 00006b88 00002b08 00006bac     .)...k...+...k..
      c0:	00001390 00006bc0 00002b3c 00006be0     .....k..<+...k..
      d0:	00002b90 00007380 00005ec8 0000fff7     .+...s...^......
      e0:	00155555 00000b80 00000b68 00001148     UU......h...H...
      f0:	00007fff 00200000 002aaa00 000073c0     ...... ...*..s..
     100:	000073c4 00010000 00080000 00004098     .s...........@..
     110:	00003f90 00000bf8 00000c54 000073d8     .?......T....s..
     120:	00000cd8 00000d8c 000046e0 00004958     .........F..XI..
     130:	000004a8 000013d0 00000818 00001054     ............T...
     140:	000013a8 000013bc 000007b4 00003218     .............2..
     150:	0d190210 00008000 00007ae8 00002000     .........z... ..
     160:	000049e4 00003420 00001404 00001424     .I.. 4......$...
     170:	00800000 00000a70 000075dc 000075d0     ....p....u...u..
     180:	000073f0 000075ec 0000762c 00007670     .s...u..,v..pv..
     190:	000075f0 00001244 00001246 00001248     .u..D...F...H...
     1a0:	0000124a 007fffff 00000694 00004d10     J............M..
     1b0:	000006d4 7fff0000 00004598 00001c74     .........E..t...
     1c0:	000016c8 000029d8 000019d4 00001050     .....)......P...
     1d0:	00001824 00001744 000018a0 00001a38     $...D.......8...
     1e0:	00000e0c 00001080 00001a54 00004c48     ........T...HL..
     1f0:	00004ef4 00001ba4 000051b8 00005068     .N.......Q..hP..
     200:	0000558c 00001c48 00005704 00005a34     .U..H....W..4Z..
     210:	00005b90 0000194c 000017b4 00001868     .[..L.......h...
     220:	00004000 00001bb8 00005438 0000343c     .@......8T..<4..
     230:	000012fc 00001340 00005277 00003314     ....@...wR...3..
     240:	00001bd8 00001db4 0000318c 00002f0c     .........1.../..
     250:	00007f80 ffff8000 40000000 00002bdc     ...........@.+..
     260:	00002ba0 00006c10 ffffb800 b8000000     .+...l..........
     270:	00006c30 00002bcc 00007790 0000050c     0l...+...w......
     280:	00002bec 00004684 00002f54 00003698     .+...F..T/...6..
     290:	000037f8 000038fc 00003a74 00003b70     .7...8..t:..p;..
     2a0:	00003c1c 00003e58 000079b0 00002f98     .<..X>...y.../..
     2b0:	000031d4 0000fffc 00006f54 00004850     .1......To..PH..
     2c0:	00006f58 0000364c 00000588 00003238     Xo..L6......82..
     2d0:	00003624 00035e51 00007750 00007780     $6..Q^..Pw...w..
     2e0:	0000743c 00007438 000035c8 000e38e4     <t..8t...5...8..
     2f0:	00007730 00007770 00124925 00003c00     0w..pw..%I...<..
     300:	00006f52 00007430 80000001 00005a82     Ro..0t.......Z..
     310:	000042bc 00006e4c 00004130 000040b8     .B..Ln..0A...@..
     320:	000042e8 000044cc 000044f8 00004528     .B...D...D..(E..
     330:	00004580 00004554 00006e50 000045f4     .E..TE..Pn...E..
     340:	000045c8 0000481c 000047a8 10000000     .E...H...G......
     350:	00004980 000073dc 0e390000 3eb80000     .I...s....9....>
     360:	18000000 0d330000 00006000 00001770     ......3..`..p...
     370:	00004990 000049d4 000049ac 000ccccc     .I...I...I......
     380:	00393e4b 00175e97 000048f8 00005034     K>9..^...H..4P..
     390:	00004bec 3fff0000 c0010000 000073f8     .K.....?.....s..
     3a0:	000073e8 00006ccd 000073ec 00007efa     .s...l...s...~..
     3b0:	00000fff 000073e0 00007e00 00004666     .....s...~..fF..
     3c0:	00003b00 00004a3d 000043d7 00007fae     .;..=J...C......
     3d0:	00000800 00007164 00007360 000003f8     ....dq..`s......

000003e0 <_init>:
     3e0:	008136        	entry	a1, 64
     3e3:	ff0781        	l32r	a8, 0 (434 <frame_dummy>)
     3e6:	f03d           	nop.n
     3e8:	0008e0        	callx8	a8
     3eb:	ff0681        	l32r	a8, 4 (5ea8 <__do_global_ctors_aux>)
     3ee:	f03d           	nop.n
     3f0:	0008e0        	callx8	a8
     3f3:	f01d           	retw.n

000003f5 <_init+0x15>:
     3f5:	000000                                        ...

000003f8 <__do_global_dtors_aux>:
     3f8:	004136        	entry	a1, 32
     3fb:	ff0331        	l32r	a3, 8 (7ac0 <__bss_start>)
     3fe:	000382        	l8ui	a8, a3, 0
     401:	d8ec           	bnez.n	a8, 432 <__do_global_dtors_aux+0x3a>
     403:	ff0221        	l32r	a2, c (7374 <p$3519_6_1>)
     406:	02b8           	l32i.n	a11, a2, 0
     408:	0ba8           	l32i.n	a10, a11, 0
     40a:	ca8c           	beqz.n	a10, 41a <__do_global_dtors_aux+0x22>

0000040c <__do_global_dtors_aux+0x14>:
     40c:	9b4b           	addi.n	a9, a11, 4
     40e:	0299           	s32i.n	a9, a2, 0
     410:	000ae0        	callx8	a10
     413:	02b8           	l32i.n	a11, a2, 0
     415:	0ba8           	l32i.n	a10, a11, 0
     417:	ff1a56        	bnez	a10, 40c <__do_global_dtors_aux+0x14>

0000041a <__do_global_dtors_aux+0x22>:
     41a:	fefda1        	l32r	a10, 10 (0 <_text_start>)
     41d:	0b0c           	movi.n	a11, 0
     41f:	081ab7        	beq	a10, a11, 42b <__do_global_dtors_aux+0x33>
     422:	fefca1        	l32r	a10, 14 (735c <__EH_FRAME_BEGIN___44>)
     425:	fefa81        	l32r	a8, 10 (0 <_text_start>)
     428:	0008e0        	callx8	a8

0000042b <__do_global_dtors_aux+0x33>:
     42b:	1c0c           	movi.n	a12, 1
     42d:	0043c2        	s8i	a12, a3, 0
     430:	f01d           	retw.n

00000432 <__do_global_dtors_aux+0x3a>:
     432:	f01d           	retw.n

00000434 <frame_dummy>:
     434:	004136        	entry	a1, 32
     437:	fef881        	l32r	a8, 18 (0 <_text_start>)
     43a:	090c           	movi.n	a9, 0
     43c:	0b1897        	beq	a8, a9, 44b <frame_dummy+0x17>
     43f:	fef5a1        	l32r	a10, 14 (735c <__EH_FRAME_BEGIN___44>)
     442:	fef6b1        	l32r	a11, 1c (7ac4 <object$3538_8_1>)
     445:	fef481        	l32r	a8, 18 (0 <_text_start>)
     448:	0008e0        	callx8	a8

0000044b <frame_dummy+0x17>:
     44b:	f01d           	retw.n

0000044d <frame_dummy+0x19>:
     44d:	000000                                        ...

00000450 <common_ECNR_PARA_init_v2>:
     450:	004136        	entry	a1, 32
     453:	a28b           	addi.n	a10, a2, 8
     455:	fef281        	l32r	a8, 20 (5ee0 <xt_memcpy>)
     458:	b32b           	addi.n	a11, a3, 2
     45a:	79a0c2        	movi	a12, 121
     45d:	0008e0        	callx8	a8
     460:	5c0c           	movi.n	a12, 5
     462:	01d3b2        	addmi	a11, a3, 0x100
     465:	01d2a2        	addmi	a10, a2, 0x100
     468:	feee81        	l32r	a8, 20 (5ee0 <xt_memcpy>)
     46b:	fccaa2        	addi	a10, a10, -4
     46e:	f4cbb2        	addi	a11, a11, -12
     471:	0008e0        	callx8	a8
     474:	d7a0c2        	movi	a12, 215
     477:	01d3b2        	addmi	a11, a3, 0x100
     47a:	01d2a2        	addmi	a10, a2, 0x100
     47d:	fee881        	l32r	a8, 20 (5ee0 <xt_memcpy>)
     480:	aa8b           	addi.n	a10, a10, 8
     482:	fecbb2        	addi	a11, a11, -2
     485:	0008e0        	callx8	a8
     488:	6c3c           	movi.n	a12, 54
     48a:	03d2a2        	addmi	a10, a2, 0x300
     48d:	03d3b2        	addmi	a11, a3, 0x300
     490:	fee481        	l32r	a8, 20 (5ee0 <xt_memcpy>)
     493:	accbb2        	addi	a11, a11, -84
     496:	b8caa2        	addi	a10, a10, -72
     499:	0008e0        	callx8	a8
     49c:	fee291        	l32r	a9, 24 (7ae4 <p_ecnr_mem>)
     49f:	0998           	l32i.n	a9, a9, 0
     4a1:	0299           	s32i.n	a9, a2, 0
     4a3:	f01d           	retw.n

000004a5 <common_ECNR_PARA_init_v2+0x55>:
     4a5:	000000                                        ...

000004a8 <TX_ECNR_PARA_init>:
     4a8:	004136        	entry	a1, 32
     4ab:	03bd           	mov.n	a11, a3
     4ad:	fedd51        	l32r	a5, 24 (7ae4 <p_ecnr_mem>)
     4b0:	fede41        	l32r	a4, 28 (7adc <aec_nr_para>)
     4b3:	fede81        	l32r	a8, 2c (450 <common_ECNR_PARA_init_v2>)
     4b6:	05a8           	l32i.n	a10, a5, 0
     4b8:	04a9           	s32i.n	a10, a4, 0
     4ba:	0008e0        	callx8	a8
     4bd:	4c0c           	movi.n	a12, 4
     4bf:	04d8           	l32i.n	a13, a4, 0
     4c1:	fed781        	l32r	a8, 20 (5ee0 <xt_memcpy>)
     4c4:	0568           	l32i.n	a6, a5, 0
     4c6:	821de2        	l16ui	a14, a13, 0x104
     4c9:	811d92        	l16ui	a9, a13, 0x102
     4cc:	041df2        	l16ui	a15, a13, 8
     4cf:	02ddb2        	addmi	a11, a13, 0x200
     4d2:	12d662        	addmi	a6, a6, 0x1200
     4d5:	44c6a2        	addi	a10, a6, 68
     4d8:	bacbb2        	addi	a11, a11, -70
     4db:	2c56f2        	s16i	a15, a6, 88
     4de:	939e20        	movnez	a9, a14, a2
     4e1:	025d92        	s16i	a9, a13, 4
     4e4:	0008e0        	callx8	a8
     4e7:	3c0c           	movi.n	a12, 3
     4e9:	fecd81        	l32r	a8, 20 (5ee0 <xt_memcpy>)
     4ec:	05d8           	l32i.n	a13, a5, 0
     4ee:	04a8           	l32i.n	a10, a4, 0
     4f0:	03d3b2        	addmi	a11, a3, 0x300
     4f3:	4ecbb2        	addi	a11, a11, 78
     4f6:	db1a92        	l16ui	a9, a10, 0x1b6
     4f9:	46ddd2        	addmi	a13, a13, 0x4600
     4fc:	03daa2        	addmi	a10, a10, 0x300
     4ff:	24caa2        	addi	a10, a10, 36
     502:	4b5d92        	s16i	a9, a13, 150
     505:	0008e0        	callx8	a8
     508:	f01d           	retw.n

0000050a <TX_ECNR_PARA_init+0x62>:
	...

0000050c <RX_ECNR_PARA_init>:
     50c:	004136        	entry	a1, 32
     50f:	03bd           	mov.n	a11, a3
     511:	fec451        	l32r	a5, 24 (7ae4 <p_ecnr_mem>)
     514:	fec531        	l32r	a3, 28 (7adc <aec_nr_para>)
     517:	fec581        	l32r	a8, 2c (450 <common_ECNR_PARA_init_v2>)
     51a:	05a8           	l32i.n	a10, a5, 0
     51c:	03a9           	s32i.n	a10, a3, 0
     51e:	0008e0        	callx8	a8
     521:	03a8           	l32i.n	a10, a3, 0
     523:	b42b           	addi.n	a11, a4, 2
     525:	03daa2        	addmi	a10, a10, 0x300
     528:	2acaa2        	addi	a10, a10, 42
     52b:	f29c           	beqz.n	a2, 54e <RX_ECNR_PARA_init+0x42>
     52d:	febc81        	l32r	a8, 20 (5ee0 <xt_memcpy>)
     530:	80a0c2        	movi	a12, 128
     533:	0008e0        	callx8	a8
     536:	0023b2        	l32i	a11, a3, 0
     539:	febda1        	l32r	a10, 30 (1000 <subband_aec_block+0x1f4>)
     53c:	80a0c2        	movi	a12, 128
     53f:	04db92        	addmi	a9, a11, 0x400
     542:	2ac992        	addi	a9, a9, 42
     545:	02ac76        	loopgtz	a12, 54b <RX_ECNR_PARA_init+0x3f>
     548:	09c9a4        	ae_s16ip	a10, a9, 2

0000054b <RX_ECNR_PARA_init+0x3f>:
     54b:	000286        	j	559 <RX_ECNR_PARA_init+0x4d>

0000054e <RX_ECNR_PARA_init+0x42>:
     54e:	feb481        	l32r	a8, 20 (5ee0 <xt_memcpy>)
     551:	00a1c2        	movi	a12, 0x100
     554:	0008e0        	callx8	a8
     557:	03b8           	l32i.n	a11, a3, 0

00000559 <RX_ECNR_PARA_init+0x4d>:
     559:	05a8           	l32i.n	a10, a5, 0
     55b:	da1b92        	l16ui	a9, a11, 0x1b4
     55e:	46daa2        	addmi	a10, a10, 0x4600
     561:	990b           	addi.n	a9, a9, -1
     563:	4a5a92        	s16i	a9, a10, 148
     566:	f01d           	retw.n

00000568 <EQ_update>:
     568:	004136        	entry	a1, 32
     56b:	03bd           	mov.n	a11, a3
     56d:	2c0c           	movi.n	a12, 2
     56f:	fead91        	l32r	a9, 24 (7ae4 <p_ecnr_mem>)
     572:	46d2a2        	addmi	a10, a2, 0x4600
     575:	feaa81        	l32r	a8, 20 (5ee0 <xt_memcpy>)
     578:	1ccaa2        	addi	a10, a10, 28
     57b:	0929           	s32i.n	a2, a9, 0
     57d:	0008e0        	callx8	a8
     580:	f01d           	retw.n

00000582 <EQ_update+0x1a>:
     582:	00000000 61360000                                ......

00000588 <comfort_noise_gen_wb2>:
     588:	006136        	entry	a1, 48
     58b:	139272        	l16si	a7, a2, 38
     58e:	fea5b1        	l32r	a11, 24 (7ae4 <p_ecnr_mem>)
     591:	280c           	movi.n	a8, 2
     593:	3a2232        	l32i	a3, a2, 232
     596:	6f9292        	l16si	a9, a2, 222
     599:	4022a2        	l32i	a10, a2, 0x100
     59c:	11a9           	s32i.n	a10, a1, 4
     59e:	990b           	addi.n	a9, a9, -1
     5a0:	fc248fc33e 	{ addi	a3, a3, -4; ae_zeroq56	aeq0 }
     5a5:	05a876        	loopgtz	a8, 5ae <comfort_noise_gen_wb2+0x26>
     5a8:	624314        	ae_sq32f.iu	aeq0, a3, 4
     5ab:	624314        	ae_sq32f.iu	aeq0, a3, 4

000005ae <comfort_noise_gen_wb2+0x26>:
     5ae:	0b58           	l32i.n	a5, a11, 0
     5b0:	2f0262        	l8ui	a6, a2, 47
     5b3:	1148           	l32i.n	a4, a1, 4
     5b5:	11d552        	addmi	a5, a5, 0x1100
     5b8:	fec662        	addi	a6, a6, -2
     5bb:	50c5c2        	addi	a12, a5, 80
     5be:	a79552        	l16si	a5, a5, 0x14e
     5c1:	05b696        	bltz	a6, 620 <comfort_noise_gen_wb2+0x98>
     5c4:	fcc442        	addi	a4, a4, -4
     5c7:	f27c           	movi.n	a2, -1
     5c9:	0199           	s32i.n	a9, a1, 0

000005cb <comfort_noise_gen_wb2+0x43>:
     5cb:	0062d6        	bgez	a2, 5d5 <comfort_noise_gen_wb2+0x4d>
     5ce:	11b8           	l32i.n	a11, a1, 4
     5d0:	0bb8           	l32i.n	a11, a11, 0
     5d2:	000046        	j	5d7 <comfort_noise_gen_wb2+0x4f>

000005d5 <comfort_noise_gen_wb2+0x4d>:
     5d5:	04b8           	l32i.n	a11, a4, 0

000005d7 <comfort_noise_gen_wb2+0x4f>:
     5d7:	fe9781        	l32r	a8, 34 (63c <HIFI_sqrt>)
     5da:	01a8           	l32i.n	a10, a1, 0
     5dc:	0008e0        	callx8	a8
     5df:	fe97d1        	l32r	a13, 3c (bb75 <_end+0x4089>)
     5e2:	fe95c1        	l32r	a12, 38 (89442379 <_end+0x8943a88d>)
     5e5:	360b34        	ae_cvtq48a32s	aeq0, a11
     5e8:	82b5d0        	mull	a11, a5, a13
     5eb:	d155c0        	mul16s	a5, a5, a12
     5ee:	300b54        	ae_cvtp24a16x2.ll	aep0, a11, a5
     5f1:	d4e240444e 	{ addi	a4, a4, 4; ae_mulfq32sp16s.l	aeq1, aeq0, aep0 }
     5f6:	d4621097af 	{ add	a9, a7, a10; ae_mulfq32sp16s.h	aeq0, aeq0, aep0 }
     5fb:	fc24fe99cf 	{ ae_slaasq56s	aeq3, aeq1, a9; nop }
     600:	fc24fe898f 	{ ae_slaasq56s	aeq2, aeq0, a9; nop }
     605:	fd5c40122e 	{ addi	a2, a2, 1; ae_roundsq32sym	aeq1, aeq3 }
     60a:	fc5479d31f 	{ ae_sq32f.iu	aeq1, a3, 4; ae_roundsq32sym	aeq0, aeq2 }
     60f:	624314        	ae_sq32f.iu	aeq0, a3, 4
     612:	b59627        	bne	a6, a2, 5cb <comfort_noise_gen_wb2+0x43>
     615:	fe83c1        	l32r	a12, 24 (7ae4 <p_ecnr_mem>)
     618:	0cc8           	l32i.n	a12, a12, 0
     61a:	11dcc2        	addmi	a12, a12, 0x1100
     61d:	50ccc2        	addi	a12, a12, 80

00000620 <comfort_noise_gen_wb2+0x98>:
     620:	7f5c52        	s16i	a5, a12, 254
     623:	7da0a2        	movi	a10, 125
     626:	7ca0d2        	movi	a13, 124
     629:	fc2490dd6e 	{ blt	a13, a6, 63a <comfort_noise_gen_wb2+0xb2>; ae_zeroq56	aeq0 }
     62e:	c0ea60        	sub	a14, a10, a6
     631:	05ae76        	loopgtz	a14, 63a <comfort_noise_gen_wb2+0xb2>
     634:	624314        	ae_sq32f.iu	aeq0, a3, 4
     637:	624314        	ae_sq32f.iu	aeq0, a3, 4

0000063a <comfort_noise_gen_wb2+0xb2>:
     63a:	f01d           	retw.n

0000063c <HIFI_sqrt>:
     63c:	004136        	entry	a1, 32
     63f:	4b13a6        	blti	a3, 1, 68e <HIFI_sqrt+0x52>
     642:	fe7f51        	l32r	a5, 40 (7450 <TABLE_SQRT>)
     645:	070c           	movi.n	a7, 0
     647:	40e380        	nsa	a8, a3
     64a:	401800        	ssl	a8
     64d:	c02280        	sub	a2, a2, a8
     650:	a16300        	sll	a6, a3
     653:	043020        	extui	a3, a2, 0, 1
     656:	400300        	ssr	a3
     659:	b16060        	sra	a6, a6
     65c:	416960        	srli	a6, a6, 9
     65f:	314060        	srai	a4, a6, 16
     662:	f0c442        	addi	a4, a4, -16
     665:	534470        	max	a4, a4, a7
     668:	904450        	addx2	a4, a4, a5
     66b:	245d           	ae_l16si.n	a5, a4, 0
     66d:	300664        	ae_cvtp24a16x2.ll	aep0, a6, a6
     670:	344d           	ae_l16si.n	a4, a4, 2
     672:	116500        	slli	a6, a5, 16
     675:	360634        	ae_cvtq48a32s	aeq0, a6
     678:	c04450        	sub	a4, a4, a5
     67b:	114400        	slli	a4, a4, 16
     67e:	364434        	ae_cvtq48a32s	aeq1, a4
     681:	d4e110223f 	{ add	a2, a2, a3; ae_mulaq32sp16u.l	aeq0, aeq1, aep0 }
     686:	212120        	srai	a2, a2, 1
     689:	368304        	ae_trunca32q48	a3, aeq0
     68c:	f01d           	retw.n

0000068e <HIFI_sqrt+0x52>:
     68e:	030c           	movi.n	a3, 0
     690:	020c           	movi.n	a2, 0
     692:	f01d           	retw.n

00000694 <Log2_norm>:
     694:	004136        	entry	a1, 32
     697:	3212a6        	blti	a2, 1, 6cd <Log2_norm+0x39>
     69a:	046c           	movi.n	a4, -32
     69c:	2da437        	bge	a4, a3, 6cd <Log2_norm+0x39>
     69f:	052c           	movi.n	a5, 32
     6a1:	04a537        	bge	a5, a3, 6a9 <Log2_norm+0x15>
     6a4:	fe6821        	l32r	a2, 44 (7fffffff <_end+0x7fff8513>)
     6a7:	f01d           	retw.n

000006a9 <Log2_norm+0x15>:
     6a9:	fe6741        	l32r	a4, 48 (74c0 <TABLE_LOG2_1530>)
     6ac:	558820        	extui	a8, a2, 24, 6
     6af:	1188e0        	slli	a8, a8, 2
     6b2:	603484        	ae_lq32f.xu	aeq0, a4, a8
     6b5:	604414        	ae_lq32f.i	aeq1, a4, 4
     6b8:	f92ae2022f 	{ ae_movpa24x2	aep0, a2, a2; ae_subq56	aeq1, aeq1, aeq0 }
     6bd:	030174        	ae_mulaq32sp16u.l	aeq0, aeq1, aep0
     6c0:	368204        	ae_trunca32q48	a2, aeq0
     6c3:	014360        	slli	a4, a3, 26
     6c6:	212520        	srai	a2, a2, 5
     6c9:	224a           	add.n	a2, a2, a4
     6cb:	f01d           	retw.n

000006cd <Log2_norm+0x39>:
     6cd:	fe5f21        	l32r	a2, 4c (80000000 <_end+0x7fff8514>)
     6d0:	f01d           	retw.n

000006d2 <Log2_norm+0x3e>:
	...

000006d4 <siir_safr>:
     6d4:	004136        	entry	a1, 32
     6d7:	368334        	ae_cvtq48a32s	aeq2, a3
     6da:	364234        	ae_cvtq48a32s	aeq1, a2
     6dd:	05a237        	bge	a2, a3, 6e6 <siir_safr+0x12>
     6e0:	440404        	ae_lp16x2f.i	aep0, a4, 0
     6e3:	000086        	j	6e9 <siir_safr+0x15>

000006e6 <siir_safr+0x12>:
     6e6:	440414        	ae_lp16x2f.i	aep0, a4, 4

000006e9 <siir_safr+0x15>:
     6e9:	c10864        	ae_mulzaafq32sp16s.lh	aeq1, aeq1, aep0, aeq2, aep0
     6ec:	061934        	ae_roundsq32asym	aeq0, aeq1
     6ef:	368204        	ae_trunca32q48	a2, aeq0
     6f2:	f01d           	retw.n

000006f4 <_start>:
     6f4:	004136        	entry	a1, 32
     6f7:	fe57a1        	l32r	a10, 54 (6a60 <_DYNAMIC+0xb24>)
     6fa:	fe5531        	l32r	a3, 50 (7ae0 <printf_ptr>)
     6fd:	0288           	l32i.n	a8, a2, 0
     6ff:	fe56b1        	l32r	a11, 58 (1398 <get_aec_nr_memsize>)
     702:	0389           	s32i.n	a8, a3, 0
     704:	0008e0        	callx8	a8
     707:	0388           	l32i.n	a8, a3, 0
     709:	fe54a1        	l32r	a10, 5c (6a7c <_DYNAMIC+0xb40>)
     70c:	fe55b1        	l32r	a11, 60 (1424 <Voice_EC_Init>)
     70f:	0008e0        	callx8	a8
     712:	0388           	l32i.n	a8, a3, 0
     714:	fe54a1        	l32r	a10, 64 (6a90 <_DYNAMIC+0xb54>)
     717:	fe54b1        	l32r	a11, 68 (29a0 <Voice_EC_Prcs>)
     71a:	0008e0        	callx8	a8
     71d:	0388           	l32i.n	a8, a3, 0
     71f:	fe53a1        	l32r	a10, 6c (6aa4 <_DYNAMIC+0xb68>)
     722:	fe53b1        	l32r	a11, 70 (2894 <Voice_PostEC_Prcs>)
     725:	0008e0        	callx8	a8
     728:	0388           	l32i.n	a8, a3, 0
     72a:	fe52a1        	l32r	a10, 74 (6abc <_DYNAMIC+0xb80>)
     72d:	fe52b1        	l32r	a11, 78 (2a9c <EC_REF_GAIN_READBACK>)
     730:	0008e0        	callx8	a8
     733:	0388           	l32i.n	a8, a3, 0
     735:	fe51a1        	l32r	a10, 7c (6ad8 <_DYNAMIC+0xb9c>)
     738:	fe52b1        	l32r	a11, 80 (314c <NB_RX_NR_init>)
     73b:	0008e0        	callx8	a8
     73e:	0388           	l32i.n	a8, a3, 0
     740:	fe51a1        	l32r	a10, 84 (6aec <_DYNAMIC+0xbb0>)
     743:	fe51b1        	l32r	a11, 88 (29ec <Voice_NB_RX_Prcs>)
     746:	0008e0        	callx8	a8
     749:	0388           	l32i.n	a8, a3, 0
     74b:	fe50a1        	l32r	a10, 8c (6b04 <_DYNAMIC+0xbc8>)
     74e:	fe50b1        	l32r	a11, 90 (2ec8 <WB_RX_NR_init>)
     751:	0008e0        	callx8	a8
     754:	0388           	l32i.n	a8, a3, 0
     756:	fe4fa1        	l32r	a10, 94 (6b18 <_DYNAMIC+0xbdc>)
     759:	fe4fb1        	l32r	a11, 98 (2a44 <Voice_WB_RX_Prcs>)
     75c:	0008e0        	callx8	a8
     75f:	0388           	l32i.n	a8, a3, 0
     761:	fe4ea1        	l32r	a10, 9c (6b30 <_DYNAMIC+0xbf4>)
     764:	fe4fb1        	l32r	a11, a0 (13a0 <get_aec_nr_inear_memsize>)
     767:	0008e0        	callx8	a8
     76a:	0388           	l32i.n	a8, a3, 0
     76c:	fe4ea1        	l32r	a10, a4 (6b50 <_DYNAMIC+0xc14>)
     76f:	fe4eb1        	l32r	a11, a8 (1610 <Voice_EC_Inear_Init>)
     772:	0008e0        	callx8	a8
     775:	0388           	l32i.n	a8, a3, 0
     777:	fe4da1        	l32r	a10, ac (6b6c <_DYNAMIC+0xc30>)
     77a:	fe4db1        	l32r	a11, b0 (29bc <Voice_EC_Inear_Prcs>)
     77d:	0008e0        	callx8	a8
     780:	0388           	l32i.n	a8, a3, 0
     782:	fe4ca1        	l32r	a10, b4 (6b88 <_DYNAMIC+0xc4c>)
     785:	fe4cb1        	l32r	a11, b8 (2b08 <EC_Inear_REF_GAIN_READBACK>)
     788:	0008e0        	callx8	a8
     78b:	0388           	l32i.n	a8, a3, 0
     78d:	fe4ba1        	l32r	a10, bc (6bac <_DYNAMIC+0xc70>)
     790:	fe4cb1        	l32r	a11, c0 (1390 <get_ECNR_SVN>)
     793:	0008e0        	callx8	a8
     796:	0388           	l32i.n	a8, a3, 0
     798:	fe4ba1        	l32r	a10, c4 (6bc0 <_DYNAMIC+0xc84>)
     79b:	fe4bb1        	l32r	a11, c8 (2b3c <EC_PreLim_Coef_READBACK>)
     79e:	0008e0        	callx8	a8
     7a1:	0388           	l32i.n	a8, a3, 0
     7a3:	fe4aa1        	l32r	a10, cc (6be0 <_DYNAMIC+0xca4>)
     7a6:	fe4ab1        	l32r	a11, d0 (2b90 <DaulMIC_power_Coef_READBACK>)
     7a9:	0008e0        	callx8	a8
     7ac:	fe4a21        	l32r	a2, d4 (7380 <export_parameter_array>)
     7af:	f01d           	retw.n

000007b1 <_start+0xbd>:
     7b1:	000000                                        ...

000007b4 <SBAEC_INIT>:
     7b4:	00a136        	entry	a1, 80
     7b7:	fe1b61        	l32r	a6, 24 (7ae4 <p_ecnr_mem>)
     7ba:	0b0c           	movi.n	a11, 0
     7bc:	0658           	l32i.n	a5, a6, 0
     7be:	30a1c2        	movi	a12, 0x130
     7c1:	fe4581        	l32r	a8, d8 (5ec8 <xt_memset>)
     7c4:	29d542        	addmi	a4, a5, 0x2900
     7c7:	48c432        	addi	a3, a4, 72
     7ca:	04ad           	mov.n	a10, a4
     7cc:	2ad552        	addmi	a5, a5, 0x2a00
     7cf:	88c522        	addi	a2, a5, -120
     7d2:	c8c572        	addi	a7, a5, -56
     7d5:	558b           	addi.n	a5, a5, 8
     7d7:	0008e0        	callx8	a8
     7da:	0b0c           	movi.n	a11, 0
     7dc:	c0a4c2        	movi	a12, 0x4c0
     7df:	a139           	s32i.n	a3, a1, 40
     7e1:	06a8           	l32i.n	a10, a6, 0
     7e3:	9129           	s32i.n	a2, a1, 36
     7e5:	fe3c81        	l32r	a8, d8 (5ec8 <xt_memset>)
     7e8:	13daa2        	addmi	a10, a10, 0x1300
     7eb:	80caa2        	addi	a10, a10, -128
     7ee:	0008e0        	callx8	a8
     7f1:	fe0d31        	l32r	a3, 28 (7adc <aec_nr_para>)
     7f4:	8e1c           	movi.n	a14, 24
     7f6:	03c8           	l32i.n	a12, a3, 0
     7f8:	02d422        	addmi	a2, a4, 0x200
     7fb:	fe38a1        	l32r	a10, dc (fff7 <_end+0x850b>)
     7fe:	041cd2        	l16ui	a13, a12, 8
     801:	781c           	movi.n	a8, 23
     803:	cf0c           	movi.n	a15, 12
     805:	10fdf0        	and	a15, a13, a15
     808:	02af26        	beqi	a15, 12, 80e <SBAEC_INIT+0x5a>
     80b:	0e6d47        	bbci	a13, 4, 81d <SBAEC_INIT+0x69>

0000080e <SBAEC_INIT+0x5a>:
     80e:	131c92        	l16ui	a9, a12, 38
     811:	10dda0        	and	a13, a13, a10
     814:	045cd2        	s16i	a13, a12, 8
     817:	02b897        	bgeu	a8, a9, 81d <SBAEC_INIT+0x69>
     81a:	135ce2        	s16i	a14, a12, 38
     81d:	094c           	movi.n	a9, 64
     81f:	18ed37        	bbsi	a13, 3, 83b <SBAEC_INIT+0x87>
     822:	e39cd2        	l16si	a13, a12, 0x1c6
     825:	1f4d56        	bnez	a13, a1d <SBAEC_INIT+0x269>
     828:	2a5292        	s16i	a9, a2, 84
     82b:	2c52e2        	s16i	a14, a2, 88
     82e:	0b2c           	movi.n	a11, 32
     830:	0d3c           	movi.n	a13, 48
     832:	2b52d2        	s16i	a13, a2, 86
     835:	2d52b2        	s16i	a11, a2, 90
     838:	000506        	j	850 <SBAEC_INIT+0x9c>

0000083b <SBAEC_INIT+0x87>:
     83b:	2c5292        	s16i	a9, a2, 88
     83e:	60a0e2        	movi	a14, 96
     841:	c0a0f2        	movi	a15, 192
     844:	00a182        	movi	a8, 0x100
     847:	2a5282        	s16i	a8, a2, 84
     84a:	2b52f2        	s16i	a15, a2, 86
     84d:	2d52e2        	s16i	a14, a2, 90

00000850 <SBAEC_INIT+0x9c>:
     850:	bceb           	addi.n	a11, a12, 14
     852:	fdf381        	l32r	a8, 20 (5ee0 <xt_memcpy>)
     855:	a42b           	addi.n	a10, a4, 2
     857:	ec0c           	movi.n	a12, 14
     859:	0008e0        	callx8	a8
     85c:	04ed           	mov.n	a14, a4
     85e:	0398           	l32i.n	a9, a3, 0
     860:	fe2181        	l32r	a8, e4 (b80 <Fill_CH_MEM_WB>)
     863:	06f8           	l32i.n	a15, a6, 0
     865:	0619a2        	l16ui	a10, a9, 12
     868:	d819c2        	l16ui	a12, a9, 0x1b0
     86b:	c619b2        	l16ui	a11, a9, 0x18c
     86e:	d999d2        	l16si	a13, a9, 0x1b2
     871:	13dff2        	addmi	a15, a15, 0x1300
     874:	80cff2        	addi	a15, a15, -128
     877:	1154d2        	s16i	a13, a4, 34
     87a:	0f54b2        	s16i	a11, a4, 30
     87d:	1054c2        	s16i	a12, a4, 32
     880:	91b8           	l32i.n	a11, a1, 36
     882:	07cd           	mov.n	a12, a7
     884:	05dd           	mov.n	a13, a5
     886:	11aac0        	slli	a10, a10, 4
     889:	94a9           	s32i.n	a10, a4, 36
     88b:	0998           	l32i.n	a9, a9, 0
     88d:	fe14a1        	l32r	a10, e0 (155555 <_end+0x14da69>)
     890:	44a9           	s32i.n	a10, a4, 16
     892:	a1a8           	l32i.n	a10, a1, 40
     894:	04d992        	addmi	a9, a9, 0x400
     897:	8199           	s32i.n	a9, a1, 32
     899:	0199           	s32i.n	a9, a1, 0
     89b:	0008e0        	callx8	a8
     89e:	a1a8           	l32i.n	a10, a1, 40
     8a0:	2a92b2        	l16si	a11, a2, 84
     8a3:	1d0c           	movi.n	a13, 1
     8a5:	03c8           	l32i.n	a12, a3, 0
     8a7:	06e8           	l32i.n	a14, a6, 0
     8a9:	fe0f81        	l32r	a8, e8 (b68 <Fill_sbco>)
     8ac:	169cc2        	l16si	a12, a12, 44
     8af:	11dee2        	addmi	a14, a14, 0x1100
     8b2:	5d2e92        	l32i	a9, a14, 0x174
     8b5:	e599           	s32i.n	a9, a5, 56
     8b7:	592ee2        	l32i	a14, a14, 0x164
     8ba:	d5e9           	s32i.n	a14, a5, 52
     8bc:	0008e0        	callx8	a8
     8bf:	91a8           	l32i.n	a10, a1, 36
     8c1:	fe0981        	l32r	a8, e8 (b68 <Fill_sbco>)
     8c4:	03c8           	l32i.n	a12, a3, 0
     8c6:	2b92b2        	l16si	a11, a2, 86
     8c9:	2d0c           	movi.n	a13, 2
     8cb:	179cc2        	l16si	a12, a12, 46
     8ce:	d2bbd0        	quos	a11, a11, a13
     8d1:	8bbd           	ae_sext16	a11, a11
     8d3:	1d0c           	movi.n	a13, 1
     8d5:	0008e0        	callx8	a8
     8d8:	07ad           	mov.n	a10, a7
     8da:	2c92b2        	l16si	a11, a2, 88
     8dd:	03c8           	l32i.n	a12, a3, 0
     8df:	fe0281        	l32r	a8, e8 (b68 <Fill_sbco>)
     8e2:	1d0c           	movi.n	a13, 1
     8e4:	189cc2        	l16si	a12, a12, 48
     8e7:	0008e0        	callx8	a8
     8ea:	05ad           	mov.n	a10, a5
     8ec:	2d92b2        	l16si	a11, a2, 90
     8ef:	03c8           	l32i.n	a12, a3, 0
     8f1:	fdfd81        	l32r	a8, e8 (b68 <Fill_sbco>)
     8f4:	1d0c           	movi.n	a13, 1
     8f6:	199cc2        	l16si	a12, a12, 50
     8f9:	0008e0        	callx8	a8
     8fc:	03b8           	l32i.n	a11, a3, 0
     8fe:	fdfcf1        	l32r	a15, f0 (7fff <_end+0x513>)
     901:	0698           	l32i.n	a9, a6, 0
     903:	231be2        	l16ui	a14, a11, 70
     906:	051bd2        	l16ui	a13, a11, 10
     909:	151b82        	l16ui	a8, a11, 42
     90c:	041ba2        	l16ui	a10, a11, 8
     90f:	11d992        	addmi	a9, a9, 0x1100
     912:	48c992        	addi	a9, a9, 72
     915:	04c0a0        	extui	a12, a10, 0, 1
     918:	2452c2        	s16i	a12, a2, 72
     91b:	14a1a0        	extui	a10, a10, 1, 2
     91e:	021bc2        	l16ui	a12, a11, 4
     921:	7d5982        	s16i	a8, a9, 250
     924:	dc1bb2        	l16ui	a11, a11, 0x1b8
     927:	8259a2        	s16i	a10, a9, 0x104
     92a:	1554f2        	s16i	a15, a4, 42
     92d:	2652e2        	s16i	a14, a2, 76
     930:	2552d2        	s16i	a13, a2, 74
     933:	64cd           	ae_s16i.n	a12, a4, 0
     935:	4e42b2        	s8i	a11, a2, 78
     938:	03a8           	l32i.n	a10, a3, 0
     93a:	dc1aa2        	l16ui	a10, a10, 0x1b8
     93d:	41a8a0        	srli	a10, a10, 8
     940:	4f42a2        	s8i	a10, a2, 79
     943:	06c8           	l32i.n	a12, a6, 0
     945:	fde951        	l32r	a5, ec (1148 <subband_aec_mid_channel+0xc8>)
     948:	11dc82        	addmi	a8, a12, 0x1100
     94b:	48c882        	addi	a8, a8, 72
     94e:	829882        	l16si	a8, a8, 0x104
     951:	452992        	l32i	a9, a9, 0x114
     954:	146292        	s32i	a9, a2, 80
     957:	fec882        	addi	a8, a8, -2
     95a:	0bd856        	bnez	a8, a1b <SBAEC_INIT+0x267>
     95d:	04ed           	mov.n	a14, a4
     95f:	02d4d2        	addmi	a13, a4, 0x200
     962:	2b92a2        	l16si	a10, a2, 86
     965:	2d92b2        	l16si	a11, a2, 90
     968:	8198           	l32i.n	a9, a1, 32
     96a:	2c9282        	l16si	a8, a2, 88
     96d:	2a92f2        	l16si	a15, a2, 84
     970:	01d992        	addmi	a9, a9, 0x100
     973:	88ba           	add.n	a8, a8, a11
     975:	ffaa           	add.n	a15, a15, a10
     977:	18c992        	addi	a9, a9, 24
     97a:	0199           	s32i.n	a9, a1, 0
     97c:	01d4a2        	addmi	a10, a4, 0x100
     97f:	88cdb2        	addi	a11, a13, -120
     982:	61b9           	s32i.n	a11, a1, 24
     984:	ff8a           	add.n	a15, a15, a8
     986:	48caa2        	addi	a10, a10, 72
     989:	41a9           	s32i.n	a10, a1, 16
     98b:	a0ffc0        	addx4	a15, a15, a12
     98e:	fdd581        	l32r	a8, e4 (b80 <Fill_CH_MEM_WB>)
     991:	0dcd           	mov.n	a12, a13
     993:	13dff2        	addmi	a15, a15, 0x1300
     996:	80cff2        	addi	a15, a15, -128
     999:	c8ccc2        	addi	a12, a12, -56
     99c:	dd8b           	addi.n	a13, a13, 8
     99e:	71d9           	s32i.n	a13, a1, 28
     9a0:	51c9           	s32i.n	a12, a1, 20
     9a2:	0008e0        	callx8	a8
     9a5:	41a8           	l32i.n	a10, a1, 16
     9a7:	2a92b2        	l16si	a11, a2, 84
     9aa:	a1e8           	l32i.n	a14, a1, 40
     9ac:	03c8           	l32i.n	a12, a3, 0
     9ae:	9188           	l32i.n	a8, a1, 36
     9b0:	06f8           	l32i.n	a15, a6, 0
     9b2:	1a9cc2        	l16si	a12, a12, 52
     9b5:	e888           	l32i.n	a8, a8, 56
     9b7:	ff5a           	add.n	a15, a15, a5
     9b9:	706482        	s32i	a8, a4, 0x1c0
     9bc:	492f82        	l32i	a8, a15, 0x124
     9bf:	8f6482        	s32i	a8, a4, 0x23c
     9c2:	4b2ff2        	l32i	a15, a15, 0x12c
     9c5:	9064f2        	s32i	a15, a4, 0x240
     9c8:	fdc881        	l32r	a8, e8 (b68 <Fill_sbco>)
     9cb:	eee8           	l32i.n	a14, a14, 56
     9cd:	6064e2        	s32i	a14, a4, 0x180
     9d0:	e7d8           	l32i.n	a13, a7, 56
     9d2:	8064d2        	s32i	a13, a4, 0x200
     9d5:	0d0c           	movi.n	a13, 0
     9d7:	0008e0        	callx8	a8
     9da:	5158           	l32i.n	a5, a1, 20
     9dc:	61a8           	l32i.n	a10, a1, 24
     9de:	fdc281        	l32r	a8, e8 (b68 <Fill_sbco>)
     9e1:	03c8           	l32i.n	a12, a3, 0
     9e3:	2b92b2        	l16si	a11, a2, 86
     9e6:	2d0c           	movi.n	a13, 2
     9e8:	1b9cc2        	l16si	a12, a12, 54
     9eb:	d2bbd0        	quos	a11, a11, a13
     9ee:	8bbd           	ae_sext16	a11, a11
     9f0:	0d0c           	movi.n	a13, 0
     9f2:	0008e0        	callx8	a8
     9f5:	05ad           	mov.n	a10, a5
     9f7:	2c92b2        	l16si	a11, a2, 88
     9fa:	0d0c           	movi.n	a13, 0
     9fc:	03c8           	l32i.n	a12, a3, 0
     9fe:	fdba81        	l32r	a8, e8 (b68 <Fill_sbco>)
     a01:	7148           	l32i.n	a4, a1, 28
     a03:	1c9cc2        	l16si	a12, a12, 56
     a06:	0008e0        	callx8	a8
     a09:	04ad           	mov.n	a10, a4
     a0b:	2d92b2        	l16si	a11, a2, 90
     a0e:	03c8           	l32i.n	a12, a3, 0
     a10:	fdb681        	l32r	a8, e8 (b68 <Fill_sbco>)
     a13:	0d0c           	movi.n	a13, 0
     a15:	1d9cc2        	l16si	a12, a12, 58
     a18:	0008e0        	callx8	a8

00000a1b <SBAEC_INIT+0x267>:
     a1b:	f01d           	retw.n

00000a1d <SBAEC_INIT+0x269>:
     a1d:	131ce2        	l16ui	a14, a12, 38
     a20:	34f4d0        	extui	a15, a13, 4, 4
     a23:	3480d0        	extui	a8, a13, 0, 4
     a26:	881b           	addi.n	a8, a8, 1
     a28:	ff1b           	addi.n	a15, a15, 1
     a2a:	11ffd0        	slli	a15, a15, 3
     a2d:	1188e0        	slli	a8, a8, 2
     a30:	2a5282        	s16i	a8, a2, 84
     a33:	2b52f2        	s16i	a15, a2, 86
     a36:	888d           	ae_sext16	a8, a8
     a38:	43ee80        	min	a14, a14, a8
     a3b:	8ffd           	ae_sext16	a15, a15
     a3d:	280c           	movi.n	a8, 2
     a3f:	d2ff80        	quos	a15, a15, a8
     a42:	8ffd           	ae_sext16	a15, a15
     a44:	43eef0        	min	a14, a14, a15
     a47:	34f8d0        	extui	a15, a13, 8, 4
     a4a:	ff1b           	addi.n	a15, a15, 1
     a4c:	11ffe0        	slli	a15, a15, 2
     a4f:	2c52f2        	s16i	a15, a2, 88
     a52:	8ffd           	ae_sext16	a15, a15
     a54:	43eef0        	min	a14, a14, a15
     a57:	34fcd0        	extui	a15, a13, 12, 4
     a5a:	ff1b           	addi.n	a15, a15, 1
     a5c:	11ffe0        	slli	a15, a15, 2
     a5f:	2d52f2        	s16i	a15, a2, 90
     a62:	8ffd           	ae_sext16	a15, a15
     a64:	43eef0        	min	a14, a14, a15
     a67:	135ce2        	s16i	a14, a12, 38
     a6a:	ff7886        	j	850 <SBAEC_INIT+0x9c>

00000a6d <SBAEC_INIT+0x2b9>:
     a6d:	000000                                        ...

00000a70 <SBAEC_INIT_inear>:
     a70:	008136        	entry	a1, 64
     a73:	29d2e2        	addmi	a14, a2, 0x2900
     a76:	fd9b81        	l32r	a8, e4 (b80 <Fill_CH_MEM_WB>)
     a79:	2ad232        	addmi	a3, a2, 0x2a00
     a7c:	ad9352        	l16si	a5, a3, 0x15a
     a7f:	ac9342        	l16si	a4, a3, 0x158
     a82:	ab9362        	l16si	a6, a3, 0x156
     a85:	aa93f2        	l16si	a15, a3, 0x154
     a88:	5cc332        	addi	a3, a3, 92
     a8b:	445a           	add.n	a4, a4, a5
     a8d:	ff6a           	add.n	a15, a15, a6
     a8f:	fd6651        	l32r	a5, 28 (7adc <aec_nr_para>)
     a92:	ff4a           	add.n	a15, a15, a4
     a94:	b0ff20        	addx8	a15, a15, a2
     a97:	45d242        	addmi	a4, a2, 0x4500
     a9a:	762442        	l32i	a4, a4, 0x1d8
     a9d:	05b8           	l32i.n	a11, a5, 0
     a9f:	13dff2        	addmi	a15, a15, 0x1300
     aa2:	80cff2        	addi	a15, a15, -128
     aa5:	0bb8           	l32i.n	a11, a11, 0
     aa7:	01d4a2        	addmi	a10, a4, 0x100
     aaa:	58ca62        	addi	a6, a10, 88
     aad:	18ca72        	addi	a7, a10, 24
     ab0:	07cd           	mov.n	a12, a7
     ab2:	06dd           	mov.n	a13, a6
     ab4:	06dbb2        	addmi	a11, a11, 0x600
     ab7:	e0cbb2        	addi	a11, a11, -32
     aba:	01b9           	s32i.n	a11, a1, 0
     abc:	d8cab2        	addi	a11, a10, -40
     abf:	51b9           	s32i.n	a11, a1, 20
     ac1:	98caa2        	addi	a10, a10, -104
     ac4:	41a9           	s32i.n	a10, a1, 16
     ac6:	0008e0        	callx8	a8
     ac9:	41a8           	l32i.n	a10, a1, 16
     acb:	7c93b2        	l16si	a11, a3, 248
     ace:	05c8           	l32i.n	a12, a5, 0
     ad0:	28d2e2        	addmi	a14, a2, 0x2800
     ad3:	12d282        	addmi	a8, a2, 0x1200
     ad6:	9a24d2        	l32i	a13, a4, 0x268
     ad9:	6364d2        	s32i	a13, a4, 0x18c
     adc:	1d2882        	l32i	a8, a8, 116
     adf:	4d0c           	movi.n	a13, 4
     ae1:	646482        	s32i	a8, a4, 0x190
     ae4:	702e22        	l32i	a2, a14, 0x1c0
     ae7:	fd8081        	l32r	a8, e8 (b68 <Fill_sbco>)
     aea:	602ef2        	l32i	a15, a14, 0x180
     aed:	446422        	s32i	a2, a4, 0x110
     af0:	02dcc2        	addmi	a12, a12, 0x200
     af3:	579cc2        	l16si	a12, a12, 174
     af6:	b4a122        	movi	a2, 0x1b4
     af9:	3464f2        	s32i	a15, a4, 208
     afc:	802ee2        	l32i	a14, a14, 0x200
     aff:	5464e2        	s32i	a14, a4, 0x150
     b02:	0008e0        	callx8	a8
     b05:	51a8           	l32i.n	a10, a1, 20
     b07:	fd7881        	l32r	a8, e8 (b68 <Fill_sbco>)
     b0a:	05c8           	l32i.n	a12, a5, 0
     b0c:	7d93b2        	l16si	a11, a3, 250
     b0f:	2d0c           	movi.n	a13, 2
     b11:	cc2a           	add.n	a12, a12, a2
     b13:	d2bbd0        	quos	a11, a11, a13
     b16:	8bbd           	ae_sext16	a11, a11
     b18:	7e9cc2        	l16si	a12, a12, 252
     b1b:	4d0c           	movi.n	a13, 4
     b1d:	0008e0        	callx8	a8
     b20:	07ad           	mov.n	a10, a7
     b22:	7e93b2        	l16si	a11, a3, 252
     b25:	05c8           	l32i.n	a12, a5, 0
     b27:	4d0c           	movi.n	a13, 4
     b29:	fd6f81        	l32r	a8, e8 (b68 <Fill_sbco>)
     b2c:	cc2a           	add.n	a12, a12, a2
     b2e:	7f9cc2        	l16si	a12, a12, 254
     b31:	0008e0        	callx8	a8
     b34:	06ad           	mov.n	a10, a6
     b36:	7f93b2        	l16si	a11, a3, 254
     b39:	05c8           	l32i.n	a12, a5, 0
     b3b:	4d0c           	movi.n	a13, 4
     b3d:	fd6a81        	l32r	a8, e8 (b68 <Fill_sbco>)
     b40:	cc2a           	add.n	a12, a12, a2
     b42:	809cc2        	l16si	a12, a12, 0x100
     b45:	0008e0        	callx8	a8
     b48:	3c0c           	movi.n	a12, 3
     b4a:	fd3581        	l32r	a8, 20 (5ee0 <xt_memcpy>)
     b4d:	05b8           	l32i.n	a11, a5, 0
     b4f:	02d4a2        	addmi	a10, a4, 0x200
     b52:	56caa2        	addi	a10, a10, 86
     b55:	03dbb2        	addmi	a11, a11, 0x300
     b58:	88cbb2        	addi	a11, a11, -120
     b5b:	0008e0        	callx8	a8
     b5e:	406342        	s32i	a4, a3, 0x100
     b61:	f01d           	retw.n

00000b63 <SBAEC_INIT_inear+0xf3>:
     b63:	00000000 00413600                                .....

00000b68 <Fill_sbco>:
     b68:	004136        	entry	a1, 32
     b6b:	115232        	s16i	a3, a2, 34
     b6e:	125252        	s16i	a5, a2, 36
     b71:	118400        	slli	a8, a4, 16
     b74:	fd5f61        	l32r	a6, f0 (7fff <_end+0x513>)
     b77:	105262        	s16i	a6, a2, 32
     b7a:	5289           	s32i.n	a8, a2, 20
     b7c:	4289           	s32i.n	a8, a2, 16
     b7e:	f01d           	retw.n

00000b80 <Fill_CH_MEM_WB>:
     b80:	004136        	entry	a1, 32
     b83:	8188           	l32i.n	a8, a1, 32
     b85:	a279           	s32i.n	a7, a2, 40
     b87:	01d6b2        	addmi	a11, a6, 0x100
     b8a:	ad9be2        	l16si	a14, a11, 0x15a
     b8d:	aa9bc2        	l16si	a12, a11, 0x154
     b90:	ac9ba2        	l16si	a10, a11, 0x158
     b93:	ab9bb2        	l16si	a11, a11, 0x156
     b96:	909c70        	addx2	a9, a12, a7
     b99:	a399           	s32i.n	a9, a3, 40
     b9b:	90db90        	addx2	a13, a11, a9
     b9e:	a4d9           	s32i.n	a13, a4, 40
     ba0:	90dad0        	addx2	a13, a10, a13
     ba3:	a5d9           	s32i.n	a13, a5, 40
     ba5:	90eed0        	addx2	a14, a14, a13
     ba8:	90cce0        	addx2	a12, a12, a14
     bab:	90bbc0        	addx2	a11, a11, a12
     bae:	90aab0        	addx2	a10, a10, a11
     bb1:	b2e9           	s32i.n	a14, a2, 44
     bb3:	a2f8           	l32i.n	a15, a2, 40
     bb5:	a4e8           	l32i.n	a14, a4, 40
     bb7:	b3c9           	s32i.n	a12, a3, 44
     bb9:	b4b9           	s32i.n	a11, a4, 44
     bbb:	28c8c2        	addi	a12, a8, 40
     bbe:	50c8b2        	addi	a11, a8, 80
     bc1:	b5a9           	s32i.n	a10, a5, 44
     bc3:	c399           	s32i.n	a9, a3, 48
     bc5:	64c8a2        	addi	a10, a8, 100
     bc8:	78c892        	addi	a9, a8, 120
     bcb:	c2f9           	s32i.n	a15, a2, 48
     bcd:	c4e9           	s32i.n	a14, a4, 48
     bcf:	c5d9           	s32i.n	a13, a5, 48
     bd1:	d389           	s32i.n	a8, a3, 52
     bd3:	f3c9           	s32i.n	a12, a3, 60
     bd5:	01d882        	addmi	a8, a8, 0x100
     bd8:	d2b9           	s32i.n	a11, a2, 52
     bda:	8cc8c2        	addi	a12, a8, -116
     bdd:	a0c8b2        	addi	a11, a8, -96
     be0:	d4a9           	s32i.n	a10, a4, 52
     be2:	f299           	s32i.n	a9, a2, 60
     be4:	c8c8a2        	addi	a10, a8, -56
     be7:	f0c892        	addi	a9, a8, -16
     bea:	f4c9           	s32i.n	a12, a4, 60
     bec:	884b           	addi.n	a8, a8, 4
     bee:	f5b9           	s32i.n	a11, a5, 60
     bf0:	e3a9           	s32i.n	a10, a3, 56
     bf2:	e299           	s32i.n	a9, a2, 56
     bf4:	e489           	s32i.n	a8, a4, 56
     bf6:	f01d           	retw.n

00000bf8 <common_x_pow>:
     bf8:	006136        	entry	a1, 48
     bfb:	fd4091        	l32r	a9, fc (73c0 <immediate_num>)
     bfe:	36c434        	ae_cvtq48a32s	aeq3, a4
     c01:	fe84bec33f 	{ ae_cvtq48a32s	aeq0, a3; ae_absq56	aeq2, aeq3 }
     c06:	065864        	ae_absq56	aeq1, aeq0
     c09:	d65413622f 	{ or	a6, a2, a2; ae_ltq56s	b0, aeq1, aeq2 }
     c0e:	fd3951        	l32r	a5, f4 (200000 <_end+0x1f8514>)
     c11:	441904        	ae_lp16x2f.i	aep1, a9, 0
     c14:	200076        	bf	b0, c38 <common_x_pow+0x40>
     c17:	fb36fec57f 	{ ae_cvtq48a32s	aeq1, a5; ae_subq56	aeq3, aeq2, aeq1 }
     c1c:	d65d80012f 	{ movi	a2, 1; ae_ltq56s	b6, aeq1, aeq3 }
     c21:	fd3581        	l32r	a8, f8 (2aaa00 <_end+0x2a2f14>)
     c24:	ff0462088f 	{ ae_movpa24x2	aep0, a8, a8; ae_movq56	aeq3, aeq0 }
     c29:	080676        	bf	b6, c35 <common_x_pow+0x3d>
     c2c:	030a14        	ae_mulfq32sp16s.l	aeq1, aeq0, aep0
     c2f:	06d934        	ae_roundsq32asym	aeq3, aeq1
     c32:	ffffc6        	j	c35 <common_x_pow+0x3d>

00000c35 <common_x_pow+0x3d>:
     c35:	000046        	j	c3a <common_x_pow+0x42>

00000c38 <common_x_pow+0x40>:
     c38:	020c           	movi.n	a2, 0

00000c3a <common_x_pow+0x42>:
     c3a:	608624        	ae_lq32f.i	aeq2, a6, 8
     c3d:	0f243d263f 	{ ae_lq32f.i	aeq1, a6, 12; ae_mulzaafq32sp16s.lh	aeq2, aeq2, aep1, aeq0, aep1 }
     c42:	c11974        	ae_mulzaafq32sp16s.lh	aeq1, aeq1, aep1, aeq3, aep1
     c45:	06a934        	ae_roundsq32asym	aeq2, aeq2
     c48:	fe2c79a62f 	{ ae_sq32f.i	aeq2, a6, 8; ae_roundsq32asym	aeq2, aeq1 }
     c4d:	622634        	ae_sq32f.i	aeq2, a6, 12
     c50:	f01d           	retw.n

00000c52 <common_x_pow+0x5a>:
	...

00000c54 <ref_gain_adapt>:
     c54:	004136        	entry	a1, 32
     c57:	fd2791        	l32r	a9, f4 (200000 <_end+0x1f8514>)
     c5a:	5378           	l32i.n	a7, a3, 20
     c5c:	fd2981        	l32r	a8, 100 (73c4 <immediate_num+0x4>)
     c5f:	360734        	ae_cvtq48a32s	aeq0, a7
     c62:	0205d6        	bgez	a5, c86 <ref_gain_adapt+0x32>
     c65:	440804        	ae_lp16x2f.i	aep0, a8, 0
     c68:	059262        	l16si	a6, a2, 10
     c6b:	368434        	ae_cvtq48a32s	aeq2, a4
     c6e:	038a84        	ae_mulfq32sp16s.h	aeq3, aeq2, aep0
     c71:	116600        	slli	a6, a6, 16
     c74:	364634        	ae_cvtq48a32s	aeq1, a6
     c77:	09b104        	ae_ltq56s	b0, aeq1, aeq3
     c7a:	1e0076        	bf	b0, c9c <ref_gain_adapt+0x48>
     c7d:	a10004        	ae_mulzaafq32sp16s.ll	aeq0, aeq0, aep0, aeq0, aep0

00000c80 <ref_gain_adapt+0x2c>:
     c80:	060934        	ae_roundsq32asym	aeq0, aeq0
     c83:	368704        	ae_trunca32q48	a7, aeq0

00000c86 <ref_gain_adapt+0x32>:
     c86:	608344        	ae_lq32f.i	aeq2, a3, 16
     c89:	539790        	max	a9, a7, a9
     c8c:	5399           	s32i.n	a9, a3, 20
     c8e:	440844        	ae_lp16x2f.i	aep0, a8, 16
     c91:	c18084        	ae_mulzaafq32sp16s.lh	aeq2, aeq2, aep0, aeq0, aep0
     c94:	066934        	ae_roundsq32asym	aeq1, aeq2
     c97:	621344        	ae_sq32f.i	aeq1, a3, 16
     c9a:	f01d           	retw.n

00000c9c <ref_gain_adapt+0x48>:
     c9c:	440814        	ae_lp16x2f.i	aep0, a8, 4
     c9f:	038a84        	ae_mulfq32sp16s.h	aeq3, aeq2, aep0
     ca2:	09b114        	ae_ltq56s	b1, aeq1, aeq3
     ca5:	050176        	bf	b1, cae <ref_gain_adapt+0x5a>
     ca8:	a10004        	ae_mulzaafq32sp16s.ll	aeq0, aeq0, aep0, aeq0, aep0
     cab:	fff446        	j	c80 <ref_gain_adapt+0x2c>

00000cae <ref_gain_adapt+0x5a>:
     cae:	440824        	ae_lp16x2f.i	aep0, a8, 8
     cb1:	038a44        	ae_mulfq32sp16s.h	aeq3, aeq1, aep0
     cb4:	09b224        	ae_ltq56s	b2, aeq2, aeq3
     cb7:	d5e36d183f 	{ ae_lp16x2f.i	aep1, a8, 12; ae_mulfq32sp16s.l	aeq3, aeq1, aep0 }
     cbc:	c00276        	bf	b2, c80 <ref_gain_adapt+0x2c>
     cbf:	09a334        	ae_ltq56s	b3, aeq3, aeq2
     cc2:	02d2b2        	addmi	a11, a2, 0x200
     cc5:	3a0c           	movi.n	a10, 3
     cc7:	051376        	bt	b3, cd0 <ref_gain_adapt+0x7c>
     cca:	4e0bb2        	l8ui	a11, a11, 78
     ccd:	af0ab7        	bnone	a10, a11, c80 <ref_gain_adapt+0x2c>

00000cd0 <ref_gain_adapt+0x7c>:
     cd0:	031214        	ae_mulfq32sp16s.l	aeq0, aeq0, aep1
     cd3:	ffea46        	j	c80 <ref_gain_adapt+0x2c>

00000cd6 <ref_gain_adapt+0x82>:
	...

00000cd8 <aec_post_calc>:
     cd8:	006136        	entry	a1, 48
     cdb:	fd0b91        	l32r	a9, 108 (80000 <_end+0x78514>)
     cde:	fd09a1        	l32r	a10, 104 (10000 <_end+0x8514>)
     ce1:	5d4466        	bnei	a4, 4, d42 <aec_post_calc+0x6a>
     ce4:	364934        	ae_cvtq48a32s	aeq1, a9
     ce7:	20c2d2        	addi	a13, a2, 32
     cea:	400d04        	ae_lp16f.i	aep0, a13, 0
     ced:	d4e3f023be 	{ l32i	a11, a3, 8; ae_mulfq32sp16u.l	aeq1, aeq1, aep0 }
     cf2:	360a34        	ae_cvtq48a32s	aeq0, a10
     cf5:	621104        	ae_sq32f.i	aeq1, a1, 0
     cf8:	d4e2b001ce 	{ l32i	a12, a1, 0; ae_mulfq32sp16u.l	aeq0, aeq0, aep0 }
     cfd:	620104        	ae_sq32f.i	aeq0, a1, 0
     d00:	53bbc0        	max	a11, a11, a12

00000d03 <aec_post_calc+0x2b>:
     d03:	01c8           	l32i.n	a12, a1, 0
     d05:	33a8           	l32i.n	a10, a3, 12
     d07:	fd0181        	l32r	a8, 10c (4098 <airoha_divide_limit_1>)
     d0a:	53aac0        	max	a10, a10, a12
     d0d:	43aba0        	min	a10, a11, a10
     d10:	0008e0        	callx8	a8
     d13:	4c2244        	ae_lp24.i	aep2, a2, 16
     d16:	379aa4        	ae_truncp24a32x2	aep1, a10, a10
     d19:	60c364        	ae_lq32f.i	aeq3, a3, 24
     d1c:	019a34        	ae_mulafp24s.ll	aeq3, aep1, aep2
     d1f:	fe3c7d037f 	{ ae_lq32f.i	aeq0, a3, 28; ae_roundsq32asym	aeq2, aeq3 }
     d24:	622364        	ae_sq32f.i	aeq2, a3, 24
     d27:	1792e2        	l16si	a14, a2, 46
     d2a:	0292d2        	l16si	a13, a2, 4
     d2d:	403274        	ae_lp16f.i	aep3, a2, 14
     d30:	f866a162fe 	{ l16si	a15, a2, 44; ae_movp48	aep0, aep1 }
     d35:	2bade7        	bge	a13, a14, d64 <aec_post_calc+0x8c>
     d38:	0a9292        	l16si	a9, a2, 20
     d3b:	411fe6        	bgei	a15, 1, d80 <aec_post_calc+0xa8>
     d3e:	001006        	j	d82 <aec_post_calc+0xaa>

00000d41 <aec_post_calc+0x69>:
	...

00000d42 <aec_post_calc+0x6a>:
     d42:	364934        	ae_cvtq48a32s	aeq1, a9
     d45:	1ec2d2        	addi	a13, a2, 30
     d48:	401d04        	ae_lp16f.i	aep1, a13, 0
     d4b:	d4e7f023be 	{ l32i	a11, a3, 8; ae_mulfq32sp16u.l	aeq1, aeq1, aep1 }
     d50:	360a34        	ae_cvtq48a32s	aeq0, a10
     d53:	621104        	ae_sq32f.i	aeq1, a1, 0
     d56:	d4e6b001ce 	{ l32i	a12, a1, 0; ae_mulfq32sp16u.l	aeq0, aeq0, aep1 }
     d5b:	620104        	ae_sq32f.i	aeq0, a1, 0
     d5e:	53bbc0        	max	a11, a11, a12
     d61:	ffe786        	j	d03 <aec_post_calc+0x2b>

00000d64 <aec_post_calc+0x8c>:
     d64:	0b9292        	l16si	a9, a2, 22
     d67:	e90b           	addi.n	a14, a9, -1
     d69:	05ae76        	loopgtz	a14, d72 <aec_post_calc+0x9a>
     d6c:	018174        	ae_mulfp24s.ll	aeq2, aep0, aep1
     d6f:	1bad04        	ae_roundsp24q48asym	aep0, aeq2

00000d72 <aec_post_calc+0x9a>:
     d72:	070b34        	ae_maxp24s	aep3, aep0, aep3
     d75:	013234        	ae_mulafp24s.ll	aeq0, aep3, aep2
     d78:	06c934        	ae_roundsq32asym	aeq3, aeq0
     d7b:	623374        	ae_sq32f.i	aeq3, a3, 28
     d7e:	f01d           	retw.n

00000d80 <aec_post_calc+0xa8>:
     d80:	992b           	addi.n	a9, a9, 2

00000d82 <aec_post_calc+0xaa>:
     d82:	031694        	wur.ae_sar	a9
     d85:	0b1084        	ae_sllssp24s	aep0, aep1
     d88:	fff986        	j	d72 <aec_post_calc+0x9a>

00000d8b <aec_post_calc+0xb3>:
	...

00000d8c <aec_post_calc_FB>:
     d8c:	004136        	entry	a1, 32
     d8f:	972242        	l32i	a4, a2, 0x25c
     d92:	fcde81        	l32r	a8, 10c (4098 <airoha_divide_limit_1>)
     d95:	fca6b1        	l32r	a11, 30 (1000 <subband_aec_block+0x1f4>)
     d98:	33c8           	l32i.n	a12, a3, 12
     d9a:	23a8           	l32i.n	a10, a3, 8
     d9c:	00a2d2        	movi	a13, 0x200
     d9f:	53ccd0        	max	a12, a12, a13
     da2:	53aab0        	max	a10, a10, a11
     da5:	0abd           	mov.n	a11, a10
     da7:	43aac0        	min	a10, a10, a12
     daa:	0008e0        	callx8	a8
     dad:	4c2244        	ae_lp24.i	aep2, a2, 16
     db0:	379aa4        	ae_truncp24a32x2	aep1, a10, a10
     db3:	604364        	ae_lq32f.i	aeq1, a3, 24
     db6:	011a34        	ae_mulafp24s.ll	aeq1, aep1, aep2
     db9:	01d4a2        	addmi	a10, a4, 0x100
     dbc:	061934        	ae_roundsq32asym	aeq0, aeq1
     dbf:	620364        	ae_sq32f.i	aeq0, a3, 24
     dc2:	ae9af2        	l16si	a15, a10, 0x15c
     dc5:	0292e2        	l16si	a14, a2, 4
     dc8:	02d4b2        	addmi	a11, a4, 0x200
     dcb:	f866856bbe 	{ addi	a11, a11, 86; ae_movp48	aep0, aep1 }
     dd0:	0caef7        	bge	a14, a15, de0 <aec_post_calc_FB+0x54>
     dd3:	af9a82        	l16si	a8, a10, 0x15e
     dd6:	0a9292        	l16si	a9, a2, 20
     dd9:	2418e6        	bgei	a8, 1, e01 <aec_post_calc_FB+0x75>
     ddc:	0008c6        	j	e03 <aec_post_calc_FB+0x77>

00000ddf <aec_post_calc_FB+0x53>:
	...

00000de0 <aec_post_calc_FB+0x54>:
     de0:	0b9292        	l16si	a9, a2, 22
     de3:	a90b           	addi.n	a10, a9, -1
     de5:	05aa76        	loopgtz	a10, dee <aec_post_calc_FB+0x62>
     de8:	018174        	ae_mulfp24s.ll	aeq2, aep0, aep1
     deb:	1bad04        	ae_roundsp24q48asym	aep0, aeq2

00000dee <aec_post_calc_FB+0x62>:
     dee:	401b04        	ae_lp16f.i	aep1, a11, 0
     df1:	d8227d037f 	{ ae_lq32f.i	aeq0, a3, 28; ae_maxp24s	aep1, aep0, aep1 }
     df6:	011234        	ae_mulafp24s.ll	aeq0, aep1, aep2
     df9:	06c934        	ae_roundsq32asym	aeq3, aeq0
     dfc:	623374        	ae_sq32f.i	aeq3, a3, 28
     dff:	f01d           	retw.n

00000e01 <aec_post_calc_FB+0x75>:
     e01:	992b           	addi.n	a9, a9, 2

00000e03 <aec_post_calc_FB+0x77>:
     e03:	031694        	wur.ae_sar	a9
     e06:	0b1084        	ae_sllssp24s	aep0, aep1
     e09:	fff846        	j	dee <aec_post_calc_FB+0x62>

00000e0c <subband_aec_block>:
     e0c:	008136        	entry	a1, 64
     e0f:	069d           	mov.n	a9, a6
     e11:	c3d8           	l32i.n	a13, a3, 48
     e13:	4e0c           	movi.n	a14, 4
     e15:	60c344        	ae_lq32f.i	aeq3, a3, 16
     e18:	119382        	l16si	a8, a3, 34
     e1b:	e3c8           	l32i.n	a12, a3, 56
     e1d:	9422b2        	l32i	a11, a2, 0x250
     e20:	2a0c           	movi.n	a10, 2
     e22:	0a23f2        	l32i	a15, a3, 40
     e25:	f3f6f0        	wur.ae_cbegin0	a15
     e28:	d2a4a0        	quos	a10, a4, a10
     e2b:	fccbb2        	addi	a11, a11, -4
     e2e:	440c04        	ae_lp16x2f.i	aep0, a12, 0
     e31:	fc249188ff 	{ addx2	a8, a8, a15; ae_zeroq56	aeq0 }
     e36:	f3f780        	wur.ae_cend0	a8
     e39:	19aa76        	loopgtz	a10, e56 <subband_aec_block+0x4a>
     e3c:	a180f4        	ae_mulzaafq32sp16s.ll	aeq2, aeq3, aep0, aeq3, aep0
     e3f:	b108f4        	ae_mulzaafq32sp16s.hh	aeq1, aeq3, aep0, aeq3, aep0
     e42:	f9739abdef 	{ ae_lp16x2f.c	aep3, a13, a14; ae_roundsp16q48asym	aep2, aeq2 }
     e47:	f86bed8c1f 	{ ae_lp16x2f.iu	aep0, a12, 4; ae_roundsp16q48asym	aep1, aeq1 }
     e4c:	f06e3e125f 	{ ae_selp24.hl	aep1, aep1, aep2; ae_mulssfp24s.hh.ll	aeq0, aep3, aep3 }
     e51:	e224339b1f 	{ ae_sp16x2f.iu	aep1, a11, 4; ae_mulaafp24s.hh.ll	aeq0, aep1, aep1 }

00000e56 <subband_aec_block+0x4a>:
     e56:	31a9           	s32i.n	a10, a1, 12
     e58:	35c234        	ae_sraiq56	aeq3, aeq0, 8
     e5b:	618304        	ae_lq56.i	aeq2, a3, 0
     e5e:	faf63092be 	{ l32i	a11, a2, 36; ae_addq56	aeq2, aeq2, aeq3 }
     e63:	fc80fecb7f 	{ ae_cvtq48a32s	aeq1, a11; ae_satq48s	aeq0, aeq2 }
     e68:	f86b14219f 	{ s32i.n	a9, a1, 8; ae_maxq56s	aeq0, aeq0, aeq1 }
     e6d:	630304        	ae_sq56s.i	aeq0, a3, 0
     e70:	0125d6        	bgez	a5, e86 <subband_aec_block+0x7a>
     e73:	1093a2        	l16si	a10, a3, 32
     e76:	fca681        	l32r	a8, 110 (3f90 <airoha_divide>)
     e79:	368b04        	ae_trunca32q48	a11, aeq0
     e7c:	11aa70        	slli	a10, a10, 9
     e7f:	0008e0        	callx8	a8
     e82:	01b9           	s32i.n	a11, a1, 0
     e84:	11a9           	s32i.n	a10, a1, 4

00000e86 <subband_aec_block+0x7a>:
     e86:	270c           	movi.n	a7, 2
     e88:	c3a8           	l32i.n	a10, a3, 48
     e8a:	119362        	l16si	a6, a3, 34
     e8d:	0f2392        	l32i	a9, a3, 60
     e90:	9422d2        	l32i	a13, a2, 0x250
     e93:	0b23c2        	l32i	a12, a3, 44
     e96:	0d23e2        	l32i	a14, a3, 52
     e99:	fecdd2        	addi	a13, a13, -2
     e9c:	feccc2        	addi	a12, a12, -2
     e9f:	feceb2        	addi	a11, a14, -2
     ea2:	fec9f2        	addi	a15, a9, -2
     ea5:	5e14a6        	blti	a4, 1, f07 <subband_aec_block+0xfb>
     ea8:	00a0e2        	movi	a14, 0

00000eab <subband_aec_block+0x9f>:
     eab:	0c9d           	mov.n	a9, a12
     ead:	40dd14        	ae_lp16f.iu	aep5, a13, 2
     eb0:	fc24e2da7f 	{ ae_sp16f.l.c	aep5, a10, a7; nop }
     eb5:	40cb14        	ae_lp16f.iu	aep4, a11, 2
     eb8:	fc8c2c891f 	{ ae_lp16f.iu	aep0, a9, 2; ae_cvtq48p24s.l	aeq0, aep4 }
     ebd:	09a676        	loopgtz	a6, eca <subband_aec_block+0xbe>
     ec0:	fc24d96a7f 	{ ae_lp16f.c	aep6, a10, a7; nop }
     ec5:	eec1ac891f 	{ ae_lp16f.iu	aep0, a9, 2; ae_mulsfp24s.ll	aeq0, aep0, aep6 }

00000eca <subband_aec_block+0xbe>:
     eca:	f863801eee 	{ addi	a14, a14, 1; ae_roundsp16q48asym	aep0, aeq0 }
     ecf:	428f14        	ae_sp16f.l.iu	aep0, a15, 2
     ed2:	02a5d6        	bgez	a5, f00 <subband_aec_block+0xf4>
     ed5:	002192        	l32i	a9, a1, 0
     ed8:	364934        	ae_cvtq48a32s	aeq1, a9
     edb:	d4e370118e 	{ l32i	a8, a1, 4; ae_mulfq32sp16s.l	aeq1, aeq1, aep0 }
     ee0:	209cc0        	or	a9, a12, a12
     ee3:	fc24fe980f 	{ ae_slaasq56s	aeq0, aeq1, a8; nop }
     ee8:	f967ac891f 	{ ae_lp16f.iu	aep0, a9, 2; ae_roundsp24q48asym	aep2, aeq0 }
     eed:	0fa676        	loopgtz	a6, f00 <subband_aec_block+0xf4>

00000ef0 <subband_aec_block+0xe4>:
     ef0:	fe0c190a7f 	{ ae_lp16f.c	aep0, a10, a7; ae_cvtq48p24s.l	aeq2, aep0 }
     ef5:	01a034        	ae_mulafp24s.ll	aeq2, aep2, aep0
     ef8:	fb73ec891f 	{ ae_lp16f.iu	aep0, a9, 2; ae_roundsp16q48asym	aep7, aeq2 }
     efd:	4279f4        	ae_sp16f.l.i	aep7, a9, -2
     f00:	a794e7        	bne	a4, a14, eab <subband_aec_block+0x9f>
     f03:	d3e8           	l32i.n	a14, a3, 52
     f05:	f398           	l32i.n	a9, a3, 60

00000f07 <subband_aec_block+0xfb>:
     f07:	31b8           	l32i.n	a11, a1, 12
     f09:	0c63a2        	s32i	a10, a3, 48
     f0c:	fcc992        	addi	a9, a9, -4
     f0f:	fd248fceae 	{ addi	a10, a14, -4; ae_zeroq56	aeq1 }
     f14:	fe0c7f113f 	{ ae_movq56	aeq0, aeq1; ae_movq56	aeq2, aeq1 }
     f19:	0dab76        	loopgtz	a11, f2a <subband_aec_block+0x11e>
     f1c:	449a14        	ae_lp16x2f.iu	aep1, a10, 4
     f1f:	e2242da91f 	{ ae_lp16x2f.iu	aep2, a9, 4; ae_mulaafp24s.hh.ll	aeq0, aep1, aep1 }
     f24:	05a204        	ae_mulaafp24s.hh.ll	aeq2, aep2, aep2
     f27:	051a04        	ae_mulaafp24s.hh.ll	aeq1, aep1, aep2

00000f2a <subband_aec_block+0x11e>:
     f2a:	21c8           	l32i.n	a12, a1, 8
     f2c:	134ca6        	blti	a12, 4, f43 <subband_aec_block+0x137>
     f2f:	35e134        	ae_sraiq56	aeq3, aeq2, 4
     f32:	01efc4        	ae_subq56	aeq3, aeq2, aeq3
     f35:	09b004        	ae_ltq56s	b0, aeq0, aeq3
     f38:	030460        	rsr.br	a6
     f3b:	046060        	extui	a6, a6, 0, 1
     f3e:	0000c6        	j	f45 <subband_aec_block+0x139>

00000f41 <subband_aec_block+0x135>:
	...

00000f43 <subband_aec_block+0x137>:
     f43:	060c           	movi.n	a6, 0

00000f45 <subband_aec_block+0x139>:
     f45:	03ad           	mov.n	a10, a3
     f47:	fc7381        	l32r	a8, 114 (bf8 <common_x_pow>)
     f4a:	35c134        	ae_sraiq56	aeq3, aeq0, 4
     f4d:	fd3c7b118f 	{ ae_sraiq56	aeq2, aeq1, 4; ae_roundsq32asym	aeq1, aeq3 }
     f52:	fc347f1bef 	{ ae_trunca32q48	a11, aeq1; ae_roundsq32asym	aeq0, aeq2 }
     f57:	368c04        	ae_trunca32q48	a12, aeq0
     f5a:	0008e0        	callx8	a8
     f5d:	9a6a           	add.n	a9, a10, a6
     f5f:	a98c           	beqz.n	a9, f6d <subband_aec_block+0x161>
     f61:	04cd           	mov.n	a12, a4
     f63:	fc2f81        	l32r	a8, 20 (5ee0 <xt_memcpy>)
     f66:	f3a8           	l32i.n	a10, a3, 60
     f68:	d3b8           	l32i.n	a11, a3, 52
     f6a:	0008e0        	callx8	a8

00000f6d <subband_aec_block+0x161>:
     f6d:	2d0c           	movi.n	a13, 2
     f6f:	b3c8           	l32i.n	a12, a3, 44
     f71:	0d92a2        	l16si	a10, a2, 26
     f74:	fc24a1139e 	{ l16si	a9, a3, 34; ae_zeroq56	aeq0 }
     f79:	630124        	ae_sq56s.i	aeq0, a1, 16
     f7c:	11baf0        	slli	a11, a10, 1
     f7f:	9099c0        	addx2	a9, a9, a12
     f82:	d2aad0        	quos	a10, a10, a13
     f85:	8aad           	ae_sext16	a10, a10
     f87:	c099b0        	sub	a9, a9, a11
     f8a:	fcc992        	addi	a9, a9, -4
     f8d:	08aa76        	loopgtz	a10, f99 <subband_aec_block+0x18d>
     f90:	44b914        	ae_lp16x2f.iu	aep3, a9, 4
     f93:	053304        	ae_mulaafp24s.hh.ll	aeq0, aep3, aep3
     f96:	630124        	ae_sq56s.i	aeq0, a1, 16

00000f99 <subband_aec_block+0x18d>:
     f99:	fc5c81        	l32r	a8, 10c (4098 <airoha_divide_limit_1>)
     f9c:	33a8           	l32i.n	a10, a3, 12
     f9e:	610124        	ae_lq56.i	aeq0, a1, 16
     fa1:	3540b4        	ae_sraiq56	aeq1, aeq0, 2
     fa4:	fc2c4000bf 	{ movi	a11, 0; ae_roundsq32asym	aeq0, aeq1 }
     fa9:	53aab0        	max	a10, a10, a11
     fac:	630124        	ae_sq56s.i	aeq0, a1, 16
     faf:	23b8           	l32i.n	a11, a3, 8
     fb1:	0008e0        	callx8	a8
     fb4:	610124        	ae_lq56.i	aeq0, a1, 16
     fb7:	0492f2        	l16si	a15, a2, 8
     fba:	fc4de1        	l32r	a14, f0 (7fff <_end+0x513>)
     fbd:	3180a0        	srai	a8, a10, 16
     fc0:	1293b2        	l16si	a11, a3, 36
     fc3:	c0ee80        	sub	a14, a14, a8
     fc6:	53eef0        	max	a14, a14, a15
     fc9:	256b17        	bbci	a11, 1, ff2 <subband_aec_block+0x1e6>
     fcc:	05dd           	mov.n	a13, a5
     fce:	02ad           	mov.n	a10, a2
     fd0:	03bd           	mov.n	a11, a3
     fd2:	039292        	l16si	a9, a2, 6
     fd5:	368404        	ae_trunca32q48	a4, aeq0
     fd8:	fc5081        	l32r	a8, 118 (c54 <ref_gain_adapt>)
     fdb:	8299e0        	mull	a9, a9, a14
     fde:	04cd           	mov.n	a12, a4
     fe0:	40d992        	addmi	a9, a9, 0x4000
     fe3:	219f90        	srai	a9, a9, 15
     fe6:	105392        	s16i	a9, a3, 32
     fe9:	0008e0        	callx8	a8
     fec:	1293b2        	l16si	a11, a3, 36
     fef:	000146        	j	ff8 <subband_aec_block+0x1ec>

00000ff2 <subband_aec_block+0x1e6>:
     ff2:	1053e2        	s16i	a14, a3, 32
     ff5:	368404        	ae_trunca32q48	a4, aeq0

00000ff8 <subband_aec_block+0x1ec>:
     ff8:	0592a2        	l16si	a10, a2, 10
     ffb:	11aa00        	slli	a10, a10, 16
     ffe:	54aa47        	bge	a10, a4, 1056 <subband_aec_block+0x24a>
    1001:	fc46a1        	l32r	a10, 11c (73d8 <immediate_num+0x18>)
    1004:	0692c2        	l16si	a12, a2, 12
    1007:	20bb70        	or	a11, a11, a7
    100a:	1253b2        	s16i	a11, a3, 36
    100d:	11cc00        	slli	a12, a12, 16
    1010:	05ac47        	bge	a12, a4, 1019 <subband_aec_block+0x20d>
    1013:	403a04        	ae_lp16f.i	aep3, a10, 0
    1016:	000086        	j	101c <subband_aec_block+0x210>

00001019 <subband_aec_block+0x20d>:
    1019:	403a14        	ae_lp16f.i	aep3, a10, 2

0000101c <subband_aec_block+0x210>:
    101c:	b3e8           	l32i.n	a14, a3, 44
    101e:	0d92d2        	l16si	a13, a2, 26
    1021:	1193a2        	l16si	a10, a3, 34
    1024:	2f0c           	movi.n	a15, 2
    1026:	11cdf0        	slli	a12, a13, 1
    1029:	90aae0        	addx2	a10, a10, a14
    102c:	d2ddf0        	quos	a13, a13, a15
    102f:	8ddd           	ae_sext16	a13, a13
    1031:	c0aac0        	sub	a10, a10, a12
    1034:	feca92        	addi	a9, a10, -2
    1037:	440a04        	ae_lp16x2f.i	aep0, a10, 0
    103a:	181da6        	blti	a13, 1, 1056 <subband_aec_block+0x24a>
    103d:	12ad76        	loopgtz	a13, 1053 <subband_aec_block+0x247>
    1040:	018b54        	ae_mulfp24s.hl	aeq3, aep0, aep3
    1043:	018374        	ae_mulfp24s.ll	aeq2, aep0, aep3
    1046:	fa7bed8a1f 	{ ae_lp16x2f.iu	aep0, a10, 4; ae_roundsp16q48asym	aep5, aeq3 }
    104b:	fa73b2d91f 	{ ae_sp16f.l.iu	aep5, a9, 2; ae_roundsp16q48asym	aep4, aeq2 }
    1050:	42c914        	ae_sp16f.l.iu	aep4, a9, 2

00001053 <subband_aec_block+0x247>:
    1053:	1293b2        	l16si	a11, a3, 36
    1056:	0d6b07        	bbci	a11, 0, 1067 <subband_aec_block+0x25b>
    1059:	02ad           	mov.n	a10, a2
    105b:	fc3181        	l32r	a8, 120 (cd8 <aec_post_calc>)
    105e:	03bd           	mov.n	a11, a3
    1060:	21c8           	l32i.n	a12, a1, 8
    1062:	0008e0        	callx8	a8
    1065:	f01d           	retw.n

00001067 <subband_aec_block+0x25b>:
    1067:	106b27        	bbci	a11, 2, 107b <subband_aec_block+0x26f>
    106a:	972292        	l32i	a9, a2, 0x25c
    106d:	a98c           	beqz.n	a9, 107b <subband_aec_block+0x26f>
    106f:	03bd           	mov.n	a11, a3
    1071:	fc2c81        	l32r	a8, 124 (d8c <aec_post_calc_FB>)
    1074:	02ad           	mov.n	a10, a2
    1076:	21c8           	l32i.n	a12, a1, 8
    1078:	0008e0        	callx8	a8
    107b:	f01d           	retw.n

0000107d <subband_aec_block+0x271>:
    107d:	000000                                        ...

00001080 <subband_aec_mid_channel>:
    1080:	008136        	entry	a1, 64
    1083:	c398           	l32i.n	a9, a3, 48
    1085:	60c344        	ae_lq32f.i	aeq3, a3, 16
    1088:	460c           	movi.n	a6, 4
    108a:	2159           	s32i.n	a5, a1, 8
    108c:	a80c           	movi.n	a8, 10
    108e:	1193c2        	l16si	a12, a3, 34
    1091:	a3d8           	l32i.n	a13, a3, 40
    1093:	9422b2        	l32i	a11, a2, 0x250
    1096:	f3f6d0        	wur.ae_cbegin0	a13
    1099:	a0ccd0        	addx4	a12, a12, a13
    109c:	e3d8           	l32i.n	a13, a3, 56
    109e:	fccbb2        	addi	a11, a11, -4
    10a1:	f3f7c0        	wur.ae_cend0	a12
    10a4:	fc24ad0d0f 	{ ae_lp16x2f.i	aep0, a13, 0; ae_zeroq56	aeq0 }
    10a9:	19a876        	loopgtz	a8, 10c6 <subband_aec_mid_channel+0x46>
    10ac:	a180f4        	ae_mulzaafq32sp16s.ll	aeq2, aeq3, aep0, aeq3, aep0
    10af:	b108f4        	ae_mulzaafq32sp16s.hh	aeq1, aeq3, aep0, aeq3, aep0
    10b2:	f9739ab96f 	{ ae_lp16x2f.c	aep3, a9, a6; ae_roundsp16q48asym	aep2, aeq2 }
    10b7:	f86bed8d1f 	{ ae_lp16x2f.iu	aep0, a13, 4; ae_roundsp16q48asym	aep1, aeq1 }
    10bc:	f06e3e125f 	{ ae_selp24.hl	aep1, aep1, aep2; ae_mulssfp24s.hh.ll	aeq0, aep3, aep3 }
    10c1:	e224339b1f 	{ ae_sp16x2f.iu	aep1, a11, 4; ae_mulaafp24s.hh.ll	aeq0, aep1, aep1 }

000010c6 <subband_aec_mid_channel+0x46>:
    10c6:	92e8           	l32i.n	a14, a2, 36
    10c8:	35c1b4        	ae_sraiq56	aeq3, aeq0, 6
    10cb:	618304        	ae_lq56.i	aeq2, a3, 0
    10ce:	01abc4        	ae_addq56	aeq2, aeq2, aeq3
    10d1:	11eee0        	slli	a14, a14, 2
    10d4:	fc80fece7f 	{ ae_cvtq48a32s	aeq1, a14; ae_satq48s	aeq0, aeq2 }
    10d9:	0110c4        	ae_maxq56s	aeq0, aeq0, aeq1
    10dc:	630304        	ae_sq56s.i	aeq0, a3, 0
    10df:	0154d6        	bgez	a4, 10f8 <subband_aec_mid_channel+0x78>
    10e2:	1093a2        	l16si	a10, a3, 32
    10e5:	fc0a81        	l32r	a8, 110 (3f90 <airoha_divide>)
    10e8:	368b04        	ae_trunca32q48	a11, aeq0
    10eb:	11aa50        	slli	a10, a10, 11
    10ee:	0008e0        	callx8	a8
    10f1:	0bed           	mov.n	a14, a11
    10f3:	0add           	mov.n	a13, a10
    10f5:	ffffc6        	j	10f8 <subband_aec_mid_channel+0x78>

000010f8 <subband_aec_mid_channel+0x78>:
    10f8:	c398           	l32i.n	a9, a3, 48
    10fa:	119352        	l16si	a5, a3, 34
    10fd:	a70c           	movi.n	a7, 10
    10ff:	11e9           	s32i.n	a14, a1, 4
    1101:	01d9           	s32i.n	a13, a1, 0
    1103:	b3c8           	l32i.n	a12, a3, 44
    1105:	d3f8           	l32i.n	a15, a3, 52
    1107:	f3a8           	l32i.n	a10, a3, 60
    1109:	9422b2        	l32i	a11, a2, 0x250
    110c:	fccff2        	addi	a15, a15, -4
    110f:	fecaa2        	addi	a10, a10, -2
    1112:	fccbb2        	addi	a11, a11, -4
    1115:	fecc82        	addi	a8, a12, -2
    1118:	3189           	s32i.n	a8, a1, 12

0000111a <subband_aec_mid_channel+0x9a>:
    111a:	44db14        	ae_lp16x2f.iu	aep5, a11, 4
    111d:	fc24e4596f 	{ ae_sp16x2f.c	aep5, a9, a6; nop }
    1122:	44cf14        	ae_lp16x2f.iu	aep4, a15, 4
    1125:	fd8413dccf 	{ or	a13, a12, a12; ae_cvtq48p24s.h	aeq1, aep4 }
    112a:	fc8c2d0c0f 	{ ae_lp16x2f.i	aep0, a12, 0; ae_cvtq48p24s.l	aeq0, aep4 }
    112f:	0ca576        	loopgtz	a5, 113f <subband_aec_mid_channel+0xbf>
    1132:	fc24dae96f 	{ ae_lp16x2f.c	aep6, a9, a6; nop }
    1137:	050ec4        	ae_mulssfp24s.hh.ll	aeq1, aep0, aep6
    113a:	eec02d8d1f 	{ ae_lp16x2f.iu	aep0, a13, 4; ae_mulsafp24s.hl.lh	aeq0, aep0, aep6 }

0000113f <subband_aec_mid_channel+0xbf>:
    113f:	f86b8ff77e 	{ addi	a7, a7, -1; ae_roundsp16q48asym	aep0, aeq1 }
    1144:	f963f28a1f 	{ ae_sp16f.l.iu	aep0, a10, 2; ae_roundsp16q48asym	aep3, aeq0 }
    1149:	42ba14        	ae_sp16f.l.iu	aep3, a10, 2
    114c:	0434d6        	bgez	a4, 1193 <subband_aec_mid_channel+0x113>
    114f:	11d8           	l32i.n	a13, a1, 4
    1151:	368d34        	ae_cvtq48a32s	aeq2, a13
    1154:	038a94        	ae_mulfq32sp16s.l	aeq3, aeq2, aep0
    1157:	d7ee30018e 	{ l32i	a8, a1, 0; ae_mulfq32sp16s.l	aeq2, aeq2, aep3 }
    115c:	fc24feb80f 	{ ae_slaasq56s	aeq0, aeq3, a8; nop }
    1161:	fc24fea84f 	{ ae_slaasq56s	aeq1, aeq2, a8; nop }
    1166:	fa6fb031ee 	{ l32i	a14, a1, 12; ae_roundsp24q48asym	aep4, aeq1 }
    116b:	f967d3dccf 	{ or	a13, a12, a12; ae_roundsp24q48asym	aep3, aeq0 }
    1170:	dd8ced0c0f 	{ ae_lp16x2f.i	aep0, a12, 0; ae_selp24.hl	aep3, aep3, aep4 }
    1175:	1aa576        	loopgtz	a5, 1193 <subband_aec_mid_channel+0x113>
    1178:	0ac084        	ae_cvtq48p24s.l	aeq3, aep0
    117b:	fc041af96f 	{ ae_lp16x2f.c	aep7, a9, a6; ae_cvtq48p24s.h	aeq0, aep0 }
    1180:	053704        	ae_mulaafp24s.hh.ll	aeq0, aep3, aep7
    1183:	05bf54        	ae_mulasfp24s.hl.lh	aeq3, aep3, aep7
    1186:	fb63ad8d1f 	{ ae_lp16x2f.iu	aep0, a13, 4; ae_roundsp16q48asym	aep6, aeq0 }
    118b:	fa7bf2ee1f 	{ ae_sp16f.l.iu	aep6, a14, 2; ae_roundsp16q48asym	aep5, aeq3 }
    1190:	42de14        	ae_sp16f.l.iu	aep5, a14, 2
    1193:	f83756        	bnez	a7, 111a <subband_aec_mid_channel+0x9a>
    1196:	ae0c           	movi.n	a14, 10
    1198:	d3f8           	l32i.n	a15, a3, 52
    119a:	c399           	s32i.n	a9, a3, 48
    119c:	fe24b0f39e 	{ l32i	a9, a3, 60; ae_zeroq56	aeq2 }
    11a1:	632124        	ae_sq56s.i	aeq2, a1, 16
    11a4:	fd146d0f0f 	{ ae_lp16x2f.i	aep0, a15, 0; ae_movq56	aeq1, aeq2 }
    11a9:	fc146d390f 	{ ae_lp16x2f.i	aep3, a9, 0; ae_movq56	aeq0, aeq2 }
    11ae:	10ae76        	loopgtz	a14, 11c2 <subband_aec_mid_channel+0x142>
    11b1:	050004        	ae_mulaafp24s.hh.ll	aeq0, aep0, aep0
    11b4:	050b04        	ae_mulaafp24s.hh.ll	aeq1, aep0, aep3

000011b7 <subband_aec_mid_channel+0x137>:
    11b7:	eb602db91f 	{ ae_lp16x2f.iu	aep3, a9, 4; ae_mulasfp24s.hl.lh	aeq2, aep0, aep3 }
    11bc:	630124        	ae_sq56s.i	aeq0, a1, 16
    11bf:	448f14        	ae_lp16x2f.iu	aep0, a15, 4

000011c2 <subband_aec_mid_channel+0x142>:
    11c2:	fb9c81        	l32r	a8, 34 (63c <HIFI_sqrt>)
    11c5:	35a134        	ae_sraiq56	aeq2, aeq2, 4
    11c8:	f877fb114f 	{ ae_sraiq56	aeq1, aeq1, 4; ae_roundsp24q48asym	aep1, aeq2 }
    11cd:	1b9d04        	ae_roundsp24q48asym	aep0, aeq1
    11d0:	dc20bda12f 	{ ae_lq56.i	aeq1, a1, 16; ae_selp24.hl	aep0, aep0, aep1 }
    11d5:	f002bb118f 	{ ae_sraiq56	aeq2, aeq1, 4; ae_mulzaafp24s.hh.ll	aeq0, aep0, aep0 }
    11da:	fd344000af 	{ movi	a10, 0; ae_roundsq32asym	aeq1, aeq2 }
    11df:	ff247a112f 	{ ae_sq56s.i	aeq1, a1, 16; ae_roundsq32asym	aeq3, aeq0 }
    11e4:	36bb04        	ae_trunca32q48	a11, aeq3
    11e7:	0008e0        	callx8	a8
    11ea:	fbca81        	l32r	a8, 114 (bf8 <common_x_pow>)
    11ed:	614124        	ae_lq56.i	aeq1, a1, 16
    11f0:	368b34        	ae_cvtq48a32s	aeq2, a11
    11f3:	fc24feaa0f 	{ ae_slaasq56s	aeq0, aeq2, a10; nop }
    11f8:	369b04        	ae_trunca32q48	a11, aeq1
    11fb:	ff2453a33f 	{ or	a10, a3, a3; ae_roundsq32asym	aeq3, aeq0 }
    1200:	36bc04        	ae_trunca32q48	a12, aeq3
    1203:	0008e0        	callx8	a8
    1206:	ca8c           	beqz.n	a10, 1216 <subband_aec_mid_channel+0x196>
    1208:	f3a8           	l32i.n	a10, a3, 60
    120a:	fb8581        	l32r	a8, 20 (5ee0 <xt_memcpy>)
    120d:	0d23b2        	l32i	a11, a3, 52
    1210:	14a0c2        	movi	a12, 20
    1213:	0008e0        	callx8	a8

00001216 <subband_aec_mid_channel+0x196>:
    1216:	0d92a2        	l16si	a10, a2, 26
    1219:	119392        	l16si	a9, a3, 34
    121c:	fc24b0b3be 	{ l32i	a11, a3, 44; ae_zeroq56	aeq0 }
    1221:	630134        	ae_sq56s.i	aeq0, a1, 24
    1224:	c099a0        	sub	a9, a9, a10
    1227:	a099b0        	addx4	a9, a9, a11
    122a:	fcc992        	addi	a9, a9, -4
    122d:	08aa76        	loopgtz	a10, 1239 <subband_aec_mid_channel+0x1b9>
    1230:	44a914        	ae_lp16x2f.iu	aep2, a9, 4
    1233:	052204        	ae_mulaafp24s.hh.ll	aeq0, aep2, aep2
    1236:	630134        	ae_sq56s.i	aeq0, a1, 24

00001239 <subband_aec_mid_channel+0x1b9>:
    1239:	33a8           	l32i.n	a10, a3, 12
    123b:	fbb481        	l32r	a8, 10c (4098 <airoha_divide_limit_1>)
    123e:	61c134        	ae_lq56.i	aeq3, a1, 24
    1241:	3530b4        	ae_sraiq56	aeq0, aeq3, 2
    1244:	ff247023be 	{ l32i	a11, a3, 8; ae_roundsq32asym	aeq3, aeq0 }
    1249:	633134        	ae_sq56s.i	aeq3, a1, 24
    124c:	0008e0        	callx8	a8
    124f:	610134        	ae_lq56.i	aeq0, a1, 24
    1252:	1293b2        	l16si	a11, a3, 36
    1255:	fba6e1        	l32r	a14, f0 (7fff <_end+0x513>)
    1258:	0492f2        	l16si	a15, a2, 8
    125b:	3160a0        	srai	a6, a10, 16
    125e:	c0ee60        	sub	a14, a14, a6
    1261:	53eef0        	max	a14, a14, a15
    1264:	260c           	movi.n	a6, 2
    1266:	266b17        	bbci	a11, 1, 1290 <subband_aec_mid_channel+0x210>
    1269:	02ad           	mov.n	a10, a2
    126b:	03bd           	mov.n	a11, a3
    126d:	04dd           	mov.n	a13, a4
    126f:	039292        	l16si	a9, a2, 6
    1272:	368404        	ae_trunca32q48	a4, aeq0
    1275:	fba881        	l32r	a8, 118 (c54 <ref_gain_adapt>)
    1278:	8299e0        	mull	a9, a9, a14
    127b:	04cd           	mov.n	a12, a4
    127d:	40d992        	addmi	a9, a9, 0x4000
    1280:	219f90        	srai	a9, a9, 15
    1283:	105392        	s16i	a9, a3, 32
    1286:	0008e0        	callx8	a8
    1289:	1293b2        	l16si	a11, a3, 36
    128c:	000186        	j	1296 <subband_aec_mid_channel+0x216>

0000128f <subband_aec_mid_channel+0x20f>:
	...

00001290 <subband_aec_mid_channel+0x210>:
    1290:	1053e2        	s16i	a14, a3, 32
    1293:	368404        	ae_trunca32q48	a4, aeq0

00001296 <subband_aec_mid_channel+0x216>:
    1296:	0592a2        	l16si	a10, a2, 10
    1299:	11aa00        	slli	a10, a10, 16
    129c:	4aaa47        	bge	a10, a4, 12ea <subband_aec_mid_channel+0x26a>
    129f:	fb9fa1        	l32r	a10, 11c (73d8 <immediate_num+0x18>)
    12a2:	0692c2        	l16si	a12, a2, 12
    12a5:	20bb60        	or	a11, a11, a6
    12a8:	1253b2        	s16i	a11, a3, 36
    12ab:	11cc00        	slli	a12, a12, 16
    12ae:	05ac47        	bge	a12, a4, 12b7 <subband_aec_mid_channel+0x237>
    12b1:	403a04        	ae_lp16f.i	aep3, a10, 0
    12b4:	000086        	j	12ba <subband_aec_mid_channel+0x23a>

000012b7 <subband_aec_mid_channel+0x237>:
    12b7:	403a14        	ae_lp16f.i	aep3, a10, 2

000012ba <subband_aec_mid_channel+0x23a>:
    12ba:	0d92d2        	l16si	a13, a2, 26
    12bd:	1193a2        	l16si	a10, a3, 34
    12c0:	b3c8           	l32i.n	a12, a3, 44
    12c2:	c0aad0        	sub	a10, a10, a13
    12c5:	a0aac0        	addx4	a10, a10, a12
    12c8:	feca92        	addi	a9, a10, -2
    12cb:	440a04        	ae_lp16x2f.i	aep0, a10, 0
    12ce:	181da6        	blti	a13, 1, 12ea <subband_aec_mid_channel+0x26a>
    12d1:	12ad76        	loopgtz	a13, 12e7 <subband_aec_mid_channel+0x267>
    12d4:	018354        	ae_mulfp24s.hl	aeq2, aep0, aep3
    12d7:	010b74        	ae_mulfp24s.ll	aeq1, aep0, aep3
    12da:	fa73ed8a1f 	{ ae_lp16x2f.iu	aep0, a10, 4; ae_roundsp16q48asym	aep5, aeq2 }
    12df:	fa6bb2d91f 	{ ae_sp16f.l.iu	aep5, a9, 2; ae_roundsp16q48asym	aep4, aeq1 }
    12e4:	42c914        	ae_sp16f.l.iu	aep4, a9, 2

000012e7 <subband_aec_mid_channel+0x267>:
    12e7:	1293b2        	l16si	a11, a3, 36
    12ea:	0b6b07        	bbci	a11, 0, 12f9 <subband_aec_mid_channel+0x279>
    12ed:	03bd           	mov.n	a11, a3
    12ef:	fb8c81        	l32r	a8, 120 (cd8 <aec_post_calc>)
    12f2:	02ad           	mov.n	a10, a2
    12f4:	21c8           	l32i.n	a12, a1, 8
    12f6:	0008e0        	callx8	a8

000012f9 <subband_aec_mid_channel+0x279>:
    12f9:	f01d           	retw.n

000012fb <subband_aec_mid_channel+0x27b>:
	...

000012fc <dt_detect>:
    12fc:	004136        	entry	a1, 32
    12ff:	0c9242        	l16si	a4, a2, 24
    1302:	179262        	l16si	a6, a2, 46
    1305:	189282        	l16si	a8, a2, 48
    1308:	114400        	slli	a4, a4, 16
    130b:	19a437        	bge	a4, a3, 1328 <dt_detect+0x2c>
    130e:	054c           	movi.n	a5, 64
    1310:	14a587        	bge	a5, a8, 1328 <dt_detect+0x2c>
    1313:	169232        	l16si	a3, a2, 44
    1316:	0e9252        	l16si	a5, a2, 28
    1319:	662b           	addi.n	a6, a6, 2
    131b:	334b           	addi.n	a3, a3, 4
    131d:	433350        	min	a3, a3, a5
    1320:	833d           	ae_sext16	a3, a3
    1322:	165232        	s16i	a3, a2, 44
    1325:	0002c6        	j	1334 <dt_detect+0x38>

00001328 <dt_detect+0x2c>:
    1328:	660b           	addi.n	a6, a6, -1
    132a:	030c           	movi.n	a3, 0
    132c:	0e9252        	l16si	a5, a2, 28
    132f:	040c           	movi.n	a4, 0
    1331:	165242        	s16i	a4, a2, 44

00001334 <dt_detect+0x38>:
    1334:	538630        	max	a8, a6, a3
    1337:	438850        	min	a8, a8, a5
    133a:	175282        	s16i	a8, a2, 46
    133d:	f01d           	retw.n

0000133f <dt_detect+0x43>:
	...

00001340 <dt_detect_FB>:
    1340:	004136        	entry	a1, 32
    1343:	01d272        	addmi	a7, a2, 0x100
    1346:	ac9742        	l16si	a4, a7, 0x158
    1349:	5cc762        	addi	a6, a7, 92
    134c:	ae9722        	l16si	a2, a7, 0x15c
    134f:	114400        	slli	a4, a4, 16
    1352:	1ca437        	bge	a4, a3, 1372 <dt_detect_FB+0x32>
    1355:	aa9782        	l16si	a8, a7, 0x154
    1358:	af9732        	l16si	a3, a7, 0x15e
    135b:	054c           	movi.n	a5, 64
    135d:	11a587        	bge	a5, a8, 1372 <dt_detect_FB+0x32>
    1360:	ad9752        	l16si	a5, a7, 0x15a
    1363:	222b           	addi.n	a2, a2, 2
    1365:	334b           	addi.n	a3, a3, 4
    1367:	433350        	min	a3, a3, a5
    136a:	833d           	ae_sext16	a3, a3
    136c:	af5732        	s16i	a3, a7, 0x15e
    136f:	0002c6        	j	137e <dt_detect_FB+0x3e>

00001372 <dt_detect_FB+0x32>:
    1372:	220b           	addi.n	a2, a2, -1
    1374:	030c           	movi.n	a3, 0
    1376:	7f9652        	l16si	a5, a6, 254
    1379:	040c           	movi.n	a4, 0
    137b:	815642        	s16i	a4, a6, 0x102

0000137e <dt_detect_FB+0x3e>:
    137e:	538230        	max	a8, a2, a3
    1381:	438850        	min	a8, a8, a5
    1384:	805682        	s16i	a8, a6, 0x100
    1387:	f01d           	retw.n

00001389 <dt_detect_FB+0x49>:
    1389:	00000000 36000000                                .......

00001390 <get_ECNR_SVN>:
    1390:	004136        	entry	a1, 32
    1393:	05a422        	movi	a2, 0x405
    1396:	f01d           	retw.n

00001398 <get_aec_nr_memsize>:
    1398:	004136        	entry	a1, 32
    139b:	fb6321        	l32r	a2, 128 (46e0 <real_split+0xec>)
    139e:	f01d           	retw.n

000013a0 <get_aec_nr_inear_memsize>:
    13a0:	004136        	entry	a1, 32
    13a3:	fb6221        	l32r	a2, 12c (4958 <find_phase+0x60>)
    13a6:	f01d           	retw.n

000013a8 <sb_ana_init>:
    13a8:	004136        	entry	a1, 32
    13ab:	0b0c           	movi.n	a11, 0
    13ad:	ec1c           	movi.n	a12, 30
    13af:	fb4a81        	l32r	a8, d8 (5ec8 <xt_memset>)
    13b2:	a24b           	addi.n	a10, a2, 4
    13b4:	02a9           	s32i.n	a10, a2, 0
    13b6:	0008e0        	callx8	a8
    13b9:	f01d           	retw.n

000013bb <sb_ana_init+0x13>:
	...

000013bc <sb_syn_init>:
    13bc:	004136        	entry	a1, 32
    13bf:	0b0c           	movi.n	a11, 0
    13c1:	cc3c           	movi.n	a12, 60
    13c3:	fb4581        	l32r	a8, d8 (5ec8 <xt_memset>)
    13c6:	a24b           	addi.n	a10, a2, 4
    13c8:	02a9           	s32i.n	a10, a2, 0
    13ca:	0008e0        	callx8	a8
    13cd:	f01d           	retw.n

000013cf <sb_syn_init+0x13>:
	...

000013d0 <HP_coef_setup>:
    13d0:	004136        	entry	a1, 32
    13d3:	02ad           	mov.n	a10, a2
    13d5:	fb1281        	l32r	a8, 20 (5ee0 <xt_memcpy>)
    13d8:	03bd           	mov.n	a11, a3
    13da:	4c0c           	movi.n	a12, 4
    13dc:	0008e0        	callx8	a8
    13df:	a2cb           	addi.n	a10, a2, 12
    13e1:	fb0f81        	l32r	a8, 20 (5ee0 <xt_memcpy>)
    13e4:	b38b           	addi.n	a11, a3, 8
    13e6:	ac0c           	movi.n	a12, 10
    13e8:	0008e0        	callx8	a8
    13eb:	1cc3b2        	addi	a11, a3, 28
    13ee:	fb0c81        	l32r	a8, 20 (5ee0 <xt_memcpy>)
    13f1:	24c2a2        	addi	a10, a2, 36
    13f4:	8c0c           	movi.n	a12, 8
    13f6:	0008e0        	callx8	a8
    13f9:	7298           	l32i.n	a9, a2, 28
    13fb:	12a8           	l32i.n	a10, a2, 4
    13fd:	22a9           	s32i.n	a10, a2, 8
    13ff:	8299           	s32i.n	a9, a2, 32
    1401:	f01d           	retw.n

00001403 <HP_coef_setup+0x33>:
	...

00001404 <tx_ref_vad_init>:
    1404:	004136        	entry	a1, 32
    1407:	02ad           	mov.n	a10, a2
    1409:	fb3381        	l32r	a8, d8 (5ec8 <xt_memset>)
    140c:	0b0c           	movi.n	a11, 0
    140e:	ec0c           	movi.n	a12, 14
    1410:	0008e0        	callx8	a8
    1413:	02ad           	mov.n	a10, a2
    1415:	fb0281        	l32r	a8, 20 (5ee0 <xt_memcpy>)
    1418:	03d3b2        	addmi	a11, a3, 0x300
    141b:	7c0c           	movi.n	a12, 7
    141d:	0008e0        	callx8	a8
    1420:	f01d           	retw.n

00001422 <tx_ref_vad_init+0x1e>:
	...

00001424 <Voice_EC_Init>:
    1424:	006136        	entry	a1, 48
    1427:	02ad           	mov.n	a10, a2
    1429:	04bd           	mov.n	a11, a4
    142b:	fafe21        	l32r	a2, 24 (7ae4 <p_ecnr_mem>)
    142e:	fb4081        	l32r	a8, 130 (4a8 <TX_ECNR_PARA_init>)
    1431:	0c0c           	movi.n	a12, 0
    1433:	0239           	s32i.n	a3, a2, 0
    1435:	0008e0        	callx8	a8
    1438:	fafc41        	l32r	a4, 28 (7adc <aec_nr_para>)
    143b:	02a8           	l32i.n	a10, a2, 0
    143d:	0498           	l32i.n	a9, a4, 0
    143f:	fb3d81        	l32r	a8, 134 (13d0 <HP_coef_setup>)
    1442:	10daa2        	addmi	a10, a10, 0x1000
    1445:	01d9b2        	addmi	a11, a9, 0x100
    1448:	bb8b           	addi.n	a11, a11, 8
    144a:	231992        	l16ui	a9, a9, 70
    144d:	659d           	ae_s16i.n	a9, a5, 0
    144f:	0008e0        	callx8	a8
    1452:	0b0c           	movi.n	a11, 0
    1454:	02a8           	l32i.n	a10, a2, 0
    1456:	fb38c1        	l32r	a12, 138 (818 <SBAEC_INIT+0x64>)
    1459:	fb1f81        	l32r	a8, d8 (5ec8 <xt_memset>)
    145c:	31daa2        	addmi	a10, a10, 0x3100
    145f:	24caa2        	addi	a10, a10, 36
    1462:	0008e0        	callx8	a8
    1465:	0b0c           	movi.n	a11, 0
    1467:	02a8           	l32i.n	a10, a2, 0
    1469:	ec0c           	movi.n	a12, 14
    146b:	fb1b81        	l32r	a8, d8 (5ec8 <xt_memset>)
    146e:	10daa2        	addmi	a10, a10, 0x1000
    1471:	34caa2        	addi	a10, a10, 52
    1474:	0008e0        	callx8	a8
    1477:	fb3131        	l32r	a3, 13c (1054 <subband_aec_block+0x248>)
    147a:	0b0c           	movi.n	a11, 0
    147c:	02a8           	l32i.n	a10, a2, 0
    147e:	f0a0c2        	movi	a12, 240
    1481:	fb1581        	l32r	a8, d8 (5ec8 <xt_memset>)
    1484:	10daa2        	addmi	a10, a10, 0x1000
    1487:	54caa2        	addi	a10, a10, 84
    148a:	0008e0        	callx8	a8
    148d:	02a8           	l32i.n	a10, a2, 0
    148f:	fb2c81        	l32r	a8, 140 (13a8 <sb_ana_init>)
    1492:	2bdaa2        	addmi	a10, a10, 0x2b00
    1495:	60caa2        	addi	a10, a10, 96
    1498:	0008e0        	callx8	a8
    149b:	02a8           	l32i.n	a10, a2, 0
    149d:	fb2881        	l32r	a8, 140 (13a8 <sb_ana_init>)
    14a0:	2cdaa2        	addmi	a10, a10, 0x2c00
    14a3:	a0caa2        	addi	a10, a10, -96
    14a6:	0008e0        	callx8	a8
    14a9:	02a8           	l32i.n	a10, a2, 0
    14ab:	fb2681        	l32r	a8, 144 (13bc <sb_syn_init>)
    14ae:	2cdaa2        	addmi	a10, a10, 0x2c00
    14b1:	20caa2        	addi	a10, a10, 32
    14b4:	0008e0        	callx8	a8
    14b7:	04c8           	l32i.n	a12, a4, 0
    14b9:	02a8           	l32i.n	a10, a2, 0
    14bb:	fb2381        	l32r	a8, 148 (7b4 <SBAEC_INIT>)
    14be:	0cb8           	l32i.n	a11, a12, 0
    14c0:	10daf2        	addmi	a15, a10, 0x1000
    14c3:	331ce2        	l16ui	a14, a12, 102
    14c6:	aa3a           	add.n	a10, a10, a3
    14c8:	ffdad2        	addmi	a13, a10, 0xffffff00
    14cb:	285fe2        	s16i	a14, a15, 80
    14ce:	341cc2        	l16ui	a12, a12, 104
    14d1:	78cbb2        	addi	a11, a11, 120
    14d4:	50cb92        	addi	a9, a11, 80
    14d7:	78cbf2        	addi	a15, a11, 120
    14da:	28cfe2        	addi	a14, a15, 40
    14dd:	7f5dc2        	s16i	a12, a13, 254
    14e0:	846af2        	s32i	a15, a10, 0x210
    14e3:	826ab2        	s32i	a11, a10, 0x208
    14e6:	836a92        	s32i	a9, a10, 0x20c
    14e9:	78cfc2        	addi	a12, a15, 120
    14ec:	50cfd2        	addi	a13, a15, 80
    14ef:	856ae2        	s32i	a14, a10, 0x214
    14f2:	866ad2        	s32i	a13, a10, 0x218
    14f5:	876ac2        	s32i	a12, a10, 0x21c
    14f8:	78cc92        	addi	a9, a12, 120
    14fb:	50ccb2        	addi	a11, a12, 80
    14fe:	8a6ab2        	s32i	a11, a10, 0x228
    1501:	896a92        	s32i	a9, a10, 0x224
    1504:	28ccc2        	addi	a12, a12, 40
    1507:	886ac2        	s32i	a12, a10, 0x220
    150a:	0008e0        	callx8	a8
    150d:	fb0f81        	l32r	a8, 14c (3218 <NOISE_GEN_init>)
    1510:	0008e0        	callx8	a8
    1513:	0b0c           	movi.n	a11, 0
    1515:	0c1c           	movi.n	a12, 16
    1517:	0268           	l32i.n	a6, a2, 0
    1519:	0458           	l32i.n	a5, a4, 0
    151b:	faef81        	l32r	a8, d8 (5ec8 <xt_memset>)
    151e:	47d662        	addmi	a6, a6, 0x4700
    1521:	7558           	l32i.n	a5, a5, 28
    1523:	0159           	s32i.n	a5, a1, 0
    1525:	b4c662        	addi	a6, a6, -76
    1528:	06ad           	mov.n	a10, a6
    152a:	0008e0        	callx8	a8
    152d:	fb09e1        	l32r	a14, 154 (8000 <_end+0x514>)
    1530:	04c8           	l32i.n	a12, a4, 0
    1532:	fb07f1        	l32r	a15, 150 (d190210 <_end+0xd188724>)
    1535:	faea81        	l32r	a8, e0 (155555 <_end+0x14da69>)
    1538:	301cb2        	l16ui	a11, a12, 96
    153b:	1e1cd2        	l16ui	a13, a12, 60
    153e:	c08580        	sub	a8, a5, a8
    1541:	835f80        	moveqz	a5, a15, a8
    1544:	0159           	s32i.n	a5, a1, 0
    1546:	74a850        	extui	a10, a5, 8, 8
    1549:	749050        	extui	a9, a5, 0, 8
    154c:	758850        	extui	a8, a5, 24, 8
    154f:	201cf2        	l16ui	a15, a12, 64
    1552:	0356f2        	s16i	a15, a6, 6
    1555:	c0eed0        	sub	a14, a14, a13
    1558:	1c4682        	s8i	a8, a6, 28
    155b:	c199b0        	mul16u	a9, a9, a11
    155e:	780c           	movi.n	a8, 7
    1560:	1b0c           	movi.n	a11, 1
    1562:	11ee00        	slli	a14, a14, 16
    1565:	75f050        	extui	a15, a5, 16, 8
    1568:	1d46f2        	s8i	a15, a6, 29
    156b:	ddea           	add.n	a13, a13, a14
    156d:	219590        	srai	a9, a9, 5
    1570:	1f1ce2        	l16ui	a14, a12, 62
    1573:	0c5692        	s16i	a9, a6, 24
    1576:	321cc2        	l16ui	a12, a12, 100
    1579:	06d9           	s32i.n	a13, a6, 0
    157b:	0256e2        	s16i	a14, a6, 4
    157e:	c1aac0        	mul16u	a10, a10, a12
    1581:	faf5e1        	l32r	a14, 158 (7ae8 <avc_vol>)
    1584:	21a5a0        	srai	a10, a10, 5
    1587:	0d56a2        	s16i	a10, a6, 26
    158a:	0022a2        	l32i	a10, a2, 0
    158d:	faf3d1        	l32r	a13, 15c (2000 <Voice_EC_Prcs_common+0x24c>)
    1590:	6edd           	ae_s16i.n	a13, a14, 0
    1592:	12da92        	addmi	a9, a10, 0x1200
    1595:	80ca30        	add	a12, a10, a3
    1598:	fe5cb2        	s16i	a11, a12, 0x1fc
    159b:	34c992        	addi	a9, a9, 52
    159e:	00a4b2        	movi	a11, 0x400
    15a1:	02a876        	loopgtz	a8, 15a7 <Voice_EC_Init+0x183>
    15a4:	09c9b4        	ae_s16ip	a11, a9, 2

000015a7 <Voice_EC_Init+0x183>:
    15a7:	24daa2        	addmi	a10, a10, 0x2400
    15aa:	facb81        	l32r	a8, d8 (5ec8 <xt_memset>)
    15ad:	0b0c           	movi.n	a11, 0
    15af:	0c5c           	movi.n	a12, 80
    15b1:	0008e0        	callx8	a8
    15b4:	0b0c           	movi.n	a11, 0
    15b6:	02a8           	l32i.n	a10, a2, 0
    15b8:	4c2c           	movi.n	a12, 36
    15ba:	fac781        	l32r	a8, d8 (5ec8 <xt_memset>)
    15bd:	25daa2        	addmi	a10, a10, 0x2500
    15c0:	a0caa2        	addi	a10, a10, -96
    15c3:	0008e0        	callx8	a8
    15c6:	02a8           	l32i.n	a10, a2, 0
    15c8:	ba3a           	add.n	a11, a10, a3
    15ca:	fc9bb2        	l16si	a11, a11, 0x1f8
    15cd:	2d2b66        	bnei	a11, 2, 15fe <Voice_EC_Init+0x1da>
    15d0:	fae481        	l32r	a8, 160 (49e4 <TWO_MIC_WB_init>)
    15d3:	04a8           	l32i.n	a10, a4, 0
    15d5:	0008e0        	callx8	a8
    15d8:	02a8           	l32i.n	a10, a2, 0
    15da:	fad981        	l32r	a8, 140 (13a8 <sb_ana_init>)
    15dd:	2cdaa2        	addmi	a10, a10, 0x2c00
    15e0:	e0caa2        	addi	a10, a10, -32
    15e3:	0008e0        	callx8	a8
    15e6:	02a8           	l32i.n	a10, a2, 0
    15e8:	fad781        	l32r	a8, 144 (13bc <sb_syn_init>)
    15eb:	2ddaa2        	addmi	a10, a10, 0x2d00
    15ee:	9ccaa2        	addi	a10, a10, -100
    15f1:	0008e0        	callx8	a8
    15f4:	fadc81        	l32r	a8, 164 (3420 <NC_NOISE_EST_init>)
    15f7:	04a8           	l32i.n	a10, a4, 0
    15f9:	0008e0        	callx8	a8
    15fc:	02a8           	l32i.n	a10, a2, 0

000015fe <Voice_EC_Init+0x1da>:
    15fe:	04b8           	l32i.n	a11, a4, 0
    1600:	fada81        	l32r	a8, 168 (1404 <tx_ref_vad_init>)
    1603:	47daa2        	addmi	a10, a10, 0x4700
    1606:	98caa2        	addi	a10, a10, -104
    1609:	0008e0        	callx8	a8
    160c:	f01d           	retw.n

0000160e <Voice_EC_Init+0x1ea>:
	...

00001610 <Voice_EC_Inear_Init>:
    1610:	004136        	entry	a1, 32
    1613:	05dd           	mov.n	a13, a5
    1615:	04cd           	mov.n	a12, a4
    1617:	fad581        	l32r	a8, 16c (1424 <Voice_EC_Init>)
    161a:	02ad           	mov.n	a10, a2
    161c:	03bd           	mov.n	a11, a3
    161e:	0008e0        	callx8	a8
    1621:	0b0c           	movi.n	a11, 0
    1623:	3ca1c2        	movi	a12, 0x13c
    1626:	46d392        	addmi	a9, a3, 0x4600
    1629:	47d3a2        	addmi	a10, a3, 0x4700
    162c:	faab81        	l32r	a8, d8 (5ec8 <xt_memset>)
    162f:	e0caa2        	addi	a10, a10, -32
    1632:	3669a2        	s32i	a10, a9, 216
    1635:	0008e0        	callx8	a8
    1638:	54a142        	movi	a4, 0x154
    163b:	fa7b51        	l32r	a5, 28 (7adc <aec_nr_para>)
    163e:	fac081        	l32r	a8, 140 (13a8 <sb_ana_init>)
    1641:	48d3b2        	addmi	a11, a3, 0x4800
    1644:	05c8           	l32i.n	a12, a5, 0
    1646:	54cb22        	addi	a2, a11, 84
    1649:	78cba2        	addi	a10, a11, 120
    164c:	01dcc2        	addmi	a12, a12, 0x100
    164f:	879c92        	l16si	a9, a12, 0x10e
    1652:	a95b92        	s16i	a9, a11, 0x152
    1655:	cb9cc2        	l16si	a12, a12, 0x196
    1658:	a85bc2        	s16i	a12, a11, 0x150
    165b:	0008e0        	callx8	a8
    165e:	fab981        	l32r	a8, 144 (13bc <sb_syn_init>)
    1661:	49d3a2        	addmi	a10, a3, 0x4900
    1664:	b8caa2        	addi	a10, a10, -72
    1667:	0008e0        	callx8	a8
    166a:	fab281        	l32r	a8, 134 (13d0 <HP_coef_setup>)
    166d:	fac091        	l32r	a9, 170 (800000 <_end+0x7f8514>)
    1670:	00a1d2        	movi	a13, 0x100
    1673:	05b8           	l32i.n	a11, a5, 0
    1675:	10d3c2        	addmi	a12, a3, 0x1000
    1678:	47d3a2        	addmi	a10, a3, 0x4700
    167b:	38caa2        	addi	a10, a10, 56
    167e:	9e2cc2        	l32i	a12, a12, 0x278
    1681:	fb4a           	add.n	a15, a11, a4
    1683:	9d9fe2        	l16si	a14, a15, 0x13a
    1686:	78cc62        	addi	a6, a12, 120
    1689:	50cc72        	addi	a7, a12, 80
    168c:	03dbb2        	addmi	a11, a11, 0x300
    168f:	b8cbb2        	addi	a11, a11, -72
    1692:	3d6272        	s32i	a7, a2, 244
    1695:	3e6262        	s32i	a6, a2, 248
    1698:	9e9ff2        	l16si	a15, a15, 0x13c
    169b:	7752f2        	s16i	a15, a2, 238
    169e:	28ccc2        	addi	a12, a12, 40
    16a1:	3c62c2        	s32i	a12, a2, 240
    16a4:	8eed           	ae_sext16	a14, a14
    16a6:	7712c2        	l16ui	a12, a2, 238
    16a9:	53eed0        	max	a14, a14, a13
    16ac:	7652e2        	s16i	a14, a2, 236
    16af:	53ccd0        	max	a12, a12, a13
    16b2:	9ccd           	ae_zext16	a12, a12
    16b4:	d299c0        	quos	a9, a9, a12
    16b7:	775292        	s16i	a9, a2, 238
    16ba:	0008e0        	callx8	a8
    16bd:	faad81        	l32r	a8, 174 (a70 <SBAEC_INIT_inear>)
    16c0:	03ad           	mov.n	a10, a3
    16c2:	0008e0        	callx8	a8
    16c5:	f01d           	retw.n

000016c7 <Voice_EC_Inear_Init+0xb7>:
	...

000016c8 <mic240_delay>:
    16c8:	004136        	entry	a1, 32
    16cb:	02ad           	mov.n	a10, a2
    16cd:	fa5481        	l32r	a8, 20 (5ee0 <xt_memcpy>)
    16d0:	04bd           	mov.n	a11, a4
    16d2:	05cd           	mov.n	a12, a5
    16d4:	0008e0        	callx8	a8
    16d7:	03bd           	mov.n	a11, a3
    16d9:	90a520        	addx2	a10, a5, a2
    16dc:	f0a0c2        	movi	a12, 240
    16df:	fa5081        	l32r	a8, 20 (5ee0 <xt_memcpy>)
    16e2:	c0cc50        	sub	a12, a12, a5
    16e5:	1125f0        	slli	a2, a5, 1
    16e8:	0008e0        	callx8	a8
    16eb:	05cd           	mov.n	a12, a5
    16ed:	04ad           	mov.n	a10, a4
    16ef:	c0b320        	sub	a11, a3, a2
    16f2:	fa4b81        	l32r	a8, 20 (5ee0 <xt_memcpy>)
    16f5:	02dbb2        	addmi	a11, a11, 0x200
    16f8:	e0cbb2        	addi	a11, a11, -32
    16fb:	0008e0        	callx8	a8
    16fe:	f01d           	retw.n

00001700 <sbiir>:
    1700:	004136        	entry	a1, 32
    1703:	4c1404        	ae_lp24.i	aep1, a4, 0
    1706:	5c7304        	ae_lp24x2f.i	aep7, a3, 0
    1709:	fdec2c020f 	{ ae_lp16f.i	aep0, a2, 0; ae_cvtq48p24s.l	aeq1, aep7 }
    170e:	fee43e079f 	{ ae_selp24.hl	aep2, aep0, aep7; ae_cvtq48p24s.h	aeq2, aep7 }
    1713:	059244        	ae_mulasfp24s.hh.ll	aeq2, aep1, aep2
    1716:	5c3314        	ae_lp24x2f.i	aep3, a3, 8
    1719:	fa77b4030f 	{ ae_sp24f.l.i	aep0, a3, 0; ae_roundsp24q48asym	aep4, aeq2 }
    171e:	df71b1541f 	{ ae_lp24.i	aep5, a4, 4; ae_selp24.lh	aep6, aep4, aep3 }
    1723:	055e44        	ae_mulasfp24s.hh.ll	aeq1, aep5, aep6
    1726:	0a0b84        	ae_cvtq48p24s.h	aeq0, aep3
    1729:	f86ff4431f 	{ ae_sp24f.l.i	aep4, a3, 4; ae_roundsp24q48asym	aep1, aeq1 }
    172e:	dd6671242f 	{ ae_lp24.i	aep2, a4, 8; ae_selp24.ll	aep3, aep1, aep3 }
    1733:	052344        	ae_mulasfp24s.hh.ll	aeq0, aep2, aep3
    1736:	f867b4132f 	{ ae_sp24f.l.i	aep1, a3, 8; ae_roundsp24q48asym	aep0, aeq0 }
    173b:	520334        	ae_sp24f.l.i	aep0, a3, 12
    173e:	348204        	ae_movap24s.l	a2, aep0
    1741:	f01d           	retw.n

00001743 <sbiir+0x43>:
	...

00001744 <tx_downsample_by2>:
    1744:	008136        	entry	a1, 64
    1747:	fec332        	addi	a3, a3, -2
    174a:	440404        	ae_lp16x2f.i	aep0, a4, 0
    174d:	0169           	s32i.n	a6, a1, 0
    174f:	fa8a81        	l32r	a8, 178 (75dc <wb_r01+0xc>)
    1752:	fec272        	addi	a7, a2, -2
    1755:	10c5a2        	addi	a10, a5, 16
    1758:	600604        	ae_lq32f.i	aeq0, a6, 0
    175b:	630124        	ae_sq56s.i	aeq0, a1, 16
    175e:	21a9           	s32i.n	a10, a1, 8
    1760:	020c           	movi.n	a2, 0
    1762:	1189           	s32i.n	a8, a1, 4
    1764:	056d           	mov.n	a6, a5

00001766 <tx_downsample_by2+0x22>:
    1766:	06bd           	mov.n	a11, a6
    1768:	614124        	ae_lq56.i	aeq1, a1, 16
    176b:	e20053a44f 	{ or	a10, a4, a4; ae_mulaafp24s.hh.ll	aeq1, aep0, aep0 }
    1770:	11c8           	l32i.n	a12, a1, 4
    1772:	631124        	ae_sq56s.i	aeq1, a1, 16
    1775:	fff8a5        	call8	1700 <sbiir>
    1778:	21b8           	l32i.n	a11, a1, 8
    177a:	0a5d           	mov.n	a5, a10
    177c:	fa80c1        	l32r	a12, 17c (75d0 <wb_r01>)
    177f:	a42b           	addi.n	a10, a4, 2
    1781:	fff7e5        	call8	1700 <sbiir>
    1784:	4e1c           	movi.n	a14, 20
    1786:	221b           	addi.n	a2, a2, 1
    1788:	f5aa           	add.n	a15, a5, a10
    178a:	c08a50        	sub	a8, a10, a5
    178d:	218180        	srai	a8, a8, 1
    1790:	21f1f0        	srai	a15, a15, 1
    1793:	39bf84        	ae_movpa24x2	aep3, a15, a8
    1796:	f9eead841f 	{ ae_lp16x2f.iu	aep0, a4, 4; ae_roundsp16asym	aep2, aep3 }
    179b:	dc4972a31f 	{ ae_sp16f.l.iu	aep2, a3, 2; ae_selp24.hh	aep1, aep2, aep2 }
    17a0:	429714        	ae_sp16f.l.iu	aep1, a7, 2
    17a3:	bf92e7        	bne	a2, a14, 1766 <tx_downsample_by2+0x22>
    17a6:	0198           	l32i.n	a9, a1, 0
    17a8:	61c124        	ae_lq56.i	aeq3, a1, 16
    17ab:	06b934        	ae_roundsq32asym	aeq2, aeq3
    17ae:	622904        	ae_sq32f.i	aeq2, a9, 0
    17b1:	f01d           	retw.n

000017b3 <tx_downsample_by2+0x6f>:
	...

000017b4 <tx_upsample_by2>:
    17b4:	00a136        	entry	a1, 80
    17b7:	401204        	ae_lp16f.i	aep1, a2, 0
    17ba:	400304        	ae_lp16f.i	aep0, a3, 0
    17bd:	1169           	s32i.n	a6, a1, 4
    17bf:	fa6e81        	l32r	a8, 178 (75dc <wb_r01+0xc>)
    17c2:	fcc472        	addi	a7, a4, -4
    17c5:	10c5a2        	addi	a10, a5, 16
    17c8:	c12b           	addi.n	a12, a1, 2
    17ca:	600604        	ae_lq32f.i	aeq0, a6, 0
    17cd:	630134        	ae_sq56s.i	aeq0, a1, 24
    17d0:	21c9           	s32i.n	a12, a1, 8
    17d2:	31a9           	s32i.n	a10, a1, 12
    17d4:	040c           	movi.n	a4, 0
    17d6:	4189           	s32i.n	a8, a1, 16
    17d8:	056d           	mov.n	a6, a5

000017da <tx_upsample_by2+0x26>:
    17da:	06bd           	mov.n	a11, a6
    17dc:	fa68c1        	l32r	a12, 17c (75d0 <wb_r01>)
    17df:	d9053da13f 	{ ae_lq56.i	aeq1, a1, 24; ae_addsp24s	aep2, aep1, aep0 }
    17e4:	e24bf021ae 	{ l32i	a10, a1, 8; ae_mulafp24s.ll	aeq1, aep2, aep2 }
    17e9:	dc06b2210f 	{ ae_sp16f.l.i	aep2, a1, 0; ae_subsp24s	aep0, aep1, aep0 }
    17ee:	420114        	ae_sp16f.l.i	aep0, a1, 2
    17f1:	631134        	ae_sq56s.i	aeq1, a1, 24
    17f4:	fff0a5        	call8	1700 <sbiir>
    17f7:	31b8           	l32i.n	a11, a1, 12
    17f9:	0a5d           	mov.n	a5, a10
    17fb:	41c8           	l32i.n	a12, a1, 16
    17fd:	01ad           	mov.n	a10, a1
    17ff:	fff025        	call8	1700 <sbiir>
    1802:	442b           	addi.n	a4, a4, 2
    1804:	782c           	movi.n	a8, 39
    1806:	408314        	ae_lp16f.iu	aep0, a3, 2
    1809:	39c5a4        	ae_movpa24x2	aep4, a5, a10
    180c:	f9f2ec921f 	{ ae_lp16f.iu	aep1, a2, 2; ae_roundsp16asym	aep3, aep4 }
    1811:	46b714        	ae_sp16x2f.iu	aep3, a7, 4
    1814:	c2a847        	bge	a8, a4, 17da <tx_upsample_by2+0x26>
    1817:	1198           	l32i.n	a9, a1, 4
    1819:	61c134        	ae_lq56.i	aeq3, a1, 24
    181c:	06b934        	ae_roundsq32asym	aeq2, aeq3
    181f:	622904        	ae_sq32f.i	aeq2, a9, 0
    1822:	f01d           	retw.n

00001824 <emph_filter_N>:
    1824:	004136        	entry	a1, 32
    1827:	442304        	ae_lp16x2f.i	aep2, a3, 0
    182a:	02a062        	movi	a6, 2
    182d:	440404        	ae_lp16x2f.i	aep0, a4, 0
    1830:	d26560        	quos	a6, a5, a6
    1833:	fcc252        	addi	a5, a2, -4
    1836:	fec222        	addi	a2, a2, -2
    1839:	23a676        	loopgtz	a6, 1860 <emph_filter_N+0x3c>
    183c:	44b514        	ae_lp16x2f.iu	aep3, a5, 4
    183f:	0a4b84        	ae_cvtq48p24s.h	aeq1, aep3
    1842:	0a0384        	ae_cvtq48p24s.l	aeq0, aep3
    1845:	012304        	ae_mulafp24s.hh	aeq0, aep2, aep3
    1848:	012804        	ae_mulafp24s.hh	aeq1, aep2, aep0
    184b:	e2087e384f 	{ ae_selp24.hh	aep5, aep3, aep0; ae_mulaafp24s.hh.ll	aeq1, aep2, aep0 }
    1850:	052504        	ae_mulaafp24s.hh.ll	aeq0, aep2, aep5
    1853:	1b9f44        	ae_roundsp16q48asym	aep4, aeq1
    1856:	f863f2c21f 	{ ae_sp16f.l.iu	aep4, a2, 2; ae_roundsp16q48asym	aep1, aeq0 }
    185b:	dc6db2921f 	{ ae_sp16f.l.iu	aep1, a2, 2; ae_selp24.lh	aep0, aep3, aep3 }

00001860 <emph_filter_N+0x3c>:
    1860:	460404        	ae_sp16x2f.i	aep0, a4, 0
    1863:	f01d           	retw.n

00001865 <emph_filter_N+0x41>:
    1865:	000000                                        ...

00001868 <deemph_filter_N>:
    1868:	004136        	entry	a1, 32
    186b:	600414        	ae_lq32f.i	aeq0, a4, 4
    186e:	400204        	ae_lp16f.i	aep0, a2, 0
    1871:	fa4361        	l32r	a6, 180 (73f0 <immediate_num+0x30>)
    1874:	442304        	ae_lp16x2f.i	aep2, a3, 0
    1877:	604404        	ae_lq32f.i	aeq1, a4, 0
    187a:	9949ad360f 	{ ae_lp16x2f.i	aep3, a6, 0; ae_mulzssfq32sp16s.hh	aeq2, aeq1, aep2, aeq1, aep2 }
    187f:	14a576        	loopgtz	a5, 1897 <deemph_filter_N+0x2f>
    1882:	03a414        	ae_mulsfq32sp16s.l	aeq2, aeq0, aep2
    1885:	0583c4        	ae_mulssfp24s.hh.ll	aeq2, aep0, aep3
    1888:	fd347f113f 	{ ae_movq56	aeq0, aeq1; ae_roundsq32asym	aeq1, aeq2 }
    188d:	f86bec821f 	{ ae_lp16f.iu	aep0, a2, 2; ae_roundsp16q48asym	aep1, aeq1 }
    1892:	9949b212ff 	{ ae_sp16f.l.i	aep1, a2, -2; ae_mulzssfq32sp16s.hh	aeq2, aeq1, aep2, aeq1, aep2 }

00001897 <deemph_filter_N+0x2f>:
    1897:	621404        	ae_sq32f.i	aeq1, a4, 0
    189a:	620414        	ae_sq32f.i	aeq0, a4, 4
    189d:	f01d           	retw.n

0000189f <deemph_filter_N+0x37>:
	...

000018a0 <analy_3band>:
    18a0:	006136        	entry	a1, 48
    18a3:	7f0c           	movi.n	a15, 7
    18a5:	fa37e1        	l32r	a14, 184 (75ec <wb_r01+0x1c>)
    18a8:	fcc4b2        	addi	a11, a4, -4
    18ab:	fa37d1        	l32r	a13, 188 (762c <sb_g10+0x3c>)
    18ae:	24c2c2        	addi	a12, a2, 36
    18b1:	834b           	addi.n	a8, a3, 4
    18b3:	fec692        	addi	a9, a6, -2
    18b6:	fec5a2        	addi	a10, a5, -2
    18b9:	40c372        	addi	a7, a3, 64
    18bc:	450c           	movi.n	a5, 4
    18be:	f3f770        	wur.ae_cend0	a7
    18c1:	fcc262        	addi	a6, a2, -4
    18c4:	f3f680        	wur.ae_cbegin0	a8
    18c7:	0328           	l32i.n	a2, a3, 0
    18c9:	ff24934ddf 	{ or	a4, a13, a13; ae_zeroq56	aeq3 }
    18ce:	fd1c538eef 	{ or	a8, a14, a14; ae_movq56	aeq1, aeq3 }

000018d3 <analy_3band+0x33>:
    18d3:	443614        	ae_lp16x2f.i	aep3, a6, 4
    18d6:	fc24e4325f 	{ ae_sp16x2f.c	aep3, a2, a5; nop }
    18db:	fc24da925f 	{ ae_lp16x2f.c	aep1, a2, a5; nop }
    18e0:	44a814        	ae_lp16x2f.iu	aep2, a8, 4
    18e3:	eb29ad841f 	{ ae_lp16x2f.iu	aep0, a4, 4; ae_mulfp24s.ll	aeq2, aep2, aep1 }
    18e8:	ea2180466e 	{ addi	a6, a6, 4; ae_mulfp24s.ll	aeq0, aep0, aep1 }
    18ed:	27af76        	loopgtz	a15, 1918 <analy_3band+0x78>
    18f0:	fc24da825f 	{ ae_lp16x2f.c	aep0, a2, a5; nop }
    18f5:	449414        	ae_lp16x2f.iu	aep1, a4, 4
    18f8:	011034        	ae_mulafp24s.ll	aeq0, aep1, aep0
    18fb:	e2066df81f 	{ ae_lp16x2f.iu	aep7, a8, 4; ae_mulafp24s.hh	aeq1, aep1, aep0 }
    1900:	e31f9ad25f 	{ ae_lp16x2f.c	aep5, a2, a5; ae_mulafp24s.ll	aeq2, aep7, aep0 }
    1905:	e31e6de81f 	{ ae_lp16x2f.iu	aep6, a8, 4; ae_mulafp24s.hh	aeq3, aep7, aep0 }
    190a:	01ed04        	ae_mulafp24s.hh	aeq3, aep6, aep5
    190d:	e3bbadc41f 	{ ae_lp16x2f.iu	aep4, a4, 4; ae_mulafp24s.ll	aeq2, aep6, aep5 }
    1912:	014d04        	ae_mulafp24s.hh	aeq1, aep4, aep5
    1915:	014534        	ae_mulafp24s.ll	aeq0, aep4, aep5

00001918 <analy_3band+0x78>:
    1918:	7f0c           	movi.n	a15, 7
    191a:	f963d34ddf 	{ or	a4, a13, a13; ae_roundsp16q48asym	aep3, aeq0 }
    191f:	f8f6138eef 	{ or	a8, a14, a14; ae_addq56	aeq0, aeq2, aeq3 }
    1924:	f96bbb001f 	{ ae_sraiq56	aeq0, aeq0, 1; ae_roundsp16q48asym	aep2, aeq1 }
    1929:	f867f2b91f 	{ ae_sp16f.l.iu	aep3, a9, 2; ae_roundsp24q48asym	aep1, aeq0 }
    192e:	f8b6f2a91f 	{ ae_sp16f.l.iu	aep2, a9, 2; ae_subq56	aeq0, aeq2, aeq3 }
    1933:	ff24bb001f 	{ ae_sraiq56	aeq0, aeq0, 1; ae_zeroq56	aeq3 }
    1938:	f863b49b1f 	{ ae_sp24f.l.iu	aep1, a11, 4; ae_roundsp16q48asym	aep0, aeq0 }
    193d:	fd1c728a1f 	{ ae_sp16f.l.iu	aep0, a10, 2; ae_movq56	aeq1, aeq3 }
    1942:	8d96c7        	bne	a6, a12, 18d3 <analy_3band+0x33>
    1945:	0329           	s32i.n	a2, a3, 0
    1947:	f01d           	retw.n

00001949 <analy_3band+0xa9>:
    1949:	000000                                        ...

0000194c <synth_3band>:
    194c:	004136        	entry	a1, 32
    194f:	080c           	movi.n	a8, 0
    1951:	7cc572        	addi	a7, a5, 124
    1954:	b54b           	addi.n	a11, a5, 4
    1956:	fec692        	addi	a9, a6, -2
    1959:	fec2c2        	addi	a12, a2, -2
    195c:	fcc4a2        	addi	a10, a4, -4
    195f:	fec3d2        	addi	a13, a3, -2
    1962:	0548           	l32i.n	a4, a5, 0
    1964:	fa0a31        	l32r	a3, 18c (7670 <sb_h2ir_v2>)
    1967:	fa0a21        	l32r	a2, 190 (75f0 <sb_g10>)
    196a:	fe2480046f 	{ movi	a6, 4; ae_zeroq56	aeq2 }
    196f:	f3f6b0        	wur.ae_cbegin0	a11
    1972:	f3f770        	wur.ae_cend0	a7
    1975:	fd147f213f 	{ ae_movq56	aeq0, aeq2; ae_movq56	aeq1, aeq2 }

0000197a <synth_3band+0x2e>:
    197a:	40cd14        	ae_lp16f.iu	aep4, a13, 2
    197d:	40bc14        	ae_lp16f.iu	aep3, a12, 2
    1980:	dd8e80188e 	{ addi	a8, a8, 1; ae_subsp24s	aep2, aep3, aep4 }
    1985:	d88d400fef 	{ movi	a14, 15; ae_addsp24s	aep1, aep3, aep4 }
    198a:	dc466d8a1f 	{ ae_lp16x2f.iu	aep0, a10, 4; ae_selp24.ll	aep1, aep1, aep2 }
    198f:	fc24e4146f 	{ ae_sp16x2f.c	aep1, a4, a6; nop }
    1994:	fc24e4046f 	{ ae_sp16x2f.c	aep0, a4, a6; nop }
    1999:	441204        	ae_lp16x2f.i	aep1, a2, 0
    199c:	440304        	ae_lp16x2f.i	aep0, a3, 0
    199f:	16ae76        	loopgtz	a14, 19b9 <synth_3band+0x6d>
    19a2:	fc24dae46f 	{ ae_lp16x2f.c	aep6, a4, a6; nop }
    19a7:	011e04        	ae_mulafp24s.hh	aeq1, aep1, aep6
    19aa:	e2c79ad46f 	{ ae_lp16x2f.c	aep5, a4, a6; ae_mulafp24s.ll	aeq0, aep1, aep6 }
    19af:	eea0ad921f 	{ ae_lp16x2f.iu	aep1, a2, 4; ae_mulsfp24s.hl	aeq0, aep0, aep5 }
    19b4:	e2a2ed831f 	{ ae_lp16x2f.iu	aep0, a3, 4; ae_mulafp24s.lh	aeq1, aep0, aep5 }

000019b9 <synth_3band+0x6d>:
    19b9:	fb6bcc422e 	{ addi	a2, a2, -60; ae_roundsp16q48asym	aep7, aeq1 }
    19be:	f8638c433e 	{ addi	a3, a3, -60; ae_roundsp16q48asym	aep0, aeq0 }
    19c3:	fc1472891f 	{ ae_sp16f.l.iu	aep0, a9, 2; ae_movq56	aeq0, aeq2 }
    19c8:	fd1472f91f 	{ ae_sp16f.l.iu	aep7, a9, 2; ae_movq56	aeq1, aeq2 }
    19cd:	a99866        	bnei	a8, 10, 197a <synth_3band+0x2e>
    19d0:	0549           	s32i.n	a4, a5, 0
    19d2:	f01d           	retw.n

000019d4 <biquad_2cascade_24bitTx>:
    19d4:	004136        	entry	a1, 32
    19d7:	542304        	ae_lp24x2.i	aep2, a3, 0
    19da:	541314        	ae_lp24x2.i	aep1, a3, 8
    19dd:	18c482        	addi	a8, a4, 24
    19e0:	540324        	ae_lp24x2.i	aep0, a3, 16
    19e3:	fcc242        	addi	a4, a2, -4
    19e6:	fec522        	addi	a2, a5, -2
    19e9:	40a676        	loopgtz	a6, 1a2d <biquad_2cascade_24bitTx+0x59>
    19ec:	5468d4        	ae_lp24x2.i	aep6, a8, -24
    19ef:	50f414        	ae_lp24f.iu	aep7, a4, 4
    19f2:	5438e4        	ae_lp24x2.i	aep3, a8, -16
    19f5:	f14ebe72af 	{ ae_selp24.lh	aep2, aep7, aep2; ae_mulzaafp24s.hh.ll	aeq2, aep3, aep2 }
    19fa:	e3583058ff 	{ ae_lp24x2.i	aep5, a8, -8; ae_mulaafp24s.hh.ll	aeq2, aep6, aep2 }
    19ff:	01d184        	ae_mulsfp24s.hh	aeq2, aep5, aep1
    1a02:	f13630481f 	{ ae_lp24x2.i	aep4, a8, 8; ae_mulssfp24s.hh.ll	aeq2, aep5, aep1 }
    1a07:	044904        	ae_mulzaafp24s.hh.ll	aeq1, aep4, aep1
    1a0a:	1bad34        	ae_roundsp24q48asym	aep3, aeq2
    1a0d:	dc2df0780f 	{ ae_lp24x2.i	aep7, a8, 0; ae_selp24.lh	aep1, aep3, aep1 }
    1a12:	e23c70682f 	{ ae_lp24x2.i	aep6, a8, 16; ae_mulaafp24s.hh.ll	aeq1, aep7, aep1 }
    1a17:	016884        	ae_mulsfp24s.hh	aeq1, aep6, aep0
    1a1a:	0568c4        	ae_mulssfp24s.hh.ll	aeq1, aep6, aep0
    1a1d:	fa6fb1586f 	{ ae_lp24.i	aep5, a8, 24; ae_roundsp24q48asym	aep4, aeq1 }
    1a22:	045404        	ae_mulzaafp24s.hh.ll	aeq0, aep5, aep4
    1a25:	1b8f34        	ae_roundsp16q48asym	aep3, aeq0
    1a28:	dc11b2b21f 	{ ae_sp16f.l.iu	aep3, a2, 2; ae_selp24.lh	aep0, aep4, aep0 }

00001a2d <biquad_2cascade_24bitTx+0x59>:
    1a2d:	562304        	ae_sp24x2s.i	aep2, a3, 0
    1a30:	561314        	ae_sp24x2s.i	aep1, a3, 8
    1a33:	560324        	ae_sp24x2s.i	aep0, a3, 16
    1a36:	f01d           	retw.n

00001a38 <conv_24_to_16>:
    1a38:	004136        	entry	a1, 32
    1a3b:	f8c252        	addi	a5, a2, -8
    1a3e:	540c           	movi.n	a4, 5
    1a40:	fcc322        	addi	a2, a3, -4
    1a43:	f03d           	nop.n
    1a45:	08a476        	loopgtz	a4, 1a51 <conv_24_to_16+0x19>
    1a48:	5c9514        	ae_lp24x2f.iu	aep1, a5, 8
    1a4b:	091184        	ae_roundsp16asym	aep0, aep1
    1a4e:	468214        	ae_sp16x2f.iu	aep0, a2, 4

00001a51 <conv_24_to_16+0x19>:
    1a51:	f01d           	retw.n

00001a53 <conv_24_to_16+0x1b>:
	...

00001a54 <gain_after_ec>:
    1a54:	00c136        	entry	a1, 96
    1a57:	4159           	s32i.n	a5, a1, 16
    1a59:	f97281        	l32r	a8, 24 (7ae4 <p_ecnr_mem>)
    1a5c:	07bd           	mov.n	a11, a7
    1a5e:	3149           	s32i.n	a4, a1, 12
    1a60:	04fd           	mov.n	a15, a4
    1a62:	05ed           	mov.n	a14, a5
    1a64:	069d           	mov.n	a9, a6
    1a66:	fec2d2        	addi	a13, a2, -2
    1a69:	fec3c2        	addi	a12, a3, -2
    1a6c:	61c9           	s32i.n	a12, a1, 24
    1a6e:	51d9           	s32i.n	a13, a1, 20
    1a70:	2199           	s32i.n	a9, a1, 8
    1a72:	440e04        	ae_lp16x2f.i	aep0, a14, 0
    1a75:	441f04        	ae_lp16x2f.i	aep1, a15, 0
    1a78:	561154        	ae_sp24x2s.i	aep1, a1, 40
    1a7b:	560164        	ae_sp24x2s.i	aep0, a1, 48
    1a7e:	0d3d           	mov.n	a3, a13
    1a80:	0c2d           	mov.n	a2, a12
    1a82:	054d           	mov.n	a4, a5
    1a84:	fecf62        	addi	a6, a15, -2
    1a87:	fece72        	addi	a7, a14, -2
    1a8a:	1179           	s32i.n	a7, a1, 4
    1a8c:	0888           	l32i.n	a8, a8, 0
    1a8e:	0169           	s32i.n	a6, a1, 0
    1a90:	0f5d           	mov.n	a5, a15
    1a92:	12d882        	addmi	a8, a8, 0x1200
    1a95:	42c882        	addi	a8, a8, 66
    1a98:	402804        	ae_lp16f.i	aep2, a8, 0
    1a9b:	562144        	ae_sp24x2s.i	aep2, a1, 32
    1a9e:	6bac           	beqz.n	a11, 1ac8 <gain_after_ec+0x74>
    1aa0:	f99c81        	l32r	a8, 110 (3f90 <airoha_divide>)
    1aa3:	f9aca1        	l32r	a10, 154 (8000 <_end+0x514>)
    1aa6:	0008e0        	callx8	a8
    1aa9:	540164        	ae_lp24x2.i	aep0, a1, 48
    1aac:	541154        	ae_lp24x2.i	aep1, a1, 40
    1aaf:	61c8           	l32i.n	a12, a1, 24
    1ab1:	41e8           	l32i.n	a14, a1, 16
    1ab3:	542144        	ae_lp24x2.i	aep2, a1, 32
    1ab6:	360b34        	ae_cvtq48a32s	aeq0, a11
    1ab9:	d4ea3031fe 	{ l32i	a15, a1, 12; ae_mulfq32sp16s.l	aeq0, aeq0, aep2 }
    1abe:	51d8           	l32i.n	a13, a1, 20
    1ac0:	340a94        	ae_sllaq56	aeq0, aeq0, a10
    1ac3:	f967b0219e 	{ l32i	a9, a1, 8; ae_roundsp24q48asym	aep2, aeq0 }

00001ac8 <gain_after_ec+0x74>:
    1ac8:	0dbd           	mov.n	a11, a13
    1aca:	0cad           	mov.n	a10, a12
    1acc:	a80c           	movi.n	a8, 10
    1ace:	47a876        	loopgtz	a8, 1b19 <gain_after_ec+0xc5>
    1ad1:	ea09acfb1f 	{ ae_lp16f.iu	aep7, a11, 2; ae_mulfp24s.ll	aeq0, aep2, aep0 }
    1ad6:	e828ecda1f 	{ ae_lp16f.iu	aep5, a10, 2; ae_mulfp24s.hh	aeq1, aep2, aep1 }
    1adb:	eb29ad951f 	{ ae_lp16x2f.iu	aep1, a5, 4; ae_mulfp24s.ll	aeq2, aep2, aep1 }
    1ae0:	350114        	ae_slliq56	aeq0, aeq0, 4
    1ae3:	e908faa18f 	{ ae_slliq56	aeq2, aeq2, 4; ae_mulfp24s.hh	aeq3, aep2, aep0 }
    1ae8:	faf3ba914f 	{ ae_slliq56	aeq1, aeq1, 4; ae_roundsp16q48sym	aep4, aeq2 }
    1aed:	fbebbab1cf 	{ ae_slliq56	aeq3, aeq3, 4; ae_roundsp16q48sym	aep6, aeq1 }
    1af2:	eaa9f2e61f 	{ ae_sp16f.l.iu	aep6, a6, 2; ae_mulfp24s.ll	aeq1, aep2, aep5 }
    1af7:	ebe9b2c61f 	{ ae_sp16f.l.iu	aep4, a6, 2; ae_mulfp24s.ll	aeq2, aep2, aep7 }
    1afc:	355114        	ae_slliq56	aeq1, aeq1, 4
    1aff:	35a114        	ae_slliq56	aeq2, aeq2, 4
    1b02:	f9fbed841f 	{ ae_lp16x2f.iu	aep0, a4, 4; ae_roundsp16q48sym	aep3, aeq3 }
    1b07:	fbe3b2b71f 	{ ae_sp16f.l.iu	aep3, a7, 2; ae_roundsp16q48sym	aep6, aeq0 }
    1b0c:	faf3b2e71f 	{ ae_sp16f.l.iu	aep6, a7, 2; ae_roundsp16q48sym	aep4, aeq2 }
    1b11:	f9ebf2c31f 	{ ae_sp16f.l.iu	aep4, a3, 2; ae_roundsp16q48sym	aep3, aeq1 }
    1b16:	42b214        	ae_sp16f.l.iu	aep3, a2, 2

00001b19 <gain_after_ec+0xc5>:
    1b19:	a90b           	addi.n	a10, a9, -1
    1b1b:	081a56        	bnez	a10, 1ba0 <gain_after_ec+0x14c>
    1b1e:	1178           	l32i.n	a7, a1, 4
    1b20:	0168           	l32i.n	a6, a1, 0
    1b22:	f94091        	l32r	a9, 24 (7ae4 <p_ecnr_mem>)
    1b25:	a80c           	movi.n	a8, 10
    1b27:	0e4d           	mov.n	a4, a14
    1b29:	441e04        	ae_lp16x2f.i	aep1, a14, 0
    1b2c:	0f5d           	mov.n	a5, a15
    1b2e:	440f04        	ae_lp16x2f.i	aep0, a15, 0
    1b31:	0c2d           	mov.n	a2, a12
    1b33:	0d3d           	mov.n	a3, a13
    1b35:	f99ac1        	l32r	a12, 1a0 (124a <subband_aec_mid_channel+0x1ca>)
    1b38:	02ad           	mov.n	a10, a2
    1b3a:	f998d1        	l32r	a13, 19c (1248 <subband_aec_mid_channel+0x1c8>)
    1b3d:	03bd           	mov.n	a11, a3
    1b3f:	f995f1        	l32r	a15, 194 (1244 <subband_aec_mid_channel+0x1c4>)
    1b42:	f995e1        	l32r	a14, 198 (1246 <subband_aec_mid_channel+0x1c6>)
    1b45:	57a876        	loopgtz	a8, 1ba0 <gain_after_ec+0x14c>
    1b48:	0988           	l32i.n	a8, a9, 0
    1b4a:	40da14        	ae_lp16f.iu	aep5, a10, 2
    1b4d:	4148e4        	ae_lp16f.x	aep4, a8, a14
    1b50:	ea31d9f8cf 	{ ae_lp16f.x	aep7, a8, a12; ae_mulfp24s.ll	aeq1, aep4, aep1 }
    1b55:	eb1dacab1f 	{ ae_lp16f.iu	aep2, a11, 2; ae_mulfp24s.ll	aeq2, aep7, aep0 }

00001b5a <gain_after_ec+0x106>:
    1b5a:	e91ced851f 	{ ae_lp16x2f.iu	aep0, a5, 4; ae_mulfp24s.hh	aeq3, aep7, aep0 }
    1b5f:	355094        	ae_slliq56	aeq1, aeq1, 2
    1b62:	35f094        	ae_slliq56	aeq3, aeq3, 2
    1b65:	fbfbbaa0af 	{ ae_slliq56	aeq2, aeq2, 2; ae_roundsp16q48sym	aep6, aeq3 }
    1b6a:	f9f3f2e61f 	{ ae_sp16f.l.iu	aep6, a6, 2; ae_roundsp16q48sym	aep3, aeq2 }
    1b6f:	e830b2b61f 	{ ae_sp16f.l.iu	aep3, a6, 2; ae_mulfp24s.hh	aeq0, aep4, aep1 }
    1b74:	0988           	l32i.n	a8, a9, 0
    1b76:	350094        	ae_slliq56	aeq0, aeq0, 2
    1b79:	449414        	ae_lp16x2f.iu	aep1, a4, 4
    1b7c:	fbe399c8df 	{ ae_lp16f.x	aep4, a8, a13; ae_roundsp16q48sym	aep6, aeq0 }
    1b81:	f9ebd9f8ff 	{ ae_lp16f.x	aep7, a8, a15; ae_roundsp16q48sym	aep3, aeq1 }
    1b86:	eb5df2e71f 	{ ae_sp16f.l.iu	aep6, a7, 2; ae_mulfp24s.ll	aeq3, aep7, aep2 }
    1b8b:	ebb1b2b71f 	{ ae_sp16f.l.iu	aep3, a7, 2; ae_mulfp24s.ll	aeq2, aep4, aep5 }
    1b90:	35f094        	ae_slliq56	aeq3, aeq3, 2
    1b93:	f9fbbaa0af 	{ ae_slliq56	aeq2, aeq2, 2; ae_roundsp16q48sym	aep2, aeq3 }
    1b98:	fbf3f2a31f 	{ ae_sp16f.l.iu	aep2, a3, 2; ae_roundsp16q48sym	aep7, aeq2 }
    1b9d:	42f214        	ae_sp16f.l.iu	aep7, a2, 2

00001ba0 <gain_after_ec+0x14c>:
    1ba0:	f01d           	retw.n

00001ba2 <gain_after_ec+0x14e>:
	...

00001ba4 <adjust_phase>:
    1ba4:	004136        	entry	a1, 32
    1ba7:	301334        	ae_cvtp24a16x2.ll	aep1, a3, a3
    1baa:	360234        	ae_cvtq48a32s	aeq0, a2
    1bad:	a11104        	ae_mulzaafq32sp16s.ll	aeq0, aeq0, aep1, aeq0, aep1
    1bb0:	1b8f04        	ae_roundsp16q48asym	aep0, aeq0
    1bb3:	0002d4        	ae_cvta32p24.l	a2, aep0
    1bb6:	f01d           	retw.n

00001bb8 <adjust_bib_state>:
    1bb8:	004136        	entry	a1, 32
    1bbb:	fcc242        	addi	a4, a2, -4
    1bbe:	600204        	ae_lq32f.i	aeq0, a2, 0
    1bc1:	830c           	movi.n	a3, 8
    1bc3:	f03d           	nop.n
    1bc5:	0aa376        	loopgtz	a3, 1bd3 <adjust_bib_state+0x1b>
    1bc8:	350074        	ae_sraiq56	aeq0, aeq0, 1
    1bcb:	f867bd121f 	{ ae_lq32f.iu	aeq0, a2, 4; ae_roundsp24q48asym	aep0, aeq0 }
    1bd0:	528414        	ae_sp24f.l.iu	aep0, a4, 4

00001bd3 <adjust_bib_state+0x1b>:
    1bd3:	f01d           	retw.n

00001bd5 <adjust_bib_state+0x1d>:
    1bd5:	000000                                        ...

00001bd8 <aec_post_prcs>:
    1bd8:	004136        	entry	a1, 32
    1bdb:	fec552        	addi	a5, a5, -2
    1bde:	149272        	l16si	a7, a2, 40
    1be1:	28c282        	addi	a8, a2, 40
    1be4:	159292        	l16si	a9, a2, 42
    1be7:	02d262        	addmi	a6, a2, 0x200
    1bea:	f941a1        	l32r	a10, f0 (7fff <_end+0x513>)
    1bed:	f96db1        	l32r	a11, 1a4 (7fffff <_end+0x7f8513>)
    1bf0:	39bbb4        	ae_movpa24x2	aep3, a11, a11
    1bf3:	307aa4        	ae_cvtp24a16x2.ll	aep7, a10, a10
    1bf6:	4ac662        	addi	a6, a6, 74
    1bf9:	302994        	ae_cvtp24a16x2.ll	aep2, a9, a9
    1bfc:	400804        	ae_lp16f.i	aep0, a8, 0
    1bff:	155272        	s16i	a7, a2, 42
    1c02:	de42ec660f 	{ ae_lp16f.i	aep6, a6, 0; ae_subsp24s	aep5, aep0, aep2 }
    1c07:	eaf9ac030f 	{ ae_lp16f.i	aep0, a3, 0; ae_mulfp24s.ll	aeq0, aep6, aep7 }
    1c0c:	ce344fe42e 	{ addi	a2, a4, -2; ae_sraip24	aep5, aep5, 4 }
    1c11:	fa6780004f 	{ movi	a4, 0; ae_roundsp24q48asym	aep4, aeq0 }

00001c16 <aec_post_prcs+0x3e>:
    1c16:	07a524        	ae_addsp24s	aep2, aep2, aep5
    1c19:	07b294        	ae_subsp24s	aep1, aep3, aep2
    1c1c:	011c74        	ae_mulfp24s.ll	aeq1, aep1, aep4
    1c1f:	441b           	addi.n	a4, a4, 1
    1c21:	fe2c400fcf 	{ movi	a12, 15; ae_roundsq32asym	aeq2, aeq1 }
    1c26:	17ac76        	loopgtz	a12, 1c41 <aec_post_prcs+0x69>
    1c29:	ea09ecf51f 	{ ae_lp16f.iu	aep7, a5, 2; ae_mulfp24s.ll	aeq1, aep2, aep0 }
    1c2e:	037294        	ae_mulfq32sp16s.l	aeq0, aeq2, aep7
    1c31:	ff2c7a802f 	{ ae_slliq56	aeq0, aeq0, 2; ae_roundsq32asym	aeq3, aeq1 }
    1c36:	01f8c4        	ae_addq56	aeq3, aeq3, aeq0
    1c39:	fb7bac831f 	{ ae_lp16f.iu	aep0, a3, 2; ae_roundsp16q48asym	aep6, aeq3 }
    1c3e:	42e214        	ae_sp16f.l.iu	aep6, a2, 2

00001c41 <aec_post_prcs+0x69>:
    1c41:	d1b466        	bnei	a4, 16, 1c16 <aec_post_prcs+0x3e>
    1c44:	f01d           	retw.n

00001c46 <aec_post_prcs+0x6e>:
	...

00001c48 <gain_ref>:
    1c48:	004136        	entry	a1, 32
    1c4b:	303334        	ae_cvtp24a16x2.ll	aep3, a3, a3
    1c4e:	fcc222        	addi	a2, a2, -4
    1c51:	448214        	ae_lp16x2f.iu	aep0, a2, 4
    1c54:	f03d           	nop.n
    1c56:	17a476        	loopgtz	a4, 1c71 <gain_ref+0x29>
    1c59:	010b54        	ae_mulfp24s.hl	aeq1, aep0, aep3
    1c5c:	ea61ad821f 	{ ae_lp16x2f.iu	aep0, a2, 4; ae_mulfp24s.ll	aeq0, aep0, aep3 }
    1c61:	355094        	ae_slliq56	aeq1, aeq1, 2
    1c64:	f96bba802f 	{ ae_slliq56	aeq0, aeq0, 2; ae_roundsp16q48asym	aep2, aeq1 }
    1c69:	f863f222ef 	{ ae_sp16f.l.i	aep2, a2, -4; ae_roundsp16q48asym	aep1, aeq0 }
    1c6e:	4212f4        	ae_sp16f.l.i	aep1, a2, -2

00001c71 <gain_ref+0x29>:
    1c71:	f01d           	retw.n

00001c73 <gain_ref+0x2b>:
	...

00001c74 <TxRef_VAD>:
    1c74:	006136        	entry	a1, 48
    1c77:	00a0a2        	movi	a10, 0
    1c7a:	f0a082        	movi	a8, 240
    1c7d:	08a876        	loopgtz	a8, 1c89 <TxRef_VAD+0x15>
    1c80:	239d           	ae_l16si.n	a9, a3, 0
    1c82:	332b           	addi.n	a3, a3, 2
    1c84:	609190        	abs	a9, a9
    1c87:	aa9a           	add.n	a10, a10, a9

00001c89 <TxRef_VAD+0x15>:
    1c89:	eaac           	beqz.n	a10, 1cbb <TxRef_VAD+0x47>
    1c8b:	f94781        	l32r	a8, 1a8 (694 <Log2_norm>)
    1c8e:	7b1c           	movi.n	a11, 23
    1c90:	40eac0        	nsa	a12, a10
    1c93:	401c00        	ssl	a12
    1c96:	a1aa00        	sll	a10, a10
    1c99:	c0bbc0        	sub	a11, a11, a12
    1c9c:	0008e0        	callx8	a8
    1c9f:	f94381        	l32r	a8, 1ac (4d10 <prelim_filter+0xc8>)
    1ca2:	f8ea31        	l32r	a3, 4c (80000000 <_end+0x7fff8514>)
    1ca5:	829a80        	mull	a9, a10, a8
    1ca8:	b28a80        	mulsh	a8, a10, a8
    1cab:	393a           	add.n	a3, a9, a3
    1cad:	623390        	saltu	a3, a3, a9
    1cb0:	338a           	add.n	a3, a3, a8
    1cb2:	0ad332        	addmi	a3, a3, 0xa00
    1cb5:	a2c332        	addi	a3, a3, -94
    1cb8:	000046        	j	1cbd <TxRef_VAD+0x49>

00001cbb <TxRef_VAD+0x47>:
    1cbb:	030c           	movi.n	a3, 0

00001cbd <TxRef_VAD+0x49>:
    1cbd:	f93c81        	l32r	a8, 1b0 (6d4 <siir_safr>)
    1cc0:	0392a2        	l16si	a10, a2, 6
    1cc3:	029292        	l16si	a9, a2, 4
    1cc6:	f92341        	l32r	a4, 154 (8000 <_end+0x514>)
    1cc9:	0492b2        	l16si	a11, a2, 8
    1ccc:	533930        	max	a3, a9, a3
    1ccf:	c0c4a0        	sub	a12, a4, a10
    1cd2:	11cc00        	slli	a12, a12, 16
    1cd5:	aaca           	add.n	a10, a10, a12
    1cd7:	01a9           	s32i.n	a10, a1, 0
    1cd9:	c0c4b0        	sub	a12, a4, a11
    1cdc:	11cc00        	slli	a12, a12, 16
    1cdf:	bbca           	add.n	a11, a11, a12
    1ce1:	11b9           	s32i.n	a11, a1, 4
    1ce3:	01cd           	mov.n	a12, a1
    1ce5:	03bd           	mov.n	a11, a3
    1ce7:	42a8           	l32i.n	a10, a2, 16
    1ce9:	0008e0        	callx8	a8
    1cec:	01cd           	mov.n	a12, a1
    1cee:	059292        	l16si	a9, a2, 10
    1cf1:	42a9           	s32i.n	a10, a2, 16
    1cf3:	f92f81        	l32r	a8, 1b0 (6d4 <siir_safr>)
    1cf6:	0692a2        	l16si	a10, a2, 12
    1cf9:	c0b490        	sub	a11, a4, a9
    1cfc:	11bb00        	slli	a11, a11, 16
    1cff:	99ba           	add.n	a9, a9, a11
    1d01:	0199           	s32i.n	a9, a1, 0
    1d03:	c0b4a0        	sub	a11, a4, a10
    1d06:	11bb00        	slli	a11, a11, 16
    1d09:	aaba           	add.n	a10, a10, a11
    1d0b:	03bd           	mov.n	a11, a3
    1d0d:	11a9           	s32i.n	a10, a1, 4
    1d0f:	52a8           	l32i.n	a10, a2, 20
    1d11:	0008e0        	callx8	a8
    1d14:	42e8           	l32i.n	a14, a2, 16
    1d16:	52a9           	s32i.n	a10, a2, 20
    1d18:	22cd           	ae_l16si.n	a12, a2, 0
    1d1a:	0add           	mov.n	a13, a10
    1d1c:	0a0c           	movi.n	a10, 0
    1d1e:	ccea           	add.n	a12, a12, a14
    1d20:	0cacd7        	bge	a12, a13, 1d30 <TxRef_VAD+0xbc>
    1d23:	190c           	movi.n	a9, 1

00001d25 <TxRef_VAD+0xb1>:
    1d25:	0c5292        	s16i	a9, a2, 24

00001d28 <TxRef_VAD+0xb4>:
    1d28:	0d52a2        	s16i	a10, a2, 26
    1d2b:	0c9222        	l16si	a2, a2, 24
    1d2e:	f01d           	retw.n

00001d30 <TxRef_VAD+0xbc>:
    1d30:	0c92f2        	l16si	a15, a2, 24
    1d33:	0d92b2        	l16si	a11, a2, 26
    1d36:	091f66        	bnei	a15, 1, 1d43 <TxRef_VAD+0xcf>
    1d39:	328d           	ae_l16si.n	a8, a2, 2
    1d3b:	0a9d           	mov.n	a9, a10
    1d3d:	02a8b7        	bge	a8, a11, 1d43 <TxRef_VAD+0xcf>
    1d40:	fff846        	j	1d25 <TxRef_VAD+0xb1>

00001d43 <TxRef_VAD+0xcf>:
    1d43:	ab1b           	addi.n	a10, a11, 1
    1d45:	fff7c6        	j	1d28 <TxRef_VAD+0xb4>

00001d48 <vector_gain_Q9_15>:
    1d48:	004136        	entry	a1, 32
    1d4b:	399334        	ae_movpa24x2	aep1, a3, a3
    1d4e:	440204        	ae_lp16x2f.i	aep0, a2, 0
    1d51:	215140        	srai	a5, a4, 1
    1d54:	f03d           	nop.n
    1d56:	18a576        	loopgtz	a5, 1d72 <vector_gain_Q9_15+0x2a>
    1d59:	010954        	ae_mulfp24s.hl	aeq1, aep0, aep1
    1d5c:	010174        	ae_mulfp24s.ll	aeq0, aep0, aep1
    1d5f:	355214        	ae_slliq56	aeq1, aeq1, 8
    1d62:	f96bba820f 	{ ae_slliq56	aeq0, aeq0, 8; ae_roundsp16q48asym	aep2, aeq1 }
    1d67:	f863b2220f 	{ ae_sp16f.l.i	aep2, a2, 0; ae_roundsp16q48asym	aep0, aeq0 }
    1d6c:	420214        	ae_sp16f.l.i	aep0, a2, 2
    1d6f:	448214        	ae_lp16x2f.iu	aep0, a2, 4

00001d72 <vector_gain_Q9_15+0x2a>:
    1d72:	f01d           	retw.n

00001d74 <main_err_alpha>:
    1d74:	004136        	entry	a1, 32
    1d77:	a40c           	movi.n	a4, 10
    1d79:	f90e71        	l32r	a7, 1b4 (7fff0000 <_end+0x7ffe8514>)
    1d7c:	682252        	l32i	a5, a2, 0x1a0
    1d7f:	f8f561        	l32r	a6, 154 (8000 <_end+0x514>)
    1d82:	1e2222        	l32i	a2, a2, 120
    1d85:	fec552        	addi	a5, a5, -2
    1d88:	c06630        	sub	a6, a6, a3
    1d8b:	408204        	ae_lp16f.iu	aep0, a2, 0
    1d8e:	116600        	slli	a6, a6, 16
    1d91:	636a           	add.n	a6, a3, a6
    1d93:	836730        	moveqz	a6, a7, a3
    1d96:	309664        	ae_cvtp24a16x2.lh	aep1, a6, a6
    1d99:	f03d           	nop.n
    1d9b:	f03d           	nop.n
    1d9d:	10a476        	loopgtz	a4, 1db1 <main_err_alpha+0x3d>
    1da0:	e804aca51f 	{ ae_lp16f.iu	aep2, a5, 2; ae_mulfp24s.hh	aeq0, aep1, aep0 }
    1da5:	011234        	ae_mulafp24s.ll	aeq0, aep1, aep2
    1da8:	1b8f04        	ae_roundsp16q48asym	aep0, aeq0
    1dab:	420504        	ae_sp16f.l.i	aep0, a5, 0
    1dae:	408214        	ae_lp16f.iu	aep0, a2, 2

00001db1 <main_err_alpha+0x3d>:
    1db1:	f01d           	retw.n

00001db3 <main_err_alpha+0x3f>:
	...

00001db4 <Voice_EC_Prcs_common>:
    1db4:	02a136        	entry	a1, 0x150
    1db7:	02cd           	mov.n	a12, a2
    1db9:	072d           	mov.n	a2, a7
    1dbb:	f89a71        	l32r	a7, 24 (7ae4 <p_ecnr_mem>)
    1dbe:	05bd           	mov.n	a11, a5
    1dc0:	436142        	s32i	a4, a1, 0x10c
    1dc3:	07e8           	l32i.n	a14, a7, 0
    1dc5:	039d           	mov.n	a9, a3
    1dc7:	286192        	s32i	a9, a1, 160
    1dca:	29de42        	addmi	a4, a14, 0x2900
    1dcd:	11def2        	addmi	a15, a14, 0x1100
    1dd0:	20dea2        	addmi	a10, a14, 0x2000
    1dd3:	2a61a2        	s32i	a10, a1, 168
    1dd6:	a69f82        	l16si	a8, a15, 0x14c
    1dd9:	2adea2        	addmi	a10, a14, 0x2a00
    1ddc:	a41aa2        	l16ui	a10, a10, 0x148
    1ddf:	012866        	bnei	a8, 2, 1de4 <Voice_EC_Prcs_common+0x30>
    1de2:	73cc           	bnez.n	a3, 1ded <Voice_EC_Prcs_common+0x39>

00001de4 <Voice_EC_Prcs_common+0x30>:
    1de4:	1d0c           	movi.n	a13, 1
    1de6:	4161d2        	s32i	a13, a1, 0x104
    1de9:	000146        	j	1df2 <Voice_EC_Prcs_common+0x3e>

00001dec <Voice_EC_Prcs_common+0x38>:
	...

00001ded <Voice_EC_Prcs_common+0x39>:
    1ded:	280c           	movi.n	a8, 2
    1def:	416182        	s32i	a8, a1, 0x104

00001df2 <Voice_EC_Prcs_common+0x3e>:
    1df2:	25de32        	addmi	a3, a14, 0x2500
    1df5:	e8c332        	addi	a3, a3, -24
    1df8:	1acc           	bnez.n	a10, 1dfd <Voice_EC_Prcs_common+0x49>
    1dfa:	029cc6        	j	2871 <Voice_EC_Prcs_common+0xabd>
    1dfd:	4661c2        	s32i	a12, a1, 0x118
    1e00:	386192        	s32i	a9, a1, 224
    1e03:	486162        	s32i	a6, a1, 0x120
    1e06:	396122        	s32i	a2, a1, 228
    1e09:	1761b2        	s32i	a11, a1, 92
    1e0c:	542152        	l32i	a5, a1, 0x150
    1e0f:	46de82        	addmi	a8, a14, 0x4600
    1e12:	98c8d2        	addi	a13, a8, -104
    1e15:	456152        	s32i	a5, a1, 0x114
    1e18:	3628a2        	l32i	a10, a8, 216
    1e1b:	f8e751        	l32r	a5, 1b8 (4598 <xtensa_fft256_32b+0x18>)
    1e1e:	3a61a2        	s32i	a10, a1, 232
    1e21:	4c9882        	l16si	a8, a8, 152
    1e24:	4321a2        	l32i	a10, a1, 0x10c
    1e27:	4461a2        	s32i	a10, a1, 0x110
    1e2a:	789c           	beqz.n	a8, 1e45 <Voice_EC_Prcs_common+0x91>
    1e2c:	f8e481        	l32r	a8, 1bc (1c74 <TxRef_VAD>)
    1e2f:	47dea2        	addmi	a10, a14, 0x4700
    1e32:	98caa2        	addi	a10, a10, -104
    1e35:	0008e0        	callx8	a8
    1e38:	07e8           	l32i.n	a14, a7, 0
    1e3a:	1721b2        	l32i	a11, a1, 92
    1e3d:	de5a           	add.n	a13, a14, a5
    1e3f:	11def2        	addmi	a15, a14, 0x1100
    1e42:	000a46        	j	1e6f <Voice_EC_Prcs_common+0xbb>

00001e45 <Voice_EC_Prcs_common+0x91>:
    1e45:	6a0c           	movi.n	a10, 6
    1e47:	12de92        	addmi	a9, a14, 0x1200
    1e4a:	34c992        	addi	a9, a9, 52
    1e4d:	04aa76        	loopgtz	a10, 1e55 <Voice_EC_Prcs_common+0xa1>
    1e50:	39ad           	ae_l16si.n	a10, a9, 2
    1e52:	09c9a4        	ae_s16ip	a10, a9, 2

00001e55 <Voice_EC_Prcs_common+0xa1>:
    1e55:	a99f82        	l16si	a8, a15, 0x152
    1e58:	118890        	slli	a8, a8, 7
    1e5b:	698d           	ae_s16i.n	a8, a9, 0
    1e5d:	7e1dc2        	l16ui	a12, a13, 252
    1e60:	90cce0        	addx2	a12, a12, a14
    1e63:	12dcc2        	addmi	a12, a12, 0x1200
    1e66:	1a9cc2        	l16si	a12, a12, 52
    1e69:	ffa3a2        	movi	a10, 0x3ff
    1e6c:	72aac0        	salt	a10, a10, a12

00001e6f <Voice_EC_Prcs_common+0xbb>:
    1e6f:	a89f52        	l16si	a5, a15, 0x150
    1e72:	3aac           	beqz.n	a10, 1e99 <Voice_EC_Prcs_common+0xe5>
    1e74:	1894c2        	l16si	a12, a4, 48
    1e77:	096c           	movi.n	a9, -32
    1e79:	0ba957        	bge	a9, a5, 1e88 <Voice_EC_Prcs_common+0xd4>
    1e7c:	f87c           	movi.n	a8, -1
    1e7e:	550b           	addi.n	a5, a5, -1
    1e80:	435580        	min	a5, a5, a8
    1e83:	855d           	ae_sext16	a5, a5
    1e85:	a85f52        	s16i	a5, a15, 0x150

00001e88 <Voice_EC_Prcs_common+0xd4>:
    1e88:	ffa192        	movi	a9, 0x1ff
    1e8b:	1929c7        	blt	a9, a12, 1ea8 <Voice_EC_Prcs_common+0xf4>
    1e8e:	a89f52        	l16si	a5, a15, 0x150
    1e91:	ac1b           	addi.n	a10, a12, 1
    1e93:	1854a2        	s16i	a10, a4, 48
    1e96:	000386        	j	1ea8 <Voice_EC_Prcs_common+0xf4>

00001e99 <Voice_EC_Prcs_common+0xe5>:
    1e99:	0bc5e6        	bgei	a5, 32, 1ea8 <Voice_EC_Prcs_common+0xf4>
    1e9c:	180c           	movi.n	a8, 1
    1e9e:	551b           	addi.n	a5, a5, 1
    1ea0:	535580        	max	a5, a5, a8
    1ea3:	855d           	ae_sext16	a5, a5
    1ea5:	a85f52        	s16i	a5, a15, 0x150
    1ea8:	7f1dd2        	l16ui	a13, a13, 254
    1eab:	2a21a2        	l32i	a10, a1, 168
    1eae:	f8c481        	l32r	a8, 1c0 (16c8 <mic240_delay>)
    1eb1:	10dec2        	addmi	a12, a14, 0x1000
    1eb4:	090c           	movi.n	a9, 0
    1eb6:	186492        	s32i	a9, a4, 96
    1eb9:	286492        	s32i	a9, a4, 160
    1ebc:	386492        	s32i	a9, a4, 224
    1ebf:	486492        	s32i	a9, a4, 0x120
    1ec2:	196492        	s32i	a9, a4, 100
    1ec5:	296492        	s32i	a9, a4, 164
    1ec8:	396492        	s32i	a9, a4, 228
    1ecb:	496492        	s32i	a9, a4, 0x124
    1ece:	54ccc2        	addi	a12, a12, 84
    1ed1:	0008e0        	callx8	a8
    1ed4:	10c1a2        	addi	a10, a1, 16
    1ed7:	0b0c           	movi.n	a11, 0
    1ed9:	ec0c           	movi.n	a12, 14
    1edb:	f87f81        	l32r	a8, d8 (5ec8 <xt_memset>)
    1ede:	2a2192        	l32i	a9, a1, 168
    1ee1:	476192        	s32i	a9, a1, 0x11c
    1ee4:	0008e0        	callx8	a8
    1ee7:	94a0b2        	movi	a11, 148
    1eea:	166122        	s32i	a2, a1, 88
    1eed:	4321a2        	l32i	a10, a1, 0x10c
    1ef0:	3a21e2        	l32i	a14, a1, 232
    1ef3:	0f0c           	movi.n	a15, 0
    1ef5:	c453f2        	s16i	a15, a3, 0x188
    1ef8:	01dee2        	addmi	a14, a14, 0x100
    1efb:	94cec2        	addi	a12, a14, -108
    1efe:	4961c2        	s32i	a12, a1, 0x124
    1f01:	053a16        	beqz	a10, 1f58 <Voice_EC_Prcs_common+0x1a4>
    1f04:	b09eb2        	l16si	a11, a14, 0x160
    1f07:	3a2192        	l32i	a9, a1, 232
    1f0a:	f0a0c2        	movi	a12, 240
    1f0d:	080c           	movi.n	a8, 0
    1f0f:	2c6982        	s32i	a8, a9, 176
    1f12:	3c6982        	s32i	a8, a9, 240
    1f15:	4c6982        	s32i	a8, a9, 0x130
    1f18:	5c6982        	s32i	a8, a9, 0x170
    1f1b:	2d6982        	s32i	a8, a9, 180
    1f1e:	3d6982        	s32i	a8, a9, 244
    1f21:	4d6982        	s32i	a8, a9, 0x134
    1f24:	5d6982        	s32i	a8, a9, 0x174
    1f27:	ffe225        	call8	1d48 <vector_gain_Q9_15>
    1f2a:	4321a2        	l32i	a10, a1, 0x10c
    1f2d:	78a0c2        	movi	a12, 120
    1f30:	f8a581        	l32r	a8, 1c4 (29d8 <conv_16_to_24_x2>)
    1f33:	07b8           	l32i.n	a11, a7, 0
    1f35:	1961b2        	s32i	a11, a1, 100
    1f38:	0008e0        	callx8	a8
    1f3b:	1921a2        	l32i	a10, a1, 100
    1f3e:	4321d2        	l32i	a13, a1, 0x10c
    1f41:	3a21c2        	l32i	a12, a1, 232
    1f44:	f0a0e2        	movi	a14, 240
    1f47:	f8a081        	l32r	a8, 1c8 (19d4 <biquad_2cascade_24bitTx>)
    1f4a:	0cbd           	mov.n	a11, a12
    1f4c:	58ccc2        	addi	a12, a12, 88
    1f4f:	0008e0        	callx8	a8
    1f52:	94a0b2        	movi	a11, 148
    1f55:	166122        	s32i	a2, a1, 88

00001f58 <Voice_EC_Prcs_common+0x1a4>:
    1f58:	02d4d2        	addmi	a13, a4, 0x200
    1f5b:	01d422        	addmi	a2, a4, 0x100
    1f5e:	c3ba           	add.n	a12, a3, a11
    1f60:	1e61c2        	s32i	a12, a1, 120
    1f63:	c8c2a2        	addi	a10, a2, -56
    1f66:	ed8b           	addi.n	a14, a13, 8
    1f68:	88c282        	addi	a8, a2, -120
    1f6b:	c8cdf2        	addi	a15, a13, -56
    1f6e:	928b           	addi.n	a9, a2, 8
    1f70:	3e6192        	s32i	a9, a1, 248
    1f73:	2361f2        	s32i	a15, a1, 140
    1f76:	3f6182        	s32i	a8, a1, 252
    1f79:	2461e2        	s32i	a14, a1, 144
    1f7c:	3d61a2        	s32i	a10, a1, 244
    1f7f:	3a21e2        	l32i	a14, a1, 232
    1f82:	02d3a2        	addmi	a10, a3, 0x200
    1f85:	88cdd2        	addi	a13, a13, -120
    1f88:	2561d2        	s32i	a13, a1, 148
    1f8b:	a0cac2        	addi	a12, a10, -96
    1f8e:	48c222        	addi	a2, a2, 72
    1f91:	226122        	s32i	a2, a1, 136
    1f94:	2961c2        	s32i	a12, a1, 164
    1f97:	18c1d2        	addi	a13, a1, 24
    1f9a:	2ccaa2        	addi	a10, a10, 44
    1f9d:	2761a2        	s32i	a10, a1, 156
    1fa0:	3b61d2        	s32i	a13, a1, 236
    1fa3:	02de82        	addmi	a8, a14, 0x200
    1fa6:	48c4c2        	addi	a12, a4, 72
    1fa9:	38ce22        	addi	a2, a14, 56
    1fac:	18cef2        	addi	a15, a14, 24
    1faf:	3761f2        	s32i	a15, a1, 220
    1fb2:	366122        	s32i	a2, a1, 216
    1fb5:	3c61c2        	s32i	a12, a1, 240
    1fb8:	98c892        	addi	a9, a8, -104
    1fbb:	38c1d2        	addi	a13, a1, 56
    1fbe:	1d61d2        	s32i	a13, a1, 116
    1fc1:	2e6192        	s32i	a9, a1, 184
    1fc4:	d8c882        	addi	a8, a8, -40
    1fc7:	40c1c2        	addi	a12, a1, 64
    1fca:	1f61c2        	s32i	a12, a1, 124
    1fcd:	336182        	s32i	a8, a1, 204
    1fd0:	01dee2        	addmi	a14, a14, 0x100
    1fd3:	58ce22        	addi	a2, a14, 88
    1fd6:	98ce92        	addi	a9, a14, -104
    1fd9:	8ccea2        	addi	a10, a14, -116
    1fdc:	d8cef2        	addi	a15, a14, -40
    1fdf:	3261f2        	s32i	a15, a1, 200
    1fe2:	2c61a2        	s32i	a10, a1, 176
    1fe5:	18ce82        	addi	a8, a14, 24
    1fe8:	2f6192        	s32i	a9, a1, 188
    1feb:	316122        	s32i	a2, a1, 196
    1fee:	24c192        	addi	a9, a1, 36
    1ff1:	14c122        	addi	a2, a1, 20
    1ff4:	306182        	s32i	a8, a1, 192
    1ff7:	1cc1a2        	addi	a10, a1, 28
    1ffa:	20c1f2        	addi	a15, a1, 32
    1ffd:	2661f2        	s32i	a15, a1, 152
    2000:	4061a2        	s32i	a10, a1, 0x100
    2003:	28c182        	addi	a8, a1, 40
    2006:	216122        	s32i	a2, a1, 132
    2009:	2d6192        	s32i	a9, a1, 180
    200c:	f87021        	l32r	a2, 1cc (1050 <subband_aec_block+0x244>)
    200f:	03d392        	addmi	a9, a3, 0x300
    2012:	346182        	s32i	a8, a1, 208
    2015:	6a0c           	movi.n	a10, 6
    2017:	4261a2        	s32i	a10, a1, 0x108
    201a:	01d382        	addmi	a8, a3, 0x100
    201d:	90cee2        	addi	a14, a14, -112
    2020:	b8c992        	addi	a9, a9, -72
    2023:	2b6192        	s32i	a9, a1, 172
    2026:	3561e2        	s32i	a14, a1, 212
    2029:	acc882        	addi	a8, a8, -84
    202c:	1a6182        	s32i	a8, a1, 104
    202f:	7cc3e2        	addi	a14, a3, 124
    2032:	1c61e2        	s32i	a14, a1, 112

00002035 <Voice_EC_Prcs_common+0x281>:
    2035:	4621a2        	l32i	a10, a1, 0x118
    2038:	07c8           	l32i.n	a12, a7, 0
    203a:	8d2c           	movi.n	a13, 40
    203c:	f86581        	l32r	a8, 1d0 (1824 <emph_filter_N>)
    203f:	bc2a           	add.n	a11, a12, a2
    2041:	10dcc2        	addmi	a12, a12, 0x1000
    2044:	34ccc2        	addi	a12, a12, 52
    2047:	0008e0        	callx8	a8
    204a:	4721a2        	l32i	a10, a1, 0x11c
    204d:	07c8           	l32i.n	a12, a7, 0
    204f:	8d2c           	movi.n	a13, 40
    2051:	f85f81        	l32r	a8, 1d0 (1824 <emph_filter_N>)
    2054:	bc2a           	add.n	a11, a12, a2
    2056:	10dcc2        	addmi	a12, a12, 0x1000
    2059:	38ccc2        	addi	a12, a12, 56
    205c:	0008e0        	callx8	a8
    205f:	4621c2        	l32i	a12, a1, 0x118
    2062:	07b8           	l32i.n	a11, a7, 0
    2064:	10c1e2        	addi	a14, a1, 16
    2067:	f85b81        	l32r	a8, 1d4 (1744 <tx_downsample_by2>)
    206a:	24dbd2        	addmi	a13, a11, 0x2400
    206d:	11dbb2        	addmi	a11, a11, 0x1100
    2070:	582ba2        	l32i	a10, a11, 0x160
    2073:	592bb2        	l32i	a11, a11, 0x164
    2076:	0008e0        	callx8	a8
    2079:	4721c2        	l32i	a12, a1, 0x11c
    207c:	07b8           	l32i.n	a11, a7, 0
    207e:	3b21e2        	l32i	a14, a1, 236
    2081:	f85481        	l32r	a8, 1d4 (1744 <tx_downsample_by2>)
    2084:	24dbd2        	addmi	a13, a11, 0x2400
    2087:	11dbb2        	addmi	a11, a11, 0x1100
    208a:	20cdd2        	addi	a13, a13, 32
    208d:	5c2ba2        	l32i	a10, a11, 0x170
    2090:	5d2bb2        	l32i	a11, a11, 0x174
    2093:	0008e0        	callx8	a8
    2096:	3f24d2        	l32i	a13, a4, 252
    2099:	07c8           	l32i.n	a12, a7, 0
    209b:	2f24e2        	l32i	a14, a4, 188
    209e:	f84e81        	l32r	a8, 1d8 (18a0 <analy_3band>)
    20a1:	2bdcb2        	addmi	a11, a12, 0x2b00
    20a4:	11dcc2        	addmi	a12, a12, 0x1100
    20a7:	60cbb2        	addi	a11, a11, 96
    20aa:	582ca2        	l32i	a10, a12, 0x160
    20ad:	572cc2        	l32i	a12, a12, 0x15c
    20b0:	0008e0        	callx8	a8
    20b3:	1f24d2        	l32i	a13, a4, 124
    20b6:	07a8           	l32i.n	a10, a7, 0
    20b8:	ae0c           	movi.n	a14, 10
    20ba:	f84381        	l32r	a8, 1c8 (19d4 <biquad_2cascade_24bitTx>)
    20bd:	10dac2        	addmi	a12, a10, 0x1000
    20c0:	25dab2        	addmi	a11, a10, 0x2500
    20c3:	a0cbb2        	addi	a11, a11, -96
    20c6:	12daa2        	addmi	a10, a10, 0x1200
    20c9:	172aa2        	l32i	a10, a10, 92
    20cc:	0008e0        	callx8	a8
    20cf:	4024d2        	l32i	a13, a4, 0x100
    20d2:	07c8           	l32i.n	a12, a7, 0
    20d4:	3024e2        	l32i	a14, a4, 192
    20d7:	f84081        	l32r	a8, 1d8 (18a0 <analy_3band>)
    20da:	2cdcb2        	addmi	a11, a12, 0x2c00
    20dd:	11dcc2        	addmi	a12, a12, 0x1100
    20e0:	a0cbb2        	addi	a11, a11, -96
    20e3:	5c2ca2        	l32i	a10, a12, 0x170
    20e6:	572cc2        	l32i	a12, a12, 0x15c
    20e9:	0008e0        	callx8	a8
    20ec:	07a8           	l32i.n	a10, a7, 0
    20ee:	2024b2        	l32i	a11, a4, 128
    20f1:	f83a81        	l32r	a8, 1dc (1a38 <conv_24_to_16>)
    20f4:	12daa2        	addmi	a10, a10, 0x1200
    20f7:	172aa2        	l32i	a10, a10, 92
    20fa:	0008e0        	callx8	a8
    20fd:	04ad           	mov.n	a10, a4
    20ff:	3c21b2        	l32i	a11, a1, 240
    2102:	ac0c           	movi.n	a12, 10
    2104:	f83781        	l32r	a8, 1e0 (e0c <subband_aec_block>)
    2107:	05dd           	mov.n	a13, a5
    2109:	1e0c           	movi.n	a14, 1
    210b:	0008e0        	callx8	a8
    210e:	04ad           	mov.n	a10, a4
    2110:	3d21b2        	l32i	a11, a1, 244
    2113:	ac0c           	movi.n	a12, 10
    2115:	f83281        	l32r	a8, 1e0 (e0c <subband_aec_block>)
    2118:	05dd           	mov.n	a13, a5
    211a:	3e0c           	movi.n	a14, 3
    211c:	0008e0        	callx8	a8
    211f:	04ad           	mov.n	a10, a4
    2121:	3e21b2        	l32i	a11, a1, 248
    2124:	4c1c           	movi.n	a12, 20
    2126:	f82e81        	l32r	a8, 1e0 (e0c <subband_aec_block>)
    2129:	05dd           	mov.n	a13, a5
    212b:	4e0c           	movi.n	a14, 4
    212d:	0008e0        	callx8	a8
    2130:	04ad           	mov.n	a10, a4
    2132:	3f21b2        	l32i	a11, a1, 252
    2135:	f82b81        	l32r	a8, 1e4 (1080 <subband_aec_mid_channel>)
    2138:	05cd           	mov.n	a12, a5
    213a:	2d0c           	movi.n	a13, 2
    213c:	0008e0        	callx8	a8
    213f:	2124a2        	l32i	a10, a4, 132
    2142:	4124b2        	l32i	a11, a4, 0x104
    2145:	5124c2        	l32i	a12, a4, 0x144
    2148:	3124d2        	l32i	a13, a4, 196
    214b:	f82781        	l32r	a8, 1e8 (1a54 <gain_after_ec>)
    214e:	0e0c           	movi.n	a14, 0
    2150:	0f0c           	movi.n	a15, 0
    2152:	0008e0        	callx8	a8
    2155:	412192        	l32i	a9, a1, 0x104
    2158:	07e8           	l32i.n	a14, a7, 0
    215a:	fec992        	addi	a9, a9, -2
    215d:	3fa956        	bnez	a9, 255b <Voice_EC_Prcs_common+0x7a7>
    2160:	be2a           	add.n	a11, a14, a2
    2162:	3821a2        	l32i	a10, a1, 224
    2165:	8d2c           	movi.n	a13, 40
    2167:	f81a81        	l32r	a8, 1d0 (1824 <emph_filter_N>)
    216a:	10dec2        	addmi	a12, a14, 0x1000
    216d:	3cccc2        	addi	a12, a12, 60
    2170:	0008e0        	callx8	a8
    2173:	3821c2        	l32i	a12, a1, 224
    2176:	07b8           	l32i.n	a11, a7, 0
    2178:	2121e2        	l32i	a14, a1, 132
    217b:	f81681        	l32r	a8, 1d4 (1744 <tx_downsample_by2>)
    217e:	24dbd2        	addmi	a13, a11, 0x2400
    2181:	11dbb2        	addmi	a11, a11, 0x1100
    2184:	40cdd2        	addi	a13, a13, 64
    2187:	5a2ba2        	l32i	a10, a11, 0x168
    218a:	5b2bb2        	l32i	a11, a11, 0x16c
    218d:	0008e0        	callx8	a8
    2190:	7f24d2        	l32i	a13, a4, 0x1fc
    2193:	07c8           	l32i.n	a12, a7, 0
    2195:	6f24e2        	l32i	a14, a4, 0x1bc
    2198:	f81081        	l32r	a8, 1d8 (18a0 <analy_3band>)
    219b:	2cdcb2        	addmi	a11, a12, 0x2c00
    219e:	11dcc2        	addmi	a12, a12, 0x1100
    21a1:	e0cbb2        	addi	a11, a11, -32
    21a4:	5a2ca2        	l32i	a10, a12, 0x168
    21a7:	572cc2        	l32i	a12, a12, 0x15c
    21aa:	0008e0        	callx8	a8
    21ad:	5f24d2        	l32i	a13, a4, 0x17c
    21b0:	07a8           	l32i.n	a10, a7, 0
    21b2:	ae0c           	movi.n	a14, 10
    21b4:	f80581        	l32r	a8, 1c8 (19d4 <biquad_2cascade_24bitTx>)
    21b7:	10dac2        	addmi	a12, a10, 0x1000
    21ba:	25dab2        	addmi	a11, a10, 0x2500
    21bd:	b8cbb2        	addi	a11, a11, -72
    21c0:	12daa2        	addmi	a10, a10, 0x1200
    21c3:	172aa2        	l32i	a10, a10, 92
    21c6:	0008e0        	callx8	a8
    21c9:	04ad           	mov.n	a10, a4
    21cb:	2221b2        	l32i	a11, a1, 136
    21ce:	ac0c           	movi.n	a12, 10
    21d0:	f80481        	l32r	a8, 1e0 (e0c <subband_aec_block>)
    21d3:	05dd           	mov.n	a13, a5
    21d5:	1e0c           	movi.n	a14, 1
    21d7:	0008e0        	callx8	a8
    21da:	04ad           	mov.n	a10, a4
    21dc:	2321b2        	l32i	a11, a1, 140
    21df:	ac0c           	movi.n	a12, 10
    21e1:	f7ff81        	l32r	a8, 1e0 (e0c <subband_aec_block>)
    21e4:	05dd           	mov.n	a13, a5
    21e6:	3e0c           	movi.n	a14, 3
    21e8:	0008e0        	callx8	a8
    21eb:	04ad           	mov.n	a10, a4
    21ed:	2421b2        	l32i	a11, a1, 144
    21f0:	4c1c           	movi.n	a12, 20
    21f2:	f7fb81        	l32r	a8, 1e0 (e0c <subband_aec_block>)
    21f5:	05dd           	mov.n	a13, a5
    21f7:	4e0c           	movi.n	a14, 4
    21f9:	0008e0        	callx8	a8
    21fc:	04ad           	mov.n	a10, a4
    21fe:	2521b2        	l32i	a11, a1, 148
    2201:	f7f881        	l32r	a8, 1e4 (1080 <subband_aec_mid_channel>)
    2204:	05cd           	mov.n	a12, a5
    2206:	2d0c           	movi.n	a13, 2
    2208:	0008e0        	callx8	a8
    220b:	6124a2        	l32i	a10, a4, 0x184
    220e:	8124b2        	l32i	a11, a4, 0x204
    2211:	9124c2        	l32i	a12, a4, 0x244
    2214:	7124d2        	l32i	a13, a4, 0x1c4
    2217:	f7f481        	l32r	a8, 1e8 (1a54 <gain_after_ec>)
    221a:	1e0c           	movi.n	a14, 1
    221c:	0f0c           	movi.n	a15, 0
    221e:	0008e0        	callx8	a8
    2221:	07e8           	l32i.n	a14, a7, 0
    2223:	11def2        	addmi	a15, a14, 0x1100
    2226:	ac9f92        	l16si	a9, a15, 0x158
    2229:	049890        	extui	a9, a9, 8, 1
    222c:	292916        	beqz	a9, 24c2 <Voice_EC_Prcs_common+0x70e>
    222f:	03ad           	mov.n	a10, a3
    2231:	f7ee81        	l32r	a8, 1ec (4c48 <prelim_filter>)
    2234:	30c1b2        	addi	a11, a1, 48
    2237:	50c1c2        	addi	a12, a1, 80
    223a:	0008e0        	callx8	a8
    223d:	03ad           	mov.n	a10, a3
    223f:	1c21b2        	l32i	a11, a1, 112
    2242:	f7eb81        	l32r	a8, 1f0 (4ef4 <prelim_filter3>)
    2245:	3c0c           	movi.n	a12, 3
    2247:	1d21d2        	l32i	a13, a1, 116
    224a:	0008e0        	callx8	a8
    224d:	03ad           	mov.n	a10, a3
    224f:	1e21b2        	l32i	a11, a1, 120
    2252:	f7e781        	l32r	a8, 1f0 (4ef4 <prelim_filter3>)
    2255:	4c0c           	movi.n	a12, 4
    2257:	1f21d2        	l32i	a13, a1, 124
    225a:	0008e0        	callx8	a8
    225d:	c1a8           	l32i.n	a10, a1, 48
    225f:	f7e581        	l32r	a8, 1f4 (1ba4 <adjust_phase>)
    2262:	2a93b2        	l16si	a11, a3, 84
    2265:	2061b2        	s32i	a11, a1, 128
    2268:	0008e0        	callx8	a8
    226b:	c1a9           	s32i.n	a10, a1, 48
    226d:	f7e181        	l32r	a8, 1f4 (1ba4 <adjust_phase>)
    2270:	2021b2        	l32i	a11, a1, 128
    2273:	e1a8           	l32i.n	a10, a1, 56
    2275:	0008e0        	callx8	a8
    2278:	e1a9           	s32i.n	a10, a1, 56
    227a:	f7de81        	l32r	a8, 1f4 (1ba4 <adjust_phase>)
    227d:	2021b2        	l32i	a11, a1, 128
    2280:	1021a2        	l32i	a10, a1, 64
    2283:	0008e0        	callx8	a8
    2286:	0a93b2        	l16si	a11, a3, 20
    2289:	109392        	l16si	a9, a3, 32
    228c:	1061a2        	s32i	a10, a1, 64
    228f:	dd7c           	movi.n	a13, -3
    2291:	24a9b7        	bge	a9, a11, 22b9 <Voice_EC_Prcs_common+0x505>
    2294:	03ad           	mov.n	a10, a3
    2296:	f7d881        	l32r	a8, 1f8 (51b8 <cali_power>)
    2299:	1a21b2        	l32i	a11, a1, 104
    229c:	30c1c2        	addi	a12, a1, 48
    229f:	0008e0        	callx8	a8
    22a2:	f7d681        	l32r	a8, 1fc (5068 <cali_module_short>)
    22a5:	03ad           	mov.n	a10, a3
    22a7:	30c1b2        	addi	a11, a1, 48
    22aa:	0008e0        	callx8	a8
    22ad:	6793d2        	l16si	a13, a3, 206
    22b0:	6a9392        	l16si	a9, a3, 212
    22b3:	1b6192        	s32i	a9, a1, 108
    22b6:	000506        	j	22ce <Voice_EC_Prcs_common+0x51a>

000022b9 <Voice_EC_Prcs_common+0x505>:
    22b9:	0b0c           	movi.n	a11, 0
    22bb:	0a0c           	movi.n	a10, 0
    22bd:	dc7c           	movi.n	a12, -3
    22bf:	6753c2        	s16i	a12, a3, 206
    22c2:	1b61a2        	s32i	a10, a1, 108
    22c5:	6b53b2        	s16i	a11, a3, 214
    22c8:	6953b2        	s16i	a11, a3, 210
    22cb:	6a53b2        	s16i	a11, a3, 212

000022ce <Voice_EC_Prcs_common+0x51a>:
    22ce:	0e0c           	movi.n	a14, 0
    22d0:	1f0c           	movi.n	a15, 1
    22d2:	f7cb81        	l32r	a8, 200 (558c <beam1_proc>)
    22d5:	1b21a2        	l32i	a10, a1, 108
    22d8:	ce13c2        	l16ui	a12, a3, 0x19c
    22db:	699392        	l16si	a9, a3, 210
    22de:	0b2c           	movi.n	a11, 32
    22e0:	63ccb0        	minu	a12, a12, a11
    22e3:	c0bbc0        	sub	a11, a11, a12
    22e6:	8299c0        	mull	a9, a9, a12
    22e9:	82aab0        	mull	a10, a10, a11
    22ec:	2921b2        	l32i	a11, a1, 164
    22ef:	6823c2        	l32i	a12, a3, 0x1a0
    22f2:	99aa           	add.n	a9, a9, a10
    22f4:	03ad           	mov.n	a10, a3
    22f6:	10c992        	addi	a9, a9, 16
    22f9:	219590        	srai	a9, a9, 5
    22fc:	6a5392        	s16i	a9, a3, 212
    22ff:	0008e0        	callx8	a8
    2302:	03ad           	mov.n	a10, a3
    2304:	2721b2        	l32i	a11, a1, 156
    2307:	8d23c2        	l32i	a12, a3, 0x234
    230a:	6993d2        	l16si	a13, a3, 210
    230d:	f7bc81        	l32r	a8, 200 (558c <beam1_proc>)
    2310:	0e0c           	movi.n	a14, 0
    2312:	0f0c           	movi.n	a15, 0
    2314:	0008e0        	callx8	a8
    2317:	03ad           	mov.n	a10, a3
    2319:	2b21b2        	l32i	a11, a1, 172
    231c:	b023c2        	l32i	a12, a3, 0x2c0
    231f:	6a93d2        	l16si	a13, a3, 212
    2322:	f7b781        	l32r	a8, 200 (558c <beam1_proc>)
    2325:	0e0c           	movi.n	a14, 0
    2327:	0f0c           	movi.n	a15, 0
    2329:	0008e0        	callx8	a8
    232c:	03ad           	mov.n	a10, a3
    232e:	2b21b2        	l32i	a11, a1, 172
    2331:	b023c2        	l32i	a12, a3, 0x2c0
    2334:	6a93d2        	l16si	a13, a3, 212
    2337:	f7b281        	l32r	a8, 200 (558c <beam1_proc>)
    233a:	ae0c           	movi.n	a14, 10
    233c:	0f0c           	movi.n	a15, 0
    233e:	0008e0        	callx8	a8
    2341:	8c23a2        	l32i	a10, a3, 0x230
    2344:	f7b081        	l32r	a8, 204 (1c48 <gain_ref>)
    2347:	0493b2        	l16si	a11, a3, 8
    234a:	5c0c           	movi.n	a12, 5
    234c:	0008e0        	callx8	a8
    234f:	af23a2        	l32i	a10, a3, 0x2bc
    2352:	f7ac81        	l32r	a8, 204 (1c48 <gain_ref>)
    2355:	0593b2        	l16si	a11, a3, 10
    2358:	ac0c           	movi.n	a12, 10
    235a:	0008e0        	callx8	a8
    235d:	07e8           	l32i.n	a14, a7, 0
    235f:	6823b2        	l32i	a11, a3, 0x1a0
    2362:	2fdea2        	addmi	a10, a14, 0x2f00
    2365:	2ede92        	addmi	a9, a14, 0x2e00
    2368:	4cc992        	addi	a9, a9, 76
    236b:	7f9992        	l16si	a9, a9, 254
    236e:	48caa2        	addi	a10, a10, 72
    2371:	1861a2        	s32i	a10, a1, 96
    2374:	a9bc           	beqz.n	a9, 23b2 <Voice_EC_Prcs_common+0x5fe>
    2376:	f72a81        	l32r	a8, 20 (5ee0 <xt_memcpy>)
    2379:	1e23a2        	l32i	a10, a3, 120
    237c:	ac0c           	movi.n	a12, 10
    237e:	0008e0        	callx8	a8
    2381:	2921b2        	l32i	a11, a1, 164
    2384:	8e1c           	movi.n	a14, 24
    2386:	f7a081        	l32r	a8, 208 (5704 <beam2_proc>)
    2389:	090c           	movi.n	a9, 0
    238b:	2891f2        	l16si	a15, a1, 80
    238e:	07a8           	l32i.n	a10, a7, 0
    2390:	6793d2        	l16si	a13, a3, 206
    2393:	6823c2        	l32i	a12, a3, 0x1a0
    2396:	12daa2        	addmi	a10, a10, 0x1200
    2399:	289aa2        	l16si	a10, a10, 80
    239c:	01a9           	s32i.n	a10, a1, 0
    239e:	1199           	s32i.n	a9, a1, 4
    23a0:	03ad           	mov.n	a10, a3
    23a2:	0008e0        	callx8	a8
    23a5:	1821b2        	l32i	a11, a1, 96
    23a8:	03ad           	mov.n	a10, a3
    23aa:	2bbd           	ae_l16si.n	a11, a11, 0
    23ac:	ff9c65        	call8	1d74 <main_err_alpha>
    23af:	000806        	j	23d3 <Voice_EC_Prcs_common+0x61f>

000023b2 <Voice_EC_Prcs_common+0x5fe>:
    23b2:	f79581        	l32r	a8, 208 (5704 <beam2_proc>)
    23b5:	090c           	movi.n	a9, 0
    23b7:	2891f2        	l16si	a15, a1, 80
    23ba:	6793d2        	l16si	a13, a3, 206
    23bd:	0bcd           	mov.n	a12, a11
    23bf:	12dea2        	addmi	a10, a14, 0x1200
    23c2:	2921b2        	l32i	a11, a1, 164
    23c5:	8e1c           	movi.n	a14, 24
    23c7:	289aa2        	l16si	a10, a10, 80
    23ca:	01a9           	s32i.n	a10, a1, 0
    23cc:	1199           	s32i.n	a9, a1, 4
    23ce:	03ad           	mov.n	a10, a3
    23d0:	0008e0        	callx8	a8

000023d3 <Voice_EC_Prcs_common+0x61f>:
    23d3:	2721b2        	l32i	a11, a1, 156
    23d6:	8e1c           	movi.n	a14, 24
    23d8:	f746f1        	l32r	a15, f0 (7fff <_end+0x513>)
    23db:	f78b81        	l32r	a8, 208 (5704 <beam2_proc>)
    23de:	090c           	movi.n	a9, 0
    23e0:	6993d2        	l16si	a13, a3, 210
    23e3:	8d23c2        	l32i	a12, a3, 0x234
    23e6:	0a1c           	movi.n	a10, 16
    23e8:	01a9           	s32i.n	a10, a1, 0
    23ea:	1199           	s32i.n	a9, a1, 4
    23ec:	03ad           	mov.n	a10, a3
    23ee:	0008e0        	callx8	a8
    23f1:	2b21b2        	l32i	a11, a1, 172
    23f4:	9e1c           	movi.n	a14, 25
    23f6:	f73ef1        	l32r	a15, f0 (7fff <_end+0x513>)
    23f9:	f78381        	l32r	a8, 208 (5704 <beam2_proc>)
    23fc:	090c           	movi.n	a9, 0
    23fe:	6a93d2        	l16si	a13, a3, 212
    2401:	b023c2        	l32i	a12, a3, 0x2c0
    2404:	0a1c           	movi.n	a10, 16
    2406:	01a9           	s32i.n	a10, a1, 0
    2408:	1199           	s32i.n	a9, a1, 4
    240a:	03ad           	mov.n	a10, a3
    240c:	0008e0        	callx8	a8
    240f:	2b21b2        	l32i	a11, a1, 172
    2412:	9e1c           	movi.n	a14, 25
    2414:	f737f1        	l32r	a15, f0 (7fff <_end+0x513>)
    2417:	f77c81        	l32r	a8, 208 (5704 <beam2_proc>)
    241a:	a90c           	movi.n	a9, 10
    241c:	6a93d2        	l16si	a13, a3, 212
    241f:	b023c2        	l32i	a12, a3, 0x2c0
    2422:	0a1c           	movi.n	a10, 16
    2424:	01a9           	s32i.n	a10, a1, 0
    2426:	1199           	s32i.n	a9, a1, 4
    2428:	03ad           	mov.n	a10, a3
    242a:	0008e0        	callx8	a8
    242d:	f77781        	l32r	a8, 20c (5a34 <beam1_mid_band>)
    2430:	03ad           	mov.n	a10, a3
    2432:	0008e0        	callx8	a8
    2435:	d223a2        	l32i	a10, a3, 0x348
    2438:	f77381        	l32r	a8, 204 (1c48 <gain_ref>)
    243b:	0393b2        	l16si	a11, a3, 6
    243e:	ac0c           	movi.n	a12, 10
    2440:	0008e0        	callx8	a8
    2443:	f77381        	l32r	a8, 210 (5b90 <beam2_mid_band>)
    2446:	03ad           	mov.n	a10, a3
    2448:	0008e0        	callx8	a8
    244b:	6823a2        	l32i	a10, a3, 0x1a0
    244e:	8b23b2        	l32i	a11, a3, 0x22c
    2451:	07e8           	l32i.n	a14, a7, 0
    2453:	d123c2        	l32i	a12, a3, 0x344
    2456:	f76f81        	l32r	a8, 214 (194c <synth_3band>)
    2459:	2cded2        	addmi	a13, a14, 0x2c00
    245c:	20cdd2        	addi	a13, a13, 32
    245f:	12dee2        	addmi	a14, a14, 0x1200
    2462:	1f2ee2        	l32i	a14, a14, 124
    2465:	0008e0        	callx8	a8
    2468:	ae23b2        	l32i	a11, a3, 0x2b8
    246b:	4821c2        	l32i	a12, a1, 0x120
    246e:	07a8           	l32i.n	a10, a7, 0
    2470:	4021e2        	l32i	a14, a1, 0x100
    2473:	f76981        	l32r	a8, 218 (17b4 <tx_upsample_by2>)
    2476:	24dad2        	addmi	a13, a10, 0x2400
    2479:	60cdd2        	addi	a13, a13, 96
    247c:	12daa2        	addmi	a10, a10, 0x1200
    247f:	1f2aa2        	l32i	a10, a10, 124
    2482:	0008e0        	callx8	a8
    2485:	6a23a2        	l32i	a10, a3, 0x1a8
    2488:	8d23b2        	l32i	a11, a3, 0x234
    248b:	07e8           	l32i.n	a14, a7, 0
    248d:	d323c2        	l32i	a12, a3, 0x34c
    2490:	f76181        	l32r	a8, 214 (194c <synth_3band>)
    2493:	2dded2        	addmi	a13, a14, 0x2d00
    2496:	9ccdd2        	addi	a13, a13, -100
    2499:	12dee2        	addmi	a14, a14, 0x1200
    249c:	1e2ee2        	l32i	a14, a14, 120
    249f:	0008e0        	callx8	a8
    24a2:	b023b2        	l32i	a11, a3, 0x2c0
    24a5:	3921c2        	l32i	a12, a1, 228
    24a8:	07a8           	l32i.n	a10, a7, 0
    24aa:	2621e2        	l32i	a14, a1, 152
    24ad:	f75a81        	l32r	a8, 218 (17b4 <tx_upsample_by2>)
    24b0:	25dad2        	addmi	a13, a10, 0x2500
    24b3:	80cdd2        	addi	a13, a13, -128
    24b6:	12daa2        	addmi	a10, a10, 0x1200
    24b9:	1e2aa2        	l32i	a10, a10, 120
    24bc:	0008e0        	callx8	a8
    24bf:	0020c6        	j	2546 <Voice_EC_Prcs_common+0x792>

000024c2 <Voice_EC_Prcs_common+0x70e>:
    24c2:	6124a2        	l32i	a10, a4, 0x184
    24c5:	8124b2        	l32i	a11, a4, 0x204
    24c8:	7124c2        	l32i	a12, a4, 0x1c4
    24cb:	2dded2        	addmi	a13, a14, 0x2d00
    24ce:	f75181        	l32r	a8, 214 (194c <synth_3band>)
    24d1:	9ccdd2        	addi	a13, a13, -100
    24d4:	5e2fe2        	l32i	a14, a15, 0x178
    24d7:	0008e0        	callx8	a8
    24da:	9124b2        	l32i	a11, a4, 0x244
    24dd:	3921c2        	l32i	a12, a1, 228
    24e0:	07a8           	l32i.n	a10, a7, 0
    24e2:	2621e2        	l32i	a14, a1, 152
    24e5:	f74c81        	l32r	a8, 218 (17b4 <tx_upsample_by2>)
    24e8:	25dad2        	addmi	a13, a10, 0x2500
    24eb:	80cdd2        	addi	a13, a13, -128
    24ee:	12daa2        	addmi	a10, a10, 0x1200
    24f1:	1e2aa2        	l32i	a10, a10, 120
    24f4:	0008e0        	callx8	a8
    24f7:	3921a2        	l32i	a10, a1, 228
    24fa:	07c8           	l32i.n	a12, a7, 0
    24fc:	8d2c           	movi.n	a13, 40
    24fe:	f74781        	l32r	a8, 21c (1868 <deemph_filter_N>)
    2501:	bc2a           	add.n	a11, a12, a2
    2503:	10dcc2        	addmi	a12, a12, 0x1000
    2506:	48ccc2        	addi	a12, a12, 72
    2509:	0008e0        	callx8	a8
    250c:	2124a2        	l32i	a10, a4, 132
    250f:	4124b2        	l32i	a11, a4, 0x104
    2512:	07e8           	l32i.n	a14, a7, 0
    2514:	3124c2        	l32i	a12, a4, 196
    2517:	f73f81        	l32r	a8, 214 (194c <synth_3band>)
    251a:	2cded2        	addmi	a13, a14, 0x2c00
    251d:	20cdd2        	addi	a13, a13, 32
    2520:	12dee2        	addmi	a14, a14, 0x1200
    2523:	1f2ee2        	l32i	a14, a14, 124
    2526:	0008e0        	callx8	a8
    2529:	5124b2        	l32i	a11, a4, 0x144
    252c:	4821c2        	l32i	a12, a1, 0x120
    252f:	07a8           	l32i.n	a10, a7, 0
    2531:	4021e2        	l32i	a14, a1, 0x100
    2534:	f73981        	l32r	a8, 218 (17b4 <tx_upsample_by2>)
    2537:	24dad2        	addmi	a13, a10, 0x2400
    253a:	60cdd2        	addi	a13, a13, 96
    253d:	12daa2        	addmi	a10, a10, 0x1200
    2540:	1f2aa2        	l32i	a10, a10, 124
    2543:	0008e0        	callx8	a8

00002546 <Voice_EC_Prcs_common+0x792>:
    2546:	3921e2        	l32i	a14, a1, 228
    2549:	3821f2        	l32i	a15, a1, 224
    254c:	50cee2        	addi	a14, a14, 80
    254f:	50cff2        	addi	a15, a15, 80
    2552:	3861f2        	s32i	a15, a1, 224
    2555:	3961e2        	s32i	a14, a1, 228
    2558:	000dc6        	j	2593 <Voice_EC_Prcs_common+0x7df>

0000255b <Voice_EC_Prcs_common+0x7a7>:
    255b:	2124a2        	l32i	a10, a4, 132
    255e:	4124b2        	l32i	a11, a4, 0x104
    2561:	3124c2        	l32i	a12, a4, 196
    2564:	f72c81        	l32r	a8, 214 (194c <synth_3band>)
    2567:	2cded2        	addmi	a13, a14, 0x2c00
    256a:	20cdd2        	addi	a13, a13, 32
    256d:	12dee2        	addmi	a14, a14, 0x1200
    2570:	1f2ee2        	l32i	a14, a14, 124
    2573:	0008e0        	callx8	a8
    2576:	5124b2        	l32i	a11, a4, 0x144
    2579:	4821c2        	l32i	a12, a1, 0x120
    257c:	07a8           	l32i.n	a10, a7, 0
    257e:	4021e2        	l32i	a14, a1, 0x100
    2581:	f72581        	l32r	a8, 218 (17b4 <tx_upsample_by2>)
    2584:	24dad2        	addmi	a13, a10, 0x2400
    2587:	60cdd2        	addi	a13, a13, 96
    258a:	12daa2        	addmi	a10, a10, 0x1200
    258d:	1f2aa2        	l32i	a10, a10, 124
    2590:	0008e0        	callx8	a8

00002593 <Voice_EC_Prcs_common+0x7df>:
    2593:	4821a2        	l32i	a10, a1, 0x120
    2596:	07c8           	l32i.n	a12, a7, 0
    2598:	8d2c           	movi.n	a13, 40
    259a:	f72081        	l32r	a8, 21c (1868 <deemph_filter_N>)
    259d:	bc2a           	add.n	a11, a12, a2
    259f:	10dcc2        	addmi	a12, a12, 0x1000
    25a2:	40ccc2        	addi	a12, a12, 64
    25a5:	0008e0        	callx8	a8
    25a8:	4321f2        	l32i	a15, a1, 0x10c
    25ab:	482182        	l32i	a8, a1, 0x120
    25ae:	472192        	l32i	a9, a1, 0x11c
    25b1:	4621a2        	l32i	a10, a1, 0x118
    25b4:	50c882        	addi	a8, a8, 80
    25b7:	50c992        	addi	a9, a9, 80
    25ba:	50caa2        	addi	a10, a10, 80
    25bd:	4661a2        	s32i	a10, a1, 0x118
    25c0:	476192        	s32i	a9, a1, 0x11c
    25c3:	486182        	s32i	a8, a1, 0x120
    25c6:	123f16        	beqz	a15, 26ed <Voice_EC_Prcs_common+0x939>
    25c9:	4421a2        	l32i	a10, a1, 0x110
    25cc:	2c21c2        	l32i	a12, a1, 176
    25cf:	07b8           	l32i.n	a11, a7, 0
    25d1:	f6ff81        	l32r	a8, 1d0 (1824 <emph_filter_N>)
    25d4:	8d2c           	movi.n	a13, 40
    25d6:	bb2a           	add.n	a11, a11, a2
    25d8:	0008e0        	callx8	a8
    25db:	4421c2        	l32i	a12, a1, 0x110
    25de:	3721d2        	l32i	a13, a1, 220
    25e1:	4921b2        	l32i	a11, a1, 0x124
    25e4:	2d21e2        	l32i	a14, a1, 180
    25e7:	f6fb81        	l32r	a8, 1d4 (1744 <tx_downsample_by2>)
    25ea:	742ba2        	l32i	a10, a11, 0x1d0
    25ed:	752bb2        	l32i	a11, a11, 0x1d4
    25f0:	0008e0        	callx8	a8
    25f3:	2e21b2        	l32i	a11, a1, 184
    25f6:	4921e2        	l32i	a14, a1, 0x124
    25f9:	f6f781        	l32r	a8, 1d8 (18a0 <analy_3band>)
    25fc:	07c8           	l32i.n	a12, a7, 0
    25fe:	742ea2        	l32i	a10, a14, 0x1d0
    2601:	2e2ed2        	l32i	a13, a14, 184
    2604:	12dcc2        	addmi	a12, a12, 0x1200
    2607:	172cc2        	l32i	a12, a12, 92
    260a:	1e2ee2        	l32i	a14, a14, 120
    260d:	0008e0        	callx8	a8
    2610:	4921b2        	l32i	a11, a1, 0x124
    2613:	07a8           	l32i.n	a10, a7, 0
    2615:	f6f181        	l32r	a8, 1dc (1a38 <conv_24_to_16>)
    2618:	ebb8           	l32i.n	a11, a11, 56
    261a:	12daa2        	addmi	a10, a10, 0x1200
    261d:	172aa2        	l32i	a10, a10, 92
    2620:	0008e0        	callx8	a8
    2623:	04ad           	mov.n	a10, a4
    2625:	2f21b2        	l32i	a11, a1, 188
    2628:	ac0c           	movi.n	a12, 10
    262a:	f6ed81        	l32r	a8, 1e0 (e0c <subband_aec_block>)
    262d:	05dd           	mov.n	a13, a5
    262f:	1e0c           	movi.n	a14, 1
    2631:	0008e0        	callx8	a8
    2634:	04ad           	mov.n	a10, a4
    2636:	3021b2        	l32i	a11, a1, 192
    2639:	ac0c           	movi.n	a12, 10
    263b:	f6e981        	l32r	a8, 1e0 (e0c <subband_aec_block>)
    263e:	05dd           	mov.n	a13, a5
    2640:	3e0c           	movi.n	a14, 3
    2642:	0008e0        	callx8	a8
    2645:	04ad           	mov.n	a10, a4
    2647:	3121b2        	l32i	a11, a1, 196
    264a:	4c1c           	movi.n	a12, 20
    264c:	f6e581        	l32r	a8, 1e0 (e0c <subband_aec_block>)
    264f:	05dd           	mov.n	a13, a5
    2651:	4e0c           	movi.n	a14, 4
    2653:	0008e0        	callx8	a8
    2656:	04ad           	mov.n	a10, a4
    2658:	3221b2        	l32i	a11, a1, 200
    265b:	f6e281        	l32r	a8, 1e4 (1080 <subband_aec_mid_channel>)
    265e:	05cd           	mov.n	a12, a5
    2660:	2d0c           	movi.n	a13, 2
    2662:	0008e0        	callx8	a8
    2665:	4921f2        	l32i	a15, a1, 0x124
    2668:	0e0c           	movi.n	a14, 0
    266a:	f6df81        	l32r	a8, 1e8 (1a54 <gain_after_ec>)
    266d:	102fa2        	l32i	a10, a15, 64
    2670:	302fb2        	l32i	a11, a15, 192
    2673:	402fc2        	l32i	a12, a15, 0x100
    2676:	202fd2        	l32i	a13, a15, 128
    2679:	e69ff2        	l16si	a15, a15, 0x1cc
    267c:	0008e0        	callx8	a8
    267f:	4921e2        	l32i	a14, a1, 0x124
    2682:	3321d2        	l32i	a13, a1, 204
    2685:	f6e381        	l32r	a8, 214 (194c <synth_3band>)
    2688:	102ea2        	l32i	a10, a14, 64
    268b:	302eb2        	l32i	a11, a14, 192
    268e:	202ec2        	l32i	a12, a14, 128
    2691:	762ee2        	l32i	a14, a14, 0x1d8
    2694:	0008e0        	callx8	a8
    2697:	4521c2        	l32i	a12, a1, 0x114
    269a:	3621d2        	l32i	a13, a1, 216
    269d:	4921b2        	l32i	a11, a1, 0x124
    26a0:	3421e2        	l32i	a14, a1, 208
    26a3:	f6dd81        	l32r	a8, 218 (17b4 <tx_upsample_by2>)
    26a6:	762ba2        	l32i	a10, a11, 0x1d8
    26a9:	402bb2        	l32i	a11, a11, 0x100
    26ac:	0008e0        	callx8	a8
    26af:	4921f2        	l32i	a15, a1, 0x124
    26b2:	ef9fc2        	l16si	a12, a15, 0x1de
    26b5:	ee9ff2        	l16si	a15, a15, 0x1dc
    26b8:	026c37        	bbci	a12, 3, 26be <Voice_EC_Prcs_common+0x90a>
    26bb:	60f0f0        	neg	a15, a15

000026be <Voice_EC_Prcs_common+0x90a>:
    26be:	11bfc0        	slli	a11, a15, 4
    26c1:	4521a2        	l32i	a10, a1, 0x114
    26c4:	8c2c           	movi.n	a12, 40
    26c6:	ff6825        	call8	1d48 <vector_gain_Q9_15>
    26c9:	4521a2        	l32i	a10, a1, 0x114
    26cc:	3521c2        	l32i	a12, a1, 212
    26cf:	07b8           	l32i.n	a11, a7, 0
    26d1:	f6d281        	l32r	a8, 21c (1868 <deemph_filter_N>)
    26d4:	8d2c           	movi.n	a13, 40
    26d6:	bb2a           	add.n	a11, a11, a2
    26d8:	0008e0        	callx8	a8
    26db:	4521c2        	l32i	a12, a1, 0x114
    26de:	4421d2        	l32i	a13, a1, 0x110
    26e1:	50ccc2        	addi	a12, a12, 80
    26e4:	50cdd2        	addi	a13, a13, 80
    26e7:	4461d2        	s32i	a13, a1, 0x110
    26ea:	4561c2        	s32i	a12, a1, 0x114

000026ed <Voice_EC_Prcs_common+0x939>:
    26ed:	4221e2        	l32i	a14, a1, 0x108
    26f0:	ee0b           	addi.n	a14, a14, -1
    26f2:	4261e2        	s32i	a14, a1, 0x108
    26f5:	93ce56        	bnez	a14, 2035 <Voice_EC_Prcs_common+0x281>
    26f8:	41f8           	l32i.n	a15, a1, 16
    26fa:	f6c951        	l32r	a5, 220 (4000 <airoha_divide+0x70>)
    26fd:	0a25f7        	blt	a5, a15, 270b <Voice_EC_Prcs_common+0x957>
    2700:	07a8           	l32i.n	a10, a7, 0
    2702:	f6c881        	l32r	a8, 224 (1bb8 <adjust_bib_state>)
    2705:	24daa2        	addmi	a10, a10, 0x2400
    2708:	0008e0        	callx8	a8

0000270b <Voice_EC_Prcs_common+0x957>:
    270b:	71b8           	l32i.n	a11, a1, 28
    270d:	0d25b7        	blt	a5, a11, 271e <Voice_EC_Prcs_common+0x96a>
    2710:	07a8           	l32i.n	a10, a7, 0
    2712:	f6c481        	l32r	a8, 224 (1bb8 <adjust_bib_state>)
    2715:	24daa2        	addmi	a10, a10, 0x2400
    2718:	60caa2        	addi	a10, a10, 96
    271b:	0008e0        	callx8	a8

0000271e <Voice_EC_Prcs_common+0x96a>:
    271e:	61c8           	l32i.n	a12, a1, 24
    2720:	0d25c7        	blt	a5, a12, 2731 <Voice_EC_Prcs_common+0x97d>
    2723:	07a8           	l32i.n	a10, a7, 0
    2725:	f6bf81        	l32r	a8, 224 (1bb8 <adjust_bib_state>)
    2728:	24daa2        	addmi	a10, a10, 0x2400
    272b:	20caa2        	addi	a10, a10, 32
    272e:	0008e0        	callx8	a8

00002731 <Voice_EC_Prcs_common+0x97d>:
    2731:	4121c2        	l32i	a12, a1, 0x104
    2734:	352c66        	bnei	a12, 2, 276d <Voice_EC_Prcs_common+0x9b9>
    2737:	51d8           	l32i.n	a13, a1, 20
    2739:	0d25d7        	blt	a5, a13, 274a <Voice_EC_Prcs_common+0x996>
    273c:	07a8           	l32i.n	a10, a7, 0
    273e:	f6b981        	l32r	a8, 224 (1bb8 <adjust_bib_state>)
    2741:	24daa2        	addmi	a10, a10, 0x2400
    2744:	40caa2        	addi	a10, a10, 64
    2747:	0008e0        	callx8	a8

0000274a <Voice_EC_Prcs_common+0x996>:
    274a:	81c8           	l32i.n	a12, a1, 32
    274c:	0d25c7        	blt	a5, a12, 275d <Voice_EC_Prcs_common+0x9a9>
    274f:	07a8           	l32i.n	a10, a7, 0
    2751:	f6b481        	l32r	a8, 224 (1bb8 <adjust_bib_state>)
    2754:	25daa2        	addmi	a10, a10, 0x2500
    2757:	80caa2        	addi	a10, a10, -128
    275a:	0008e0        	callx8	a8

0000275d <Voice_EC_Prcs_common+0x9a9>:
    275d:	f6b281        	l32r	a8, 228 (5438 <mag_calibration>)
    2760:	03ad           	mov.n	a10, a3
    2762:	0008e0        	callx8	a8
    2765:	090c           	movi.n	a9, 0
    2767:	136392        	s32i	a9, a3, 76
    276a:	146392        	s32i	a9, a3, 80

0000276d <Voice_EC_Prcs_common+0x9b9>:
    276d:	07e8           	l32i.n	a14, a7, 0
    276f:	12dea2        	addmi	a10, a14, 0x1200
    2772:	2c9aa2        	l16si	a10, a10, 88
    2775:	206a87        	bbci	a10, 8, 2799 <Voice_EC_Prcs_common+0x9e5>
    2778:	f6ad81        	l32r	a8, 22c (343c <NC_NOISE_EST_Prcs>)
    277b:	0ead           	mov.n	a10, a14
    277d:	1621b2        	l32i	a11, a1, 88
    2780:	0008e0        	callx8	a8
    2783:	1621a2        	l32i	a10, a1, 88
    2786:	07c8           	l32i.n	a12, a7, 0
    2788:	f0a0d2        	movi	a13, 240
    278b:	f6a481        	l32r	a8, 21c (1868 <deemph_filter_N>)
    278e:	bc2a           	add.n	a11, a12, a2
    2790:	10dcc2        	addmi	a12, a12, 0x1000
    2793:	48ccc2        	addi	a12, a12, 72
    2796:	0008e0        	callx8	a8

00002799 <Voice_EC_Prcs_common+0x9e5>:
    2799:	01d4e2        	addmi	a14, a4, 0x100
    279c:	22c422        	addi	a2, a4, 34
    279f:	400204        	ae_lp16f.i	aep0, a2, 0
    27a2:	20cee2        	addi	a14, a14, 32
    27a5:	600e04        	ae_lq32f.i	aeq0, a14, 0
    27a8:	d4e23184be 	{ l32i	a11, a4, 96; ae_mulfq32sp16s.l	aeq0, aeq0, aep0 }
    27ad:	54c1d2        	addi	a13, a1, 84
    27b0:	620d04        	ae_sq32f.i	aeq0, a13, 0
    27b3:	1521c2        	l32i	a12, a1, 84
    27b6:	f69e81        	l32r	a8, 230 (12fc <dt_detect>)
    27b9:	04ad           	mov.n	a10, a4
    27bb:	53bbc0        	max	a11, a11, a12
    27be:	0008e0        	callx8	a8
    27c1:	4321f2        	l32i	a15, a1, 0x10c
    27c4:	9188           	l32i.n	a8, a1, 36
    27c6:	6fac           	beqz.n	a15, 27f0 <Voice_EC_Prcs_common+0xa3c>
    27c8:	082587        	blt	a5, a8, 27d4 <Voice_EC_Prcs_common+0xa20>
    27cb:	f69681        	l32r	a8, 224 (1bb8 <adjust_bib_state>)
    27ce:	3721a2        	l32i	a10, a1, 220
    27d1:	0008e0        	callx8	a8

000027d4 <Voice_EC_Prcs_common+0xa20>:
    27d4:	a198           	l32i.n	a9, a1, 40
    27d6:	082597        	blt	a5, a9, 27e2 <Voice_EC_Prcs_common+0xa2e>
    27d9:	f69281        	l32r	a8, 224 (1bb8 <adjust_bib_state>)
    27dc:	3621a2        	l32i	a10, a1, 216
    27df:	0008e0        	callx8	a8

000027e2 <Voice_EC_Prcs_common+0xa2e>:
    27e2:	4921b2        	l32i	a11, a1, 0x124
    27e5:	f69381        	l32r	a8, 234 (1340 <dt_detect_FB>)
    27e8:	3a21a2        	l32i	a10, a1, 232
    27eb:	7bb8           	l32i.n	a11, a11, 28
    27ed:	0008e0        	callx8	a8

000027f0 <Voice_EC_Prcs_common+0xa3c>:
    27f0:	07d8           	l32i.n	a13, a7, 0
    27f2:	34cd           	ae_l16si.n	a12, a4, 2
    27f4:	12ddd2        	addmi	a13, a13, 0x1200
    27f7:	289dd2        	l16si	a13, a13, 80
    27fa:	28c4a2        	addi	a10, a4, 40
    27fd:	08acd7        	bge	a12, a13, 2809 <Voice_EC_Prcs_common+0xa55>
    2800:	f66de1        	l32r	a14, 1b4 (7fff0000 <_end+0x7ffe8514>)
    2803:	360e34        	ae_cvtq48a32s	aeq0, a14
    2806:	000586        	j	2820 <Voice_EC_Prcs_common+0xa6c>

00002809 <Voice_EC_Prcs_common+0xa55>:
    2809:	401204        	ae_lp16f.i	aep1, a2, 0
    280c:	01d482        	addmi	a8, a4, 0x100
    280f:	24c882        	addi	a8, a8, 36
    2812:	600804        	ae_lq32f.i	aeq0, a8, 0
    2815:	d4e60644fe 	{ addi	a15, a4, 100; ae_mulfq32sp16s.l	aeq0, aeq0, aep1 }
    281a:	604f04        	ae_lq32f.i	aeq1, a15, 0
    281d:	0110c4        	ae_maxq56s	aeq0, aeq0, aeq1

00002820 <Voice_EC_Prcs_common+0xa6c>:
    2820:	1b8f24        	ae_roundsp16q48asym	aep2, aeq0
    2823:	422a04        	ae_sp16f.l.i	aep2, a10, 0
    2826:	0728           	l32i.n	a2, a7, 0
    2828:	440604        	ae_lp16x2f.i	aep0, a6, 0
    282b:	46d292        	addmi	a9, a2, 0x4600
    282e:	312982        	l32i	a8, a9, 196
    2831:	47d222        	addmi	a2, a2, 0x4700
    2834:	b4c222        	addi	a2, a2, -76
    2837:	326982        	s32i	a8, a9, 200
    283a:	fc2480789f 	{ movi	a9, 120; ae_zeroq56	aeq0 }
    283f:	04a976        	loopgtz	a9, 2847 <Voice_EC_Prcs_common+0xa93>
    2842:	e2002d861f 	{ ae_lp16x2f.iu	aep0, a6, 4; ae_mulaafp24s.hh.ll	aeq0, aep0, aep0 }

00002847 <Voice_EC_Prcs_common+0xa93>:
    2847:	358234        	ae_sraiq56	aeq2, aeq0, 8
    284a:	f67b91        	l32r	a9, 238 (5277 <cali_power+0xbf>)
    284d:	303994        	ae_cvtp24a16x2.ll	aep3, a9, a9
    2850:	03b294        	ae_mulfq32sp16s.l	aeq2, aeq2, aep3
    2853:	f5f881        	l32r	a8, 34 (63c <HIFI_sqrt>)
    2856:	fd344000af 	{ movi	a10, 0; ae_roundsq32asym	aeq1, aeq2 }
    285b:	369b04        	ae_trunca32q48	a11, aeq1
    285e:	0008e0        	callx8	a8
    2861:	364b34        	ae_cvtq48a32s	aeq1, a11
    2864:	fc24fe9a0f 	{ ae_slaasq56s	aeq0, aeq1, a10; nop }
    2869:	06c934        	ae_roundsq32asym	aeq3, aeq0
    286c:	623244        	ae_sq32f.i	aeq3, a2, 16
    286f:	f01d           	retw.n

00002871 <Voice_EC_Prcs_common+0xabd>:
    2871:	0cbd           	mov.n	a11, a12
    2873:	f5eb81        	l32r	a8, 20 (5ee0 <xt_memcpy>)
    2876:	06ad           	mov.n	a10, a6
    2878:	f0a0c2        	movi	a12, 240
    287b:	0008e0        	callx8	a8
    287e:	412192        	l32i	a9, a1, 0x104
    2881:	0d2966        	bnei	a9, 2, 2892 <Voice_EC_Prcs_common+0xade>
    2884:	02ad           	mov.n	a10, a2
    2886:	f5e681        	l32r	a8, 20 (5ee0 <xt_memcpy>)
    2889:	2821b2        	l32i	a11, a1, 160
    288c:	f0a0c2        	movi	a12, 240
    288f:	0008e0        	callx8	a8
    2892:	f01d           	retw.n

00002894 <Voice_PostEC_Prcs>:
    2894:	004136        	entry	a1, 32
    2897:	f5e371        	l32r	a7, 24 (7ae4 <p_ecnr_mem>)
    289a:	0768           	l32i.n	a6, a7, 0
    289c:	02ad           	mov.n	a10, a2
    289e:	f66781        	l32r	a8, 23c (3314 <NOISE_GEN_Prcs>)
    28a1:	29d652        	addmi	a5, a6, 0x2900
    28a4:	06bd           	mov.n	a11, a6
    28a6:	0008e0        	callx8	a8
    28a9:	01d592        	addmi	a9, a5, 0x100
    28ac:	a41992        	l16ui	a9, a9, 0x148
    28af:	f98c           	beqz.n	a9, 28c2 <Voice_PostEC_Prcs+0x2e>
    28b1:	06dd           	mov.n	a13, a6
    28b3:	03cd           	mov.n	a12, a3
    28b5:	f66281        	l32r	a8, 240 (1bd8 <aec_post_prcs>)
    28b8:	02bd           	mov.n	a11, a2
    28ba:	05ad           	mov.n	a10, a5
    28bc:	0008e0        	callx8	a8
    28bf:	000306        	j	28cf <Voice_PostEC_Prcs+0x3b>

000028c2 <Voice_PostEC_Prcs+0x2e>:
    28c2:	02bd           	mov.n	a11, a2
    28c4:	f5d781        	l32r	a8, 20 (5ee0 <xt_memcpy>)
    28c7:	03ad           	mov.n	a10, a3
    28c9:	f0a0c2        	movi	a12, 240
    28cc:	0008e0        	callx8	a8

000028cf <Voice_PostEC_Prcs+0x3b>:
    28cf:	07c8           	l32i.n	a12, a7, 0
    28d1:	dd0c           	movi.n	a13, 13
    28d3:	46dca2        	addmi	a10, a12, 0x4600
    28d6:	47dc22        	addmi	a2, a12, 0x4700
    28d9:	2cdcf2        	addmi	a15, a12, 0x2c00
    28dc:	a01ff2        	l16ui	a15, a15, 0x140
    28df:	b4c222        	addi	a2, a2, -76
    28e2:	d10ae2        	l8ui	a14, a10, 209
    28e5:	11bfc0        	slli	a11, a15, 4
    28e8:	c0bbf0        	sub	a11, a11, a15
    28eb:	bb6b           	addi.n	a11, a11, 6
    28ed:	d2bbd0        	quos	a11, a11, a13
    28f0:	8bbd           	ae_sext16	a11, a11
    28f2:	052be7        	blt	a11, a14, 28fb <Voice_PostEC_Prcs+0x67>
    28f5:	679aa2        	l16si	a10, a10, 206
    28f8:	000b46        	j	2929 <Voice_PostEC_Prcs+0x95>

000028fb <Voice_PostEC_Prcs+0x67>:
    28fb:	d00af2        	l8ui	a15, a10, 208
    28fe:	669ad2        	l16si	a13, a10, 204
    2901:	679aa2        	l16si	a10, a10, 206
    2904:	042fb7        	blt	a15, a11, 290c <Voice_PostEC_Prcs+0x78>
    2907:	0dad           	mov.n	a10, a13
    2909:	000706        	j	2929 <Voice_PostEC_Prcs+0x95>

0000290c <Voice_PostEC_Prcs+0x78>:
    290c:	c08bf0        	sub	a8, a11, a15
    290f:	c0aad0        	sub	a10, a10, a13
    2912:	82aa80        	mull	a10, a10, a8
    2915:	c08ef0        	sub	a8, a14, a15
    2918:	11aa80        	slli	a10, a10, 8
    291b:	d2aa80        	quos	a10, a10, a8
    291e:	01daa2        	addmi	a10, a10, 0x100
    2921:	80caa2        	addi	a10, a10, -128
    2924:	21a8a0        	srai	a10, a10, 8
    2927:	adaa           	add.n	a10, a13, a10
    2929:	f60ad1        	l32r	a13, 154 (8000 <_end+0x514>)
    292c:	47dce2        	addmi	a14, a12, 0x4700
    292f:	0ecd           	mov.n	a12, a14
    2931:	c0ccc2        	addi	a12, a12, -64
    2934:	c8cee2        	addi	a14, a14, -56
    2937:	600e04        	ae_lq32f.i	aeq0, a14, 0
    293a:	60cc04        	ae_lq32f.i	aeq3, a12, 0
    293d:	c0dda0        	sub	a13, a13, a10
    2940:	301ad4        	ae_cvtp24a16x2.ll	aep1, a10, a13
    2943:	c199c4        	ae_mulzaafq32sp16s.lh	aeq3, aeq3, aep1, aeq0, aep1
    2946:	f5f281        	l32r	a8, 110 (3f90 <airoha_divide>)
    2949:	067834        	ae_roundsq32sym	aeq1, aeq3
    294c:	621c04        	ae_sq32f.i	aeq1, a12, 0
    294f:	0292b2        	l16si	a11, a2, 4
    2952:	608224        	ae_lq32f.i	aeq2, a2, 8
    2955:	440204        	ae_lp16x2f.i	aep0, a2, 0
    2958:	c10864        	ae_mulzaafq32sp16s.lh	aeq1, aeq1, aep0, aeq2, aep0
    295b:	11bb00        	slli	a11, a11, 16
    295e:	061934        	ae_roundsq32asym	aeq0, aeq1
    2961:	368a04        	ae_trunca32q48	a10, aeq0
    2964:	22a9           	s32i.n	a10, a2, 8
    2966:	0008e0        	callx8	a8
    2969:	080c           	movi.n	a8, 0
    296b:	f5fbf1        	l32r	a15, 158 (7ae8 <avc_vol>)
    296e:	f5fbc1        	l32r	a12, 15c (2000 <Voice_EC_Prcs_common+0x24c>)
    2971:	fecad2        	addi	a13, a10, -2
    2974:	368b34        	ae_cvtq48a32s	aeq2, a11
    2977:	fc24fead4f 	{ ae_slaasq56s	aeq1, aeq2, a13; nop }
    297c:	f96bb0079e 	{ l32i	a9, a7, 0; ae_roundsp16q48asym	aep2, aeq1 }
    2981:	362a24        	ae_trunca16p24s.l	a10, aep2
    2984:	0392b2        	l16si	a11, a2, 6
    2987:	28d992        	addmi	a9, a9, 0x2800
    298a:	53aac0        	max	a10, a10, a12
    298d:	43aab0        	min	a10, a10, a11
    2990:	6fad           	ae_s16i.n	a10, a15, 0
    2992:	748d           	ae_s16i.n	a8, a4, 2
    2994:	809992        	l16si	a9, a9, 0x100
    2997:	649d           	ae_s16i.n	a9, a4, 0
    2999:	2ffd           	ae_l16si.n	a15, a15, 0
    299b:	0254f2        	s16i	a15, a4, 4
    299e:	f01d           	retw.n

000029a0 <Voice_EC_Prcs>:
    29a0:	006136        	entry	a1, 48
    29a3:	06fd           	mov.n	a15, a6
    29a5:	05ed           	mov.n	a14, a5
    29a7:	04dd           	mov.n	a13, a4
    29a9:	03bd           	mov.n	a11, a3
    29ab:	02ad           	mov.n	a10, a2
    29ad:	0c0c           	movi.n	a12, 0
    29af:	f62581        	l32r	a8, 244 (1db4 <Voice_EC_Prcs_common>)
    29b2:	090c           	movi.n	a9, 0
    29b4:	0199           	s32i.n	a9, a1, 0
    29b6:	0008e0        	callx8	a8
    29b9:	f01d           	retw.n

000029bb <Voice_EC_Prcs+0x1b>:
	...

000029bc <Voice_EC_Inear_Prcs>:
    29bc:	006136        	entry	a1, 48
    29bf:	07fd           	mov.n	a15, a7
    29c1:	06ed           	mov.n	a14, a6
    29c3:	05dd           	mov.n	a13, a5
    29c5:	04cd           	mov.n	a12, a4
    29c7:	03bd           	mov.n	a11, a3
    29c9:	02ad           	mov.n	a10, a2
    29cb:	f61e81        	l32r	a8, 244 (1db4 <Voice_EC_Prcs_common>)
    29ce:	c198           	l32i.n	a9, a1, 48
    29d0:	0199           	s32i.n	a9, a1, 0
    29d2:	0008e0        	callx8	a8
    29d5:	f01d           	retw.n

000029d7 <Voice_EC_Inear_Prcs+0x1b>:
	...

000029d8 <conv_16_to_24_x2>:
    29d8:	004136        	entry	a1, 32
    29db:	f8c332        	addi	a3, a3, -8
    29de:	fcc222        	addi	a2, a2, -4
    29e1:	05a476        	loopgtz	a4, 29ea <conv_16_to_24_x2+0x12>
    29e4:	448214        	ae_lp16x2f.iu	aep0, a2, 4
    29e7:	5e8314        	ae_sp24x2f.iu	aep0, a3, 8

000029ea <conv_16_to_24_x2+0x12>:
    29ea:	f01d           	retw.n

000029ec <Voice_NB_RX_Prcs>:
    29ec:	004136        	entry	a1, 32
    29ef:	f58d41        	l32r	a4, 24 (7ae4 <p_ecnr_mem>)
    29f2:	0438           	l32i.n	a3, a4, 0
    29f4:	2ad382        	addmi	a8, a3, 0x2a00
    29f7:	a41882        	l16ui	a8, a8, 0x148
    29fa:	888c           	beqz.n	a8, 2a06 <Voice_NB_RX_Prcs+0x1a>
    29fc:	f61381        	l32r	a8, 248 (318c <NB_RX_NR_frame_process>)
    29ff:	02ad           	mov.n	a10, a2
    2a01:	0008e0        	callx8	a8
    2a04:	0438           	l32i.n	a3, a4, 0

00002a06 <Voice_NB_RX_Prcs+0x1a>:
    2a06:	44d3a2        	addmi	a10, a3, 0x4400
    2a09:	11d3b2        	addmi	a11, a3, 0x1100
    2a0c:	ac9b92        	l16si	a9, a11, 0x158
    2a0f:	b01aa2        	l16ui	a10, a10, 0x160
    2a12:	a95ba2        	s16i	a10, a11, 0x152
    2a15:	2669d7        	bbci	a9, 13, 2a3f <Voice_NB_RX_Prcs+0x53>
    2a18:	02ad           	mov.n	a10, a2
    2a1a:	f5ea81        	l32r	a8, 1c4 (29d8 <conv_16_to_24_x2>)
    2a1d:	03bd           	mov.n	a11, a3
    2a1f:	cc3c           	movi.n	a12, 60
    2a21:	0008e0        	callx8	a8
    2a24:	02dd           	mov.n	a13, a2
    2a26:	03ad           	mov.n	a10, a3
    2a28:	04b8           	l32i.n	a11, a4, 0
    2a2a:	78a0e2        	movi	a14, 120
    2a2d:	f5e681        	l32r	a8, 1c8 (19d4 <biquad_2cascade_24bitTx>)
    2a30:	46dbc2        	addmi	a12, a11, 0x4600
    2a33:	50ccc2        	addi	a12, a12, 80
    2a36:	25dbb2        	addmi	a11, a11, 0x2500
    2a39:	d0cbb2        	addi	a11, a11, -48
    2a3c:	0008e0        	callx8	a8

00002a3f <Voice_NB_RX_Prcs+0x53>:
    2a3f:	f01d           	retw.n

00002a41 <Voice_NB_RX_Prcs+0x55>:
    2a41:	000000                                        ...

00002a44 <Voice_WB_RX_Prcs>:
    2a44:	004136        	entry	a1, 32
    2a47:	f57741        	l32r	a4, 24 (7ae4 <p_ecnr_mem>)
    2a4a:	0438           	l32i.n	a3, a4, 0
    2a4c:	2ad382        	addmi	a8, a3, 0x2a00
    2a4f:	a41882        	l16ui	a8, a8, 0x148
    2a52:	888c           	beqz.n	a8, 2a5e <Voice_WB_RX_Prcs+0x1a>
    2a54:	f5fe81        	l32r	a8, 24c (2f0c <WB_RX_NR_frame_process>)
    2a57:	02ad           	mov.n	a10, a2
    2a59:	0008e0        	callx8	a8
    2a5c:	0438           	l32i.n	a3, a4, 0

00002a5e <Voice_WB_RX_Prcs+0x1a>:
    2a5e:	44d3a2        	addmi	a10, a3, 0x4400
    2a61:	11d3b2        	addmi	a11, a3, 0x1100
    2a64:	ac9b92        	l16si	a9, a11, 0x158
    2a67:	b01aa2        	l16ui	a10, a10, 0x160
    2a6a:	a95ba2        	s16i	a10, a11, 0x152
    2a6d:	2769d7        	bbci	a9, 13, 2a98 <Voice_WB_RX_Prcs+0x54>
    2a70:	02ad           	mov.n	a10, a2
    2a72:	f5d481        	l32r	a8, 1c4 (29d8 <conv_16_to_24_x2>)
    2a75:	03bd           	mov.n	a11, a3
    2a77:	78a0c2        	movi	a12, 120
    2a7a:	0008e0        	callx8	a8
    2a7d:	02dd           	mov.n	a13, a2
    2a7f:	03ad           	mov.n	a10, a3
    2a81:	04b8           	l32i.n	a11, a4, 0
    2a83:	f0a0e2        	movi	a14, 240
    2a86:	f5d081        	l32r	a8, 1c8 (19d4 <biquad_2cascade_24bitTx>)
    2a89:	46dbc2        	addmi	a12, a11, 0x4600
    2a8c:	50ccc2        	addi	a12, a12, 80
    2a8f:	25dbb2        	addmi	a11, a11, 0x2500
    2a92:	d0cbb2        	addi	a11, a11, -48
    2a95:	0008e0        	callx8	a8

00002a98 <Voice_WB_RX_Prcs+0x54>:
    2a98:	f01d           	retw.n

00002a9a <Voice_WB_RX_Prcs+0x56>:
	...

00002a9c <EC_REF_GAIN_READBACK>:
    2a9c:	004136        	entry	a1, 32
    2a9f:	f56131        	l32r	a3, 24 (7ae4 <p_ecnr_mem>)
    2aa2:	0338           	l32i.n	a3, a3, 0
    2aa4:	28d362        	addmi	a6, a3, 0x2800
    2aa7:	12d332        	addmi	a3, a3, 0x1200
    2aaa:	562642        	l32i	a4, a6, 0x158
    2aad:	862692        	l32i	a9, a6, 0x218
    2ab0:	762682        	l32i	a8, a6, 0x1d8
    2ab3:	662652        	l32i	a5, a6, 0x198
    2ab6:	319090        	srai	a9, a9, 16
    2ab9:	318080        	srai	a8, a8, 16
    2abc:	315050        	srai	a5, a5, 16
    2abf:	314040        	srai	a4, a4, 16
    2ac2:	624d           	ae_s16i.n	a4, a2, 0
    2ac4:	725d           	ae_s16i.n	a5, a2, 2
    2ac6:	025282        	s16i	a8, a2, 4
    2ac9:	035292        	s16i	a9, a2, 6
    2acc:	269332        	l16si	a3, a3, 76
    2acf:	040c           	movi.n	a4, 0
    2ad1:	252366        	bnei	a3, 2, 2afa <EC_REF_GAIN_READBACK+0x5e>
    2ad4:	962682        	l32i	a8, a6, 0x258
    2ad7:	c62642        	l32i	a4, a6, 0x318
    2ada:	b62652        	l32i	a5, a6, 0x2d8
    2add:	a62672        	l32i	a7, a6, 0x298
    2ae0:	314040        	srai	a4, a4, 16
    2ae3:	315050        	srai	a5, a5, 16
    2ae6:	317070        	srai	a7, a7, 16
    2ae9:	318080        	srai	a8, a8, 16
    2aec:	045282        	s16i	a8, a2, 8
    2aef:	055272        	s16i	a7, a2, 10
    2af2:	065252        	s16i	a5, a2, 12

00002af5 <EC_REF_GAIN_READBACK+0x59>:
    2af5:	075242        	s16i	a4, a2, 14
    2af8:	f01d           	retw.n

00002afa <EC_REF_GAIN_READBACK+0x5e>:
    2afa:	045242        	s16i	a4, a2, 8
    2afd:	055242        	s16i	a4, a2, 10
    2b00:	065242        	s16i	a4, a2, 12
    2b03:	fffb86        	j	2af5 <EC_REF_GAIN_READBACK+0x59>

00002b06 <EC_REF_GAIN_READBACK+0x6a>:
	...

00002b08 <EC_Inear_REF_GAIN_READBACK>:
    2b08:	004136        	entry	a1, 32
    2b0b:	f54631        	l32r	a3, 24 (7ae4 <p_ecnr_mem>)
    2b0e:	0338           	l32i.n	a3, a3, 0
    2b10:	45d332        	addmi	a3, a3, 0x4500
    2b13:	762332        	l32i	a3, a3, 0x1d8
    2b16:	2a2382        	l32i	a8, a3, 168
    2b19:	4a2342        	l32i	a4, a3, 0x128
    2b1c:	3a2352        	l32i	a5, a3, 232
    2b1f:	5a2332        	l32i	a3, a3, 0x168
    2b22:	314040        	srai	a4, a4, 16
    2b25:	315050        	srai	a5, a5, 16
    2b28:	318080        	srai	a8, a8, 16
    2b2b:	628d           	ae_s16i.n	a8, a2, 0
    2b2d:	725d           	ae_s16i.n	a5, a2, 2
    2b2f:	025242        	s16i	a4, a2, 4
    2b32:	313030        	srai	a3, a3, 16
    2b35:	035232        	s16i	a3, a2, 6
    2b38:	f01d           	retw.n

00002b3a <EC_Inear_REF_GAIN_READBACK+0x32>:
	...

00002b3c <EC_PreLim_Coef_READBACK>:
    2b3c:	004136        	entry	a1, 32
    2b3f:	f53961        	l32r	a6, 24 (7ae4 <p_ecnr_mem>)
    2b42:	024d           	mov.n	a4, a2
    2b44:	0668           	l32i.n	a6, a6, 0
    2b46:	390c           	movi.n	a9, 3
    2b48:	03a032        	movi	a3, 3
    2b4b:	23d652        	addmi	a5, a6, 0x2300
    2b4e:	10c552        	addi	a5, a5, 16
    2b51:	0aa376        	loopgtz	a3, 2b5f <EC_PreLim_Coef_READBACK+0x23>
    2b54:	7f2582        	l32i	a8, a5, 0x1fc
    2b57:	554b           	addi.n	a5, a5, 4
    2b59:	318080        	srai	a8, a8, 16
    2b5c:	09c484        	ae_s16ip	a8, a4, 2

00002b5f <EC_PreLim_Coef_READBACK+0x23>:
    2b5f:	426b           	addi.n	a4, a2, 6
    2b61:	23d652        	addmi	a5, a6, 0x2300
    2b64:	6cc552        	addi	a5, a5, 108
    2b67:	22cb           	addi.n	a2, a2, 12
    2b69:	0aa976        	loopgtz	a9, 2b77 <EC_PreLim_Coef_READBACK+0x3b>
    2b6c:	7f2582        	l32i	a8, a5, 0x1fc
    2b6f:	554b           	addi.n	a5, a5, 4
    2b71:	318080        	srai	a8, a8, 16
    2b74:	09c484        	ae_s16ip	a8, a4, 2
    2b77:	390c           	movi.n	a9, 3
    2b79:	24d642        	addmi	a4, a6, 0x2400
    2b7c:	84c442        	addi	a4, a4, -124
    2b7f:	0aa976        	loopgtz	a9, 2b8d <EC_PreLim_Coef_READBACK+0x51>
    2b82:	7f2482        	l32i	a8, a4, 0x1fc
    2b85:	444b           	addi.n	a4, a4, 4
    2b87:	318080        	srai	a8, a8, 16
    2b8a:	09c284        	ae_s16ip	a8, a2, 2
    2b8d:	f01d           	retw.n

00002b8f <EC_PreLim_Coef_READBACK+0x53>:
	...

00002b90 <DaulMIC_power_Coef_READBACK>:
    2b90:	004136        	entry	a1, 32
    2b93:	f52421        	l32r	a2, 24 (7ae4 <p_ecnr_mem>)
    2b96:	0228           	l32i.n	a2, a2, 0
    2b98:	26d222        	addmi	a2, a2, 0x2600
    2b9b:	3a9222        	l16si	a2, a2, 116
    2b9e:	f01d           	retw.n

00002ba0 <fill_vad_thrd_Nbands>:
    2ba0:	004136        	entry	a1, 32
    2ba3:	00a062        	movi	a6, 0
    2ba6:	f5aa71        	l32r	a7, 250 (7f80 <_end+0x494>)
    2ba9:	1ba476        	loopgtz	a4, 2bc8 <fill_vad_thrd_Nbands+0x28>
    2bac:	a05620        	addx4	a5, a6, a2
    2baf:	904630        	addx2	a4, a6, a3
    2bb2:	444d           	ae_l16ui.n	a4, a4, 0
    2bb4:	661b           	addi.n	a6, a6, 1
    2bb6:	866d           	ae_sext16	a6, a6
    2bb8:	218140        	srai	a8, a4, 1
    2bbb:	744040        	extui	a4, a4, 0, 8
    2bbe:	108870        	and	a8, a8, a7
    2bc1:	658d           	ae_s16i.n	a8, a5, 0
    2bc3:	114490        	slli	a4, a4, 7
    2bc6:	754d           	ae_s16i.n	a4, a5, 2

00002bc8 <fill_vad_thrd_Nbands+0x28>:
    2bc8:	f01d           	retw.n

00002bca <fill_vad_thrd_Nbands+0x2a>:
	...

00002bcc <fill_EQ_gain>:
    2bcc:	004136        	entry	a1, 32
    2bcf:	06a476        	loopgtz	a4, 2bd9 <fill_EQ_gain+0xd>
    2bd2:	235d           	ae_l16si.n	a5, a3, 0
    2bd4:	09c254        	ae_s16ip	a5, a2, 2
    2bd7:	332b           	addi.n	a3, a3, 2

00002bd9 <fill_EQ_gain+0xd>:
    2bd9:	f01d           	retw.n

00002bdb <fill_EQ_gain+0xf>:
	...

00002bdc <complement_para>:
    2bdc:	004136        	entry	a1, 32
    2bdf:	f59d41        	l32r	a4, 254 (ffff8000 <_end+0xffff0514>)
    2be2:	623d           	ae_s16i.n	a3, a2, 0
    2be4:	c04430        	sub	a4, a4, a3
    2be7:	724d           	ae_s16i.n	a4, a2, 2
    2be9:	f01d           	retw.n

00002beb <complement_para+0xf>:
	...

00002bec <WB_NR_init>:
    2bec:	006136        	entry	a1, 48
    2bef:	02ad           	mov.n	a10, a2
    2bf1:	f53981        	l32r	a8, d8 (5ec8 <xt_memset>)
    2bf4:	0b0c           	movi.n	a11, 0
    2bf6:	8ca0c2        	movi	a12, 140
    2bf9:	0008e0        	callx8	a8
    2bfc:	f50a61        	l32r	a6, 24 (7ae4 <p_ecnr_mem>)
    2bff:	f59651        	l32r	a5, 258 (40000000 <_end+0x3fff8514>)
    2c02:	728b           	addi.n	a7, a2, 8
    2c04:	01d2a2        	addmi	a10, a2, 0x100
    2c07:	d8caa2        	addi	a10, a10, -40
    2c0a:	149356        	bnez	a3, 2d57 <WB_NR_init+0x16b>
    2c0d:	2c94b2        	l16si	a11, a4, 88
    2c10:	f59381        	l32r	a8, 25c (2bdc <complement_para>)
    2c13:	241492        	l16ui	a9, a4, 72
    2c16:	2214c2        	l16ui	a12, a4, 68
    2c19:	06f8           	l32i.n	a15, a6, 0
    2c1b:	2d14d2        	l16ui	a13, a4, 90
    2c1e:	1e0c           	movi.n	a14, 1
    2c20:	12dff2        	addmi	a15, a15, 0x1200
    2c23:	275fe2        	s16i	a14, a15, 78
    2c26:	1052d2        	s16i	a13, a2, 32
    2c29:	0252c2        	s16i	a12, a2, 4
    2c2c:	035292        	s16i	a9, a2, 6
    2c2f:	0008e0        	callx8	a8
    2c32:	07ad           	mov.n	a10, a7
    2c34:	f58b81        	l32r	a8, 260 (2ba0 <fill_vad_thrd_Nbands>)
    2c37:	70c4b2        	addi	a11, a4, 112
    2c3a:	4c0c           	movi.n	a12, 4
    2c3c:	0008e0        	callx8	a8
    2c3f:	170c           	movi.n	a7, 1
    2c41:	7d0c           	movi.n	a13, 7
    2c43:	06b8           	l32i.n	a11, a6, 0
    2c45:	78a0c2        	movi	a12, 120
    2c48:	f587e1        	l32r	a14, 264 (6c10 <win_ns>)
    2c4b:	3d62e2        	s32i	a14, a2, 244
    2c4e:	2f42c2        	s8i	a12, a2, 47
    2c51:	2e42d2        	s8i	a13, a2, 46
    2c54:	3ddbc2        	addmi	a12, a11, 0x3d00
    2c57:	0698           	l32i.n	a9, a6, 0
    2c59:	3fdbb2        	addmi	a11, a11, 0x3f00
    2c5c:	14ccc2        	addi	a12, a12, 20
    2c5f:	4062c2        	s32i	a12, a2, 0x100
    2c62:	0bad           	mov.n	a10, a11
    2c64:	44d992        	addmi	a9, a9, 0x4400
    2c67:	14caa2        	addi	a10, a10, 20
    2c6a:	f4cbb2        	addi	a11, a11, -12
    2c6d:	3e62b2        	s32i	a11, a2, 248
    2c70:	3f62a2        	s32i	a10, a2, 252
    2c73:	2cc992        	addi	a9, a9, 44

00002c76 <WB_NR_init+0x8a>:
    2c76:	c299           	s32i.n	a9, a2, 48

00002c78 <WB_NR_init+0x8c>:
    2c78:	2e02f2        	l8ui	a15, a2, 46
    2c7b:	2a1fa6        	blti	a15, 1, 2ca9 <WB_NR_init+0xbd>
    2c7e:	0d0c           	movi.n	a13, 0
    2c80:	0b0c           	movi.n	a11, 0
    2c82:	f579a1        	l32r	a10, 268 (ffffb800 <_end+0xffff3d14>)
    2c85:	f579e1        	l32r	a14, 26c (b8000000 <_end+0xb7ff8514>)
    2c88:	01d2c2        	addmi	a12, a2, 0x100
    2c8b:	a0ccc2        	addi	a12, a12, -96

00002c8e <WB_NR_init+0xa2>:
    2c8e:	c298           	l32i.n	a9, a2, 48
    2c90:	cf0c           	movi.n	a15, 12
    2c92:	0ce9           	s32i.n	a14, a12, 0
    2c94:	99da           	add.n	a9, a9, a13
    2c96:	18cdd2        	addi	a13, a13, 24
    2c99:	02af76        	loopgtz	a15, 2c9f <WB_NR_init+0xb3>
    2c9c:	09c9a4        	ae_s16ip	a10, a9, 2

00002c9f <WB_NR_init+0xb3>:
    2c9f:	2e02f2        	l8ui	a15, a2, 46
    2ca2:	cc4b           	addi.n	a12, a12, 4
    2ca4:	bb1b           	addi.n	a11, a11, 1
    2ca6:	e42bf7        	blt	a11, a15, 2c8e <WB_NR_init+0xa2>

00002ca9 <WB_NR_init+0xbd>:
    2ca9:	2e94b2        	l16si	a11, a4, 92
    2cac:	f56c81        	l32r	a8, 25c (2bdc <complement_para>)
    2caf:	01d2a2        	addmi	a10, a2, 0x100
    2cb2:	c4caa2        	addi	a10, a10, -60
    2cb5:	0008e0        	callx8	a8
    2cb8:	2f94b2        	l16si	a11, a4, 94
    2cbb:	f56881        	l32r	a8, 25c (2bdc <complement_para>)
    2cbe:	01d2a2        	addmi	a10, a2, 0x100
    2cc1:	c8caa2        	addi	a10, a10, -56
    2cc4:	0008e0        	callx8	a8
    2cc7:	3094b2        	l16si	a11, a4, 96
    2cca:	f56481        	l32r	a8, 25c (2bdc <complement_para>)
    2ccd:	01d2a2        	addmi	a10, a2, 0x100
    2cd0:	cccaa2        	addi	a10, a10, -52
    2cd3:	0008e0        	callx8	a8
    2cd6:	3194b2        	l16si	a11, a4, 98
    2cd9:	f56081        	l32r	a8, 25c (2bdc <complement_para>)
    2cdc:	01d2a2        	addmi	a10, a2, 0x100
    2cdf:	d0caa2        	addi	a10, a10, -48
    2ce2:	0008e0        	callx8	a8
    2ce5:	3294b2        	l16si	a11, a4, 100
    2ce8:	f55d81        	l32r	a8, 25c (2bdc <complement_para>)
    2ceb:	01d2a2        	addmi	a10, a2, 0x100
    2cee:	d4caa2        	addi	a10, a10, -44
    2cf1:	0008e0        	callx8	a8
    2cf4:	155272        	s16i	a7, a2, 42
    2cf7:	06c8           	l32i.n	a12, a6, 0
    2cf9:	04b8           	l32i.n	a11, a4, 0
    2cfb:	00a192        	movi	a9, 0x100
    2cfe:	0a6c           	movi.n	a10, -32
    2d00:	7894d2        	l16si	a13, a4, 240
    2d03:	8094e2        	l16si	a14, a4, 0x100
    2d06:	f52bf1        	l32r	a15, 1b4 (7fff0000 <_end+0x7ffe8514>)
    2d09:	986c           	movi.n	a8, -23
    2d0b:	6f5282        	s16i	a8, a2, 222
    2d0e:	4362f2        	s32i	a15, a2, 0x10c
    2d11:	4462f2        	s32i	a15, a2, 0x110
    2d14:	8b52e2        	s16i	a14, a2, 0x116
    2d17:	8a52d2        	s16i	a13, a2, 0x114
    2d1a:	7152a2        	s16i	a10, a2, 226
    2d1d:	125292        	s16i	a9, a2, 36
    2d20:	02b9           	s32i.n	a11, a2, 0
    2d22:	1cdcc2        	addmi	a12, a12, 0x1c00
    2d25:	10dbb2        	addmi	a11, a11, 0x1000
    2d28:	3a62c2        	s32i	a12, a2, 232
    2d2b:	b8cbc2        	addi	a12, a11, -72
    2d2e:	3b62c2        	s32i	a12, a2, 236
    2d31:	dccbb2        	addi	a11, a11, -36
    2d34:	3c62b2        	s32i	a11, a2, 240
    2d37:	1a2326        	beqi	a3, 2, 2d55 <WB_NR_init+0x169>
    2d3a:	2f0292        	l8ui	a9, a2, 47
    2d3d:	1419a6        	blti	a9, 1, 2d55 <WB_NR_init+0x169>
    2d40:	0a0c           	movi.n	a10, 0
    2d42:	0b0c           	movi.n	a11, 0
    2d44:	4022c2        	l32i	a12, a2, 0x100

00002d47 <WB_NR_init+0x15b>:
    2d47:	ecaa           	add.n	a14, a12, a10
    2d49:	0e59           	s32i.n	a5, a14, 0
    2d4b:	2f02d2        	l8ui	a13, a2, 47
    2d4e:	bb1b           	addi.n	a11, a11, 1
    2d50:	aa4b           	addi.n	a10, a10, 4
    2d52:	f12bd7        	blt	a11, a13, 2d47 <WB_NR_init+0x15b>
    2d55:	f01d           	retw.n

00002d57 <WB_NR_init+0x16b>:
    2d57:	fec3f2        	addi	a15, a3, -2
    2d5a:	0a0f56        	bnez	a15, 2dfe <WB_NR_init+0x212>
    2d5d:	2c94b2        	l16si	a11, a4, 88
    2d60:	f53f81        	l32r	a8, 25c (2bdc <complement_para>)
    2d63:	5014c2        	l16ui	a12, a4, 160
    2d66:	b90c           	movi.n	a9, 11
    2d68:	2414d2        	l16ui	a13, a4, 72
    2d6b:	2d14e2        	l16ui	a14, a4, 90
    2d6e:	1052e2        	s16i	a14, a2, 32
    2d71:	0352d2        	s16i	a13, a2, 6
    2d74:	939cc0        	movnez	a9, a12, a12
    2d77:	025292        	s16i	a9, a2, 4
    2d7a:	0008e0        	callx8	a8
    2d7d:	07ad           	mov.n	a10, a7
    2d7f:	f53881        	l32r	a8, 260 (2ba0 <fill_vad_thrd_Nbands>)
    2d82:	70c4b2        	addi	a11, a4, 112
    2d85:	4c0c           	movi.n	a12, 4
    2d87:	0008e0        	callx8	a8
    2d8a:	170c           	movi.n	a7, 1
    2d8c:	f4d381        	l32r	a8, d8 (5ec8 <xt_memset>)
    2d8f:	f538c1        	l32r	a12, 270 (6c30 <win_512_v3_nc>)
    2d92:	06a8           	l32i.n	a10, a6, 0
    2d94:	3d62c2        	s32i	a12, a2, 244
    2d97:	eea0c2        	movi	a12, 238
    2d9a:	3fdab2        	addmi	a11, a10, 0x3f00
    2d9d:	2fdaa2        	addmi	a10, a10, 0x2f00
    2da0:	34cbb2        	addi	a11, a11, 52
    2da3:	3e62b2        	s32i	a11, a2, 248
    2da6:	48caa2        	addi	a10, a10, 72
    2da9:	4262a2        	s32i	a10, a2, 0x108
    2dac:	0b0c           	movi.n	a11, 0
    2dae:	0008e0        	callx8	a8
    2db1:	3c0c           	movi.n	a12, 3
    2db3:	f49b81        	l32r	a8, 20 (5ee0 <xt_memcpy>)
    2db6:	090c           	movi.n	a9, 0
    2db8:	03d4b2        	addmi	a11, a4, 0x300
    2dbb:	4a0c           	movi.n	a10, 4
    2dbd:	0f3c           	movi.n	a15, 48
    2dbf:	4222d2        	l32i	a13, a2, 0x108
    2dc2:	01d9           	s32i.n	a13, a1, 0
    2dc4:	2f42f2        	s8i	a15, a2, 47
    2dc7:	2e42a2        	s8i	a10, a2, 46
    2dca:	06e8           	l32i.n	a14, a6, 0
    2dcc:	24cbb2        	addi	a11, a11, 36
    2dcf:	ad2b           	addi.n	a10, a13, 2
    2dd1:	45dee2        	addmi	a14, a14, 0x4500
    2dd4:	d4cee2        	addi	a14, a14, -44
    2dd7:	c2e9           	s32i.n	a14, a2, 48
    2dd9:	6d9d           	ae_s16i.n	a9, a13, 0
    2ddb:	0008e0        	callx8	a8
    2dde:	0198           	l32i.n	a9, a1, 0
    2de0:	26a0b2        	movi	a11, 38
    2de3:	e9afa2        	movi	a10, -23
    2de6:	0659a2        	s16i	a10, a9, 12
    2de9:	0759a2        	s16i	a10, a9, 14
    2dec:	0859a2        	s16i	a10, a9, 16
    2def:	01d992        	addmi	a9, a9, 0x100
    2df2:	44c992        	addi	a9, a9, 68
    2df5:	02ab76        	loopgtz	a11, 2dfb <WB_NR_init+0x20f>
    2df8:	09e954        	ae_s32ip	a5, a9, 4

00002dfb <WB_NR_init+0x20f>:
    2dfb:	ff9e46        	j	2c78 <WB_NR_init+0x8c>

00002dfe <WB_NR_init+0x212>:
    2dfe:	0698           	l32i.n	a9, a6, 0
    2e00:	4d1482        	l16ui	a8, a4, 154
    2e03:	4b14b2        	l16ui	a11, a4, 150
    2e06:	4a14c2        	l16ui	a12, a4, 148
    2e09:	4414d2        	l16ui	a13, a4, 136
    2e0c:	4314e2        	l16ui	a14, a4, 134
    2e0f:	4214f2        	l16ui	a15, a4, 132
    2e12:	0252f2        	s16i	a15, a2, 4
    2e15:	1152e2        	s16i	a14, a2, 34
    2e18:	0352d2        	s16i	a13, a2, 6
    2e1b:	0e52c2        	s16i	a12, a2, 28
    2e1e:	0f52b2        	s16i	a11, a2, 30
    2e21:	105282        	s16i	a8, a2, 32
    2e24:	4c94b2        	l16si	a11, a4, 152
    2e27:	f50d81        	l32r	a8, 25c (2bdc <complement_para>)
    2e2a:	41d992        	addmi	a9, a9, 0x4100
    2e2d:	54c992        	addi	a9, a9, 84
    2e30:	396292        	s32i	a9, a2, 228
    2e33:	0008e0        	callx8	a8
    2e36:	07ad           	mov.n	a10, a7
    2e38:	5c0c           	movi.n	a12, 5
    2e3a:	f50981        	l32r	a8, 260 (2ba0 <fill_vad_thrd_Nbands>)
    2e3d:	01d4b2        	addmi	a11, a4, 0x100
    2e40:	8acbb2        	addi	a11, a11, -118
    2e43:	0008e0        	callx8	a8
    2e46:	170c           	movi.n	a7, 1
    2e48:	3922a2        	l32i	a10, a2, 228
    2e4b:	00a1c2        	movi	a12, 0x100
    2e4e:	f50981        	l32r	a8, 274 (2bcc <fill_EQ_gain>)
    2e51:	03d4b2        	addmi	a11, a4, 0x300
    2e54:	2acbb2        	addi	a11, a11, 42
    2e57:	0008e0        	callx8	a8
    2e5a:	0b0c           	movi.n	a11, 0
    2e5c:	6c0c           	movi.n	a12, 6
    2e5e:	f49e81        	l32r	a8, d8 (5ec8 <xt_memset>)
    2e61:	2c0292        	l8ui	a9, a2, 44
    2e64:	06d8           	l32i.n	a13, a6, 0
    2e66:	f504a1        	l32r	a10, 278 (7790 <win_rx_512_v3>)
    2e69:	3d62a2        	s32i	a10, a2, 244
    2e6c:	39ddf2        	addmi	a15, a13, 0x3900
    2e6f:	209970        	or	a9, a9, a7
    2e72:	3bdde2        	addmi	a14, a13, 0x3b00
    2e75:	b4cee2        	addi	a14, a14, -76
    2e78:	2c4292        	s8i	a9, a2, 44
    2e7b:	94cff2        	addi	a15, a15, -108
    2e7e:	3e62f2        	s32i	a15, a2, 248
    2e81:	06a8           	l32i.n	a10, a6, 0
    2e83:	3f62e2        	s32i	a14, a2, 252
    2e86:	35ddd2        	addmi	a13, a13, 0x3500
    2e89:	dccdd2        	addi	a13, a13, -36
    2e8c:	4062d2        	s32i	a13, a2, 0x100
    2e8f:	4e14e2        	l16ui	a14, a4, 156
    2e92:	46dad2        	addmi	a13, a10, 0x4600
    2e95:	47daa2        	addmi	a10, a10, 0x4700
    2e98:	88caa2        	addi	a10, a10, -120
    2e9b:	425de2        	s16i	a14, a13, 132
    2e9e:	4f1492        	l16ui	a9, a4, 158
    2ea1:	435d92        	s16i	a9, a13, 134
    2ea4:	0008e0        	callx8	a8
    2ea7:	eea0c2        	movi	a12, 238
    2eaa:	06a8           	l32i.n	a10, a6, 0
    2eac:	9b0c           	movi.n	a11, 9
    2eae:	2e42b2        	s8i	a11, a2, 46
    2eb1:	2f42c2        	s8i	a12, a2, 47
    2eb4:	31daa2        	addmi	a10, a10, 0x3100
    2eb7:	0698           	l32i.n	a9, a6, 0
    2eb9:	24caa2        	addi	a10, a10, 36
    2ebc:	4162a2        	s32i	a10, a2, 0x104
    2ebf:	43d992        	addmi	a9, a9, 0x4300
    2ec2:	54c992        	addi	a9, a9, 84
    2ec5:	ff6b46        	j	2c76 <WB_NR_init+0x8a>

00002ec8 <WB_RX_NR_init>:
    2ec8:	004136        	entry	a1, 32
    2ecb:	03bd           	mov.n	a11, a3
    2ecd:	04cd           	mov.n	a12, a4
    2ecf:	f45531        	l32r	a3, 24 (7ae4 <p_ecnr_mem>)
    2ed2:	f4ea81        	l32r	a8, 27c (50c <RX_ECNR_PARA_init>)
    2ed5:	0a0c           	movi.n	a10, 0
    2ed7:	0329           	s32i.n	a2, a3, 0
    2ed9:	0008e0        	callx8	a8
    2edc:	f45321        	l32r	a2, 28 (7adc <aec_nr_para>)
    2edf:	03a8           	l32i.n	a10, a3, 0
    2ee1:	f49481        	l32r	a8, 134 (13d0 <HP_coef_setup>)
    2ee4:	02b8           	l32i.n	a11, a2, 0
    2ee6:	46daa2        	addmi	a10, a10, 0x4600
    2ee9:	50caa2        	addi	a10, a10, 80
    2eec:	01dbb2        	addmi	a11, a11, 0x100
    2eef:	34cbb2        	addi	a11, a11, 52
    2ef2:	0008e0        	callx8	a8
    2ef5:	02c8           	l32i.n	a12, a2, 0
    2ef7:	03a8           	l32i.n	a10, a3, 0
    2ef9:	1b0c           	movi.n	a11, 1
    2efb:	f4e181        	l32r	a8, 280 (2bec <WB_NR_init>)
    2efe:	45daa2        	addmi	a10, a10, 0x4500
    2f01:	38caa2        	addi	a10, a10, 56
    2f04:	0008e0        	callx8	a8
    2f07:	f01d           	retw.n

00002f09 <WB_RX_NR_init+0x41>:
    2f09:	000000                                        ...

00002f0c <WB_RX_NR_frame_process>:
    2f0c:	004136        	entry	a1, 32
    2f0f:	f44541        	l32r	a4, 24 (7ae4 <p_ecnr_mem>)
    2f12:	f4dc31        	l32r	a3, 284 (4684 <real_split+0x90>)
    2f15:	02ad           	mov.n	a10, a2
    2f17:	04b8           	l32i.n	a11, a4, 0
    2f19:	f0a0d2        	movi	a13, 240
    2f1c:	f4ad81        	l32r	a8, 1d0 (1824 <emph_filter_N>)
    2f1f:	47dbc2        	addmi	a12, a11, 0x4700
    2f22:	84ccb2        	addi	a11, a12, -124
    2f25:	88ccc2        	addi	a12, a12, -120
    2f28:	0008e0        	callx8	a8
    2f2b:	02bd           	mov.n	a11, a2
    2f2d:	04a8           	l32i.n	a10, a4, 0
    2f2f:	02cd           	mov.n	a12, a2
    2f31:	f4d581        	l32r	a8, 288 (2f54 <WB_NR_frame_process>)
    2f34:	45daa2        	addmi	a10, a10, 0x4500
    2f37:	38caa2        	addi	a10, a10, 56
    2f3a:	0008e0        	callx8	a8
    2f3d:	02ad           	mov.n	a10, a2
    2f3f:	04c8           	l32i.n	a12, a4, 0
    2f41:	f0a0d2        	movi	a13, 240
    2f44:	f4b681        	l32r	a8, 21c (1868 <deemph_filter_N>)
    2f47:	bc3a           	add.n	a11, a12, a3
    2f49:	47dcc2        	addmi	a12, a12, 0x4700
    2f4c:	8cccc2        	addi	a12, a12, -116
    2f4f:	0008e0        	callx8	a8
    2f52:	f01d           	retw.n

00002f54 <WB_NR_frame_process>:
    2f54:	004136        	entry	a1, 32
    2f57:	f4cd81        	l32r	a8, 28c (3698 <fft_wo>)
    2f5a:	03bd           	mov.n	a11, a3
    2f5c:	02ad           	mov.n	a10, a2
    2f5e:	0008e0        	callx8	a8
    2f61:	f4cb81        	l32r	a8, 290 (37f8 <NR_vad1>)
    2f64:	02ad           	mov.n	a10, a2
    2f66:	0008e0        	callx8	a8
    2f69:	f4ca81        	l32r	a8, 294 (38fc <NR_vad2>)
    2f6c:	02ad           	mov.n	a10, a2
    2f6e:	0008e0        	callx8	a8
    2f71:	f4c981        	l32r	a8, 298 (3a74 <NR_NoiseEstimate>)
    2f74:	02ad           	mov.n	a10, a2
    2f76:	0008e0        	callx8	a8
    2f79:	f4c881        	l32r	a8, 29c (3b70 <NR_NoiseWithGain>)
    2f7c:	02ad           	mov.n	a10, a2
    2f7e:	0008e0        	callx8	a8
    2f81:	f4c781        	l32r	a8, 2a0 (3c1c <NR_WienerFilter>)
    2f84:	02ad           	mov.n	a10, a2
    2f86:	0008e0        	callx8	a8
    2f89:	f4c681        	l32r	a8, 2a4 (3e58 <ifft_wo_single>)
    2f8c:	04bd           	mov.n	a11, a4
    2f8e:	02ad           	mov.n	a10, a2
    2f90:	0008e0        	callx8	a8
    2f93:	f01d           	retw.n

00002f95 <WB_NR_frame_process+0x41>:
    2f95:	000000                                        ...

00002f98 <NB_NR_init>:
    2f98:	004136        	entry	a1, 32
    2f9b:	02ad           	mov.n	a10, a2
    2f9d:	f44e81        	l32r	a8, d8 (5ec8 <xt_memset>)
    2fa0:	0b0c           	movi.n	a11, 0
    2fa2:	8ca0c2        	movi	a12, 140
    2fa5:	0008e0        	callx8	a8
    2fa8:	f4ad81        	l32r	a8, 25c (2bdc <complement_para>)
    2fab:	f41f31        	l32r	a3, 28 (7adc <aec_nr_para>)
    2fae:	f41d41        	l32r	a4, 24 (7ae4 <p_ecnr_mem>)
    2fb1:	01d2a2        	addmi	a10, a2, 0x100
    2fb4:	0368           	l32i.n	a6, a3, 0
    2fb6:	0498           	l32i.n	a9, a4, 0
    2fb8:	d8caa2        	addi	a10, a10, -40
    2fbb:	3e96b2        	l16si	a11, a6, 124
    2fbe:	41d992        	addmi	a9, a9, 0x4100
    2fc1:	3d16c2        	l16ui	a12, a6, 122
    2fc4:	3c16d2        	l16ui	a13, a6, 120
    2fc7:	3716e2        	l16ui	a14, a6, 110
    2fca:	3616f2        	l16ui	a15, a6, 108
    2fcd:	351652        	l16ui	a5, a6, 106
    2fd0:	025252        	s16i	a5, a2, 4
    2fd3:	1152f2        	s16i	a15, a2, 34
    2fd6:	0352e2        	s16i	a14, a2, 6
    2fd9:	0e52d2        	s16i	a13, a2, 28
    2fdc:	0f52c2        	s16i	a12, a2, 30
    2fdf:	54c992        	addi	a9, a9, 84
    2fe2:	396292        	s32i	a9, a2, 228
    2fe5:	3f1662        	l16ui	a6, a6, 126
    2fe8:	105262        	s16i	a6, a2, 32
    2feb:	0008e0        	callx8	a8
    2fee:	a28b           	addi.n	a10, a2, 8
    2ff0:	03b8           	l32i.n	a11, a3, 0
    2ff2:	f49b81        	l32r	a8, 260 (2ba0 <fill_vad_thrd_Nbands>)
    2ff5:	4c0c           	movi.n	a12, 4
    2ff7:	70cbb2        	addi	a11, a11, 112
    2ffa:	0008e0        	callx8	a8
    2ffd:	3922a2        	l32i	a10, a2, 228
    3000:	03b8           	l32i.n	a11, a3, 0
    3002:	80a0c2        	movi	a12, 128
    3005:	f49b81        	l32r	a8, 274 (2bcc <fill_EQ_gain>)
    3008:	03dbb2        	addmi	a11, a11, 0x300
    300b:	2acbb2        	addi	a11, a11, 42
    300e:	0008e0        	callx8	a8
    3011:	0b0c           	movi.n	a11, 0
    3013:	6c0c           	movi.n	a12, 6
    3015:	f43081        	l32r	a8, d8 (5ec8 <xt_memset>)
    3018:	04d8           	l32i.n	a13, a4, 0
    301a:	150c           	movi.n	a5, 1
    301c:	2c02e2        	l8ui	a14, a2, 44
    301f:	f4a2f1        	l32r	a15, 2a8 (79b0 <win_rx_256_v3>)
    3022:	3d62f2        	s32i	a15, a2, 244
    3025:	20ee50        	or	a14, a14, a5
    3028:	39dd92        	addmi	a9, a13, 0x3900
    302b:	94c992        	addi	a9, a9, -108
    302e:	2c42e2        	s8i	a14, a2, 44
    3031:	04a8           	l32i.n	a10, a4, 0
    3033:	3bddf2        	addmi	a15, a13, 0x3b00
    3036:	3e6292        	s32i	a9, a2, 248
    3039:	35ddd2        	addmi	a13, a13, 0x3500
    303c:	b4cff2        	addi	a15, a15, -76
    303f:	3f62f2        	s32i	a15, a2, 252
    3042:	dccdd2        	addi	a13, a13, -36
    3045:	0398           	l32i.n	a9, a3, 0
    3047:	4062d2        	s32i	a13, a2, 0x100
    304a:	46dad2        	addmi	a13, a10, 0x4600
    304d:	4019e2        	l16ui	a14, a9, 128
    3050:	47daa2        	addmi	a10, a10, 0x4700
    3053:	88caa2        	addi	a10, a10, -120
    3056:	425de2        	s16i	a14, a13, 132
    3059:	411992        	l16ui	a9, a9, 130
    305c:	435d92        	s16i	a9, a13, 134
    305f:	0008e0        	callx8	a8
    3062:	0c0c           	movi.n	a12, 0
    3064:	0d0c           	movi.n	a13, 0
    3066:	f480a1        	l32r	a10, 268 (ffffb800 <_end+0xffff3d14>)
    3069:	f480e1        	l32r	a14, 26c (b8000000 <_end+0xb7ff8514>)
    306c:	01d2b2        	addmi	a11, a2, 0x100
    306f:	0488           	l32i.n	a8, a4, 0
    3071:	790c           	movi.n	a9, 7
    3073:	2e4292        	s8i	a9, a2, 46
    3076:	a0cbb2        	addi	a11, a11, -96
    3079:	31d892        	addmi	a9, a8, 0x3100
    307c:	43d882        	addmi	a8, a8, 0x4300
    307f:	24c992        	addi	a9, a9, 36
    3082:	416292        	s32i	a9, a2, 0x104
    3085:	54c882        	addi	a8, a8, 84
    3088:	c289           	s32i.n	a8, a2, 48

0000308a <NB_NR_init+0xf2>:
    308a:	cf0c           	movi.n	a15, 12
    308c:	c298           	l32i.n	a9, a2, 48
    308e:	0be9           	s32i.n	a14, a11, 0
    3090:	bb4b           	addi.n	a11, a11, 4
    3092:	8099c0        	add	a9, a9, a12
    3095:	02af76        	loopgtz	a15, 309b <NB_NR_init+0x103>
    3098:	09c9a4        	ae_s16ip	a10, a9, 2

0000309b <NB_NR_init+0x103>:
    309b:	2e02f2        	l8ui	a15, a2, 46
    309e:	18ccc2        	addi	a12, a12, 24
    30a1:	dd1b           	addi.n	a13, a13, 1
    30a3:	e32df7        	blt	a13, a15, 308a <NB_NR_init+0xf2>
    30a6:	03b8           	l32i.n	a11, a3, 0
    30a8:	01d2a2        	addmi	a10, a2, 0x100
    30ab:	f46c81        	l32r	a8, 25c (2bdc <complement_para>)
    30ae:	c4caa2        	addi	a10, a10, -60
    30b1:	2e9bb2        	l16si	a11, a11, 92
    30b4:	0008e0        	callx8	a8
    30b7:	03b8           	l32i.n	a11, a3, 0
    30b9:	01d2a2        	addmi	a10, a2, 0x100
    30bc:	f46881        	l32r	a8, 25c (2bdc <complement_para>)
    30bf:	c8caa2        	addi	a10, a10, -56
    30c2:	2f9bb2        	l16si	a11, a11, 94
    30c5:	0008e0        	callx8	a8
    30c8:	03b8           	l32i.n	a11, a3, 0
    30ca:	01d2a2        	addmi	a10, a2, 0x100
    30cd:	f46381        	l32r	a8, 25c (2bdc <complement_para>)
    30d0:	cccaa2        	addi	a10, a10, -52
    30d3:	309bb2        	l16si	a11, a11, 96
    30d6:	0008e0        	callx8	a8
    30d9:	03b8           	l32i.n	a11, a3, 0
    30db:	01d2a2        	addmi	a10, a2, 0x100
    30de:	f45f81        	l32r	a8, 25c (2bdc <complement_para>)
    30e1:	d0caa2        	addi	a10, a10, -48
    30e4:	319bb2        	l16si	a11, a11, 98
    30e7:	0008e0        	callx8	a8
    30ea:	03b8           	l32i.n	a11, a3, 0
    30ec:	01d2a2        	addmi	a10, a2, 0x100
    30ef:	f45b81        	l32r	a8, 25c (2bdc <complement_para>)
    30f2:	d4caa2        	addi	a10, a10, -44
    30f5:	329bb2        	l16si	a11, a11, 100
    30f8:	0008e0        	callx8	a8
    30fb:	155252        	s16i	a5, a2, 42
    30fe:	4022b2        	l32i	a11, a2, 0x100
    3101:	f42cd1        	l32r	a13, 1b4 (7fff0000 <_end+0x7ffe8514>)
    3104:	78a0c2        	movi	a12, 120
    3107:	9e6c           	movi.n	a14, -23
    3109:	00a1f2        	movi	a15, 0x100
    310c:	086c           	movi.n	a8, -32
    310e:	715282        	s16i	a8, a2, 226
    3111:	1252f2        	s16i	a15, a2, 36
    3114:	6f52e2        	s16i	a14, a2, 222
    3117:	2f42c2        	s8i	a12, a2, 47
    311a:	04a8           	l32i.n	a10, a4, 0
    311c:	0398           	l32i.n	a9, a3, 0
    311e:	4462d2        	s32i	a13, a2, 0x110
    3121:	1cdaa2        	addmi	a10, a10, 0x1c00
    3124:	0998           	l32i.n	a9, a9, 0
    3126:	0299           	s32i.n	a9, a2, 0
    3128:	3a62a2        	s32i	a10, a2, 232
    312b:	10d992        	addmi	a9, a9, 0x1000
    312e:	b8c9a2        	addi	a10, a9, -72
    3131:	3b62a2        	s32i	a10, a2, 236
    3134:	dcc992        	addi	a9, a9, -36
    3137:	3c6292        	s32i	a9, a2, 240
    313a:	f447a1        	l32r	a10, 258 (40000000 <_end+0x3fff8514>)
    313d:	090c           	movi.n	a9, 0
    313f:	05ac76        	loopgtz	a12, 3148 <NB_NR_init+0x1b0>
    3142:	cb9a           	add.n	a12, a11, a9
    3144:	0ca9           	s32i.n	a10, a12, 0
    3146:	994b           	addi.n	a9, a9, 4
    3148:	f01d           	retw.n

0000314a <NB_NR_init+0x1b2>:
	...

0000314c <NB_RX_NR_init>:
    314c:	004136        	entry	a1, 32
    314f:	03bd           	mov.n	a11, a3
    3151:	04cd           	mov.n	a12, a4
    3153:	f3b431        	l32r	a3, 24 (7ae4 <p_ecnr_mem>)
    3156:	f44981        	l32r	a8, 27c (50c <RX_ECNR_PARA_init>)
    3159:	1a0c           	movi.n	a10, 1
    315b:	0329           	s32i.n	a2, a3, 0
    315d:	0008e0        	callx8	a8
    3160:	f3b2b1        	l32r	a11, 28 (7adc <aec_nr_para>)
    3163:	03a8           	l32i.n	a10, a3, 0
    3165:	f3f381        	l32r	a8, 134 (13d0 <HP_coef_setup>)
    3168:	0bb8           	l32i.n	a11, a11, 0
    316a:	46daa2        	addmi	a10, a10, 0x4600
    316d:	50caa2        	addi	a10, a10, 80
    3170:	01dbb2        	addmi	a11, a11, 0x100
    3173:	60cbb2        	addi	a11, a11, 96
    3176:	0008e0        	callx8	a8
    3179:	03a8           	l32i.n	a10, a3, 0
    317b:	f44c81        	l32r	a8, 2ac (2f98 <NB_NR_init>)
    317e:	45daa2        	addmi	a10, a10, 0x4500
    3181:	38caa2        	addi	a10, a10, 56
    3184:	0008e0        	callx8	a8
    3187:	f01d           	retw.n

00003189 <NB_RX_NR_init+0x3d>:
    3189:	000000                                        ...

0000318c <NB_RX_NR_frame_process>:
    318c:	004136        	entry	a1, 32
    318f:	f3a541        	l32r	a4, 24 (7ae4 <p_ecnr_mem>)
    3192:	f43c31        	l32r	a3, 284 (4684 <real_split+0x90>)
    3195:	02ad           	mov.n	a10, a2
    3197:	04b8           	l32i.n	a11, a4, 0
    3199:	78a0d2        	movi	a13, 120
    319c:	f40d81        	l32r	a8, 1d0 (1824 <emph_filter_N>)
    319f:	47dbc2        	addmi	a12, a11, 0x4700
    31a2:	84ccb2        	addi	a11, a12, -124
    31a5:	88ccc2        	addi	a12, a12, -120
    31a8:	0008e0        	callx8	a8
    31ab:	02bd           	mov.n	a11, a2
    31ad:	04a8           	l32i.n	a10, a4, 0
    31af:	02cd           	mov.n	a12, a2
    31b1:	f43f81        	l32r	a8, 2b0 (31d4 <NB_NR_frame_process>)
    31b4:	45daa2        	addmi	a10, a10, 0x4500
    31b7:	38caa2        	addi	a10, a10, 56
    31ba:	0008e0        	callx8	a8
    31bd:	02ad           	mov.n	a10, a2
    31bf:	04c8           	l32i.n	a12, a4, 0
    31c1:	78a0d2        	movi	a13, 120
    31c4:	f41681        	l32r	a8, 21c (1868 <deemph_filter_N>)
    31c7:	bc3a           	add.n	a11, a12, a3
    31c9:	47dcc2        	addmi	a12, a12, 0x4700
    31cc:	8cccc2        	addi	a12, a12, -116
    31cf:	0008e0        	callx8	a8
    31d2:	f01d           	retw.n

000031d4 <NB_NR_frame_process>:
    31d4:	004136        	entry	a1, 32
    31d7:	f42d81        	l32r	a8, 28c (3698 <fft_wo>)
    31da:	03bd           	mov.n	a11, a3
    31dc:	02ad           	mov.n	a10, a2
    31de:	0008e0        	callx8	a8
    31e1:	f42b81        	l32r	a8, 290 (37f8 <NR_vad1>)
    31e4:	02ad           	mov.n	a10, a2
    31e6:	0008e0        	callx8	a8
    31e9:	f42a81        	l32r	a8, 294 (38fc <NR_vad2>)
    31ec:	02ad           	mov.n	a10, a2
    31ee:	0008e0        	callx8	a8
    31f1:	f42981        	l32r	a8, 298 (3a74 <NR_NoiseEstimate>)
    31f4:	02ad           	mov.n	a10, a2
    31f6:	0008e0        	callx8	a8
    31f9:	f42881        	l32r	a8, 29c (3b70 <NR_NoiseWithGain>)
    31fc:	02ad           	mov.n	a10, a2
    31fe:	0008e0        	callx8	a8
    3201:	f42781        	l32r	a8, 2a0 (3c1c <NR_WienerFilter>)
    3204:	02ad           	mov.n	a10, a2
    3206:	0008e0        	callx8	a8
    3209:	f42681        	l32r	a8, 2a4 (3e58 <ifft_wo_single>)
    320c:	04bd           	mov.n	a11, a4
    320e:	02ad           	mov.n	a10, a2
    3210:	0008e0        	callx8	a8
    3213:	f01d           	retw.n

00003215 <NB_NR_frame_process+0x41>:
    3215:	000000                                        ...

00003218 <NOISE_GEN_init>:
    3218:	004136        	entry	a1, 32
    321b:	f382a1        	l32r	a10, 24 (7ae4 <p_ecnr_mem>)
    321e:	0b0c           	movi.n	a11, 0
    3220:	f382c1        	l32r	a12, 28 (7adc <aec_nr_para>)
    3223:	0aa8           	l32i.n	a10, a10, 0
    3225:	f41681        	l32r	a8, 280 (2bec <WB_NR_init>)
    3228:	0cc8           	l32i.n	a12, a12, 0
    322a:	2ddaa2        	addmi	a10, a10, 0x2d00
    322d:	18caa2        	addi	a10, a10, 24
    3230:	0008e0        	callx8	a8
    3233:	f01d           	retw.n

00003235 <NOISE_GEN_init+0x1d>:
    3235:	000000                                        ...

00003238 <ns_ifft_wo>:
    3238:	004136        	entry	a1, 32
    323b:	f41fa1        	l32r	a10, 2b8 (6f54 <fftorder_512_12b+0x4>)
    323e:	80a082        	movi	a8, 128
    3241:	0b0c           	movi.n	a11, 0
    3243:	3a2292        	l32i	a9, a2, 232
    3246:	0248           	l32i.n	a4, a2, 0
    3248:	f41be1        	l32r	a14, 2b4 (fffc <_end+0x8510>)
    324b:	0304d0        	rsr.br	a13
    324e:	2c0c           	movi.n	a12, 2
    3250:	10dde0        	and	a13, a13, a14
    3253:	20ddc0        	or	a13, a13, a12
    3256:	1304d0        	wsr.br	a13
    3259:	002020        	esync
    325c:	14b9           	s32i.n	a11, a4, 4
    325e:	04b9           	s32i.n	a11, a4, 0
    3260:	5c0904        	ae_lp24x2f.i	aep0, a9, 0
    3263:	0ea876        	loopgtz	a8, 3275 <ns_ifft_wo+0x3d>
    3266:	2afd           	ae_l16si.n	a15, a10, 0
    3268:	fc18404aae 	{ addi	a10, a10, 4; ae_negsp24s	aep1, aep0 }
    326d:	e0042f891f 	{ ae_lp24x2f.iu	aep0, a9, 8; ae_movtp24x2	aep1, aep0, b0:b1 }
    3272:	5f14f4        	ae_sp24x2f.x	aep1, a4, a15

00003275 <ns_ifft_wo+0x3d>:
    3275:	5c89e4        	ae_lp24x2f.iu	aep0, a9, -16
    3278:	7fa082        	movi	a8, 127
    327b:	09a876        	loopgtz	a8, 3288 <ns_ifft_wo+0x50>
    327e:	2abd           	ae_l16si.n	a11, a10, 0
    3280:	aa4b           	addi.n	a10, a10, 4
    3282:	5f04b4        	ae_sp24x2f.x	aep0, a4, a11
    3285:	5c89f4        	ae_lp24x2f.iu	aep0, a9, -8
    3288:	04ad           	mov.n	a10, a4
    328a:	00a1b2        	movi	a11, 0x100
    328d:	8c0c           	movi.n	a12, 8
    328f:	f40b81        	l32r	a8, 2bc (4850 <sw_fft_32b_2811>)
    3292:	0d0c           	movi.n	a13, 0
    3294:	1e0c           	movi.n	a14, 1
    3296:	0008e0        	callx8	a8
    3299:	fec3b2        	addi	a11, a3, -2
    329c:	600404        	ae_lq32f.i	aeq0, a4, 0
    329f:	3f2292        	l32i	a9, a2, 252
    32a2:	3d22c2        	l32i	a12, a2, 244
    32a5:	1392e2        	l16si	a14, a2, 38
    32a8:	fec992        	addi	a9, a9, -2
    32ab:	feccd2        	addi	a13, a12, -2
    32ae:	c0aae0        	sub	a10, a10, a14
    32b1:	20ccc2        	addi	a12, a12, 32
    32b4:	f8caa2        	addi	a10, a10, -8
    32b7:	0e1c           	movi.n	a14, 16
    32b9:	1cae76        	loopgtz	a14, 32d9 <ns_ifft_wo+0xa1>
    32bc:	40dcf4        	ae_lp16f.iu	aep5, a12, -2
    32bf:	fc24fe8a8f 	{ ae_slaasq56s	aeq2, aeq0, a10; nop }
    32c4:	fd546cc91f 	{ ae_lp16f.iu	aep4, a9, 2; ae_roundsq32sym	aeq1, aeq2 }
    32c9:	eab0acbd1f 	{ ae_lp16f.iu	aep3, a13, 2; ae_mulfp24s.hl	aeq0, aep4, aep5 }
    32ce:	033054        	ae_mulafq32sp16s.l	aeq0, aeq1, aep3

000032d1 <ns_ifft_wo+0x99>:
    32d1:	f9e3bd142f 	{ ae_lq32f.iu	aeq0, a4, 8; ae_roundsp16q48sym	aep2, aeq0 }
    32d6:	42ab14        	ae_sp16f.l.iu	aep2, a11, 2

000032d9 <ns_ifft_wo+0xa1>:
    32d9:	e0a0d2        	movi	a13, 224
    32dc:	f03d           	nop.n
    32de:	0fad76        	loopgtz	a13, 32f1 <ns_ifft_wo+0xb9>
    32e1:	fc24fe8a0f 	{ ae_slaasq56s	aeq0, aeq0, a10; nop }
    32e6:	06c834        	ae_roundsq32sym	aeq3, aeq0
    32e9:	fbfbbd142f 	{ ae_lq32f.iu	aeq0, a4, 8; ae_roundsp16q48sym	aep6, aeq3 }
    32ee:	42eb14        	ae_sp16f.l.iu	aep6, a11, 2
    32f1:	3f2292        	l32i	a9, a2, 252
    32f4:	0e1c           	movi.n	a14, 16
    32f6:	fec992        	addi	a9, a9, -2
    32f9:	f03d           	nop.n
    32fb:	f03d           	nop.n
    32fd:	0fae76        	loopgtz	a14, 3310 <ns_ifft_wo+0xd8>
    3300:	fc24fe8a8f 	{ ae_slaasq56s	aeq2, aeq0, a10; nop }
    3305:	066834        	ae_roundsq32sym	aeq1, aeq2
    3308:	fbebfd142f 	{ ae_lq32f.iu	aeq0, a4, 8; ae_roundsp16q48sym	aep7, aeq1 }
    330d:	42f914        	ae_sp16f.l.iu	aep7, a9, 2
    3310:	f01d           	retw.n

00003312 <ns_ifft_wo+0xda>:
	...

00003314 <NOISE_GEN_Prcs>:
    3314:	004136        	entry	a1, 32
    3317:	f34341        	l32r	a4, 24 (7ae4 <p_ecnr_mem>)
    331a:	209220        	or	a9, a2, a2
    331d:	f3e8a1        	l32r	a10, 2c0 (6f58 <fftorder_512_12b+0x8>)
    3320:	002442        	l32i	a4, a4, 0
    3323:	441204        	ae_lp16x2f.i	aep1, a2, 0
    3326:	78a082        	movi	a8, 120
    3329:	2dd442        	addmi	a4, a4, 0x2d00
    332c:	18c442        	addi	a4, a4, 24
    332f:	3d24d2        	l32i	a13, a4, 244
    3332:	0024c2        	l32i	a12, a4, 0
    3335:	3e24e2        	l32i	a14, a4, 248
    3338:	fc20a124fe 	{ l16si	a15, a4, 36; ae_zerop48	aep0 }
    333d:	04a876        	loopgtz	a8, 3345 <NOISE_GEN_Prcs+0x31>
    3340:	d821ad991f 	{ ae_lp16x2f.iu	aep1, a9, 4; ae_maxabssp24s	aep0, aep0, aep1 }

00003345 <NOISE_GEN_Prcs+0x31>:
    3345:	dc01c0009f 	{ movi	a9, 0; ae_selp24.lh	aep1, aep0, aep0 }
    334a:	d82240088f 	{ movi	a8, 8; ae_maxp24s	aep1, aep0, aep1 }
    334f:	0015d4        	ae_cvta32p24.l	a5, aep1
    3352:	04dcc2        	addmi	a12, a12, 0x400
    3355:	bc4b           	addi.n	a11, a12, 4
    3357:	40e550        	nsa	a5, a5
    335a:	125452        	s16i	a5, a4, 36
    335d:	4355f0        	min	a5, a5, a15
    3360:	031654        	wur.ae_sar	a5
    3363:	440e04        	ae_lp16x2f.i	aep0, a14, 0
    3366:	f823ad1d0f 	{ ae_lp16x2f.i	aep1, a13, 0; ae_sllssp24s	aep0, aep0 }
    336b:	f03d           	nop.n
    336d:	18a876        	loopgtz	a8, 3389 <NOISE_GEN_Prcs+0x75>
    3370:	010944        	ae_mulfp24s.hh	aeq1, aep0, aep1
    3373:	010174        	ae_mulfp24s.ll	aeq0, aep0, aep1
    3376:	629c94        	ae_sq32f.x	aeq1, a12, a9
    3379:	628b94        	ae_sq32f.x	aeq0, a11, a9
    337c:	449d14        	ae_lp16x2f.iu	aep1, a13, 4
    337f:	44ae14        	ae_lp16x2f.iu	aep2, a14, 4
    3382:	2a9d           	ae_l16si.n	a9, a10, 0
    3384:	f82b808aae 	{ addi	a10, a10, 8; ae_sllssp24s	aep0, aep2 }
    3389:	440204        	ae_lp16x2f.i	aep0, a2, 0
    338c:	70a0e2        	movi	a14, 112
    338f:	14ae76        	loopgtz	a14, 33a7 <NOISE_GEN_Prcs+0x93>
    3392:	0b00b4        	ae_sllssp24s	aep3, aep0
    3395:	0acb84        	ae_cvtq48p24s.h	aeq3, aep3
    3398:	fe6c387c9f 	{ ae_sq32f.x	aeq3, a12, a9; ae_cvtq48p24s.l	aeq2, aep3 }
    339d:	62ab94        	ae_sq32f.x	aeq2, a11, a9
    33a0:	2a9d           	ae_l16si.n	a9, a10, 0
    33a2:	448214        	ae_lp16x2f.iu	aep0, a2, 4
    33a5:	aa8b           	addi.n	a10, a10, 8
    33a7:	3e24e2        	l32i	a14, a4, 248
    33aa:	8f0c           	movi.n	a15, 8
    33ac:	fccee2        	addi	a14, a14, -4
    33af:	19af76        	loopgtz	a15, 33cc <NOISE_GEN_Prcs+0xb8>
    33b2:	fa23adddff 	{ ae_lp16x2f.iu	aep5, a13, -4; ae_sllssp24s	aep4, aep0 }
    33b7:	014d54        	ae_mulfp24s.hl	aeq1, aep4, aep5
    33ba:	e8b1b38e1f 	{ ae_sp16x2f.iu	aep0, a14, 4; ae_mulfp24s.lh	aeq0, aep4, aep5 }
    33bf:	629c94        	ae_sq32f.x	aeq1, a12, a9
    33c2:	628b94        	ae_sq32f.x	aeq0, a11, a9
    33c5:	2a9d           	ae_l16si.n	a9, a10, 0
    33c7:	448214        	ae_lp16x2f.iu	aep0, a2, 4
    33ca:	aa8b           	addi.n	a10, a10, 8
    33cc:	80a0b2        	movi	a11, 128
    33cf:	8c0c           	movi.n	a12, 8
    33d1:	1d0c           	movi.n	a13, 1
    33d3:	04a8           	l32i.n	a10, a4, 0
    33d5:	f3b981        	l32r	a8, 2bc (4850 <sw_fft_32b_2811>)
    33d8:	0e0c           	movi.n	a14, 0
    33da:	04daa2        	addmi	a10, a10, 0x400
    33dd:	0008e0        	callx8	a8
    33e0:	00a1b2        	movi	a11, 0x100
    33e3:	c095a0        	sub	a9, a5, a10
    33e6:	f3b781        	l32r	a8, 2c4 (364c <gen_power>)
    33e9:	135492        	s16i	a9, a4, 38
    33ec:	04ad           	mov.n	a10, a4
    33ee:	0008e0        	callx8	a8
    33f1:	f3a781        	l32r	a8, 290 (37f8 <NR_vad1>)
    33f4:	04ad           	mov.n	a10, a4
    33f6:	0008e0        	callx8	a8
    33f9:	f3a681        	l32r	a8, 294 (38fc <NR_vad2>)
    33fc:	04ad           	mov.n	a10, a4
    33fe:	0008e0        	callx8	a8
    3401:	f3a581        	l32r	a8, 298 (3a74 <NR_NoiseEstimate>)
    3404:	04ad           	mov.n	a10, a4
    3406:	0008e0        	callx8	a8
    3409:	f3af81        	l32r	a8, 2c8 (588 <comfort_noise_gen_wb2>)
    340c:	04ad           	mov.n	a10, a4
    340e:	0008e0        	callx8	a8
    3411:	f3ae81        	l32r	a8, 2cc (3238 <ns_ifft_wo>)
    3414:	03bd           	mov.n	a11, a3
    3416:	04ad           	mov.n	a10, a4
    3418:	0008e0        	callx8	a8
    341b:	f01d           	retw.n

0000341d <NOISE_GEN_Prcs+0x109>:
    341d:	000000                                        ...

00003420 <NC_NOISE_EST_init>:
    3420:	004136        	entry	a1, 32
    3423:	f300a1        	l32r	a10, 24 (7ae4 <p_ecnr_mem>)
    3426:	02cd           	mov.n	a12, a2
    3428:	0aa8           	l32i.n	a10, a10, 0
    342a:	2b0c           	movi.n	a11, 2
    342c:	f39581        	l32r	a8, 280 (2bec <WB_NR_init>)
    342f:	2edaa2        	addmi	a10, a10, 0x2e00
    3432:	30caa2        	addi	a10, a10, 48
    3435:	0008e0        	callx8	a8
    3438:	f01d           	retw.n

0000343a <NC_NOISE_EST_init+0x1a>:
	...

0000343c <NC_NOISE_EST_Prcs>:
    343c:	006136        	entry	a1, 48
    343f:	03bd           	mov.n	a11, a3
    3441:	f39281        	l32r	a8, 28c (3698 <fft_wo>)
    3444:	2ed232        	addmi	a3, a2, 0x2e00
    3447:	30c332        	addi	a3, a3, 48
    344a:	03ad           	mov.n	a10, a3
    344c:	0008e0        	callx8	a8
    344f:	f39081        	l32r	a8, 290 (37f8 <NR_vad1>)
    3452:	03ad           	mov.n	a10, a3
    3454:	0008e0        	callx8	a8
    3457:	f38f81        	l32r	a8, 294 (38fc <NR_vad2>)
    345a:	03ad           	mov.n	a10, a3
    345c:	0008e0        	callx8	a8
    345f:	2dd242        	addmi	a4, a2, 0x2d00
    3462:	882492        	l32i	a9, a4, 0x220
    3465:	3cc452        	addi	a5, a4, 60
    3468:	8e2442        	l32i	a4, a4, 0x238
    346b:	09a8           	l32i.n	a10, a9, 0
    346d:	160c           	movi.n	a6, 1
    346f:	0904c2        	l8ui	a12, a4, 9
    3472:	141ae6        	bgei	a10, 1, 348a <NC_NOISE_EST_Prcs+0x4e>
    3475:	1988           	l32i.n	a8, a9, 4
    3477:	0f18e6        	bgei	a8, 1, 348a <NC_NOISE_EST_Prcs+0x4e>
    347a:	29a8           	l32i.n	a10, a9, 8
    347c:	0a1ae6        	bgei	a10, 1, 348a <NC_NOISE_EST_Prcs+0x4e>
    347f:	39b8           	l32i.n	a11, a9, 12
    3481:	051be6        	bgei	a11, 1, 348a <NC_NOISE_EST_Prcs+0x4e>
    3484:	060c           	movi.n	a6, 0
    3486:	000006        	j	348a <NC_NOISE_EST_Prcs+0x4e>

00003489 <NC_NOISE_EST_Prcs+0x4d>:
	...

0000348a <NC_NOISE_EST_Prcs+0x4e>:
    348a:	44a172        	movi	a7, 0x144
    348d:	bccc           	bnez.n	a12, 349c <NC_NOISE_EST_Prcs+0x60>
    348f:	0804d2        	l8ui	a13, a4, 8
    3492:	6dcc           	bnez.n	a13, 349c <NC_NOISE_EST_Prcs+0x60>
    3494:	46cc           	bnez.n	a6, 349c <NC_NOISE_EST_Prcs+0x60>
    3496:	66a632        	movi	a3, 0x666
    3499:	000046        	j	349e <NC_NOISE_EST_Prcs+0x62>

0000349c <NC_NOISE_EST_Prcs+0x60>:
    349c:	030c           	movi.n	a3, 0

0000349e <NC_NOISE_EST_Prcs+0x62>:
    349e:	0894c2        	l16si	a12, a4, 16
    34a1:	0694d2        	l16si	a13, a4, 12
    34a4:	01d4a2        	addmi	a10, a4, 0x100
    34a7:	acca22        	addi	a2, a10, -84
    34aa:	121dc7        	beq	a13, a12, 34c0 <NC_NOISE_EST_Prcs+0x84>
    34ad:	44cab2        	addi	a11, a10, 68
    34b0:	f38881        	l32r	a8, 2d0 (3624 <equal_power>)
    34b3:	6e2c           	movi.n	a14, 38
    34b5:	02ad           	mov.n	a10, a2
    34b7:	0008e0        	callx8	a8
    34ba:	0654a2        	s16i	a10, a4, 12
    34bd:	0854a2        	s16i	a10, a4, 16

000034c0 <NC_NOISE_EST_Prcs+0x84>:
    34c0:	6a2c           	movi.n	a10, 38
    34c2:	01d4c2        	addmi	a12, a4, 0x100
    34c5:	f323b1        	l32r	a11, 154 (8000 <_end+0x514>)
    34c8:	40cc92        	addi	a9, a12, 64
    34cb:	ccccc2        	addi	a12, a12, -52
    34ce:	608c84        	ae_lq32f.i	aeq2, a12, -32
    34d1:	c0bb30        	sub	a11, a11, a3
    34d4:	fc249883bf 	{ ae_cvtp24a16x2.ll	aep0, a3, a11; ae_zeroq56	aeq0 }
    34d9:	19aa76        	loopgtz	a10, 34f6 <NC_NOISE_EST_Prcs+0xba>
    34dc:	605914        	ae_lq32f.iu	aeq1, a9, 4
    34df:	63cc           	bnez.n	a3, 34e9 <NC_NOISE_EST_Prcs+0xad>
    34e1:	f86b3d521f 	{ ae_lq32f.iu	aeq2, a2, 4; ae_maxq56s	aeq0, aeq0, aeq1 }
    34e6:	000286        	j	34f4 <NC_NOISE_EST_Prcs+0xb8>

000034e9 <NC_NOISE_EST_Prcs+0xad>:
    34e9:	c18864        	ae_mulzaafq32sp16s.lh	aeq3, aeq1, aep0, aeq2, aep0
    34ec:	609214        	ae_lq32f.iu	aeq2, a2, 4
    34ef:	f87b39b90f 	{ ae_sq32f.i	aeq3, a9, 0; ae_maxq56s	aeq0, aeq0, aeq3 }

000034f4 <NC_NOISE_EST_Prcs+0xb8>:
    34f4:	f03d           	nop.n

000034f6 <NC_NOISE_EST_Prcs+0xba>:
    34f6:	364b04        	ae_nsaq56s	a11, aeq0
    34f9:	14c4a2        	addi	a10, a4, 20
    34fc:	8c0c           	movi.n	a12, 8
    34fe:	21acb7        	bge	a12, a11, 3523 <NC_NOISE_EST_Prcs+0xe7>
    3501:	0a9d           	mov.n	a9, a10
    3503:	26a0d2        	movi	a13, 38
    3506:	0694e2        	l16si	a14, a4, 12
    3509:	f8cbf2        	addi	a15, a11, -8
    350c:	401f00        	ssl	a15
    350f:	c0eef0        	sub	a14, a14, a15
    3512:	0654e2        	s16i	a14, a4, 12
    3515:	0aad76        	loopgtz	a13, 3523 <NC_NOISE_EST_Prcs+0xe7>
    3518:	4c2982        	l32i	a8, a9, 0x130
    351b:	994b           	addi.n	a9, a9, 4
    351d:	a18800        	sll	a8, a8
    3520:	4b6982        	s32i	a8, a9, 0x12c

00003523 <NC_NOISE_EST_Prcs+0xe7>:
    3523:	3d2592        	l32i	a9, a5, 244
    3526:	e89582        	l16si	a8, a5, 0x1d0
    3529:	6b2c           	movi.n	a11, 38
    352b:	0bab76        	loopgtz	a11, 353a <NC_NOISE_EST_Prcs+0xfe>
    352e:	994b           	addi.n	a9, a9, 4
    3530:	0ae8           	l32i.n	a14, a10, 0
    3532:	266ae2        	s32i	a14, a10, 152
    3535:	29d8           	l32i.n	a13, a9, 8
    3537:	09ead4        	ae_s32ip	a13, a10, 4

0000353a <NC_NOISE_EST_Prcs+0xfe>:
    353a:	34fd           	ae_l16si.n	a15, a4, 2
    353c:	fc24a0749e 	{ l16si	a9, a4, 14; ae_zeroq56	aeq0 }
    3541:	0804a2        	l8ui	a10, a4, 8
    3544:	084462        	s8i	a6, a4, 8
    3547:	085492        	s16i	a9, a4, 16
    354a:	0944a2        	s8i	a10, a4, 9
    354d:	075482        	s16i	a8, a4, 14
    3550:	072f16        	beqz	a15, 35c6 <NC_NOISE_EST_Prcs+0x18a>
    3553:	947a           	add.n	a9, a4, a7
    3555:	fb1c           	movi.n	a11, 31
    3557:	01d4d2        	addmi	a13, a4, 0x100
    355a:	0694a2        	l16si	a10, a4, 12
    355d:	64cdd2        	addi	a13, a13, 100
    3560:	604d84        	ae_lq32f.i	aeq1, a13, -32
    3563:	c0aca0        	sub	a10, a12, a10
    3566:	43aab0        	min	a10, a10, a11
    3569:	01aad6        	bgez	a10, 3587 <NC_NOISE_EST_Prcs+0x14b>
    356c:	60a0a0        	neg	a10, a10
    356f:	6e2c           	movi.n	a14, 38
    3571:	f03d           	nop.n
    3573:	f03d           	nop.n
    3575:	09ae76        	loopgtz	a14, 3582 <NC_NOISE_EST_Prcs+0x146>
    3578:	fc24fe9a4f 	{ ae_slaasq56s	aeq1, aeq1, a10; nop }

0000357d <NC_NOISE_EST_Prcs+0x141>:
    357d:	f8667d391f 	{ ae_lq32f.iu	aeq1, a9, 4; ae_addsq56s	aeq0, aeq0, aeq1 }

00003582 <NC_NOISE_EST_Prcs+0x146>:
    3582:	000386        	j	3594 <NC_NOISE_EST_Prcs+0x158>

00003585 <NC_NOISE_EST_Prcs+0x149>:
	...

00003587 <NC_NOISE_EST_Prcs+0x14b>:
    3587:	6f2c           	movi.n	a15, 38
    3589:	07af76        	loopgtz	a15, 3594 <NC_NOISE_EST_Prcs+0x158>
    358c:	349ab4        	ae_sraaq56	aeq2, aeq1, a10
    358f:	f8e27d391f 	{ ae_lq32f.iu	aeq1, a9, 4; ae_addsq56s	aeq0, aeq0, aeq2 }

00003594 <NC_NOISE_EST_Prcs+0x158>:
    3594:	f35091        	l32r	a9, 2d4 (35e51 <_end+0x2e365>)
    3597:	398994        	ae_movpa24x2	aep0, a9, a9
    359a:	080d24        	ae_mulfq32sp24s.l	aeq1, aeq0, aep0
    359d:	06d834        	ae_roundsq32sym	aeq3, aeq1
    35a0:	623104        	ae_sq32f.i	aeq3, a1, 0
    35a3:	0188           	l32i.n	a8, a1, 0
    35a5:	349d           	ae_l16si.n	a9, a4, 2
    35a7:	24ad           	ae_l16si.n	a10, a4, 0
    35a9:	218880        	srai	a8, a8, 8
    35ac:	07a897        	bge	a8, a9, 35b7 <NC_NOISE_EST_Prcs+0x17b>
    35af:	029492        	l16si	a9, a4, 4
    35b2:	99aa           	add.n	a9, a9, a10
    35b4:	000146        	j	35bd <NC_NOISE_EST_Prcs+0x181>

000035b7 <NC_NOISE_EST_Prcs+0x17b>:
    35b7:	039492        	l16si	a9, a4, 6
    35ba:	c09a90        	sub	a9, a10, a9

000035bd <NC_NOISE_EST_Prcs+0x181>:
    35bd:	a9bd           	ae_clamps16	a11, a9
    35bf:	0a0c           	movi.n	a10, 0
    35c1:	53aab0        	max	a10, a10, a11
    35c4:	64ad           	ae_s16i.n	a10, a4, 0

000035c6 <NC_NOISE_EST_Prcs+0x18a>:
    35c6:	f01d           	retw.n

000035c8 <take_min_four>:
    35c8:	004136        	entry	a1, 32
    35cb:	228d           	ae_l16si.n	a8, a2, 0
    35cd:	3f23a6        	blti	a3, 2, 3610 <take_min_four+0x48>
    35d0:	f2c891        	l32r	a9, f0 (7fff <_end+0x513>)
    35d3:	f2c761        	l32r	a6, f0 (7fff <_end+0x513>)
    35d6:	f2c671        	l32r	a7, f0 (7fff <_end+0x513>)
    35d9:	222b           	addi.n	a2, a2, 2
    35db:	430b           	addi.n	a4, a3, -1
    35dd:	2ca476        	loopgtz	a4, 360d <take_min_four+0x45>
    35e0:	223d           	ae_l16si.n	a3, a2, 0
    35e2:	222b           	addi.n	a2, a2, 2
    35e4:	0aa387        	bge	a3, a8, 35f2 <take_min_four+0x2a>
    35e7:	069d           	mov.n	a9, a6
    35e9:	076d           	mov.n	a6, a7
    35eb:	087d           	mov.n	a7, a8
    35ed:	038d           	mov.n	a8, a3
    35ef:	000606        	j	360b <take_min_four+0x43>

000035f2 <take_min_four+0x2a>:
    35f2:	08a377        	bge	a3, a7, 35fe <take_min_four+0x36>
    35f5:	069d           	mov.n	a9, a6
    35f7:	076d           	mov.n	a6, a7
    35f9:	037d           	mov.n	a7, a3
    35fb:	000306        	j	360b <take_min_four+0x43>

000035fe <take_min_four+0x36>:
    35fe:	06a367        	bge	a3, a6, 3608 <take_min_four+0x40>
    3601:	069d           	mov.n	a9, a6
    3603:	036d           	mov.n	a6, a3
    3605:	000086        	j	360b <take_min_four+0x43>

00003608 <take_min_four+0x40>:
    3608:	439390        	min	a9, a3, a9
    360b:	f03d           	nop.n

0000360d <take_min_four+0x45>:
    360d:	000206        	j	3619 <take_min_four+0x51>

00003610 <take_min_four+0x48>:
    3610:	f2b861        	l32r	a6, f0 (7fff <_end+0x513>)
    3613:	f2b791        	l32r	a9, f0 (7fff <_end+0x513>)
    3616:	f2b671        	l32r	a7, f0 (7fff <_end+0x513>)

00003619 <take_min_four+0x51>:
    3619:	469a           	add.n	a4, a6, a9
    361b:	287a           	add.n	a2, a8, a7
    361d:	224a           	add.n	a2, a2, a4
    361f:	112220        	slli	a2, a2, 14
    3622:	f01d           	retw.n

00003624 <equal_power>:
    3624:	004136        	entry	a1, 32
    3627:	c08450        	sub	a8, a4, a5
    362a:	0078d6        	bgez	a8, 3635 <equal_power+0x11>
    362d:	023d           	mov.n	a3, a2
    362f:	c08540        	sub	a8, a5, a4
    3632:	000046        	j	3637 <equal_power+0x13>

00003635 <equal_power+0x11>:
    3635:	045d           	mov.n	a5, a4

00003637 <equal_power+0x13>:
    3637:	fcc332        	addi	a3, a3, -4
    363a:	08a676        	loopgtz	a6, 3646 <equal_power+0x22>
    363d:	601314        	ae_lq32f.iu	aeq0, a3, 4
    3640:	3408a4        	ae_srlaq56	aeq0, aeq0, a8
    3643:	620304        	ae_sq32f.i	aeq0, a3, 0

00003646 <equal_power+0x22>:
    3646:	052d           	mov.n	a2, a5
    3648:	f01d           	retw.n

0000364a <equal_power+0x26>:
	...

0000364c <gen_power>:
    364c:	004136        	entry	a1, 32
    364f:	3a2262        	l32i	a6, a2, 232
    3652:	0258           	l32i.n	a5, a2, 0
    3654:	217130        	srai	a7, a3, 1
    3657:	f8c632        	addi	a3, a6, -8
    365a:	0d17a6        	blti	a7, 1, 366b <gen_power+0x1f>
    365d:	05a776        	loopgtz	a7, 3666 <gen_power+0x1a>
    3660:	5c8514        	ae_lp24x2f.iu	aep0, a5, 8
    3663:	5e8314        	ae_sp24x2f.iu	aep0, a3, 8

00003666 <gen_power+0x1a>:
    3666:	0258           	l32i.n	a5, a2, 0
    3668:	3a2262        	l32i	a6, a2, 232

0000366b <gen_power+0x1f>:
    366b:	170c           	movi.n	a7, 1
    366d:	139282        	l16si	a8, a2, 38
    3670:	2f0242        	l8ui	a4, a2, 47
    3673:	fcc552        	addi	a5, a5, -4
    3676:	063d           	mov.n	a3, a6
    3678:	5c0604        	ae_lp24x2f.i	aep0, a6, 0
    367b:	443b           	addi.n	a4, a4, 3
    367d:	1188f0        	slli	a8, a8, 1
    3680:	c07780        	sub	a7, a7, a8
    3683:	6e5272        	s16i	a7, a2, 220
    3686:	0aa476        	loopgtz	a4, 3694 <gen_power+0x48>
    3689:	040824        	ae_mulzaap24s.hh.ll	aeq1, aep0, aep0
    368c:	fc4c6f831f 	{ ae_lp24x2f.iu	aep0, a3, 8; ae_roundsq32sym	aeq0, aeq1 }
    3691:	624514        	ae_sq32f.iu	aeq0, a5, 4

00003694 <gen_power+0x48>:
    3694:	f01d           	retw.n

00003696 <gen_power+0x4a>:
	...

00003698 <fft_wo>:
    3698:	008136        	entry	a1, 64
    369b:	2e0292        	l8ui	a9, a2, 46
    369e:	f306b1        	l32r	a11, 2b8 (6f54 <fftorder_512_12b+0x4>)
    36a1:	260c           	movi.n	a6, 2
    36a3:	0289f6        	bgeui	a9, 8, 36a9 <fft_wo+0x11>
    36a6:	084966        	bnei	a9, 4, 36b2 <fft_wo+0x1a>

000036a9 <fft_wo+0x11>:
    36a9:	f0a052        	movi	a5, 240
    36ac:	00a242        	movi	a4, 0x200
    36af:	000286        	j	36bd <fft_wo+0x25>

000036b2 <fft_wo+0x1a>:
    36b2:	78a052        	movi	a5, 120
    36b5:	00a142        	movi	a4, 0x100
    36b8:	f302b1        	l32r	a11, 2c0 (6f58 <fftorder_512_12b+0x8>)
    36bb:	460c           	movi.n	a6, 4

000036bd <fft_wo+0x25>:
    36bd:	02f8           	l32i.n	a15, a2, 0
    36bf:	470c           	movi.n	a7, 4
    36c1:	1a15a6        	blti	a5, 1, 36df <fft_wo+0x47>
    36c4:	090c           	movi.n	a9, 0
    36c6:	03ad           	mov.n	a10, a3
    36c8:	1185f0        	slli	a8, a5, 1
    36cb:	5189           	s32i.n	a8, a1, 20
    36cd:	09a576        	loopgtz	a5, 36da <fft_wo+0x42>
    36d0:	2acd           	ae_l16si.n	a12, a10, 0
    36d2:	aa2b           	addi.n	a10, a10, 2
    36d4:	60c1c0        	abs	a12, a12
    36d7:	2099c0        	or	a9, a9, a12

000036da <fft_wo+0x42>:
    36da:	000206        	j	36e6 <fft_wo+0x4e>

000036dd <fft_wo+0x45>:
	...

000036df <fft_wo+0x47>:
    36df:	090c           	movi.n	a9, 0
    36e1:	11d5f0        	slli	a13, a5, 1
    36e4:	51d9           	s32i.n	a13, a1, 20

000036e6 <fft_wo+0x4e>:
    36e6:	11d6f0        	slli	a13, a6, 1
    36e9:	d27470        	quos	a7, a4, a7
    36ec:	3d22a2        	l32i	a10, a2, 244
    36ef:	a0f4f0        	addx4	a15, a4, a15
    36f2:	0c0c           	movi.n	a12, 0
    36f4:	40e980        	nsa	a8, a9
    36f7:	11e4e0        	slli	a14, a4, 2
    36fa:	129292        	l16si	a9, a2, 36
    36fd:	41e9           	s32i.n	a14, a1, 16
    36ff:	f0c882        	addi	a8, a8, -16
    3702:	5388c0        	max	a8, a8, a12
    3705:	1189           	s32i.n	a8, a1, 4
    3707:	ef4b           	addi.n	a14, a15, 4
    3709:	438890        	min	a8, a8, a9
    370c:	3e2292        	l32i	a9, a2, 248
    370f:	fe24ad1a0f 	{ ae_lp16x2f.i	aep1, a10, 0; ae_zeroq56	aeq2 }
    3714:	031684        	wur.ae_sar	a8
    3717:	f9d22d090f 	{ ae_lp16x2f.i	aep0, a9, 0; ae_truncp24q48x2	aep2, aeq2, aeq2 }
    371c:	f82394018f 	{ s32i.n	a8, a1, 0; ae_sllssp24s	aep0, aep0 }
    3721:	17a776        	loopgtz	a7, 373c <fft_wo+0xa4>
    3724:	010944        	ae_mulfp24s.hh	aeq1, aep0, aep1
    3727:	010174        	ae_mulfp24s.ll	aeq0, aep0, aep1
    372a:	629fc4        	ae_sq32f.x	aeq1, a15, a12
    372d:	628ec4        	ae_sq32f.x	aeq0, a14, a12
    3730:	2bcd           	ae_l16si.n	a12, a11, 0
    3732:	449914        	ae_lp16x2f.iu	aep1, a9, 4
    3735:	bbda           	add.n	a11, a11, a13
    3737:	f827ad9a1f 	{ ae_lp16x2f.iu	aep1, a10, 4; ae_sllssp24s	aep0, aep1 }

0000373c <fft_wo+0xa4>:
    373c:	2d0c           	movi.n	a13, 2
    373e:	3e2282        	l32i	a8, a2, 248
    3741:	d2d5d0        	quos	a13, a5, a13
    3744:	21d9           	s32i.n	a13, a1, 8
    3746:	c0d7d0        	sub	a13, a7, a13
    3749:	5178           	l32i.n	a7, a1, 20
    374b:	002152        	l32i	a5, a1, 0
    374e:	0361d2        	s32i	a13, a1, 12
    3751:	809870        	add	a9, a8, a7
    3754:	450874        	ae_lp16x2f.x	aep0, a8, a7
    3757:	fcc872        	addi	a7, a8, -4
    375a:	032182        	l32i	a8, a1, 12
    375d:	09ad76        	loopgtz	a13, 376a <fft_wo+0xd2>
    3760:	fd0873871f 	{ ae_sp16x2f.iu	aep0, a7, 4; ae_abssp24s	aep3, aep0 }
    3765:	dd682d891f 	{ ae_lp16x2f.iu	aep0, a9, 4; ae_orp48	aep2, aep2, aep3 }
    376a:	449af4        	ae_lp16x2f.iu	aep1, a10, -4
    376d:	11d6f0        	slli	a13, a6, 1
    3770:	1fa876        	loopgtz	a8, 3793 <fft_wo+0xfb>
    3773:	0b00d4        	ae_sllssp24s	aep5, aep0
    3776:	015154        	ae_mulfp24s.hl	aeq0, aep5, aep1
    3779:	e935f3871f 	{ ae_sp16x2f.iu	aep0, a7, 4; ae_mulfp24s.lh	aeq3, aep5, aep1 }
    377e:	628fc4        	ae_sq32f.x	aeq0, a15, a12
    3781:	62bec4        	ae_sq32f.x	aeq3, a14, a12
    3784:	449af4        	ae_lp16x2f.iu	aep1, a10, -4

00003787 <fft_wo+0xef>:
    3787:	fe082d891f 	{ ae_lp16x2f.iu	aep0, a9, 4; ae_abssp24s	aep4, aep0 }
    378c:	2bcd           	ae_l16si.n	a12, a11, 0
    378e:	dd8810bbdf 	{ add	a11, a11, a13; ae_orp48	aep2, aep2, aep4 }

00003793 <fft_wo+0xfb>:
    3793:	00a8d4        	ae_cvta32p24.h	a8, aep2
    3796:	002dd4        	ae_cvta32p24.l	a13, aep2
    3799:	1198           	l32i.n	a9, a1, 4
    379b:	20dd80        	or	a13, a13, a8
    379e:	2188           	l32i.n	a8, a1, 8
    37a0:	40edd0        	nsa	a13, a13
    37a3:	4399d0        	min	a9, a9, a13
    37a6:	125292        	s16i	a9, a2, 36
    37a9:	11d6f0        	slli	a13, a6, 1
    37ac:	039d           	mov.n	a9, a3
    37ae:	440304        	ae_lp16x2f.i	aep0, a3, 0
    37b1:	1aa876        	loopgtz	a8, 37cf <fft_wo+0x137>
    37b4:	0b00e4        	ae_sllssp24s	aep6, aep0
    37b7:	01e154        	ae_mulfp24s.hl	aeq2, aep6, aep1
    37ba:	e839f3871f 	{ ae_sp16x2f.iu	aep0, a7, 4; ae_mulfp24s.lh	aeq1, aep6, aep1 }
    37bf:	62afc4        	ae_sq32f.x	aeq2, a15, a12
    37c2:	629ec4        	ae_sq32f.x	aeq1, a14, a12
    37c5:	449af4        	ae_lp16x2f.iu	aep1, a10, -4
    37c8:	2bcd           	ae_l16si.n	a12, a11, 0
    37ca:	448914        	ae_lp16x2f.iu	aep0, a9, 4
    37cd:	bbda           	add.n	a11, a11, a13
    37cf:	8c0c           	movi.n	a12, 8
    37d1:	1d0c           	movi.n	a13, 1
    37d3:	0e0c           	movi.n	a14, 0
    37d5:	41f8           	l32i.n	a15, a1, 16
    37d7:	02a8           	l32i.n	a10, a2, 0
    37d9:	21b140        	srai	a11, a4, 1
    37dc:	f2b881        	l32r	a8, 2bc (4850 <sw_fft_32b_2811>)
    37df:	8bbd           	ae_sext16	a11, a11
    37e1:	aafa           	add.n	a10, a10, a15
    37e3:	0008e0        	callx8	a8
    37e6:	04bd           	mov.n	a11, a4
    37e8:	c095a0        	sub	a9, a5, a10
    37eb:	f2b681        	l32r	a8, 2c4 (364c <gen_power>)
    37ee:	02ad           	mov.n	a10, a2
    37f0:	135292        	s16i	a9, a2, 38
    37f3:	0008e0        	callx8	a8
    37f6:	f01d           	retw.n

000037f8 <NR_vad1>:
    37f8:	004136        	entry	a1, 32
    37fb:	0238           	l32i.n	a3, a2, 0
    37fd:	2e0272        	l8ui	a7, a2, 46
    3800:	33cb           	addi.n	a3, a3, 12
    3802:	0787b6        	bltui	a7, 8, 380d <NR_vad1+0x15>
    3805:	f2b441        	l32r	a4, 2d8 (7750 <wb_sb_ptn>)
    3808:	000106        	j	3810 <NR_vad1+0x18>

0000380b <NR_vad1+0x13>:
	...

0000380d <NR_vad1+0x15>:
    380d:	f2b341        	l32r	a4, 2dc (7780 <nb_sb_ptn>)

00003810 <NR_vad1+0x18>:
    3810:	608304        	ae_lq32f.i	aeq2, a3, 0
    3813:	047716        	beqz	a7, 385e <NR_vad1+0x66>
    3816:	906740        	addx2	a6, a7, a4
    3819:	fd2480005f 	{ movi	a5, 0; ae_zeroq56	aeq1 }

0000381e <NR_vad1+0x26>:
    381e:	249d           	ae_l16si.n	a9, a4, 0
    3820:	348d           	ae_l16si.n	a8, a4, 2
    3822:	c08890        	sub	a8, a8, a9
    3825:	04a876        	loopgtz	a8, 382d <NR_vad1+0x35>
    3828:	f9ea3d531f 	{ ae_lq32f.iu	aeq2, a3, 4; ae_addq56	aeq1, aeq1, aeq2 }

0000382d <NR_vad1+0x35>:
    382d:	365d04        	ae_nsaq56s	a13, aeq1
    3830:	6e92b2        	l16si	a11, a2, 220
    3833:	f25d81        	l32r	a8, 1a8 (694 <Log2_norm>)
    3836:	f8cdc2        	addi	a12, a13, -8
    3839:	c0bbd0        	sub	a11, a11, a13
    383c:	fc24fe9c4f 	{ ae_slaasq56s	aeq1, aeq1, a12; nop }
    3841:	369a04        	ae_trunca32q48	a10, aeq1
    3844:	bb8b           	addi.n	a11, a11, 8
    3846:	0008e0        	callx8	a8
    3849:	3b22e2        	l32i	a14, a2, 236
    384c:	608304        	ae_lq32f.i	aeq2, a3, 0
    384f:	442b           	addi.n	a4, a4, 2
    3851:	ee5a           	add.n	a14, a14, a5
    3853:	006ea2        	s32i	a10, a14, 0
    3856:	fd2480455e 	{ addi	a5, a5, 4; ae_zeroq56	aeq1 }
    385b:	bf9467        	bne	a4, a6, 381e <NR_vad1+0x26>

0000385e <NR_vad1+0x66>:
    385e:	34c2c2        	addi	a12, a2, 52
    3861:	0392f2        	l16si	a15, a2, 6
    3864:	3b2292        	l32i	a9, a2, 236
    3867:	54c2b2        	addi	a11, a2, 84
    386a:	608b84        	ae_lq32f.i	aeq2, a11, -32
    386d:	604904        	ae_lq32f.i	aeq1, a9, 0
    3870:	11ff00        	slli	a15, a15, 16
    3873:	360f34        	ae_cvtq48a32s	aeq0, a15
    3876:	049716        	beqz	a7, 38c3 <NR_vad1+0xcb>
    3879:	01d2e2        	addmi	a14, a2, 0x100
    387c:	00a0a2        	movi	a10, 0
    387f:	c4cef2        	addi	a15, a14, -60
    3882:	c8cee2        	addi	a14, a14, -56
    3885:	349776        	loopnez	a7, 38bd <NR_vad1+0xc5>
    3888:	099224        	ae_ltq56s	b2, aeq2, aeq1
    388b:	0f8d           	mov.n	a8, a15
    388d:	c38e20        	movf	a8, a14, b2
    3890:	441804        	ae_lp16x2f.i	aep1, a8, 0
    3893:	c19164        	ae_mulzaafq32sp16s.lh	aeq2, aeq1, aep1, aeq2, aep1
    3896:	622c04        	ae_sq32f.i	aeq2, a12, 0
    3899:	60db14        	ae_lq32f.iu	aeq3, a11, 4
    389c:	09b114        	ae_ltq56s	b1, aeq1, aeq3
    389f:	0fdd           	mov.n	a13, a15
    38a1:	c3de10        	movf	a13, a14, b1
    38a4:	440d04        	ae_lp16x2f.i	aep0, a13, 0
    38a7:	c18874        	ae_mulzaafq32sp16s.lh	aeq3, aeq1, aep0, aeq3, aep0
    38aa:	fab6c06a8e 	{ addi	a8, a10, 6; ae_subq56	aeq2, aeq2, aeq3 }
    38af:	d65039bb0f 	{ ae_sq32f.i	aeq3, a11, 0; ae_ltq56s	b0, aeq0, aeq2 }
    38b4:	605914        	ae_lq32f.iu	aeq1, a9, 4
    38b7:	609c14        	ae_lq32f.iu	aeq2, a12, 4
    38ba:	d3a800        	movt	a10, a8, b0

000038bd <NR_vad1+0xc5>:
    38bd:	3b2292        	l32i	a9, a2, 236
    38c0:	000046        	j	38c5 <NR_vad1+0xcd>

000038c3 <NR_vad1+0xcb>:
    38c3:	0a0c           	movi.n	a10, 0

000038c5 <NR_vad1+0xcd>:
    38c5:	051ae6        	bgei	a10, 1, 38ce <NR_vad1+0xd6>
    38c8:	f286a1        	l32r	a10, 2e0 (743c <NR_immediate_num+0xc>)
    38cb:	000086        	j	38d1 <NR_vad1+0xd9>

000038ce <NR_vad1+0xd6>:
    38ce:	f285a1        	l32r	a10, 2e4 (7438 <NR_immediate_num+0x8>)

000038d1 <NR_vad1+0xd9>:
    38d1:	604904        	ae_lq32f.i	aeq1, a9, 0
    38d4:	1092b2        	l16si	a11, a2, 32
    38d7:	440a04        	ae_lp16x2f.i	aep0, a10, 0
    38da:	7cc2a2        	addi	a10, a2, 124
    38dd:	11bb00        	slli	a11, a11, 16
    38e0:	360b34        	ae_cvtq48a32s	aeq0, a11
    38e3:	608a04        	ae_lq32f.i	aeq2, a10, 0
    38e6:	0d9776        	loopnez	a7, 38f7 <NR_vad1+0xff>
    38e9:	c18864        	ae_mulzaafq32sp16s.lh	aeq3, aeq1, aep0, aeq2, aep0
    38ec:	605914        	ae_lq32f.iu	aeq1, a9, 4
    38ef:	fb7b3d5a1f 	{ ae_lq32f.iu	aeq2, a10, 4; ae_maxq56s	aeq3, aeq0, aeq3 }
    38f4:	623af4        	ae_sq32f.i	aeq3, a10, -4

000038f7 <NR_vad1+0xff>:
    38f7:	f01d           	retw.n

000038f9 <NR_vad1+0x101>:
    38f9:	000000                                        ...

000038fc <NR_vad2>:
    38fc:	006136        	entry	a1, 48
    38ff:	851c           	movi.n	a5, 24
    3901:	a0a0f2        	movi	a15, 160
    3904:	2e02a2        	l8ui	a10, a2, 46
    3907:	7cc2b2        	addi	a11, a2, 124
    390a:	1512e2        	l16ui	a14, a2, 42
    390d:	021282        	l16ui	a8, a2, 4
    3910:	01d2d2        	addmi	a13, a2, 0x100
    3913:	80cdc2        	addi	a12, a13, -128
    3916:	0218e7        	beq	a8, a14, 391c <NR_vad2+0x20>
    3919:	002186        	j	39a3 <NR_vad2+0xa7>
    391c:	01a9           	s32i.n	a10, a1, 0
    391e:	109262        	l16si	a6, a2, 32
    3921:	a0cd82        	addi	a8, a13, -96
    3924:	090c           	movi.n	a9, 0
    3926:	155292        	s16i	a9, a2, 42
    3929:	1189           	s32i.n	a8, a1, 4
    392b:	08d662        	addmi	a6, a6, 0x800
    392e:	116600        	slli	a6, a6, 16
    3931:	aaac           	beqz.n	a10, 395f <NR_vad2+0x63>
    3933:	084d           	mov.n	a4, a8
    3935:	093d           	mov.n	a3, a9
    3937:	21c9           	s32i.n	a12, a1, 8
    3939:	31b9           	s32i.n	a11, a1, 12
    393b:	907aa0        	addx2	a7, a10, a10
    393e:	1177d0        	slli	a7, a7, 3

00003941 <NR_vad2+0x45>:
    3941:	c2a8           	l32i.n	a10, a2, 48
    3943:	f26981        	l32r	a8, 2e8 (35c8 <take_min_four>)
    3946:	cb0c           	movi.n	a11, 12
    3948:	aa3a           	add.n	a10, a10, a3
    394a:	0008e0        	callx8	a8
    394d:	18c332        	addi	a3, a3, 24
    3950:	53b6a0        	max	a11, a6, a10
    3953:	09e4b4        	ae_s32ip	a11, a4, 4
    3956:	e79377        	bne	a3, a7, 3941 <NR_vad2+0x45>
    3959:	01a8           	l32i.n	a10, a1, 0
    395b:	31b8           	l32i.n	a11, a1, 12
    395d:	21c8           	l32i.n	a12, a1, 8

0000395f <NR_vad2+0x63>:
    395f:	c298           	l32i.n	a9, a2, 48
    3961:	2d02f2        	l8ui	a15, a2, 45
    3964:	21c9           	s32i.n	a12, a1, 8
    3966:	31b9           	s32i.n	a11, a1, 12
    3968:	01a9           	s32i.n	a10, a1, 0
    396a:	01a8           	l32i.n	a10, a1, 0
    396c:	31b8           	l32i.n	a11, a1, 12
    396e:	21c8           	l32i.n	a12, a1, 8
    3970:	ff1b           	addi.n	a15, a15, 1
    3972:	0bdd           	mov.n	a13, a11
    3974:	74f0f0        	extui	a15, a15, 0, 8
    3977:	2d42f2        	s8i	a15, a2, 45
    397a:	06af66        	bnei	a15, 12, 3984 <NR_vad2+0x88>
    397d:	0f0c           	movi.n	a15, 0
    397f:	080c           	movi.n	a8, 0
    3981:	2d4282        	s8i	a8, a2, 45

00003984 <NR_vad2+0x88>:
    3984:	600cf4        	ae_lq32f.i	aeq0, a12, -4
    3987:	909f90        	addx2	a9, a15, a9
    398a:	e8c992        	addi	a9, a9, -24
    398d:	079a76        	loopnez	a10, 3998 <NR_vad2+0x9c>
    3990:	f8e3bd1d1f 	{ ae_lq32f.iu	aeq0, a13, 4; ae_roundsp16q48sym	aep0, aeq0 }
    3995:	438954        	ae_sp16f.l.xu	aep0, a9, a5

00003998 <NR_vad2+0x9c>:
    3998:	1198           	l32i.n	a9, a1, 4
    399a:	1512e2        	l16ui	a14, a2, 42
    399d:	000a46        	j	39ca <NR_vad2+0xce>

000039a0 <NR_vad2+0xa4>:
    39a0:	000000                                        ...

000039a3 <NR_vad2+0xa7>:
    39a3:	c288           	l32i.n	a8, a2, 48
    39a5:	2d0292        	l8ui	a9, a2, 45
    39a8:	0bdd           	mov.n	a13, a11
    39aa:	600cf4        	ae_lq32f.i	aeq0, a12, -4
    39ad:	909980        	addx2	a9, a9, a8
    39b0:	e8c992        	addi	a9, a9, -24
    39b3:	1a9c           	beqz.n	a10, 39c8 <NR_vad2+0xcc>
    39b5:	0c9a76        	loopnez	a10, 39c5 <NR_vad2+0xc9>
    39b8:	f9e39a195f 	{ ae_lp16f.xu	aep1, a9, a5; ae_roundsp16q48sym	aep2, aeq0 }
    39bd:	d846fd1d1f 	{ ae_lq32f.iu	aeq0, a13, 4; ae_minp24s	aep1, aep1, aep2 }
    39c2:	421904        	ae_sp16f.l.i	aep1, a9, 0

000039c5 <NR_vad2+0xc9>:
    39c5:	1512e2        	l16ui	a14, a2, 42

000039c8 <NR_vad2+0xcc>:
    39c8:	92fa           	add.n	a9, a2, a15

000039ca <NR_vad2+0xce>:
    39ca:	de1b           	addi.n	a13, a14, 1
    39cc:	1552d2        	s16i	a13, a2, 42
    39cf:	0c8ab6        	bltui	a10, 8, 39df <NR_vad2+0xe3>
    39d2:	f247f1        	l32r	a15, 2f0 (7730 <wb_score_bands>)
    39d5:	f245e1        	l32r	a14, 2ec (e38e4 <_end+0xdbdf8>)
    39d8:	39aee4        	ae_movpa24x2	aep2, a14, a14
    39db:	000246        	j	39e8 <NR_vad2+0xec>

000039de <NR_vad2+0xe2>:
	...

000039df <NR_vad2+0xe3>:
    39df:	f245f1        	l32r	a15, 2f4 (7770 <nb_score_bands>)
    39e2:	f24581        	l32r	a8, 2f8 (124925 <_end+0x11ce39>)
    39e5:	39a884        	ae_movpa24x2	aep2, a8, a8

000039e8 <NR_vad2+0xec>:
    39e8:	09ed           	mov.n	a14, a9
    39ea:	3c2292        	l32i	a9, a2, 240
    39ed:	fecff2        	addi	a15, a15, -2
    39f0:	0bdd           	mov.n	a13, a11
    39f2:	fe248fc9be 	{ addi	a11, a9, -4; ae_zeroq56	aeq2 }
    39f7:	fc20c0629e 	{ addi	a9, a2, 6; ae_zerop48	aep1 }
    39fc:	224a66        	bnei	a10, 4, 3a22 <NR_vad2+0x126>
    39ff:	604e04        	ae_lq32f.i	aeq1, a14, 0
    3a02:	600d04        	ae_lq32f.i	aeq0, a13, 0
    3a05:	179a76        	loopnez	a10, 3a20 <NR_vad2+0x124>
    3a08:	fa26ecc91f 	{ ae_lp16f.iu	aep4, a9, 2; ae_subq56	aeq2, aeq0, aeq1 }
    3a0d:	0ac484        	ae_cvtq48p24s.l	aeq3, aep4
    3a10:	fab6fd3e1f 	{ ae_lq32f.iu	aeq1, a14, 4; ae_subq56	aeq2, aeq2, aeq3 }
    3a15:	35a074        	ae_sraiq56	aeq2, aeq2, 1
    3a18:	f9d27d1d1f 	{ ae_lq32f.iu	aeq0, a13, 4; ae_truncp24q48x2	aep3, aeq2, aeq2 }
    3a1d:	52bb14        	ae_sp24f.l.iu	aep3, a11, 4

00003a20 <NR_vad2+0x124>:
    3a20:	f01d           	retw.n

00003a22 <NR_vad2+0x126>:
    3a22:	600cf4        	ae_lq32f.i	aeq0, a12, -4
    3a25:	01d282        	addmi	a8, a2, 0x100
    3a28:	c0c882        	addi	a8, a8, -64
    3a2b:	604884        	ae_lq32f.i	aeq1, a8, -32
    3a2e:	259a76        	loopnez	a10, 3a57 <NR_vad2+0x15b>
    3a31:	f826ecd91f 	{ ae_lp16f.iu	aep5, a9, 2; ae_subq56	aeq0, aeq0, aeq1 }
    3a36:	0ac584        	ae_cvtq48p24s.l	aeq3, aep5
    3a39:	098304        	ae_ltq56s	b0, aeq3, aeq0
    3a3c:	f5caac8f1f 	{ ae_lp16f.iu	aep0, a15, 2; ae_mulafq32sp24s.l	aeq2, aeq0, aep2 }
    3a41:	020076        	bf	b0, 3a47 <NR_vad2+0x14b>
    3a44:	079014        	ae_addsp24s	aep1, aep1, aep0

00003a47 <NR_vad2+0x14b>:
    3a47:	f9a6fd1d1f 	{ ae_lq32f.iu	aeq0, a13, 4; ae_subq56	aeq1, aeq0, aeq3 }
    3a4c:	355074        	ae_sraiq56	aeq1, aeq1, 1
    3a4f:	fb4e7d3e1f 	{ ae_lq32f.iu	aeq1, a14, 4; ae_truncp24q48x2	aep7, aeq1, aeq1 }
    3a54:	52fb14        	ae_sp24f.l.iu	aep7, a11, 4

00003a57 <NR_vad2+0x15b>:
    3a57:	408914        	ae_lp16f.iu	aep0, a9, 2
    3a5a:	0ac084        	ae_cvtq48p24s.l	aeq3, aep0
    3a5d:	09a314        	ae_ltq56s	b1, aeq3, aeq2
