
Build/lib/pisplit_xa_aac_dec_position_independent.splitload.lib:     file format elf32-xtensa-le


Disassembly of section .text:

00000000 <_init-0x40c>:
       0:	00010bb0 00010bb4 0000ab40 000109c0     ........@.......
      10:	00009b38 00001260 000021b8 000109e0     8...`....!......
      20:	000009d4 00010b70 0000720c 000008e0     ....p....r......
      30:	000109e4 00000b14 00003ab8 00000778     .........:..x...
      40:	00000e70 00000da4 00000c84 00000e20     p........... ...
      50:	00003898 00000b78 00000dd8 00000618     .8..x...........
      60:	000109f0 000d7450 000b504f 0009837f     ....Pt..OP......
      70:	00080000 0000160c 00001590 00001548     ............H...
      80:	000077d0 00003a7f 007fffff 00800000     .w...:..........
      90:	ff800000 00400000 00004000 000074dc     ......@..@...t..
      a0:	00000ab0 00000450 00003ce8 000109e8     ....P....<......
      b0:	00002728 000029b8 000029f4 0000dc80     ('...)...)......
      c0:	00002898 0000ab70 0000ab74 000109d4     .(..p...t.......
      d0:	000109d0 000109d8 000109dc 00006f60     ............`o..
      e0:	00006f38 00005e20 00000418 00005900     8o.. ^.......Y..
      f0:	00005a34 00001000 00009db0 00000eac     4Z..............
     100:	000017b8 000015b0 00002b44 00002a78     ........D+..x*..
     110:	00005810 00005bc4 000057f4 00005890     .X...[...W...X..
     120:	00004304 00005b54 00004184 00005710     .C..T[...A...W..
     130:	000041b4 000015e4 000040b8 00006fb8     .A.......@...o..
     140:	00005870 00003ff0 00000830 00001010     pX...?..0.......
     150:	00003f4c 00001568 00004010 00001fa8     L?..h....@......
     160:	00001de0 000011b4 000008c0 00001c24     ............$...
     170:	00004498 000055f8 00004348 00004420     .D...U..HC.. D..
     180:	00001d78 000043a8 00005340 0000544c     x....C..@S..LT..
     190:	00005ed8 000025a4 00004c68 00004af4     .^...%..hL...J..
     1a0:	00004ba4 00004590 0000ebc0 00010b30     .K...E......0...
     1b0:	7fffffff 00005f8c 000109ec 0000dc40     ....._......@...
     1c0:	0000ec20 00005560 000056f4 000056b8      ...`U...V...V..
     1d0:	00007104 0000ec30 00005e30 00006ae4     .q..0...0^...j..
     1e0:	00006854 00006ac0 00006a98 0000680c     Th...j...j...h..
     1f0:	000067d0 00000fff 0000f060 000067b0     .g......`....g..
     200:	000067a0 0000ffff 000066c8 80000000     .g.......f......
     210:	0000ee30 000071e8 00006fec 00008005     0....q...o......
     220:	0000f030 000067bc 00006ad8 00005fd8     0....g...j..._..
     230:	000061c4 00009998 000008c2 000010cd     .a..............
     240:	0000f110 00006d20 0000f070 ffff8002     .... m..p.......
     250:	ffff80c4 00007118 00010340 000103c0     .....q..@.......
     260:	00010b68 000035c0 000035a0 00002bb4     h....5...5...+..
     270:	00002b58 000035e8 00003814 0000365c     X+...5...8..\6..
     280:	ffff8000 ffff90c5 000010cb 00008804     ................
     290:	000010cc 000010ca 000107c0 000108b0     ................
     2a0:	00006b0c ffff90c8 ffff90c3 000010c0     .k..............
     2b0:	00007fdc 000088d8 00010800 000010c2     ................
     2c0:	0000985c ffff90c1 00008adc 00002abc     \............*..
     2d0:	00008ab8 000087e8 000010c9 000010c1     ................
     2e0:	ffff88c7 000087c4 0000876c 00008848     ........l...H...
     2f0:	00002b28 000088a0 ffff8003 000008c0     (+..............
     300:	00002b50 000035b0 000008c3 000008c4     P+...5..........
     310:	000008c1 ffff88c3 0000846c ffff88c8     ........l.......
     320:	ffff88c4 ffff88c5 ffff88c9 000008c7     ................
     330:	ffff88cc 00007cff 00007d00 0000f9ff     .....|...}......
     340:	0000fa00 000176ff 00017700 00003e7f     .....v...w...>..
     350:	00003e80 00005dbf 00005dc0 00001f40     .>...]...]..@...
     360:	ffff88c2 00002b10 00002b11 00002ee0     .....+...+......
     370:	0000bb7f 0000bb80 0000ac44 00005622     ........D..."V..
     380:	00015888 ffff8001 00002020 00009b40     .X......  ..@...
     390:	00009b58 00010900 00002b18 000108e0     X........+......
     3a0:	00008c7c 00008d40 000079e4 00008d14     |...@....y......
     3b0:	000079c0 00002a00 0000789c 00010940     .y...*...x..@...
     3c0:	00008d48 00010ba8 00010b80 000084fc     H...............
     3d0:	00008078 000082fc 00010ba0 00008054     x...........T...
     3e0:	000086d8 00007a30 000085d8 00006d20     ....0z...... m..
     3f0:	00008d48 00006c4c 00009498 00002000     H...Ll....... ..
     400:	00006ab4 00008f14 000093f4              .j..........

0000040c <_init>:
     40c:	008136        	entry	a1, 64
     40f:	f01d           	retw.n

00000411 <_init+0x5>:
     411:	00000000 36000000                                .......

00000418 <memcpy>:
     418:	004136        	entry	a1, 32
     41b:	fef981        	l32r	a8, 0 (10bb0 <memcpy_ptr>)
     41e:	04cd           	mov.n	a12, a4
     420:	0888           	l32i.n	a8, a8, 0
     422:	03bd           	mov.n	a11, a3
     424:	02ad           	mov.n	a10, a2
     426:	0008e0        	callx8	a8
     429:	f01d           	retw.n

0000042b <memcpy+0x13>:
	...

0000042c <_start>:
     42c:	004136        	entry	a1, 32
     42f:	0288           	l32i.n	a8, a2, 0
     431:	fef4a1        	l32r	a10, 4 (10bb4 <printf_ptr>)
     434:	fef391        	l32r	a9, 0 (10bb0 <memcpy_ptr>)
     437:	08bd           	mov.n	a11, a8
     439:	0a89           	s32i.n	a8, a10, 0
     43b:	fef3a1        	l32r	a10, 8 (ab40 <_DYNAMIC+0xc84>)
     43e:	12c8           	l32i.n	a12, a2, 4
     440:	09c9           	s32i.n	a12, a9, 0
     442:	0008e0        	callx8	a8
     445:	fef121        	l32r	a2, c (109c0 <export_parameter_array>)
     448:	f01d           	retw.n

0000044a <_start+0x1e>:
     44a:	00000000 a1360000                                ......

00000450 <_Z4Lap2P5fractS0_S0_PKjii>:
     450:	00a136        	entry	a1, 80
     453:	7129           	s32i.n	a2, a1, 28
     455:	8139           	s32i.n	a3, a1, 32
     457:	0216e6        	bgei	a6, 1, 45d <_Z4Lap2P5fractS0_S0_PKjii+0xd>
     45a:	006dc6        	j	615 <_Z4Lap2P5fractS0_S0_PKjii+0x1c5>
     45d:	f8c582        	addi	a8, a5, -8
     460:	a0d740        	addx4	a13, a7, a4
     463:	11b6f0        	slli	a11, a6, 1
     466:	1196e0        	slli	a9, a6, 2
     469:	03ad           	mov.n	a10, a3
     46b:	f61b           	addi.n	a15, a6, 1
     46d:	01f9           	s32i.n	a15, a1, 0
     46f:	a0a6a0        	addx4	a10, a6, a10
     472:	1137f0        	slli	a3, a7, 1
     475:	21e1f0        	srai	a14, a15, 1
     478:	1199           	s32i.n	a9, a1, 4
     47a:	11cbe0        	slli	a12, a11, 2
     47d:	a09620        	addx4	a9, a6, a2
     480:	a0bb50        	addx4	a11, a11, a5
     483:	21c9           	s32i.n	a12, a1, 8
     485:	31e9           	s32i.n	a14, a1, 12
     487:	1133e0        	slli	a3, a3, 2
     48a:	c0dd30        	sub	a13, a13, a3
     48d:	21e1e0        	srai	a14, a14, 1
     490:	c0c430        	sub	a12, a4, a3
     493:	226f17        	bbci	a15, 1, 4b9 <_Z4Lap2P5fractS0_S0_PKjii+0x69>
     496:	54d814        	ae_lp24x2.iu	aep5, a8, 8
     499:	544904        	ae_lp24x2.i	aep4, a9, 0
     49c:	eab1b0baff 	{ ae_lp24x2.iu	aep3, a10, -8; ae_mulfp24s.ll	aeq0, aep4, aep5 }
     4a1:	e8b0f0abff 	{ ae_lp24x2.iu	aep2, a11, -8; ae_mulfp24s.hh	aeq1, aep4, aep5 }
     4a6:	012bb4        	ae_mulsfp24s.ll	aeq1, aep2, aep3
     4a9:	012384        	ae_mulsfp24s.hh	aeq0, aep2, aep3
     4ac:	f8efc0899e 	{ addi	a9, a9, 8; ae_roundsp24q48sym	aep1, aeq1 }
     4b1:	f8e7a81c3f 	{ ae_sp24s.l.xu	aep1, a12, a3; ae_roundsp24q48sym	aep0, aeq0 }
     4b6:	4f8d34        	ae_sp24s.l.xu	aep0, a13, a3

000004b9 <_Z4Lap2P5fractS0_S0_PKjii+0x69>:
     4b9:	085e16        	beqz	a14, 542 <_Z4Lap2P5fractS0_S0_PKjii+0xf2>
     4bc:	543814        	ae_lp24x2.i	aep3, a8, 8
     4bf:	546914        	ae_lp24x2.i	aep6, a9, 8
     4c2:	54f824        	ae_lp24x2.iu	aep7, a8, 16
     4c5:	ebf9b0290f 	{ ae_lp24x2.i	aep2, a9, 0; ae_mulfp24s.ll	aeq2, aep6, aep7 }
     4ca:	ea69b01aff 	{ ae_lp24x2.i	aep1, a10, -8; ae_mulfp24s.ll	aeq0, aep2, aep3 }
     4cf:	e868f00bff 	{ ae_lp24x2.i	aep0, a11, -8; ae_mulfp24s.hh	aeq1, aep2, aep3 }
     4d4:	ee21cffefe 	{ addi	a15, a14, -1; ae_mulsfp24s.ll	aeq1, aep0, aep1 }
     4d9:	ec20b08aef 	{ ae_lp24x2.iu	aep0, a10, -16; ae_mulsfp24s.hh	aeq0, aep0, aep1 }
     4de:	e9f8f09bef 	{ ae_lp24x2.iu	aep1, a11, -16; ae_mulfp24s.hh	aeq3, aep6, aep7 }
     4e3:	ef05c1099e 	{ addi	a9, a9, 16; ae_mulsfp24s.ll	aeq3, aep1, aep0 }
     4e8:	3eaf76        	loopgtz	a15, 52a <_Z4Lap2P5fractS0_S0_PKjii+0xda>
     4eb:	f9eff02aff 	{ ae_lp24x2.i	aep2, a10, -8; ae_roundsp24q48sym	aep3, aeq1 }
     4f0:	ed04b0190f 	{ ae_lp24x2.i	aep1, a9, 0; ae_mulsfp24s.hh	aeq2, aep1, aep0 }
     4f5:	fae7b0081f 	{ ae_lp24x2.i	aep0, a8, 8; ae_roundsp24q48sym	aep4, aeq0 }
     4fa:	f9ffe83c3f 	{ ae_sp24s.l.xu	aep3, a12, a3; ae_roundsp24q48sym	aep3, aeq3 }
     4ff:	e804f0591f 	{ ae_lp24x2.i	aep5, a9, 8; ae_mulfp24s.hh	aeq1, aep1, aep0 }
     504:	faf7a84d3f 	{ ae_sp24s.l.xu	aep4, a13, a3; ae_roundsp24q48sym	aep4, aeq2 }
     509:	ea05b0982f 	{ ae_lp24x2.iu	aep1, a8, 16; ae_mulfp24s.ll	aeq0, aep1, aep0 }
     50e:	eb35a83c3f 	{ ae_sp24s.l.xu	aep3, a12, a3; ae_mulfp24s.ll	aeq2, aep5, aep1 }
     513:	e934f03bff 	{ ae_lp24x2.i	aep3, a11, -8; ae_mulfp24s.hh	aeq3, aep5, aep1 }
     518:	4fcd34        	ae_sp24s.l.xu	aep4, a13, a3
     51b:	ec4cb09bef 	{ ae_lp24x2.iu	aep1, a11, -16; ae_mulsfp24s.hh	aeq0, aep3, aep2 }
     520:	ee4df08aef 	{ ae_lp24x2.iu	aep0, a10, -16; ae_mulsfp24s.ll	aeq1, aep3, aep2 }
     525:	ef05c1099e 	{ addi	a9, a9, 16; ae_mulsfp24s.ll	aeq3, aep1, aep0 }

0000052a <_Z4Lap2P5fractS0_S0_PKjii+0xda>:
     52a:	019084        	ae_mulsfp24s.hh	aeq2, aep1, aep0
     52d:	1b9c74        	ae_roundsp24q48sym	aep7, aeq1
     530:	fbe7a87c3f 	{ ae_sp24s.l.xu	aep7, a12, a3; ae_roundsp24q48sym	aep6, aeq0 }
     535:	faffe86d3f 	{ ae_sp24s.l.xu	aep6, a13, a3; ae_roundsp24q48sym	aep5, aeq3 }
     53a:	faf7a85c3f 	{ ae_sp24s.l.xu	aep5, a12, a3; ae_roundsp24q48sym	aep4, aeq2 }
     53f:	4fcd34        	ae_sp24s.l.xu	aep4, a13, a3

00000542 <_Z4Lap2P5fractS0_S0_PKjii+0xf2>:
     542:	07bd           	mov.n	a11, a7
     544:	81a8           	l32i.n	a10, a1, 32
     546:	1198           	l32i.n	a9, a1, 4
     548:	feb281        	l32r	a8, 10 (9b38 <__mulsi3hifi2>)
     54b:	f8caa2        	addi	a10, a10, -8
     54e:	995a           	add.n	a9, a9, a5
     550:	6199           	s32i.n	a9, a1, 24
     552:	51a9           	s32i.n	a10, a1, 20
     554:	046192        	s32i	a9, a1, 16
     557:	20a660        	or	a10, a6, a6
     55a:	0008e0        	callx8	a8
     55d:	7168           	l32i.n	a6, a1, 28
     55f:	2158           	l32i.n	a5, a1, 8
     561:	01b8           	l32i.n	a11, a1, 0
     563:	feab81        	l32r	a8, 10 (9b38 <__mulsi3hifi2>)
     566:	556a           	add.n	a5, a5, a6
     568:	a06a40        	addx4	a6, a10, a4
     56b:	07ad           	mov.n	a10, a7
     56d:	0008e0        	callx8	a8
     570:	c06630        	sub	a6, a6, a3
     573:	a0da40        	addx4	a13, a10, a4
     576:	54d5f4        	ae_lp24x2.iu	aep5, a5, -8
     579:	41f8           	l32i.n	a15, a1, 16
     57b:	5198           	l32i.n	a9, a1, 20
     57d:	6188           	l32i.n	a8, a1, 24
     57f:	546f04        	ae_lp24x2.i	aep6, a15, 0
     582:	e9d5b0c91f 	{ ae_lp24x2.iu	aep4, a9, 8; ae_mulfp24s.lh	aeq2, aep5, aep6 }
     587:	ebd4f0b8ff 	{ ae_lp24x2.iu	aep3, a8, -8; ae_mulfp24s.hl	aeq3, aep5, aep6 }
     58c:	e38f55dd3f 	{ sub	a13, a13, a3; ae_mulafp24s.hl	aeq3, aep3, aep4 }
     591:	e38e808ffe 	{ addi	a15, a15, 8; ae_mulafp24s.lh	aeq2, aep3, aep4 }
     596:	f8ffd4618f 	{ s32i.n	a8, a1, 24; ae_roundsp24q48sym	aep1, aeq3 }
     59b:	f9f7b0318e 	{ l32i	a8, a1, 12; ae_roundsp24q48sym	aep2, aeq2 }
     5a0:	fc581441ff 	{ s32i.n	a15, a1, 16; ae_negsp24s	aep0, aep2 }
     5a5:	fe3828063f 	{ ae_sp24s.l.xu	aep0, a6, a3; ae_negsp24s	aep4, aep1 }
     5aa:	6228a6        	blti	a8, 2, 610 <_Z4Lap2P5fractS0_S0_PKjii+0x1c0>
     5ad:	5495f4        	ae_lp24x2.iu	aep1, a5, -8
     5b0:	61b8           	l32i.n	a11, a1, 24
     5b2:	41a8           	l32i.n	a10, a1, 16
     5b4:	fec8f2        	addi	a15, a8, -2
     5b7:	54bbf4        	ae_lp24x2.iu	aep3, a11, -8
     5ba:	540a04        	ae_lp24x2.i	aep0, a10, 0
     5bd:	8a8b           	addi.n	a8, a10, 8
     5bf:	09ad           	mov.n	a10, a9
     5c1:	e805b0aa1f 	{ ae_lp24x2.iu	aep2, a10, 8; ae_mulfp24s.lh	aeq0, aep1, aep0 }
     5c6:	25af76        	loopgtz	a15, 5ef <_Z4Lap2P5fractS0_S0_PKjii+0x19f>
     5c9:	e24e80888e 	{ addi	a8, a8, 8; ae_mulafp24s.lh	aeq0, aep3, aep2 }
     5ce:	ea04e84d3f 	{ ae_sp24s.l.xu	aep4, a13, a3; ae_mulfp24s.hl	aeq1, aep1, aep0 }
     5d3:	e24f7095ff 	{ ae_lp24x2.iu	aep1, a5, -8; ae_mulafp24s.hl	aeq1, aep3, aep2 }
     5d8:	f9e7f008ff 	{ ae_lp24x2.i	aep0, a8, -8; ae_roundsp24q48sym	aep3, aeq0 }
     5dd:	fe7830bbff 	{ ae_lp24x2.iu	aep3, a11, -8; ae_negsp24s	aep4, aep3 }
     5e2:	faefa8463f 	{ ae_sp24s.l.xu	aep4, a6, a3; ae_roundsp24q48sym	aep4, aeq1 }
     5e7:	e805b0aa1f 	{ ae_lp24x2.iu	aep2, a10, 8; ae_mulfp24s.lh	aeq0, aep1, aep0 }
     5ec:	078c44        	ae_negsp24s	aep4, aep4

000005ef <_Z4Lap2P5fractS0_S0_PKjii+0x19f>:
     5ef:	011854        	ae_mulfp24s.hl	aeq1, aep1, aep0
     5f2:	013a14        	ae_mulafp24s.hl	aeq1, aep3, aep2
     5f5:	013224        	ae_mulafp24s.lh	aeq0, aep3, aep2
     5f8:	1b9c74        	ae_roundsp24q48sym	aep7, aeq1
     5fb:	f8e7e84d3f 	{ ae_sp24s.l.xu	aep4, a13, a3; ae_roundsp24q48sym	aep1, aeq0 }
     600:	fc3813c66f 	{ or	a12, a6, a6; ae_negsp24s	aep0, aep1 }
     605:	fef8280c3f 	{ ae_sp24s.l.xu	aep0, a12, a3; ae_negsp24s	aep4, aep7 }
     60a:	4fcd34        	ae_sp24s.l.xu	aep4, a13, a3
     60d:	f01d           	retw.n

0000060f <_Z4Lap2P5fractS0_S0_PKjii+0x1bf>:
	...

00000610 <_Z4Lap2P5fractS0_S0_PKjii+0x1c0>:
     610:	4fcd34        	ae_sp24s.l.xu	aep4, a13, a3
     613:	f01d           	retw.n

00000615 <_Z4Lap2P5fractS0_S0_PKjii+0x1c5>:
     615:	f01d           	retw.n

00000617 <_Z4Lap2P5fractS0_S0_PKjii+0x1c7>:
	...

00000618 <_Z4Lap1P5fractS0_S0_PKjii>:
     618:	00a136        	entry	a1, 80
     61b:	7129           	s32i.n	a2, a1, 28
     61d:	0216e6        	bgei	a6, 1, 623 <_Z4Lap1P5fractS0_S0_PKjii+0xb>
     620:	005406        	j	774 <_Z4Lap1P5fractS0_S0_PKjii+0x15c>
     623:	a0a630        	addx4	a10, a6, a3
     626:	f61b           	addi.n	a15, a6, 1
     628:	11d6e0        	slli	a13, a6, 2
     62b:	11b6f0        	slli	a11, a6, 1
     62e:	a09620        	addx4	a9, a6, a2
     631:	f8c582        	addi	a8, a5, -8
     634:	11e7f0        	slli	a14, a7, 1
     637:	11eee0        	slli	a14, a14, 2
     63a:	54e814        	ae_lp24x2.iu	aep6, a8, 8
     63d:	545904        	ae_lp24x2.i	aep5, a9, 0
     640:	11cbe0        	slli	a12, a11, 2
     643:	11d9           	s32i.n	a13, a1, 4
     645:	01f9           	s32i.n	a15, a1, 0
     647:	a0d740        	addx4	a13, a7, a4
     64a:	21f1f0        	srai	a15, a15, 1
     64d:	a0bb50        	addx4	a11, a11, a5
     650:	e8d4f0caff 	{ ae_lp24x2.iu	aep4, a10, -8; ae_mulfp24s.hh	aeq1, aep5, aep6 }
     655:	ead5b0bbff 	{ ae_lp24x2.iu	aep3, a11, -8; ae_mulfp24s.ll	aeq0, aep5, aep6 }
     65a:	013484        	ae_mulsfp24s.hh	aeq0, aep3, aep4
     65d:	ee8dd421cf 	{ s32i.n	a12, a1, 8; ae_mulsfp24s.ll	aeq1, aep3, aep4 }
     662:	f8e79431ff 	{ s32i.n	a15, a1, 12; ae_roundsp24q48sym	aep0, aeq0 }
     667:	f9ef95ddef 	{ sub	a13, a13, a14; ae_roundsp24q48sym	aep2, aeq1 }
     66c:	c80ad5c4ef 	{ sub	a12, a4, a14; ae_sllisp24s	aep1, aep2, 1 }
     671:	ca02a69cef 	{ ae_sp24f.l.xu	aep1, a12, a14; ae_sllisp24s	aep4, aep0, 1 }
     676:	552fa6        	blti	a15, 2, 6cf <_Z4Lap1P5fractS0_S0_PKjii+0xb7>
     679:	54aaf4        	ae_lp24x2.iu	aep2, a10, -8
     67c:	54bbf4        	ae_lp24x2.iu	aep3, a11, -8
     67f:	fecff2        	addi	a15, a15, -2
     682:	548814        	ae_lp24x2.iu	aep0, a8, 8
     685:	541914        	ae_lp24x2.i	aep1, a9, 8
     688:	e80481099e 	{ addi	a9, a9, 16; ae_mulfp24s.hh	aeq0, aep1, aep0 }
     68d:	25af76        	loopgtz	a15, 6b6 <_Z4Lap1P5fractS0_S0_PKjii+0x9e>
     690:	ee4d80899e 	{ addi	a9, a9, 8; ae_mulsfp24s.ll	aeq0, aep3, aep2 }
     695:	ea05e6cdef 	{ ae_sp24f.l.xu	aep4, a13, a14; ae_mulfp24s.ll	aeq1, aep1, aep0 }
     69a:	ec4cf019ff 	{ ae_lp24x2.i	aep1, a9, -8; ae_mulsfp24s.hh	aeq1, aep3, aep2 }
     69f:	f9e7f0881f 	{ ae_lp24x2.iu	aep0, a8, 8; ae_roundsp24q48sym	aep3, aeq0 }
     6a4:	ca0eb0bbff 	{ ae_lp24x2.iu	aep3, a11, -8; ae_sllisp24s	aep4, aep3, 1 }
     6a9:	faefa6ccef 	{ ae_sp24f.l.xu	aep4, a12, a14; ae_roundsp24q48sym	aep4, aeq1 }
     6ae:	e804b0aaff 	{ ae_lp24x2.iu	aep2, a10, -8; ae_mulfp24s.hh	aeq0, aep1, aep0 }
     6b3:	0bc0c4        	ae_sllisp24s	aep4, aep4, 1

000006b6 <_Z4Lap1P5fractS0_S0_PKjii+0x9e>:
     6b6:	019074        	ae_mulfp24s.ll	aeq2, aep1, aep0
     6b9:	01b284        	ae_mulsfp24s.hh	aeq2, aep3, aep2
     6bc:	0132b4        	ae_mulsfp24s.ll	aeq0, aep3, aep2
     6bf:	1bac74        	ae_roundsp24q48sym	aep7, aeq2
     6c2:	1b8c14        	ae_roundsp24q48sym	aep1, aeq0
     6c5:	c806a6cdef 	{ ae_sp24f.l.xu	aep4, a13, a14; ae_sllisp24s	aep0, aep1, 1 }
     6ca:	ca1ea68cef 	{ ae_sp24f.l.xu	aep0, a12, a14; ae_sllisp24s	aep4, aep7, 1 }

000006cf <_Z4Lap1P5fractS0_S0_PKjii+0xb7>:
     6cf:	81e9           	s32i.n	a14, a1, 32
     6d1:	53cde4        	ae_sp24f.l.xu	aep4, a13, a14
     6d4:	07bd           	mov.n	a11, a7
     6d6:	fe4e81        	l32r	a8, 10 (9b38 <__mulsi3hifi2>)
     6d9:	f8c3a2        	addi	a10, a3, -8
     6dc:	1198           	l32i.n	a9, a1, 4
     6de:	51a9           	s32i.n	a10, a1, 20
     6e0:	06ad           	mov.n	a10, a6
     6e2:	809950        	add	a9, a9, a5
     6e5:	066192        	s32i	a9, a1, 24
     6e8:	046192        	s32i	a9, a1, 16
     6eb:	0008e0        	callx8	a8
     6ee:	8138           	l32i.n	a3, a1, 32
     6f0:	7168           	l32i.n	a6, a1, 28
     6f2:	2158           	l32i.n	a5, a1, 8
     6f4:	01b8           	l32i.n	a11, a1, 0
     6f6:	fe4681        	l32r	a8, 10 (9b38 <__mulsi3hifi2>)
     6f9:	556a           	add.n	a5, a5, a6
     6fb:	a06a40        	addx4	a6, a10, a4
     6fe:	07ad           	mov.n	a10, a7
     700:	0008e0        	callx8	a8
     703:	54e5f4        	ae_lp24x2.iu	aep6, a5, -8
     706:	4188           	l32i.n	a8, a1, 16
     708:	a0da40        	addx4	a13, a10, a4
     70b:	61b8           	l32i.n	a11, a1, 24
     70d:	51a8           	l32i.n	a10, a1, 20
     70f:	547804        	ae_lp24x2.i	aep7, a8, 0
     712:	ebf8f0cbff 	{ ae_lp24x2.iu	aep4, a11, -8; ae_mulfp24s.hl	aeq3, aep6, aep7 }
     717:	e8f9b0da1f 	{ ae_lp24x2.iu	aep5, a10, 8; ae_mulfp24s.lh	aeq0, aep6, aep7 }
     71c:	e2b2b031fe 	{ l32i	a15, a1, 12; ae_mulafp24s.lh	aeq0, aep4, aep5 }
     721:	e3b355c63f 	{ sub	a12, a6, a3; ae_mulafp24s.hl	aeq3, aep4, aep5 }
     726:	f9e795dd3f 	{ sub	a13, a13, a3; ae_roundsp24q48sym	aep2, aeq0 }
     72b:	f9ffcffffe 	{ addi	a15, a15, -1; ae_roundsp24q48sym	aep3, aeq3 }
     730:	fc7840888e 	{ addi	a8, a8, 8; ae_negsp24s	aep1, aep3 }
     735:	2baf76        	loopgtz	a15, 764 <_Z4Lap1P5fractS0_S0_PKjii+0x14c>
     738:	fd5830080f 	{ ae_lp24x2.i	aep0, a8, 0; ae_negsp24s	aep2, aep2 }
     73d:	ca06f095ff 	{ ae_lp24x2.iu	aep1, a5, -8; ae_sllisp24s	aep5, aep1, 1 }
     742:	ca0ab0aa1f 	{ ae_lp24x2.iu	aep2, a10, 8; ae_sllisp24s	aep4, aep2, 1 }
     747:	e805f0bbff 	{ ae_lp24x2.iu	aep3, a11, -8; ae_mulfp24s.lh	aeq1, aep1, aep0 }
     74c:	ea04a6cc3f 	{ ae_sp24f.l.xu	aep4, a12, a3; ae_mulfp24s.hl	aeq0, aep1, aep0 }
     751:	e24f00888e 	{ addi	a8, a8, 8; ae_mulafp24s.hl	aeq0, aep3, aep2 }
     756:	e24ee6dd3f 	{ ae_sp24f.l.xu	aep5, a13, a3; ae_mulafp24s.lh	aeq1, aep3, aep2 }
     75b:	1b8c04        	ae_roundsp24q48sym	aep0, aeq0
     75e:	1b9c24        	ae_roundsp24q48sym	aep2, aeq1
     761:	078814        	ae_negsp24s	aep1, aep0

00000764 <_Z4Lap1P5fractS0_S0_PKjii+0x14c>:
     764:	078a34        	ae_negsp24s	aep3, aep2
     767:	0bb0a4        	ae_sllisp24s	aep2, aep3, 1
     76a:	c806a6ac3f 	{ ae_sp24f.l.xu	aep2, a12, a3; ae_sllisp24s	aep0, aep1, 1 }
     76f:	538d34        	ae_sp24f.l.xu	aep0, a13, a3
     772:	f01d           	retw.n

00000774 <_Z4Lap1P5fractS0_S0_PKjii+0x15c>:
     774:	f01d           	retw.n

00000776 <_Z4Lap1P5fractS0_S0_PKjii+0x15e>:
	...

00000778 <_Z10Lap1_shortP5fractS0_PsPKjii>:
     778:	008136        	entry	a1, 64
     77b:	7129           	s32i.n	a2, a1, 28
     77d:	0216e6        	bgei	a6, 1, 783 <_Z10Lap1_shortP5fractS0_PsPKjii+0xb>
     780:	004dc6        	j	8bb <_Z10Lap1_shortP5fractS0_PsPKjii+0x143>
     783:	f61b           	addi.n	a15, a6, 1
     785:	11b6f0        	slli	a11, a6, 1
     788:	f8c582        	addi	a8, a5, -8
     78b:	a0a630        	addx4	a10, a6, a3
     78e:	a0d620        	addx4	a13, a6, a2
     791:	11e7f0        	slli	a14, a7, 1
     794:	11eef0        	slli	a14, a14, 1
     797:	9d8b           	addi.n	a9, a13, 8
     799:	54aaf4        	ae_lp24x2.iu	aep2, a10, -8
     79c:	54c814        	ae_lp24x2.iu	aep4, a8, 8
     79f:	543d04        	ae_lp24x2.i	aep3, a13, 0
     7a2:	11cbe0        	slli	a12, a11, 2
     7a5:	11f9           	s32i.n	a15, a1, 4
     7a7:	1126e0        	slli	a2, a6, 2
     7aa:	0129           	s32i.n	a2, a1, 0
     7ac:	21f1f0        	srai	a15, a15, 1
     7af:	a0bb50        	addx4	a11, a11, a5
     7b2:	ea8d9431cf 	{ s32i.n	a12, a1, 12; ae_mulfp24s.ll	aeq0, aep3, aep4 }
     7b7:	e88cf09bff 	{ ae_lp24x2.iu	aep1, a11, -8; ae_mulfp24s.hh	aeq1, aep3, aep4 }
     7bc:	ee45d441ff 	{ s32i.n	a15, a1, 16; ae_mulsfp24s.ll	aeq1, aep1, aep2 }
     7c1:	ec4491d74f 	{ addx2	a13, a7, a4; ae_mulsfp24s.hh	aeq0, aep1, aep2 }
     7c6:	f9ef95c4ef 	{ sub	a12, a4, a14; ae_roundsp24q48sym	aep2, aeq1 }
     7cb:	f8e795ddef 	{ sub	a13, a13, a14; ae_roundsp24q48sym	aep0, aeq0 }
     7d0:	c802cffffe 	{ addi	a15, a15, -1; ae_sllisp24s	aep1, aep0, 1 }
     7d5:	2baf76        	loopgtz	a15, 804 <_Z10Lap1_shortP5fractS0_PsPKjii+0x8c>
     7d8:	c90ab0881f 	{ ae_lp24x2.iu	aep0, a8, 8; ae_sllisp24s	aep2, aep2, 1 }
     7dd:	fa07f0190f 	{ ae_lp24x2.i	aep1, a9, 0; ae_roundsp16sym	aep5, aep1 }
     7e2:	fa0bb0aaff 	{ ae_lp24x2.iu	aep2, a10, -8; ae_roundsp16sym	aep4, aep2 }
     7e7:	e804f0bbff 	{ ae_lp24x2.iu	aep3, a11, -8; ae_mulfp24s.hh	aeq1, aep1, aep0 }
     7ec:	ea05a3ccef 	{ ae_sp16f.l.xu	aep4, a12, a14; ae_mulfp24s.ll	aeq0, aep1, aep0 }
     7f1:	ec4c80899e 	{ addi	a9, a9, 8; ae_mulsfp24s.hh	aeq0, aep3, aep2 }
     7f6:	ee4de3ddef 	{ ae_sp16f.l.xu	aep5, a13, a14; ae_mulsfp24s.ll	aeq1, aep3, aep2 }
     7fb:	1b8c04        	ae_roundsp24q48sym	aep0, aeq0
     7fe:	1b9c24        	ae_roundsp24q48sym	aep2, aeq1
     801:	0b8094        	ae_sllisp24s	aep1, aep0, 1

00000804 <_Z10Lap1_shortP5fractS0_PsPKjii+0x8c>:
     804:	21e9           	s32i.n	a14, a1, 8
     806:	07bd           	mov.n	a11, a7
     808:	fe0281        	l32r	a8, 10 (9b38 <__mulsi3hifi2>)
     80b:	0198           	l32i.n	a9, a1, 0
     80d:	f8c3a2        	addi	a10, a3, -8
     810:	51a9           	s32i.n	a10, a1, 20
     812:	cb0ad3a66f 	{ or	a10, a6, a6; ae_sllisp24s	aep7, aep2, 1 }
     817:	fb1f90995f 	{ add	a9, a9, a5; ae_roundsp16sym	aep6, aep7 }
     81c:	fa07e3ecef 	{ ae_sp16f.l.xu	aep6, a12, a14; ae_roundsp16sym	aep5, aep1 }
     821:	43dde4        	ae_sp16f.l.xu	aep5, a13, a14
     824:	6199           	s32i.n	a9, a1, 24
     826:	096d           	mov.n	a6, a9
     828:	0008e0        	callx8	a8
     82b:	7158           	l32i.n	a5, a1, 28
     82d:	3138           	l32i.n	a3, a1, 12
     82f:	11b8           	l32i.n	a11, a1, 4
     831:	fdf781        	l32r	a8, 10 (9b38 <__mulsi3hifi2>)
     834:	335a           	add.n	a3, a3, a5
     836:	905a40        	addx2	a5, a10, a4
     839:	07ad           	mov.n	a10, a7
     83b:	0008e0        	callx8	a8
     83e:	41f8           	l32i.n	a15, a1, 16
     840:	21e8           	l32i.n	a14, a1, 8
     842:	61b8           	l32i.n	a11, a1, 24
     844:	90da40        	addx2	a13, a10, a4
     847:	543604        	ae_lp24x2.i	aep3, a6, 0
     84a:	51a8           	l32i.n	a10, a1, 20
     84c:	54a3f4        	ae_lp24x2.iu	aep2, a3, -8
     84f:	e969b08bff 	{ ae_lp24x2.iu	aep0, a11, -8; ae_mulfp24s.lh	aeq2, aep2, aep3 }
     854:	eb68f09a1f 	{ ae_lp24x2.iu	aep1, a10, 8; ae_mulfp24s.hl	aeq3, aep2, aep3 }
     859:	e32340868e 	{ addi	a8, a6, 8; ae_mulafp24s.hl	aeq3, aep0, aep1 }
     85e:	e32295c5ef 	{ sub	a12, a5, a14; ae_mulafp24s.lh	aeq2, aep0, aep1 }
     863:	f9ffcffffe 	{ addi	a15, a15, -1; ae_roundsp24q48sym	aep3, aeq3 }
     868:	f8f795ddef 	{ sub	a13, a13, a14; ae_roundsp24q48sym	aep0, aeq2 }
     86d:	31af76        	loopgtz	a15, 8a2 <_Z10Lap1_shortP5fractS0_PsPKjii+0x12a>

00000870 <_Z10Lap1_shortP5fractS0_PsPKjii+0xf8>:
     870:	fc1870080f 	{ ae_lp24x2.i	aep0, a8, 0; ae_negsp24s	aep1, aep0 }
     875:	078b34        	ae_negsp24s	aep3, aep3
     878:	ca06b093ff 	{ ae_lp24x2.iu	aep1, a3, -8; ae_sllisp24s	aep4, aep1, 1 }
     87d:	ea04f0abff 	{ ae_lp24x2.iu	aep2, a11, -8; ae_mulfp24s.hl	aeq1, aep1, aep0 }
     882:	0940c4        	ae_roundsp16sym	aep4, aep4
     885:	e805b08a1f 	{ ae_lp24x2.iu	aep0, a10, 8; ae_mulfp24s.lh	aeq0, aep1, aep0 }
     88a:	c80ee3ccef 	{ ae_sp16f.l.xu	aep4, a12, a14; ae_sllisp24s	aep1, aep3, 1 }
     88f:	e20a80888e 	{ addi	a8, a8, 8; ae_mulafp24s.lh	aeq0, aep2, aep0 }
     894:	091094        	ae_roundsp16sym	aep1, aep1
     897:	e20b639def 	{ ae_sp16f.l.xu	aep1, a13, a14; ae_mulafp24s.hl	aeq1, aep2, aep0 }
     89c:	1b8c04        	ae_roundsp24q48sym	aep0, aeq0
     89f:	1b9c34        	ae_roundsp24q48sym	aep3, aeq1

000008a2 <_Z10Lap1_shortP5fractS0_PsPKjii+0x12a>:
     8a2:	078804        	ae_negsp24s	aep0, aep0
     8a5:	078b14        	ae_negsp24s	aep1, aep3
     8a8:	0b90d4        	ae_sllisp24s	aep5, aep1, 1
     8ab:	0b80f4        	ae_sllisp24s	aep7, aep0, 1
     8ae:	0970e4        	ae_roundsp16sym	aep6, aep7
     8b1:	fa17a3ecef 	{ ae_sp16f.l.xu	aep6, a12, a14; ae_roundsp16sym	aep4, aep5 }
     8b6:	43cde4        	ae_sp16f.l.xu	aep4, a13, a14
     8b9:	f01d           	retw.n

000008bb <_Z10Lap1_shortP5fractS0_PsPKjii+0x143>:
     8bb:	f01d           	retw.n

000008bd <_Z10Lap1_shortP5fractS0_PsPKjii+0x145>:
     8bd:	000000                                        ...

000008c0 <_Z10ApplyToolsPP28CAacDecoderStaticChannelInfoPP22CAacDecoderChannelInfoi>:
     8c0:	004136        	entry	a1, 32
     8c3:	02ad           	mov.n	a10, a2
     8c5:	fdd381        	l32r	a8, 14 (1260 <_Z10CPns_ApplyPP28CAacDecoderStaticChannelInfoPP22CAacDecoderChannelInfoi>)
     8c8:	03bd           	mov.n	a11, a3
     8ca:	20c440        	or	a12, a4, a4
     8cd:	0008e0        	callx8	a8
     8d0:	fdd281        	l32r	a8, 18 (21b8 <_Z10CTns_ApplyP22CAacDecoderChannelInfo>)
     8d3:	a0a430        	addx4	a10, a4, a3
     8d6:	0aa8           	l32i.n	a10, a10, 0
     8d8:	0008e0        	callx8	a8
     8db:	f01d           	retw.n

000008dd <_Z10ApplyToolsPP28CAacDecoderStaticChannelInfoPP22CAacDecoderChannelInfoi+0x1d>:
     8dd:	000000                                        ...

000008e0 <_Z14postModulationP5fractiPKS_iiPiS3_>:
     8e0:	004136        	entry	a1, 32
     8e3:	81f8           	l32i.n	a15, a1, 32
     8e5:	4c3404        	ae_lp24.i	aep3, a4, 0
     8e8:	07ad           	mov.n	a10, a7
     8ea:	a0b640        	addx4	a11, a6, a4
     8ed:	933b           	addi.n	a9, a3, 3
     8ef:	002782        	l32i	a8, a7, 0
     8f2:	031684        	wur.ae_sar	a8
     8f5:	b39330        	movgez	a9, a3, a3
     8f8:	4c2b04        	ae_lp24.i	aep2, a11, 0
     8fb:	dd6a300aee 	{ l32i	a14, a10, 0; ae_selp24.ll	aep2, aep2, aep3 }
     900:	216290        	srai	a6, a9, 2
     903:	0216e6        	bgei	a6, 1, 909 <_Z14postModulationP5fractiPKS_iiPiS3_+0x29>
     906:	003086        	j	9cc <_Z14postModulationP5fractiPKS_iiPiS3_+0xec>
     909:	20c660        	or	a12, a6, a6
     90c:	a03320        	addx4	a3, a3, a2
     90f:	1165e0        	slli	a6, a5, 2
     912:	2181c0        	srai	a8, a12, 1
     915:	f8c252        	addi	a5, a2, -8
     918:	607060        	neg	a7, a6
     91b:	366927        	bbci	a9, 2, 955 <_Z14postModulationP5fractiPKS_iiPiS3_+0x75>
     91e:	544204        	ae_lp24x2.i	aep4, a2, 0
     921:	f65061b46f 	{ ae_lp24.xu	aep3, a4, a6; ae_mulzasfp24s.hl.lh	aeq1, aep4, aep2 }
     926:	f152e1ab7f 	{ ae_lp24.xu	aep2, a11, a7; ae_mulzaafp24s.hh.ll	aeq3, aep4, aep2 }
     92b:	dd6a3073ff 	{ ae_lp24x2.i	aep7, a3, -8; ae_selp24.ll	aep2, aep2, aep3 }
     930:	047214        	ae_mulzaafp24s.hl.lh	aeq0, aep7, aep2
     933:	f55c3f79ff 	{ ae_srasq56	aeq3, aeq3; ae_mulzasfp24s.hh.ll	aeq2, aep7, aep2 }
     938:	faffff493f 	{ ae_srasq56	aeq0, aeq0; ae_roundsp24q48sym	aep5, aeq3 }
     93d:	fae7bf69bf 	{ ae_srasq56	aeq2, aeq2; ae_roundsp24q48sym	aep4, aeq0 }
     942:	1bac64        	ae_roundsp24q48sym	aep6, aeq2
     945:	ded67f597f 	{ ae_srasq56	aeq1, aeq1; ae_selp24.ll	aep5, aep5, aep6 }
     94a:	1b9c64        	ae_roundsp24q48sym	aep6, aeq1
     94d:	ded237d51f 	{ ae_sp24x2s.iu	aep5, a5, 8; ae_selp24.ll	aep4, aep4, aep6 }
     952:	56c3f4        	ae_sp24x2s.iu	aep4, a3, -8

00000955 <_Z14postModulationP5fractiPKS_iiPiS3_+0x75>:
     955:	03dd           	mov.n	a13, a3
     957:	052d           	mov.n	a2, a5
     959:	043d           	mov.n	a3, a4
     95b:	0d5d           	mov.n	a5, a13
     95d:	6ba876        	loopgtz	a8, 9cc <_Z14postModulationP5fractiPKS_iiPiS3_+0xec>
     960:	540214        	ae_lp24x2.i	aep0, a2, 8
     963:	f64021936f 	{ ae_lp24.xu	aep1, a3, a6; ae_mulzasfp24s.hl.lh	aeq0, aep0, aep2 }
     968:	f042e18b7f 	{ ae_lp24.xu	aep0, a11, a7; ae_mulzaafp24s.hh.ll	aeq1, aep0, aep2 }
     96d:	dc227005ff 	{ ae_lp24x2.i	aep0, a5, -8; ae_selp24.ll	aep1, aep0, aep1 }
     972:	f52021a36f 	{ ae_lp24.xu	aep2, a3, a6; ae_mulzasfp24s.hh.ll	aeq2, aep0, aep1 }
     977:	f322e18b7f 	{ ae_lp24.xu	aep0, a11, a7; ae_mulzaafp24s.hl.lh	aeq3, aep0, aep1 }
     97c:	dd423f597f 	{ ae_srasq56	aeq1, aeq1; ae_selp24.ll	aep2, aep0, aep2 }
     981:	f8efbf493f 	{ ae_srasq56	aeq0, aeq0; ae_roundsp24q48sym	aep0, aeq1 }
     986:	fae7bf693f 	{ ae_srasq56	aeq0, aeq2; ae_roundsp24q48sym	aep4, aeq0 }
     98b:	f9e7ff793f 	{ ae_srasq56	aeq0, aeq3; ae_roundsp24q48sym	aep3, aeq0 }
     990:	1a8304        	ae_selp24.ll	aep0, aep0, aep3
     993:	f8e7b7021f 	{ ae_sp24x2s.i	aep0, a2, 8; ae_roundsp24q48sym	aep0, aeq0 }
     998:	de823005ef 	{ ae_lp24x2.i	aep0, a5, -16; ae_selp24.ll	aep4, aep0, aep4 }
     99d:	f4403745ff 	{ ae_sp24x2s.i	aep4, a5, -8; ae_mulzasfp24s.hh.ll	aeq0, aep0, aep2 }
     9a2:	f242f0022f 	{ ae_lp24x2.i	aep0, a2, 16; ae_mulzaafp24s.hl.lh	aeq1, aep0, aep2 }
     9a7:	f7203f493f 	{ ae_srasq56	aeq0, aeq0; ae_mulzasfp24s.hl.lh	aeq2, aep0, aep1 }
     9ac:	f122ff597f 	{ ae_srasq56	aeq1, aeq1; ae_mulzaafp24s.hh.ll	aeq3, aep0, aep1 }
     9b1:	f8e7bf693f 	{ ae_srasq56	aeq0, aeq2; ae_roundsp24q48sym	aep0, aeq0 }
     9b6:	f8efff797f 	{ ae_srasq56	aeq1, aeq3; ae_roundsp24q48sym	aep1, aeq1 }
     9bb:	1b9c44        	ae_roundsp24q48sym	aep4, aeq1
     9be:	1b8c34        	ae_roundsp24q48sym	aep3, aeq0
     9c1:	1ac004        	ae_selp24.ll	aep0, aep4, aep0
     9c4:	dc6637822f 	{ ae_sp24x2s.iu	aep0, a2, 16; ae_selp24.ll	aep0, aep1, aep3 }
     9c9:	5685e4        	ae_sp24x2s.iu	aep0, a5, -16

000009cc <_Z14postModulationP5fractiPKS_iiPiS3_+0xec>:
     9cc:	0f28           	l32i.n	a2, a15, 0
     9ce:	ee2a           	add.n	a14, a14, a2
     9d0:	0fe9           	s32i.n	a14, a15, 0
     9d2:	f01d           	retw.n

000009d4 <_Z13preModulationP5fractiPKjPiS3_>:
     9d4:	004136        	entry	a1, 32
     9d7:	069d           	mov.n	a9, a6
     9d9:	058d           	mov.n	a8, a5
     9db:	fe20c0335e 	{ addi	a5, a3, 3; ae_zerop48	aep5 }
     9e0:	b35330        	movgez	a5, a3, a3
     9e3:	215250        	srai	a5, a5, 2
     9e6:	0215e6        	bgei	a5, 1, 9ec <_Z13preModulationP5fractiPKjPiS3_+0x18>
     9e9:	002746        	j	a8a <_Z13preModulationP5fractiPKjPiS3_+0xb6>
     9ec:	f8c472        	addi	a7, a4, -8
     9ef:	a0a340        	addx4	a10, a3, a4
     9f2:	547204        	ae_lp24x2.i	aep7, a2, 0
     9f5:	a04320        	addx4	a4, a3, a2
     9f8:	5444f4        	ae_lp24x2.i	aep4, a4, -8
     9fb:	dd9cb0e71f 	{ ae_lp24x2.iu	aep6, a7, 8; ae_selp24.hl	aep2, aep7, aep4 }
     a00:	def0b0faff 	{ ae_lp24x2.iu	aep7, a10, -8; ae_selp24.hl	aep4, aep4, aep7 }
     a05:	1af6b4        	ae_selp24.lh	aep3, aep7, aep6
     a08:	04a324        	ae_mulzaap24s.hh.ll	aeq2, aep2, aep3
     a0b:	04abb4        	ae_mulzsap24s.hl.lh	aeq3, aep2, aep3
     a0e:	1ae7e4        	ae_selp24.lh	aep6, aep6, aep7
     a11:	044624        	ae_mulzaap24s.hh.ll	aeq0, aep4, aep6
     a14:	044eb4        	ae_mulzsap24s.hl.lh	aeq1, aep4, aep6
     a17:	1bbc14        	ae_roundsp24q48sym	aep1, aeq3
     a1a:	f8f78ff56e 	{ addi	a6, a5, -1; ae_roundsp24q48sym	aep0, aeq2 }
     a1f:	f9ef8f82be 	{ addi	a11, a2, -8; ae_roundsp24q48sym	aep2, aeq1 }
     a24:	dc2213277f 	{ or	a2, a7, a7; ae_selp24.ll	aep0, aep0, aep1 }
     a29:	fc00378b1f 	{ ae_sp24x2s.iu	aep0, a11, 8; ae_absp24	aep0, aep0 }
     a2e:	f8e7d33aaf 	{ or	a3, a10, a10; ae_roundsp24q48sym	aep1, aeq0 }
     a33:	dc46535bbf 	{ or	a5, a11, a11; ae_selp24.ll	aep1, aep1, aep2 }
     a38:	fc207794ff 	{ ae_sp24x2s.iu	aep1, a4, -8; ae_absp24	aep1, aep1 }
     a3d:	41a676        	loopgtz	a6, a82 <_Z13preModulationP5fractiPKjPiS3_+0xae>
     a40:	dc2070821f 	{ ae_lp24x2.iu	aep0, a2, 8; ae_orp48	aep1, aep0, aep1 }
     a45:	dea47093ff 	{ ae_lp24x2.iu	aep1, a3, -8; ae_orp48	aep5, aep1, aep5 }
     a4a:	dd05f024ff 	{ ae_lp24x2.i	aep2, a4, -8; ae_selp24.lh	aep3, aep1, aep0 }
     a4f:	dc21f0051f 	{ ae_lp24x2.i	aep0, a5, 8; ae_selp24.lh	aep1, aep0, aep1 }
     a54:	1a8a44        	ae_selp24.hl	aep4, aep0, aep2
     a57:	1aa804        	ae_selp24.hl	aep0, aep2, aep0
     a5a:	040124        	ae_mulzaap24s.hh.ll	aeq0, aep0, aep1
     a5d:	0409b4        	ae_mulzsap24s.hl.lh	aeq1, aep0, aep1
     a60:	04c3b4        	ae_mulzsap24s.hl.lh	aeq2, aep4, aep3
     a63:	04cb24        	ae_mulzaap24s.hh.ll	aeq3, aep4, aep3
     a66:	1bac04        	ae_roundsp24q48sym	aep0, aeq2
     a69:	1bbc14        	ae_roundsp24q48sym	aep1, aeq3
     a6c:	1b9c24        	ae_roundsp24q48sym	aep2, aeq1
     a6f:	1b8c34        	ae_roundsp24q48sym	aep3, aeq0
     a72:	1a9004        	ae_selp24.ll	aep0, aep1, aep0
     a75:	dc4e77851f 	{ ae_sp24x2s.iu	aep0, a5, 8; ae_selp24.ll	aep1, aep3, aep2 }
     a7a:	fc207794ff 	{ ae_sp24x2s.iu	aep1, a4, -8; ae_absp24	aep1, aep1 }
     a7f:	07b804        	ae_absp24	aep0, aep0

00000a82 <_Z13preModulationP5fractiPKjPiS3_+0xae>:
     a82:	de207f58bf 	{ ae_movp48	aep6, aep5; ae_orp48	aep5, aep0, aep1 }

00000a87 <_Z13preModulationP5fractiPKjPiS3_+0xb3>:
     a87:	0fde54        	ae_orp48	aep5, aep5, aep6

00000a8a <_Z13preModulationP5fractiPKjPiS3_+0xb6>:
     a8a:	dcb53009ee 	{ l32i	a14, a9, 0; ae_selp24.hh	aep0, aep5, aep5 }
     a8f:	dfb64001ff 	{ movi	a15, 1; ae_selp24.ll	aep7, aep5, aep5 }
     a94:	df1c4000df 	{ movi	a13, 0; ae_orp48	aep7, aep7, aep0 }
     a99:	fcec001eee 	{ addi	a14, a14, 1; ae_cvtq48p24s.l	aeq0, aep7 }
     a9e:	364c04        	ae_nsaq56s	a12, aeq0
     aa1:	09e9           	s32i.n	a14, a9, 0
     aa3:	08d9           	s32i.n	a13, a8, 0
     aa5:	018c26        	beqi	a12, 8, aaa <_Z13preModulationP5fractiPKjPiS3_+0xd6>
     aa8:	f01d           	retw.n

00000aaa <_Z13preModulationP5fractiPKjPiS3_+0xd6>:
     aaa:	08f9           	s32i.n	a15, a8, 0
     aac:	f01d           	retw.n

00000aae <_Z13preModulationP5fractiPKjPiS3_+0xda>:
	...

00000ab0 <_Z28CShortBlock_InverseTransformP5fractPiS0_>:
     ab0:	008136        	entry	a1, 64
     ab3:	02ad           	mov.n	a10, a2
     ab5:	80a0b2        	movi	a11, 128
     ab8:	03ed           	mov.n	a14, a3
     aba:	fd5981        	l32r	a8, 20 (9d4 <_Z13preModulationP5fractiPKjPiS3_>)
     abd:	fd57c1        	l32r	a12, 1c (109e0 <OnlyShortWindowSine>)
     ac0:	060c           	movi.n	a6, 0
     ac2:	1d0c           	movi.n	a13, 1
     ac4:	41d9           	s32i.n	a13, a1, 16
     ac6:	0369           	s32i.n	a6, a3, 0
     ac8:	10c1d2        	addi	a13, a1, 16
     acb:	0cc8           	l32i.n	a12, a12, 0
     acd:	0008e0        	callx8	a8
     ad0:	02ad           	mov.n	a10, a2
     ad2:	6b0c           	movi.n	a11, 6
     ad4:	00a2d2        	movi	a13, 0x200
     ad7:	10c1e2        	addi	a14, a1, 16
     ada:	14c1f2        	addi	a15, a1, 20
     add:	fd5151        	l32r	a5, 24 (10b70 <trigData>)
     ae0:	fd5281        	l32r	a8, 28 (720c <_Z12fft_rad2_ditP5fractiPKS_iPiS3_iiS0_>)
     ae3:	190c           	movi.n	a9, 1
     ae5:	05c8           	l32i.n	a12, a5, 0
     ae7:	0199           	s32i.n	a9, a1, 0
     ae9:	1199           	s32i.n	a9, a1, 4
     aeb:	2149           	s32i.n	a4, a1, 8
     aed:	0008e0        	callx8	a8
     af0:	02ad           	mov.n	a10, a2
     af2:	80a0b2        	movi	a11, 128
     af5:	8d0c           	movi.n	a13, 8
     af7:	00a2e2        	movi	a14, 0x200
     afa:	10c1f2        	addi	a15, a1, 16
     afd:	4169           	s32i.n	a6, a1, 16
     aff:	fd4b81        	l32r	a8, 2c (8e0 <_Z14postModulationP5fractiPKS_iiPiS3_>)
     b02:	05c8           	l32i.n	a12, a5, 0
     b04:	0139           	s32i.n	a3, a1, 0
     b06:	0008e0        	callx8	a8
     b09:	51a8           	l32i.n	a10, a1, 20
     b0b:	0398           	l32i.n	a9, a3, 0
     b0d:	99aa           	add.n	a9, a9, a10
     b0f:	0399           	s32i.n	a9, a3, 0
     b11:	f01d           	retw.n

00000b13 <_Z28CShortBlock_InverseTransformP5fractPiS0_+0x63>:
	...

00000b14 <_Z27CLongBlock_InverseTransformP5fractPiS0_>:
     b14:	008136        	entry	a1, 64
     b17:	02ad           	mov.n	a10, a2
     b19:	00a4b2        	movi	a11, 0x400
     b1c:	03ed           	mov.n	a14, a3
     b1e:	fd4081        	l32r	a8, 20 (9d4 <_Z13preModulationP5fractiPKjPiS3_>)
     b21:	fd43c1        	l32r	a12, 30 (109e4 <OnlyLongWindowSine>)
     b24:	060c           	movi.n	a6, 0
     b26:	1d0c           	movi.n	a13, 1
     b28:	41d9           	s32i.n	a13, a1, 16
     b2a:	0369           	s32i.n	a6, a3, 0
     b2c:	10c1d2        	addi	a13, a1, 16
     b2f:	0cc8           	l32i.n	a12, a12, 0
     b31:	0008e0        	callx8	a8
     b34:	02ad           	mov.n	a10, a2
     b36:	9b0c           	movi.n	a11, 9
     b38:	00a2d2        	movi	a13, 0x200
     b3b:	10c1e2        	addi	a14, a1, 16
     b3e:	14c1f2        	addi	a15, a1, 20
     b41:	fd3851        	l32r	a5, 24 (10b70 <trigData>)
     b44:	fd3981        	l32r	a8, 28 (720c <_Z12fft_rad2_ditP5fractiPKS_iPiS3_iiS0_>)
     b47:	190c           	movi.n	a9, 1
     b49:	05c8           	l32i.n	a12, a5, 0
     b4b:	0199           	s32i.n	a9, a1, 0
     b4d:	1199           	s32i.n	a9, a1, 4
     b4f:	2149           	s32i.n	a4, a1, 8
     b51:	0008e0        	callx8	a8
     b54:	02ad           	mov.n	a10, a2
     b56:	00a4b2        	movi	a11, 0x400
     b59:	1d0c           	movi.n	a13, 1
     b5b:	00a2e2        	movi	a14, 0x200
     b5e:	10c1f2        	addi	a15, a1, 16
     b61:	4169           	s32i.n	a6, a1, 16
     b63:	fd3281        	l32r	a8, 2c (8e0 <_Z14postModulationP5fractiPKS_iiPiS3_>)
     b66:	05c8           	l32i.n	a12, a5, 0
     b68:	0139           	s32i.n	a3, a1, 0
     b6a:	0008e0        	callx8	a8
     b6d:	51a8           	l32i.n	a10, a1, 20
     b6f:	0398           	l32i.n	a9, a3, 0
     b71:	99aa           	add.n	a9, a9, a10
     b73:	0399           	s32i.n	a9, a3, 0
     b75:	f01d           	retw.n

00000b77 <_Z27CLongBlock_InverseTransformP5fractPiS0_+0x63>:
	...

00000b78 <_Z7StopLapP5fractS0_S0_PKji>:
     b78:	004136        	entry	a1, 32
     b7b:	f91c           	movi.n	a9, 31
     b7d:	04dd           	mov.n	a13, a4
     b7f:	02fd           	mov.n	a15, a2
     b81:	05cd           	mov.n	a12, a5
     b83:	03ed           	mov.n	a14, a3
     b85:	06bd           	mov.n	a11, a6
     b87:	118bd0        	slli	a8, a11, 3
     b8a:	0fd232        	addmi	a3, a2, 0xf00
     b8d:	f06660        	subx8	a6, a6, a6
     b90:	02d552        	addmi	a5, a5, 0x200
     b93:	54b5f4        	ae_lp24x2.iu	aep3, a5, -8
     b96:	1176a0        	slli	a7, a6, 6
     b99:	f8c332        	addi	a3, a3, -8
     b9c:	548314        	ae_lp24x2.iu	aep0, a3, 8
     b9f:	116680        	slli	a6, a6, 8
     ba2:	f8cc22        	addi	a2, a12, -8
     ba5:	7b7a           	add.n	a7, a11, a7
     ba7:	a07740        	addx4	a7, a7, a4
     baa:	549214        	ae_lp24x2.iu	aep1, a2, 8
     bad:	806460        	add	a6, a4, a6
     bb0:	ea21d5a68f 	{ sub	a10, a6, a8; ae_mulfp24s.ll	aeq1, aep0, aep1 }
     bb5:	116b50        	slli	a6, a11, 11
     bb8:	08de42        	addmi	a4, a14, 0x800
     bbb:	e820b0a4ff 	{ ae_lp24x2.iu	aep2, a4, -8; ae_mulfp24s.hh	aeq0, aep0, aep1 }
     bc0:	ee4d95778f 	{ sub	a7, a7, a8; ae_mulsfp24s.ll	aeq0, aep3, aep2 }
     bc5:	238976        	loop	a9, bec <_Z7StopLapP5fractS0_S0_PKji+0x74>
     bc8:	ec4cf0931f 	{ ae_lp24x2.iu	aep1, a3, 8; ae_mulsfp24s.hh	aeq1, aep3, aep2 }
     bcd:	f9e7f0821f 	{ ae_lp24x2.iu	aep0, a2, 8; ae_roundsp24q48sym	aep3, aeq0 }
     bd2:	ca0eb0b5ff 	{ ae_lp24x2.iu	aep3, a5, -8; ae_sllisp24s	aep4, aep3, 1 }
     bd7:	faefa6ca8f 	{ ae_sp24f.l.xu	aep4, a10, a8; ae_roundsp24q48sym	aep4, aeq1 }
     bdc:	e804b0a4ff 	{ ae_lp24x2.iu	aep2, a4, -8; ae_mulfp24s.hh	aeq0, aep1, aep0 }
     be1:	0bc0c4        	ae_sllisp24s	aep4, aep4, 1
     be4:	ee4da6c78f 	{ ae_sp24f.l.xu	aep4, a7, a8; ae_mulsfp24s.ll	aeq0, aep3, aep2 }
     be9:	011874        	ae_mulfp24s.ll	aeq1, aep1, aep0

00000bec <_Z7StopLapP5fractS0_S0_PKji+0x74>:
     bec:	01dc22        	addmi	a2, a12, 0x100
     bef:	07de42        	addmi	a4, a14, 0x700
     bf2:	10df32        	addmi	a3, a15, 0x1000
     bf5:	079d           	mov.n	a9, a7
     bf7:	54c3f4        	ae_lp24x2.iu	aep4, a3, -8
     bfa:	f8c442        	addi	a4, a4, -8
     bfd:	025d           	mov.n	a5, a2
     bff:	117b70        	slli	a7, a11, 9
     c02:	ec4ccf822e 	{ addi	a2, a2, -8; ae_mulsfp24s.hh	aeq1, aep3, aep2 }
     c07:	fbe7f0d21f 	{ ae_lp24x2.iu	aep5, a2, 8; ae_roundsp24q48sym	aep7, aeq0 }
     c0c:	cb1e907b7f 	{ add	a7, a11, a7; ae_sllisp24s	aep6, aep7, 1 }
     c11:	a077d0        	addx4	a7, a7, a13
     c14:	e9b1f0941f 	{ ae_lp24x2.iu	aep1, a4, 8; ae_mulfp24s.lh	aeq3, aep4, aep5 }
     c19:	ebb0b085ff 	{ ae_lp24x2.iu	aep0, a5, -8; ae_mulfp24s.hl	aeq2, aep4, aep5 }
     c1e:	e323106d6f 	{ add	a6, a13, a6; ae_mulafp24s.hl	aeq2, aep0, aep1 }
     c23:	e322d5668f 	{ sub	a6, a6, a8; ae_mulafp24s.lh	aeq3, aep0, aep1 }
     c28:	faefe6ea8f 	{ ae_sp24f.l.xu	aep6, a10, a8; ae_roundsp24q48sym	aep5, aeq1 }
     c2d:	f9ff93a66f 	{ or	a10, a6, a6; ae_roundsp24q48sym	aep2, aeq3 }
     c32:	ca1695778f 	{ sub	a7, a7, a8; ae_sllisp24s	aep4, aep5, 1 }
     c37:	f9f7e6c98f 	{ ae_sp24f.l.xu	aep4, a9, a8; ae_roundsp24q48sym	aep3, aeq2 }
     c3c:	fc78401f9f 	{ movi	a9, 31; ae_negsp24s	aep1, aep3 }
     c41:	f03d           	nop.n
     c43:	f03d           	nop.n
     c45:	298976        	loop	a9, c72 <_Z7StopLapP5fractS0_S0_PKji+0xfa>
     c48:	fd5830821f 	{ ae_lp24x2.iu	aep0, a2, 8; ae_negsp24s	aep2, aep2 }

00000c4d <_Z7StopLapP5fractS0_S0_PKji+0xd5>:
     c4d:	ca06f093ff 	{ ae_lp24x2.iu	aep1, a3, -8; ae_sllisp24s	aep5, aep1, 1 }
     c52:	ca0ab0a41f 	{ ae_lp24x2.iu	aep2, a4, 8; ae_sllisp24s	aep4, aep2, 1 }
     c57:	e805f0b5ff 	{ ae_lp24x2.iu	aep3, a5, -8; ae_mulfp24s.lh	aeq1, aep1, aep0 }
     c5c:	ea04a6ca8f 	{ ae_sp24f.l.xu	aep4, a10, a8; ae_mulfp24s.hl	aeq0, aep1, aep0 }
     c61:	e24f26d78f 	{ ae_sp24f.l.xu	aep5, a7, a8; ae_mulafp24s.hl	aeq0, aep3, aep2 }
     c66:	013a24        	ae_mulafp24s.lh	aeq1, aep3, aep2
     c69:	1b8c04        	ae_roundsp24q48sym	aep0, aeq0
     c6c:	1b9c24        	ae_roundsp24q48sym	aep2, aeq1
     c6f:	078814        	ae_negsp24s	aep1, aep0

00000c72 <_Z7StopLapP5fractS0_S0_PKji+0xfa>:
     c72:	078a04        	ae_negsp24s	aep0, aep2
     c75:	cb02d3977f 	{ or	a9, a7, a7; ae_sllisp24s	aep7, aep0, 1 }
     c7a:	cb06a6fa8f 	{ ae_sp24f.l.xu	aep7, a10, a8; ae_sllisp24s	aep6, aep1, 1 }
     c7f:	53e984        	ae_sp24f.l.xu	aep6, a9, a8
     c82:	f01d           	retw.n

00000c84 <_Z13StopLap_shortP5fractS0_PsPKji>:
     c84:	004136        	entry	a1, 32
     c87:	04dd           	mov.n	a13, a4
     c89:	02fd           	mov.n	a15, a2
     c8b:	05cd           	mov.n	a12, a5
     c8d:	03ed           	mov.n	a14, a3
     c8f:	06bd           	mov.n	a11, a6
     c91:	118be0        	slli	a8, a11, 2
     c94:	0fd232        	addmi	a3, a2, 0xf00
     c97:	f06660        	subx8	a6, a6, a6
     c9a:	02d552        	addmi	a5, a5, 0x200
     c9d:	5495f4        	ae_lp24x2.iu	aep1, a5, -8
     ca0:	1176a0        	slli	a7, a6, 6
     ca3:	f8c332        	addi	a3, a3, -8
     ca6:	54b314        	ae_lp24x2.iu	aep3, a3, 8
     ca9:	116690        	slli	a6, a6, 7
     cac:	f8cc22        	addi	a2, a12, -8
     caf:	54c214        	ae_lp24x2.iu	aep4, a2, 8
     cb2:	ea8d90646f 	{ add	a6, a4, a6; ae_mulfp24s.ll	aeq0, aep3, aep4 }
     cb7:	08de42        	addmi	a4, a14, 0x800
     cba:	e88cf0a4ff 	{ ae_lp24x2.iu	aep2, a4, -8; ae_mulfp24s.hh	aeq1, aep3, aep4 }
     cbf:	ee45c01f9f 	{ movi	a9, 31; ae_mulsfp24s.ll	aeq1, aep1, aep2 }
     cc4:	ec44907b7f 	{ add	a7, a11, a7; ae_mulsfp24s.hh	aeq0, aep1, aep2 }
     cc9:	f9ef9177df 	{ addx2	a7, a7, a13; ae_roundsp24q48sym	aep2, aeq1 }
     cce:	f8e795a68f 	{ sub	a10, a6, a8; ae_roundsp24q48sym	aep0, aeq0 }
     cd3:	c802d5778f 	{ sub	a7, a7, a8; ae_sllisp24s	aep1, aep0, 1 }
     cd8:	298976        	loop	a9, d05 <_Z13StopLap_shortP5fractS0_PsPKji+0x81>
     cdb:	c90ab0821f 	{ ae_lp24x2.iu	aep0, a2, 8; ae_sllisp24s	aep2, aep2, 1 }
     ce0:	fa07f0931f 	{ ae_lp24x2.iu	aep1, a3, 8; ae_roundsp16sym	aep5, aep1 }
     ce5:	fa0bb0a4ff 	{ ae_lp24x2.iu	aep2, a4, -8; ae_roundsp16sym	aep4, aep2 }
     cea:	e804f0b5ff 	{ ae_lp24x2.iu	aep3, a5, -8; ae_mulfp24s.hh	aeq1, aep1, aep0 }
     cef:	ea05a3ca8f 	{ ae_sp16f.l.xu	aep4, a10, a8; ae_mulfp24s.ll	aeq0, aep1, aep0 }
     cf4:	ec4ca3d78f 	{ ae_sp16f.l.xu	aep5, a7, a8; ae_mulsfp24s.hh	aeq0, aep3, aep2 }
     cf9:	013ab4        	ae_mulsfp24s.ll	aeq1, aep3, aep2
     cfc:	1b8c04        	ae_roundsp24q48sym	aep0, aeq0
     cff:	1b9c24        	ae_roundsp24q48sym	aep2, aeq1
     d02:	0b8094        	ae_sllisp24s	aep1, aep0, 1

00000d05 <_Z13StopLap_shortP5fractS0_PsPKji+0x81>:
     d05:	07de42        	addmi	a4, a14, 0x700
     d08:	01dc22        	addmi	a2, a12, 0x100
     d0b:	116b60        	slli	a6, a11, 10
     d0e:	10df32        	addmi	a3, a15, 0x1000
     d11:	079d           	mov.n	a9, a7
     d13:	54c3f4        	ae_lp24x2.iu	aep4, a3, -8
     d16:	6d6a           	add.n	a6, a13, a6
     d18:	025d           	mov.n	a5, a2
     d1a:	f8c442        	addi	a4, a4, -8
     d1d:	54b414        	ae_lp24x2.iu	aep3, a4, 8
     d20:	5485f4        	ae_lp24x2.iu	aep0, a5, -8
     d23:	c06680        	sub	a6, a6, a8
     d26:	117b70        	slli	a7, a11, 9
     d29:	cb0acf822e 	{ addi	a2, a2, -8; ae_sllisp24s	aep7, aep2, 1 }
     d2e:	fb1fb0d21f 	{ ae_lp24x2.iu	aep5, a2, 8; ae_roundsp16sym	aep6, aep7 }
     d33:	ebb0d07b7f 	{ add	a7, a11, a7; ae_mulfp24s.hl	aeq3, aep4, aep5 }
     d38:	e9b1a3ea8f 	{ ae_sp16f.l.xu	aep6, a10, a8; ae_mulfp24s.lh	aeq2, aep4, aep5 }
     d3d:	e36293a66f 	{ or	a10, a6, a6; ae_mulafp24s.lh	aeq2, aep0, aep3 }
     d42:	e3635177df 	{ addx2	a7, a7, a13; ae_mulafp24s.hl	aeq3, aep0, aep3 }
     d47:	fa07d5778f 	{ sub	a7, a7, a8; ae_roundsp16sym	aep5, aep1 }
     d4c:	f9ffe3d98f 	{ ae_sp16f.l.xu	aep5, a9, a8; ae_roundsp24q48sym	aep3, aeq3 }
     d51:	f8f7801f9f 	{ movi	a9, 31; ae_roundsp24q48sym	aep0, aeq2 }
     d56:	2f8976        	loop	a9, d89 <_Z13StopLap_shortP5fractS0_PsPKji+0x105>

00000d59 <_Z13StopLap_shortP5fractS0_PsPKji+0xd5>:
     d59:	fc1870821f 	{ ae_lp24x2.iu	aep0, a2, 8; ae_negsp24s	aep1, aep0 }
     d5e:	078b34        	ae_negsp24s	aep3, aep3
     d61:	ca06b093ff 	{ ae_lp24x2.iu	aep1, a3, -8; ae_sllisp24s	aep4, aep1, 1 }
     d66:	ea04f0a5ff 	{ ae_lp24x2.iu	aep2, a5, -8; ae_mulfp24s.hl	aeq1, aep1, aep0 }
     d6b:	0940c4        	ae_roundsp16sym	aep4, aep4
     d6e:	e805b0841f 	{ ae_lp24x2.iu	aep0, a4, 8; ae_mulfp24s.lh	aeq0, aep1, aep0 }
     d73:	c80ee3ca8f 	{ ae_sp16f.l.xu	aep4, a10, a8; ae_sllisp24s	aep1, aep3, 1 }
     d78:	012024        	ae_mulafp24s.lh	aeq0, aep2, aep0
     d7b:	091094        	ae_roundsp16sym	aep1, aep1
     d7e:	e20b63978f 	{ ae_sp16f.l.xu	aep1, a7, a8; ae_mulafp24s.hl	aeq1, aep2, aep0 }
     d83:	1b8c04        	ae_roundsp24q48sym	aep0, aeq0
     d86:	1b9c34        	ae_roundsp24q48sym	aep3, aeq1

00000d89 <_Z13StopLap_shortP5fractS0_PsPKji+0x105>:
     d89:	078824        	ae_negsp24s	aep2, aep0
     d8c:	078b34        	ae_negsp24s	aep3, aep3
     d8f:	0bb0f4        	ae_sllisp24s	aep7, aep3, 1
     d92:	0ba094        	ae_sllisp24s	aep1, aep2, 1
     d95:	f80793977f 	{ or	a9, a7, a7; ae_roundsp16sym	aep0, aep1 }
     d9a:	fb1fa38a8f 	{ ae_sp16f.l.xu	aep0, a10, a8; ae_roundsp16sym	aep6, aep7 }
     d9f:	43e984        	ae_sp16f.l.xu	aep6, a9, a8
     da2:	f01d           	retw.n

00000da4 <_Z8StartLapP5fractS0_i>:
     da4:	004136        	entry	a1, 32
     da7:	f8c222        	addi	a2, a2, -8
     daa:	061c           	movi.n	a6, 16
     dac:	a09430        	addx4	a9, a4, a3
     daf:	1154f0        	slli	a5, a4, 1
     db2:	1155e0        	slli	a5, a5, 2
     db5:	c09950        	sub	a9, a9, a5
     db8:	c03350        	sub	a3, a3, a5
     dbb:	f03d           	nop.n
     dbd:	158676        	loop	a6, dd6 <_Z8StartLapP5fractS0_i+0x32>
     dc0:	540214        	ae_lp24x2.i	aep0, a2, 8
     dc3:	dc0170a22f 	{ ae_lp24x2.iu	aep2, a2, 16; ae_selp24.hh	aep1, aep0, aep0 }
     dc8:	dc4968135f 	{ ae_sp24s.l.xu	aep1, a3, a5; ae_selp24.hh	aep1, aep2, aep2 }
     dcd:	4f8954        	ae_sp24s.l.xu	aep0, a9, a5
     dd0:	4f9354        	ae_sp24s.l.xu	aep1, a3, a5
     dd3:	4fa954        	ae_sp24s.l.xu	aep2, a9, a5

00000dd6 <_Z8StartLapP5fractS0_i+0x32>:
     dd6:	f01d           	retw.n

00000dd8 <_Z6NoLap2P5fractS0_i>:
     dd8:	004136        	entry	a1, 32
     ddb:	dfa062        	movi	a6, 223
     dde:	a09430        	addx4	a9, a4, a3
     de1:	07d272        	addmi	a7, a2, 0x700
     de4:	1154f0        	slli	a5, a4, 1
     de7:	1155e0        	slli	a5, a5, 2
     dea:	5497f4        	ae_lp24x2.iu	aep1, a7, -8
     ded:	fc3813277f 	{ or	a2, a7, a7; ae_negsp24s	aep0, aep1 }
     df2:	dc0155995f 	{ sub	a9, a9, a5; ae_selp24.hh	aep1, aep0, aep0 }
     df7:	c90295335f 	{ sub	a3, a3, a5; ae_sllisp24s	aep2, aep0, 1 }
     dfc:	f03d           	nop.n
     dfe:	118676        	loop	a6, e13 <_Z6NoLap2P5fractS0_i+0x3b>
     e01:	c806f082ff 	{ ae_lp24x2.iu	aep0, a2, -8; ae_sllisp24s	aep1, aep1, 1 }
     e06:	fc1826a35f 	{ ae_sp24f.l.xu	aep2, a3, a5; ae_negsp24s	aep0, aep0 }
     e0b:	dc0166995f 	{ ae_sp24f.l.xu	aep1, a9, a5; ae_selp24.hh	aep1, aep0, aep0 }
     e10:	0b80a4        	ae_sllisp24s	aep2, aep0, 1

00000e13 <_Z6NoLap2P5fractS0_i+0x3b>:
     e13:	53a354        	ae_sp24f.l.xu	aep2, a3, a5
     e16:	c90693699f 	{ or	a6, a9, a9; ae_sllisp24s	aep2, aep1, 1 }
     e1b:	53a654        	ae_sp24f.l.xu	aep2, a6, a5
     e1e:	f01d           	retw.n

00000e20 <_Z12NoLap2_shortP5fractPsi>:
     e20:	004136        	entry	a1, 32
     e23:	07d272        	addmi	a7, a2, 0x700
     e26:	1154f0        	slli	a5, a4, 1
     e29:	1155f0        	slli	a5, a5, 1
     e2c:	54b7f4        	ae_lp24x2.iu	aep3, a7, -8
     e2f:	fd7800df6f 	{ movi	a6, 223; ae_negsp24s	aep2, aep3 }
     e34:	c80a91943f 	{ addx2	a9, a4, a3; ae_sllisp24s	aep0, aep2, 1 }
     e39:	dc4953277f 	{ or	a2, a7, a7; ae_selp24.hh	aep1, aep2, aep2 }
     e3e:	c806d5995f 	{ sub	a9, a9, a5; ae_sllisp24s	aep1, aep1, 1 }
     e43:	f90395335f 	{ sub	a3, a3, a5; ae_roundsp16sym	aep2, aep0 }
     e48:	178676        	loop	a6, e63 <_Z12NoLap2_shortP5fractPsi+0x43>
     e4b:	f807f082ff 	{ ae_lp24x2.iu	aep0, a2, -8; ae_roundsp16sym	aep1, aep1 }
     e50:	fc1823a35f 	{ ae_sp16f.l.xu	aep2, a3, a5; ae_negsp24s	aep0, aep0 }
     e55:	dc0163995f 	{ ae_sp16f.l.xu	aep1, a9, a5; ae_selp24.hh	aep1, aep0, aep0 }
     e5a:	0b8084        	ae_sllisp24s	aep0, aep0, 1
     e5d:	0b9094        	ae_sllisp24s	aep1, aep1, 1
     e60:	0900a4        	ae_roundsp16sym	aep2, aep0

00000e63 <_Z12NoLap2_shortP5fractPsi+0x43>:
     e63:	43a354        	ae_sp16f.l.xu	aep2, a3, a5
     e66:	fa0793699f 	{ or	a6, a9, a9; ae_roundsp16sym	aep4, aep1 }
     e6b:	43c654        	ae_sp16f.l.xu	aep4, a6, a5
     e6e:	f01d           	retw.n

00000e70 <_Z6NoLap1P5fractS0_i>:
     e70:	004136        	entry	a1, 32
     e73:	07d222        	addmi	a2, a2, 0x700
     e76:	70a062        	movi	a6, 112
     e79:	a09430        	addx4	a9, a4, a3
     e7c:	1154f0        	slli	a5, a4, 1
     e7f:	1155e0        	slli	a5, a5, 2
     e82:	c09950        	sub	a9, a9, a5
     e85:	c03350        	sub	a3, a3, a5
     e88:	f03d           	nop.n
     e8a:	198676        	loop	a6, ea7 <_Z6NoLap1P5fractS0_i+0x37>
     e8d:	5402f4        	ae_lp24x2.i	aep0, a2, -8
     e90:	fc187082ef 	{ ae_lp24x2.iu	aep0, a2, -16; ae_negsp24s	aep1, aep0 }
     e95:	dc2568135f 	{ ae_sp24s.l.xu	aep1, a3, a5; ae_selp24.hh	aep1, aep1, aep1 }
     e9a:	fc1828195f 	{ ae_sp24s.l.xu	aep1, a9, a5; ae_negsp24s	aep0, aep0 }
     e9f:	dc0128035f 	{ ae_sp24s.l.xu	aep0, a3, a5; ae_selp24.hh	aep0, aep0, aep0 }
     ea4:	4f8954        	ae_sp24s.l.xu	aep0, a9, a5

00000ea7 <_Z6NoLap1P5fractS0_i+0x37>:
     ea7:	f01d           	retw.n

00000ea9 <_Z6NoLap1P5fractS0_i+0x39>:
     ea9:	000000                                        ...

00000eac <_Z26CLongBlock_FrequencyToTimeP28CAacDecoderStaticChannelInfoP22CAacDecoderChannelInfoP5fractiiiS4_>:
     eac:	00a136        	entry	a1, 80
     eaf:	100282        	l8ui	a8, a2, 16
     eb2:	05fd           	mov.n	a15, a5
     eb4:	06ed           	mov.n	a14, a6
     eb6:	7358           	l32i.n	a5, a3, 28
     eb8:	8368           	l32i.n	a6, a3, 32
     eba:	23a800        	sext	a10, a8, 7
     ebd:	048780        	extui	a8, a8, 7, 1
     ec0:	0ac856        	bnez	a8, f70 <_Z26CLongBlock_FrequencyToTimeP28CAacDecoderStaticChannelInfoP22CAacDecoderChannelInfoP5fractiiiS4_+0xc4>
     ec3:	b1e9           	s32i.n	a14, a1, 44
     ec5:	a1f9           	s32i.n	a15, a1, 40
     ec7:	022aa6        	blti	a10, 2, ecd <_Z26CLongBlock_FrequencyToTimeP28CAacDecoderStaticChannelInfoP22CAacDecoderChannelInfoP5fractiiiS4_+0x21>
     eca:	002886        	j	f70 <_Z26CLongBlock_FrequencyToTimeP28CAacDecoderStaticChannelInfoP22CAacDecoderChannelInfoP5fractiiiS4_+0xc4>
     ecd:	1421c2        	l32i	a12, a1, 80
     ed0:	10c1b2        	addi	a11, a1, 16
     ed3:	a0da20        	addx4	a13, a10, a2
     ed6:	fc5781        	l32r	a8, 34 (b14 <_Z27CLongBlock_InverseTransformP5fractPiS0_>)
     ed9:	05ad           	mov.n	a10, a5
     edb:	0de8           	l32i.n	a14, a13, 0
     edd:	91e9           	s32i.n	a14, a1, 36
     edf:	2dd8           	l32i.n	a13, a13, 8
     ee1:	81d9           	s32i.n	a13, a1, 32
     ee3:	0008e0        	callx8	a8
     ee6:	41c8           	l32i.n	a12, a1, 16
     ee8:	26bd           	ae_l16si.n	a11, a6, 0
     eea:	a1d8           	l32i.n	a13, a1, 40
     eec:	5268           	l32i.n	a6, a2, 20
     eee:	bbca           	add.n	a11, a11, a12
     ef0:	e6cbb2        	addi	a11, a11, -26
     ef3:	021be6        	bgei	a11, 1, ef9 <_Z26CLongBlock_FrequencyToTimeP28CAacDecoderStaticChannelInfoP22CAacDecoderChannelInfoP5fractiiiS4_+0x4d>
     ef6:	004ec6        	j	1035 <_Z26CLongBlock_FrequencyToTimeP28CAacDecoderStaticChannelInfoP22CAacDecoderChannelInfoP5fractiiiS4_+0x189>
     ef9:	f8c582        	addi	a8, a5, -8
     efc:	0316b4        	wur.ae_sar	a11
     eff:	00a192        	movi	a9, 0x100
     f02:	0f8976        	loop	a9, f15 <_Z26CLongBlock_FrequencyToTimeP28CAacDecoderStaticChannelInfoP22CAacDecoderChannelInfoP5fractiiiS4_+0x69>
     f05:	540814        	ae_lp24x2.i	aep0, a8, 8
     f08:	f823f0082f 	{ ae_lp24x2.i	aep0, a8, 16; ae_sllssp24s	aep1, aep0 }
     f0d:	f823b7181f 	{ ae_sp24x2s.i	aep1, a8, 8; ae_sllssp24s	aep0, aep0 }
     f12:	568824        	ae_sp24x2s.iu	aep0, a8, 16

00000f15 <_Z26CLongBlock_FrequencyToTimeP28CAacDecoderStaticChannelInfoP22CAacDecoderChannelInfoP5fractiiiS4_+0x69>:
     f15:	03c8           	l32i.n	a12, a3, 0
     f17:	062d16        	beqz	a13, f7d <_Z26CLongBlock_FrequencyToTimeP28CAacDecoderStaticChannelInfoP22CAacDecoderChannelInfoP5fractiiiS4_+0xd1>
     f1a:	b1e8           	l32i.n	a14, a1, 44
     f1c:	90ee40        	addx2	a14, a14, a4
     f1f:	51e9           	s32i.n	a14, a1, 20

00000f21 <_Z26CLongBlock_FrequencyToTimeP28CAacDecoderStaticChannelInfoP22CAacDecoderChannelInfoP5fractiiiS4_+0x75>:
     f21:	030ca2        	l8ui	a10, a12, 3
     f24:	239a00        	sext	a9, a10, 7
     f27:	05aa16        	beqz	a10, f85 <_Z26CLongBlock_FrequencyToTimeP28CAacDecoderStaticChannelInfoP22CAacDecoderChannelInfoP5fractiiiS4_+0xd9>
     f2a:	f90b           	addi.n	a15, a9, -1
     f2c:	0c1f16        	beqz	a15, ff1 <_Z26CLongBlock_FrequencyToTimeP28CAacDecoderStaticChannelInfoP22CAacDecoderChannelInfoP5fractiiiS4_+0x145>
     f2f:	3f3966        	bnei	a9, 3, f72 <_Z26CLongBlock_FrequencyToTimeP28CAacDecoderStaticChannelInfoP22CAacDecoderChannelInfoP5fractiiiS4_+0xc6>
     f32:	1102a2        	l8ui	a10, a2, 17
     f35:	239a00        	sext	a9, a10, 7
     f38:	fec982        	addi	a8, a9, -2
     f3b:	11e816        	beqz	a8, 105d <_Z26CLongBlock_FrequencyToTimeP28CAacDecoderStaticChannelInfoP22CAacDecoderChannelInfoP5fractiiiS4_+0x1b1>
     f3e:	b90b           	addi.n	a11, a9, -1
     f40:	119b16        	beqz	a11, 105d <_Z26CLongBlock_FrequencyToTimeP28CAacDecoderStaticChannelInfoP22CAacDecoderChannelInfoP5fractiiiS4_+0x1b1>
     f43:	1aca16        	beqz	a10, 10f3 <_Z26CLongBlock_FrequencyToTimeP28CAacDecoderStaticChannelInfoP22CAacDecoderChannelInfoP5fractiiiS4_+0x247>
     f46:	fdc9d2        	addi	a13, a9, -3
     f49:	1a6d16        	beqz	a13, 10f3 <_Z26CLongBlock_FrequencyToTimeP28CAacDecoderStaticChannelInfoP22CAacDecoderChannelInfoP5fractiiiS4_+0x247>
     f4c:	f8c6e2        	addi	a14, a6, -8
     f4f:	71e9           	s32i.n	a14, a1, 28

00000f51 <_Z26CLongBlock_FrequencyToTimeP28CAacDecoderStaticChannelInfoP22CAacDecoderChannelInfoP5fractiiiS4_+0xa5>:
     f51:	f8c582        	addi	a8, a5, -8
     f54:	7198           	l32i.n	a9, a1, 28
     f56:	00a1a2        	movi	a10, 0x100
     f59:	058a76        	loop	a10, f62 <_Z26CLongBlock_FrequencyToTimeP28CAacDecoderStaticChannelInfoP22CAacDecoderChannelInfoP5fractiiiS4_+0xb6>
     f5c:	548814        	ae_lp24x2.iu	aep0, a8, 8
     f5f:	568914        	ae_sp24x2s.iu	aep0, a9, 8

00000f62 <_Z26CLongBlock_FrequencyToTimeP28CAacDecoderStaticChannelInfoP22CAacDecoderChannelInfoP5fractiiiS4_+0xb6>:
     f62:	030cf2        	l8ui	a15, a12, 3
     f65:	020c82        	l8ui	a8, a12, 2
     f68:	104282        	s8i	a8, a2, 16
     f6b:	1142f2        	s8i	a15, a2, 17
     f6e:	f01d           	retw.n

00000f70 <_Z26CLongBlock_FrequencyToTimeP28CAacDecoderStaticChannelInfoP22CAacDecoderChannelInfoP5fractiiiS4_+0xc4>:
     f70:	f01d           	retw.n

00000f72 <_Z26CLongBlock_FrequencyToTimeP28CAacDecoderStaticChannelInfoP22CAacDecoderChannelInfoP5fractiiiS4_+0xc6>:
     f72:	020c92        	l8ui	a9, a12, 2
     f75:	104292        	s8i	a9, a2, 16
     f78:	1142a2        	s8i	a10, a2, 17
     f7b:	f01d           	retw.n

00000f7d <_Z26CLongBlock_FrequencyToTimeP28CAacDecoderStaticChannelInfoP22CAacDecoderChannelInfoP5fractiiiS4_+0xd1>:
     f7d:	b1a8           	l32i.n	a10, a1, 44
     f7f:	a04a40        	addx4	a4, a10, a4
     f82:	ffe6c6        	j	f21 <_Z26CLongBlock_FrequencyToTimeP28CAacDecoderStaticChannelInfoP22CAacDecoderChannelInfoP5fractiiiS4_+0x75>

00000f85 <_Z26CLongBlock_FrequencyToTimeP28CAacDecoderStaticChannelInfoP22CAacDecoderChannelInfoP5fractiiiS4_+0xd9>:
     f85:	1102b2        	l8ui	a11, a2, 17
     f88:	239b00        	sext	a9, a11, 7
     f8b:	7bac           	beqz.n	a11, fb6 <_Z26CLongBlock_FrequencyToTimeP28CAacDecoderStaticChannelInfoP22CAacDecoderChannelInfoP5fractiiiS4_+0x10a>
     f8d:	253926        	beqi	a9, 3, fb6 <_Z26CLongBlock_FrequencyToTimeP28CAacDecoderStaticChannelInfoP22CAacDecoderChannelInfoP5fractiiiS4_+0x10a>
     f90:	021926        	beqi	a9, 1, f96 <_Z26CLongBlock_FrequencyToTimeP28CAacDecoderStaticChannelInfoP22CAacDecoderChannelInfoP5fractiiiS4_+0xea>
     f93:	392966        	bnei	a9, 2, fd0 <_Z26CLongBlock_FrequencyToTimeP28CAacDecoderStaticChannelInfoP22CAacDecoderChannelInfoP5fractiiiS4_+0x124>
     f96:	91d8           	l32i.n	a13, a1, 36
     f98:	81e8           	l32i.n	a14, a1, 32
     f9a:	07fd           	mov.n	a15, a7
     f9c:	05ad           	mov.n	a10, a5
     f9e:	06bd           	mov.n	a11, a6
     fa0:	5198           	l32i.n	a9, a1, 20
     fa2:	a1c8           	l32i.n	a12, a1, 40
     fa4:	fc2581        	l32r	a8, 38 (3ab8 <_Z19ShortLongLapIllegalP5fractS0_S0_PKjS2_ii>)
     fa7:	01c9           	s32i.n	a12, a1, 0
     fa9:	9349c0        	movnez	a4, a9, a12
     fac:	04cd           	mov.n	a12, a4
     fae:	0008e0        	callx8	a8
     fb1:	000646        	j	fce <_Z26CLongBlock_FrequencyToTimeP28CAacDecoderStaticChannelInfoP22CAacDecoderChannelInfoP5fractiiiS4_+0x122>

00000fb4 <_Z26CLongBlock_FrequencyToTimeP28CAacDecoderStaticChannelInfoP22CAacDecoderChannelInfoP5fractiiiS4_+0x108>:
	...

00000fb6 <_Z26CLongBlock_FrequencyToTimeP28CAacDecoderStaticChannelInfoP22CAacDecoderChannelInfoP5fractiiiS4_+0x10a>:
     fb6:	a1d8           	l32i.n	a13, a1, 40
     fb8:	1c9d16        	beqz	a13, 1185 <_Z26CLongBlock_FrequencyToTimeP28CAacDecoderStaticChannelInfoP22CAacDecoderChannelInfoP5fractiiiS4_+0x2d9>
     fbb:	91d8           	l32i.n	a13, a1, 36
     fbd:	07fd           	mov.n	a15, a7
     fbf:	05ad           	mov.n	a10, a5
     fc1:	06bd           	mov.n	a11, a6
     fc3:	fc1e81        	l32r	a8, 3c (778 <_Z10Lap1_shortP5fractS0_PsPKjii>)
     fc6:	51c8           	l32i.n	a12, a1, 20
     fc8:	00a2e2        	movi	a14, 0x200
     fcb:	0008e0        	callx8	a8

00000fce <_Z26CLongBlock_FrequencyToTimeP28CAacDecoderStaticChannelInfoP22CAacDecoderChannelInfoP5fractiiiS4_+0x122>:
     fce:	03c8           	l32i.n	a12, a3, 0

00000fd0 <_Z26CLongBlock_FrequencyToTimeP28CAacDecoderStaticChannelInfoP22CAacDecoderChannelInfoP5fractiiiS4_+0x124>:
     fd0:	f8c582        	addi	a8, a5, -8
     fd3:	f8c692        	addi	a9, a6, -8
     fd6:	00a1a2        	movi	a10, 0x100
     fd9:	058a76        	loop	a10, fe2 <_Z26CLongBlock_FrequencyToTimeP28CAacDecoderStaticChannelInfoP22CAacDecoderChannelInfoP5fractiiiS4_+0x136>
     fdc:	548814        	ae_lp24x2.iu	aep0, a8, 8
     fdf:	568914        	ae_sp24x2s.iu	aep0, a9, 8

00000fe2 <_Z26CLongBlock_FrequencyToTimeP28CAacDecoderStaticChannelInfoP22CAacDecoderChannelInfoP5fractiiiS4_+0x136>:
     fe2:	030cf2        	l8ui	a15, a12, 3
     fe5:	020c82        	l8ui	a8, a12, 2
     fe8:	104282        	s8i	a8, a2, 16
     feb:	1142f2        	s8i	a15, a2, 17
     fee:	f01d           	retw.n

00000ff0 <_Z26CLongBlock_FrequencyToTimeP28CAacDecoderStaticChannelInfoP22CAacDecoderChannelInfoP5fractiiiS4_+0x144>:
	...

00000ff1 <_Z26CLongBlock_FrequencyToTimeP28CAacDecoderStaticChannelInfoP22CAacDecoderChannelInfoP5fractiiiS4_+0x145>:
     ff1:	1102a2        	l8ui	a10, a2, 17
     ff4:	239a00        	sext	a9, a10, 7
     ff7:	0dda16        	beqz	a10, 10d8 <_Z26CLongBlock_FrequencyToTimeP28CAacDecoderStaticChannelInfoP22CAacDecoderChannelInfoP5fractiiiS4_+0x22c>
     ffa:	fdc9b2        	addi	a11, a9, -3
     ffd:	0d7b16        	beqz	a11, 10d8 <_Z26CLongBlock_FrequencyToTimeP28CAacDecoderStaticChannelInfoP22CAacDecoderChannelInfoP5fractiiiS4_+0x22c>
    1000:	c90b           	addi.n	a12, a9, -1
    1002:	15fc16        	beqz	a12, 1165 <_Z26CLongBlock_FrequencyToTimeP28CAacDecoderStaticChannelInfoP22CAacDecoderChannelInfoP5fractiiiS4_+0x2b9>
    1005:	fec9d2        	addi	a13, a9, -2
    1008:	159d16        	beqz	a13, 1165 <_Z26CLongBlock_FrequencyToTimeP28CAacDecoderStaticChannelInfoP22CAacDecoderChannelInfoP5fractiiiS4_+0x2b9>

0000100b <_Z26CLongBlock_FrequencyToTimeP28CAacDecoderStaticChannelInfoP22CAacDecoderChannelInfoP5fractiiiS4_+0x15f>:
    100b:	01d5a2        	addmi	a10, a5, 0x100
    100e:	fc0c81        	l32r	a8, 40 (e70 <_Z6NoLap1P5fractS0_i>)
    1011:	06bd           	mov.n	a11, a6
    1013:	1c0c           	movi.n	a12, 1
    1015:	0008e0        	callx8	a8
    1018:	05ad           	mov.n	a10, a5
    101a:	fc0a81        	l32r	a8, 44 (da4 <_Z8StartLapP5fractS0_i>)
    101d:	07d6b2        	addmi	a11, a6, 0x700
    1020:	1c0c           	movi.n	a12, 1
    1022:	0008e0        	callx8	a8
    1025:	0398           	l32i.n	a9, a3, 0
    1027:	0209a2        	l8ui	a10, a9, 2
    102a:	1042a2        	s8i	a10, a2, 16
    102d:	030992        	l8ui	a9, a9, 3
    1030:	114292        	s8i	a9, a2, 17
    1033:	f01d           	retw.n

00001035 <_Z26CLongBlock_FrequencyToTimeP28CAacDecoderStaticChannelInfoP22CAacDecoderChannelInfoP5fractiiiS4_+0x189>:
    1035:	edcb16        	beqz	a11, f15 <_Z26CLongBlock_FrequencyToTimeP28CAacDecoderStaticChannelInfoP22CAacDecoderChannelInfoP5fractiiiS4_+0x69>
    1038:	f8c582        	addi	a8, a5, -8
    103b:	00a192        	movi	a9, 0x100
    103e:	60c0b0        	neg	a12, a11
    1041:	0316c4        	wur.ae_sar	a12
    1044:	f03d           	nop.n
    1046:	0f8976        	loop	a9, 1059 <_Z26CLongBlock_FrequencyToTimeP28CAacDecoderStaticChannelInfoP22CAacDecoderChannelInfoP5fractiiiS4_+0x1ad>
    1049:	540814        	ae_lp24x2.i	aep0, a8, 8
    104c:	f8a3f0082f 	{ ae_lp24x2.i	aep0, a8, 16; ae_srasp24	aep1, aep0 }
    1051:	f8a3b7181f 	{ ae_sp24x2s.i	aep1, a8, 8; ae_srasp24	aep0, aep0 }
    1056:	568824        	ae_sp24x2s.iu	aep0, a8, 16

00001059 <_Z26CLongBlock_FrequencyToTimeP28CAacDecoderStaticChannelInfoP22CAacDecoderChannelInfoP5fractiiiS4_+0x1ad>:
    1059:	ffae06        	j	f15 <_Z26CLongBlock_FrequencyToTimeP28CAacDecoderStaticChannelInfoP22CAacDecoderChannelInfoP5fractiiiS4_+0x69>

0000105c <_Z26CLongBlock_FrequencyToTimeP28CAacDecoderStaticChannelInfoP22CAacDecoderChannelInfoP5fractiiiS4_+0x1b0>:
	...

0000105d <_Z26CLongBlock_FrequencyToTimeP28CAacDecoderStaticChannelInfoP22CAacDecoderChannelInfoP5fractiiiS4_+0x1b1>:
    105d:	11b7f0        	slli	a11, a7, 1
    1060:	f8c6e2        	addi	a14, a6, -8
    1063:	08d5f2        	addmi	a15, a5, 0x800
    1066:	a1d8           	l32i.n	a13, a1, 40
    1068:	61f9           	s32i.n	a15, a1, 24
    106a:	71e9           	s32i.n	a14, a1, 28
    106c:	0a8d16        	beqz	a13, 1118 <_Z26CLongBlock_FrequencyToTimeP28CAacDecoderStaticChannelInfoP22CAacDecoderChannelInfoP5fractiiiS4_+0x26c>
    106f:	11bbf0        	slli	a11, a11, 1
    1072:	5148           	l32i.n	a4, a1, 20
    1074:	0e8d           	mov.n	a8, a14
    1076:	54b814        	ae_lp24x2.iu	aep3, a8, 8
    1079:	c80e80dfcf 	{ movi	a12, 223; ae_sllisp24s	aep0, aep3, 1 }
    107e:	dd6d11a74f 	{ addx2	a10, a7, a4; ae_selp24.hh	aep2, aep3, aep3 }
    1083:	c80ad5aabf 	{ sub	a10, a10, a11; ae_sllisp24s	aep1, aep2, 1 }
    1088:	f807d594bf 	{ sub	a9, a4, a11; ae_roundsp16sym	aep1, aep1 }
    108d:	148c76        	loop	a12, 10a5 <_Z26CLongBlock_FrequencyToTimeP28CAacDecoderStaticChannelInfoP22CAacDecoderChannelInfoP5fractiiiS4_+0x1f9>
    1090:	f903b0881f 	{ ae_lp24x2.iu	aep0, a8, 8; ae_roundsp16sym	aep2, aep0 }
    1095:	dc016399bf 	{ ae_sp16f.l.xu	aep1, a9, a11; ae_selp24.hh	aep1, aep0, aep0 }
    109a:	c802a3aabf 	{ ae_sp16f.l.xu	aep2, a10, a11; ae_sllisp24s	aep0, aep0, 1 }
    109f:	0b90a4        	ae_sllisp24s	aep2, aep1, 1
    10a2:	092094        	ae_roundsp16sym	aep1, aep2

000010a5 <_Z26CLongBlock_FrequencyToTimeP28CAacDecoderStaticChannelInfoP22CAacDecoderChannelInfoP5fractiiiS4_+0x1f9>:
    10a5:	81d8           	l32i.n	a13, a1, 32
    10a7:	07ed           	mov.n	a14, a7
    10a9:	0bcd           	mov.n	a12, a11
    10ab:	fbe781        	l32r	a8, 48 (c84 <_Z13StopLap_shortP5fractS0_PsPKji>)
    10ae:	06bd           	mov.n	a11, a6
    10b0:	fa03a399cf 	{ ae_sp16f.l.xu	aep1, a9, a12; ae_roundsp16sym	aep4, aep0 }
    10b5:	43cac4        	ae_sp16f.l.xu	aep4, a10, a12
    10b8:	05ad           	mov.n	a10, a5
    10ba:	20c440        	or	a12, a4, a4
    10bd:	0008e0        	callx8	a8
    10c0:	61a8           	l32i.n	a10, a1, 24
    10c2:	07cd           	mov.n	a12, a7
    10c4:	b0b770        	addx8	a11, a7, a7
    10c7:	fbe181        	l32r	a8, 4c (e20 <_Z12NoLap2_shortP5fractPsi>)
    10ca:	11bb90        	slli	a11, a11, 7
    10cd:	b4ba           	add.n	a11, a4, a11
    10cf:	0008e0        	callx8	a8

000010d2 <_Z26CLongBlock_FrequencyToTimeP28CAacDecoderStaticChannelInfoP22CAacDecoderChannelInfoP5fractiiiS4_+0x226>:
    10d2:	03c8           	l32i.n	a12, a3, 0
    10d4:	ff9e46        	j	f51 <_Z26CLongBlock_FrequencyToTimeP28CAacDecoderStaticChannelInfoP22CAacDecoderChannelInfoP5fractiiiS4_+0xa5>

000010d7 <_Z26CLongBlock_FrequencyToTimeP28CAacDecoderStaticChannelInfoP22CAacDecoderChannelInfoP5fractiiiS4_+0x22b>:
	...

000010d8 <_Z26CLongBlock_FrequencyToTimeP28CAacDecoderStaticChannelInfoP22CAacDecoderChannelInfoP5fractiiiS4_+0x22c>:
    10d8:	a1c8           	l32i.n	a12, a1, 40
    10da:	0bfc16        	beqz	a12, 119d <_Z26CLongBlock_FrequencyToTimeP28CAacDecoderStaticChannelInfoP22CAacDecoderChannelInfoP5fractiiiS4_+0x2f1>
    10dd:	07fd           	mov.n	a15, a7
    10df:	91d8           	l32i.n	a13, a1, 36
    10e1:	05ad           	mov.n	a10, a5
    10e3:	06bd           	mov.n	a11, a6
    10e5:	fbd581        	l32r	a8, 3c (778 <_Z10Lap1_shortP5fractS0_PsPKjii>)
    10e8:	51c8           	l32i.n	a12, a1, 20
    10ea:	00a2e2        	movi	a14, 0x200
    10ed:	0008e0        	callx8	a8
    10f0:	ffc5c6        	j	100b <_Z26CLongBlock_FrequencyToTimeP28CAacDecoderStaticChannelInfoP22CAacDecoderChannelInfoP5fractiiiS4_+0x15f>

000010f3 <_Z26CLongBlock_FrequencyToTimeP28CAacDecoderStaticChannelInfoP22CAacDecoderChannelInfoP5fractiiiS4_+0x247>:
    10f3:	91d8           	l32i.n	a13, a1, 36
    10f5:	81e8           	l32i.n	a14, a1, 32
    10f7:	07fd           	mov.n	a15, a7
    10f9:	05ad           	mov.n	a10, a5
    10fb:	06bd           	mov.n	a11, a6
    10fd:	5198           	l32i.n	a9, a1, 20
    10ff:	a1c8           	l32i.n	a12, a1, 40
    1101:	fbd381        	l32r	a8, 50 (3898 <_Z19LongShortLapIllegalP5fractS0_S0_PKjS2_ii>)
    1104:	01c9           	s32i.n	a12, a1, 0
    1106:	9349c0        	movnez	a4, a9, a12
    1109:	04cd           	mov.n	a12, a4
    110b:	0008e0        	callx8	a8
    110e:	03c8           	l32i.n	a12, a3, 0
    1110:	f8c6d2        	addi	a13, a6, -8
    1113:	71d9           	s32i.n	a13, a1, 28
    1115:	ff8e06        	j	f51 <_Z26CLongBlock_FrequencyToTimeP28CAacDecoderStaticChannelInfoP22CAacDecoderChannelInfoP5fractiiiS4_+0xa5>

00001118 <_Z26CLongBlock_FrequencyToTimeP28CAacDecoderStaticChannelInfoP22CAacDecoderChannelInfoP5fractiiiS4_+0x26c>:
    1118:	0e8d           	mov.n	a8, a14
    111a:	e0a0c2        	movi	a12, 224
    111d:	a0a740        	addx4	a10, a7, a4
    1120:	11bbe0        	slli	a11, a11, 2
    1123:	c094b0        	sub	a9, a4, a11
    1126:	c0aab0        	sub	a10, a10, a11
    1129:	108c76        	loop	a12, 113d <_Z26CLongBlock_FrequencyToTimeP28CAacDecoderStaticChannelInfoP22CAacDecoderChannelInfoP5fractiiiS4_+0x291>
    112c:	548814        	ae_lp24x2.iu	aep0, a8, 8
    112f:	1a8894        	ae_selp24.hh	aep1, aep0, aep0
    1132:	0b9094        	ae_sllisp24s	aep1, aep1, 1
    1135:	c802a699bf 	{ ae_sp24f.l.xu	aep1, a9, a11; ae_sllisp24s	aep0, aep0, 1 }
    113a:	538ab4        	ae_sp24f.l.xu	aep0, a10, a11

0000113d <_Z26CLongBlock_FrequencyToTimeP28CAacDecoderStaticChannelInfoP22CAacDecoderChannelInfoP5fractiiiS4_+0x291>:
    113d:	06bd           	mov.n	a11, a6
    113f:	81d8           	l32i.n	a13, a1, 32
    1141:	05ad           	mov.n	a10, a5
    1143:	fbc481        	l32r	a8, 54 (b78 <_Z7StopLapP5fractS0_S0_PKji>)
    1146:	04cd           	mov.n	a12, a4
    1148:	20e770        	or	a14, a7, a7
    114b:	0008e0        	callx8	a8
    114e:	61a8           	l32i.n	a10, a1, 24
    1150:	07cd           	mov.n	a12, a7
    1152:	b0b770        	addx8	a11, a7, a7
    1155:	fbc081        	l32r	a8, 58 (dd8 <_Z6NoLap2P5fractS0_i>)
    1158:	11bb80        	slli	a11, a11, 8
    115b:	b4ba           	add.n	a11, a4, a11
    115d:	0008e0        	callx8	a8
    1160:	ffdb86        	j	10d2 <_Z26CLongBlock_FrequencyToTimeP28CAacDecoderStaticChannelInfoP22CAacDecoderChannelInfoP5fractiiiS4_+0x226>

00001163 <_Z26CLongBlock_FrequencyToTimeP28CAacDecoderStaticChannelInfoP22CAacDecoderChannelInfoP5fractiiiS4_+0x2b7>:
	...

00001165 <_Z26CLongBlock_FrequencyToTimeP28CAacDecoderStaticChannelInfoP22CAacDecoderChannelInfoP5fractiiiS4_+0x2b9>:
    1165:	07fd           	mov.n	a15, a7
    1167:	91d8           	l32i.n	a13, a1, 36
    1169:	81e8           	l32i.n	a14, a1, 32
    116b:	05ad           	mov.n	a10, a5
    116d:	06bd           	mov.n	a11, a6
    116f:	5198           	l32i.n	a9, a1, 20
    1171:	a1c8           	l32i.n	a12, a1, 40
    1173:	fbb181        	l32r	a8, 38 (3ab8 <_Z19ShortLongLapIllegalP5fractS0_S0_PKjS2_ii>)
    1176:	01c9           	s32i.n	a12, a1, 0
    1178:	9349c0        	movnez	a4, a9, a12
    117b:	04cd           	mov.n	a12, a4
    117d:	0008e0        	callx8	a8
    1180:	ffa1c6        	j	100b <_Z26CLongBlock_FrequencyToTimeP28CAacDecoderStaticChannelInfoP22CAacDecoderChannelInfoP5fractiiiS4_+0x15f>

00001183 <_Z26CLongBlock_FrequencyToTimeP28CAacDecoderStaticChannelInfoP22CAacDecoderChannelInfoP5fractiiiS4_+0x2d7>:
	...

00001185 <_Z26CLongBlock_FrequencyToTimeP28CAacDecoderStaticChannelInfoP22CAacDecoderChannelInfoP5fractiiiS4_+0x2d9>:
    1185:	04cd           	mov.n	a12, a4
    1187:	91d8           	l32i.n	a13, a1, 36
    1189:	07fd           	mov.n	a15, a7
    118b:	05ad           	mov.n	a10, a5
    118d:	fbb381        	l32r	a8, 5c (618 <_Z4Lap1P5fractS0_S0_PKjii>)
    1190:	06bd           	mov.n	a11, a6
    1192:	00a2e2        	movi	a14, 0x200
    1195:	0008e0        	callx8	a8
    1198:	ff8c86        	j	fce <_Z26CLongBlock_FrequencyToTimeP28CAacDecoderStaticChannelInfoP22CAacDecoderChannelInfoP5fractiiiS4_+0x122>

0000119b <_Z26CLongBlock_FrequencyToTimeP28CAacDecoderStaticChannelInfoP22CAacDecoderChannelInfoP5fractiiiS4_+0x2ef>:
	...

0000119d <_Z26CLongBlock_FrequencyToTimeP28CAacDecoderStaticChannelInfoP22CAacDecoderChannelInfoP5fractiiiS4_+0x2f1>:
    119d:	07fd           	mov.n	a15, a7
    119f:	04cd           	mov.n	a12, a4
    11a1:	91d8           	l32i.n	a13, a1, 36
    11a3:	05ad           	mov.n	a10, a5
    11a5:	fbad81        	l32r	a8, 5c (618 <_Z4Lap1P5fractS0_S0_PKjii>)
    11a8:	06bd           	mov.n	a11, a6
    11aa:	00a2e2        	movi	a14, 0x200
    11ad:	0008e0        	callx8	a8
    11b0:	ff95c6        	j	100b <_Z26CLongBlock_FrequencyToTimeP28CAacDecoderStaticChannelInfoP22CAacDecoderChannelInfoP5fractiiiS4_+0x15f>

000011b3 <_Z26CLongBlock_FrequencyToTimeP28CAacDecoderStaticChannelInfoP22CAacDecoderChannelInfoP5fractiiiS4_+0x307>:
	...

000011b4 <_Z28CLongBlock_ScaleSpectralDataP22CAacDecoderChannelInfo>:
    11b4:	004136        	entry	a1, 32
    11b7:	0258           	l32i.n	a5, a2, 0
    11b9:	02bd           	mov.n	a11, a2
    11bb:	9298           	l32i.n	a9, a2, 36
    11bd:	070522        	l8ui	a2, a5, 7
    11c0:	8b68           	l32i.n	a6, a11, 32
    11c2:	7bc8           	l32i.n	a12, a11, 28
    11c4:	232200        	sext	a2, a2, 7
    11c7:	02b2a6        	blti	a2, 16, 11cd <_Z28CLongBlock_ScaleSpectralDataP22CAacDecoderChannelInfo+0x19>
    11ca:	0023c6        	j	125d <_Z28CLongBlock_ScaleSpectralDataP22CAacDecoderChannelInfo+0xa9>
    11cd:	401604        	ae_lp16f.i	aep1, a6, 0
    11d0:	fba4a1        	l32r	a10, 60 (109f0 <SamplingRateInfoTable>)
    11d3:	a08220        	addx4	a8, a2, a2
    11d6:	030542        	l8ui	a4, a5, 3
    11d9:	060522        	l8ui	a2, a5, 6
    11dc:	a088a0        	addx4	a8, a8, a10
    11df:	2838           	l32i.n	a3, a8, 8
    11e1:	4888           	l32i.n	a8, a8, 16
    11e3:	fec442        	addi	a4, a4, -2
    11e6:	232200        	sext	a2, a2, 7
    11e9:	938340        	movnez	a8, a3, a4
    11ec:	1212a6        	blti	a2, 1, 1202 <_Z28CLongBlock_ScaleSpectralDataP22CAacDecoderChannelInfo+0x4e>
    11ef:	320b           	addi.n	a3, a2, -1
    11f1:	fec922        	addi	a2, a9, -2
    11f4:	408214        	ae_lp16f.iu	aep0, a2, 2
    11f7:	04a376        	loopgtz	a3, 11ff <_Z28CLongBlock_ScaleSpectralDataP22CAacDecoderChannelInfo+0x4b>
    11fa:	d8066c821f 	{ ae_lp16f.iu	aep0, a2, 2; ae_maxp24s	aep1, aep1, aep0 }

000011ff <_Z28CLongBlock_ScaleSpectralDataP22CAacDecoderChannelInfo+0x4b>:
    11ff:	071814        	ae_maxp24s	aep1, aep1, aep0

00001202 <_Z28CLongBlock_ScaleSpectralDataP22CAacDecoderChannelInfo+0x4e>:
    1202:	1bf8           	l32i.n	a15, a11, 4
    1204:	361224        	ae_trunca16p24s.l	a2, aep1
    1207:	000ff2        	l8ui	a15, a15, 0
    120a:	e22b           	addi.n	a14, a2, 2
    120c:	932ef0        	movnez	a2, a14, a15
    120f:	662d           	ae_s16i.n	a2, a6, 0
    1211:	0605d2        	l8ui	a13, a5, 6
    1214:	23dd00        	sext	a13, a13, 7
    1217:	421da6        	blti	a13, 1, 125d <_Z28CLongBlock_ScaleSpectralDataP22CAacDecoderChannelInfo+0xa9>
    121a:	0a0c           	movi.n	a10, 0
    121c:	000506        	j	1234 <_Z28CLongBlock_ScaleSpectralDataP22CAacDecoderChannelInfo+0x80>

0000121f <_Z28CLongBlock_ScaleSpectralDataP22CAacDecoderChannelInfo+0x6b>:
    121f:	00000000                                ....

00001223 <_Z28CLongBlock_ScaleSpectralDataP22CAacDecoderChannelInfo+0x6f>:
    1223:	0b38           	l32i.n	a3, a11, 0
    1225:	882b           	addi.n	a8, a8, 2
    1227:	060332        	l8ui	a3, a3, 6
    122a:	992b           	addi.n	a9, a9, 2
    122c:	aa1b           	addi.n	a10, a10, 1
    122e:	233300        	sext	a3, a3, 7
    1231:	28aa37        	bge	a10, a3, 125d <_Z28CLongBlock_ScaleSpectralDataP22CAacDecoderChannelInfo+0xa9>

00001234 <_Z28CLongBlock_ScaleSpectralDataP22CAacDecoderChannelInfo+0x80>:
    1234:	294d           	ae_l16si.n	a4, a9, 0
    1236:	587d           	ae_l16ui.n	a7, a8, 2
    1238:	485d           	ae_l16ui.n	a5, a8, 0
    123a:	c04240        	sub	a4, a2, a4
    123d:	031644        	wur.ae_sar	a4
    1240:	dfa577        	bge	a5, a7, 1223 <_Z28CLongBlock_ScaleSpectralDataP22CAacDecoderChannelInfo+0x6f>
    1243:	a065c0        	addx4	a6, a5, a12
    1246:	f8c662        	addi	a6, a6, -8
    1249:	0d8076        	loop	a0, 125a <_Z28CLongBlock_ScaleSpectralDataP22CAacDecoderChannelInfo+0xa6>
    124c:	540614        	ae_lp24x2.i	aep0, a6, 8
    124f:	f8a380255e 	{ addi	a5, a5, 2; ae_srasp24	aep0, aep0 }
    1254:	568614        	ae_sp24x2s.iu	aep0, a6, 8
    1257:	c8a577        	bge	a5, a7, 1223 <_Z28CLongBlock_ScaleSpectralDataP22CAacDecoderChannelInfo+0x6f>

0000125a <_Z28CLongBlock_ScaleSpectralDataP22CAacDecoderChannelInfo+0xa6>:
    125a:	fffac6        	j	1249 <_Z28CLongBlock_ScaleSpectralDataP22CAacDecoderChannelInfo+0x95>

0000125d <_Z28CLongBlock_ScaleSpectralDataP22CAacDecoderChannelInfo+0xa9>:
    125d:	f01d           	retw.n

0000125f <_Z28CLongBlock_ScaleSpectralDataP22CAacDecoderChannelInfo+0xab>:
	...

00001260 <_Z10CPns_ApplyPP28CAacDecoderStaticChannelInfoPP22CAacDecoderChannelInfoi>:
    1260:	012136        	entry	a1, 144
    1263:	b129           	s32i.n	a2, a1, 44
    1265:	156132        	s32i	a3, a1, 84
    1268:	126142        	s32i	a4, a1, 72
    126b:	fb7fb1        	l32r	a11, 68 (b504f <_end+0xa4497>)
    126e:	a08430        	addx4	a8, a4, a3
    1271:	fb7ec1        	l32r	a12, 6c (9837f <_end+0x877c7>)
    1274:	fb7ca1        	l32r	a10, 64 (d7450 <_end+0xc6898>)
    1277:	fb7ed1        	l32r	a13, 70 (80000 <_end+0x6f448>)
    127a:	360d34        	ae_cvtq48a32s	aeq0, a13
    127d:	36ca34        	ae_cvtq48a32s	aeq3, a10
    1280:	364c34        	ae_cvtq48a32s	aeq1, a12
    1283:	186182        	s32i	a8, a1, 96
    1286:	368b34        	ae_cvtq48a32s	aeq2, a11
    1289:	0888           	l32i.n	a8, a8, 0
    128b:	35a214        	ae_slliq56	aeq2, aeq2, 8
    128e:	355214        	ae_slliq56	aeq1, aeq1, 8
    1291:	35f214        	ae_slliq56	aeq3, aeq3, 8
    1294:	ff84fa820f 	{ ae_slliq56	aeq0, aeq0, 8; ae_satq48s	aeq3, aeq3 }
    1299:	fc00fb32cf 	{ ae_sraiq56	aeq3, aeq3, 8; ae_satq48s	aeq0, aeq0 }
    129e:	fd04fb020f 	{ ae_sraiq56	aeq0, aeq0, 8; ae_satq48s	aeq1, aeq1 }
    12a3:	fe80fb124f 	{ ae_sraiq56	aeq1, aeq1, 8; ae_satq48s	aeq2, aeq2 }
    12a8:	35a234        	ae_sraiq56	aeq2, aeq2, 8
    12ab:	36aa04        	ae_trunca32q48	a10, aeq2
    12ae:	0898           	l32i.n	a9, a8, 0
    12b0:	369b04        	ae_trunca32q48	a11, aeq1
    12b3:	368c04        	ae_trunca32q48	a12, aeq0
    12b6:	01c9           	s32i.n	a12, a1, 0
    12b8:	11b9           	s32i.n	a11, a1, 4
    12ba:	5888           	l32i.n	a8, a8, 20
    12bc:	21a9           	s32i.n	a10, a1, 8
    12be:	166192        	s32i	a9, a1, 88
    12c1:	140882        	l8ui	a8, a8, 20
    12c4:	36b904        	ae_trunca32q48	a9, aeq3
    12c7:	3199           	s32i.n	a9, a1, 12
    12c9:	254816        	beqz	a8, 1521 <_Z10CPns_ApplyPP28CAacDecoderStaticChannelInfoPP22CAacDecoderChannelInfoi+0x2c1>
    12cc:	1621a2        	l32i	a10, a1, 88
    12cf:	fb64e1        	l32r	a14, 60 (109f0 <SamplingRateInfoTable>)
    12d2:	070ad2        	l8ui	a13, a10, 7
    12d5:	030af2        	l8ui	a15, a10, 3
    12d8:	090aa2        	l8ui	a10, a10, 9
    12db:	23dd00        	sext	a13, a13, 7
    12de:	a0ddd0        	addx4	a13, a13, a13
    12e1:	a0dde0        	addx4	a13, a13, a14
    12e4:	2de8           	l32i.n	a14, a13, 8
    12e6:	4dd8           	l32i.n	a13, a13, 16
    12e8:	fecff2        	addi	a15, a15, -2
    12eb:	23aa00        	sext	a10, a10, 7
    12ee:	93def0        	movnez	a13, a14, a15
    12f1:	e1d9           	s32i.n	a13, a1, 56
    12f3:	021ae6        	bgei	a10, 1, 12f9 <_Z10CPns_ApplyPP28CAacDecoderStaticChannelInfoPP22CAacDecoderChannelInfoi+0x99>
    12f6:	008d86        	j	1530 <_Z10CPns_ApplyPP28CAacDecoderStaticChannelInfoPP22CAacDecoderChannelInfoi+0x2d0>
    12f9:	0c0c           	movi.n	a12, 0
    12fb:	0d0c           	movi.n	a13, 0
    12fd:	0e0c           	movi.n	a14, 0
    12ff:	a0f420        	addx4	a15, a4, a2
    1302:	a1f9           	s32i.n	a15, a1, 40
    1304:	d1e9           	s32i.n	a14, a1, 52
    1306:	1761d2        	s32i	a13, a1, 92
    1309:	1061c2        	s32i	a12, a1, 64
    130c:	000806        	j	1330 <_Z10CPns_ApplyPP28CAacDecoderStaticChannelInfoPP22CAacDecoderChannelInfoi+0xd0>

0000130f <_Z10CPns_ApplyPP28CAacDecoderStaticChannelInfoPP22CAacDecoderChannelInfoi+0xaf>:
    130f:	000000                                        ...

00001312 <_Z10CPns_ApplyPP28CAacDecoderStaticChannelInfoPP22CAacDecoderChannelInfoi+0xb2>:
    1312:	1621a2        	l32i	a10, a1, 88
    1315:	090aa2        	l8ui	a10, a10, 9
    1318:	23aa00        	sext	a10, a10, 7

0000131b <_Z10CPns_ApplyPP28CAacDecoderStaticChannelInfoPP22CAacDecoderChannelInfoi+0xbb>:
    131b:	1721b2        	l32i	a11, a1, 92
    131e:	d1c8           	l32i.n	a12, a1, 52
    1320:	bb1b           	addi.n	a11, a11, 1
    1322:	20ccc2        	addi	a12, a12, 32
    1325:	d1c9           	s32i.n	a12, a1, 52
    1327:	1761b2        	s32i	a11, a1, 92
    132a:	022ba7        	blt	a11, a10, 1330 <_Z10CPns_ApplyPP28CAacDecoderStaticChannelInfoPP22CAacDecoderChannelInfoi+0xd0>
    132d:	007686        	j	150b <_Z10CPns_ApplyPP28CAacDecoderStaticChannelInfoPP22CAacDecoderChannelInfoi+0x2ab>

00001330 <_Z10CPns_ApplyPP28CAacDecoderStaticChannelInfoPP22CAacDecoderChannelInfoi+0xd0>:
    1330:	1621e2        	l32i	a14, a1, 88
    1333:	1721d2        	l32i	a13, a1, 92
    1336:	ddea           	add.n	a13, a13, a14
    1338:	c1d9           	s32i.n	a13, a1, 48
    133a:	0a0dd2        	l8ui	a13, a13, 10
    133d:	23dd00        	sext	a13, a13, 7
    1340:	d71da6        	blti	a13, 1, 131b <_Z10CPns_ApplyPP28CAacDecoderStaticChannelInfoPP22CAacDecoderChannelInfoi+0xbb>
    1343:	040ea2        	l8ui	a10, a14, 4
    1346:	1021c2        	l32i	a12, a1, 64
    1349:	23aa00        	sext	a10, a10, 7
    134c:	11bc70        	slli	a11, a12, 9
    134f:	1161b2        	s32i	a11, a1, 68
    1352:	11ccf0        	slli	a12, a12, 1
    1355:	1361c2        	s32i	a12, a1, 76
    1358:	0b0c           	movi.n	a11, 0
    135a:	f1b9           	s32i.n	a11, a1, 60
    135c:	000a86        	j	138a <_Z10CPns_ApplyPP28CAacDecoderStaticChannelInfoPP22CAacDecoderChannelInfoi+0x12a>

0000135f <_Z10CPns_ApplyPP28CAacDecoderStaticChannelInfoPP22CAacDecoderChannelInfoi+0xff>:
	...

00001360 <_Z10CPns_ApplyPP28CAacDecoderStaticChannelInfoPP22CAacDecoderChannelInfoi+0x100>:
    1360:	c1d8           	l32i.n	a13, a1, 48
    1362:	0a0dd2        	l8ui	a13, a13, 10
    1365:	23dd00        	sext	a13, a13, 7

00001368 <_Z10CPns_ApplyPP28CAacDecoderStaticChannelInfoPP22CAacDecoderChannelInfoi+0x108>:
    1368:	102192        	l32i	a9, a1, 64
    136b:	f1e8           	l32i.n	a14, a1, 60
    136d:	1121f2        	l32i	a15, a1, 68
    1370:	132182        	l32i	a8, a1, 76
    1373:	ee1b           	addi.n	a14, a14, 1
    1375:	02dff2        	addmi	a15, a15, 0x200
    1378:	882b           	addi.n	a8, a8, 2
    137a:	991b           	addi.n	a9, a9, 1
    137c:	106192        	s32i	a9, a1, 64
    137f:	136182        	s32i	a8, a1, 76
    1382:	1161f2        	s32i	a15, a1, 68
    1385:	f1e9           	s32i.n	a14, a1, 60
    1387:	87aed7        	bge	a14, a13, 1312 <_Z10CPns_ApplyPP28CAacDecoderStaticChannelInfoPP22CAacDecoderChannelInfoi+0xb2>

0000138a <_Z10CPns_ApplyPP28CAacDecoderStaticChannelInfoPP22CAacDecoderChannelInfoi+0x12a>:
    138a:	1821c2        	l32i	a12, a1, 96
    138d:	0cc8           	l32i.n	a12, a12, 0
    138f:	1121b2        	l32i	a11, a1, 68
    1392:	7cc8           	l32i.n	a12, a12, 28
    1394:	bbca           	add.n	a11, a11, a12
    1396:	1461b2        	s32i	a11, a1, 80
    1399:	cb1aa6        	blti	a10, 1, 1368 <_Z10CPns_ApplyPP28CAacDecoderStaticChannelInfoPP22CAacDecoderChannelInfoi+0x108>
    139c:	d138           	l32i.n	a3, a1, 52
    139e:	040c           	movi.n	a4, 0
    13a0:	e1d8           	l32i.n	a13, a1, 56
    13a2:	1a61d2        	s32i	a13, a1, 104
    13a5:	000fc6        	j	13e8 <_Z10CPns_ApplyPP28CAacDecoderStaticChannelInfoPP22CAacDecoderChannelInfoi+0x188>

000013a8 <_Z10CPns_ApplyPP28CAacDecoderStaticChannelInfoPP22CAacDecoderChannelInfoi+0x148>:
	...

000013aa <_Z10CPns_ApplyPP28CAacDecoderStaticChannelInfoPP22CAacDecoderChannelInfoi+0x14a>:
    13aa:	6169           	s32i.n	a6, a1, 24
    13ac:	05bd           	mov.n	a11, a5
    13ae:	1521f2        	l32i	a15, a1, 84
    13b1:	18c1a2        	addi	a10, a1, 24
    13b4:	1421c2        	l32i	a12, a1, 80
    13b7:	0ff8           	l32i.n	a15, a15, 0
    13b9:	1a21e2        	l32i	a14, a1, 104
    13bc:	fb2e81        	l32r	a8, 74 (160c <_Z20GenerateRandomVector5fractiPS_iiPs>)
    13bf:	6ff8           	l32i.n	a15, a15, 24
    13c1:	4edd           	ae_l16ui.n	a13, a14, 0
    13c3:	5eed           	ae_l16ui.n	a14, a14, 2
    13c5:	ff3a           	add.n	a15, a15, a3
    13c7:	10cff2        	addi	a15, a15, 16
    13ca:	0008e0        	callx8	a8

000013cd <_Z10CPns_ApplyPP28CAacDecoderStaticChannelInfoPP22CAacDecoderChannelInfoi+0x16d>:
    13cd:	332b           	addi.n	a3, a3, 2
    13cf:	1621a2        	l32i	a10, a1, 88
    13d2:	1a21b2        	l32i	a11, a1, 104
    13d5:	441b           	addi.n	a4, a4, 1
    13d7:	040aa2        	l8ui	a10, a10, 4
    13da:	bb2b           	addi.n	a11, a11, 2
    13dc:	1a61b2        	s32i	a11, a1, 104
    13df:	23aa00        	sext	a10, a10, 7
    13e2:	0224a7        	blt	a4, a10, 13e8 <_Z10CPns_ApplyPP28CAacDecoderStaticChannelInfoPP22CAacDecoderChannelInfoi+0x188>
    13e5:	ffddc6        	j	1360 <_Z10CPns_ApplyPP28CAacDecoderStaticChannelInfoPP22CAacDecoderChannelInfoi+0x100>

000013e8 <_Z10CPns_ApplyPP28CAacDecoderStaticChannelInfoPP22CAacDecoderChannelInfoi+0x188>:
    13e8:	1721b2        	l32i	a11, a1, 92
    13eb:	1821a2        	l32i	a10, a1, 96
    13ee:	fb2281        	l32r	a8, 78 (1590 <_Z14CPns_IsPnsUsedP22CAacDecoderChannelInfoii>)
    13f1:	04cd           	mov.n	a12, a4
    13f3:	0aa8           	l32i.n	a10, a10, 0
    13f5:	0008e0        	callx8	a8
    13f8:	fd1a16        	beqz	a10, 13cd <_Z10CPns_ApplyPP28CAacDecoderStaticChannelInfoPP22CAacDecoderChannelInfoi+0x16d>
    13fb:	1821e2        	l32i	a14, a1, 96
    13fe:	0ee8           	l32i.n	a14, a14, 0
    1400:	ae58           	l32i.n	a5, a14, 40
    1402:	1321d2        	l32i	a13, a1, 76
    1405:	8ee8           	l32i.n	a14, a14, 32
    1407:	535a           	add.n	a5, a3, a5
    1409:	255d           	ae_l16si.n	a5, a5, 0
    140b:	ddea           	add.n	a13, a13, a14
    140d:	2d9d           	ae_l16si.n	a9, a13, 0
    140f:	146050        	extui	a6, a5, 0, 2
    1412:	215250        	srai	a5, a5, 2
    1415:	a06610        	addx4	a6, a6, a1
    1418:	0668           	l32i.n	a6, a6, 0
    141a:	c05950        	sub	a5, a9, a5
    141d:	fcc552        	addi	a5, a5, -4
    1420:	048596        	bltz	a5, 146c <_Z10CPns_ApplyPP28CAacDecoderStaticChannelInfoPP22CAacDecoderChannelInfoi+0x20c>

00001423 <_Z10CPns_ApplyPP28CAacDecoderStaticChannelInfoPP22CAacDecoderChannelInfoi+0x1c3>:
    1423:	1721b2        	l32i	a11, a1, 92
    1426:	1521a2        	l32i	a10, a1, 84
    1429:	fb1481        	l32r	a8, 7c (1548 <_Z17CPns_IsCorrelatedP22CAacDecoderChannelInfoii>)
    142c:	04cd           	mov.n	a12, a4
    142e:	0aa8           	l32i.n	a10, a10, 0
    1430:	0008e0        	callx8	a8
    1433:	0ada16        	beqz	a10, 14e4 <_Z10CPns_ApplyPP28CAacDecoderStaticChannelInfoPP22CAacDecoderChannelInfoi+0x284>
    1436:	1221b2        	l32i	a11, a1, 72
    1439:	f6db56        	bnez	a11, 13aa <_Z10CPns_ApplyPP28CAacDecoderStaticChannelInfoPP22CAacDecoderChannelInfoi+0x14a>
    143c:	05bd           	mov.n	a11, a5
    143e:	14c1a2        	addi	a10, a1, 20
    1441:	1421c2        	l32i	a12, a1, 80
    1444:	1521d2        	l32i	a13, a1, 84
    1447:	b198           	l32i.n	a9, a1, 44
    1449:	fb0a81        	l32r	a8, 74 (160c <_Z20GenerateRandomVector5fractiPS_iiPs>)
    144c:	0dd8           	l32i.n	a13, a13, 0
    144e:	0998           	l32i.n	a9, a9, 0
    1450:	1a21e2        	l32i	a14, a1, 104
    1453:	6dd8           	l32i.n	a13, a13, 24
    1455:	18c9f2        	addi	a15, a9, 24
    1458:	0c9992        	l16si	a9, a9, 24
    145b:	dd3a           	add.n	a13, a13, a3
    145d:	085d92        	s16i	a9, a13, 16
    1460:	4edd           	ae_l16ui.n	a13, a14, 0
    1462:	5169           	s32i.n	a6, a1, 20
    1464:	5eed           	ae_l16ui.n	a14, a14, 2
    1466:	0008e0        	callx8	a8
    1469:	ffd806        	j	13cd <_Z10CPns_ApplyPP28CAacDecoderStaticChannelInfoPP22CAacDecoderChannelInfoi+0x16d>

0000146c <_Z10CPns_ApplyPP28CAacDecoderStaticChannelInfoPP22CAacDecoderChannelInfoi+0x20c>:
    146c:	1621a2        	l32i	a10, a1, 88
    146f:	040aa2        	l8ui	a10, a10, 4
    1472:	23aa00        	sext	a10, a10, 7
    1475:	5f1aa6        	blti	a10, 1, 14d8 <_Z10CPns_ApplyPP28CAacDecoderStaticChannelInfoPP22CAacDecoderChannelInfoi+0x278>
    1478:	9169           	s32i.n	a6, a1, 36
    147a:	8159           	s32i.n	a5, a1, 32
    147c:	e178           	l32i.n	a7, a1, 56
    147e:	602050        	neg	a2, a5
    1481:	0b0c           	movi.n	a11, 0
    1483:	1961b2        	s32i	a11, a1, 100

00001486 <_Z10CPns_ApplyPP28CAacDecoderStaticChannelInfoPP22CAacDecoderChannelInfoi+0x226>:
    1486:	578d           	ae_l16ui.n	a8, a7, 2
    1488:	476d           	ae_l16ui.n	a6, a7, 0
    148a:	142152        	l32i	a5, a1, 80
    148d:	f03d           	nop.n
    148f:	26a687        	bge	a6, a8, 14b9 <_Z10CPns_ApplyPP28CAacDecoderStaticChannelInfoPP22CAacDecoderChannelInfoi+0x259>
    1492:	a05650        	addx4	a5, a6, a5

00001495 <_Z10CPns_ApplyPP28CAacDecoderStaticChannelInfoPP22CAacDecoderChannelInfoi+0x235>:
    1495:	10c1a2        	addi	a10, a1, 16
    1498:	fafa81        	l32r	a8, 80 (77d0 <_ZNK5fractrsEi>)
    149b:	05bd           	mov.n	a11, a5
    149d:	20c220        	or	a12, a2, a2
    14a0:	0008e0        	callx8	a8
    14a3:	661b           	addi.n	a6, a6, 1
    14a5:	41a8           	l32i.n	a10, a1, 16
    14a7:	579d           	ae_l16ui.n	a9, a7, 2
    14a9:	05a9           	s32i.n	a10, a5, 0
    14ab:	554b           	addi.n	a5, a5, 4
    14ad:	e42697        	blt	a6, a9, 1495 <_Z10CPns_ApplyPP28CAacDecoderStaticChannelInfoPP22CAacDecoderChannelInfoi+0x235>
    14b0:	1621a2        	l32i	a10, a1, 88
    14b3:	040aa2        	l8ui	a10, a10, 4
    14b6:	23aa00        	sext	a10, a10, 7

000014b9 <_Z10CPns_ApplyPP28CAacDecoderStaticChannelInfoPP22CAacDecoderChannelInfoi+0x259>:
    14b9:	1921b2        	l32i	a11, a1, 100
    14bc:	772b           	addi.n	a7, a7, 2
    14be:	bb1b           	addi.n	a11, a11, 1
    14c0:	1961b2        	s32i	a11, a1, 100
    14c3:	bf2ba7        	blt	a11, a10, 1486 <_Z10CPns_ApplyPP28CAacDecoderStaticChannelInfoPP22CAacDecoderChannelInfoi+0x226>
    14c6:	1821e2        	l32i	a14, a1, 96
    14c9:	0ee8           	l32i.n	a14, a14, 0
    14cb:	1321d2        	l32i	a13, a1, 76
    14ce:	8ee8           	l32i.n	a14, a14, 32
    14d0:	8158           	l32i.n	a5, a1, 32
    14d2:	9168           	l32i.n	a6, a1, 36
    14d4:	ddea           	add.n	a13, a13, a14
    14d6:	2d9d           	ae_l16si.n	a9, a13, 0

000014d8 <_Z10CPns_ApplyPP28CAacDecoderStaticChannelInfoPP22CAacDecoderChannelInfoi+0x278>:
    14d8:	c0f950        	sub	a15, a9, a5
    14db:	6dfd           	ae_s16i.n	a15, a13, 0
    14dd:	050c           	movi.n	a5, 0
    14df:	ffd006        	j	1423 <_Z10CPns_ApplyPP28CAacDecoderStaticChannelInfoPP22CAacDecoderChannelInfoi+0x1c3>

000014e2 <_Z10CPns_ApplyPP28CAacDecoderStaticChannelInfoPP22CAacDecoderChannelInfoi+0x282>:
	...

000014e4 <_Z10CPns_ApplyPP28CAacDecoderStaticChannelInfoPP22CAacDecoderChannelInfoi+0x284>:
    14e4:	9169           	s32i.n	a6, a1, 36
    14e6:	8159           	s32i.n	a5, a1, 32
    14e8:	05bd           	mov.n	a11, a5
    14ea:	1cc1a2        	addi	a10, a1, 28
    14ed:	1421c2        	l32i	a12, a1, 80
    14f0:	1a21e2        	l32i	a14, a1, 104
    14f3:	a1f8           	l32i.n	a15, a1, 40
    14f5:	068d           	mov.n	a8, a6
    14f7:	7189           	s32i.n	a8, a1, 28
    14f9:	0ff8           	l32i.n	a15, a15, 0
    14fb:	4edd           	ae_l16ui.n	a13, a14, 0
    14fd:	fadd81        	l32r	a8, 74 (160c <_Z20GenerateRandomVector5fractiPS_iiPs>)
    1500:	5eed           	ae_l16ui.n	a14, a14, 2
    1502:	18cff2        	addi	a15, a15, 24
    1505:	0008e0        	callx8	a8
    1508:	ffb046        	j	13cd <_Z10CPns_ApplyPP28CAacDecoderStaticChannelInfoPP22CAacDecoderChannelInfoi+0x16d>

0000150b <_Z10CPns_ApplyPP28CAacDecoderStaticChannelInfoPP22CAacDecoderChannelInfoi+0x2ab>:
    150b:	a198           	l32i.n	a9, a1, 40
    150d:	0998           	l32i.n	a9, a9, 0
    150f:	0d9982        	l16si	a8, a9, 26
    1512:	0c99a2        	l16si	a10, a9, 24
    1515:	aa8a           	add.n	a10, a10, a8
    1517:	0c59a2        	s16i	a10, a9, 24
    151a:	881b           	addi.n	a8, a8, 1
    151c:	0d5982        	s16i	a8, a9, 26
    151f:	f01d           	retw.n

00001521 <_Z10CPns_ApplyPP28CAacDecoderStaticChannelInfoPP22CAacDecoderChannelInfoi+0x2c1>:
    1521:	a0b420        	addx4	a11, a4, a2
    1524:	0bb8           	l32i.n	a11, a11, 0
    1526:	0d9ba2        	l16si	a10, a11, 26
    1529:	aa1b           	addi.n	a10, a10, 1
    152b:	0d5ba2        	s16i	a10, a11, 26
    152e:	f01d           	retw.n

00001530 <_Z10CPns_ApplyPP28CAacDecoderStaticChannelInfoPP22CAacDecoderChannelInfoi+0x2d0>:
    1530:	a0e420        	addx4	a14, a4, a2
    1533:	0ee8           	l32i.n	a14, a14, 0
    1535:	0d9ed2        	l16si	a13, a14, 26
    1538:	0c9ef2        	l16si	a15, a14, 24
    153b:	ffda           	add.n	a15, a15, a13
    153d:	0c5ef2        	s16i	a15, a14, 24
    1540:	dd1b           	addi.n	a13, a13, 1
    1542:	0d5ed2        	s16i	a13, a14, 26
    1545:	f01d           	retw.n

00001547 <_Z10CPns_ApplyPP28CAacDecoderStaticChannelInfoPP22CAacDecoderChannelInfoi+0x2e7>:
	...

00001548 <_Z17CPns_IsCorrelatedP22CAacDecoderChannelInfoii>:
    1548:	004136        	entry	a1, 32
    154b:	6228           	l32i.n	a2, a2, 24
    154d:	1153c0        	slli	a5, a3, 4
    1550:	545a           	add.n	a5, a4, a5
    1552:	416350        	srli	a6, a5, 3
    1555:	245050        	extui	a5, a5, 0, 3
    1558:	226a           	add.n	a2, a2, a6
    155a:	000222        	l8ui	a2, a2, 0
    155d:	400500        	ssr	a5
    1560:	b12020        	sra	a2, a2
    1563:	042020        	extui	a2, a2, 0, 1
    1566:	f01d           	retw.n

00001568 <_Z19CPns_SetCorrelationP22CAacDecoderChannelInfoii>:
    1568:	004136        	entry	a1, 32
    156b:	6268           	l32i.n	a6, a2, 24
    156d:	1183c0        	slli	a8, a3, 4
    1570:	848a           	add.n	a8, a4, a8
    1572:	417380        	srli	a7, a8, 3
    1575:	248080        	extui	a8, a8, 0, 3
    1578:	667a           	add.n	a6, a6, a7
    157a:	000652        	l8ui	a5, a6, 0
    157d:	401800        	ssl	a8
    1580:	170c           	movi.n	a7, 1
    1582:	a17700        	sll	a7, a7
    1585:	205570        	or	a5, a5, a7
    1588:	004652        	s8i	a5, a6, 0
    158b:	f01d           	retw.n

0000158d <_Z19CPns_SetCorrelationP22CAacDecoderChannelInfoii+0x25>:
    158d:	000000                                        ...

00001590 <_Z14CPns_IsPnsUsedP22CAacDecoderChannelInfoii>:
    1590:	004136        	entry	a1, 32
    1593:	5228           	l32i.n	a2, a2, 20
    1595:	1153c0        	slli	a5, a3, 4
    1598:	545a           	add.n	a5, a4, a5
    159a:	416350        	srli	a6, a5, 3
    159d:	245050        	extui	a5, a5, 0, 3
    15a0:	226a           	add.n	a2, a2, a6
    15a2:	000222        	l8ui	a2, a2, 0
    15a5:	400500        	ssr	a5
    15a8:	b12020        	sra	a2, a2
    15ab:	042020        	extui	a2, a2, 0, 1
    15ae:	f01d           	retw.n

000015b0 <_Z12CPns_InitPnsP22CAacDecoderChannelInfo>:
    15b0:	004136        	entry	a1, 32
    15b3:	5268           	l32i.n	a6, a2, 20
    15b5:	030c           	movi.n	a3, 0
    15b7:	02a042        	movi	a4, 2
    15ba:	202660        	or	a2, a6, a6
    15bd:	198476        	loop	a4, 15da <_Z12CPns_InitPnsP22CAacDecoderChannelInfo+0x2a>
    15c0:	004232        	s8i	a3, a2, 0
    15c3:	014232        	s8i	a3, a2, 1
    15c6:	024232        	s8i	a3, a2, 2
    15c9:	034232        	s8i	a3, a2, 3
    15cc:	044232        	s8i	a3, a2, 4
    15cf:	054232        	s8i	a3, a2, 5
    15d2:	064232        	s8i	a3, a2, 6
    15d5:	074232        	s8i	a3, a2, 7
    15d8:	228b           	addi.n	a2, a2, 8

000015da <_Z12CPns_InitPnsP22CAacDecoderChannelInfo+0x2a>:
    15da:	144632        	s8i	a3, a6, 20
    15dd:	4639           	s32i.n	a3, a6, 16
    15df:	f01d           	retw.n

000015e1 <_Z12CPns_InitPnsP22CAacDecoderChannelInfo+0x31>:
    15e1:	000000                                        ...

000015e4 <_Z25CPns_InitInterChannelDataP22CAacDecoderChannelInfo>:
    15e4:	004136        	entry	a1, 32
    15e7:	6228           	l32i.n	a2, a2, 24
    15e9:	030c           	movi.n	a3, 0
    15eb:	240c           	movi.n	a4, 2
    15ed:	198476        	loop	a4, 160a <_Z25CPns_InitInterChannelDataP22CAacDecoderChannelInfo+0x26>
    15f0:	004232        	s8i	a3, a2, 0
    15f3:	014232        	s8i	a3, a2, 1
    15f6:	024232        	s8i	a3, a2, 2
    15f9:	034232        	s8i	a3, a2, 3
    15fc:	044232        	s8i	a3, a2, 4
    15ff:	054232        	s8i	a3, a2, 5
    1602:	064232        	s8i	a3, a2, 6
    1605:	074232        	s8i	a3, a2, 7
    1608:	228b           	addi.n	a2, a2, 8

0000160a <_Z25CPns_InitInterChannelDataP22CAacDecoderChannelInfo+0x26>:
    160a:	f01d           	retw.n

0000160c <_Z20GenerateRandomVector5fractiPS_iiPs>:
    160c:	00a136        	entry	a1, 80
    160f:	7139           	s32i.n	a3, a1, 28
    1611:	02bd           	mov.n	a11, a2
    1613:	31b9           	s32i.n	a11, a1, 12
    1615:	052d           	mov.n	a2, a5
    1617:	fe2493566f 	{ or	a5, a6, a6; ae_zeroq56	aeq2 }
    161c:	a08240        	addx4	a8, a2, a4
    161f:	fc1454418f 	{ s32i.n	a8, a1, 16; ae_movq56	aeq0, aeq2 }
    1624:	4da267        	bge	a2, a6, 1675 <_Z20GenerateRandomVector5fractiPS_iiPs+0x69>
    1627:	0f0c           	movi.n	a15, 0
    1629:	fa9641        	l32r	a4, 84 (3a7f <_Z19LongShortLapIllegalP5fractS0_S0_PKjS2_ii+0x1e7>)
    162c:	8129           	s32i.n	a2, a1, 32
    162e:	27dd           	ae_l16si.n	a13, a7, 0
    1630:	fa9631        	l32r	a3, 88 (7fffff <_end+0x7ef447>)
    1633:	9169           	s32i.n	a6, a1, 36
    1635:	c09620        	sub	a9, a6, a2
    1638:	206330        	or	a6, a3, a3
    163b:	30a976        	loopgtz	a9, 166f <_Z20GenerateRandomVector5fractiPS_iiPs+0x63>
    163e:	0b0c           	movi.n	a11, 0
    1640:	a0edd0        	addx4	a14, a13, a13
    1643:	b0eed0        	addx8	a14, a14, a13
    1646:	a0eed0        	addx4	a14, a14, a13
    1649:	b0ded0        	addx8	a13, a14, a13
    164c:	dd4a           	add.n	a13, a13, a4
    164e:	8ddd           	ae_sext16	a13, a13
    1650:	67dd           	ae_s16i.n	a13, a7, 0
    1652:	11edb0        	slli	a14, a13, 5
    1655:	0e5d           	mov.n	a5, a14
    1657:	31cfe0        	srai	a12, a14, 31
    165a:	042cf7        	blt	a12, a15, 1662 <_Z20GenerateRandomVector5fractiPS_iiPs+0x56>
    165d:	421cf7        	beq	a12, a15, 16a3 <_Z20GenerateRandomVector5fractiPS_iiPs+0x97>

00001660 <_Z20GenerateRandomVector5fractiPS_iiPs+0x54>:
    1660:	1b0c           	movi.n	a11, 1

00001662 <_Z20GenerateRandomVector5fractiPS_iiPs+0x56>:
    1662:	398ee4        	ae_movpa24x2	aep0, a14, a14
    1665:	041b16        	beqz	a11, 16aa <_Z20GenerateRandomVector5fractiPS_iiPs+0x9e>
    1668:	0869           	s32i.n	a6, a8, 0

0000166a <_Z20GenerateRandomVector5fractiPS_iiPs+0x5e>:
    166a:	e20300488e 	{ addi	a8, a8, 4; ae_mulafp24s.hl	aeq0, aep0, aep0 }

0000166f <_Z20GenerateRandomVector5fractiPS_iiPs+0x63>:
    166f:	9158           	l32i.n	a5, a1, 36
    1671:	8128           	l32i.n	a2, a1, 32
    1673:	7138           	l32i.n	a3, a1, 28

00001675 <_Z20GenerateRandomVector5fractiPS_iiPs+0x69>:
    1675:	364b04        	ae_nsaq56s	a11, aeq0
    1678:	8f0c           	movi.n	a15, 8
    167a:	090c           	movi.n	a9, 0
    167c:	fa8781        	l32r	a8, 98 (4000 <_Z15CStreamInfoInitP11CStreamInfo+0x10>)
    167f:	fa85a1        	l32r	a10, 94 (400000 <_end+0x3ef448>)
    1682:	398aa4        	ae_movpa24x2	aep0, a10, a10
    1685:	1189           	s32i.n	a8, a1, 4
    1687:	0199           	s32i.n	a9, a1, 0
    1689:	614104        	ae_lq56.i	aeq1, a1, 0
    168c:	4cafb7        	bge	a15, a11, 16dc <_Z20GenerateRandomVector5fractiPS_iiPs+0xd0>
    168f:	ee7c           	movi.n	a14, -2
    1691:	f8cbd2        	addi	a13, a11, -8
    1694:	10dde0        	and	a13, a13, a14
    1697:	340d94        	ae_sllaq56	aeq0, aeq0, a13
    169a:	21d1d0        	srai	a13, a13, 1
    169d:	c033d0        	sub	a3, a3, a13
    16a0:	000e06        	j	16dc <_Z20GenerateRandomVector5fractiPS_iiPs+0xd0>

000016a3 <_Z20GenerateRandomVector5fractiPS_iiPs+0x97>:
    16a3:	bbb3e7        	bgeu	a3, a14, 1662 <_Z20GenerateRandomVector5fractiPS_iiPs+0x56>
    16a6:	ffed86        	j	1660 <_Z20GenerateRandomVector5fractiPS_iiPs+0x54>

000016a9 <_Z20GenerateRandomVector5fractiPS_iiPs+0x9d>:
	...

000016aa <_Z20GenerateRandomVector5fractiPS_iiPs+0x9e>:
    16aa:	60a050        	neg	a10, a5
    16ad:	fa7891        	l32r	a9, 90 (ff800000 <_end+0xff7ef448>)
    16b0:	f27c           	movi.n	a2, -1
    16b2:	fa76b1        	l32r	a11, 8c (800000 <_end+0x7ef448>)
    16b5:	61b9           	s32i.n	a11, a1, 24
    16b7:	302c20        	xor	a2, a12, a2
    16ba:	0b0c           	movi.n	a11, 0
    16bc:	c21b           	addi.n	a12, a2, 1
    16be:	832c50        	moveqz	a2, a12, a5
    16c1:	003296        	bltz	a2, 16c8 <_Z20GenerateRandomVector5fractiPS_iiPs+0xbc>
    16c4:	828c           	beqz.n	a2, 16d0 <_Z20GenerateRandomVector5fractiPS_iiPs+0xc4>

000016c6 <_Z20GenerateRandomVector5fractiPS_iiPs+0xba>:
    16c6:	1b0c           	movi.n	a11, 1

000016c8 <_Z20GenerateRandomVector5fractiPS_iiPs+0xbc>:
    16c8:	9359b0        	movnez	a5, a9, a11
    16cb:	0859           	s32i.n	a5, a8, 0
    16cd:	ffe646        	j	166a <_Z20GenerateRandomVector5fractiPS_iiPs+0x5e>

000016d0 <_Z20GenerateRandomVector5fractiPS_iiPs+0xc4>:
    16d0:	0acd           	mov.n	a12, a10
    16d2:	61a8           	l32i.n	a10, a1, 24
    16d4:	f0bac7        	bgeu	a10, a12, 16c8 <_Z20GenerateRandomVector5fractiPS_iiPs+0xbc>
    16d7:	fffac6        	j	16c6 <_Z20GenerateRandomVector5fractiPS_iiPs+0xba>

000016da <_Z20GenerateRandomVector5fractiPS_iiPs+0xce>:
	...

000016dc <_Z20GenerateRandomVector5fractiPS_iiPs+0xd0>:
    16dc:	7f1c           	movi.n	a15, 23
    16de:	14af76        	loopgtz	a15, 16f6 <_Z20GenerateRandomVector5fractiPS_iiPs+0xea>
    16e1:	018854        	ae_mulfp24s.hl	aeq3, aep0, aep0
    16e4:	098304        	ae_ltq56s	b0, aeq3, aeq0
    16e7:	355074        	ae_sraiq56	aeq1, aeq1, 1
    16ea:	020076        	bf	b0, 16f0 <_Z20GenerateRandomVector5fractiPS_iiPs+0xe4>
    16ed:	0a8084        	ae_cvtq48p24s.l	aeq2, aep0

000016f0 <_Z20GenerateRandomVector5fractiPS_iiPs+0xe4>:
    16f0:	01e9c4        	ae_addq56	aeq3, aeq2, aeq1
    16f3:	1bbc04        	ae_roundsp24q48sym	aep0, aeq3

000016f6 <_Z20GenerateRandomVector5fractiPS_iiPs+0xea>:
    16f6:	fa6981        	l32r	a8, 9c (74dc <_Z6divideii>)
    16f9:	f8d27031ae 	{ l32i	a10, a1, 12; ae_truncp24q48x2	aep1, aeq2, aeq2 }
    16fe:	4e1124        	ae_sp24s.l.i	aep1, a1, 8
    1701:	21b8           	l32i.n	a11, a1, 8
    1703:	002aa2        	l32i	a10, a10, 0
    1706:	0008e0        	callx8	a8
    1709:	41c8           	l32i.n	a12, a1, 16
    170b:	364a34        	ae_cvtq48a32s	aeq1, a10
    170e:	355214        	ae_slliq56	aeq1, aeq1, 8
    1711:	fc04f031de 	{ l32i	a13, a1, 12; ae_satq48s	aeq0, aeq1 }
    1716:	350234        	ae_sraiq56	aeq0, aeq0, 8
    1719:	368b04        	ae_trunca32q48	a11, aeq0
    171c:	0db9           	s32i.n	a11, a13, 0
    171e:	4c0c04        	ae_lp24.i	aep0, a12, 0
    1721:	047396        	bltz	a3, 176c <_Z20GenerateRandomVector5fractiPS_iiPs+0x160>
    1724:	031634        	wur.ae_sar	a3
    1727:	022257        	blt	a2, a5, 172d <_Z20GenerateRandomVector5fractiPS_iiPs+0x121>
    172a:	002106        	j	17b2 <_Z20GenerateRandomVector5fractiPS_iiPs+0x1a6>
    172d:	39abb4        	ae_movpa24x2	aep2, a11, a11
    1730:	eb4095b52f 	{ sub	a11, a5, a2; ae_mulfp24s.hl	aeq2, aep0, aep2 }
    1735:	2191b0        	srai	a9, a11, 1
    1738:	0f6b07        	bbci	a11, 0, 174b <_Z20GenerateRandomVector5fractiPS_iiPs+0x13f>
    173b:	34a284        	ae_srasq56	aeq2, aeq2
    173e:	f9f7d3eccf 	{ or	a14, a12, a12; ae_roundsp24q48sym	aep3, aeq2 }
    1743:	4e3e04        	ae_sp24s.l.i	aep3, a14, 0
    1746:	4c8e14        	ae_lp24.iu	aep0, a14, 4
    1749:	41e9           	s32i.n	a14, a1, 16

0000174b <_Z20GenerateRandomVector5fractiPS_iiPs+0x13f>:
    174b:	4188           	l32i.n	a8, a1, 16
    174d:	19a976        	loopgtz	a9, 176a <_Z20GenerateRandomVector5fractiPS_iiPs+0x15e>
    1750:	ea40b1081f 	{ ae_lp24.i	aep0, a8, 4; ae_mulfp24s.hl	aeq0, aep0, aep2 }
    1755:	ea40f1882f 	{ ae_lp24.iu	aep0, a8, 8; ae_mulfp24s.hl	aeq1, aep0, aep2 }
    175a:	340284        	ae_srasq56	aeq0, aeq0
    175d:	f8e7ff593f 	{ ae_srasq56	aeq0, aeq1; ae_roundsp24q48sym	aep1, aeq0 }
    1762:	f8e7f518ef 	{ ae_sp24s.l.i	aep1, a8, -8; ae_roundsp24q48sym	aep1, aeq0 }
    1767:	4e18f4        	ae_sp24s.l.i	aep1, a8, -4

0000176a <_Z20GenerateRandomVector5fractiPS_iiPs+0x15e>:
    176a:	f01d           	retw.n

0000176c <_Z20GenerateRandomVector5fractiPS_iiPs+0x160>:
    176c:	60f030        	neg	a15, a3
    176f:	0316f4        	wur.ae_sar	a15
    1772:	3ca257        	bge	a2, a5, 17b2 <_Z20GenerateRandomVector5fractiPS_iiPs+0x1a6>
    1775:	0c8d           	mov.n	a8, a12
    1777:	39abb4        	ae_movpa24x2	aep2, a11, a11
    177a:	eb40d5b52f 	{ sub	a11, a5, a2; ae_mulfp24s.hl	aeq3, aep0, aep2 }
    177f:	2191b0        	srai	a9, a11, 1
    1782:	0d6b07        	bbci	a11, 0, 1793 <_Z20GenerateRandomVector5fractiPS_iiPs+0x187>
    1785:	34f084        	ae_sllsq56	aeq3, aeq3
    1788:	faff938ccf 	{ or	a8, a12, a12; ae_roundsp24q48sym	aep4, aeq3 }
    178d:	4e4c04        	ae_sp24s.l.i	aep4, a12, 0
    1790:	4c8814        	ae_lp24.iu	aep0, a8, 4

00001793 <_Z20GenerateRandomVector5fractiPS_iiPs+0x187>:
    1793:	f03d           	nop.n
    1795:	19a976        	loopgtz	a9, 17b2 <_Z20GenerateRandomVector5fractiPS_iiPs+0x1a6>
    1798:	ea40b1081f 	{ ae_lp24.i	aep0, a8, 4; ae_mulfp24s.hl	aeq0, aep0, aep2 }
    179d:	ea40f1882f 	{ ae_lp24.iu	aep0, a8, 8; ae_mulfp24s.hl	aeq1, aep0, aep2 }
    17a2:	340084        	ae_sllsq56	aeq0, aeq0
    17a5:	f8e7ff193f 	{ ae_sllsq56	aeq0, aeq1; ae_roundsp24q48sym	aep1, aeq0 }
    17aa:	f8e7f518ef 	{ ae_sp24s.l.i	aep1, a8, -8; ae_roundsp24q48sym	aep1, aeq0 }
    17af:	4e18f4        	ae_sp24s.l.i	aep1, a8, -4
    17b2:	f01d           	retw.n

000017b4 <_Z20GenerateRandomVector5fractiPS_iiPs+0x1a8>:
    17b4:	00000000                                ....

000017b8 <_Z27CShortBlock_FrequencyToTimeP28CAacDecoderStaticChannelInfoP22CAacDecoderChannelInfoP5fractiiiS4_>:
    17b8:	012136        	entry	a1, 144
    17bb:	07bd           	mov.n	a11, a7
    17bd:	028d           	mov.n	a8, a2
    17bf:	03ad           	mov.n	a10, a3
    17c1:	0a98           	l32i.n	a9, a10, 0
    17c3:	053d           	mov.n	a3, a5
    17c5:	042d           	mov.n	a2, a4
    17c7:	020992        	l8ui	a9, a9, 2
    17ca:	7a48           	l32i.n	a4, a10, 28
    17cc:	8a78           	l32i.n	a7, a10, 32
    17ce:	23d900        	sext	a13, a9, 7
    17d1:	049790        	extui	a9, a9, 7, 1
    17d4:	0a2956        	bnez	a9, 187a <_Z27CShortBlock_FrequencyToTimeP28CAacDecoderStaticChannelInfoP22CAacDecoderChannelInfoP5fractiiiS4_+0xc2>
    17d7:	022da6        	blti	a13, 2, 17dd <_Z27CShortBlock_FrequencyToTimeP28CAacDecoderStaticChannelInfoP22CAacDecoderChannelInfoP5fractiiiS4_+0x25>
    17da:	002706        	j	187a <_Z27CShortBlock_FrequencyToTimeP28CAacDecoderStaticChannelInfoP22CAacDecoderChannelInfoP5fractiiiS4_+0xc2>
    17dd:	1008c2        	l8ui	a12, a8, 16
    17e0:	23ec00        	sext	a14, a12, 7
    17e3:	04c7c0        	extui	a12, a12, 7, 1
    17e6:	090c56        	bnez	a12, 187a <_Z27CShortBlock_FrequencyToTimeP28CAacDecoderStaticChannelInfoP22CAacDecoderChannelInfoP5fractiiiS4_+0xc2>
    17e9:	f169           	s32i.n	a6, a1, 60
    17eb:	e139           	s32i.n	a3, a1, 56
    17ed:	d129           	s32i.n	a2, a1, 52
    17ef:	022ea6        	blti	a14, 2, 17f5 <_Z27CShortBlock_FrequencyToTimeP28CAacDecoderStaticChannelInfoP22CAacDecoderChannelInfoP5fractiiiS4_+0x3d>
    17f2:	002106        	j	187a <_Z27CShortBlock_FrequencyToTimeP28CAacDecoderStaticChannelInfoP22CAacDecoderChannelInfoP5fractiiiS4_+0xc2>
    17f5:	146182        	s32i	a8, a1, 80
    17f8:	045d           	mov.n	a5, a4
    17fa:	10d432        	addmi	a3, a4, 0x1000
    17fd:	10c122        	addi	a2, a1, 16
    1800:	242162        	l32i	a6, a1, 144
    1803:	1661b2        	s32i	a11, a1, 88
    1806:	1561a2        	s32i	a10, a1, 84
    1809:	a0fd80        	addx4	a15, a13, a8
    180c:	a09e80        	addx4	a9, a14, a8
    180f:	29c8           	l32i.n	a12, a9, 8
    1811:	2ff8           	l32i.n	a15, a15, 8
    1813:	1961f2        	s32i	a15, a1, 100
    1816:	1861c2        	s32i	a12, a1, 96
    1819:	0998           	l32i.n	a9, a9, 0
    181b:	176192        	s32i	a9, a1, 92

0000181e <_Z27CShortBlock_FrequencyToTimeP28CAacDecoderStaticChannelInfoP22CAacDecoderChannelInfoP5fractiiiS4_+0x66>:
    181e:	06cd           	mov.n	a12, a6
    1820:	fa2081        	l32r	a8, a0 (ab0 <_Z28CShortBlock_InverseTransformP5fractPiS0_>)
    1823:	05ad           	mov.n	a10, a5
    1825:	02bd           	mov.n	a11, a2
    1827:	0008e0        	callx8	a8
    182a:	224b           	addi.n	a2, a2, 4
    182c:	02d552        	addmi	a5, a5, 0x200
    182f:	eb9537        	bne	a5, a3, 181e <_Z27CShortBlock_FrequencyToTimeP28CAacDecoderStaticChannelInfoP22CAacDecoderChannelInfoP5fractiiiS4_+0x66>
    1832:	075d           	mov.n	a5, a7
    1834:	a74b           	addi.n	a10, a7, 4
    1836:	390c           	movi.n	a9, 3
    1838:	41e8           	l32i.n	a14, a1, 16
    183a:	37cd           	ae_l16si.n	a12, a7, 2
    183c:	14c182        	addi	a8, a1, 20
    183f:	08f8           	l32i.n	a15, a8, 0
    1841:	27dd           	ae_l16si.n	a13, a7, 0
    1843:	884b           	addi.n	a8, a8, 4
    1845:	ccfa           	add.n	a12, a12, a15
    1847:	ddea           	add.n	a13, a13, a14
    1849:	30c1f2        	addi	a15, a1, 48
    184c:	533cd0        	max	a3, a12, a13
    184f:	158976        	loop	a9, 1868 <_Z27CShortBlock_FrequencyToTimeP28CAacDecoderStaticChannelInfoP22CAacDecoderChannelInfoP5fractiiiS4_+0xb0>
    1852:	0898           	l32i.n	a9, a8, 0
    1854:	2abd           	ae_l16si.n	a11, a10, 0
    1856:	18d8           	l32i.n	a13, a8, 4
    1858:	3aed           	ae_l16si.n	a14, a10, 2
    185a:	9b9a           	add.n	a9, a11, a9
    185c:	aa4b           	addi.n	a10, a10, 4
    185e:	beda           	add.n	a11, a14, a13
    1860:	888b           	addi.n	a8, a8, 8
    1862:	539930        	max	a9, a9, a3
    1865:	533b90        	max	a3, a11, a9

00001868 <_Z27CShortBlock_FrequencyToTimeP28CAacDecoderStaticChannelInfoP22CAacDecoderChannelInfoP5fractiiiS4_+0xb0>:
    1868:	10c122        	addi	a2, a1, 16
    186b:	9d6c           	movi.n	a13, -23
    186d:	0b0c           	movi.n	a11, 0
    186f:	02d4c2        	addmi	a12, a4, 0x200
    1872:	fcccc2        	addi	a12, a12, -4
    1875:	6b4a           	add.n	a6, a11, a4
    1877:	000c06        	j	18ab <_Z27CShortBlock_FrequencyToTimeP28CAacDecoderStaticChannelInfoP22CAacDecoderChannelInfoP5fractiiiS4_+0xf3>

0000187a <_Z27CShortBlock_FrequencyToTimeP28CAacDecoderStaticChannelInfoP22CAacDecoderChannelInfoP5fractiiiS4_+0xc2>:
    187a:	f01d           	retw.n

0000187c <_Z27CShortBlock_FrequencyToTimeP28CAacDecoderStaticChannelInfoP22CAacDecoderChannelInfoP5fractiiiS4_+0xc4>:
	...

0000187e <_Z27CShortBlock_FrequencyToTimeP28CAacDecoderStaticChannelInfoP22CAacDecoderChannelInfoP5fractiiiS4_+0xc6>:
    187e:	092c           	movi.n	a9, 32
    1880:	c083e0        	sub	a8, a3, a14
    1883:	e9c882        	addi	a8, a8, -23
    1886:	031684        	wur.ae_sar	a8
    1889:	0f8976        	loop	a9, 189c <_Z27CShortBlock_FrequencyToTimeP28CAacDecoderStaticChannelInfoP22CAacDecoderChannelInfoP5fractiiiS4_+0xe4>
    188c:	540614        	ae_lp24x2.i	aep0, a6, 8
    188f:	f823f0062f 	{ ae_lp24x2.i	aep0, a6, 16; ae_sllssp24s	aep1, aep0 }
    1894:	f823b7161f 	{ ae_sp24x2s.i	aep1, a6, 8; ae_sllssp24s	aep0, aep0 }
    1899:	568624        	ae_sp24x2s.iu	aep0, a6, 16

0000189c <_Z27CShortBlock_FrequencyToTimeP28CAacDecoderStaticChannelInfoP22CAacDecoderChannelInfoP5fractiiiS4_+0xe4>:
    189c:	552b           	addi.n	a5, a5, 2
    189e:	02dcc2        	addmi	a12, a12, 0x200
    18a1:	224b           	addi.n	a2, a2, 4
    18a3:	02dbb2        	addmi	a11, a11, 0x200
    18a6:	6b4a           	add.n	a6, a11, a4
    18a8:	3112f7        	beq	a2, a15, 18dd <_Z27CShortBlock_FrequencyToTimeP28CAacDecoderStaticChannelInfoP22CAacDecoderChannelInfoP5fractiiiS4_+0x125>

000018ab <_Z27CShortBlock_FrequencyToTimeP28CAacDecoderStaticChannelInfoP22CAacDecoderChannelInfoP5fractiiiS4_+0xf3>:
    18ab:	25ed           	ae_l16si.n	a14, a5, 0
    18ad:	0278           	l32i.n	a7, a2, 0
    18af:	f8c662        	addi	a6, a6, -8
    18b2:	c0e3e0        	sub	a14, a3, a14
    18b5:	c0ee70        	sub	a14, a14, a7
    18b8:	c07e30        	sub	a7, a14, a3
    18bb:	bfad77        	bge	a13, a7, 187e <_Z27CShortBlock_FrequencyToTimeP28CAacDecoderStaticChannelInfoP22CAacDecoderChannelInfoP5fractiiiS4_+0xc6>
    18be:	092c           	movi.n	a9, 32
    18c0:	17c782        	addi	a8, a7, 23
    18c3:	031684        	wur.ae_sar	a8
    18c6:	0f8976        	loop	a9, 18d9 <_Z27CShortBlock_FrequencyToTimeP28CAacDecoderStaticChannelInfoP22CAacDecoderChannelInfoP5fractiiiS4_+0x121>
    18c9:	540614        	ae_lp24x2.i	aep0, a6, 8
    18cc:	f8a3f0062f 	{ ae_lp24x2.i	aep0, a6, 16; ae_srasp24	aep1, aep0 }
    18d1:	f8a3b7161f 	{ ae_sp24x2s.i	aep1, a6, 8; ae_srasp24	aep0, aep0 }
    18d6:	568624        	ae_sp24x2s.iu	aep0, a6, 16

000018d9 <_Z27CShortBlock_FrequencyToTimeP28CAacDecoderStaticChannelInfoP22CAacDecoderChannelInfoP5fractiiiS4_+0x121>:
    18d9:	ffefc6        	j	189c <_Z27CShortBlock_FrequencyToTimeP28CAacDecoderStaticChannelInfoP22CAacDecoderChannelInfoP5fractiiiS4_+0xe4>

000018dc <_Z27CShortBlock_FrequencyToTimeP28CAacDecoderStaticChannelInfoP22CAacDecoderChannelInfoP5fractiiiS4_+0x124>:
	...

000018dd <_Z27CShortBlock_FrequencyToTimeP28CAacDecoderStaticChannelInfoP22CAacDecoderChannelInfoP5fractiiiS4_+0x125>:
    18dd:	142152        	l32i	a5, a1, 80
    18e0:	e198           	l32i.n	a9, a1, 56
    18e2:	5558           	l32i.n	a5, a5, 20
    18e4:	20e916        	beqz	a9, 1af6 <_Z27CShortBlock_FrequencyToTimeP28CAacDecoderStaticChannelInfoP22CAacDecoderChannelInfoP5fractiiiS4_+0x33e>
    18e7:	d198           	l32i.n	a9, a1, 52
    18e9:	0f2182        	l32i	a8, a1, 60
    18ec:	908890        	addx2	a8, a8, a9
    18ef:	0c6182        	s32i	a8, a1, 48

000018f2 <_Z27CShortBlock_FrequencyToTimeP28CAacDecoderStaticChannelInfoP22CAacDecoderChannelInfoP5fractiiiS4_+0x13a>:
    18f2:	1421a2        	l32i	a10, a1, 80
    18f5:	f03d           	nop.n
    18f7:	f03d           	nop.n
    18f9:	110aa2        	l8ui	a10, a10, 17
    18fc:	238a00        	sext	a8, a10, 7
    18ff:	022866        	bnei	a8, 2, 1905 <_Z27CShortBlock_FrequencyToTimeP28CAacDecoderStaticChannelInfoP22CAacDecoderChannelInfoP5fractiiiS4_+0x14d>
    1902:	001fc6        	j	1985 <_Z27CShortBlock_FrequencyToTimeP28CAacDecoderStaticChannelInfoP22CAacDecoderChannelInfoP5fractiiiS4_+0x1cd>
    1905:	7c1826        	beqi	a8, 1, 1985 <_Z27CShortBlock_FrequencyToTimeP28CAacDecoderStaticChannelInfoP22CAacDecoderChannelInfoP5fractiiiS4_+0x1cd>
    1908:	1f6a16        	beqz	a10, 1b02 <_Z27CShortBlock_FrequencyToTimeP28CAacDecoderStaticChannelInfoP22CAacDecoderChannelInfoP5fractiiiS4_+0x34a>
    190b:	fdc8b2        	addi	a11, a8, -3
    190e:	1f0b16        	beqz	a11, 1b02 <_Z27CShortBlock_FrequencyToTimeP28CAacDecoderStaticChannelInfoP22CAacDecoderChannelInfoP5fractiiiS4_+0x34a>
    1911:	08d462        	addmi	a6, a4, 0x800

00001914 <_Z27CShortBlock_FrequencyToTimeP28CAacDecoderStaticChannelInfoP22CAacDecoderChannelInfoP5fractiiiS4_+0x15c>:
    1914:	01d5c2        	addmi	a12, a5, 0x100
    1917:	1921d2        	l32i	a13, a1, 100
    191a:	0e4c           	movi.n	a14, 64
    191c:	1f0c           	movi.n	a15, 1
    191e:	06bd           	mov.n	a11, a6
    1920:	f9e181        	l32r	a8, a4 (450 <_Z4Lap2P5fractS0_S0_PKjii>)
    1923:	0ad462        	addmi	a6, a4, 0xa00
    1926:	20a660        	or	a10, a6, a6
    1929:	0008e0        	callx8	a8
    192c:	03d5c2        	addmi	a12, a5, 0x300
    192f:	1921d2        	l32i	a13, a1, 100
    1932:	0e4c           	movi.n	a14, 64
    1934:	1f0c           	movi.n	a15, 1
    1936:	06bd           	mov.n	a11, a6
    1938:	f9db81        	l32r	a8, a4 (450 <_Z4Lap2P5fractS0_S0_PKjii>)
    193b:	0cd462        	addmi	a6, a4, 0xc00
    193e:	06ad           	mov.n	a10, a6
    1940:	0008e0        	callx8	a8
    1943:	06bd           	mov.n	a11, a6
    1945:	1921d2        	l32i	a13, a1, 100
    1948:	0ed4a2        	addmi	a10, a4, 0xe00
    194b:	05d5c2        	addmi	a12, a5, 0x500
    194e:	f9d581        	l32r	a8, a4 (450 <_Z4Lap2P5fractS0_S0_PKjii>)
    1951:	0e4c           	movi.n	a14, 64
    1953:	1f0c           	movi.n	a15, 1
    1955:	0008e0        	callx8	a8
    1958:	0a2c           	movi.n	a10, 32
    195a:	0ed482        	addmi	a8, a4, 0xe00
    195d:	07d592        	addmi	a9, a5, 0x700
    1960:	f8c992        	addi	a9, a9, -8
    1963:	f8c882        	addi	a8, a8, -8
    1966:	058a76        	loop	a10, 196f <_Z27CShortBlock_FrequencyToTimeP28CAacDecoderStaticChannelInfoP22CAacDecoderChannelInfoP5fractiiiS4_+0x1b7>
    1969:	548814        	ae_lp24x2.iu	aep0, a8, 8
    196c:	568914        	ae_sp24x2s.iu	aep0, a9, 8

0000196f <_Z27CShortBlock_FrequencyToTimeP28CAacDecoderStaticChannelInfoP22CAacDecoderChannelInfoP5fractiiiS4_+0x1b7>:
    196f:	1521a2        	l32i	a10, a1, 84
    1972:	0aa8           	l32i.n	a10, a10, 0
    1974:	1421b2        	l32i	a11, a1, 80
    1977:	020ac2        	l8ui	a12, a10, 2
    197a:	104bc2        	s8i	a12, a11, 16
    197d:	030aa2        	l8ui	a10, a10, 3
    1980:	114ba2        	s8i	a10, a11, 17
    1983:	f01d           	retw.n

00001985 <_Z27CShortBlock_FrequencyToTimeP28CAacDecoderStaticChannelInfoP22CAacDecoderChannelInfoP5fractiiiS4_+0x1cd>:
    1985:	07d5e2        	addmi	a14, a5, 0x700
    1988:	06d472        	addmi	a7, a4, 0x600
    198b:	fcc582        	addi	a8, a5, -4
    198e:	e1b8           	l32i.n	a11, a1, 56
    1990:	f8c5c2        	addi	a12, a5, -8
    1993:	01d562        	addmi	a6, a5, 0x100
    1996:	04d4d2        	addmi	a13, a4, 0x400
    1999:	02d4f2        	addmi	a15, a4, 0x200
    199c:	1261f2        	s32i	a15, a1, 72
    199f:	1361d2        	s32i	a13, a1, 76
    19a2:	08c662        	addi	a6, a6, 8
    19a5:	1061c2        	s32i	a12, a1, 64
    19a8:	116162        	s32i	a6, a1, 68
    19ab:	08d462        	addmi	a6, a4, 0x800
    19ae:	179b16        	beqz	a11, 1b2b <_Z27CShortBlock_FrequencyToTimeP28CAacDecoderStaticChannelInfoP22CAacDecoderChannelInfoP5fractiiiS4_+0x373>
    19b1:	bfa1b2        	movi	a11, 0x1bf
    19b4:	1621a2        	l32i	a10, a1, 88
    19b7:	0c2132        	l32i	a3, a1, 48
    19ba:	4c8814        	ae_lp24.iu	aep0, a8, 4
    19bd:	11aaf0        	slli	a10, a10, 1
    19c0:	c8029593af 	{ sub	a9, a3, a10; ae_sllisp24s	aep0, aep0, 1 }
    19c5:	098b76        	loop	a11, 19d2 <_Z27CShortBlock_FrequencyToTimeP28CAacDecoderStaticChannelInfoP22CAacDecoderChannelInfoP5fractiiiS4_+0x21a>
    19c8:	f803f1881f 	{ ae_lp24.iu	aep0, a8, 4; ae_roundsp16sym	aep1, aep0 }
    19cd:	c802a399af 	{ ae_sp16f.l.xu	aep1, a9, a10; ae_sllisp24s	aep0, aep0, 1 }

000019d2 <_Z27CShortBlock_FrequencyToTimeP28CAacDecoderStaticChannelInfoP22CAacDecoderChannelInfoP5fractiiiS4_+0x21a>:
    19d2:	1821d2        	l32i	a13, a1, 96
    19d5:	f99981        	l32r	a8, 3c (778 <_Z10Lap1_shortP5fractS0_PsPKjii>)
    19d8:	1621f2        	l32i	a15, a1, 88
    19db:	0ebd           	mov.n	a11, a14
    19dd:	f803c040ef 	{ movi	a14, 64; ae_roundsp16sym	aep1, aep0 }
    19e2:	4399a4        	ae_sp16f.l.xu	aep1, a9, a10
    19e5:	04ad           	mov.n	a10, a4
    19e7:	f0cff0        	subx8	a12, a15, a15
    19ea:	11cc90        	slli	a12, a12, 7
    19ed:	c3ca           	add.n	a12, a3, a12
    19ef:	0008e0        	callx8	a8
    19f2:	1221a2        	l32i	a10, a1, 72
    19f5:	04bd           	mov.n	a11, a4
    19f7:	1921d2        	l32i	a13, a1, 100
    19fa:	1621f2        	l32i	a15, a1, 88
    19fd:	0e4c           	movi.n	a14, 64
    19ff:	f98f81        	l32r	a8, 3c (778 <_Z10Lap1_shortP5fractS0_PsPKjii>)
    1a02:	b0cff0        	addx8	a12, a15, a15
    1a05:	11cc90        	slli	a12, a12, 7
    1a08:	c3ca           	add.n	a12, a3, a12
    1a0a:	0008e0        	callx8	a8
    1a0d:	1221b2        	l32i	a11, a1, 72
    1a10:	1321a2        	l32i	a10, a1, 76
    1a13:	1921d2        	l32i	a13, a1, 100
    1a16:	1621f2        	l32i	a15, a1, 88
    1a19:	0e4c           	movi.n	a14, 64
    1a1b:	f98881        	l32r	a8, 3c (778 <_Z10Lap1_shortP5fractS0_PsPKjii>)
    1a1e:	a0cff0        	addx4	a12, a15, a15
    1a21:	90ccf0        	addx2	a12, a12, a15
    1a24:	11cc90        	slli	a12, a12, 7
    1a27:	c3ca           	add.n	a12, a3, a12
    1a29:	0008e0        	callx8	a8
    1a2c:	1321b2        	l32i	a11, a1, 76
    1a2f:	07ad           	mov.n	a10, a7
    1a31:	1921d2        	l32i	a13, a1, 100
    1a34:	1621f2        	l32i	a15, a1, 88
    1a37:	0e4c           	movi.n	a14, 64
    1a39:	f98081        	l32r	a8, 3c (778 <_Z10Lap1_shortP5fractS0_PsPKjii>)
    1a3c:	90cff0        	addx2	a12, a15, a15
    1a3f:	a0ccf0        	addx4	a12, a12, a15
    1a42:	11cc90        	slli	a12, a12, 7
    1a45:	c3ca           	add.n	a12, a3, a12
    1a47:	0008e0        	callx8	a8
    1a4a:	07bd           	mov.n	a11, a7
    1a4c:	06ad           	mov.n	a10, a6
    1a4e:	05cd           	mov.n	a12, a5
    1a50:	1921d2        	l32i	a13, a1, 100
    1a53:	f99481        	l32r	a8, a4 (450 <_Z4Lap2P5fractS0_S0_PKjii>)
    1a56:	0e4c           	movi.n	a14, 64
    1a58:	1f0c           	movi.n	a15, 1
    1a5a:	0008e0        	callx8	a8
    1a5d:	102182        	l32i	a8, a1, 64
    1a60:	1621c2        	l32i	a12, a1, 88
    1a63:	1121b2        	l32i	a11, a1, 68
    1a66:	8d0c           	movi.n	a13, 8
    1a68:	119cc0        	slli	a9, a12, 4
    1a6b:	f0cbb2        	addi	a11, a11, -16
    1a6e:	c099c0        	sub	a9, a9, a12
    1a71:	11a9a0        	slli	a10, a9, 6
    1a74:	119990        	slli	a9, a9, 7
    1a77:	80aca0        	add	a10, a12, a10
    1a7a:	90aa30        	addx2	a10, a10, a3
    1a7d:	11cce0        	slli	a12, a12, 2
    1a80:	809390        	add	a9, a3, a9
    1a83:	c099c0        	sub	a9, a9, a12
    1a86:	c0aac0        	sub	a10, a10, a12
    1a89:	668d76        	loop	a13, 1af3 <_Z27CShortBlock_FrequencyToTimeP28CAacDecoderStaticChannelInfoP22CAacDecoderChannelInfoP5fractiiiS4_+0x33b>
    1a8c:	540814        	ae_lp24x2.i	aep0, a8, 8
    1a8f:	dc0170482f 	{ ae_lp24x2.i	aep4, a8, 16; ae_selp24.hh	aep1, aep0, aep0 }

00001a94 <_Z27CShortBlock_FrequencyToTimeP28CAacDecoderStaticChannelInfoP22CAacDecoderChannelInfoP5fractiiiS4_+0x2dc>:
    1a94:	c902b0083f 	{ ae_lp24x2.i	aep0, a8, 24; ae_sllisp24s	aep2, aep0, 1 }
    1a99:	de91703b1f 	{ ae_lp24x2.i	aep3, a11, 8; ae_selp24.hh	aep5, aep4, aep4 }
    1a9e:	cb12b0484f 	{ ae_lp24x2.i	aep4, a8, 32; ae_sllisp24s	aep6, aep4, 1 }
    1aa3:	1a88f4        	ae_selp24.hh	aep7, aep0, aep0
    1aa6:	0b9094        	ae_sllisp24s	aep1, aep1, 1
    1aa9:	091094        	ae_roundsp16sym	aep1, aep1
    1aac:	f80be399cf 	{ ae_sp16f.l.xu	aep1, a9, a12; ae_roundsp16sym	aep1, aep2 }
    1ab1:	c816e39acf 	{ ae_sp16f.l.xu	aep1, a10, a12; ae_sllisp24s	aep1, aep5, 1 }
    1ab6:	f807f7381f 	{ ae_sp24x2s.i	aep3, a8, 8; ae_roundsp16sym	aep1, aep1 }
    1abb:	c802a399cf 	{ ae_sp16f.l.xu	aep1, a9, a12; ae_sllisp24s	aep0, aep0, 1 }
    1ac0:	f91bb01b2f 	{ ae_lp24x2.i	aep1, a11, 16; ae_roundsp16sym	aep2, aep6 }
    1ac5:	c91ea3aacf 	{ ae_sp16f.l.xu	aep2, a10, a12; ae_sllisp24s	aep2, aep7, 1 }
    1aca:	f80bf7182f 	{ ae_sp24x2s.i	aep1, a8, 16; ae_roundsp16sym	aep1, aep2 }
    1acf:	dc916399cf 	{ ae_sp16f.l.xu	aep1, a9, a12; ae_selp24.hh	aep1, aep4, aep4 }
    1ad4:	f903b00b3f 	{ ae_lp24x2.i	aep0, a11, 24; ae_roundsp16sym	aep2, aep0 }
    1ad9:	c806e3aacf 	{ ae_sp16f.l.xu	aep2, a10, a12; ae_sllisp24s	aep1, aep1, 1 }
    1ade:	f807b7083f 	{ ae_sp24x2s.i	aep0, a8, 24; ae_roundsp16sym	aep0, aep1 }
    1ae3:	c812a389cf 	{ ae_sp16f.l.xu	aep0, a9, a12; ae_sllisp24s	aep0, aep4, 1 }
    1ae8:	fa03b08b4f 	{ ae_lp24x2.iu	aep0, a11, 32; ae_roundsp16sym	aep4, aep0 }
    1aed:	43cac4        	ae_sp16f.l.xu	aep4, a10, a12
    1af0:	568844        	ae_sp24x2s.iu	aep0, a8, 32

00001af3 <_Z27CShortBlock_FrequencyToTimeP28CAacDecoderStaticChannelInfoP22CAacDecoderChannelInfoP5fractiiiS4_+0x33b>:
    1af3:	ff8746        	j	1914 <_Z27CShortBlock_FrequencyToTimeP28CAacDecoderStaticChannelInfoP22CAacDecoderChannelInfoP5fractiiiS4_+0x15c>

00001af6 <_Z27CShortBlock_FrequencyToTimeP28CAacDecoderStaticChannelInfoP22CAacDecoderChannelInfoP5fractiiiS4_+0x33e>:
    1af6:	d1a8           	l32i.n	a10, a1, 52
    1af8:	f1b8           	l32i.n	a11, a1, 60
    1afa:	a0aba0        	addx4	a10, a11, a10
    1afd:	d1a9           	s32i.n	a10, a1, 52
    1aff:	ff7bc6        	j	18f2 <_Z27CShortBlock_FrequencyToTimeP28CAacDecoderStaticChannelInfoP22CAacDecoderChannelInfoP5fractiiiS4_+0x13a>

00001b02 <_Z27CShortBlock_FrequencyToTimeP28CAacDecoderStaticChannelInfoP22CAacDecoderChannelInfoP5fractiiiS4_+0x34a>:
    1b02:	1821e2        	l32i	a14, a1, 96
    1b05:	1721f2        	l32i	a15, a1, 92
    1b08:	1921d2        	l32i	a13, a1, 100
    1b0b:	f96781        	l32r	a8, a8 (3ce8 <_Z19LongShortLapIllegalP5fractS0_S0_PKjS2_S2_ii>)
    1b0e:	d1c8           	l32i.n	a12, a1, 52
    1b10:	e1b8           	l32i.n	a11, a1, 56
    1b12:	c1a8           	l32i.n	a10, a1, 48
    1b14:	162192        	l32i	a9, a1, 88
    1b17:	0199           	s32i.n	a9, a1, 0
    1b19:	11b9           	s32i.n	a11, a1, 4
    1b1b:	93cab0        	movnez	a12, a10, a11
    1b1e:	04ad           	mov.n	a10, a4
    1b20:	05bd           	mov.n	a11, a5
    1b22:	0008e0        	callx8	a8
    1b25:	08d462        	addmi	a6, a4, 0x800
    1b28:	ff7a06        	j	1914 <_Z27CShortBlock_FrequencyToTimeP28CAacDecoderStaticChannelInfoP22CAacDecoderChannelInfoP5fractiiiS4_+0x15c>

00001b2b <_Z27CShortBlock_FrequencyToTimeP28CAacDecoderStaticChannelInfoP22CAacDecoderChannelInfoP5fractiiiS4_+0x373>:
    1b2b:	1621a2        	l32i	a10, a1, 88
    1b2e:	d198           	l32i.n	a9, a1, 52
    1b30:	e0a0b2        	movi	a11, 224
    1b33:	11aae0        	slli	a10, a10, 2
    1b36:	c099a0        	sub	a9, a9, a10
    1b39:	0f8b76        	loop	a11, 1b4c <_Z27CShortBlock_FrequencyToTimeP28CAacDecoderStaticChannelInfoP22CAacDecoderChannelInfoP5fractiiiS4_+0x394>
    1b3c:	4c0814        	ae_lp24.i	aep0, a8, 4
    1b3f:	c802f1882f 	{ ae_lp24.iu	aep0, a8, 8; ae_sllisp24s	aep1, aep0, 1 }
    1b44:	c802a699af 	{ ae_sp24f.l.xu	aep1, a9, a10; ae_sllisp24s	aep0, aep0, 1 }
    1b49:	5389a4        	ae_sp24f.l.xu	aep0, a9, a10

00001b4c <_Z27CShortBlock_FrequencyToTimeP28CAacDecoderStaticChannelInfoP22CAacDecoderChannelInfoP5fractiiiS4_+0x394>:
    1b4c:	1821d2        	l32i	a13, a1, 96
    1b4f:	04ad           	mov.n	a10, a4
    1b51:	f94281        	l32r	a8, 5c (618 <_Z4Lap1P5fractS0_S0_PKjii>)
    1b54:	1621f2        	l32i	a15, a1, 88
    1b57:	0ebd           	mov.n	a11, a14
    1b59:	d1c8           	l32i.n	a12, a1, 52
    1b5b:	f0eff0        	subx8	a14, a15, a15
    1b5e:	11ee80        	slli	a14, a14, 8
    1b61:	ccea           	add.n	a12, a12, a14
    1b63:	0e4c           	movi.n	a14, 64
    1b65:	0008e0        	callx8	a8
    1b68:	1221a2        	l32i	a10, a1, 72
    1b6b:	04bd           	mov.n	a11, a4
    1b6d:	0e4c           	movi.n	a14, 64
    1b6f:	1621f2        	l32i	a15, a1, 88
    1b72:	f93a81        	l32r	a8, 5c (618 <_Z4Lap1P5fractS0_S0_PKjii>)
    1b75:	d1c8           	l32i.n	a12, a1, 52
    1b77:	b0dff0        	addx8	a13, a15, a15
    1b7a:	11dd80        	slli	a13, a13, 8
    1b7d:	ccda           	add.n	a12, a12, a13
    1b7f:	1921d2        	l32i	a13, a1, 100
    1b82:	0008e0        	callx8	a8
    1b85:	1221b2        	l32i	a11, a1, 72
    1b88:	1321a2        	l32i	a10, a1, 76
    1b8b:	0e4c           	movi.n	a14, 64
    1b8d:	1621f2        	l32i	a15, a1, 88
    1b90:	f93381        	l32r	a8, 5c (618 <_Z4Lap1P5fractS0_S0_PKjii>)
    1b93:	0d21c2        	l32i	a12, a1, 52
    1b96:	a0dff0        	addx4	a13, a15, a15
    1b99:	90ddf0        	addx2	a13, a13, a15
    1b9c:	11dd80        	slli	a13, a13, 8
    1b9f:	80ccd0        	add	a12, a12, a13
    1ba2:	1921d2        	l32i	a13, a1, 100
    1ba5:	0008e0        	callx8	a8
    1ba8:	1321b2        	l32i	a11, a1, 76
    1bab:	07ad           	mov.n	a10, a7
    1bad:	0e4c           	movi.n	a14, 64
    1baf:	1621f2        	l32i	a15, a1, 88
    1bb2:	f92a81        	l32r	a8, 5c (618 <_Z4Lap1P5fractS0_S0_PKjii>)
    1bb5:	d1c8           	l32i.n	a12, a1, 52
    1bb7:	90dff0        	addx2	a13, a15, a15
    1bba:	a0ddf0        	addx4	a13, a13, a15
    1bbd:	11dd80        	slli	a13, a13, 8
    1bc0:	ccda           	add.n	a12, a12, a13
    1bc2:	1921d2        	l32i	a13, a1, 100
    1bc5:	0008e0        	callx8	a8
    1bc8:	07bd           	mov.n	a11, a7
    1bca:	06ad           	mov.n	a10, a6
    1bcc:	05cd           	mov.n	a12, a5
    1bce:	1921d2        	l32i	a13, a1, 100
    1bd1:	f93481        	l32r	a8, a4 (450 <_Z4Lap2P5fractS0_S0_PKjii>)
    1bd4:	40a0e2        	movi	a14, 64
    1bd7:	01a0f2        	movi	a15, 1
    1bda:	0008e0        	callx8	a8
    1bdd:	102182        	l32i	a8, a1, 64
    1be0:	1621c2        	l32i	a12, a1, 88
    1be3:	0d2c           	movi.n	a13, 32
    1be5:	d1b8           	l32i.n	a11, a1, 52
    1be7:	119cc0        	slli	a9, a12, 4
    1bea:	c099c0        	sub	a9, a9, a12
    1bed:	11a9a0        	slli	a10, a9, 6
    1bf0:	acaa           	add.n	a10, a12, a10
    1bf2:	119980        	slli	a9, a9, 8
    1bf5:	9b9a           	add.n	a9, a11, a9
    1bf7:	a0aab0        	addx4	a10, a10, a11
    1bfa:	11ccd0        	slli	a12, a12, 3
    1bfd:	1121b2        	l32i	a11, a1, 68
    1c00:	c099c0        	sub	a9, a9, a12
    1c03:	c0aac0        	sub	a10, a10, a12
    1c06:	f0cbb2        	addi	a11, a11, -16
    1c09:	148d76        	loop	a13, 1c21 <_Z27CShortBlock_FrequencyToTimeP28CAacDecoderStaticChannelInfoP22CAacDecoderChannelInfoP5fractiiiS4_+0x469>
    1c0c:	540814        	ae_lp24x2.i	aep0, a8, 8
    1c0f:	dc0170ab1f 	{ ae_lp24x2.iu	aep2, a11, 8; ae_selp24.hh	aep1, aep0, aep0 }

00001c14 <_Z27CShortBlock_FrequencyToTimeP28CAacDecoderStaticChannelInfoP22CAacDecoderChannelInfoP5fractiiiS4_+0x45c>:
    1c14:	c906b7a81f 	{ ae_sp24x2s.iu	aep2, a8, 8; ae_sllisp24s	aep2, aep1, 1 }
    1c19:	c802a6a9cf 	{ ae_sp24f.l.xu	aep2, a9, a12; ae_sllisp24s	aep0, aep0, 1 }
    1c1e:	538ac4        	ae_sp24f.l.xu	aep0, a10, a12

00001c21 <_Z27CShortBlock_FrequencyToTimeP28CAacDecoderStaticChannelInfoP22CAacDecoderChannelInfoP5fractiiiS4_+0x469>:
    1c21:	ff3bc6        	j	1914 <_Z27CShortBlock_FrequencyToTimeP28CAacDecoderStaticChannelInfoP22CAacDecoderChannelInfoP5fractiiiS4_+0x15c>

00001c24 <_Z29CShortBlock_ScaleSpectralDataP22CAacDecoderChannelInfo>:
    1c24:	00a136        	entry	a1, 80
    1c27:	3129           	s32i.n	a2, a1, 12
    1c29:	72b8           	l32i.n	a11, a2, 28
    1c2b:	0248           	l32i.n	a4, a2, 0
    1c2d:	82c8           	l32i.n	a12, a2, 32
    1c2f:	92d8           	l32i.n	a13, a2, 36
    1c31:	070452        	l8ui	a5, a4, 7
    1c34:	81d9           	s32i.n	a13, a1, 32
    1c36:	21c9           	s32i.n	a12, a1, 8
    1c38:	235500        	sext	a5, a5, 7
    1c3b:	02b5a6        	blti	a5, 16, 1c41 <_Z29CShortBlock_ScaleSpectralDataP22CAacDecoderChannelInfo+0x1d>
    1c3e:	004d06        	j	1d76 <_Z29CShortBlock_ScaleSpectralDataP22CAacDecoderChannelInfo+0x152>
    1c41:	090432        	l8ui	a3, a4, 9
    1c44:	f90781        	l32r	a8, 60 (109f0 <SamplingRateInfoTable>)
    1c47:	0604f2        	l8ui	a15, a4, 6
    1c4a:	030492        	l8ui	a9, a4, 3
    1c4d:	a06550        	addx4	a6, a5, a5
    1c50:	23ff00        	sext	a15, a15, 7
    1c53:	fec992        	addi	a9, a9, -2
    1c56:	a06680        	addx4	a6, a6, a8
    1c59:	2688           	l32i.n	a8, a6, 8
    1c5b:	4668           	l32i.n	a6, a6, 16
    1c5d:	233300        	sext	a3, a3, 7
    1c60:	0139           	s32i.n	a3, a1, 0
    1c62:	936890        	movnez	a6, a8, a9
    1c65:	6169           	s32i.n	a6, a1, 24
    1c67:	0213e6        	bgei	a3, 1, 1c6d <_Z29CShortBlock_ScaleSpectralDataP22CAacDecoderChannelInfo+0x49>
    1c6a:	004206        	j	1d76 <_Z29CShortBlock_ScaleSpectralDataP22CAacDecoderChannelInfo+0x152>
    1c6d:	5149           	s32i.n	a4, a1, 20
    1c6f:	0d0c           	movi.n	a13, 0
    1c71:	934a           	add.n	a9, a3, a4
    1c73:	1199           	s32i.n	a9, a1, 4

00001c75 <_Z29CShortBlock_ScaleSpectralDataP22CAacDecoderChannelInfo+0x51>:
    1c75:	51a8           	l32i.n	a10, a1, 20
    1c77:	0a0aa2        	l8ui	a10, a10, 10
    1c7a:	23aa00        	sext	a10, a10, 7
    1c7d:	431aa6        	blti	a10, 1, 1cc4 <_Z29CShortBlock_ScaleSpectralDataP22CAacDecoderChannelInfo+0xa0>
    1c80:	0e0c           	movi.n	a14, 0
    1c82:	3128           	l32i.n	a2, a1, 12
    1c84:	119dc0        	slli	a9, a13, 4
    1c87:	2188           	l32i.n	a8, a1, 8
    1c89:	11c9f0        	slli	a12, a9, 1
    1c8c:	1228           	l32i.n	a2, a2, 4
    1c8e:	908d80        	addx2	a8, a13, a8

00001c91 <_Z29CShortBlock_ScaleSpectralDataP22CAacDecoderChannelInfo+0x6d>:
    1c91:	151fa6        	blti	a15, 1, 1caa <_Z29CShortBlock_ScaleSpectralDataP22CAacDecoderChannelInfo+0x86>
    1c94:	8158           	l32i.n	a5, a1, 32
    1c96:	286d           	ae_l16si.n	a6, a8, 0
    1c98:	5c5a           	add.n	a5, a12, a5
    1c9a:	0caf76        	loopgtz	a15, 1caa <_Z29CShortBlock_ScaleSpectralDataP22CAacDecoderChannelInfo+0x86>
    1c9d:	257d           	ae_l16si.n	a7, a5, 0
    1c9f:	552b           	addi.n	a5, a5, 2
    1ca1:	03a677        	bge	a6, a7, 1ca8 <_Z29CShortBlock_ScaleSpectralDataP22CAacDecoderChannelInfo+0x84>
    1ca4:	076d           	mov.n	a6, a7
    1ca6:	687d           	ae_s16i.n	a7, a8, 0

00001ca8 <_Z29CShortBlock_ScaleSpectralDataP22CAacDecoderChannelInfo+0x84>:
    1ca8:	f03d           	nop.n

00001caa <_Z29CShortBlock_ScaleSpectralDataP22CAacDecoderChannelInfo+0x86>:
    1caa:	000232        	l8ui	a3, a2, 0
    1cad:	438c           	beqz.n	a3, 1cb5 <_Z29CShortBlock_ScaleSpectralDataP22CAacDecoderChannelInfo+0x91>
    1caf:	283d           	ae_l16si.n	a3, a8, 0
    1cb1:	332b           	addi.n	a3, a3, 2
    1cb3:	683d           	ae_s16i.n	a3, a8, 0

00001cb5 <_Z29CShortBlock_ScaleSpectralDataP22CAacDecoderChannelInfo+0x91>:
    1cb5:	dd1b           	addi.n	a13, a13, 1
    1cb7:	10c992        	addi	a9, a9, 16
    1cba:	20ccc2        	addi	a12, a12, 32
    1cbd:	882b           	addi.n	a8, a8, 2
    1cbf:	ee1b           	addi.n	a14, a14, 1
    1cc1:	cc9ae7        	bne	a10, a14, 1c91 <_Z29CShortBlock_ScaleSpectralDataP22CAacDecoderChannelInfo+0x6d>

00001cc4 <_Z29CShortBlock_ScaleSpectralDataP22CAacDecoderChannelInfo+0xa0>:
    1cc4:	5148           	l32i.n	a4, a1, 20
    1cc6:	1188           	l32i.n	a8, a1, 4
    1cc8:	441b           	addi.n	a4, a4, 1
    1cca:	5149           	s32i.n	a4, a1, 20
    1ccc:	a59487        	bne	a4, a8, 1c75 <_Z29CShortBlock_ScaleSpectralDataP22CAacDecoderChannelInfo+0x51>
    1ccf:	0d0c           	movi.n	a13, 0
    1cd1:	6198           	l32i.n	a9, a1, 24
    1cd3:	0c0c           	movi.n	a12, 0
    1cd5:	41c9           	s32i.n	a12, a1, 16
    1cd7:	909f90        	addx2	a9, a15, a9

00001cda <_Z29CShortBlock_ScaleSpectralDataP22CAacDecoderChannelInfo+0xb6>:
    1cda:	31c8           	l32i.n	a12, a1, 12
    1cdc:	41a8           	l32i.n	a10, a1, 16
    1cde:	0cc8           	l32i.n	a12, a12, 0
    1ce0:	aaca           	add.n	a10, a10, a12
    1ce2:	0a0aa2        	l8ui	a10, a10, 10
    1ce5:	23aa00        	sext	a10, a10, 7
    1ce8:	71a9           	s32i.n	a10, a1, 28
    1cea:	7a1aa6        	blti	a10, 1, 1d68 <_Z29CShortBlock_ScaleSpectralDataP22CAacDecoderChannelInfo+0x144>
    1ced:	11ad90        	slli	a10, a13, 7
    1cf0:	0e0c           	movi.n	a14, 0
    1cf2:	2188           	l32i.n	a8, a1, 8
    1cf4:	11cdc0        	slli	a12, a13, 4
    1cf7:	11ccf0        	slli	a12, a12, 1
    1cfa:	908d80        	addx2	a8, a13, a8

00001cfd <_Z29CShortBlock_ScaleSpectralDataP22CAacDecoderChannelInfo+0xd9>:
    1cfd:	521fa6        	blti	a15, 1, 1d53 <_Z29CShortBlock_ScaleSpectralDataP22CAacDecoderChannelInfo+0x12f>
    1d00:	8158           	l32i.n	a5, a1, 32
    1d02:	6168           	l32i.n	a6, a1, 24
    1d04:	5c5a           	add.n	a5, a12, a5

00001d06 <_Z29CShortBlock_ScaleSpectralDataP22CAacDecoderChannelInfo+0xe2>:
    1d06:	283d           	ae_l16si.n	a3, a8, 0
    1d08:	562d           	ae_l16ui.n	a2, a6, 2
    1d0a:	467d           	ae_l16ui.n	a7, a6, 0
    1d0c:	254d           	ae_l16si.n	a4, a5, 0
    1d0e:	552b           	addi.n	a5, a5, 2
    1d10:	662b           	addi.n	a6, a6, 2
    1d12:	c03340        	sub	a3, a3, a4
    1d15:	031634        	wur.ae_sar	a3
    1d18:	34a727        	bge	a7, a2, 1d50 <_Z29CShortBlock_ScaleSpectralDataP22CAacDecoderChannelInfo+0x12c>
    1d1b:	804a70        	add	a4, a10, a7
    1d1e:	c03270        	sub	a3, a2, a7
    1d21:	331b           	addi.n	a3, a3, 1
    1d23:	a044b0        	addx4	a4, a4, a11
    1d26:	f8c422        	addi	a2, a4, -8
    1d29:	217130        	srai	a7, a3, 1
    1d2c:	086317        	bbci	a3, 1, 1d38 <_Z29CShortBlock_ScaleSpectralDataP22CAacDecoderChannelInfo+0x114>
    1d2f:	540404        	ae_lp24x2.i	aep0, a4, 0
    1d32:	0b0384        	ae_srasp24	aep0, aep0
    1d35:	568214        	ae_sp24x2s.iu	aep0, a2, 8

00001d38 <_Z29CShortBlock_ScaleSpectralDataP22CAacDecoderChannelInfo+0x114>:
    1d38:	213170        	srai	a3, a7, 1
    1d3b:	f03d           	nop.n
    1d3d:	0fa376        	loopgtz	a3, 1d50 <_Z29CShortBlock_ScaleSpectralDataP22CAacDecoderChannelInfo+0x12c>
    1d40:	540214        	ae_lp24x2.i	aep0, a2, 8
    1d43:	f8a3f0022f 	{ ae_lp24x2.i	aep0, a2, 16; ae_srasp24	aep1, aep0 }
    1d48:	f8a3b7121f 	{ ae_sp24x2s.i	aep1, a2, 8; ae_srasp24	aep0, aep0 }
    1d4d:	568224        	ae_sp24x2s.iu	aep0, a2, 16

00001d50 <_Z29CShortBlock_ScaleSpectralDataP22CAacDecoderChannelInfo+0x12c>:
    1d50:	b29697        	bne	a6, a9, 1d06 <_Z29CShortBlock_ScaleSpectralDataP22CAacDecoderChannelInfo+0xe2>

00001d53 <_Z29CShortBlock_ScaleSpectralDataP22CAacDecoderChannelInfo+0x12f>:
    1d53:	dd1b           	addi.n	a13, a13, 1
    1d55:	20ccc2        	addi	a12, a12, 32
    1d58:	882b           	addi.n	a8, a8, 2
    1d5a:	01cee2        	addi	a14, a14, 1
    1d5d:	7138           	l32i.n	a3, a1, 28
    1d5f:	01daa2        	addmi	a10, a10, 0x100
    1d62:	80caa2        	addi	a10, a10, -128
    1d65:	9493e7        	bne	a3, a14, 1cfd <_Z29CShortBlock_ScaleSpectralDataP22CAacDecoderChannelInfo+0xd9>

00001d68 <_Z29CShortBlock_ScaleSpectralDataP22CAacDecoderChannelInfo+0x144>:
    1d68:	41a8           	l32i.n	a10, a1, 16
    1d6a:	0188           	l32i.n	a8, a1, 0
    1d6c:	aa1b           	addi.n	a10, a10, 1
    1d6e:	41a9           	s32i.n	a10, a1, 16
    1d70:	c088a0        	sub	a8, a8, a10
    1d73:	f63856        	bnez	a8, 1cda <_Z29CShortBlock_ScaleSpectralDataP22CAacDecoderChannelInfo+0xb6>

00001d76 <_Z29CShortBlock_ScaleSpectralDataP22CAacDecoderChannelInfo+0x152>:
    1d76:	f01d           	retw.n

00001d78 <_Z16CShortBlock_InitP22CAacDecoderChannelInfo>:
    1d78:	004136        	entry	a1, 32
    1d7b:	090c           	movi.n	a9, 0
    1d7d:	040c           	movi.n	a4, 0
    1d7f:	250c           	movi.n	a5, 2
    1d81:	070c           	movi.n	a7, 0
    1d83:	b2c8           	l32i.n	a12, a2, 44
    1d85:	080c           	movi.n	a8, 0
    1d87:	a2b8           	l32i.n	a11, a2, 40
    1d89:	10cca2        	addi	a10, a12, 16
    1d8c:	8028c0        	add	a2, a8, a12
    1d8f:	8037b0        	add	a3, a7, a11

00001d92 <_Z16CShortBlock_InitP22CAacDecoderChannelInfo+0x1a>:
    1d92:	10caa2        	addi	a10, a10, 16
    1d95:	991b           	addi.n	a9, a9, 1
    1d97:	20c772        	addi	a7, a7, 32
    1d9a:	10c882        	addi	a8, a8, 16
    1d9d:	318576        	loop	a5, 1dd2 <_Z16CShortBlock_InitP22CAacDecoderChannelInfo+0x5a>
    1da0:	004242        	s8i	a4, a2, 0
    1da3:	09c344        	ae_s16ip	a4, a3, 2
    1da6:	014242        	s8i	a4, a2, 1
    1da9:	09c344        	ae_s16ip	a4, a3, 2
    1dac:	024242        	s8i	a4, a2, 2
    1daf:	09c344        	ae_s16ip	a4, a3, 2
    1db2:	034242        	s8i	a4, a2, 3
    1db5:	09c344        	ae_s16ip	a4, a3, 2
    1db8:	044242        	s8i	a4, a2, 4
    1dbb:	09c344        	ae_s16ip	a4, a3, 2
    1dbe:	054242        	s8i	a4, a2, 5
    1dc1:	09c344        	ae_s16ip	a4, a3, 2
    1dc4:	064242        	s8i	a4, a2, 6
    1dc7:	09c344        	ae_s16ip	a4, a3, 2
    1dca:	074242        	s8i	a4, a2, 7
    1dcd:	09c344        	ae_s16ip	a4, a3, 2
    1dd0:	228b           	addi.n	a2, a2, 8

00001dd2 <_Z16CShortBlock_InitP22CAacDecoderChannelInfo+0x5a>:
    1dd2:	250c           	movi.n	a5, 2
    1dd4:	37ba           	add.n	a3, a7, a11
    1dd6:	28ca           	add.n	a2, a8, a12
    1dd8:	b68966        	bnei	a9, 8, 1d92 <_Z16CShortBlock_InitP22CAacDecoderChannelInfo+0x1a>
    1ddb:	f01d           	retw.n

00001ddd <_Z16CShortBlock_InitP22CAacDecoderChannelInfo+0x65>:
    1ddd:	000000                                        ...

00001de0 <_Z20CJointStereo_ApplyISPP22CAacDecoderChannelInfoPKtPciih>:
    1de0:	010136        	entry	a1, 128
    1de3:	5139           	s32i.n	a3, a1, 20
    1de5:	2149           	s32i.n	a4, a1, 8
    1de7:	3159           	s32i.n	a5, a1, 12
    1de9:	0298           	l32i.n	a9, a2, 0
    1deb:	136172        	s32i	a7, a1, 76
    1dee:	1199           	s32i.n	a9, a1, 4
    1df0:	4998           	l32i.n	a9, a9, 16
    1df2:	106192        	s32i	a9, a1, 64
    1df5:	0215e6        	bgei	a5, 1, 1dfb <_Z20CJointStereo_ApplyISPP22CAacDecoderChannelInfoPKtPciih+0x1b>
    1df8:	006a46        	j	1fa5 <_Z20CJointStereo_ApplyISPP22CAacDecoderChannelInfoPKtPciih+0x1c5>
    1dfb:	f50c           	movi.n	a5, 15
    1dfd:	f8ab91        	l32r	a9, ac (109e8 <specExpMantTableComb>)
    1e00:	070c           	movi.n	a7, 0
    1e02:	1228           	l32i.n	a2, a2, 4
    1e04:	080c           	movi.n	a8, 0
    1e06:	4189           	s32i.n	a8, a1, 16
    1e08:	0129           	s32i.n	a2, a1, 0
    1e0a:	d179           	s32i.n	a7, a1, 52
    1e0c:	0998           	l32i.n	a9, a9, 0
    1e0e:	e70c           	movi.n	a7, 14
    1e10:	126192        	s32i	a9, a1, 72
    1e13:	b298           	l32i.n	a9, a2, 44
    1e15:	a228           	l32i.n	a2, a2, 40
    1e17:	000546        	j	1e30 <_Z20CJointStereo_ApplyISPP22CAacDecoderChannelInfoPKtPciih+0x50>

00001e1a <_Z20CJointStereo_ApplyISPP22CAacDecoderChannelInfoPKtPciih+0x3a>:
    1e1a:	10cf92        	addi	a9, a15, 16
    1e1d:	9128           	l32i.n	a2, a1, 36
    1e1f:	41b8           	l32i.n	a11, a1, 16
    1e21:	31a8           	l32i.n	a10, a1, 12
    1e23:	20c222        	addi	a2, a2, 32
    1e26:	bb1b           	addi.n	a11, a11, 1
    1e28:	41b9           	s32i.n	a11, a1, 16
    1e2a:	c0aab0        	sub	a10, a10, a11
    1e2d:	174a16        	beqz	a10, 1fa5 <_Z20CJointStereo_ApplyISPP22CAacDecoderChannelInfoPKtPciih+0x1c5>

00001e30 <_Z20CJointStereo_ApplyISPP22CAacDecoderChannelInfoPKtPciih+0x50>:
    1e30:	21a8           	l32i.n	a10, a1, 8
    1e32:	4188           	l32i.n	a8, a1, 16
    1e34:	88aa           	add.n	a8, a8, a10
    1e36:	6189           	s32i.n	a8, a1, 24
    1e38:	000882        	l8ui	a8, a8, 0
    1e3b:	09fd           	mov.n	a15, a9
    1e3d:	9129           	s32i.n	a2, a1, 36
    1e3f:	232800        	sext	a2, a8, 7
    1e42:	d412a6        	blti	a2, 1, 1e1a <_Z20CJointStereo_ApplyISPP22CAacDecoderChannelInfoPKtPciih+0x3a>
    1e45:	01e8           	l32i.n	a14, a1, 0
    1e47:	d198           	l32i.n	a9, a1, 52
    1e49:	1188           	l32i.n	a8, a1, 4
    1e4b:	41b8           	l32i.n	a11, a1, 16
    1e4d:	11c9b0        	slli	a12, a9, 5
    1e50:	98d8           	l32i.n	a13, a8, 36
    1e52:	401b00        	ssl	a11
    1e55:	9ea8           	l32i.n	a10, a14, 36
    1e57:	0b0c           	movi.n	a11, 0
    1e59:	7ee8           	l32i.n	a14, a14, 28
    1e5b:	7888           	l32i.n	a8, a8, 28
    1e5d:	119960        	slli	a9, a9, 10
    1e60:	e199           	s32i.n	a9, a1, 56
    1e62:	7189           	s32i.n	a8, a1, 28
    1e64:	81e9           	s32i.n	a14, a1, 32
    1e66:	dcda           	add.n	a13, a12, a13
    1e68:	c1b9           	s32i.n	a11, a1, 48
    1e6a:	ccaa           	add.n	a12, a12, a10
    1e6c:	1a0c           	movi.n	a10, 1
    1e6e:	a1aa00        	sll	a10, a10
    1e71:	74a0a0        	extui	a10, a10, 0, 8
    1e74:	1161a2        	s32i	a10, a1, 68
    1e77:	000a86        	j	1ea5 <_Z20CJointStereo_ApplyISPP22CAacDecoderChannelInfoPKtPciih+0xc5>

00001e7a <_Z20CJointStereo_ApplyISPP22CAacDecoderChannelInfoPKtPciih+0x9a>:
    1e7a:	6128           	l32i.n	a2, a1, 24
    1e7c:	000222        	l8ui	a2, a2, 0
    1e7f:	232200        	sext	a2, a2, 7

00001e82 <_Z20CJointStereo_ApplyISPP22CAacDecoderChannelInfoPKtPciih+0xa2>:
    1e82:	e198           	l32i.n	a9, a1, 56
    1e84:	b1c8           	l32i.n	a12, a1, 44
    1e86:	c188           	l32i.n	a8, a1, 48
    1e88:	d1d8           	l32i.n	a13, a1, 52
    1e8a:	20ccc2        	addi	a12, a12, 32
    1e8d:	881b           	addi.n	a8, a8, 1
    1e8f:	dd1b           	addi.n	a13, a13, 1
    1e91:	04d992        	addmi	a9, a9, 0x400
    1e94:	d1d9           	s32i.n	a13, a1, 52
    1e96:	a1d8           	l32i.n	a13, a1, 40
    1e98:	e199           	s32i.n	a9, a1, 56
    1e9a:	c189           	s32i.n	a8, a1, 48
    1e9c:	20cdd2        	addi	a13, a13, 32
    1e9f:	022827        	blt	a8, a2, 1ea5 <_Z20CJointStereo_ApplyISPP22CAacDecoderChannelInfoPKtPciih+0xc5>
    1ea2:	ffdd06        	j	1e1a <_Z20CJointStereo_ApplyISPP22CAacDecoderChannelInfoPKtPciih+0x3a>

00001ea5 <_Z20CJointStereo_ApplyISPP22CAacDecoderChannelInfoPKtPciih+0xc5>:
    1ea5:	b1c9           	s32i.n	a12, a1, 44
    1ea7:	e1a8           	l32i.n	a10, a1, 56
    1ea9:	a1d9           	s32i.n	a13, a1, 40
    1eab:	71b8           	l32i.n	a11, a1, 28
    1ead:	9a7b           	addi.n	a9, a10, 7
    1eaf:	b39aa0        	movgez	a9, a10, a10
    1eb2:	81a8           	l32i.n	a10, a1, 32
    1eb4:	219390        	srai	a9, a9, 3
    1eb7:	a0b9b0        	addx4	a11, a9, a11
    1eba:	1461b2        	s32i	a11, a1, 80
    1ebd:	a099a0        	addx4	a9, a9, a10
    1ec0:	f199           	s32i.n	a9, a1, 60
    1ec2:	bc16a6        	blti	a6, 1, 1e82 <_Z20CJointStereo_ApplyISPP22CAacDecoderChannelInfoPKtPciih+0xa2>
    1ec5:	51b8           	l32i.n	a11, a1, 20
    1ec7:	91e8           	l32i.n	a14, a1, 36
    1ec9:	0a0c           	movi.n	a10, 0
    1ecb:	4afa           	add.n	a4, a10, a15
    1ecd:	001dc6        	j	1f48 <_Z20CJointStereo_ApplyISPP22CAacDecoderChannelInfoPKtPciih+0x168>

00001ed0 <_Z20CJointStereo_ApplyISPP22CAacDecoderChannelInfoPKtPciih+0xf0>:
    1ed0:	000492        	l8ui	a9, a4, 0
    1ed3:	180c           	movi.n	a8, 1
    1ed5:	020c           	movi.n	a2, 0
    1ed7:	fc580f299e 	{ addi	a9, a9, -14; ae_negsp24s	aep0, aep2 }
    1edc:	832890        	moveqz	a2, a8, a9
    1edf:	128c           	beqz.n	a2, 1ee4 <_Z20CJointStereo_ApplyISPP22CAacDecoderChannelInfoPKtPciih+0x104>
    1ee1:	0904a4        	ae_movp48	aep2, aep0

00001ee4 <_Z20CJointStereo_ApplyISPP22CAacDecoderChannelInfoPKtPciih+0x104>:
    1ee4:	4b8d           	ae_l16ui.n	a8, a11, 0
    1ee6:	5b2d           	ae_l16ui.n	a2, a11, 2
    1ee8:	156182        	s32i	a8, a1, 84
    1eeb:	a03830        	addx4	a3, a8, a3
    1eee:	540304        	ae_lp24x2.i	aep0, a3, 0
    1ef1:	41a827        	bge	a8, a2, 1f36 <_Z20CJointStereo_ApplyISPP22CAacDecoderChannelInfoPKtPciih+0x156>
    1ef4:	f188           	l32i.n	a8, a1, 60
    1ef6:	152142        	l32i	a4, a1, 84
    1ef9:	010274        	ae_mulfp24s.ll	aeq0, aep0, aep2
    1efc:	ea40f0831f 	{ ae_lp24x2.iu	aep0, a3, 8; ae_mulfp24s.hl	aeq1, aep0, aep2 }
    1f01:	a08480        	addx4	a8, a4, a8
    1f04:	f8efd5424f 	{ sub	a4, a2, a4; ae_roundsp24q48sym	aep1, aeq1 }
    1f09:	4e1804        	ae_sp24s.l.i	aep1, a8, 0
    1f0c:	fcc822        	addi	a2, a8, -4
    1f0f:	441b           	addi.n	a4, a4, 1
    1f11:	180c           	movi.n	a8, 1
    1f13:	214140        	srai	a4, a4, 1
    1f16:	534480        	max	a4, a4, a8
    1f19:	f8e7cff44e 	{ addi	a4, a4, -1; ae_roundsp24q48sym	aep1, aeq0 }
    1f1e:	11a476        	loopgtz	a4, 1f33 <_Z20CJointStereo_ApplyISPP22CAacDecoderChannelInfoPKtPciih+0x153>
    1f21:	ea40b5922f 	{ ae_sp24s.l.iu	aep1, a2, 8; ae_mulfp24s.hl	aeq0, aep0, aep2 }
    1f26:	ea41f0831f 	{ ae_lp24x2.iu	aep0, a3, 8; ae_mulfp24s.ll	aeq1, aep0, aep2 }
    1f2b:	1b8c14        	ae_roundsp24q48sym	aep1, aeq0
    1f2e:	f8eff5121f 	{ ae_sp24s.l.i	aep1, a2, 4; ae_roundsp24q48sym	aep1, aeq1 }

00001f33 <_Z20CJointStereo_ApplyISPP22CAacDecoderChannelInfoPKtPciih+0x153>:
    1f33:	4e9224        	ae_sp24s.l.iu	aep1, a2, 8

00001f36 <_Z20CJointStereo_ApplyISPP22CAacDecoderChannelInfoPKtPciih+0x156>:
    1f36:	bb2b           	addi.n	a11, a11, 2
    1f38:	cc2b           	addi.n	a12, a12, 2
    1f3a:	dd2b           	addi.n	a13, a13, 2
    1f3c:	ee2b           	addi.n	a14, a14, 2
    1f3e:	aa1b           	addi.n	a10, a10, 1
    1f40:	4afa           	add.n	a4, a10, a15
    1f42:	c086a0        	sub	a8, a6, a10
    1f45:	f31816        	beqz	a8, 1e7a <_Z20CJointStereo_ApplyISPP22CAacDecoderChannelInfoPKtPciih+0x9a>

00001f48 <_Z20CJointStereo_ApplyISPP22CAacDecoderChannelInfoPKtPciih+0x168>:
    1f48:	000422        	l8ui	a2, a4, 0
    1f4b:	021257        	beq	a2, a5, 1f51 <_Z20CJointStereo_ApplyISPP22CAacDecoderChannelInfoPKtPciih+0x171>
    1f4e:	e49277        	bne	a2, a7, 1f36 <_Z20CJointStereo_ApplyISPP22CAacDecoderChannelInfoPKtPciih+0x156>

00001f51 <_Z20CJointStereo_ApplyISPP22CAacDecoderChannelInfoPKtPciih+0x171>:
    1f51:	2e9d           	ae_l16si.n	a9, a14, 0
    1f53:	142132        	l32i	a3, a1, 80
    1f56:	2d8d           	ae_l16si.n	a8, a13, 0
    1f58:	64c992        	addi	a9, a9, 100
    1f5b:	609090        	neg	a9, a9
    1f5e:	142090        	extui	a2, a9, 0, 2
    1f61:	219290        	srai	a9, a9, 2
    1f64:	889a           	add.n	a8, a8, a9
    1f66:	122192        	l32i	a9, a1, 72
    1f69:	f02220        	subx8	a2, a2, a2
    1f6c:	881b           	addi.n	a8, a8, 1
    1f6e:	b02290        	addx8	a2, a2, a9
    1f71:	132192        	l32i	a9, a1, 76
    1f74:	6c8d           	ae_s16i.n	a8, a12, 0
    1f76:	4c2204        	ae_lp24.i	aep2, a2, 0
    1f79:	f53916        	beqz	a9, 1ed0 <_Z20CJointStereo_ApplyISPP22CAacDecoderChannelInfoPKtPciih+0xf0>
    1f7c:	102192        	l32i	a9, a1, 64
    1f7f:	112182        	l32i	a8, a1, 68
    1f82:	9a9a           	add.n	a9, a10, a9
    1f84:	010992        	l8ui	a9, a9, 1
    1f87:	020c           	movi.n	a2, 0
    1f89:	028897        	bany	a8, a9, 1f8f <_Z20CJointStereo_ApplyISPP22CAacDecoderChannelInfoPKtPciih+0x1af>
    1f8c:	ffd006        	j	1ed0 <_Z20CJointStereo_ApplyISPP22CAacDecoderChannelInfoPKtPciih+0xf0>
    1f8f:	000492        	l8ui	a9, a4, 0
    1f92:	180c           	movi.n	a8, 1
    1f94:	fc580f199e 	{ addi	a9, a9, -15; ae_negsp24s	aep0, aep2 }
    1f99:	832890        	moveqz	a2, a8, a9
    1f9c:	f44216        	beqz	a2, 1ee4 <_Z20CJointStereo_ApplyISPP22CAacDecoderChannelInfoPKtPciih+0x104>
    1f9f:	0904a4        	ae_movp48	aep2, aep0
    1fa2:	ffcf86        	j	1ee4 <_Z20CJointStereo_ApplyISPP22CAacDecoderChannelInfoPKtPciih+0x104>

00001fa5 <_Z20CJointStereo_ApplyISPP22CAacDecoderChannelInfoPKtPciih+0x1c5>:
    1fa5:	f01d           	retw.n

00001fa7 <_Z20CJointStereo_ApplyISPP22CAacDecoderChannelInfoPKtPciih+0x1c7>:
	...

00001fa8 <_Z20CJointStereo_ApplyMSPP22CAacDecoderChannelInfoPKtPcii>:
    1fa8:	00e136        	entry	a1, 112
    1fab:	06dd           	mov.n	a13, a6
    1fad:	3129           	s32i.n	a2, a1, 12
    1faf:	7139           	s32i.n	a3, a1, 28
    1fb1:	4149           	s32i.n	a4, a1, 16
    1fb3:	0288           	l32i.n	a8, a2, 0
    1fb5:	5159           	s32i.n	a5, a1, 20
    1fb7:	2189           	s32i.n	a8, a1, 8
    1fb9:	4888           	l32i.n	a8, a8, 16
    1fbb:	126182        	s32i	a8, a1, 72
    1fbe:	0215e6        	bgei	a5, 1, 1fc4 <_Z20CJointStereo_ApplyMSPP22CAacDecoderChannelInfoPKtPcii+0x1c>
    1fc1:	007b06        	j	21b1 <_Z20CJointStereo_ApplyMSPP22CAacDecoderChannelInfoPKtPcii+0x209>
    1fc4:	070c           	movi.n	a7, 0
    1fc6:	080c           	movi.n	a8, 0
    1fc8:	6189           	s32i.n	a8, a1, 24
    1fca:	e179           	s32i.n	a7, a1, 56
    1fcc:	000386        	j	1fde <_Z20CJointStereo_ApplyMSPP22CAacDecoderChannelInfoPKtPcii+0x36>

00001fcf <_Z20CJointStereo_ApplyMSPP22CAacDecoderChannelInfoPKtPcii+0x27>:
	...

00001fd0 <_Z20CJointStereo_ApplyMSPP22CAacDecoderChannelInfoPKtPcii+0x28>:
    1fd0:	61a8           	l32i.n	a10, a1, 24
    1fd2:	5198           	l32i.n	a9, a1, 20
    1fd4:	aa1b           	addi.n	a10, a10, 1
    1fd6:	61a9           	s32i.n	a10, a1, 24
    1fd8:	c099a0        	sub	a9, a9, a10
    1fdb:	1d2916        	beqz	a9, 21b1 <_Z20CJointStereo_ApplyMSPP22CAacDecoderChannelInfoPKtPcii+0x209>

00001fde <_Z20CJointStereo_ApplyMSPP22CAacDecoderChannelInfoPKtPcii+0x36>:
    1fde:	4178           	l32i.n	a7, a1, 16
    1fe0:	6168           	l32i.n	a6, a1, 24
    1fe2:	667a           	add.n	a6, a6, a7
    1fe4:	8169           	s32i.n	a6, a1, 32
    1fe6:	000662        	l8ui	a6, a6, 0
    1fe9:	236600        	sext	a6, a6, 7
    1fec:	e016a6        	blti	a6, 1, 1fd0 <_Z20CJointStereo_ApplyMSPP22CAacDecoderChannelInfoPKtPcii+0x28>
    1fef:	e1b8           	l32i.n	a11, a1, 56
    1ff1:	21c8           	l32i.n	a12, a1, 8
    1ff3:	6188           	l32i.n	a8, a1, 24
    1ff5:	0e0c           	movi.n	a14, 0
    1ff7:	d1e9           	s32i.n	a14, a1, 52
    1ff9:	401800        	ssl	a8
    1ffc:	7cf8           	l32i.n	a15, a12, 28
    1ffe:	117b60        	slli	a7, a11, 10
    2001:	9cc8           	l32i.n	a12, a12, 36
    2003:	11bbb0        	slli	a11, a11, 5
    2006:	91f9           	s32i.n	a15, a1, 36
    2008:	f179           	s32i.n	a7, a1, 60
    200a:	31f8           	l32i.n	a15, a1, 12
    200c:	170c           	movi.n	a7, 1
    200e:	a17700        	sll	a7, a7
    2011:	cbca           	add.n	a12, a11, a12
    2013:	1ff8           	l32i.n	a15, a15, 4
    2015:	747070        	extui	a7, a7, 0, 8
    2018:	136172        	s32i	a7, a1, 76
    201b:	9fe8           	l32i.n	a14, a15, 36
    201d:	7ff8           	l32i.n	a15, a15, 28
    201f:	a1f9           	s32i.n	a15, a1, 40
    2021:	bbea           	add.n	a11, a11, a14
    2023:	0009c6        	j	204e <_Z20CJointStereo_ApplyMSPP22CAacDecoderChannelInfoPKtPcii+0xa6>

00002026 <_Z20CJointStereo_ApplyMSPP22CAacDecoderChannelInfoPKtPcii+0x7e>:
    2026:	8168           	l32i.n	a6, a1, 32
    2028:	000662        	l8ui	a6, a6, 0
    202b:	236600        	sext	a6, a6, 7

0000202e <_Z20CJointStereo_ApplyMSPP22CAacDecoderChannelInfoPKtPcii+0x86>:
    202e:	f188           	l32i.n	a8, a1, 60
    2030:	c1b8           	l32i.n	a11, a1, 48
    2032:	d178           	l32i.n	a7, a1, 52
    2034:	e1c8           	l32i.n	a12, a1, 56
    2036:	20cbb2        	addi	a11, a11, 32
    2039:	771b           	addi.n	a7, a7, 1
    203b:	cc1b           	addi.n	a12, a12, 1
    203d:	04d882        	addmi	a8, a8, 0x400
    2040:	e1c9           	s32i.n	a12, a1, 56
    2042:	b1c8           	l32i.n	a12, a1, 44
    2044:	f189           	s32i.n	a8, a1, 60
    2046:	d179           	s32i.n	a7, a1, 52
    2048:	20ccc2        	addi	a12, a12, 32
    204b:	81a767        	bge	a7, a6, 1fd0 <_Z20CJointStereo_ApplyMSPP22CAacDecoderChannelInfoPKtPcii+0x28>

0000204e <_Z20CJointStereo_ApplyMSPP22CAacDecoderChannelInfoPKtPcii+0xa6>:
    204e:	c1b9           	s32i.n	a11, a1, 48
    2050:	f188           	l32i.n	a8, a1, 60
    2052:	b1c9           	s32i.n	a12, a1, 44
    2054:	9198           	l32i.n	a9, a1, 36
    2056:	787b           	addi.n	a7, a8, 7
    2058:	b37880        	movgez	a7, a8, a8
    205b:	a188           	l32i.n	a8, a1, 40
    205d:	217370        	srai	a7, a7, 3
    2060:	a09790        	addx4	a9, a7, a9
    2063:	106192        	s32i	a9, a1, 64
    2066:	a07780        	addx4	a7, a7, a8
    2069:	116172        	s32i	a7, a1, 68
    206c:	be1da6        	blti	a13, 1, 202e <_Z20CJointStereo_ApplyMSPP22CAacDecoderChannelInfoPKtPcii+0x86>
    206f:	71a8           	l32i.n	a10, a1, 28
    2071:	090c           	movi.n	a9, 0
    2073:	002146        	j	20fc <_Z20CJointStereo_ApplyMSPP22CAacDecoderChannelInfoPKtPcii+0x154>

00002076 <_Z20CJointStereo_ApplyMSPP22CAacDecoderChannelInfoPKtPcii+0xce>:
	...

00002078 <_Z20CJointStereo_ApplyMSPP22CAacDecoderChannelInfoPKtPcii+0xd0>:
    2078:	540404        	ae_lp24x2.i	aep0, a4, 0
    207b:	600204        	ae_lq32f.i	aeq0, a2, 0
    207e:	6cafe7        	bge	a15, a14, 20ee <_Z20CJointStereo_ApplyMSPP22CAacDecoderChannelInfoPKtPcii+0x146>
    2081:	35c074        	ae_sraiq56	aeq3, aeq0, 1
    2084:	f80471        	l32r	a7, 94 (400000 <_end+0x3ef448>)
    2087:	c05ef0        	sub	a5, a14, a15
    208a:	c08360        	sub	a8, a3, a6
    208d:	400800        	ssr	a8
    2090:	551b           	addi.n	a5, a5, 1
    2092:	215150        	srai	a5, a5, 1
    2095:	b17070        	sra	a7, a7
    2098:	379774        	ae_truncp24a32x2	aep1, a7, a7
    209b:	e3234fc43e 	{ addi	a3, a4, -4; ae_mulafp24s.hl	aeq3, aep0, aep1 }
    20a0:	550b           	addi.n	a5, a5, -1
    20a2:	fe5c7d621f 	{ ae_lq32f.i	aeq3, a2, 4; ae_roundsq32sym	aeq2, aeq3 }
    20a7:	357074        	ae_sraiq56	aeq1, aeq3, 1
    20aa:	e223f9a40f 	{ ae_sq32f.i	aeq2, a4, 0; ae_mulafp24s.ll	aeq1, aep0, aep1 }
    20af:	f832f0841f 	{ ae_lp24x2.iu	aep0, a4, 8; ae_subq56	aeq0, aeq2, aeq0 }
    20b4:	fe4c79820f 	{ ae_sq32f.i	aeq0, a2, 0; ae_roundsq32sym	aeq2, aeq1 }
    20b9:	626324        	ae_sq32f.iu	aeq2, a3, 8
    20bc:	fab6fd122f 	{ ae_lq32f.iu	aeq0, a2, 8; ae_subq56	aeq2, aeq2, aeq3 }
    20c1:	26a576        	loopgtz	a5, 20eb <_Z20CJointStereo_ApplyMSPP22CAacDecoderChannelInfoPKtPcii+0x143>
    20c4:	354074        	ae_sraiq56	aeq1, aeq0, 1
    20c7:	e22379a2ff 	{ ae_sq32f.i	aeq2, a2, -4; ae_mulafp24s.hl	aeq1, aep0, aep1 }
    20cc:	608214        	ae_lq32f.i	aeq2, a2, 4
    20cf:	ff4c7b205f 	{ ae_sraiq56	aeq1, aeq2, 1; ae_roundsq32sym	aeq3, aeq1 }
    20d4:	e223f9b31f 	{ ae_sq32f.i	aeq3, a3, 4; ae_mulafp24s.ll	aeq1, aep0, aep1 }
    20d9:	fb3af0841f 	{ ae_lp24x2.iu	aep0, a4, 8; ae_subq56	aeq3, aeq3, aeq0 }
    20de:	fd4c79b20f 	{ ae_sq32f.i	aeq3, a2, 0; ae_roundsq32sym	aeq1, aeq1 }
    20e3:	faaaf9d32f 	{ ae_sq32f.iu	aeq1, a3, 8; ae_subq56	aeq2, aeq1, aeq2 }
    20e8:	601224        	ae_lq32f.iu	aeq0, a2, 8

000020eb <_Z20CJointStereo_ApplyMSPP22CAacDecoderChannelInfoPKtPcii+0x143>:
    20eb:	6222f4        	ae_sq32f.i	aeq2, a2, -4

000020ee <_Z20CJointStereo_ApplyMSPP22CAacDecoderChannelInfoPKtPcii+0x146>:
    20ee:	aa2b           	addi.n	a10, a10, 2
    20f0:	02cbb2        	addi	a11, a11, 2
    20f3:	02ccc2        	addi	a12, a12, 2
    20f6:	c0fd90        	sub	a15, a13, a9
    20f9:	f29f16        	beqz	a15, 2026 <_Z20CJointStereo_ApplyMSPP22CAacDecoderChannelInfoPKtPcii+0x7e>

000020fc <_Z20CJointStereo_ApplyMSPP22CAacDecoderChannelInfoPKtPcii+0x154>:
    20fc:	122182        	l32i	a8, a1, 72
    20ff:	112122        	l32i	a2, a1, 68
    2102:	132172        	l32i	a7, a1, 76
    2105:	898a           	add.n	a8, a9, a8
    2107:	010882        	l8ui	a8, a8, 1
    210a:	102142        	l32i	a4, a1, 64
    210d:	991b           	addi.n	a9, a9, 1
    210f:	db0787        	bnone	a7, a8, 20ee <_Z20CJointStereo_ApplyMSPP22CAacDecoderChannelInfoPKtPcii+0x146>
    2112:	2b5d           	ae_l16si.n	a5, a11, 0
    2114:	2c6d           	ae_l16si.n	a6, a12, 0
    2116:	533650        	max	a3, a6, a5
    2119:	731b           	addi.n	a7, a3, 1
    211b:	6c7d           	ae_s16i.n	a7, a12, 0
    211d:	6b7d           	ae_s16i.n	a7, a11, 0
    211f:	4afd           	ae_l16ui.n	a15, a10, 0
    2121:	5aed           	ae_l16ui.n	a14, a10, 2
    2123:	c07360        	sub	a7, a3, a6
    2126:	a04f40        	addx4	a4, a15, a4
    2129:	a02f20        	addx4	a2, a15, a2
    212c:	f48756        	bnez	a7, 2078 <_Z20CJointStereo_ApplyMSPP22CAacDecoderChannelInfoPKtPcii+0xd0>
    212f:	600404        	ae_lq32f.i	aeq0, a4, 0
    2132:	540204        	ae_lp24x2.i	aep0, a2, 0
    2135:	b5afe7        	bge	a15, a14, 20ee <_Z20CJointStereo_ApplyMSPP22CAacDecoderChannelInfoPKtPcii+0x146>
    2138:	60c414        	ae_lq32f.i	aeq3, a4, 4
    213b:	358074        	ae_sraiq56	aeq2, aeq0, 1
    213e:	f7d571        	l32r	a7, 94 (400000 <_end+0x3ef448>)
    2141:	c06ef0        	sub	a6, a14, a15
    2144:	c08350        	sub	a8, a3, a5
    2147:	fcc2e2        	addi	a14, a2, -4
    214a:	400800        	ssr	a8
    214d:	661b           	addi.n	a6, a6, 1
    214f:	216160        	srai	a6, a6, 1
    2152:	b17070        	sra	a7, a7
    2155:	379774        	ae_truncp24a32x2	aep1, a7, a7
    2158:	e3230fc43e 	{ addi	a3, a4, -4; ae_mulafp24s.hl	aeq2, aep0, aep1 }
    215d:	660b           	addi.n	a6, a6, -1
    215f:	fd547b309f 	{ ae_sraiq56	aeq2, aeq3, 1; ae_roundsq32sym	aeq1, aeq2 }
    2164:	f826f9940f 	{ ae_sq32f.i	aeq1, a4, 0; ae_subq56	aeq0, aeq0, aeq1 }
    2169:	620204        	ae_sq32f.i	aeq0, a2, 0
    216c:	e323bd142f 	{ ae_lq32f.iu	aeq0, a4, 8; ae_mulafp24s.ll	aeq2, aep0, aep1 }
    2171:	548214        	ae_lp24x2.iu	aep0, a2, 8
    2174:	fd5453522f 	{ or	a5, a2, a2; ae_roundsq32sym	aeq1, aeq2 }
    2179:	625324        	ae_sq32f.iu	aeq1, a3, 8
    217c:	fb3ed3244f 	{ or	a2, a4, a4; ae_subq56	aeq3, aeq3, aeq1 }
    2181:	26a676        	loopgtz	a6, 21ab <_Z20CJointStereo_ApplyMSPP22CAacDecoderChannelInfoPKtPcii+0x203>
    2184:	354074        	ae_sraiq56	aeq1, aeq0, 1
    2187:	e22379fe2f 	{ ae_sq32f.iu	aeq3, a14, 8; ae_mulafp24s.hl	aeq1, aep0, aep1 }
    218c:	60c214        	ae_lq32f.i	aeq3, a2, 4
    218f:	fe4c7b305f 	{ ae_sraiq56	aeq1, aeq3, 1; ae_roundsq32sym	aeq2, aeq1 }
    2194:	e223f9a31f 	{ ae_sq32f.i	aeq2, a3, 4; ae_mulafp24s.ll	aeq1, aep0, aep1 }
    2199:	faa2f0851f 	{ ae_lp24x2.iu	aep0, a5, 8; ae_subq56	aeq2, aeq0, aeq2 }
    219e:	fd4c79ae1f 	{ ae_sq32f.i	aeq2, a14, 4; ae_roundsq32sym	aeq1, aeq1 }
    21a3:	fb3efd122f 	{ ae_lq32f.iu	aeq0, a2, 8; ae_subq56	aeq3, aeq3, aeq1 }
    21a8:	625324        	ae_sq32f.iu	aeq1, a3, 8

000021ab <_Z20CJointStereo_ApplyMSPP22CAacDecoderChannelInfoPKtPcii+0x203>:
    21ab:	627e24        	ae_sq32f.iu	aeq3, a14, 8
    21ae:	ffcf06        	j	20ee <_Z20CJointStereo_ApplyMSPP22CAacDecoderChannelInfoPKtPcii+0x146>

000021b1 <_Z20CJointStereo_ApplyMSPP22CAacDecoderChannelInfoPKtPcii+0x209>:
    21b1:	f01d           	retw.n

000021b3 <_Z20CJointStereo_ApplyMSPP22CAacDecoderChannelInfoPKtPcii+0x20b>:
    21b3:	00000000 01a13600                                .....

000021b8 <_Z10CTns_ApplyP22CAacDecoderChannelInfo>:
    21b8:	01a136        	entry	a1, 208
    21bb:	02b8           	l32i.n	a11, a2, 0
    21bd:	7298           	l32i.n	a9, a2, 28
    21bf:	12a8           	l32i.n	a10, a2, 4
    21c1:	070b82        	l8ui	a8, a11, 7
    21c4:	2261a2        	s32i	a10, a1, 136
    21c7:	296192        	s32i	a9, a1, 164
    21ca:	238800        	sext	a8, a8, 7
    21cd:	02b8a6        	blti	a8, 16, 21d3 <_Z10CTns_ApplyP22CAacDecoderChannelInfo+0x1b>
    21d0:	00f386        	j	25a2 <_Z10CTns_ApplyP22CAacDecoderChannelInfo+0x3ea>
    21d3:	000ac2        	l8ui	a12, a10, 0
    21d6:	3c8c16        	beqz	a12, 25a2 <_Z10CTns_ApplyP22CAacDecoderChannelInfo+0x3ea>
    21d9:	030bf2        	l8ui	a15, a11, 3
    21dc:	8e0c           	movi.n	a14, 8
    21de:	1d0c           	movi.n	a13, 1
    21e0:	fecff2        	addi	a15, a15, -2
    21e3:	83def0        	moveqz	a13, a14, a15
    21e6:	2161d2        	s32i	a13, a1, 132
    21e9:	021de6        	bgei	a13, 1, 21ef <_Z10CTns_ApplyP22CAacDecoderChannelInfo+0x37>
    21ec:	00ec86        	j	25a2 <_Z10CTns_ApplyP22CAacDecoderChannelInfo+0x3ea>
    21ef:	0a0c           	movi.n	a10, 0
    21f1:	0b0c           	movi.n	a11, 0
    21f3:	c14b           	addi.n	a12, a1, 4
    21f5:	0d0c           	movi.n	a13, 0
    21f7:	2361d2        	s32i	a13, a1, 140
    21fa:	2661c2        	s32i	a12, a1, 152
    21fd:	2461b2        	s32i	a11, a1, 144
    2200:	2561a2        	s32i	a10, a1, 148
    2203:	000b06        	j	2233 <_Z10CTns_ApplyP22CAacDecoderChannelInfo+0x7b>

00002206 <_Z10CTns_ApplyP22CAacDecoderChannelInfo+0x4e>:
	...

00002208 <_Z10CTns_ApplyP22CAacDecoderChannelInfo+0x50>:
    2208:	2121e2        	l32i	a14, a1, 132
    220b:	2921a2        	l32i	a10, a1, 164
    220e:	2521f2        	l32i	a15, a1, 148
    2211:	242182        	l32i	a8, a1, 144
    2214:	232192        	l32i	a9, a1, 140
    2217:	ff1b           	addi.n	a15, a15, 1
    2219:	6cc882        	addi	a8, a8, 108
    221c:	993b           	addi.n	a9, a9, 3
    221e:	02daa2        	addmi	a10, a10, 0x200
    2221:	2961a2        	s32i	a10, a1, 164
    2224:	236192        	s32i	a9, a1, 140
    2227:	246182        	s32i	a8, a1, 144
    222a:	2561f2        	s32i	a15, a1, 148
    222d:	c0eef0        	sub	a14, a14, a15
    2230:	36ee16        	beqz	a14, 25a2 <_Z10CTns_ApplyP22CAacDecoderChannelInfo+0x3ea>

00002233 <_Z10CTns_ApplyP22CAacDecoderChannelInfo+0x7b>:
    2233:	222192        	l32i	a9, a1, 136
    2236:	252182        	l32i	a8, a1, 148
    2239:	889a           	add.n	a8, a8, a9
    223b:	010882        	l8ui	a8, a8, 1
    223e:	238800        	sext	a8, a8, 7
    2241:	c318a6        	blti	a8, 1, 2208 <_Z10CTns_ApplyP22CAacDecoderChannelInfo+0x50>
    2244:	232192        	l32i	a9, a1, 140
    2247:	222162        	l32i	a6, a1, 136
    224a:	242132        	l32i	a3, a1, 144
    224d:	989a           	add.n	a9, a8, a9
    224f:	b09990        	addx8	a9, a9, a9
    2252:	336a           	add.n	a3, a3, a6
    2254:	a09960        	addx4	a9, a9, a6
    2257:	639b           	addi.n	a6, a3, 9
    2259:	999b           	addi.n	a9, a9, 9
    225b:	276192        	s32i	a9, a1, 156
    225e:	003a06        	j	234a <_Z10CTns_ApplyP22CAacDecoderChannelInfo+0x192>

00002261 <_Z10CTns_ApplyP22CAacDecoderChannelInfo+0xa9>:
	...

00002263 <_Z10CTns_ApplyP22CAacDecoderChannelInfo+0xab>:
    2263:	c0bed0        	sub	a11, a14, a13
    2266:	bbbb           	addi.n	a11, a11, 11
    2268:	0316b4        	wur.ae_sar	a11
    226b:	2daa77        	bge	a10, a7, 229c <_Z10CTns_ApplyP22CAacDecoderChannelInfo+0xe4>
    226e:	2921e2        	l32i	a14, a1, 164
    2271:	c0d7a0        	sub	a13, a7, a10
    2274:	2191d0        	srai	a9, a13, 1
    2277:	b0bae0        	addx8	a11, a10, a14
    227a:	f8cb82        	addi	a8, a11, -8
    227d:	086d07        	bbci	a13, 0, 2289 <_Z10CTns_ApplyP22CAacDecoderChannelInfo+0xd1>
    2280:	540b04        	ae_lp24x2.i	aep0, a11, 0
    2283:	0b0384        	ae_srasp24	aep0, aep0
    2286:	568814        	ae_sp24x2s.iu	aep0, a8, 8
    2289:	0fa976        	loopgtz	a9, 229c <_Z10CTns_ApplyP22CAacDecoderChannelInfo+0xe4>
    228c:	540814        	ae_lp24x2.i	aep0, a8, 8
    228f:	f8a3f0082f 	{ ae_lp24x2.i	aep0, a8, 16; ae_srasp24	aep1, aep0 }
    2294:	f8a3b7181f 	{ ae_sp24x2s.i	aep1, a8, 8; ae_srasp24	aep0, aep0 }
    2299:	568824        	ae_sp24x2s.iu	aep0, a8, 16

0000229c <_Z10CTns_ApplyP22CAacDecoderChannelInfo+0xe4>:
    229c:	221547        	beq	a5, a4, 22c2 <_Z10CTns_ApplyP22CAacDecoderChannelInfo+0x10a>
    229f:	0d6507        	bbci	a5, 0, 22b0 <_Z10CTns_ApplyP22CAacDecoderChannelInfo+0xf8>
    22a2:	2821f2        	l32i	a15, a1, 160
    22a5:	f03d           	nop.n
    22a7:	4c1f04        	ae_lp24.i	aep1, a15, 0
    22aa:	0b1394        	ae_srasp24	aep1, aep1
    22ad:	4e1f04        	ae_sp24s.l.i	aep1, a15, 0

000022b0 <_Z10CTns_ApplyP22CAacDecoderChannelInfo+0xf8>:
    22b0:	0e6407        	bbci	a4, 0, 22c2 <_Z10CTns_ApplyP22CAacDecoderChannelInfo+0x10a>
    22b3:	292182        	l32i	a8, a1, 164
    22b6:	a08480        	addx4	a8, a4, a8
    22b9:	4c28f4        	ae_lp24.i	aep2, a8, -4
    22bc:	0b23a4        	ae_srasp24	aep2, aep2
    22bf:	4e28f4        	ae_sp24s.l.i	aep2, a8, -4
    22c2:	2821a2        	l32i	a10, a1, 160
    22c5:	40c1b2        	addi	a11, a1, 64
    22c8:	2021f2        	l32i	a15, a1, 128
    22cb:	0b03d2        	l8ui	a13, a3, 11
    22ce:	0d03e2        	l8ui	a14, a3, 13
    22d1:	f77781        	l32r	a8, b0 (2728 <_Z12TnsFilterIIRP5fractS0_icii>)
    22d4:	23dd00        	sext	a13, a13, 7
    22d7:	23ee00        	sext	a14, a14, 7
    22da:	0008e0        	callx8	a8
    22dd:	2a21e2        	l32i	a14, a1, 168
    22e0:	2921d2        	l32i	a13, a1, 164
    22e3:	0020f0        	nop
    22e6:	2aae77        	bge	a14, a7, 2314 <_Z10CTns_ApplyP22CAacDecoderChannelInfo+0x15c>
    22e9:	c0c7e0        	sub	a12, a7, a14
    22ec:	b0bed0        	addx8	a11, a14, a13
    22ef:	2191c0        	srai	a9, a12, 1
    22f2:	f8cb82        	addi	a8, a11, -8
    22f5:	086c07        	bbci	a12, 0, 2301 <_Z10CTns_ApplyP22CAacDecoderChannelInfo+0x149>
    22f8:	544b04        	ae_lp24x2.i	aep4, a11, 0
    22fb:	0b40b4        	ae_sllssp24s	aep3, aep4
    22fe:	56b814        	ae_sp24x2s.iu	aep3, a8, 8
    2301:	0fa976        	loopgtz	a9, 2314 <_Z10CTns_ApplyP22CAacDecoderChannelInfo+0x15c>
    2304:	540814        	ae_lp24x2.i	aep0, a8, 8
    2307:	f823f0082f 	{ ae_lp24x2.i	aep0, a8, 16; ae_sllssp24s	aep1, aep0 }
    230c:	f823b7181f 	{ ae_sp24x2s.i	aep1, a8, 8; ae_sllssp24s	aep0, aep0 }
    2311:	568824        	ae_sp24x2s.iu	aep0, a8, 16

00002314 <_Z10CTns_ApplyP22CAacDecoderChannelInfo+0x15c>:
    2314:	231547        	beq	a5, a4, 233b <_Z10CTns_ApplyP22CAacDecoderChannelInfo+0x183>
    2317:	0e6507        	bbci	a5, 0, 2329 <_Z10CTns_ApplyP22CAacDecoderChannelInfo+0x171>
    231a:	2821e2        	l32i	a14, a1, 160
    231d:	0020f0        	nop
    2320:	4c6e04        	ae_lp24.i	aep6, a14, 0
    2323:	0b60d4        	ae_sllssp24s	aep5, aep6
    2326:	4e5e04        	ae_sp24s.l.i	aep5, a14, 0

00002329 <_Z10CTns_ApplyP22CAacDecoderChannelInfo+0x171>:
    2329:	0e6407        	bbci	a4, 0, 233b <_Z10CTns_ApplyP22CAacDecoderChannelInfo+0x183>
    232c:	2921f2        	l32i	a15, a1, 164
    232f:	a0f4f0        	addx4	a15, a4, a15
    2332:	4c0ff4        	ae_lp24.i	aep0, a15, -4
    2335:	0b00f4        	ae_sllssp24s	aep7, aep0
    2338:	4e7ff4        	ae_sp24s.l.i	aep7, a15, -4

0000233b <_Z10CTns_ApplyP22CAacDecoderChannelInfo+0x183>:
    233b:	272182        	l32i	a8, a1, 156
    233e:	24c332        	addi	a3, a3, 36
    2341:	24c662        	addi	a6, a6, 36
    2344:	c08680        	sub	a8, a6, a8
    2347:	ebd816        	beqz	a8, 2208 <_Z10CTns_ApplyP22CAacDecoderChannelInfo+0x50>

0000234a <_Z10CTns_ApplyP22CAacDecoderChannelInfo+0x192>:
    234a:	f75a81        	l32r	a8, b4 (29b8 <_Z21TnsDecodeCoefficientsP7CFilterP5fract>)
    234d:	06ad           	mov.n	a10, a6
    234f:	01bd           	mov.n	a11, a1
    2351:	0008e0        	callx8	a8
    2354:	f75981        	l32r	a8, b8 (29f4 <_Z7Minimumiii>)
    2357:	f759b1        	l32r	a11, bc (dc80 <tns_max_bands_tbl>)
    235a:	1f0c           	movi.n	a15, 1
    235c:	0903a2        	l8ui	a10, a3, 9
    235f:	0298           	l32i.n	a9, a2, 0
    2361:	0e0c           	movi.n	a14, 0
    2363:	23aa00        	sext	a10, a10, 7
    2366:	0409c2        	l8ui	a12, a9, 4
    2369:	0709d2        	l8ui	a13, a9, 7
    236c:	030992        	l8ui	a9, a9, 3
    236f:	23cc00        	sext	a12, a12, 7
    2372:	23dd00        	sext	a13, a13, 7
    2375:	fec992        	addi	a9, a9, -2
    2378:	83ef90        	moveqz	a14, a15, a9
    237b:	a0dde0        	addx4	a13, a13, a14
    237e:	bbda           	add.n	a11, a11, a13
    2380:	000bb2        	l8ui	a11, a11, 0
    2383:	0008e0        	callx8	a8
    2386:	02b8           	l32i.n	a11, a2, 0
    2388:	0020f0        	nop
    238b:	030bc2        	l8ui	a12, a11, 3
    238e:	070bd2        	l8ui	a13, a11, 7
    2391:	f73391        	l32r	a9, 60 (109f0 <SamplingRateInfoTable>)
    2394:	fecce2        	addi	a14, a12, -2
    2397:	23dd00        	sext	a13, a13, 7
    239a:	a08dd0        	addx4	a8, a13, a13
    239d:	a08890        	addx4	a8, a8, a9
    23a0:	1e9e16        	beqz	a14, 258d <_Z10CTns_ApplyP22CAacDecoderChannelInfo+0x3d5>
    23a3:	2858           	l32i.n	a5, a8, 8
    23a5:	905a50        	addx2	a5, a10, a5
    23a8:	455d           	ae_l16ui.n	a5, a5, 0

000023aa <_Z10CTns_ApplyP22CAacDecoderChannelInfo+0x1f2>:
    23aa:	fecc92        	addi	a9, a12, -2
    23ad:	180c           	movi.n	a8, 1
    23af:	0a03a2        	l8ui	a10, a3, 10
    23b2:	040be2        	l8ui	a14, a11, 4
    23b5:	0f0c           	movi.n	a15, 0
    23b7:	f741b1        	l32r	a11, bc (dc80 <tns_max_bands_tbl>)
    23ba:	23aa00        	sext	a10, a10, 7
    23bd:	83f890        	moveqz	a15, a8, a9
    23c0:	23ce00        	sext	a12, a14, 7
    23c3:	a0ddf0        	addx4	a13, a13, a15
    23c6:	f73c81        	l32r	a8, b8 (29f4 <_Z7Minimumiii>)
    23c9:	bbda           	add.n	a11, a11, a13
    23cb:	000bb2        	l8ui	a11, a11, 0
    23ce:	0008e0        	callx8	a8
    23d1:	0288           	l32i.n	a8, a2, 0
    23d3:	0308b2        	l8ui	a11, a8, 3
    23d6:	070882        	l8ui	a8, a8, 7
    23d9:	f72191        	l32r	a9, 60 (109f0 <SamplingRateInfoTable>)
    23dc:	fecbb2        	addi	a11, a11, -2
    23df:	238800        	sext	a8, a8, 7
    23e2:	a08880        	addx4	a8, a8, a8
    23e5:	a08890        	addx4	a8, a8, a9
    23e8:	1acb16        	beqz	a11, 2598 <_Z10CTns_ApplyP22CAacDecoderChannelInfo+0x3e0>
    23eb:	2848           	l32i.n	a4, a8, 8
    23ed:	904a40        	addx2	a4, a10, a4
    23f0:	444d           	ae_l16ui.n	a4, a4, 0

000023f2 <_Z10CTns_ApplyP22CAacDecoderChannelInfo+0x23a>:
    23f2:	c0e450        	sub	a14, a4, a5
    23f5:	021ee6        	bgei	a14, 1, 23fb <_Z10CTns_ApplyP22CAacDecoderChannelInfo+0x243>
    23f8:	ffcfc6        	j	233b <_Z10CTns_ApplyP22CAacDecoderChannelInfo+0x183>
    23fb:	0d03d2        	l8ui	a13, a3, 13
    23fe:	23dd00        	sext	a13, a13, 7
    2401:	021de6        	bgei	a13, 1, 2407 <_Z10CTns_ApplyP22CAacDecoderChannelInfo+0x24f>
    2404:	ffccc6        	j	233b <_Z10CTns_ApplyP22CAacDecoderChannelInfo+0x183>
    2407:	2621a2        	l32i	a10, a1, 152
    240a:	40c1b2        	addi	a11, a1, 64
    240d:	2b61e2        	s32i	a14, a1, 172
    2410:	f72c81        	l32r	a8, c0 (2898 <_Z13TnsParcor2LpcP5fractS0_Pii>)
    2413:	7fc1c2        	addi	a12, a1, 127
    2416:	cc1b           	addi.n	a12, a12, 1
    2418:	0008e0        	callx8	a8
    241b:	2b21c2        	l32i	a12, a1, 172
    241e:	e51b           	addi.n	a14, a5, 1
    2420:	d52b           	addi.n	a13, a5, 2
    2422:	fc20c0147e 	{ addi	a7, a4, 1; ae_zerop48	aep1 }
    2427:	b37440        	movgez	a7, a4, a4
    242a:	217170        	srai	a7, a7, 1
    242d:	b3dee0        	movgez	a13, a14, a14
    2430:	21d1d0        	srai	a13, a13, 1
    2433:	2a61d2        	s32i	a13, a1, 168
    2436:	21ad77        	bge	a13, a7, 245b <_Z10CTns_ApplyP22CAacDecoderChannelInfo+0x2a3>
    2439:	292182        	l32i	a8, a1, 164
    243c:	c097d0        	sub	a9, a7, a13
    243f:	b08d80        	addx8	a8, a13, a8
    2442:	f8c882        	addi	a8, a8, -8
    2445:	54a814        	ae_lp24x2.iu	aep2, a8, 8
    2448:	fc480ff99e 	{ addi	a9, a9, -1; ae_abssp24s	aep0, aep2 }
    244d:	07a976        	loopgtz	a9, 2458 <_Z10CTns_ApplyP22CAacDecoderChannelInfo+0x2a0>
    2450:	d82270881f 	{ ae_lp24x2.iu	aep0, a8, 8; ae_maxp24s	aep1, aep0, aep1 }
    2455:	079804        	ae_abssp24s	aep0, aep0

00002458 <_Z10CTns_ApplyP22CAacDecoderChannelInfo+0x2a0>:
    2458:	070914        	ae_maxp24s	aep1, aep0, aep1

0000245b <_Z10CTns_ApplyP22CAacDecoderChannelInfo+0x2a3>:
    245b:	2a1547        	beq	a5, a4, 2489 <_Z10CTns_ApplyP22CAacDecoderChannelInfo+0x2d1>
    245e:	292192        	l32i	a9, a1, 164
    2461:	a09590        	addx4	a9, a5, a9
    2464:	286192        	s32i	a9, a1, 160
    2467:	086507        	bbci	a5, 0, 2473 <_Z10CTns_ApplyP22CAacDecoderChannelInfo+0x2bb>
    246a:	4c4904        	ae_lp24.i	aep4, a9, 0
    246d:	079c34        	ae_abssp24s	aep3, aep4
    2470:	073914        	ae_maxp24s	aep1, aep3, aep1

00002473 <_Z10CTns_ApplyP22CAacDecoderChannelInfo+0x2bb>:
    2473:	1b6407        	bbci	a4, 0, 2492 <_Z10CTns_ApplyP22CAacDecoderChannelInfo+0x2da>
    2476:	2921b2        	l32i	a11, a1, 164
    2479:	a0b4b0        	addx4	a11, a4, a11
    247c:	4c6bf4        	ae_lp24.i	aep6, a11, -4
    247f:	079e54        	ae_abssp24s	aep5, aep6
    2482:	075914        	ae_maxp24s	aep1, aep5, aep1
    2485:	000246        	j	2492 <_Z10CTns_ApplyP22CAacDecoderChannelInfo+0x2da>

00002488 <_Z10CTns_ApplyP22CAacDecoderChannelInfo+0x2d0>:
	...

00002489 <_Z10CTns_ApplyP22CAacDecoderChannelInfo+0x2d1>:
    2489:	2921d2        	l32i	a13, a1, 164
    248c:	a0d5d0        	addx4	a13, a5, a13
    248f:	2861d2        	s32i	a13, a1, 160

00002492 <_Z10CTns_ApplyP22CAacDecoderChannelInfo+0x2da>:
    2492:	1a99f4        	ae_selp24.hh	aep7, aep1, aep1
    2495:	077974        	ae_maxp24s	aep7, aep7, aep1
    2498:	fcec3201ee 	{ l32i	a14, a1, 128; ae_cvtq48p24s.l	aeq0, aep7 }
    249d:	364d04        	ae_nsaq56s	a13, aeq0
    24a0:	2a21a2        	l32i	a10, a1, 168
    24a3:	c08de0        	sub	a8, a13, a14
    24a6:	02a8e6        	bgei	a8, 12, 24ac <_Z10CTns_ApplyP22CAacDecoderChannelInfo+0x2f4>
    24a9:	ff6d86        	j	2263 <_Z10CTns_ApplyP22CAacDecoderChannelInfo+0xab>
    24ac:	2a21e2        	l32i	a14, a1, 168
    24af:	f5c8f2        	addi	a15, a8, -11
    24b2:	0316f4        	wur.ae_sar	a15
    24b5:	2fae77        	bge	a14, a7, 24e8 <_Z10CTns_ApplyP22CAacDecoderChannelInfo+0x330>
    24b8:	c0d7e0        	sub	a13, a7, a14
    24bb:	0ebd           	mov.n	a11, a14
    24bd:	2921e2        	l32i	a14, a1, 164
    24c0:	2191d0        	srai	a9, a13, 1
    24c3:	b0bbe0        	addx8	a11, a11, a14
    24c6:	f8cb82        	addi	a8, a11, -8
    24c9:	086d07        	bbci	a13, 0, 24d5 <_Z10CTns_ApplyP22CAacDecoderChannelInfo+0x31d>
    24cc:	541b04        	ae_lp24x2.i	aep1, a11, 0
    24cf:	0b1084        	ae_sllssp24s	aep0, aep1
    24d2:	568814        	ae_sp24x2s.iu	aep0, a8, 8
    24d5:	0fa976        	loopgtz	a9, 24e8 <_Z10CTns_ApplyP22CAacDecoderChannelInfo+0x330>
    24d8:	540814        	ae_lp24x2.i	aep0, a8, 8
    24db:	f823f0082f 	{ ae_lp24x2.i	aep0, a8, 16; ae_sllssp24s	aep1, aep0 }
    24e0:	f823b7181f 	{ ae_sp24x2s.i	aep1, a8, 8; ae_sllssp24s	aep0, aep0 }
    24e5:	568824        	ae_sp24x2s.iu	aep0, a8, 16

000024e8 <_Z10CTns_ApplyP22CAacDecoderChannelInfo+0x330>:
    24e8:	251547        	beq	a5, a4, 2511 <_Z10CTns_ApplyP22CAacDecoderChannelInfo+0x359>
    24eb:	0d6507        	bbci	a5, 0, 24fc <_Z10CTns_ApplyP22CAacDecoderChannelInfo+0x344>
    24ee:	2821f2        	l32i	a15, a1, 160
    24f1:	f03d           	nop.n
    24f3:	4c3f04        	ae_lp24.i	aep3, a15, 0
    24f6:	0b30a4        	ae_sllssp24s	aep2, aep3
    24f9:	4e2f04        	ae_sp24s.l.i	aep2, a15, 0

000024fc <_Z10CTns_ApplyP22CAacDecoderChannelInfo+0x344>:
    24fc:	116407        	bbci	a4, 0, 2511 <_Z10CTns_ApplyP22CAacDecoderChannelInfo+0x359>
    24ff:	292182        	l32i	a8, a1, 164
    2502:	0020f0        	nop
    2505:	a08480        	addx4	a8, a4, a8
    2508:	4c58f4        	ae_lp24.i	aep5, a8, -4
    250b:	0b50c4        	ae_sllssp24s	aep4, aep5
    250e:	4e48f4        	ae_sp24s.l.i	aep4, a8, -4
    2511:	2821a2        	l32i	a10, a1, 160
    2514:	40c1b2        	addi	a11, a1, 64
    2517:	2021f2        	l32i	a15, a1, 128
    251a:	0b03d2        	l8ui	a13, a3, 11
    251d:	0d03e2        	l8ui	a14, a3, 13
    2520:	f6e481        	l32r	a8, b0 (2728 <_Z12TnsFilterIIRP5fractS0_icii>)
    2523:	23dd00        	sext	a13, a13, 7
    2526:	23ee00        	sext	a14, a14, 7
    2529:	0008e0        	callx8	a8
    252c:	2a21e2        	l32i	a14, a1, 168
    252f:	2921d2        	l32i	a13, a1, 164
    2532:	2aae77        	bge	a14, a7, 2560 <_Z10CTns_ApplyP22CAacDecoderChannelInfo+0x3a8>
    2535:	c0c7e0        	sub	a12, a7, a14
    2538:	b0bed0        	addx8	a11, a14, a13
    253b:	2191c0        	srai	a9, a12, 1
    253e:	f8cb82        	addi	a8, a11, -8
    2541:	086c07        	bbci	a12, 0, 254d <_Z10CTns_ApplyP22CAacDecoderChannelInfo+0x395>
    2544:	546b04        	ae_lp24x2.i	aep6, a11, 0
    2547:	0b63e4        	ae_srasp24	aep6, aep6
    254a:	56e814        	ae_sp24x2s.iu	aep6, a8, 8
    254d:	0fa976        	loopgtz	a9, 2560 <_Z10CTns_ApplyP22CAacDecoderChannelInfo+0x3a8>
    2550:	540814        	ae_lp24x2.i	aep0, a8, 8
    2553:	f8a3f0082f 	{ ae_lp24x2.i	aep0, a8, 16; ae_srasp24	aep1, aep0 }
    2558:	f8a3b7181f 	{ ae_sp24x2s.i	aep1, a8, 8; ae_srasp24	aep0, aep0 }
    255d:	568824        	ae_sp24x2s.iu	aep0, a8, 16

00002560 <_Z10CTns_ApplyP22CAacDecoderChannelInfo+0x3a8>:
    2560:	c0e540        	sub	a14, a5, a4
    2563:	dd4e16        	beqz	a14, 233b <_Z10CTns_ApplyP22CAacDecoderChannelInfo+0x183>
    2566:	048040        	extui	a8, a4, 0, 1
    2569:	0b6507        	bbci	a5, 0, 2578 <_Z10CTns_ApplyP22CAacDecoderChannelInfo+0x3c0>
    256c:	2821f2        	l32i	a15, a1, 160
    256f:	4c7f04        	ae_lp24.i	aep7, a15, 0
    2572:	0b73f4        	ae_srasp24	aep7, aep7
    2575:	4e7f04        	ae_sp24s.l.i	aep7, a15, 0

00002578 <_Z10CTns_ApplyP22CAacDecoderChannelInfo+0x3c0>:
    2578:	dbf816        	beqz	a8, 233b <_Z10CTns_ApplyP22CAacDecoderChannelInfo+0x183>
    257b:	292192        	l32i	a9, a1, 164
    257e:	a09490        	addx4	a9, a4, a9
    2581:	4c09f4        	ae_lp24.i	aep0, a9, -4
    2584:	0b0384        	ae_srasp24	aep0, aep0
    2587:	4e09f4        	ae_sp24s.l.i	aep0, a9, -4
    258a:	ff6b46        	j	233b <_Z10CTns_ApplyP22CAacDecoderChannelInfo+0x183>

0000258d <_Z10CTns_ApplyP22CAacDecoderChannelInfo+0x3d5>:
    258d:	4858           	l32i.n	a5, a8, 16
    258f:	905a50        	addx2	a5, a10, a5
    2592:	455d           	ae_l16ui.n	a5, a5, 0
    2594:	ff8486        	j	23aa <_Z10CTns_ApplyP22CAacDecoderChannelInfo+0x1f2>

00002597 <_Z10CTns_ApplyP22CAacDecoderChannelInfo+0x3df>:
	...

00002598 <_Z10CTns_ApplyP22CAacDecoderChannelInfo+0x3e0>:
    2598:	4848           	l32i.n	a4, a8, 16
    259a:	904a40        	addx2	a4, a10, a4
    259d:	444d           	ae_l16ui.n	a4, a4, 0
    259f:	ff93c6        	j	23f2 <_Z10CTns_ApplyP22CAacDecoderChannelInfo+0x23a>

000025a2 <_Z10CTns_ApplyP22CAacDecoderChannelInfo+0x3ea>:
    25a2:	f01d           	retw.n

000025a4 <_Z9CTns_ReadPPtP22CAacDecoderChannelInfo>:
    25a4:	006136        	entry	a1, 48
    25a7:	13f8           	l32i.n	a15, a3, 4
    25a9:	0368           	l32i.n	a6, a3, 0
    25ab:	0b0c           	movi.n	a11, 0
    25ad:	01b9           	s32i.n	a11, a1, 0
    25af:	030662        	l8ui	a6, a6, 3

000025b2 <_Z9CTns_ReadPPtP22CAacDecoderChannelInfo+0xe>:
    25b2:	0258           	l32i.n	a5, a2, 0
    25b4:	fec6e2        	addi	a14, a6, -2
    25b7:	15fe16        	beqz	a14, 271a <_Z9CTns_ReadPPtP22CAacDecoderChannelInfo+0x176>
    25ba:	036f24        	ae_lbi	a6, 2
    25bd:	0025f4        	ae_dbi	a5, 2
    25c0:	0259           	s32i.n	a5, a2, 0

000025c2 <_Z9CTns_ReadPPtP22CAacDecoderChannelInfo+0x1e>:
    25c2:	0148           	l32i.n	a4, a1, 0
    25c4:	23e600        	sext	a14, a6, 7
    25c7:	44fa           	add.n	a4, a4, a15
    25c9:	014462        	s8i	a6, a4, 1
    25cc:	145e16        	beqz	a14, 2715 <_Z9CTns_ReadPPtP22CAacDecoderChannelInfo+0x171>
    25cf:	0248           	l32i.n	a4, a2, 0
    25d1:	035f14        	ae_lbi	a5, 1
    25d4:	0368           	l32i.n	a6, a3, 0
    25d6:	0014f4        	ae_dbi	a4, 1
    25d9:	0249           	s32i.n	a4, a2, 0
    25db:	0606d2        	l8ui	a13, a6, 6
    25de:	23dd00        	sext	a13, a13, 7
    25e1:	021ee6        	bgei	a14, 1, 25e7 <_Z9CTns_ReadPPtP22CAacDecoderChannelInfo+0x43>
    25e4:	004246        	j	26f1 <_Z9CTns_ReadPPtP22CAacDecoderChannelInfo+0x14d>
    25e7:	0c0c           	movi.n	a12, 0
    25e9:	238500        	sext	a8, a5, 7
    25ec:	0198           	l32i.n	a9, a1, 0
    25ee:	1189           	s32i.n	a8, a1, 4
    25f0:	883b           	addi.n	a8, a8, 3
    25f2:	2189           	s32i.n	a8, a1, 8
    25f4:	909990        	addx2	a9, a9, a9
    25f7:	3199           	s32i.n	a9, a1, 12
    25f9:	000346        	j	260a <_Z9CTns_ReadPPtP22CAacDecoderChannelInfo+0x66>

000025fc <_Z9CTns_ReadPPtP22CAacDecoderChannelInfo+0x58>:
	...

000025fd <_Z9CTns_ReadPPtP22CAacDecoderChannelInfo+0x59>:
    25fd:	0368           	l32i.n	a6, a3, 0
    25ff:	cc1b           	addi.n	a12, a12, 1
    2601:	23cc00        	sext	a12, a12, 7
    2604:	c0aec0        	sub	a10, a14, a12
    2607:	0e6a16        	beqz	a10, 26f1 <_Z9CTns_ReadPPtP22CAacDecoderChannelInfo+0x14d>

0000260a <_Z9CTns_ReadPPtP22CAacDecoderChannelInfo+0x66>:
    260a:	030642        	l8ui	a4, a6, 3
    260d:	0258           	l32i.n	a5, a2, 0
    260f:	036f64        	ae_lbi	a6, 6
    2612:	fec442        	addi	a4, a4, -2
    2615:	0bf416        	beqz	a4, 26d8 <_Z9CTns_ReadPPtP22CAacDecoderChannelInfo+0x134>
    2618:	0065f4        	ae_dbi	a5, 6
    261b:	0259           	s32i.n	a5, a2, 0

0000261d <_Z9CTns_ReadPPtP22CAacDecoderChannelInfo+0x79>:
    261d:	c09d60        	sub	a9, a13, a6
    2620:	3168           	l32i.n	a6, a1, 12
    2622:	048790        	extui	a8, a9, 7, 1
    2625:	6c6a           	add.n	a6, a12, a6
    2627:	b06660        	addx8	a6, a6, a6
    262a:	a066f0        	addx4	a6, a6, a15
    262d:	0a46d2        	s8i	a13, a6, 10
    2630:	094692        	s8i	a9, a6, 9
    2633:	23d900        	sext	a13, a9, 7
    2636:	0d7856        	bnez	a8, 2711 <_Z9CTns_ReadPPtP22CAacDecoderChannelInfo+0x16d>
    2639:	0388           	l32i.n	a8, a3, 0
    263b:	0258           	l32i.n	a5, a2, 0
    263d:	030882        	l8ui	a8, a8, 3
    2640:	ca0c           	movi.n	a10, 12
    2642:	039f54        	ae_lbi	a9, 5
    2645:	fec882        	addi	a8, a8, -2
    2648:	097816        	beqz	a8, 26e3 <_Z9CTns_ReadPPtP22CAacDecoderChannelInfo+0x13f>
    264b:	0055f4        	ae_dbi	a5, 5
    264e:	0259           	s32i.n	a5, a2, 0
    2650:	235900        	sext	a5, a9, 7

00002653 <_Z9CTns_ReadPPtP22CAacDecoderChannelInfo+0xaf>:
    2653:	43a5a0        	min	a10, a5, a10
    2656:	0d46a2        	s8i	a10, a6, 13
    2659:	fa0516        	beqz	a5, 25fd <_Z9CTns_ReadPPtP22CAacDecoderChannelInfo+0x59>
    265c:	f87c           	movi.n	a8, -1
    265e:	02a8           	l32i.n	a10, a2, 0
    2660:	170c           	movi.n	a7, 1
    2662:	039f14        	ae_lbi	a9, 1
    2665:	001af4        	ae_dbi	a10, 1
    2668:	02a9           	s32i.n	a10, a2, 0
    266a:	937890        	movnez	a7, a8, a9
    266d:	0b4672        	s8i	a7, a6, 11
    2670:	0248           	l32i.n	a4, a2, 0
    2672:	21b8           	l32i.n	a11, a1, 8
    2674:	037f14        	ae_lbi	a7, 1
    2677:	0014f4        	ae_dbi	a4, 1
    267a:	0249           	s32i.n	a4, a2, 0
    267c:	0c46b2        	s8i	a11, a6, 12
    267f:	0215e6        	bgei	a5, 1, 2685 <_Z9CTns_ReadPPtP22CAacDecoderChannelInfo+0xe1>
    2682:	ffddc6        	j	25fd <_Z9CTns_ReadPPtP22CAacDecoderChannelInfo+0x59>
    2685:	f69041        	l32r	a4, c8 (ab74 <_DYNAMIC+0xcb8>)
    2688:	11b8           	l32i.n	a11, a1, 4
    268a:	f68e91        	l32r	a9, c4 (ab70 <_DYNAMIC+0xcb4>)
    268d:	23a700        	sext	a10, a7, 7
    2690:	c0bba0        	sub	a11, a11, a10
    2693:	9b9a           	add.n	a9, a11, a9
    2695:	010992        	l8ui	a9, a9, 1
    2698:	bb4a           	add.n	a11, a11, a4
    269a:	010bb2        	l8ui	a11, a11, 1
    269d:	070c           	movi.n	a7, 0
    269f:	239900        	sext	a9, a9, 7
    26a2:	23bb00        	sext	a11, a11, 7
    26a5:	2ba576        	loopgtz	a5, 26d4 <_Z9CTns_ReadPPtP22CAacDecoderChannelInfo+0x130>
    26a8:	0c0652        	l8ui	a5, a6, 12
    26ab:	0248           	l32i.n	a4, a2, 0
    26ad:	235500        	sext	a5, a5, 7
    26b0:	c055a0        	sub	a5, a5, a10
    26b3:	038754        	ae_lb	a8, a5
    26b6:	1c1454        	ae_db	a4, a5
    26b9:	0249           	s32i.n	a4, a2, 0
    26bb:	238800        	sext	a8, a8, 7
    26be:	060897        	bnone	a8, a9, 26c8 <_Z9CTns_ReadPPtP22CAacDecoderChannelInfo+0x124>
    26c1:	205b80        	or	a5, a11, a8
    26c4:	000086        	j	26ca <_Z9CTns_ReadPPtP22CAacDecoderChannelInfo+0x126>

000026c7 <_Z9CTns_ReadPPtP22CAacDecoderChannelInfo+0x123>:
	...

000026c8 <_Z9CTns_ReadPPtP22CAacDecoderChannelInfo+0x124>:
    26c8:	085d           	mov.n	a5, a8

000026ca <_Z9CTns_ReadPPtP22CAacDecoderChannelInfo+0x126>:
    26ca:	876a           	add.n	a8, a7, a6
    26cc:	0e4852        	s8i	a5, a8, 14
    26cf:	771b           	addi.n	a7, a7, 1
    26d1:	237700        	sext	a7, a7, 7

000026d4 <_Z9CTns_ReadPPtP22CAacDecoderChannelInfo+0x130>:
    26d4:	ffc946        	j	25fd <_Z9CTns_ReadPPtP22CAacDecoderChannelInfo+0x59>

000026d7 <_Z9CTns_ReadPPtP22CAacDecoderChannelInfo+0x133>:
	...

000026d8 <_Z9CTns_ReadPPtP22CAacDecoderChannelInfo+0x134>:
    26d8:	036f44        	ae_lbi	a6, 4
    26db:	0045f4        	ae_dbi	a5, 4
    26de:	0259           	s32i.n	a5, a2, 0
    26e0:	ffce46        	j	261d <_Z9CTns_ReadPPtP22CAacDecoderChannelInfo+0x79>

000026e3 <_Z9CTns_ReadPPtP22CAacDecoderChannelInfo+0x13f>:
    26e3:	039f34        	ae_lbi	a9, 3
    26e6:	0035f4        	ae_dbi	a5, 3
    26e9:	0259           	s32i.n	a5, a2, 0
    26eb:	235900        	sext	a5, a9, 7
    26ee:	ffd846        	j	2653 <_Z9CTns_ReadPPtP22CAacDecoderChannelInfo+0xaf>

000026f1 <_Z9CTns_ReadPPtP22CAacDecoderChannelInfo+0x14d>:
    26f1:	8c0c           	movi.n	a12, 8
    26f3:	01a8           	l32i.n	a10, a1, 0
    26f5:	030662        	l8ui	a6, a6, 3
    26f8:	1b0c           	movi.n	a11, 1
    26fa:	ea1b           	addi.n	a14, a10, 1
    26fc:	fec6d2        	addi	a13, a6, -2
    26ff:	83bcd0        	moveqz	a11, a12, a13
    2702:	23ae00        	sext	a10, a14, 7
    2705:	01a9           	s32i.n	a10, a1, 0
    2707:	02aab7        	bge	a10, a11, 270d <_Z9CTns_ReadPPtP22CAacDecoderChannelInfo+0x169>
    270a:	ffa906        	j	25b2 <_Z9CTns_ReadPPtP22CAacDecoderChannelInfo+0xe>
    270d:	020c           	movi.n	a2, 0
    270f:	f01d           	retw.n

00002711 <_Z9CTns_ReadPPtP22CAacDecoderChannelInfo+0x16d>:
    2711:	e20c           	movi.n	a2, 14
    2713:	f01d           	retw.n

00002715 <_Z9CTns_ReadPPtP22CAacDecoderChannelInfo+0x171>:
    2715:	0368           	l32i.n	a6, a3, 0
    2717:	fff586        	j	26f1 <_Z9CTns_ReadPPtP22CAacDecoderChannelInfo+0x14d>

0000271a <_Z9CTns_ReadPPtP22CAacDecoderChannelInfo+0x176>:
    271a:	036f14        	ae_lbi	a6, 1
    271d:	0015f4        	ae_dbi	a5, 1
    2720:	0259           	s32i.n	a5, a2, 0
    2722:	ffa706        	j	25c2 <_Z9CTns_ReadPPtP22CAacDecoderChannelInfo+0x1e>

00002725 <_Z9CTns_ReadPPtP22CAacDecoderChannelInfo+0x181>:
    2725:	000000                                        ...

00002728 <_Z12TnsFilterIIRP5fractS0_icii>:
    2728:	00e136        	entry	a1, 112
    272b:	049d           	mov.n	a9, a4
    272d:	02ad           	mov.n	a10, a2
    272f:	03bd           	mov.n	a11, a3
    2731:	012d           	mov.n	a2, a1
    2733:	00a032        	movi	a3, 0
    2736:	0ea042        	movi	a4, 14
    2739:	028476        	loop	a4, 273f <_Z12TnsFilterIIRP5fractS0_icii+0x17>
    273c:	09e234        	ae_s32ip	a3, a2, 4

0000273f <_Z12TnsFilterIIRP5fractS0_icii+0x17>:
    273f:	f8c122        	addi	a2, a1, -8
    2742:	fc208301ce 	{ addi	a12, a1, 48; ae_zerop48	aep0 }
    2747:	568214        	ae_sp24x2s.iu	aep0, a2, 8
    274a:	568214        	ae_sp24x2s.iu	aep0, a2, 8
    274d:	568214        	ae_sp24x2s.iu	aep0, a2, 8
    2750:	568214        	ae_sp24x2s.iu	aep0, a2, 8
    2753:	568214        	ae_sp24x2s.iu	aep0, a2, 8
    2756:	568214        	ae_sp24x2s.iu	aep0, a2, 8
    2759:	568214        	ae_sp24x2s.iu	aep0, a2, 8
    275c:	01c582        	addi	a8, a5, 1
    275f:	097816        	beqz	a8, 27fa <_Z12TnsFilterIIRP5fractS0_icii+0xd2>
    2762:	0219e6        	bgei	a9, 1, 2768 <_Z12TnsFilterIIRP5fractS0_icii+0x40>
    2765:	0023c6        	j	27f8 <_Z12TnsFilterIIRP5fractS0_icii+0xd0>
    2768:	ffc6f2        	addi	a15, a6, -1
    276b:	116112        	s32i	a1, a1, 68
    276e:	205110        	or	a5, a1, a1
    2771:	4c3b04        	ae_lp24.i	aep3, a11, 0
    2774:	4c2b14        	ae_lp24.i	aep2, a11, 4
    2777:	04cbe2        	addi	a14, a11, 4
    277a:	a0d9a0        	addx4	a13, a9, a10
    277d:	fccdd2        	addi	a13, a13, -4
    2780:	fccab2        	addi	a11, a10, -4

00002783 <_Z12TnsFilterIIRP5fractS0_icii+0x5b>:
    2783:	4c0a04        	ae_lp24.i	aep0, a10, 0
    2786:	ea61f11a1f 	{ ae_lp24.i	aep1, a10, 4; ae_mulfp24s.ll	aeq1, aep0, aep3 }
    278b:	ea65b1050f 	{ ae_lp24.i	aep0, a5, 0; ae_mulfp24s.ll	aeq0, aep1, aep3 }
    2790:	ee43cfff4e 	{ addi	a4, a15, -1; ae_mulsfs56p24s.ll	aeq1, aep0, aep2 }
    2795:	1c26a6        	blti	a6, 2, 27b5 <_Z12TnsFilterIIRP5fractS0_icii+0x8d>
    2798:	112132        	l32i	a3, a1, 68
    279b:	0e2d           	mov.n	a2, a14
    279d:	4cc214        	ae_lp24.iu	aep4, a2, 4
    27a0:	ee83b1931f 	{ ae_lp24.iu	aep1, a3, 4; ae_mulsfs56p24s.ll	aeq0, aep0, aep4 }
    27a5:	09a476        	loopgtz	a4, 27b2 <_Z12TnsFilterIIRP5fractS0_icii+0x8a>
    27a8:	ee87f1c21f 	{ ae_lp24.iu	aep4, a2, 4; ae_mulsfs56p24s.ll	aeq1, aep1, aep4 }
    27ad:	ee87b1931f 	{ ae_lp24.iu	aep1, a3, 4; ae_mulsfs56p24s.ll	aeq0, aep1, aep4 }

000027b2 <_Z12TnsFilterIIRP5fractS0_icii+0x8a>:
    27b2:	101c44        	ae_mulsfs56p24s.ll	aeq1, aep1, aep4

000027b5 <_Z12TnsFilterIIRP5fractS0_icii+0x8d>:
    27b5:	0c2d           	mov.n	a2, a12
    27b7:	349734        	ae_sllasq56s	aeq2, aeq1, a7
    27ba:	54c2f4        	ae_lp24x2.iu	aep4, a2, -8
    27bd:	564214        	ae_sp24x2s.i	aep4, a2, 8
    27c0:	5492f4        	ae_lp24x2.iu	aep1, a2, -8
    27c3:	561214        	ae_sp24x2s.i	aep1, a2, 8
    27c6:	5482f4        	ae_lp24x2.iu	aep0, a2, -8
    27c9:	560214        	ae_sp24x2s.i	aep0, a2, 8
    27cc:	54f2f4        	ae_lp24x2.iu	aep7, a2, -8
    27cf:	567214        	ae_sp24x2s.i	aep7, a2, 8
    27d2:	54e2f4        	ae_lp24x2.iu	aep6, a2, -8
    27d5:	fbf7b7621f 	{ ae_sp24x2s.i	aep6, a2, 8; ae_roundsp24q48sym	aep6, aeq2 }
    27da:	4e6b14        	ae_sp24s.l.i	aep6, a11, 4
    27dd:	54d2f4        	ae_lp24x2.iu	aep5, a2, -8
    27e0:	ee5bb7521f 	{ ae_sp24x2s.i	aep5, a2, 8; ae_mulsfs56p24s.ll	aeq0, aep6, aep2 }
    27e5:	aa8b           	addi.n	a10, a10, 8
    27e7:	34c734        	ae_sllasq56s	aeq3, aeq0, a7
    27ea:	fafff5651f 	{ ae_sp24s.l.i	aep6, a5, 4; ae_roundsp24q48sym	aep5, aeq3 }
    27ef:	4e5504        	ae_sp24s.l.i	aep5, a5, 0
    27f2:	4edb24        	ae_sp24s.l.iu	aep5, a11, 8
    27f5:	8a3bd7        	bltu	a11, a13, 2783 <_Z12TnsFilterIIRP5fractS0_icii+0x5b>

000027f8 <_Z12TnsFilterIIRP5fractS0_icii+0xd0>:
    27f8:	f01d           	retw.n

000027fa <_Z12TnsFilterIIRP5fractS0_icii+0xd2>:
    27fa:	a0a9a0        	addx4	a10, a9, a10
    27fd:	fccad2        	addi	a13, a10, -4
    2800:	f419a6        	blti	a9, 1, 27f8 <_Z12TnsFilterIIRP5fractS0_icii+0xd0>
    2803:	f60b           	addi.n	a15, a6, -1
    2805:	015d           	mov.n	a5, a1
    2807:	4c3b04        	ae_lp24.i	aep3, a11, 0
    280a:	4c2b14        	ae_lp24.i	aep2, a11, 4
    280d:	eb4b           	addi.n	a14, a11, 4
    280f:	1189e0        	slli	a8, a9, 2
    2812:	c08d80        	sub	a8, a13, a8
    2815:	884b           	addi.n	a8, a8, 4
    2817:	01bd           	mov.n	a11, a1
    2819:	106182        	s32i	a8, a1, 64

0000281c <_Z12TnsFilterIIRP5fractS0_icii+0xf4>:
    281c:	4c0df4        	ae_lp24.i	aep0, a13, -4
    281f:	ea61b17d0f 	{ ae_lp24.i	aep7, a13, 0; ae_mulfp24s.ll	aeq0, aep0, aep3 }
    2824:	ea7df1050f 	{ ae_lp24.i	aep0, a5, 0; ae_mulfp24s.ll	aeq1, aep7, aep3 }
    2829:	ee43cf8dde 	{ addi	a13, a13, -8; ae_mulsfs56p24s.ll	aeq1, aep0, aep2 }
    282e:	1d26a6        	blti	a6, 2, 284f <_Z12TnsFilterIIRP5fractS0_icii+0x127>
    2831:	4f0b           	addi.n	a4, a15, -1
    2833:	0b3d           	mov.n	a3, a11
    2835:	0e2d           	mov.n	a2, a14
    2837:	4cc214        	ae_lp24.iu	aep4, a2, 4
    283a:	ee83b1931f 	{ ae_lp24.iu	aep1, a3, 4; ae_mulsfs56p24s.ll	aeq0, aep0, aep4 }
    283f:	09a476        	loopgtz	a4, 284c <_Z12TnsFilterIIRP5fractS0_icii+0x124>
    2842:	ee87f1c21f 	{ ae_lp24.iu	aep4, a2, 4; ae_mulsfs56p24s.ll	aeq1, aep1, aep4 }
    2847:	ee87b1931f 	{ ae_lp24.iu	aep1, a3, 4; ae_mulsfs56p24s.ll	aeq0, aep1, aep4 }

0000284c <_Z12TnsFilterIIRP5fractS0_icii+0x124>:
    284c:	101c44        	ae_mulsfs56p24s.ll	aeq1, aep1, aep4

0000284f <_Z12TnsFilterIIRP5fractS0_icii+0x127>:
    284f:	0c2d           	mov.n	a2, a12
    2851:	34d734        	ae_sllasq56s	aeq3, aeq1, a7
    2854:	54c2f4        	ae_lp24x2.iu	aep4, a2, -8
    2857:	564214        	ae_sp24x2s.i	aep4, a2, 8
    285a:	5492f4        	ae_lp24x2.iu	aep1, a2, -8
    285d:	561214        	ae_sp24x2s.i	aep1, a2, 8
    2860:	5482f4        	ae_lp24x2.iu	aep0, a2, -8
    2863:	560214        	ae_sp24x2s.i	aep0, a2, 8
    2866:	54f2f4        	ae_lp24x2.iu	aep7, a2, -8
    2869:	567214        	ae_sp24x2s.i	aep7, a2, 8
    286c:	54e2f4        	ae_lp24x2.iu	aep6, a2, -8
    286f:	fbffb7621f 	{ ae_sp24x2s.i	aep6, a2, 8; ae_roundsp24q48sym	aep6, aeq3 }
    2874:	4e6af4        	ae_sp24s.l.i	aep6, a10, -4
    2877:	54d2f4        	ae_lp24x2.iu	aep5, a2, -8
    287a:	ee5bb7521f 	{ ae_sp24x2s.i	aep5, a2, 8; ae_mulsfs56p24s.ll	aeq0, aep6, aep2 }
    287f:	4e6514        	ae_sp24s.l.i	aep6, a5, 4
    2882:	348734        	ae_sllasq56s	aeq2, aeq0, a7
    2885:	faf7f1019e 	{ l32i	a9, a1, 64; ae_roundsp24q48sym	aep5, aeq2 }
    288a:	4e5504        	ae_sp24s.l.i	aep5, a5, 0
    288d:	4edae4        	ae_sp24s.l.iu	aep5, a10, -8
    2890:	8839a7        	bltu	a9, a10, 281c <_Z12TnsFilterIIRP5fractS0_icii+0xf4>
    2893:	ffd846        	j	27f8 <_Z12TnsFilterIIRP5fractS0_icii+0xd0>

00002896 <_Z12TnsFilterIIRP5fractS0_icii+0x16e>:
	...

00002898 <_Z13TnsParcor2LpcP5fractS0_Pii>:
    2898:	01a136        	entry	a1, 208
    289b:	206132        	s32i	a3, a1, 128
    289e:	236142        	s32i	a4, a1, 140
    28a1:	0f0c           	movi.n	a15, 0
    28a3:	f5f9e1        	l32r	a14, 88 (7fffff <_end+0x7ef447>)
    28a6:	950b           	addi.n	a9, a5, -1
    28a8:	44c1a2        	addi	a10, a1, 68
    28ab:	3cc162        	addi	a6, a1, 60
    28ae:	fcc182        	addi	a8, a1, -4
    28b1:	d24b           	addi.n	a13, a2, 4
    28b3:	2861d2        	s32i	a13, a1, 160
    28b6:	216182        	s32i	a8, a1, 132
    28b9:	226162        	s32i	a6, a1, 136
    28bc:	2961a2        	s32i	a10, a1, 164
    28bf:	a0c920        	addx4	a12, a9, a2
    28c2:	a0b910        	addx4	a11, a9, a1
    28c5:	398ee4        	ae_movpa24x2	aep0, a14, a14
    28c8:	04f9           	s32i.n	a15, a4, 0
    28ca:	e51b           	addi.n	a14, a5, 1
    28cc:	f14b           	addi.n	a15, a1, 4
    28ce:	2461b2        	s32i	a11, a1, 144
    28d1:	ff0c004cce 	{ addi	a12, a12, 4; ae_cvtq48p24s.l	aeq3, aep0 }
    28d6:	2561c2        	s32i	a12, a1, 148
    28d9:	fc208001bf 	{ movi	a11, 1; ae_zerop48	aep0 }
    28de:	a0a9a0        	addx4	a10, a9, a10
    28e1:	2661a2        	s32i	a10, a1, 152
    28e4:	a099f0        	addx4	a9, a9, a15
    28e7:	276192        	s32i	a9, a1, 156
    28ea:	0001c6        	j	28f5 <_Z13TnsParcor2LpcP5fractS0_Pii+0x5d>

000028ed <_Z13TnsParcor2LpcP5fractS0_Pii+0x55>:
    28ed:	ca0b           	addi.n	a12, a10, -1
    28ef:	0b5c16        	beqz	a12, 29a8 <_Z13TnsParcor2LpcP5fractS0_Pii+0x110>
    28f2:	0bea16        	beqz	a10, 29b4 <_Z13TnsParcor2LpcP5fractS0_Pii+0x11c>

000028f5 <_Z13TnsParcor2LpcP5fractS0_Pii+0x5d>:
    28f5:	222132        	l32i	a3, a1, 136
    28f8:	212122        	l32i	a2, a1, 132
    28fb:	d40c           	movi.n	a4, 13
    28fd:	058476        	loop	a4, 2906 <_Z13TnsParcor2LpcP5fractS0_Pii+0x6e>
    2900:	4e8214        	ae_sp24s.l.iu	aep0, a2, 4
    2903:	4e8314        	ae_sp24s.l.iu	aep0, a3, 4

00002906 <_Z13TnsParcor2LpcP5fractS0_Pii+0x6e>:
    2906:	2321d2        	l32i	a13, a1, 140
    2909:	0dd8           	l32i.n	a13, a13, 0
    290b:	343db4        	ae_sraaq56	aeq0, aeq3, a13
    290e:	0a2596        	bltz	a5, 29b4 <_Z13TnsParcor2LpcP5fractS0_Pii+0x11c>
    2911:	2021c2        	l32i	a12, a1, 128
    2914:	0d0c           	movi.n	a13, 0
    2916:	014d           	mov.n	a4, a1
    2918:	fe248000af 	{ movi	a10, 0; ae_zeroq56	aeq2 }
    291d:	000286        	j	292b <_Z13TnsParcor2LpcP5fractS0_Pii+0x93>

00002920 <_Z13TnsParcor2LpcP5fractS0_Pii+0x88>:
    2920:	077a16        	beqz	a10, 299b <_Z13TnsParcor2LpcP5fractS0_Pii+0x103>

00002923 <_Z13TnsParcor2LpcP5fractS0_Pii+0x8b>:
    2923:	fc14404cce 	{ addi	a12, a12, 4; ae_movq56	aeq0, aeq2 }
    2928:	c11ed7        	beq	a14, a13, 28ed <_Z13TnsParcor2LpcP5fractS0_Pii+0x55>

0000292b <_Z13TnsParcor2LpcP5fractS0_Pii+0x93>:
    292b:	fae7801dde 	{ addi	a13, a13, 1; ae_roundsp24q48sym	aep4, aeq0 }
    2930:	ec15a6        	blti	a5, 1, 2920 <_Z13TnsParcor2LpcP5fractS0_Pii+0x88>
    2933:	282192        	l32i	a9, a1, 160
    2936:	292182        	l32i	a8, a1, 164
    2939:	0f7d           	mov.n	a7, a15
    293b:	242122        	l32i	a2, a1, 144
    293e:	1da576        	loopgtz	a5, 295f <_Z13TnsParcor2LpcP5fractS0_Pii+0xc7>
    2941:	4c29f4        	ae_lp24.i	aep2, a9, -4
    2944:	f8e7f137ff 	{ ae_lp24.i	aep3, a7, -4; ae_roundsp24q48sym	aep1, aeq0 }
    2949:	e26b80477e 	{ addi	a7, a7, 4; ae_mulafp24s.ll	aeq0, aep2, aep3 }
    294e:	4e18f4        	ae_sp24s.l.i	aep1, a8, -4
    2951:	364604        	ae_nsaq56s	a6, aeq0
    2954:	994b           	addi.n	a9, a9, 4
    2956:	884b           	addi.n	a8, a8, 4
    2958:	0186e6        	bgei	a6, 8, 295d <_Z13TnsParcor2LpcP5fractS0_Pii+0xc5>
    295b:	0bad           	mov.n	a10, a11

0000295d <_Z13TnsParcor2LpcP5fractS0_Pii+0xc5>:
    295d:	f03d           	nop.n

0000295f <_Z13TnsParcor2LpcP5fractS0_Pii+0xc7>:
    295f:	272172        	l32i	a7, a1, 156
    2962:	262182        	l32i	a8, a1, 152
    2965:	252192        	l32i	a9, a1, 148
    2968:	f03d           	nop.n
    296a:	2aa576        	loopgtz	a5, 2998 <_Z13TnsParcor2LpcP5fractS0_Pii+0x100>
    296d:	4c68f4        	ae_lp24.i	aep6, a8, -4
    2970:	4c77f4        	ae_lp24.i	aep7, a7, -4
    2973:	fdec3159ff 	{ ae_lp24.i	aep5, a9, -4; ae_cvtq48p24s.l	aeq1, aep7 }
    2978:	015e34        	ae_mulafp24s.ll	aeq1, aep5, aep6
    297b:	fcc772        	addi	a7, a7, -4
    297e:	365604        	ae_nsaq56s	a6, aeq1
    2981:	fcc882        	addi	a8, a8, -4
    2984:	fcc992        	addi	a9, a9, -4
    2987:	0886a6        	blti	a6, 8, 2993 <_Z13TnsParcor2LpcP5fractS0_Pii+0xfb>
    298a:	1b9c14        	ae_roundsp24q48sym	aep1, aeq1
    298d:	4e1214        	ae_sp24s.l.i	aep1, a2, 4
    2990:	000046        	j	2995 <_Z13TnsParcor2LpcP5fractS0_Pii+0xfd>

00002993 <_Z13TnsParcor2LpcP5fractS0_Pii+0xfb>:
    2993:	1a0c           	movi.n	a10, 1

00002995 <_Z13TnsParcor2LpcP5fractS0_Pii+0xfd>:
    2995:	fcc222        	addi	a2, a2, -4

00002998 <_Z13TnsParcor2LpcP5fractS0_Pii+0x100>:
    2998:	f87a56        	bnez	a10, 2923 <_Z13TnsParcor2LpcP5fractS0_Pii+0x8b>

0000299b <_Z13TnsParcor2LpcP5fractS0_Pii+0x103>:
    299b:	f9e7b5440f 	{ ae_sp24s.l.i	aep4, a4, 0; ae_roundsp24q48sym	aep2, aeq0 }
    29a0:	4e2c04        	ae_sp24s.l.i	aep2, a12, 0
    29a3:	ffdf06        	j	2923 <_Z13TnsParcor2LpcP5fractS0_Pii+0x8b>

000029a6 <_Z13TnsParcor2LpcP5fractS0_Pii+0x10e>:
	...

000029a8 <_Z13TnsParcor2LpcP5fractS0_Pii+0x110>:
    29a8:	232192        	l32i	a9, a1, 140
    29ab:	0988           	l32i.n	a8, a9, 0
    29ad:	881b           	addi.n	a8, a8, 1
    29af:	0989           	s32i.n	a8, a9, 0
    29b1:	f40a56        	bnez	a10, 28f5 <_Z13TnsParcor2LpcP5fractS0_Pii+0x5d>

000029b4 <_Z13TnsParcor2LpcP5fractS0_Pii+0x11c>:
    29b4:	f01d           	retw.n

000029b6 <_Z13TnsParcor2LpcP5fractS0_Pii+0x11e>:
	...

000029b8 <_Z21TnsDecodeCoefficientsP7CFilterP5fract>:
    29b8:	004136        	entry	a1, 32
    29bb:	040252        	l8ui	a5, a2, 4
    29be:	f5c381        	l32r	a8, cc (109d4 <tnsCoeff3>)
    29c1:	f5c371        	l32r	a7, d0 (109d0 <tnsCoeff4>)
    29c4:	235500        	sext	a5, a5, 7
    29c7:	1d15a6        	blti	a5, 1, 29e8 <_Z21TnsDecodeCoefficientsP7CFilterP5fract+0x30>
    29ca:	0778           	l32i.n	a7, a7, 0
    29cc:	0888           	l32i.n	a8, a8, 0
    29ce:	030262        	l8ui	a6, a2, 3
    29d1:	13a576        	loopgtz	a5, 29e8 <_Z21TnsDecodeCoefficientsP7CFilterP5fract+0x30>
    29d4:	050252        	l8ui	a5, a2, 5
    29d7:	221b           	addi.n	a2, a2, 1
    29d9:	235500        	sext	a5, a5, 7
    29dc:	0a3626        	beqi	a6, 3, 29ea <_Z21TnsDecodeCoefficientsP7CFilterP5fract+0x32>
    29df:	a09570        	addx4	a9, a5, a7
    29e2:	8998           	l32i.n	a9, a9, 32
    29e4:	1399           	s32i.n	a9, a3, 4

000029e6 <_Z21TnsDecodeCoefficientsP7CFilterP5fract+0x2e>:
    29e6:	334b           	addi.n	a3, a3, 4

000029e8 <_Z21TnsDecodeCoefficientsP7CFilterP5fract+0x30>:
    29e8:	f01d           	retw.n

000029ea <_Z21TnsDecodeCoefficientsP7CFilterP5fract+0x32>:
    29ea:	a0a580        	addx4	a10, a5, a8
    29ed:	4aa8           	l32i.n	a10, a10, 16
    29ef:	13a9           	s32i.n	a10, a3, 4
    29f1:	fffc46        	j	29e6 <_Z21TnsDecodeCoefficientsP7CFilterP5fract+0x2e>

000029f4 <_Z7Minimumiii>:
    29f4:	004136        	entry	a1, 32
    29f7:	432230        	min	a2, a2, a3
    29fa:	432240        	min	a2, a2, a4
    29fd:	f01d           	retw.n

000029ff <_Z7Minimumiii+0xb>:
	...

00002a00 <_Z16CAacDecoderResetiP5fract>:
    2a00:	004136        	entry	a1, 32
    2a03:	5f12a6        	blti	a2, 1, 2a66 <_Z16CAacDecoderResetiP5fract+0x66>
    2a06:	1192e0        	slli	a9, a2, 2
    2a09:	f5b2d1        	l32r	a13, d4 (109d8 <OnlyShortWindowKBD>)
    2a0c:	f584c1        	l32r	a12, 1c (109e0 <OnlyShortWindowSine>)
    2a0f:	f5b2b1        	l32r	a11, d8 (109dc <OnlyLongWindowKBD>)
    2a12:	f587a1        	l32r	a10, 30 (109e4 <OnlyLongWindowSine>)
    2a15:	0e0c           	movi.n	a14, 0
    2a17:	364e34        	ae_cvtq48a32s	aeq1, a14
    2a1a:	355214        	ae_slliq56	aeq1, aeq1, 8
    2a1d:	fc04d37eef 	{ or	a7, a14, a14; ae_satq48s	aeq0, aeq1 }
    2a22:	350234        	ae_sraiq56	aeq0, aeq0, 8
    2a25:	368604        	ae_trunca32q48	a6, aeq0

00002a28 <_Z16CAacDecoderResetiP5fract+0x28>:
    2a28:	8e2382        	l32i	a8, a3, 0x238
    2a2b:	887a           	add.n	a8, a8, a7
    2a2d:	0828           	l32i.n	a2, a8, 0
    2a2f:	1042e2        	s8i	a14, a2, 16
    2a32:	08f8           	l32i.n	a15, a8, 0
    2a34:	0c52e2        	s16i	a14, a2, 24
    2a37:	0d52e2        	s16i	a14, a2, 26
    2a3a:	114fe2        	s8i	a14, a15, 17
    2a3d:	0888           	l32i.n	a8, a8, 0
    2a3f:	00a242        	movi	a4, 0x200
    2a42:	0a58           	l32i.n	a5, a10, 0
    2a44:	5828           	l32i.n	a2, a8, 20
    2a46:	02a476        	loopgtz	a4, 2a4c <_Z16CAacDecoderResetiP5fract+0x4c>
    2a49:	09e264        	ae_s32ip	a6, a2, 4

00002a4c <_Z16CAacDecoderResetiP5fract+0x4c>:
    2a4c:	8e2342        	l32i	a4, a3, 0x238
    2a4f:	0859           	s32i.n	a5, a8, 0
    2a51:	447a           	add.n	a4, a4, a7
    2a53:	0448           	l32i.n	a4, a4, 0
    2a55:	0cf8           	l32i.n	a15, a12, 0
    2a57:	774b           	addi.n	a7, a7, 4
    2a59:	24f9           	s32i.n	a15, a4, 8
    2a5b:	0b58           	l32i.n	a5, a11, 0
    2a5d:	1459           	s32i.n	a5, a4, 4
    2a5f:	0df8           	l32i.n	a15, a13, 0
    2a61:	34f9           	s32i.n	a15, a4, 12
    2a63:	c19797        	bne	a7, a9, 2a28 <_Z16CAacDecoderResetiP5fract+0x28>

00002a66 <_Z16CAacDecoderResetiP5fract+0x66>:
    2a66:	020c           	movi.n	a2, 0
    2a68:	f01d           	retw.n

00002a6a <_Z16CAacDecoderResetiP5fract+0x6a>:
	...

00002a6c <_Z16CAacDecoderResetiP5fract+0x6c>:
    2a6c:	004136        	entry	a1, 32
    2a6f:	020c           	movi.n	a2, 0
    2a71:	0329           	s32i.n	a2, a3, 0
    2a73:	f01d           	retw.n

00002a75 <_Z16CAacDecoderResetiP5fract+0x75>:
    2a75:	000000                                        ...

00002a78 <_Z15ReadFillElementP7BIT_BUF>:
    2a78:	004136        	entry	a1, 32
    2a7b:	f59881        	l32r	a8, dc (6f60 <initBitParser>)
    2a7e:	02ad           	mov.n	a10, a2
    2a80:	0008e0        	callx8	a8
    2a83:	0abd           	mov.n	a11, a10
    2a85:	03af44        	ae_lbi	a10, 4
    2a88:	f90c           	movi.n	a9, 15
    2a8a:	004bf4        	ae_dbi	a11, 4
    2a8d:	079a97        	bne	a10, a9, 2a98 <_Z15ReadFillElementP7BIT_BUF+0x20>
    2a90:	03af84        	ae_lbi	a10, 8
    2a93:	008bf4        	ae_dbi	a11, 8
    2a96:	aaeb           	addi.n	a10, a10, 14

00002a98 <_Z15ReadFillElementP7BIT_BUF+0x20>:
    2a98:	2a9c           	beqz.n	a10, 2aae <_Z15ReadFillElementP7BIT_BUF+0x36>
    2a9a:	033f84        	ae_lbi	a3, 8
    2a9d:	ca0b           	addi.n	a12, a10, -1
    2a9f:	008bf4        	ae_dbi	a11, 8
    2aa2:	343430        	extui	a3, a3, 4, 4
    2aa5:	02ac76        	loopgtz	a12, 2aab <_Z15ReadFillElementP7BIT_BUF+0x33>
    2aa8:	008bf4        	ae_dbi	a11, 8

00002aab <_Z15ReadFillElementP7BIT_BUF+0x33>:
    2aab:	000046        	j	2ab0 <_Z15ReadFillElementP7BIT_BUF+0x38>

00002aae <_Z15ReadFillElementP7BIT_BUF+0x36>:
    2aae:	030c           	movi.n	a3, 0

00002ab0 <_Z15ReadFillElementP7BIT_BUF+0x38>:
    2ab0:	f58c81        	l32r	a8, e0 (6f38 <TerminateBitParser_new>)
    2ab3:	02ad           	mov.n	a10, a2
    2ab5:	0008e0        	callx8	a8
    2ab8:	032d           	mov.n	a2, a3
    2aba:	f01d           	retw.n

00002abc <_Z23xa_Copy_PCE_From_HeaderP20AAC_DECODER_INSTANCE>:
    2abc:	004136        	entry	a1, 32
    2abf:	f58981        	l32r	a8, e4 (5e20 <_Z18CProgramConfigOpenP14CProgramConfig>)
    2ac2:	32db           	addi.n	a3, a2, 13
    2ac4:	03ad           	mov.n	a10, a3
    2ac6:	0008e0        	callx8	a8
    2ac9:	aa2292        	l32i	a9, a2, 0x2a8
    2acc:	02d2a2        	addmi	a10, a2, 0x200
    2acf:	e8ca22        	addi	a2, a10, -24
    2ad2:	e9bc           	beqz.n	a9, 2b14 <_Z23xa_Copy_PCE_From_HeaderP20AAC_DECODER_INSTANCE+0x58>
    2ad4:	0c3c           	movi.n	a12, 48
    2ad6:	44ca52        	addi	a5, a10, 68
    2ad9:	74ca42        	addi	a4, a10, 116
    2adc:	f58381        	l32r	a8, e8 (418 <memcpy>)
    2adf:	04bd           	mov.n	a11, a4
    2ae1:	05ad           	mov.n	a10, a5
    2ae3:	0008e0        	callx8	a8
    2ae6:	f58181        	l32r	a8, ec (5900 <_Z17CopyPCEfromHeaderP21tProgramConfigElementP14CProgramConfig>)
    2ae9:	3022a2        	l32i	a10, a2, 192
    2aec:	03bd           	mov.n	a11, a3
    2aee:	0008e0        	callx8	a8
    2af1:	03bd           	mov.n	a11, a3
    2af3:	f57f81        	l32r	a8, f0 (5a34 <_Z34CProgramConfigSetChannelAssignmentPA16_hP14CProgramConfigi>)
    2af6:	04ad           	mov.n	a10, a4
    2af8:	1022c2        	l32i	a12, a2, 64
    2afb:	0008e0        	callx8	a8
    2afe:	da8c           	beqz.n	a10, 2b0f <_Z23xa_Copy_PCE_From_HeaderP20AAC_DECODER_INSTANCE+0x53>
    2b00:	05bd           	mov.n	a11, a5
    2b02:	f57981        	l32r	a8, e8 (418 <memcpy>)
    2b05:	04ad           	mov.n	a10, a4
    2b07:	0c3c           	movi.n	a12, 48
    2b09:	0008e0        	callx8	a8
    2b0c:	000106        	j	2b14 <_Z23xa_Copy_PCE_From_HeaderP20AAC_DECODER_INSTANCE+0x58>

00002b0f <_Z23xa_Copy_PCE_From_HeaderP20AAC_DECODER_INSTANCE+0x53>:
    2b0f:	190c           	movi.n	a9, 1
    2b11:	bc4292        	s8i	a9, a2, 188
    2b14:	020c           	movi.n	a2, 0
    2b16:	f01d           	retw.n

00002b18 <_Z19CAacDecoderSetSEMapP20AAC_DECODER_INSTANCEi>:
    2b18:	004136        	entry	a1, 32
    2b1b:	638c           	beqz.n	a3, 2b25 <_Z19CAacDecoderSetSEMapP20AAC_DECODER_INSTANCEi+0xd>
    2b1d:	ab6232        	s32i	a3, a2, 0x2ac
    2b20:	040c           	movi.n	a4, 0
    2b22:	aa6242        	s32i	a4, a2, 0x2a8

00002b25 <_Z19CAacDecoderSetSEMapP20AAC_DECODER_INSTANCEi+0xd>:
    2b25:	f01d           	retw.n

00002b27 <_Z19CAacDecoderSetSEMapP20AAC_DECODER_INSTANCEi+0xf>:
	...

00002b28 <_Z24CAacDecoderSetPCEpointerP20AAC_DECODER_INSTANCEPvc>:
    2b28:	004136        	entry	a1, 32
    2b2b:	ab2252        	l32i	a5, a2, 0x2ac
    2b2e:	65cc           	bnez.n	a5, 2b38 <_Z24CAacDecoderSetPCEpointerP20AAC_DECODER_INSTANCEPvc+0x10>
    2b30:	080c           	movi.n	a8, 0
    2b32:	938340        	movnez	a8, a3, a4
    2b35:	aa6282        	s32i	a8, a2, 0x2a8

00002b38 <_Z24CAacDecoderSetPCEpointerP20AAC_DECODER_INSTANCEPvc+0x10>:
    2b38:	f01d           	retw.n

00002b3a <_Z24CAacDecoderSetPCEpointerP20AAC_DECODER_INSTANCEPvc+0x12>:
	...

00002b3c <_Z24CAacDecoderSetPCEpointerP20AAC_DECODER_INSTANCEPvc+0x14>:
    2b3c:	004136        	entry	a1, 32
    2b3f:	020c           	movi.n	a2, 0
    2b41:	f01d           	retw.n

00002b43 <_Z24CAacDecoderSetPCEpointerP20AAC_DECODER_INSTANCEPvc+0x1b>:
	...

00002b44 <_Z33CAacDecoderResetDRCExtPresentFlagP20AAC_DECODER_INSTANCE>:
    2b44:	004136        	entry	a1, 32
    2b47:	030c           	movi.n	a3, 0
    2b49:	906232        	s32i	a3, a2, 0x240
    2b4c:	f01d           	retw.n

00002b4e <_Z33CAacDecoderResetDRCExtPresentFlagP20AAC_DECODER_INSTANCE+0xa>:
	...

00002b50 <_Z31CAacDecoderGetDRCExtPresentFlagP20AAC_DECODER_INSTANCE>:
    2b50:	004136        	entry	a1, 32
    2b53:	902222        	l32i	a2, a2, 0x240
    2b56:	f01d           	retw.n

00002b58 <_Z27CAacDecoder_FrequencyToTimeP20AAC_DECODER_INSTANCEP5fractiii>:
    2b58:	006136        	entry	a1, 48
    2b5b:	1174e0        	slli	a7, a4, 2
    2b5e:	758050        	extui	a8, a5, 16, 8
    2b61:	389c           	beqz.n	a8, 2b78 <_Z27CAacDecoder_FrequencyToTimeP20AAC_DECODER_INSTANCEP5fractiii+0x20>
    2b63:	8d22a2        	l32i	a10, a2, 0x234
    2b66:	0b0c           	movi.n	a11, 0
    2b68:	a0a4a0        	addx4	a10, a4, a10
    2b6b:	0aa8           	l32i.n	a10, a10, 0
    2b6d:	f56281        	l32r	a8, f8 (9db0 <__vec_memset>)
    2b70:	f561c1        	l32r	a12, f4 (1000 <_Z26CLongBlock_FrequencyToTimeP28CAacDecoderStaticChannelInfoP22CAacDecoderChannelInfoP5fractiiiS4_+0x154>)
    2b73:	7aa8           	l32i.n	a10, a10, 28
    2b75:	0008e0        	callx8	a8

00002b78 <_Z27CAacDecoder_FrequencyToTimeP20AAC_DECODER_INSTANCEP5fractiii+0x20>:
    2b78:	8d22b2        	l32i	a11, a2, 0x234
    2b7b:	bb7a           	add.n	a11, a11, a7
    2b7d:	0bb8           	l32i.n	a11, a11, 0
    2b7f:	8f2242        	l32i	a4, a2, 0x23c
    2b82:	74f050        	extui	a15, a5, 0, 8
    2b85:	0bc8           	l32i.n	a12, a11, 0
    2b87:	8e22a2        	l32i	a10, a2, 0x238
    2b8a:	74e850        	extui	a14, a5, 8, 8
    2b8d:	030cc2        	l8ui	a12, a12, 3
    2b90:	a7aa           	add.n	a10, a7, a10
    2b92:	0aa8           	l32i.n	a10, a10, 0
    2b94:	0d2c26        	beqi	a12, 2, 2ba5 <_Z27CAacDecoder_FrequencyToTimeP20AAC_DECODER_INSTANCEP5fractiii+0x4d>
    2b97:	0149           	s32i.n	a4, a1, 0
    2b99:	f55881        	l32r	a8, fc (eac <_Z26CLongBlock_FrequencyToTimeP28CAacDecoderStaticChannelInfoP22CAacDecoderChannelInfoP5fractiiiS4_>)
    2b9c:	03cd           	mov.n	a12, a3
    2b9e:	06dd           	mov.n	a13, a6
    2ba0:	0008e0        	callx8	a8
    2ba3:	f01d           	retw.n

00002ba5 <_Z27CAacDecoder_FrequencyToTimeP20AAC_DECODER_INSTANCEP5fractiii+0x4d>:
    2ba5:	06dd           	mov.n	a13, a6
    2ba7:	f55681        	l32r	a8, 100 (17b8 <_Z27CShortBlock_FrequencyToTimeP28CAacDecoderStaticChannelInfoP22CAacDecoderChannelInfoP5fractiiiS4_>)
    2baa:	03cd           	mov.n	a12, a3
    2bac:	0149           	s32i.n	a4, a1, 0
    2bae:	0008e0        	callx8	a8
    2bb1:	f01d           	retw.n

00002bb3 <_Z27CAacDecoder_FrequencyToTimeP20AAC_DECODER_INSTANCEP5fractiii+0x5b>:
	...

00002bb4 <_Z22CAacDecoder_ParseFrameP20AAC_DECODER_INSTANCEPiciiS1_P21XA_AACDEC_CHANNELMODEcii>:
    2bb4:	010136        	entry	a1, 128
    2bb7:	8401d2        	l8ui	a13, a1, 132
    2bba:	2139           	s32i.n	a3, a1, 8
    2bbc:	02d2e2        	addmi	a14, a2, 0x200
    2bbf:	059d           	mov.n	a9, a5
    2bc1:	07cd           	mov.n	a12, a7
    2bc3:	81c9           	s32i.n	a12, a1, 32
    2bc5:	7199           	s32i.n	a9, a1, 28
    2bc7:	1261e2        	s32i	a14, a1, 72
    2bca:	030c           	movi.n	a3, 0
    2bcc:	035d           	mov.n	a5, a3
    2bce:	004132        	s8i	a3, a1, 0
    2bd1:	8722a2        	l32i	a10, a2, 0x21c
    2bd4:	0c02e2        	l8ui	a14, a2, 12
    2bd7:	23dd00        	sext	a13, a13, 7
    2bda:	22b8           	l32i.n	a11, a2, 8
    2bdc:	1161b2        	s32i	a11, a1, 68
    2bdf:	0d7d           	mov.n	a7, a13
    2be1:	5bb8           	l32i.n	a11, a11, 20
    2be3:	93d3e0        	movnez	a13, a3, a14
    2be6:	0042d2        	s8i	a13, a2, 0
    2be9:	11b9           	s32i.n	a11, a1, 4
    2beb:	8a2282        	l32i	a8, a2, 0x228
    2bee:	935640        	movnez	a5, a6, a4
    2bf1:	0a49           	s32i.n	a4, a10, 0
    2bf3:	1c18a6        	blti	a8, 1, 2c13 <_Z22CAacDecoder_ParseFrameP20AAC_DECODER_INSTANCEPiciiS1_P21XA_AACDEC_CHANNELMODEcii+0x5f>
    2bf6:	040c           	movi.n	a4, 0
    2bf8:	060c           	movi.n	a6, 0

00002bfa <_Z22CAacDecoder_ParseFrameP20AAC_DECODER_INSTANCEPiciiS1_P21XA_AACDEC_CHANNELMODEcii+0x46>:
    2bfa:	8d22a2        	l32i	a10, a2, 0x234
    2bfd:	f54181        	l32r	a8, 104 (15b0 <_Z12CPns_InitPnsP22CAacDecoderChannelInfo>)
    2c00:	aa4a           	add.n	a10, a10, a4
    2c02:	0aa8           	l32i.n	a10, a10, 0
    2c04:	0008e0        	callx8	a8
    2c07:	1221b2        	l32i	a11, a1, 72
    2c0a:	abb8           	l32i.n	a11, a11, 40
    2c0c:	444b           	addi.n	a4, a4, 4
    2c0e:	661b           	addi.n	a6, a6, 1
    2c10:	e626b7        	blt	a6, a11, 2bfa <_Z22CAacDecoder_ParseFrameP20AAC_DECODER_INSTANCEPiciiS1_P21XA_AACDEC_CHANNELMODEcii+0x46>

00002c13 <_Z22CAacDecoder_ParseFrameP20AAC_DECODER_INSTANCEPiciiS1_P21XA_AACDEC_CHANNELMODEcii+0x5f>:
    2c13:	6159           	s32i.n	a5, a1, 24
    2c15:	f53381        	l32r	a8, e4 (5e20 <_Z18CProgramConfigOpenP14CProgramConfig>)
    2c18:	62db           	addi.n	a6, a2, 13
    2c1a:	06ad           	mov.n	a10, a6
    2c1c:	0008e0        	callx8	a8
    2c1f:	122192        	l32i	a9, a1, 72
    2c22:	02d242        	addmi	a4, a2, 0x200
    2c25:	2a2992        	l32i	a9, a9, 168
    2c28:	74c452        	addi	a5, a4, 116
    2c2b:	44c442        	addi	a4, a4, 68
    2c2e:	041916        	beqz	a9, 2c73 <_Z22CAacDecoder_ParseFrameP20AAC_DECODER_INSTANCEPiciiS1_P21XA_AACDEC_CHANNELMODEcii+0xbf>
    2c31:	04ad           	mov.n	a10, a4
    2c33:	f52d81        	l32r	a8, e8 (418 <memcpy>)
    2c36:	05bd           	mov.n	a11, a5
    2c38:	0c3c           	movi.n	a12, 48
    2c3a:	0008e0        	callx8	a8
    2c3d:	1221a2        	l32i	a10, a1, 72
    2c40:	f52b81        	l32r	a8, ec (5900 <_Z17CopyPCEfromHeaderP21tProgramConfigElementP14CProgramConfig>)
    2c43:	06bd           	mov.n	a11, a6
    2c45:	2a2aa2        	l32i	a10, a10, 168
    2c48:	0008e0        	callx8	a8
    2c4b:	05ad           	mov.n	a10, a5
    2c4d:	1221c2        	l32i	a12, a1, 72
    2c50:	f52881        	l32r	a8, f0 (5a34 <_Z34CProgramConfigSetChannelAssignmentPA16_hP14CProgramConfigi>)
    2c53:	06bd           	mov.n	a11, a6
    2c55:	acc8           	l32i.n	a12, a12, 40
    2c57:	0008e0        	callx8	a8
    2c5a:	da8c           	beqz.n	a10, 2c6b <_Z22CAacDecoder_ParseFrameP20AAC_DECODER_INSTANCEPiciiS1_P21XA_AACDEC_CHANNELMODEcii+0xb7>
    2c5c:	05ad           	mov.n	a10, a5
    2c5e:	f52281        	l32r	a8, e8 (418 <memcpy>)
    2c61:	04bd           	mov.n	a11, a4
    2c63:	0c3c           	movi.n	a12, 48
    2c65:	0008e0        	callx8	a8
    2c68:	0001c6        	j	2c73 <_Z22CAacDecoder_ParseFrameP20AAC_DECODER_INSTANCEPiciiS1_P21XA_AACDEC_CHANNELMODEcii+0xbf>

00002c6b <_Z22CAacDecoder_ParseFrameP20AAC_DECODER_INSTANCEPiciiS1_P21XA_AACDEC_CHANNELMODEcii+0xb7>:
    2c6b:	1221a2        	l32i	a10, a1, 72
    2c6e:	190c           	movi.n	a9, 1
    2c70:	a44a92        	s8i	a9, a10, 164
    2c73:	f52581        	l32r	a8, 108 (2b44 <_Z33CAacDecoderResetDRCExtPresentFlagP20AAC_DECODER_INSTANCE>)
    2c76:	02ad           	mov.n	a10, a2
    2c78:	4169           	s32i.n	a6, a1, 16
    2c7a:	0008e0        	callx8	a8
    2c7d:	060c           	movi.n	a6, 0
    2c7f:	0a0c           	movi.n	a10, 0
    2c81:	080c           	movi.n	a8, 0
    2c83:	090c           	movi.n	a9, 0
    2c85:	d199           	s32i.n	a9, a1, 52
    2c87:	9189           	s32i.n	a8, a1, 36
    2c89:	a1a9           	s32i.n	a10, a1, 40
    2c8b:	b1a9           	s32i.n	a10, a1, 44

00002c8d <_Z22CAacDecoder_ParseFrameP20AAC_DECODER_INSTANCEPiciiS1_P21XA_AACDEC_CHANNELMODEcii+0xd9>:
    2c8d:	d1b8           	l32i.n	a11, a1, 52
    2c8f:	f9cbb2        	addi	a11, a11, -7
    2c92:	507b16        	beqz	a11, 319d <_Z22CAacDecoder_ParseFrameP20AAC_DECODER_INSTANCEPiciiS1_P21XA_AACDEC_CHANNELMODEcii+0x5e9>
    2c95:	0002c2        	l8ui	a12, a2, 0
    2c98:	501c16        	beqz	a12, 319d <_Z22CAacDecoder_ParseFrameP20AAC_DECODER_INSTANCEPiciiS1_P21XA_AACDEC_CHANNELMODEcii+0x5e9>
    2c9b:	f51081        	l32r	a8, dc (6f60 <initBitParser>)
    2c9e:	1121a2        	l32i	a10, a1, 68
    2ca1:	0008e0        	callx8	a8
    2ca4:	f50f81        	l32r	a8, e0 (6f38 <TerminateBitParser_new>)
    2ca7:	0abd           	mov.n	a11, a10
    2ca9:	039f34        	ae_lbi	a9, 3
    2cac:	156192        	s32i	a9, a1, 84
    2caf:	1121a2        	l32i	a10, a1, 68
    2cb2:	d199           	s32i.n	a9, a1, 52
    2cb4:	003bf4        	ae_dbi	a11, 3
    2cb7:	0008e0        	callx8	a8
    2cba:	1121a2        	l32i	a10, a1, 68
    2cbd:	5aa8           	l32i.n	a10, a10, 20
    2cbf:	152192        	l32i	a9, a1, 84
    2cc2:	002ad6        	bgez	a10, 2cc8 <_Z22CAacDecoder_ParseFrameP20AAC_DECODER_INSTANCEPiciiS1_P21XA_AACDEC_CHANNELMODEcii+0x114>
    2cc5:	004232        	s8i	a3, a2, 0

00002cc8 <_Z22CAacDecoder_ParseFrameP20AAC_DECODER_INSTANCEPiciiS1_P21XA_AACDEC_CHANNELMODEcii+0x114>:
    2cc8:	3b6916        	beqz	a9, 3082 <_Z22CAacDecoder_ParseFrameP20AAC_DECODER_INSTANCEPiciiS1_P21XA_AACDEC_CHANNELMODEcii+0x4ce>
    2ccb:	b90b           	addi.n	a11, a9, -1
    2ccd:	268b16        	beqz	a11, 2f39 <_Z22CAacDecoder_ParseFrameP20AAC_DECODER_INSTANCEPiciiS1_P21XA_AACDEC_CHANNELMODEcii+0x385>
    2cd0:	fec9c2        	addi	a12, a9, -2
    2cd3:	25dc16        	beqz	a12, 2f34 <_Z22CAacDecoder_ParseFrameP20AAC_DECODER_INSTANCEPiciiS1_P21XA_AACDEC_CHANNELMODEcii+0x380>
    2cd6:	fdc9d2        	addi	a13, a9, -3
    2cd9:	123d16        	beqz	a13, 2e00 <_Z22CAacDecoder_ParseFrameP20AAC_DECODER_INSTANCEPiciiS1_P21XA_AACDEC_CHANNELMODEcii+0x24c>
    2cdc:	fcc9e2        	addi	a14, a9, -4
    2cdf:	0cde16        	beqz	a14, 2db0 <_Z22CAacDecoder_ParseFrameP20AAC_DECODER_INSTANCEPiciiS1_P21XA_AACDEC_CHANNELMODEcii+0x1fc>
    2ce2:	1c5926        	beqi	a9, 5, 2d02 <_Z22CAacDecoder_ParseFrameP20AAC_DECODER_INSTANCEPiciiS1_P21XA_AACDEC_CHANNELMODEcii+0x14e>
    2ce5:	fac9f2        	addi	a15, a9, -6
    2ce8:	2d7f56        	bnez	a15, 2fc3 <_Z22CAacDecoder_ParseFrameP20AAC_DECODER_INSTANCEPiciiS1_P21XA_AACDEC_CHANNELMODEcii+0x40f>
    2ceb:	f50881        	l32r	a8, 10c (2a78 <_Z15ReadFillElementP7BIT_BUF>)
    2cee:	1121a2        	l32i	a10, a1, 68
    2cf1:	0008e0        	callx8	a8
    2cf4:	f5ca92        	addi	a9, a10, -11
    2cf7:	2c8956        	bnez	a9, 2fc3 <_Z22CAacDecoder_ParseFrameP20AAC_DECODER_INSTANCEPiciiS1_P21XA_AACDEC_CHANNELMODEcii+0x40f>
    2cfa:	1a0c           	movi.n	a10, 1
    2cfc:	9062a2        	s32i	a10, a2, 0x240
    2cff:	00b006        	j	2fc3 <_Z22CAacDecoder_ParseFrameP20AAC_DECODER_INSTANCEPiciiS1_P21XA_AACDEC_CHANNELMODEcii+0x40f>

00002d02 <_Z22CAacDecoder_ParseFrameP20AAC_DECODER_INSTANCEPiciiS1_P21XA_AACDEC_CHANNELMODEcii+0x14e>:
    2d02:	1221b2        	l32i	a11, a1, 72
    2d05:	7bb8           	l32i.n	a11, a11, 28
    2d07:	0bb8           	l32i.n	a11, a11, 0
    2d09:	4b9c           	beqz.n	a11, 2d21 <_Z22CAacDecoder_ParseFrameP20AAC_DECODER_INSTANCEPiciiS1_P21XA_AACDEC_CHANNELMODEcii+0x16d>
    2d0b:	8722a2        	l32i	a10, a2, 0x21c
    2d0e:	f50081        	l32r	a8, 110 (5810 <_Z15AdtsCrcStartRegP12CAdtsCrcInfoP7BIT_BUFi>)
    2d11:	1121b2        	l32i	a11, a1, 68
    2d14:	0c0c           	movi.n	a12, 0
    2d16:	0008e0        	callx8	a8
    2d19:	b1a9           	s32i.n	a10, a1, 44
    2d1b:	020a66        	bnei	a10, -1, 2d21 <_Z22CAacDecoder_ParseFrameP20AAC_DECODER_INSTANCEPiciiS1_P21XA_AACDEC_CHANNELMODEcii+0x16d>
    2d1e:	004232        	s8i	a3, a2, 0
    2d21:	1121a2        	l32i	a10, a1, 68
    2d24:	f4fc81        	l32r	a8, 114 (5bc4 <_Z19CProgramConfig_ReadP7BIT_BUFP14CProgramConfigPi>)
    2d27:	41b8           	l32i.n	a11, a1, 16
    2d29:	c14b           	addi.n	a12, a1, 4
    2d2b:	0008e0        	callx8	a8
    2d2e:	4acc           	bnez.n	a10, 2d36 <_Z22CAacDecoder_ParseFrameP20AAC_DECODER_INSTANCEPiciiS1_P21XA_AACDEC_CHANNELMODEcii+0x182>
    2d30:	000292        	l8ui	a9, a2, 0
    2d33:	000106        	j	2d3b <_Z22CAacDecoder_ParseFrameP20AAC_DECODER_INSTANCEPiciiS1_P21XA_AACDEC_CHANNELMODEcii+0x187>

00002d36 <_Z22CAacDecoder_ParseFrameP20AAC_DECODER_INSTANCEPiciiS1_P21XA_AACDEC_CHANNELMODEcii+0x182>:
    2d36:	090c           	movi.n	a9, 0
    2d38:	004232        	s8i	a3, a2, 0

00002d3b <_Z22CAacDecoder_ParseFrameP20AAC_DECODER_INSTANCEPiciiS1_P21XA_AACDEC_CHANNELMODEcii+0x187>:
    2d3b:	1221a2        	l32i	a10, a1, 72
    2d3e:	2a2aa2        	l32i	a10, a10, 168
    2d41:	fafc           	bnez.n	a10, 2d84 <_Z22CAacDecoder_ParseFrameP20AAC_DECODER_INSTANCEPiciiS1_P21XA_AACDEC_CHANNELMODEcii+0x1d0>
    2d43:	d9bc           	beqz.n	a9, 2d84 <_Z22CAacDecoder_ParseFrameP20AAC_DECODER_INSTANCEPiciiS1_P21XA_AACDEC_CHANNELMODEcii+0x1d0>
    2d45:	1221b2        	l32i	a11, a1, 72
    2d48:	2b2bb2        	l32i	a11, a11, 172
    2d4b:	5bfc           	bnez.n	a11, 2d84 <_Z22CAacDecoder_ParseFrameP20AAC_DECODER_INSTANCEPiciiS1_P21XA_AACDEC_CHANNELMODEcii+0x1d0>
    2d4d:	04ad           	mov.n	a10, a4
    2d4f:	f4e681        	l32r	a8, e8 (418 <memcpy>)
    2d52:	05bd           	mov.n	a11, a5
    2d54:	0c3c           	movi.n	a12, 48
    2d56:	0008e0        	callx8	a8
    2d59:	05ad           	mov.n	a10, a5
    2d5b:	1221c2        	l32i	a12, a1, 72
    2d5e:	f4e481        	l32r	a8, f0 (5a34 <_Z34CProgramConfigSetChannelAssignmentPA16_hP14CProgramConfigi>)
    2d61:	41b8           	l32i.n	a11, a1, 16
    2d63:	acc8           	l32i.n	a12, a12, 40
    2d65:	0008e0        	callx8	a8
    2d68:	da8c           	beqz.n	a10, 2d79 <_Z22CAacDecoder_ParseFrameP20AAC_DECODER_INSTANCEPiciiS1_P21XA_AACDEC_CHANNELMODEcii+0x1c5>
    2d6a:	05ad           	mov.n	a10, a5
    2d6c:	f4df81        	l32r	a8, e8 (418 <memcpy>)
    2d6f:	04bd           	mov.n	a11, a4
    2d71:	0c3c           	movi.n	a12, 48
    2d73:	0008e0        	callx8	a8
    2d76:	0001c6        	j	2d81 <_Z22CAacDecoder_ParseFrameP20AAC_DECODER_INSTANCEPiciiS1_P21XA_AACDEC_CHANNELMODEcii+0x1cd>

00002d79 <_Z22CAacDecoder_ParseFrameP20AAC_DECODER_INSTANCEPiciiS1_P21XA_AACDEC_CHANNELMODEcii+0x1c5>:
    2d79:	1221a2        	l32i	a10, a1, 72
    2d7c:	190c           	movi.n	a9, 1
    2d7e:	a44a92        	s8i	a9, a10, 164

00002d81 <_Z22CAacDecoder_ParseFrameP20AAC_DECODER_INSTANCEPiciiS1_P21XA_AACDEC_CHANNELMODEcii+0x1cd>:
    2d81:	000292        	l8ui	a9, a2, 0
    2d84:	b90b           	addi.n	a11, a9, -1
    2d86:	239b56        	bnez	a11, 2fc3 <_Z22CAacDecoder_ParseFrameP20AAC_DECODER_INSTANCEPiciiS1_P21XA_AACDEC_CHANNELMODEcii+0x40f>
    2d89:	8722a2        	l32i	a10, a2, 0x21c
    2d8c:	0ac8           	l32i.n	a12, a10, 0
    2d8e:	231c16        	beqz	a12, 2fc3 <_Z22CAacDecoder_ParseFrameP20AAC_DECODER_INSTANCEPiciiS1_P21XA_AACDEC_CHANNELMODEcii+0x40f>
    2d91:	f4e181        	l32r	a8, 118 (57f4 <_Z13AdtsCrcEndRegP12CAdtsCrcInfoP7BIT_BUFi>)
    2d94:	1121b2        	l32i	a11, a1, 68
    2d97:	b1c8           	l32i.n	a12, a1, 44
    2d99:	0008e0        	callx8	a8
    2d9c:	8722e2        	l32i	a14, a2, 0x21c
    2d9f:	b1d8           	l32i.n	a13, a1, 44
    2da1:	a0dde0        	addx4	a13, a13, a14
    2da4:	3dd8           	l32i.n	a13, a13, 12
    2da6:	4d98           	l32i.n	a9, a13, 16
    2da8:	214916        	beqz	a9, 2fc0 <_Z22CAacDecoder_ParseFrameP20AAC_DECODER_INSTANCEPiciiS1_P21XA_AACDEC_CHANNELMODEcii+0x40c>
    2dab:	2d99           	s32i.n	a9, a13, 8
    2dad:	008486        	j	2fc3 <_Z22CAacDecoder_ParseFrameP20AAC_DECODER_INSTANCEPiciiS1_P21XA_AACDEC_CHANNELMODEcii+0x40f>

00002db0 <_Z22CAacDecoder_ParseFrameP20AAC_DECODER_INSTANCEPiciiS1_P21XA_AACDEC_CHANNELMODEcii+0x1fc>:
    2db0:	1221f2        	l32i	a15, a1, 72
    2db3:	7ff8           	l32i.n	a15, a15, 28
    2db5:	0ff8           	l32i.n	a15, a15, 0
    2db7:	9f9c           	beqz.n	a15, 2dd4 <_Z22CAacDecoder_ParseFrameP20AAC_DECODER_INSTANCEPiciiS1_P21XA_AACDEC_CHANNELMODEcii+0x220>
    2db9:	8722a2        	l32i	a10, a2, 0x21c
    2dbc:	f4d581        	l32r	a8, 110 (5810 <_Z15AdtsCrcStartRegP12CAdtsCrcInfoP7BIT_BUFi>)
    2dbf:	1121b2        	l32i	a11, a1, 68
    2dc2:	0c0c           	movi.n	a12, 0
    2dc4:	0008e0        	callx8	a8
    2dc7:	b1a9           	s32i.n	a10, a1, 44
    2dc9:	070a66        	bnei	a10, -1, 2dd4 <_Z22CAacDecoder_ParseFrameP20AAC_DECODER_INSTANCEPiciiS1_P21XA_AACDEC_CHANNELMODEcii+0x220>
    2dcc:	090c           	movi.n	a9, 0
    2dce:	004232        	s8i	a3, a2, 0
    2dd1:	000086        	j	2dd7 <_Z22CAacDecoder_ParseFrameP20AAC_DECODER_INSTANCEPiciiS1_P21XA_AACDEC_CHANNELMODEcii+0x223>

00002dd4 <_Z22CAacDecoder_ParseFrameP20AAC_DECODER_INSTANCEPiciiS1_P21XA_AACDEC_CHANNELMODEcii+0x220>:
    2dd4:	000292        	l8ui	a9, a2, 0

00002dd7 <_Z22CAacDecoder_ParseFrameP20AAC_DECODER_INSTANCEPiciiS1_P21XA_AACDEC_CHANNELMODEcii+0x223>:
    2dd7:	a90b           	addi.n	a10, a9, -1
    2dd9:	1e6a56        	bnez	a10, 2fc3 <_Z22CAacDecoder_ParseFrameP20AAC_DECODER_INSTANCEPiciiS1_P21XA_AACDEC_CHANNELMODEcii+0x40f>
    2ddc:	1121a2        	l32i	a10, a1, 68
    2ddf:	f4cf81        	l32r	a8, 11c (5890 <_Z23CDataStreamElement_ReadP7BIT_BUFP18CDataStreamElementPi>)
    2de2:	8922b2        	l32i	a11, a2, 0x224
    2de5:	c14b           	addi.n	a12, a1, 4
    2de7:	0008e0        	callx8	a8
    2dea:	8722a2        	l32i	a10, a2, 0x21c
    2ded:	0a98           	l32i.n	a9, a10, 0
    2def:	1d0916        	beqz	a9, 2fc3 <_Z22CAacDecoder_ParseFrameP20AAC_DECODER_INSTANCEPiciiS1_P21XA_AACDEC_CHANNELMODEcii+0x40f>
    2df2:	f4c981        	l32r	a8, 118 (57f4 <_Z13AdtsCrcEndRegP12CAdtsCrcInfoP7BIT_BUFi>)
    2df5:	1121b2        	l32i	a11, a1, 68
    2df8:	b1c8           	l32i.n	a12, a1, 44
    2dfa:	0008e0        	callx8	a8
    2dfd:	007086        	j	2fc3 <_Z22CAacDecoder_ParseFrameP20AAC_DECODER_INSTANCEPiciiS1_P21XA_AACDEC_CHANNELMODEcii+0x40f>

00002e00 <_Z22CAacDecoder_ParseFrameP20AAC_DECODER_INSTANCEPiciiS1_P21XA_AACDEC_CHANNELMODEcii+0x24c>:
    2e00:	122192        	l32i	a9, a1, 72
    2e03:	a998           	l32i.n	a9, a9, 40
    2e05:	1221a2        	l32i	a10, a1, 72
    2e08:	042697        	blt	a6, a9, 2e10 <_Z22CAacDecoder_ParseFrameP20AAC_DECODER_INSTANCEPiciiS1_P21XA_AACDEC_CHANNELMODEcii+0x25c>
    2e0b:	170c           	movi.n	a7, 1
    2e0d:	006bc6        	j	2fc0 <_Z22CAacDecoder_ParseFrameP20AAC_DECODER_INSTANCEPiciiS1_P21XA_AACDEC_CHANNELMODEcii+0x40c>

00002e10 <_Z22CAacDecoder_ParseFrameP20AAC_DECODER_INSTANCEPiciiS1_P21XA_AACDEC_CHANNELMODEcii+0x25c>:
    2e10:	7aa8           	l32i.n	a10, a10, 28
    2e12:	0aa8           	l32i.n	a10, a10, 0
    2e14:	aa9c           	beqz.n	a10, 2e32 <_Z22CAacDecoder_ParseFrameP20AAC_DECODER_INSTANCEPiciiS1_P21XA_AACDEC_CHANNELMODEcii+0x27e>
    2e16:	8722a2        	l32i	a10, a2, 0x21c
    2e19:	f4bd81        	l32r	a8, 110 (5810 <_Z15AdtsCrcStartRegP12CAdtsCrcInfoP7BIT_BUFi>)
    2e1c:	1121b2        	l32i	a11, a1, 68
    2e1f:	c0a0c2        	movi	a12, 192
    2e22:	0008e0        	callx8	a8
    2e25:	b1a9           	s32i.n	a10, a1, 44
    2e27:	070a66        	bnei	a10, -1, 2e32 <_Z22CAacDecoder_ParseFrameP20AAC_DECODER_INSTANCEPiciiS1_P21XA_AACDEC_CHANNELMODEcii+0x27e>
    2e2a:	004232        	s8i	a3, a2, 0
    2e2d:	090c           	movi.n	a9, 0
    2e2f:	000086        	j	2e35 <_Z22CAacDecoder_ParseFrameP20AAC_DECODER_INSTANCEPiciiS1_P21XA_AACDEC_CHANNELMODEcii+0x281>

00002e32 <_Z22CAacDecoder_ParseFrameP20AAC_DECODER_INSTANCEPiciiS1_P21XA_AACDEC_CHANNELMODEcii+0x27e>:
    2e32:	000292        	l8ui	a9, a2, 0

00002e35 <_Z22CAacDecoder_ParseFrameP20AAC_DECODER_INSTANCEPiciiS1_P21XA_AACDEC_CHANNELMODEcii+0x281>:
    2e35:	07e916        	beqz	a9, 2eb7 <_Z22CAacDecoder_ParseFrameP20AAC_DECODER_INSTANCEPiciiS1_P21XA_AACDEC_CHANNELMODEcii+0x303>
    2e38:	f4a981        	l32r	a8, dc (6f60 <initBitParser>)
    2e3b:	1121a2        	l32i	a10, a1, 68
    2e3e:	0008e0        	callx8	a8
    2e41:	f4a781        	l32r	a8, e0 (6f38 <TerminateBitParser_new>)
    2e44:	0abd           	mov.n	a11, a10
    2e46:	039f44        	ae_lbi	a9, 4
    2e49:	1121a2        	l32i	a10, a1, 68
    2e4c:	004192        	s8i	a9, a1, 0
    2e4f:	004bf4        	ae_dbi	a11, 4
    2e52:	0008e0        	callx8	a8
    2e55:	1221a2        	l32i	a10, a1, 72
    2e58:	a40aa2        	l8ui	a10, a10, 164
    2e5b:	ffa0d2        	movi	a13, 255
    2e5e:	eacc           	bnez.n	a10, 2e70 <_Z22CAacDecoder_ParseFrameP20AAC_DECODER_INSTANCEPiciiS1_P21XA_AACDEC_CHANNELMODEcii+0x2bc>
    2e60:	0001b2        	l8ui	a11, a1, 0
    2e63:	23bb00        	sext	a11, a11, 7
    2e66:	bb2a           	add.n	a11, a11, a2
    2e68:	02dbb2        	addmi	a11, a11, 0x200
    2e6b:	bb8b           	addi.n	a11, a11, 8
    2e6d:	8c4b62        	s8i	a6, a11, 140

00002e70 <_Z22CAacDecoder_ParseFrameP20AAC_DECODER_INSTANCEPiciiS1_P21XA_AACDEC_CHANNELMODEcii+0x2bc>:
    2e70:	0001c2        	l8ui	a12, a1, 0
    2e73:	23cc00        	sext	a12, a12, 7
    2e76:	cc2a           	add.n	a12, a12, a2
    2e78:	02dcc2        	addmi	a12, a12, 0x200
    2e7b:	cc8b           	addi.n	a12, a12, 8
    2e7d:	8c0cc2        	l8ui	a12, a12, 140
    2e80:	91c9           	s32i.n	a12, a1, 36
    2e82:	049cd7        	bne	a12, a13, 2e8a <_Z22CAacDecoder_ParseFrameP20AAC_DECODER_INSTANCEPiciiS1_P21XA_AACDEC_CHANNELMODEcii+0x2d6>

00002e85 <_Z22CAacDecoder_ParseFrameP20AAC_DECODER_INSTANCEPiciiS1_P21XA_AACDEC_CHANNELMODEcii+0x2d1>:
    2e85:	170c           	movi.n	a7, 1
    2e87:	004d46        	j	2fc0 <_Z22CAacDecoder_ParseFrameP20AAC_DECODER_INSTANCEPiciiS1_P21XA_AACDEC_CHANNELMODEcii+0x40c>

00002e8a <_Z22CAacDecoder_ParseFrameP20AAC_DECODER_INSTANCEPiciiS1_P21XA_AACDEC_CHANNELMODEcii+0x2d6>:
    2e8a:	1121a2        	l32i	a10, a1, 68
    2e8d:	f4a481        	l32r	a8, 120 (4304 <_Z26CSingleChannelElement_ReadP7BIT_BUFP22CAacDecoderChannelInfoP11CStreamInfoc>)
    2e90:	8c22f2        	l32i	a15, a2, 0x230
    2e93:	0cbd           	mov.n	a11, a12
    2e95:	1e0c           	movi.n	a14, 1
    2e97:	ffca           	add.n	a15, a15, a12
    2e99:	004fe2        	s8i	a14, a15, 0
    2e9c:	0001d2        	l8ui	a13, a1, 0
    2e9f:	8d22e2        	l32i	a14, a2, 0x234
    2ea2:	8822c2        	l32i	a12, a2, 0x220
    2ea5:	23dd00        	sext	a13, a13, 7
    2ea8:	a0bbe0        	addx4	a11, a11, a14
    2eab:	0bb8           	l32i.n	a11, a11, 0
    2ead:	0008e0        	callx8	a8
    2eb0:	0a7d           	mov.n	a7, a10
    2eb2:	1a8c           	beqz.n	a10, 2eb7 <_Z22CAacDecoder_ParseFrameP20AAC_DECODER_INSTANCEPiciiS1_P21XA_AACDEC_CHANNELMODEcii+0x303>
    2eb4:	004232        	s8i	a3, a2, 0
    2eb7:	122182        	l32i	a8, a1, 72
    2eba:	7888           	l32i.n	a8, a8, 28
    2ebc:	0888           	l32i.n	a8, a8, 0
    2ebe:	c88c           	beqz.n	a8, 2ece <_Z22CAacDecoder_ParseFrameP20AAC_DECODER_INSTANCEPiciiS1_P21XA_AACDEC_CHANNELMODEcii+0x31a>
    2ec0:	8722a2        	l32i	a10, a2, 0x21c
    2ec3:	f49581        	l32r	a8, 118 (57f4 <_Z13AdtsCrcEndRegP12CAdtsCrcInfoP7BIT_BUFi>)
    2ec6:	1121b2        	l32i	a11, a1, 68
    2ec9:	b1c8           	l32i.n	a12, a1, 44
    2ecb:	0008e0        	callx8	a8

00002ece <_Z22CAacDecoder_ParseFrameP20AAC_DECODER_INSTANCEPiciiS1_P21XA_AACDEC_CHANNELMODEcii+0x31a>:
    2ece:	000292        	l8ui	a9, a2, 0
    2ed1:	990b           	addi.n	a9, a9, -1
    2ed3:	0ec956        	bnez	a9, 2fc3 <_Z22CAacDecoder_ParseFrameP20AAC_DECODER_INSTANCEPiciiS1_P21XA_AACDEC_CHANNELMODEcii+0x40f>
    2ed6:	8722a2        	l32i	a10, a2, 0x21c
    2ed9:	0ab8           	l32i.n	a11, a10, 0
    2edb:	9b8c           	beqz.n	a11, 2ee8 <_Z22CAacDecoder_ParseFrameP20AAC_DECODER_INSTANCEPiciiS1_P21XA_AACDEC_CHANNELMODEcii+0x334>
    2edd:	f48e81        	l32r	a8, 118 (57f4 <_Z13AdtsCrcEndRegP12CAdtsCrcInfoP7BIT_BUFi>)
    2ee0:	1121b2        	l32i	a11, a1, 68
    2ee3:	b1c8           	l32i.n	a12, a1, 44
    2ee5:	0008e0        	callx8	a8

00002ee8 <_Z22CAacDecoder_ParseFrameP20AAC_DECODER_INSTANCEPiciiS1_P21XA_AACDEC_CHANNELMODEcii+0x334>:
    2ee8:	41a8           	l32i.n	a10, a1, 16
    2eea:	0001b2        	l8ui	a11, a1, 0
    2eed:	f48d81        	l32r	a8, 124 (5b54 <_Z25CProgramConfig_AddChannelP14CProgramConfigih>)
    2ef0:	0c0c           	movi.n	a12, 0
    2ef2:	23bb00        	sext	a11, a11, 7
    2ef5:	0008e0        	callx8	a8
    2ef8:	4acc           	bnez.n	a10, 2f00 <_Z22CAacDecoder_ParseFrameP20AAC_DECODER_INSTANCEPiciiS1_P21XA_AACDEC_CHANNELMODEcii+0x34c>
    2efa:	ab22c2        	l32i	a12, a2, 0x2ac
    2efd:	0c2c16        	beqz	a12, 2fc3 <_Z22CAacDecoder_ParseFrameP20AAC_DECODER_INSTANCEPiciiS1_P21XA_AACDEC_CHANNELMODEcii+0x40f>

00002f00 <_Z22CAacDecoder_ParseFrameP20AAC_DECODER_INSTANCEPiciiS1_P21XA_AACDEC_CHANNELMODEcii+0x34c>:
    2f00:	0002d2        	l8ui	a13, a2, 0
    2f03:	0bcd16        	beqz	a13, 2fc3 <_Z22CAacDecoder_ParseFrameP20AAC_DECODER_INSTANCEPiciiS1_P21XA_AACDEC_CHANNELMODEcii+0x40f>
    2f06:	8e22a2        	l32i	a10, a2, 0x238
    2f09:	91b8           	l32i.n	a11, a1, 36
    2f0b:	8d22c2        	l32i	a12, a2, 0x234
    2f0e:	f48681        	l32r	a8, 128 (4184 <_Z28CSingleChannelElement_DecodePP28CAacDecoderStaticChannelInfoPP22CAacDecoderChannelInfo>)
    2f11:	a0aba0        	addx4	a10, a11, a10
    2f14:	a0bbc0        	addx4	a11, a11, a12
    2f17:	0008e0        	callx8	a8
    2f1a:	961b           	addi.n	a9, a6, 1
    2f1c:	a1b8           	l32i.n	a11, a1, 40
    2f1e:	8c0c           	movi.n	a12, 8
    2f20:	11d6e0        	slli	a13, a6, 2
    2f23:	401d00        	ssl	a13
    2f26:	a1cc00        	sll	a12, a12
    2f29:	20bbc0        	or	a11, a11, a12
    2f2c:	a1b9           	s32i.n	a11, a1, 40

00002f2e <_Z22CAacDecoder_ParseFrameP20AAC_DECODER_INSTANCEPiciiS1_P21XA_AACDEC_CHANNELMODEcii+0x37a>:
    2f2e:	746090        	extui	a6, a9, 0, 8
    2f31:	002386        	j	2fc3 <_Z22CAacDecoder_ParseFrameP20AAC_DECODER_INSTANCEPiciiS1_P21XA_AACDEC_CHANNELMODEcii+0x40f>

00002f34 <_Z22CAacDecoder_ParseFrameP20AAC_DECODER_INSTANCEPiciiS1_P21XA_AACDEC_CHANNELMODEcii+0x380>:
    2f34:	770c           	movi.n	a7, 7
    2f36:	002186        	j	2fc0 <_Z22CAacDecoder_ParseFrameP20AAC_DECODER_INSTANCEPiciiS1_P21XA_AACDEC_CHANNELMODEcii+0x40c>

00002f39 <_Z22CAacDecoder_ParseFrameP20AAC_DECODER_INSTANCEPiciiS1_P21XA_AACDEC_CHANNELMODEcii+0x385>:
    2f39:	1221e2        	l32i	a14, a1, 72
    2f3c:	aee8           	l32i.n	a14, a14, 40
    2f3e:	f62b           	addi.n	a15, a6, 2
    2f40:	02aef7        	bge	a14, a15, 2f46 <_Z22CAacDecoder_ParseFrameP20AAC_DECODER_INSTANCEPiciiS1_P21XA_AACDEC_CHANNELMODEcii+0x392>
    2f43:	ffcf86        	j	2e85 <_Z22CAacDecoder_ParseFrameP20AAC_DECODER_INSTANCEPiciiS1_P21XA_AACDEC_CHANNELMODEcii+0x2d1>
    2f46:	1221f2        	l32i	a15, a1, 72
    2f49:	7ff8           	l32i.n	a15, a15, 28
    2f4b:	0ff8           	l32i.n	a15, a15, 0
    2f4d:	af9c           	beqz.n	a15, 2f6b <_Z22CAacDecoder_ParseFrameP20AAC_DECODER_INSTANCEPiciiS1_P21XA_AACDEC_CHANNELMODEcii+0x3b7>
    2f4f:	8722a2        	l32i	a10, a2, 0x21c
    2f52:	f46f81        	l32r	a8, 110 (5810 <_Z15AdtsCrcStartRegP12CAdtsCrcInfoP7BIT_BUFi>)
    2f55:	1121b2        	l32i	a11, a1, 68
    2f58:	c0a0c2        	movi	a12, 192
    2f5b:	0008e0        	callx8	a8
    2f5e:	b1a9           	s32i.n	a10, a1, 44
    2f60:	070a66        	bnei	a10, -1, 2f6b <_Z22CAacDecoder_ParseFrameP20AAC_DECODER_INSTANCEPiciiS1_P21XA_AACDEC_CHANNELMODEcii+0x3b7>
    2f63:	004232        	s8i	a3, a2, 0
    2f66:	090c           	movi.n	a9, 0
    2f68:	000086        	j	2f6e <_Z22CAacDecoder_ParseFrameP20AAC_DECODER_INSTANCEPiciiS1_P21XA_AACDEC_CHANNELMODEcii+0x3ba>

00002f6b <_Z22CAacDecoder_ParseFrameP20AAC_DECODER_INSTANCEPiciiS1_P21XA_AACDEC_CHANNELMODEcii+0x3b7>:
    2f6b:	000292        	l8ui	a9, a2, 0

00002f6e <_Z22CAacDecoder_ParseFrameP20AAC_DECODER_INSTANCEPiciiS1_P21XA_AACDEC_CHANNELMODEcii+0x3ba>:
    2f6e:	09f916        	beqz	a9, 3011 <_Z22CAacDecoder_ParseFrameP20AAC_DECODER_INSTANCEPiciiS1_P21XA_AACDEC_CHANNELMODEcii+0x45d>
    2f71:	f45a81        	l32r	a8, dc (6f60 <initBitParser>)
    2f74:	1121a2        	l32i	a10, a1, 68
    2f77:	0008e0        	callx8	a8
    2f7a:	f45981        	l32r	a8, e0 (6f38 <TerminateBitParser_new>)
    2f7d:	0abd           	mov.n	a11, a10
    2f7f:	039f44        	ae_lbi	a9, 4
    2f82:	1121a2        	l32i	a10, a1, 68
    2f85:	004192        	s8i	a9, a1, 0
    2f88:	004bf4        	ae_dbi	a11, 4
    2f8b:	0008e0        	callx8	a8
    2f8e:	1221a2        	l32i	a10, a1, 72
    2f91:	a40aa2        	l8ui	a10, a10, 164
    2f94:	ffa0d2        	movi	a13, 255
    2f97:	eacc           	bnez.n	a10, 2fa9 <_Z22CAacDecoder_ParseFrameP20AAC_DECODER_INSTANCEPiciiS1_P21XA_AACDEC_CHANNELMODEcii+0x3f5>
    2f99:	0001b2        	l8ui	a11, a1, 0
    2f9c:	23bb00        	sext	a11, a11, 7
    2f9f:	bb2a           	add.n	a11, a11, a2
    2fa1:	02dbb2        	addmi	a11, a11, 0x200
    2fa4:	bb8b           	addi.n	a11, a11, 8
    2fa6:	7c4b62        	s8i	a6, a11, 124

00002fa9 <_Z22CAacDecoder_ParseFrameP20AAC_DECODER_INSTANCEPiciiS1_P21XA_AACDEC_CHANNELMODEcii+0x3f5>:
    2fa9:	0001c2        	l8ui	a12, a1, 0
    2fac:	23cc00        	sext	a12, a12, 7
    2faf:	cc2a           	add.n	a12, a12, a2
    2fb1:	02dcc2        	addmi	a12, a12, 0x200
    2fb4:	cc8b           	addi.n	a12, a12, 8
    2fb6:	7c0cc2        	l8ui	a12, a12, 124
    2fb9:	91c9           	s32i.n	a12, a1, 36
    2fbb:	209cd7        	bne	a12, a13, 2fdf <_Z22CAacDecoder_ParseFrameP20AAC_DECODER_INSTANCEPiciiS1_P21XA_AACDEC_CHANNELMODEcii+0x42b>

00002fbe <_Z22CAacDecoder_ParseFrameP20AAC_DECODER_INSTANCEPiciiS1_P21XA_AACDEC_CHANNELMODEcii+0x40a>:
    2fbe:	170c           	movi.n	a7, 1

00002fc0 <_Z22CAacDecoder_ParseFrameP20AAC_DECODER_INSTANCEPiciiS1_P21XA_AACDEC_CHANNELMODEcii+0x40c>:
    2fc0:	004232        	s8i	a3, a2, 0

00002fc3 <_Z22CAacDecoder_ParseFrameP20AAC_DECODER_INSTANCEPiciiS1_P21XA_AACDEC_CHANNELMODEcii+0x40f>:
    2fc3:	1221d2        	l32i	a13, a1, 72
    2fc6:	7dd8           	l32i.n	a13, a13, 28
    2fc8:	0dd8           	l32i.n	a13, a13, 0
    2fca:	cbfd16        	beqz	a13, 2c8d <_Z22CAacDecoder_ParseFrameP20AAC_DECODER_INSTANCEPiciiS1_P21XA_AACDEC_CHANNELMODEcii+0xd9>
    2fcd:	61b8           	l32i.n	a11, a1, 24
    2fcf:	f45781        	l32r	a8, 12c (5710 <_Z15AdtsCrcCheckCrcP12CAdtsCrcInfot>)
    2fd2:	8722a2        	l32i	a10, a2, 0x21c
    2fd5:	9bbd           	ae_zext16	a11, a11
    2fd7:	0008e0        	callx8	a8
    2fda:	61a9           	s32i.n	a10, a1, 24
    2fdc:	ff2b46        	j	2c8d <_Z22CAacDecoder_ParseFrameP20AAC_DECODER_INSTANCEPiciiS1_P21XA_AACDEC_CHANNELMODEcii+0xd9>

00002fdf <_Z22CAacDecoder_ParseFrameP20AAC_DECODER_INSTANCEPiciiS1_P21XA_AACDEC_CHANNELMODEcii+0x42b>:
    2fdf:	1121a2        	l32i	a10, a1, 68
    2fe2:	01ed           	mov.n	a14, a1
    2fe4:	91b8           	l32i.n	a11, a1, 36
    2fe6:	8c22c2        	l32i	a12, a2, 0x230
    2fe9:	f45181        	l32r	a8, 130 (41b4 <_Z24CChannelPairElement_ReadP7BIT_BUFPP22CAacDecoderChannelInfoP11CStreamInfoP12CAdtsCrcInfoPc>)
    2fec:	290c           	movi.n	a9, 2
    2fee:	ccba           	add.n	a12, a12, a11
    2ff0:	004c92        	s8i	a9, a12, 0
    2ff3:	8d22f2        	l32i	a15, a2, 0x234
    2ff6:	8822c2        	l32i	a12, a2, 0x220
    2ff9:	8722d2        	l32i	a13, a2, 0x21c
    2ffc:	a0bbf0        	addx4	a11, a11, a15
    2fff:	0008e0        	callx8	a8
    3002:	0a7d           	mov.n	a7, a10
    3004:	4acc           	bnez.n	a10, 300c <_Z22CAacDecoder_ParseFrameP20AAC_DECODER_INSTANCEPiciiS1_P21XA_AACDEC_CHANNELMODEcii+0x458>
    3006:	000292        	l8ui	a9, a2, 0
    3009:	000106        	j	3011 <_Z22CAacDecoder_ParseFrameP20AAC_DECODER_INSTANCEPiciiS1_P21XA_AACDEC_CHANNELMODEcii+0x45d>

0000300c <_Z22CAacDecoder_ParseFrameP20AAC_DECODER_INSTANCEPiciiS1_P21XA_AACDEC_CHANNELMODEcii+0x458>:
    300c:	090c           	movi.n	a9, 0
    300e:	004232        	s8i	a3, a2, 0
    3011:	ae1966        	bnei	a9, 1, 2fc3 <_Z22CAacDecoder_ParseFrameP20AAC_DECODER_INSTANCEPiciiS1_P21XA_AACDEC_CHANNELMODEcii+0x40f>
    3014:	8722a2        	l32i	a10, a2, 0x21c
    3017:	0ad8           	l32i.n	a13, a10, 0
    3019:	9d8c           	beqz.n	a13, 3026 <_Z22CAacDecoder_ParseFrameP20AAC_DECODER_INSTANCEPiciiS1_P21XA_AACDEC_CHANNELMODEcii+0x472>
    301b:	f43f81        	l32r	a8, 118 (57f4 <_Z13AdtsCrcEndRegP12CAdtsCrcInfoP7BIT_BUFi>)
    301e:	1121b2        	l32i	a11, a1, 68
    3021:	b1c8           	l32i.n	a12, a1, 44
    3023:	0008e0        	callx8	a8

00003026 <_Z22CAacDecoder_ParseFrameP20AAC_DECODER_INSTANCEPiciiS1_P21XA_AACDEC_CHANNELMODEcii+0x472>:
    3026:	41a8           	l32i.n	a10, a1, 16
    3028:	0001b2        	l8ui	a11, a1, 0
    302b:	f43e81        	l32r	a8, 124 (5b54 <_Z25CProgramConfig_AddChannelP14CProgramConfigih>)
    302e:	1c0c           	movi.n	a12, 1
    3030:	23bb00        	sext	a11, a11, 7
    3033:	0008e0        	callx8	a8
    3036:	4acc           	bnez.n	a10, 303e <_Z22CAacDecoder_ParseFrameP20AAC_DECODER_INSTANCEPiciiS1_P21XA_AACDEC_CHANNELMODEcii+0x48a>
    3038:	ab22c2        	l32i	a12, a2, 0x2ac
    303b:	f84c16        	beqz	a12, 2fc3 <_Z22CAacDecoder_ParseFrameP20AAC_DECODER_INSTANCEPiciiS1_P21XA_AACDEC_CHANNELMODEcii+0x40f>

0000303e <_Z22CAacDecoder_ParseFrameP20AAC_DECODER_INSTANCEPiciiS1_P21XA_AACDEC_CHANNELMODEcii+0x48a>:
    303e:	0002d2        	l8ui	a13, a2, 0
    3041:	f7ed16        	beqz	a13, 2fc3 <_Z22CAacDecoder_ParseFrameP20AAC_DECODER_INSTANCEPiciiS1_P21XA_AACDEC_CHANNELMODEcii+0x40f>
    3044:	91a8           	l32i.n	a10, a1, 36
    3046:	f43b81        	l32r	a8, 134 (15e4 <_Z25CPns_InitInterChannelDataP22CAacDecoderChannelInfo>)
    3049:	8d22b2        	l32i	a11, a2, 0x234
    304c:	11cae0        	slli	a12, a10, 2
    304f:	31c9           	s32i.n	a12, a1, 12
    3051:	a0aab0        	addx4	a10, a10, a11
    3054:	0aa8           	l32i.n	a10, a10, 0
    3056:	0008e0        	callx8	a8
    3059:	31c8           	l32i.n	a12, a1, 12
    305b:	8e22a2        	l32i	a10, a2, 0x238
    305e:	8d22b2        	l32i	a11, a2, 0x234
    3061:	f43581        	l32r	a8, 138 (40b8 <_Z26CChannelPairElement_DecodePP28CAacDecoderStaticChannelInfoPP22CAacDecoderChannelInfo>)
    3064:	aaca           	add.n	a10, a10, a12
    3066:	bbca           	add.n	a11, a11, a12
    3068:	0008e0        	callx8	a8
    306b:	962b           	addi.n	a9, a6, 2
    306d:	a1b8           	l32i.n	a11, a1, 40
    306f:	2c2c           	movi.n	a12, 34
    3071:	11d6e0        	slli	a13, a6, 2
    3074:	401d00        	ssl	a13
    3077:	a1cc00        	sll	a12, a12
    307a:	20bbc0        	or	a11, a11, a12
    307d:	a1b9           	s32i.n	a11, a1, 40
    307f:	ffaac6        	j	2f2e <_Z22CAacDecoder_ParseFrameP20AAC_DECODER_INSTANCEPiciiS1_P21XA_AACDEC_CHANNELMODEcii+0x37a>

00003082 <_Z22CAacDecoder_ParseFrameP20AAC_DECODER_INSTANCEPiciiS1_P21XA_AACDEC_CHANNELMODEcii+0x4ce>:
    3082:	1221e2        	l32i	a14, a1, 72
    3085:	aee8           	l32i.n	a14, a14, 40
    3087:	1221f2        	l32i	a15, a1, 72
    308a:	0226e7        	blt	a6, a14, 3090 <_Z22CAacDecoder_ParseFrameP20AAC_DECODER_INSTANCEPiciiS1_P21XA_AACDEC_CHANNELMODEcii+0x4dc>
    308d:	ffcb46        	j	2fbe <_Z22CAacDecoder_ParseFrameP20AAC_DECODER_INSTANCEPiciiS1_P21XA_AACDEC_CHANNELMODEcii+0x40a>
    3090:	7ff8           	l32i.n	a15, a15, 28
    3092:	0ff8           	l32i.n	a15, a15, 0
    3094:	af9c           	beqz.n	a15, 30b2 <_Z22CAacDecoder_ParseFrameP20AAC_DECODER_INSTANCEPiciiS1_P21XA_AACDEC_CHANNELMODEcii+0x4fe>
    3096:	8722a2        	l32i	a10, a2, 0x21c
    3099:	f41d81        	l32r	a8, 110 (5810 <_Z15AdtsCrcStartRegP12CAdtsCrcInfoP7BIT_BUFi>)
    309c:	1121b2        	l32i	a11, a1, 68
    309f:	c0a0c2        	movi	a12, 192
    30a2:	0008e0        	callx8	a8
    30a5:	b1a9           	s32i.n	a10, a1, 44
    30a7:	070a66        	bnei	a10, -1, 30b2 <_Z22CAacDecoder_ParseFrameP20AAC_DECODER_INSTANCEPiciiS1_P21XA_AACDEC_CHANNELMODEcii+0x4fe>
    30aa:	090c           	movi.n	a9, 0
    30ac:	004232        	s8i	a3, a2, 0
    30af:	000086        	j	30b5 <_Z22CAacDecoder_ParseFrameP20AAC_DECODER_INSTANCEPiciiS1_P21XA_AACDEC_CHANNELMODEcii+0x501>

000030b2 <_Z22CAacDecoder_ParseFrameP20AAC_DECODER_INSTANCEPiciiS1_P21XA_AACDEC_CHANNELMODEcii+0x4fe>:
    30b2:	000292        	l8ui	a9, a2, 0

000030b5 <_Z22CAacDecoder_ParseFrameP20AAC_DECODER_INSTANCEPiciiS1_P21XA_AACDEC_CHANNELMODEcii+0x501>:
    30b5:	084916        	beqz	a9, 313d <_Z22CAacDecoder_ParseFrameP20AAC_DECODER_INSTANCEPiciiS1_P21XA_AACDEC_CHANNELMODEcii+0x589>
    30b8:	f40981        	l32r	a8, dc (6f60 <initBitParser>)
    30bb:	1121a2        	l32i	a10, a1, 68
    30be:	0008e0        	callx8	a8
    30c1:	f40781        	l32r	a8, e0 (6f38 <TerminateBitParser_new>)
    30c4:	0abd           	mov.n	a11, a10
    30c6:	039f44        	ae_lbi	a9, 4
    30c9:	1121a2        	l32i	a10, a1, 68
    30cc:	004192        	s8i	a9, a1, 0
    30cf:	004bf4        	ae_dbi	a11, 4
    30d2:	0008e0        	callx8	a8
    30d5:	1221a2        	l32i	a10, a1, 72
    30d8:	a40aa2        	l8ui	a10, a10, 164
    30db:	ffa0d2        	movi	a13, 255
    30de:	eacc           	bnez.n	a10, 30f0 <_Z22CAacDecoder_ParseFrameP20AAC_DECODER_INSTANCEPiciiS1_P21XA_AACDEC_CHANNELMODEcii+0x53c>
    30e0:	0001b2        	l8ui	a11, a1, 0
    30e3:	23bb00        	sext	a11, a11, 7
    30e6:	bb2a           	add.n	a11, a11, a2
    30e8:	02dbb2        	addmi	a11, a11, 0x200
    30eb:	bb8b           	addi.n	a11, a11, 8
    30ed:	6c4b62        	s8i	a6, a11, 108

000030f0 <_Z22CAacDecoder_ParseFrameP20AAC_DECODER_INSTANCEPiciiS1_P21XA_AACDEC_CHANNELMODEcii+0x53c>:
    30f0:	0001c2        	l8ui	a12, a1, 0
    30f3:	23cc00        	sext	a12, a12, 7
    30f6:	cc2a           	add.n	a12, a12, a2
    30f8:	02dcc2        	addmi	a12, a12, 0x200
    30fb:	cc8b           	addi.n	a12, a12, 8
    30fd:	6c0cc2        	l8ui	a12, a12, 108
    3100:	91c9           	s32i.n	a12, a1, 36
    3102:	c0ccd0        	sub	a12, a12, a13
    3105:	eb5c16        	beqz	a12, 2fbe <_Z22CAacDecoder_ParseFrameP20AAC_DECODER_INSTANCEPiciiS1_P21XA_AACDEC_CHANNELMODEcii+0x40a>
    3108:	1121a2        	l32i	a10, a1, 68
    310b:	91b8           	l32i.n	a11, a1, 36
    310d:	8c22f2        	l32i	a15, a2, 0x230
    3110:	f40481        	l32r	a8, 120 (4304 <_Z26CSingleChannelElement_ReadP7BIT_BUFP22CAacDecoderChannelInfoP11CStreamInfoc>)
    3113:	1e0c           	movi.n	a14, 1
    3115:	ffba           	add.n	a15, a15, a11
    3117:	004fe2        	s8i	a14, a15, 0
    311a:	0001d2        	l8ui	a13, a1, 0
    311d:	8d22e2        	l32i	a14, a2, 0x234
    3120:	8822c2        	l32i	a12, a2, 0x220
    3123:	23dd00        	sext	a13, a13, 7
    3126:	a0bbe0        	addx4	a11, a11, a14
    3129:	0bb8           	l32i.n	a11, a11, 0
    312b:	0008e0        	callx8	a8
    312e:	0a7d           	mov.n	a7, a10
    3130:	4acc           	bnez.n	a10, 3138 <_Z22CAacDecoder_ParseFrameP20AAC_DECODER_INSTANCEPiciiS1_P21XA_AACDEC_CHANNELMODEcii+0x584>
    3132:	000292        	l8ui	a9, a2, 0
    3135:	000106        	j	313d <_Z22CAacDecoder_ParseFrameP20AAC_DECODER_INSTANCEPiciiS1_P21XA_AACDEC_CHANNELMODEcii+0x589>

00003138 <_Z22CAacDecoder_ParseFrameP20AAC_DECODER_INSTANCEPiciiS1_P21XA_AACDEC_CHANNELMODEcii+0x584>:
    3138:	090c           	movi.n	a9, 0
    313a:	004232        	s8i	a3, a2, 0
    313d:	890b           	addi.n	a8, a9, -1
    313f:	e80856        	bnez	a8, 2fc3 <_Z22CAacDecoder_ParseFrameP20AAC_DECODER_INSTANCEPiciiS1_P21XA_AACDEC_CHANNELMODEcii+0x40f>
    3142:	8722a2        	l32i	a10, a2, 0x21c
    3145:	0a98           	l32i.n	a9, a10, 0
    3147:	998c           	beqz.n	a9, 3154 <_Z22CAacDecoder_ParseFrameP20AAC_DECODER_INSTANCEPiciiS1_P21XA_AACDEC_CHANNELMODEcii+0x5a0>
    3149:	f3f381        	l32r	a8, 118 (57f4 <_Z13AdtsCrcEndRegP12CAdtsCrcInfoP7BIT_BUFi>)
    314c:	1121b2        	l32i	a11, a1, 68
    314f:	b1c8           	l32i.n	a12, a1, 44
    3151:	0008e0        	callx8	a8

00003154 <_Z22CAacDecoder_ParseFrameP20AAC_DECODER_INSTANCEPiciiS1_P21XA_AACDEC_CHANNELMODEcii+0x5a0>:
    3154:	41a8           	l32i.n	a10, a1, 16
    3156:	0001b2        	l8ui	a11, a1, 0
    3159:	f3f281        	l32r	a8, 124 (5b54 <_Z25CProgramConfig_AddChannelP14CProgramConfigih>)
    315c:	0c0c           	movi.n	a12, 0
    315e:	23bb00        	sext	a11, a11, 7
    3161:	0008e0        	callx8	a8
    3164:	4acc           	bnez.n	a10, 316c <_Z22CAacDecoder_ParseFrameP20AAC_DECODER_INSTANCEPiciiS1_P21XA_AACDEC_CHANNELMODEcii+0x5b8>
    3166:	ab22c2        	l32i	a12, a2, 0x2ac
    3169:	e56c16        	beqz	a12, 2fc3 <_Z22CAacDecoder_ParseFrameP20AAC_DECODER_INSTANCEPiciiS1_P21XA_AACDEC_CHANNELMODEcii+0x40f>

0000316c <_Z22CAacDecoder_ParseFrameP20AAC_DECODER_INSTANCEPiciiS1_P21XA_AACDEC_CHANNELMODEcii+0x5b8>:
    316c:	0002d2        	l8ui	a13, a2, 0
    316f:	e50d16        	beqz	a13, 2fc3 <_Z22CAacDecoder_ParseFrameP20AAC_DECODER_INSTANCEPiciiS1_P21XA_AACDEC_CHANNELMODEcii+0x40f>
    3172:	8e22a2        	l32i	a10, a2, 0x238
    3175:	91b8           	l32i.n	a11, a1, 36
    3177:	8d22c2        	l32i	a12, a2, 0x234
    317a:	f3eb81        	l32r	a8, 128 (4184 <_Z28CSingleChannelElement_DecodePP28CAacDecoderStaticChannelInfoPP22CAacDecoderChannelInfo>)
    317d:	a0aba0        	addx4	a10, a11, a10
    3180:	a0bbc0        	addx4	a11, a11, a12
    3183:	0008e0        	callx8	a8
    3186:	961b           	addi.n	a9, a6, 1
    3188:	a1b8           	l32i.n	a11, a1, 40
    318a:	1c0c           	movi.n	a12, 1
    318c:	11d6e0        	slli	a13, a6, 2
    318f:	401d00        	ssl	a13
    3192:	a1cc00        	sll	a12, a12
    3195:	20bbc0        	or	a11, a11, a12
    3198:	a1b9           	s32i.n	a11, a1, 40
    319a:	ff6406        	j	2f2e <_Z22CAacDecoder_ParseFrameP20AAC_DECODER_INSTANCEPiciiS1_P21XA_AACDEC_CHANNELMODEcii+0x37a>

0000319d <_Z22CAacDecoder_ParseFrameP20AAC_DECODER_INSTANCEPiciiS1_P21XA_AACDEC_CHANNELMODEcii+0x5e9>:
    319d:	1221e2        	l32i	a14, a1, 72
    31a0:	7ee8           	l32i.n	a14, a14, 28
    31a2:	0ee8           	l32i.n	a14, a14, 0
    31a4:	ae8c           	beqz.n	a14, 31b2 <_Z22CAacDecoder_ParseFrameP20AAC_DECODER_INSTANCEPiciiS1_P21XA_AACDEC_CHANNELMODEcii+0x5fe>
    31a6:	6188           	l32i.n	a8, a1, 24
    31a8:	71f8           	l32i.n	a15, a1, 28
    31aa:	041f87        	beq	a15, a8, 31b2 <_Z22CAacDecoder_ParseFrameP20AAC_DECODER_INSTANCEPiciiS1_P21XA_AACDEC_CHANNELMODEcii+0x5fe>
    31ad:	004232        	s8i	a3, a2, 0
    31b0:	370c           	movi.n	a7, 3
    31b2:	106142        	s32i	a4, a1, 64
    31b5:	66cc           	bnez.n	a6, 31bf <_Z22CAacDecoder_ParseFrameP20AAC_DECODER_INSTANCEPiciiS1_P21XA_AACDEC_CHANNELMODEcii+0x60b>
    31b7:	004232        	s8i	a3, a2, 0
    31ba:	106142        	s32i	a4, a1, 64
    31bd:	f69c           	beqz.n	a6, 31e0 <_Z22CAacDecoder_ParseFrameP20AAC_DECODER_INSTANCEPiciiS1_P21XA_AACDEC_CHANNELMODEcii+0x62c>

000031bf <_Z22CAacDecoder_ParseFrameP20AAC_DECODER_INSTANCEPiciiS1_P21XA_AACDEC_CHANNELMODEcii+0x60b>:
    31bf:	8c22c2        	l32i	a12, a2, 0x230
    31c2:	040c           	movi.n	a4, 0

000031c4 <_Z22CAacDecoder_ParseFrameP20AAC_DECODER_INSTANCEPiciiS1_P21XA_AACDEC_CHANNELMODEcii+0x610>:
    31c4:	dc4a           	add.n	a13, a12, a4
    31c6:	000dd2        	l8ui	a13, a13, 0
    31c9:	23dd00        	sext	a13, a13, 7
    31cc:	021de6        	bgei	a13, 1, 31d2 <_Z22CAacDecoder_ParseFrameP20AAC_DECODER_INSTANCEPiciiS1_P21XA_AACDEC_CHANNELMODEcii+0x61e>
    31cf:	005846        	j	3334 <_Z22CAacDecoder_ParseFrameP20AAC_DECODER_INSTANCEPiciiS1_P21XA_AACDEC_CHANNELMODEcii+0x780>
    31d2:	023da6        	blti	a13, 3, 31d8 <_Z22CAacDecoder_ParseFrameP20AAC_DECODER_INSTANCEPiciiS1_P21XA_AACDEC_CHANNELMODEcii+0x624>
    31d5:	0056c6        	j	3334 <_Z22CAacDecoder_ParseFrameP20AAC_DECODER_INSTANCEPiciiS1_P21XA_AACDEC_CHANNELMODEcii+0x780>
    31d8:	4d4a           	add.n	a4, a13, a4
    31da:	744040        	extui	a4, a4, 0, 8
    31dd:	e33467        	bltu	a4, a6, 31c4 <_Z22CAacDecoder_ParseFrameP20AAC_DECODER_INSTANCEPiciiS1_P21XA_AACDEC_CHANNELMODEcii+0x610>

000031e0 <_Z22CAacDecoder_ParseFrameP20AAC_DECODER_INSTANCEPiciiS1_P21XA_AACDEC_CHANNELMODEcii+0x62c>:
    31e0:	000292        	l8ui	a9, a2, 0

000031e3 <_Z22CAacDecoder_ParseFrameP20AAC_DECODER_INSTANCEPiciiS1_P21XA_AACDEC_CHANNELMODEcii+0x62f>:
    31e3:	8822c2        	l32i	a12, a2, 0x220
    31e6:	89bc           	beqz.n	a9, 3222 <_Z22CAacDecoder_ParseFrameP20AAC_DECODER_INSTANCEPiciiS1_P21XA_AACDEC_CHANNELMODEcii+0x66e>
    31e8:	4c69           	s32i.n	a6, a12, 16
    31ea:	04a616        	beqz	a6, 3238 <_Z22CAacDecoder_ParseFrameP20AAC_DECODER_INSTANCEPiciiS1_P21XA_AACDEC_CHANNELMODEcii+0x684>
    31ed:	8c22c2        	l32i	a12, a2, 0x230
    31f0:	040c           	movi.n	a4, 0

000031f2 <_Z22CAacDecoder_ParseFrameP20AAC_DECODER_INSTANCEPiciiS1_P21XA_AACDEC_CHANNELMODEcii+0x63e>:
    31f2:	05bd           	mov.n	a11, a5
    31f4:	f3bd81        	l32r	a8, e8 (418 <memcpy>)
    31f7:	8b22a2        	l32i	a10, a2, 0x22c
    31fa:	9c4a           	add.n	a9, a12, a4
    31fc:	0c3c           	movi.n	a12, 48
    31fe:	000992        	l8ui	a9, a9, 0
    3201:	aa4a           	add.n	a10, a10, a4
    3203:	004a92        	s8i	a9, a10, 0
    3206:	1021a2        	l32i	a10, a1, 64
    3209:	0008e0        	callx8	a8
    320c:	8c22c2        	l32i	a12, a2, 0x230
    320f:	8c4a           	add.n	a8, a12, a4
    3211:	000882        	l8ui	a8, a8, 0
    3214:	238800        	sext	a8, a8, 7
    3217:	484a           	add.n	a4, a8, a4
    3219:	744040        	extui	a4, a4, 0, 8
    321c:	d23467        	bltu	a4, a6, 31f2 <_Z22CAacDecoder_ParseFrameP20AAC_DECODER_INSTANCEPiciiS1_P21XA_AACDEC_CHANNELMODEcii+0x63e>
    321f:	000546        	j	3238 <_Z22CAacDecoder_ParseFrameP20AAC_DECODER_INSTANCEPiciiS1_P21XA_AACDEC_CHANNELMODEcii+0x684>

00003222 <_Z22CAacDecoder_ParseFrameP20AAC_DECODER_INSTANCEPiciiS1_P21XA_AACDEC_CHANNELMODEcii+0x66e>:
    3222:	4c98           	l32i.n	a9, a12, 16
    3224:	39cc           	bnez.n	a9, 322b <_Z22CAacDecoder_ParseFrameP20AAC_DECODER_INSTANCEPiciiS1_P21XA_AACDEC_CHANNELMODEcii+0x677>
    3226:	8a22a2        	l32i	a10, a2, 0x228
    3229:	4ca9           	s32i.n	a10, a12, 16

0000322b <_Z22CAacDecoder_ParseFrameP20AAC_DECODER_INSTANCEPiciiS1_P21XA_AACDEC_CHANNELMODEcii+0x677>:
    322b:	05ad           	mov.n	a10, a5
    322d:	f3ae81        	l32r	a8, e8 (418 <memcpy>)
    3230:	1021b2        	l32i	a11, a1, 64
    3233:	0c3c           	movi.n	a12, 48
    3235:	0008e0        	callx8	a8

00003238 <_Z22CAacDecoder_ParseFrameP20AAC_DECODER_INSTANCEPiciiS1_P21XA_AACDEC_CHANNELMODEcii+0x684>:
    3238:	1221c2        	l32i	a12, a1, 72
    323b:	8cc8           	l32i.n	a12, a12, 32
    323d:	4cc8           	l32i.n	a12, a12, 16
    323f:	166162        	s32i	a6, a1, 88
    3242:	0a3c16        	beqz	a12, 32e9 <_Z22CAacDecoder_ParseFrameP20AAC_DECODER_INSTANCEPiciiS1_P21XA_AACDEC_CHANNELMODEcii+0x735>
    3245:	0f0c           	movi.n	a15, 0
    3247:	040c           	movi.n	a4, 0
    3249:	0e0c           	movi.n	a14, 0
    324b:	080c           	movi.n	a8, 0
    324d:	f38e61        	l32r	a6, 88 (7fffff <_end+0x7ef447>)
    3250:	0b0c           	movi.n	a11, 0
    3252:	f38fd1        	l32r	a13, 90 (ff800000 <_end+0xff7ef448>)
    3255:	0bad           	mov.n	a10, a11
    3257:	065d           	mov.n	a5, a6
    3259:	93ad80        	movnez	a10, a13, a8

0000325c <_Z22CAacDecoder_ParseFrameP20AAC_DECODER_INSTANCEPiciiS1_P21XA_AACDEC_CHANNELMODEcii+0x6a8>:
    325c:	0002d2        	l8ui	a13, a2, 0
    325f:	00a482        	movi	a8, 0x400
    3262:	078d56        	bnez	a13, 32de <_Z22CAacDecoder_ParseFrameP20AAC_DECODER_INSTANCEPiciiS1_P21XA_AACDEC_CHANNELMODEcii+0x72a>
    3265:	8d22c2        	l32i	a12, a2, 0x234
    3268:	11d4e0        	slli	a13, a4, 2
    326b:	1361d2        	s32i	a13, a1, 76
    326e:	a0c4c0        	addx4	a12, a4, a12
    3271:	0cc8           	l32i.n	a12, a12, 0
    3273:	1461c2        	s32i	a12, a1, 80
    3276:	142192        	l32i	a9, a1, 80
    3279:	7cc8           	l32i.n	a12, a12, 28
    327b:	17a876        	loopgtz	a8, 3296 <_Z22CAacDecoder_ParseFrameP20AAC_DECODER_INSTANCEPiciiS1_P21XA_AACDEC_CHANNELMODEcii+0x6e2>
    327e:	0d0c           	movi.n	a13, 0
    3280:	072fe7        	blt	a15, a14, 328b <_Z22CAacDecoder_ParseFrameP20AAC_DECODER_INSTANCEPiciiS1_P21XA_AACDEC_CHANNELMODEcii+0x6d7>
    3283:	029fe7        	bne	a15, a14, 3289 <_Z22CAacDecoder_ParseFrameP20AAC_DECODER_INSTANCEPiciiS1_P21XA_AACDEC_CHANNELMODEcii+0x6d5>
    3286:	01b6b7        	bgeu	a6, a11, 328b <_Z22CAacDecoder_ParseFrameP20AAC_DECODER_INSTANCEPiciiS1_P21XA_AACDEC_CHANNELMODEcii+0x6d7>

00003289 <_Z22CAacDecoder_ParseFrameP20AAC_DECODER_INSTANCEPiciiS1_P21XA_AACDEC_CHANNELMODEcii+0x6d5>:
    3289:	1d0c           	movi.n	a13, 1

0000328b <_Z22CAacDecoder_ParseFrameP20AAC_DECODER_INSTANCEPiciiS1_P21XA_AACDEC_CHANNELMODEcii+0x6d7>:
    328b:	3dcc           	bnez.n	a13, 3292 <_Z22CAacDecoder_ParseFrameP20AAC_DECODER_INSTANCEPiciiS1_P21XA_AACDEC_CHANNELMODEcii+0x6de>
    328d:	0ca9           	s32i.n	a10, a12, 0
    328f:	000046        	j	3294 <_Z22CAacDecoder_ParseFrameP20AAC_DECODER_INSTANCEPiciiS1_P21XA_AACDEC_CHANNELMODEcii+0x6e0>

00003292 <_Z22CAacDecoder_ParseFrameP20AAC_DECODER_INSTANCEPiciiS1_P21XA_AACDEC_CHANNELMODEcii+0x6de>:
    3292:	0c59           	s32i.n	a5, a12, 0

00003294 <_Z22CAacDecoder_ParseFrameP20AAC_DECODER_INSTANCEPiciiS1_P21XA_AACDEC_CHANNELMODEcii+0x6e0>:
    3294:	cc4b           	addi.n	a12, a12, 4

00003296 <_Z22CAacDecoder_ParseFrameP20AAC_DECODER_INSTANCEPiciiS1_P21XA_AACDEC_CHANNELMODEcii+0x6e2>:
    3296:	132182        	l32i	a8, a1, 76
    3299:	0998           	l32i.n	a9, a9, 0
    329b:	8d22d2        	l32i	a13, a2, 0x234
    329e:	024932        	s8i	a3, a9, 2
    32a1:	dd8a           	add.n	a13, a13, a8
    32a3:	0dd8           	l32i.n	a13, a13, 0
    32a5:	090c           	movi.n	a9, 0
    32a7:	880c           	movi.n	a8, 8
    32a9:	8dc8           	l32i.n	a12, a13, 32
    32ab:	05a876        	loopgtz	a8, 32b4 <_Z22CAacDecoder_ParseFrameP20AAC_DECODER_INSTANCEPiciiS1_P21XA_AACDEC_CHANNELMODEcii+0x700>
    32ae:	8c9a           	add.n	a8, a12, a9
    32b0:	683d           	ae_s16i.n	a3, a8, 0
    32b2:	992b           	addi.n	a9, a9, 2
    32b4:	0d98           	l32i.n	a9, a13, 0
    32b6:	034932        	s8i	a3, a9, 3
    32b9:	1a1726        	beqi	a7, 1, 32d7 <_Z22CAacDecoder_ParseFrameP20AAC_DECODER_INSTANCEPiciiS1_P21XA_AACDEC_CHANNELMODEcii+0x723>
    32bc:	175726        	beqi	a7, 5, 32d7 <_Z22CAacDecoder_ParseFrameP20AAC_DECODER_INSTANCEPiciiS1_P21XA_AACDEC_CHANNELMODEcii+0x723>
    32bf:	146726        	beqi	a7, 6, 32d7 <_Z22CAacDecoder_ParseFrameP20AAC_DECODER_INSTANCEPiciiS1_P21XA_AACDEC_CHANNELMODEcii+0x723>
    32c2:	117726        	beqi	a7, 7, 32d7 <_Z22CAacDecoder_ParseFrameP20AAC_DECODER_INSTANCEPiciiS1_P21XA_AACDEC_CHANNELMODEcii+0x723>
    32c5:	0e8726        	beqi	a7, 8, 32d7 <_Z22CAacDecoder_ParseFrameP20AAC_DECODER_INSTANCEPiciiS1_P21XA_AACDEC_CHANNELMODEcii+0x723>
    32c8:	9c0c           	movi.n	a12, 9
    32ca:	0917c7        	beq	a7, a12, 32d7 <_Z22CAacDecoder_ParseFrameP20AAC_DECODER_INSTANCEPiciiS1_P21XA_AACDEC_CHANNELMODEcii+0x723>
    32cd:	069726        	beqi	a7, 10, 32d7 <_Z22CAacDecoder_ParseFrameP20AAC_DECODER_INSTANCEPiciiS1_P21XA_AACDEC_CHANNELMODEcii+0x723>
    32d0:	bd0c           	movi.n	a13, 11
    32d2:	0117d7        	beq	a7, a13, 32d7 <_Z22CAacDecoder_ParseFrameP20AAC_DECODER_INSTANCEPiciiS1_P21XA_AACDEC_CHANNELMODEcii+0x723>
    32d5:	171c           	movi.n	a7, 17
    32d7:	1221c2        	l32i	a12, a1, 72
    32da:	8cc8           	l32i.n	a12, a12, 32
    32dc:	4cc8           	l32i.n	a12, a12, 16

000032de <_Z22CAacDecoder_ParseFrameP20AAC_DECODER_INSTANCEPiciiS1_P21XA_AACDEC_CHANNELMODEcii+0x72a>:
    32de:	441b           	addi.n	a4, a4, 1
    32e0:	744040        	extui	a4, a4, 0, 8
    32e3:	02b4c7        	bgeu	a4, a12, 32e9 <_Z22CAacDecoder_ParseFrameP20AAC_DECODER_INSTANCEPiciiS1_P21XA_AACDEC_CHANNELMODEcii+0x735>
    32e6:	ffdc86        	j	325c <_Z22CAacDecoder_ParseFrameP20AAC_DECODER_INSTANCEPiciiS1_P21XA_AACDEC_CHANNELMODEcii+0x6a8>

000032e9 <_Z22CAacDecoder_ParseFrameP20AAC_DECODER_INSTANCEPiciiS1_P21XA_AACDEC_CHANNELMODEcii+0x735>:
    32e9:	162162        	l32i	a6, a1, 88
    32ec:	2148           	l32i.n	a4, a1, 8
    32ee:	150c           	movi.n	a5, 1
    32f0:	f39381        	l32r	a8, 13c (6fb8 <ByteAlign>)
    32f3:	1121a2        	l32i	a10, a1, 68
    32f6:	b14b           	addi.n	a11, a1, 4
    32f8:	0008e0        	callx8	a8
    32fb:	000292        	l8ui	a9, a2, 0
    32fe:	1fb916        	beqz	a9, 34fd <_Z22CAacDecoder_ParseFrameP20AAC_DECODER_INSTANCEPiciiS1_P21XA_AACDEC_CHANNELMODEcii+0x949>
    3301:	8469           	s32i.n	a6, a4, 32
    3303:	131666        	bnei	a6, 1, 331a <_Z22CAacDecoder_ParseFrameP20AAC_DECODER_INSTANCEPiciiS1_P21XA_AACDEC_CHANNELMODEcii+0x766>
    3306:	a1a8           	l32i.n	a10, a1, 40
    3308:	031a66        	bnei	a10, 1, 330f <_Z22CAacDecoder_ParseFrameP20AAC_DECODER_INSTANCEPiciiS1_P21XA_AACDEC_CHANNELMODEcii+0x75b>
    330b:	0b7c           	movi.n	a11, -16
    330d:	94b9           	s32i.n	a11, a4, 36

0000330f <_Z22CAacDecoder_ParseFrameP20AAC_DECODER_INSTANCEPiciiS1_P21XA_AACDEC_CHANNELMODEcii+0x75b>:
    330f:	0f0c           	movi.n	a15, 0
    3311:	0c0c           	movi.n	a12, 0
    3313:	51c9           	s32i.n	a12, a1, 20

00003315 <_Z22CAacDecoder_ParseFrameP20AAC_DECODER_INSTANCEPiciiS1_P21XA_AACDEC_CHANNELMODEcii+0x761>:
    3315:	0c0c           	movi.n	a12, 0
    3317:	006106        	j	349f <_Z22CAacDecoder_ParseFrameP20AAC_DECODER_INSTANCEPiciiS1_P21XA_AACDEC_CHANNELMODEcii+0x8eb>

0000331a <_Z22CAacDecoder_ParseFrameP20AAC_DECODER_INSTANCEPiciiS1_P21XA_AACDEC_CHANNELMODEcii+0x766>:
    331a:	1e2666        	bnei	a6, 2, 333c <_Z22CAacDecoder_ParseFrameP20AAC_DECODER_INSTANCEPiciiS1_P21XA_AACDEC_CHANNELMODEcii+0x788>
    331d:	a1d8           	l32i.n	a13, a1, 40
    331f:	1a1c           	movi.n	a10, 17
    3321:	efcdd2        	addi	a13, a13, -17
    3324:	230d16        	beqz	a13, 3558 <_Z22CAacDecoder_ParseFrameP20AAC_DECODER_INSTANCEPiciiS1_P21XA_AACDEC_CHANNELMODEcii+0x9a4>
    3327:	a1e8           	l32i.n	a14, a1, 40
    3329:	decee2        	addi	a14, a14, -34
    332c:	228e16        	beqz	a14, 3558 <_Z22CAacDecoder_ParseFrameP20AAC_DECODER_INSTANCEPiciiS1_P21XA_AACDEC_CHANNELMODEcii+0x9a4>
    332f:	0f0c           	movi.n	a15, 0
    3331:	007646        	j	350e <_Z22CAacDecoder_ParseFrameP20AAC_DECODER_INSTANCEPiciiS1_P21XA_AACDEC_CHANNELMODEcii+0x95a>

00003334 <_Z22CAacDecoder_ParseFrameP20AAC_DECODER_INSTANCEPiciiS1_P21XA_AACDEC_CHANNELMODEcii+0x780>:
    3334:	004232        	s8i	a3, a2, 0
    3337:	090c           	movi.n	a9, 0
    3339:	ffa986        	j	31e3 <_Z22CAacDecoder_ParseFrameP20AAC_DECODER_INSTANCEPiciiS1_P21XA_AACDEC_CHANNELMODEcii+0x62f>

0000333c <_Z22CAacDecoder_ParseFrameP20AAC_DECODER_INSTANCEPiciiS1_P21XA_AACDEC_CHANNELMODEcii+0x788>:
    333c:	a1b8           	l32i.n	a11, a1, 40
    333e:	fd7c           	movi.n	a13, -1
    3340:	11e6e0        	slli	a14, a6, 2
    3343:	401e00        	ssl	a14
    3346:	a1dd00        	sll	a13, a13
    3349:	94d9           	s32i.n	a13, a4, 36
    334b:	038666        	bnei	a6, 8, 3352 <_Z22CAacDecoder_ParseFrameP20AAC_DECODER_INSTANCEPiciiS1_P21XA_AACDEC_CHANNELMODEcii+0x79e>
    334e:	9439           	s32i.n	a3, a4, 36
    3350:	0d0c           	movi.n	a13, 0

00003352 <_Z22CAacDecoder_ParseFrameP20AAC_DECODER_INSTANCEPiciiS1_P21XA_AACDEC_CHANNELMODEcii+0x79e>:
    3352:	021ee6        	bgei	a14, 1, 3358 <_Z22CAacDecoder_ParseFrameP20AAC_DECODER_INSTANCEPiciiS1_P21XA_AACDEC_CHANNELMODEcii+0x7a4>
    3355:	007a06        	j	3541 <_Z22CAacDecoder_ParseFrameP20AAC_DECODER_INSTANCEPiciiS1_P21XA_AACDEC_CHANNELMODEcii+0x98d>
    3358:	0a0c           	movi.n	a10, 0
    335a:	0f0c           	movi.n	a15, 0
    335c:	232192        	l32i	a9, a1, 140
    335f:	0c0c           	movi.n	a12, 0
    3361:	222182        	l32i	a8, a1, 136
    3364:	c189           	s32i.n	a8, a1, 48
    3366:	51c9           	s32i.n	a12, a1, 20
    3368:	e199           	s32i.n	a9, a1, 56
    336a:	0c0c           	movi.n	a12, 0
    336c:	3490b0        	extui	a9, a11, 0, 4

0000336f <_Z22CAacDecoder_ParseFrameP20AAC_DECODER_INSTANCEPiciiS1_P21XA_AACDEC_CHANNELMODEcii+0x7bb>:
    336f:	2e1966        	bnei	a9, 1, 33a1 <_Z22CAacDecoder_ParseFrameP20AAC_DECODER_INSTANCEPiciiS1_P21XA_AACDEC_CHANNELMODEcii+0x7ed>
    3372:	5198           	l32i.n	a9, a1, 20
    3374:	401a00        	ssl	a10
    3377:	208f90        	or	a8, a15, a9
    337a:	48dc           	bnez.n	a8, 3392 <_Z22CAacDecoder_ParseFrameP20AAC_DECODER_INSTANCEPiciiS1_P21XA_AACDEC_CHANNELMODEcii+0x7de>
    337c:	401a00        	ssl	a10
    337f:	a18500        	sll	a8, a5
    3382:	f189           	s32i.n	a8, a1, 60

00003384 <_Z22CAacDecoder_ParseFrameP20AAC_DECODER_INSTANCEPiciiS1_P21XA_AACDEC_CHANNELMODEcii+0x7d0>:
    3384:	f188           	l32i.n	a8, a1, 60
    3386:	991b           	addi.n	a9, a9, 1
    3388:	5199           	s32i.n	a9, a1, 20
    338a:	20dd80        	or	a13, a13, a8
    338d:	94d9           	s32i.n	a13, a4, 36
    338f:	003f86        	j	3491 <_Z22CAacDecoder_ParseFrameP20AAC_DECODER_INSTANCEPiciiS1_P21XA_AACDEC_CHANNELMODEcii+0x8dd>

00003392 <_Z22CAacDecoder_ParseFrameP20AAC_DECODER_INSTANCEPiciiS1_P21XA_AACDEC_CHANNELMODEcii+0x7de>:
    3392:	280c           	movi.n	a8, 2
    3394:	20cc80        	or	a12, a12, a8
    3397:	580c           	movi.n	a8, 5
    3399:	a18800        	sll	a8, a8
    339c:	f189           	s32i.n	a8, a1, 60
    339e:	fff886        	j	3384 <_Z22CAacDecoder_ParseFrameP20AAC_DECODER_INSTANCEPiciiS1_P21XA_AACDEC_CHANNELMODEcii+0x7d0>

000033a1 <_Z22CAacDecoder_ParseFrameP20AAC_DECODER_INSTANCEPiciiS1_P21XA_AACDEC_CHANNELMODEcii+0x7ed>:
    33a1:	fec982        	addi	a8, a9, -2
    33a4:	0d9856        	bnez	a8, 3481 <_Z22CAacDecoder_ParseFrameP20AAC_DECODER_INSTANCEPiciiS1_P21XA_AACDEC_CHANNELMODEcii+0x8cd>
    33a7:	c198           	l32i.n	a9, a1, 48
    33a9:	21b4b0        	srai	a11, a11, 4
    33ac:	e188           	l32i.n	a8, a1, 56
    33ae:	79fc           	bnez.n	a9, 33e9 <_Z22CAacDecoder_ParseFrameP20AAC_DECODER_INSTANCEPiciiS1_P21XA_AACDEC_CHANNELMODEcii+0x835>
    33b0:	2fdc           	bnez.n	a15, 33c6 <_Z22CAacDecoder_ParseFrameP20AAC_DECODER_INSTANCEPiciiS1_P21XA_AACDEC_CHANNELMODEcii+0x812>
    33b2:	401a00        	ssl	a10
    33b5:	092c           	movi.n	a9, 32
    33b7:	a19900        	sll	a9, a9

000033ba <_Z22CAacDecoder_ParseFrameP20AAC_DECODER_INSTANCEPiciiS1_P21XA_AACDEC_CHANNELMODEcii+0x806>:
    33ba:	ff1b           	addi.n	a15, a15, 1
    33bc:	aa4b           	addi.n	a10, a10, 4
    33be:	20dd90        	or	a13, a13, a9
    33c1:	94d9           	s32i.n	a13, a4, 36
    33c3:	003286        	j	3491 <_Z22CAacDecoder_ParseFrameP20AAC_DECODER_INSTANCEPiciiS1_P21XA_AACDEC_CHANNELMODEcii+0x8dd>

000033c6 <_Z22CAacDecoder_ParseFrameP20AAC_DECODER_INSTANCEPiciiS1_P21XA_AACDEC_CHANNELMODEcii+0x812>:
    33c6:	290c           	movi.n	a9, 2
    33c8:	209c90        	or	a9, a12, a9
    33cb:	0c1f66        	bnei	a15, 1, 33db <_Z22CAacDecoder_ParseFrameP20AAC_DECODER_INSTANCEPiciiS1_P21XA_AACDEC_CHANNELMODEcii+0x827>
    33ce:	09cd           	mov.n	a12, a9
    33d0:	401a00        	ssl	a10
    33d3:	394c           	movi.n	a9, 67
    33d5:	a19900        	sll	a9, a9
    33d8:	fff786        	j	33ba <_Z22CAacDecoder_ParseFrameP20AAC_DECODER_INSTANCEPiciiS1_P21XA_AACDEC_CHANNELMODEcii+0x806>

000033db <_Z22CAacDecoder_ParseFrameP20AAC_DECODER_INSTANCEPiciiS1_P21XA_AACDEC_CHANNELMODEcii+0x827>:
    33db:	09cd           	mov.n	a12, a9
    33dd:	401a00        	ssl	a10
    33e0:	65a092        	movi	a9, 101
    33e3:	a19900        	sll	a9, a9
    33e6:	fff406        	j	33ba <_Z22CAacDecoder_ParseFrameP20AAC_DECODER_INSTANCEPiciiS1_P21XA_AACDEC_CHANNELMODEcii+0x806>

000033e9 <_Z22CAacDecoder_ParseFrameP20AAC_DECODER_INSTANCEPiciiS1_P21XA_AACDEC_CHANNELMODEcii+0x835>:
    33e9:	2f7866        	bnei	a8, 7, 341c <_Z22CAacDecoder_ParseFrameP20AAC_DECODER_INSTANCEPiciiS1_P21XA_AACDEC_CHANNELMODEcii+0x868>
    33ec:	afcc           	bnez.n	a15, 33fa <_Z22CAacDecoder_ParseFrameP20AAC_DECODER_INSTANCEPiciiS1_P21XA_AACDEC_CHANNELMODEcii+0x846>
    33ee:	401a00        	ssl	a10
    33f1:	65a092        	movi	a9, 101
    33f4:	a19900        	sll	a9, a9
    33f7:	ffefc6        	j	33ba <_Z22CAacDecoder_ParseFrameP20AAC_DECODER_INSTANCEPiciiS1_P21XA_AACDEC_CHANNELMODEcii+0x806>

000033fa <_Z22CAacDecoder_ParseFrameP20AAC_DECODER_INSTANCEPiciiS1_P21XA_AACDEC_CHANNELMODEcii+0x846>:
    33fa:	290c           	movi.n	a9, 2
    33fc:	209c90        	or	a9, a12, a9
    33ff:	0c1f66        	bnei	a15, 1, 340f <_Z22CAacDecoder_ParseFrameP20AAC_DECODER_INSTANCEPiciiS1_P21XA_AACDEC_CHANNELMODEcii+0x85b>
    3402:	09cd           	mov.n	a12, a9
    3404:	401a00        	ssl	a10
    3407:	092c           	movi.n	a9, 32
    3409:	a19900        	sll	a9, a9
    340c:	ffea86        	j	33ba <_Z22CAacDecoder_ParseFrameP20AAC_DECODER_INSTANCEPiciiS1_P21XA_AACDEC_CHANNELMODEcii+0x806>

0000340f <_Z22CAacDecoder_ParseFrameP20AAC_DECODER_INSTANCEPiciiS1_P21XA_AACDEC_CHANNELMODEcii+0x85b>:
    340f:	09cd           	mov.n	a12, a9
    3411:	401a00        	ssl	a10
    3414:	394c           	movi.n	a9, 67
    3416:	a19900        	sll	a9, a9
    3419:	ffe746        	j	33ba <_Z22CAacDecoder_ParseFrameP20AAC_DECODER_INSTANCEPiciiS1_P21XA_AACDEC_CHANNELMODEcii+0x806>

0000341c <_Z22CAacDecoder_ParseFrameP20AAC_DECODER_INSTANCEPiciiS1_P21XA_AACDEC_CHANNELMODEcii+0x868>:
    341c:	e90c           	movi.n	a9, 14
    341e:	2f9897        	bne	a8, a9, 3451 <_Z22CAacDecoder_ParseFrameP20AAC_DECODER_INSTANCEPiciiS1_P21XA_AACDEC_CHANNELMODEcii+0x89d>
    3421:	9fcc           	bnez.n	a15, 342e <_Z22CAacDecoder_ParseFrameP20AAC_DECODER_INSTANCEPiciiS1_P21XA_AACDEC_CHANNELMODEcii+0x87a>
    3423:	401a00        	ssl	a10
    3426:	092c           	movi.n	a9, 32
    3428:	a19900        	sll	a9, a9
    342b:	ffe2c6        	j	33ba <_Z22CAacDecoder_ParseFrameP20AAC_DECODER_INSTANCEPiciiS1_P21XA_AACDEC_CHANNELMODEcii+0x806>

0000342e <_Z22CAacDecoder_ParseFrameP20AAC_DECODER_INSTANCEPiciiS1_P21XA_AACDEC_CHANNELMODEcii+0x87a>:
    342e:	290c           	movi.n	a9, 2
    3430:	209c90        	or	a9, a12, a9
    3433:	0c1f66        	bnei	a15, 1, 3443 <_Z22CAacDecoder_ParseFrameP20AAC_DECODER_INSTANCEPiciiS1_P21XA_AACDEC_CHANNELMODEcii+0x88f>
    3436:	09cd           	mov.n	a12, a9
    3438:	401a00        	ssl	a10
    343b:	394c           	movi.n	a9, 67
    343d:	a19900        	sll	a9, a9
    3440:	ffdd86        	j	33ba <_Z22CAacDecoder_ParseFrameP20AAC_DECODER_INSTANCEPiciiS1_P21XA_AACDEC_CHANNELMODEcii+0x806>

00003443 <_Z22CAacDecoder_ParseFrameP20AAC_DECODER_INSTANCEPiciiS1_P21XA_AACDEC_CHANNELMODEcii+0x88f>:
    3443:	09cd           	mov.n	a12, a9
    3445:	401a00        	ssl	a10
    3448:	65a092        	movi	a9, 101
    344b:	a19900        	sll	a9, a9
    344e:	ffda06        	j	33ba <_Z22CAacDecoder_ParseFrameP20AAC_DECODER_INSTANCEPiciiS1_P21XA_AACDEC_CHANNELMODEcii+0x806>

00003451 <_Z22CAacDecoder_ParseFrameP20AAC_DECODER_INSTANCEPiciiS1_P21XA_AACDEC_CHANNELMODEcii+0x89d>:
    3451:	9fcc           	bnez.n	a15, 345e <_Z22CAacDecoder_ParseFrameP20AAC_DECODER_INSTANCEPiciiS1_P21XA_AACDEC_CHANNELMODEcii+0x8aa>
    3453:	401a00        	ssl	a10
    3456:	092c           	movi.n	a9, 32
    3458:	a19900        	sll	a9, a9
    345b:	ffd6c6        	j	33ba <_Z22CAacDecoder_ParseFrameP20AAC_DECODER_INSTANCEPiciiS1_P21XA_AACDEC_CHANNELMODEcii+0x806>

0000345e <_Z22CAacDecoder_ParseFrameP20AAC_DECODER_INSTANCEPiciiS1_P21XA_AACDEC_CHANNELMODEcii+0x8aa>:
    345e:	290c           	movi.n	a9, 2
    3460:	209c90        	or	a9, a12, a9
    3463:	0c1f66        	bnei	a15, 1, 3473 <_Z22CAacDecoder_ParseFrameP20AAC_DECODER_INSTANCEPiciiS1_P21XA_AACDEC_CHANNELMODEcii+0x8bf>
    3466:	09cd           	mov.n	a12, a9
    3468:	401a00        	ssl	a10
    346b:	394c           	movi.n	a9, 67
    346d:	a19900        	sll	a9, a9
    3470:	ffd186        	j	33ba <_Z22CAacDecoder_ParseFrameP20AAC_DECODER_INSTANCEPiciiS1_P21XA_AACDEC_CHANNELMODEcii+0x806>

00003473 <_Z22CAacDecoder_ParseFrameP20AAC_DECODER_INSTANCEPiciiS1_P21XA_AACDEC_CHANNELMODEcii+0x8bf>:
    3473:	09cd           	mov.n	a12, a9
    3475:	401a00        	ssl	a10
    3478:	65a092        	movi	a9, 101
    347b:	a19900        	sll	a9, a9
    347e:	ffce06        	j	33ba <_Z22CAacDecoder_ParseFrameP20AAC_DECODER_INSTANCEPiciiS1_P21XA_AACDEC_CHANNELMODEcii+0x806>

00003481 <_Z22CAacDecoder_ParseFrameP20AAC_DECODER_INSTANCEPiciiS1_P21XA_AACDEC_CHANNELMODEcii+0x8cd>:
    3481:	20cc50        	or	a12, a12, a5
    3484:	401a00        	ssl	a10
    3487:	780c           	movi.n	a8, 7
    3489:	a18800        	sll	a8, a8
    348c:	20dd80        	or	a13, a13, a8
    348f:	94d9           	s32i.n	a13, a4, 36
    3491:	aa4b           	addi.n	a10, a10, 4
    3493:	21b4b0        	srai	a11, a11, 4
    3496:	3490b0        	extui	a9, a11, 0, 4
    3499:	02aae7        	bge	a10, a14, 349f <_Z22CAacDecoder_ParseFrameP20AAC_DECODER_INSTANCEPiciiS1_P21XA_AACDEC_CHANNELMODEcii+0x8eb>
    349c:	ffb3c6        	j	336f <_Z22CAacDecoder_ParseFrameP20AAC_DECODER_INSTANCEPiciiS1_P21XA_AACDEC_CHANNELMODEcii+0x7bb>
    349f:	5198           	l32i.n	a9, a1, 20
    34a1:	3c39e6        	bgei	a9, 3, 34e1 <_Z22CAacDecoder_ParseFrameP20AAC_DECODER_INSTANCEPiciiS1_P21XA_AACDEC_CHANNELMODEcii+0x92d>
    34a4:	394fe6        	bgei	a15, 4, 34e1 <_Z22CAacDecoder_ParseFrameP20AAC_DECODER_INSTANCEPiciiS1_P21XA_AACDEC_CHANNELMODEcii+0x92d>
    34a7:	04a0c0        	extui	a10, a12, 0, 1
    34aa:	c096a0        	sub	a9, a6, a10
    34ad:	3089e6        	bgei	a9, 8, 34e1 <_Z22CAacDecoder_ParseFrameP20AAC_DECODER_INSTANCEPiciiS1_P21XA_AACDEC_CHANNELMODEcii+0x92d>
    34b0:	2d19a6        	blti	a9, 1, 34e1 <_Z22CAacDecoder_ParseFrameP20AAC_DECODER_INSTANCEPiciiS1_P21XA_AACDEC_CHANNELMODEcii+0x92d>
    34b3:	5e1926        	beqi	a9, 1, 3515 <_Z22CAacDecoder_ParseFrameP20AAC_DECODER_INSTANCEPiciiS1_P21XA_AACDEC_CHANNELMODEcii+0x961>
    34b6:	2f2926        	beqi	a9, 2, 34e9 <_Z22CAacDecoder_ParseFrameP20AAC_DECODER_INSTANCEPiciiS1_P21XA_AACDEC_CHANNELMODEcii+0x935>
    34b9:	5d3926        	beqi	a9, 3, 351a <_Z22CAacDecoder_ParseFrameP20AAC_DECODER_INSTANCEPiciiS1_P21XA_AACDEC_CHANNELMODEcii+0x966>
    34bc:	6a4926        	beqi	a9, 4, 352a <_Z22CAacDecoder_ParseFrameP20AAC_DECODER_INSTANCEPiciiS1_P21XA_AACDEC_CHANNELMODEcii+0x976>
    34bf:	fbc9b2        	addi	a11, a9, -5
    34c2:	0b0b16        	beqz	a11, 3576 <_Z22CAacDecoder_ParseFrameP20AAC_DECODER_INSTANCEPiciiS1_P21XA_AACDEC_CHANNELMODEcii+0x9c2>
    34c5:	fac9c2        	addi	a12, a9, -6
    34c8:	0b2c16        	beqz	a12, 357e <_Z22CAacDecoder_ParseFrameP20AAC_DECODER_INSTANCEPiciiS1_P21XA_AACDEC_CHANNELMODEcii+0x9ca>
    34cb:	2e7966        	bnei	a9, 7, 34fd <_Z22CAacDecoder_ParseFrameP20AAC_DECODER_INSTANCEPiciiS1_P21XA_AACDEC_CHANNELMODEcii+0x949>
    34ce:	2221d2        	l32i	a13, a1, 136
    34d1:	2021b2        	l32i	a11, a1, 128
    34d4:	072d56        	bnez	a13, 354a <_Z22CAacDecoder_ParseFrameP20AAC_DECODER_INSTANCEPiciiS1_P21XA_AACDEC_CHANNELMODEcii+0x996>
    34d7:	b90c           	movi.n	a9, 11
    34d9:	b09a90        	addx8	a9, a10, a9

000034dc <_Z22CAacDecoder_ParseFrameP20AAC_DECODER_INSTANCEPiciiS1_P21XA_AACDEC_CHANNELMODEcii+0x928>:
    34dc:	0b99           	s32i.n	a9, a11, 0
    34de:	0006c6        	j	34fd <_Z22CAacDecoder_ParseFrameP20AAC_DECODER_INSTANCEPiciiS1_P21XA_AACDEC_CHANNELMODEcii+0x949>

000034e1 <_Z22CAacDecoder_ParseFrameP20AAC_DECODER_INSTANCEPiciiS1_P21XA_AACDEC_CHANNELMODEcii+0x92d>:
    34e1:	004232        	s8i	a3, a2, 0
    34e4:	170c           	movi.n	a7, 1
    34e6:	000786        	j	3508 <_Z22CAacDecoder_ParseFrameP20AAC_DECODER_INSTANCEPiciiS1_P21XA_AACDEC_CHANNELMODEcii+0x954>

000034e9 <_Z22CAacDecoder_ParseFrameP20AAC_DECODER_INSTANCEPiciiS1_P21XA_AACDEC_CHANNELMODEcii+0x935>:
    34e9:	390c           	movi.n	a9, 3
    34eb:	51c8           	l32i.n	a12, a1, 20
    34ed:	4b0c           	movi.n	a11, 4
    34ef:	b0bab0        	addx8	a11, a10, a11
    34f2:	feccc2        	addi	a12, a12, -2
    34f5:	939bc0        	movnez	a9, a11, a12

000034f8 <_Z22CAacDecoder_ParseFrameP20AAC_DECODER_INSTANCEPiciiS1_P21XA_AACDEC_CHANNELMODEcii+0x944>:
    34f8:	2021d2        	l32i	a13, a1, 128
    34fb:	0d99           	s32i.n	a9, a13, 0

000034fd <_Z22CAacDecoder_ParseFrameP20AAC_DECODER_INSTANCEPiciiS1_P21XA_AACDEC_CHANNELMODEcii+0x949>:
    34fd:	1221e2        	l32i	a14, a1, 72
    3500:	8ee8           	l32i.n	a14, a14, 32
    3502:	81f8           	l32i.n	a15, a1, 32
    3504:	4ee8           	l32i.n	a14, a14, 16
    3506:	0fe9           	s32i.n	a14, a15, 0

00003508 <_Z22CAacDecoder_ParseFrameP20AAC_DECODER_INSTANCEPiciiS1_P21XA_AACDEC_CHANNELMODEcii+0x954>:
    3508:	072d           	mov.n	a2, a7
    350a:	f01d           	retw.n

0000350c <_Z22CAacDecoder_ParseFrameP20AAC_DECODER_INSTANCEPiciiS1_P21XA_AACDEC_CHANNELMODEcii+0x958>:
    350c:	1f0c           	movi.n	a15, 1

0000350e <_Z22CAacDecoder_ParseFrameP20AAC_DECODER_INSTANCEPiciiS1_P21XA_AACDEC_CHANNELMODEcii+0x95a>:
    350e:	080c           	movi.n	a8, 0
    3510:	5189           	s32i.n	a8, a1, 20
    3512:	ff7fc6        	j	3315 <_Z22CAacDecoder_ParseFrameP20AAC_DECODER_INSTANCEPiciiS1_P21XA_AACDEC_CHANNELMODEcii+0x761>

00003515 <_Z22CAacDecoder_ParseFrameP20AAC_DECODER_INSTANCEPiciiS1_P21XA_AACDEC_CHANNELMODEcii+0x961>:
    3515:	059d           	mov.n	a9, a5
    3517:	fff746        	j	34f8 <_Z22CAacDecoder_ParseFrameP20AAC_DECODER_INSTANCEPiciiS1_P21XA_AACDEC_CHANNELMODEcii+0x944>

0000351a <_Z22CAacDecoder_ParseFrameP20AAC_DECODER_INSTANCEPiciiS1_P21XA_AACDEC_CHANNELMODEcii+0x966>:
    351a:	119ad0        	slli	a9, a10, 3
    351d:	046c17        	bbci	a12, 1, 3525 <_Z22CAacDecoder_ParseFrameP20AAC_DECODER_INSTANCEPiciiS1_P21XA_AACDEC_CHANNELMODEcii+0x971>
    3520:	996b           	addi.n	a9, a9, 6
    3522:	0004c6        	j	3539 <_Z22CAacDecoder_ParseFrameP20AAC_DECODER_INSTANCEPiciiS1_P21XA_AACDEC_CHANNELMODEcii+0x985>

00003525 <_Z22CAacDecoder_ParseFrameP20AAC_DECODER_INSTANCEPiciiS1_P21XA_AACDEC_CHANNELMODEcii+0x971>:
    3525:	995b           	addi.n	a9, a9, 5
    3527:	000386        	j	3539 <_Z22CAacDecoder_ParseFrameP20AAC_DECODER_INSTANCEPiciiS1_P21XA_AACDEC_CHANNELMODEcii+0x985>

0000352a <_Z22CAacDecoder_ParseFrameP20AAC_DECODER_INSTANCEPiciiS1_P21XA_AACDEC_CHANNELMODEcii+0x976>:
    352a:	119ad0        	slli	a9, a10, 3
    352d:	51c8           	l32i.n	a12, a1, 20
    352f:	b97b           	addi.n	a11, a9, 7
    3531:	998b           	addi.n	a9, a9, 8
    3533:	feccc2        	addi	a12, a12, -2
    3536:	939bc0        	movnez	a9, a11, a12

00003539 <_Z22CAacDecoder_ParseFrameP20AAC_DECODER_INSTANCEPiciiS1_P21XA_AACDEC_CHANNELMODEcii+0x985>:
    3539:	2021d2        	l32i	a13, a1, 128
    353c:	0d99           	s32i.n	a9, a13, 0
    353e:	ffeec6        	j	34fd <_Z22CAacDecoder_ParseFrameP20AAC_DECODER_INSTANCEPiciiS1_P21XA_AACDEC_CHANNELMODEcii+0x949>

00003541 <_Z22CAacDecoder_ParseFrameP20AAC_DECODER_INSTANCEPiciiS1_P21XA_AACDEC_CHANNELMODEcii+0x98d>:
    3541:	0f0c           	movi.n	a15, 0
    3543:	0e0c           	movi.n	a14, 0
    3545:	51e9           	s32i.n	a14, a1, 20
    3547:	ff7286        	j	3315 <_Z22CAacDecoder_ParseFrameP20AAC_DECODER_INSTANCEPiciiS1_P21XA_AACDEC_CHANNELMODEcii+0x761>

0000354a <_Z22CAacDecoder_ParseFrameP20AAC_DECODER_INSTANCEPiciiS1_P21XA_AACDEC_CHANNELMODEcii+0x996>:
    354a:	2321f2        	l32i	a15, a1, 140
    354d:	1a7f66        	bnei	a15, 7, 356b <_Z22CAacDecoder_ParseFrameP20AAC_DECODER_INSTANCEPiciiS1_P21XA_AACDEC_CHANNELMODEcii+0x9b7>
    3550:	b90c           	movi.n	a9, 11
    3552:	909a90        	addx2	a9, a10, a9
    3555:	ffe0c6        	j	34dc <_Z22CAacDecoder_ParseFrameP20AAC_DECODER_INSTANCEPiciiS1_P21XA_AACDEC_CHANNELMODEcii+0x928>

00003558 <_Z22CAacDecoder_ParseFrameP20AAC_DECODER_INSTANCEPiciiS1_P21XA_AACDEC_CHANNELMODEcii+0x9a4>:
    3558:	a1b8           	l32i.n	a11, a1, 40
    355a:	20afc2        	movi	a12, -224
    355d:	94c9           	s32i.n	a12, a4, 36
    355f:	a99ba7        	bne	a11, a10, 350c <_Z22CAacDecoder_ParseFrameP20AAC_DECODER_INSTANCEPiciiS1_P21XA_AACDEC_CHANNELMODEcii+0x958>
    3562:	0f0c           	movi.n	a15, 0
    3564:	2d0c           	movi.n	a13, 2
    3566:	51d9           	s32i.n	a13, a1, 20
    3568:	ff6a46        	j	3315 <_Z22CAacDecoder_ParseFrameP20AAC_DECODER_INSTANCEPiciiS1_P21XA_AACDEC_CHANNELMODEcii+0x761>

0000356b <_Z22CAacDecoder_ParseFrameP20AAC_DECODER_INSTANCEPiciiS1_P21XA_AACDEC_CHANNELMODEcii+0x9b7>:
    356b:	1caf66        	bnei	a15, 12, 358b <_Z22CAacDecoder_ParseFrameP20AAC_DECODER_INSTANCEPiciiS1_P21XA_AACDEC_CHANNELMODEcii+0x9d7>
    356e:	491c           	movi.n	a9, 20
    3570:	909a90        	addx2	a9, a10, a9
    3573:	ffd946        	j	34dc <_Z22CAacDecoder_ParseFrameP20AAC_DECODER_INSTANCEPiciiS1_P21XA_AACDEC_CHANNELMODEcii+0x928>

00003576 <_Z22CAacDecoder_ParseFrameP20AAC_DECODER_INSTANCEPiciiS1_P21XA_AACDEC_CHANNELMODEcii+0x9c2>:
    3576:	990c           	movi.n	a9, 9
    3578:	2021b2        	l32i	a11, a1, 128
    357b:	000106        	j	3583 <_Z22CAacDecoder_ParseFrameP20AAC_DECODER_INSTANCEPiciiS1_P21XA_AACDEC_CHANNELMODEcii+0x9cf>

0000357e <_Z22CAacDecoder_ParseFrameP20AAC_DECODER_INSTANCEPiciiS1_P21XA_AACDEC_CHANNELMODEcii+0x9ca>:
    357e:	a90c           	movi.n	a9, 10
    3580:	2021b2        	l32i	a11, a1, 128

00003583 <_Z22CAacDecoder_ParseFrameP20AAC_DECODER_INSTANCEPiciiS1_P21XA_AACDEC_CHANNELMODEcii+0x9cf>:
    3583:	b0ca90        	addx8	a12, a10, a9
    3586:	0bc9           	s32i.n	a12, a11, 0
    3588:	ffdc46        	j	34fd <_Z22CAacDecoder_ParseFrameP20AAC_DECODER_INSTANCEPiciiS1_P21XA_AACDEC_CHANNELMODEcii+0x949>

0000358b <_Z22CAacDecoder_ParseFrameP20AAC_DECODER_INSTANCEPiciiS1_P21XA_AACDEC_CHANNELMODEcii+0x9d7>:
    358b:	f2cfe2        	addi	a14, a15, -14
    358e:	591c           	movi.n	a9, 21
    3590:	bd0c           	movi.n	a13, 11
    3592:	b0dad0        	addx8	a13, a10, a13
    3595:	909a90        	addx2	a9, a10, a9
    3598:	939de0        	movnez	a9, a13, a14
    359b:	ffcf46        	j	34dc <_Z22CAacDecoder_ParseFrameP20AAC_DECODER_INSTANCEPiciiS1_P21XA_AACDEC_CHANNELMODEcii+0x928>

0000359e <_Z22CAacDecoder_ParseFrameP20AAC_DECODER_INSTANCEPiciiS1_P21XA_AACDEC_CHANNELMODEcii+0x9ea>:
	...

000035a0 <_Z32CAacDecoderGetChannelsPerElementP20AAC_DECODER_INSTANCE>:
    35a0:	004136        	entry	a1, 32
    35a3:	8b2222        	l32i	a2, a2, 0x22c
    35a6:	f01d           	retw.n

000035a8 <_Z32CAacDecoderGetChannelsPerElementP20AAC_DECODER_INSTANCE+0x8>:
    35a8:	004136        	entry	a1, 32
    35ab:	8a2222        	l32i	a2, a2, 0x228
    35ae:	f01d           	retw.n

000035b0 <_Z23CAacDecoderGetPtrForPCEP20AAC_DECODER_INSTANCE>:
    35b0:	004136        	entry	a1, 32
    35b3:	22db           	addi.n	a2, a2, 13
    35b5:	f01d           	retw.n

000035b7 <_Z23CAacDecoderGetPtrForPCEP20AAC_DECODER_INSTANCE+0x7>:
	...

000035b8 <_Z23CAacDecoderGetPtrForPCEP20AAC_DECODER_INSTANCE+0x8>:
    35b8:	004136        	entry	a1, 32
    35bb:	0c4232        	s8i	a3, a2, 12
    35be:	f01d           	retw.n

000035c0 <_Z26CAacDecoderGetSamplingRateP20AAC_DECODER_INSTANCE>:
    35c0:	004136        	entry	a1, 32
    35c3:	882222        	l32i	a2, a2, 0x220
    35c6:	1228           	l32i.n	a2, a2, 4
    35c8:	f01d           	retw.n

000035ca <_Z26CAacDecoderGetSamplingRateP20AAC_DECODER_INSTANCE+0xa>:
	...

000035cc <_Z26CAacDecoderGetSamplingRateP20AAC_DECODER_INSTANCE+0xc>:
    35cc:	004136        	entry	a1, 32
    35cf:	8a2252        	l32i	a5, a2, 0x228
    35d2:	0ca357        	bge	a3, a5, 35e2 <_Z26CAacDecoderGetSamplingRateP20AAC_DECODER_INSTANCE+0x22>
    35d5:	8e2222        	l32i	a2, a2, 0x238
    35d8:	a02320        	addx4	a2, a3, a2
    35db:	0228           	l32i.n	a2, a2, 0
    35dd:	5228           	l32i.n	a2, a2, 20
    35df:	000046        	j	35e4 <_Z26CAacDecoderGetSamplingRateP20AAC_DECODER_INSTANCE+0x24>

000035e2 <_Z26CAacDecoderGetSamplingRateP20AAC_DECODER_INSTANCE+0x22>:
    35e2:	020c           	movi.n	a2, 0

000035e4 <_Z26CAacDecoderGetSamplingRateP20AAC_DECODER_INSTANCE+0x24>:
    35e4:	0429           	s32i.n	a2, a4, 0
    35e6:	f01d           	retw.n

000035e8 <_Z15CAacDecoderInitP20AAC_DECODER_INSTANCEi>:
    35e8:	004136        	entry	a1, 32
    35eb:	068216        	beqz	a2, 3657 <_Z15CAacDecoderInitP20AAC_DECODER_INSTANCEi+0x6f>
    35ee:	f29c61        	l32r	a6, 60 (109f0 <SamplingRateInfoTable>)
    35f1:	882292        	l32i	a9, a2, 0x220
    35f4:	070c           	movi.n	a7, 0
    35f6:	041c           	movi.n	a4, 16
    35f8:	1939           	s32i.n	a3, a9, 4
    35fa:	09a476        	loopgtz	a4, 3607 <_Z15CAacDecoderInitP20AAC_DECODER_INSTANCEi+0x1f>
    35fd:	0658           	l32i.n	a5, a6, 0
    35ff:	14c662        	addi	a6, a6, 20
    3602:	011537        	beq	a5, a3, 3607 <_Z15CAacDecoderInitP20AAC_DECODER_INSTANCEi+0x1f>
    3605:	771b           	addi.n	a7, a7, 1

00003607 <_Z15CAacDecoderInitP20AAC_DECODER_INSTANCEi+0x1f>:
    3607:	4cb726        	beqi	a7, 16, 3657 <_Z15CAacDecoderInitP20AAC_DECODER_INSTANCEi+0x6f>
    360a:	080c           	movi.n	a8, 0
    360c:	f57c           	movi.n	a5, -1
    360e:	0b1c           	movi.n	a11, 16
    3610:	004972        	s8i	a7, a9, 0
    3613:	dca1a2        	movi	a10, 0x1dc
    3616:	090c           	movi.n	a9, 0
    3618:	02d272        	addmi	a7, a2, 0x200
    361b:	ecc772        	addi	a7, a7, -20
    361e:	0c4292        	s8i	a9, a2, 12
    3621:	096d           	mov.n	a6, a9
    3623:	362a           	add.n	a3, a6, a2
    3625:	8033a0        	add	a3, a3, a10

00003628 <_Z15CAacDecoderInitP20AAC_DECODER_INSTANCEi+0x40>:
    3628:	10c772        	addi	a7, a7, 16
    362b:	01c882        	addi	a8, a8, 1
    362e:	10c662        	addi	a6, a6, 16
    3631:	07ab76        	loopgtz	a11, 363c <_Z15CAacDecoderInitP20AAC_DECODER_INSTANCEi+0x54>
    3634:	684352        	s8i	a5, a3, 104
    3637:	984352        	s8i	a5, a3, 152
    363a:	331b           	addi.n	a3, a3, 1

0000363c <_Z15CAacDecoderInitP20AAC_DECODER_INSTANCEi+0x54>:
    363c:	0b1c           	movi.n	a11, 16
    363e:	362a           	add.n	a3, a6, a2
    3640:	33aa           	add.n	a3, a3, a10
    3642:	e23866        	bnei	a8, 3, 3628 <_Z15CAacDecoderInitP20AAC_DECODER_INSTANCEi+0x40>
    3645:	030c           	movi.n	a3, 0
    3647:	02d242        	addmi	a4, a2, 0x200
    364a:	a44492        	s8i	a9, a4, 164
    364d:	aa6292        	s32i	a9, a2, 0x2a8
    3650:	ab6292        	s32i	a9, a2, 0x2ac

00003653 <_Z15CAacDecoderInitP20AAC_DECODER_INSTANCEi+0x6b>:
    3653:	032d           	mov.n	a2, a3
    3655:	f01d           	retw.n

00003657 <_Z15CAacDecoderInitP20AAC_DECODER_INSTANCEi+0x6f>:
    3657:	f37c           	movi.n	a3, -1
    3659:	fffd86        	j	3653 <_Z15CAacDecoderInitP20AAC_DECODER_INSTANCEi+0x6b>

0000365c <_Z15CAacDecoderOpenP7BIT_BUFiP5fractS2_>:
    365c:	006136        	entry	a1, 48
    365f:	6cafc2        	movi	a12, -148
    3662:	4cafb2        	movi	a11, -180
    3665:	149030        	extui	a9, a3, 0, 2
    3668:	02ad           	mov.n	a10, a2
    366a:	418230        	srli	a8, a3, 2
    366d:	1188e0        	slli	a8, a8, 2
    3670:	042d           	mov.n	a2, a4
    3672:	03d262        	addmi	a6, a2, 0x300
    3675:	b0c662        	addi	a6, a6, -80
    3678:	484b           	addi.n	a4, a8, 4
    367a:	414240        	srli	a4, a4, 2
    367d:	8b6262        	s32i	a6, a2, 0x22c
    3680:	1174e0        	slli	a7, a4, 2
    3683:	074d           	mov.n	a4, a7
    3685:	837890        	moveqz	a7, a8, a9
    3688:	834890        	moveqz	a4, a8, a9
    368b:	445a           	add.n	a4, a4, a5
    368d:	672a           	add.n	a6, a7, a2
    368f:	f2ac81        	l32r	a8, 140 (5870 <_Z11AdtsCrcOpenPP12CAdtsCrcInfoS0_P10CrcRegData>)
    3692:	03d662        	addmi	a6, a6, 0x300
    3695:	b0c662        	addi	a6, a6, -80
    3698:	c07670        	sub	a7, a6, a7
    369b:	b7ba           	add.n	a11, a7, a11
    369d:	fdd7d2        	addmi	a13, a7, 0xfffffd00
    36a0:	ffd7e2        	addmi	a14, a7, 0xffffff00
    36a3:	206e52        	s32i	a5, a14, 128
    36a6:	166da2        	s32i	a10, a13, 88
    36a9:	050c           	movi.n	a5, 0
    36ab:	a7ca           	add.n	a10, a7, a12
    36ad:	156d52        	s32i	a5, a13, 84
    36b0:	34aec2        	movi	a12, 0xfffffe34
    36b3:	c7ca           	add.n	a12, a7, a12
    36b5:	0008e0        	callx8	a8
    36b8:	f2a381        	l32r	a8, 144 (3ff0 <_Z15CStreamInfoInitP11CStreamInfo>)
    36bb:	b0a292        	movi	a9, 0x2b0
    36be:	ffd7a2        	addmi	a10, a7, 0xffffff00
    36c1:	1d6a62        	s32i	a6, a10, 116
    36c4:	c09790        	sub	a9, a7, a9
    36c7:	10c6a2        	addi	a10, a6, 16
    36ca:	8869a2        	s32i	a10, a9, 0x220
    36cd:	0008e0        	callx8	a8
    36d0:	1139           	s32i.n	a3, a1, 4
    36d2:	7e0c           	movi.n	a14, 7
    36d4:	2cc692        	addi	a9, a6, 44
    36d7:	ffd7a2        	addmi	a10, a7, 0xffffff00
    36da:	1e6a32        	s32i	a3, a10, 120
    36dd:	1173e0        	slli	a7, a3, 2
    36e0:	226a92        	s32i	a9, a10, 136
    36e3:	41a270        	srli	a10, a7, 2
    36e6:	118ae0        	slli	a8, a10, 2
    36e9:	2cc882        	addi	a8, a8, 44
    36ec:	668a           	add.n	a6, a6, a8
    36ee:	8d6262        	s32i	a6, a2, 0x234
    36f1:	a06a60        	addx4	a6, a10, a6
    36f4:	0213e6        	bgei	a3, 1, 36fa <_Z15CAacDecoderOpenP7BIT_BUFiP5fractS2_+0x9e>
    36f7:	002906        	j	379f <_Z15CAacDecoderOpenP7BIT_BUFiP5fractS2_+0x143>
    36fa:	0b0c           	movi.n	a11, 0
    36fc:	fc208000af 	{ movi	a10, 0; ae_zerop48	aep0 }
    3701:	f291d1        	l32r	a13, 148 (830 <_Z10Lap1_shortP5fractS0_PsPKjii+0xb8>)
    3704:	f24b31        	l32r	a3, 30 (109e4 <OnlyLongWindowSine>)

00003707 <_Z15CAacDecoderOpenP7BIT_BUFiP5fractS2_+0xab>:
    3707:	8e2292        	l32i	a9, a2, 0x238
    370a:	99ba           	add.n	a9, a9, a11
    370c:	0969           	s32i.n	a6, a9, 0
    370e:	8b2282        	l32i	a8, a2, 0x22c
    3711:	150c           	movi.n	a5, 1
    3713:	8a8a           	add.n	a8, a10, a8
    3715:	004852        	s8i	a5, a8, 0
    3718:	8e22f2        	l32i	a15, a2, 0x238
    371b:	fbfa           	add.n	a15, a11, a15
    371d:	0fc8           	l32i.n	a12, a15, 0
    371f:	080c           	movi.n	a8, 0
    3721:	104c82        	s8i	a8, a12, 16
    3724:	0f98           	l32i.n	a9, a15, 0
    3726:	1cc6c2        	addi	a12, a6, 28
    3729:	114982        	s8i	a8, a9, 17
    372c:	0f98           	l32i.n	a9, a15, 0
    372e:	00a182        	movi	a8, 0x100
    3731:	020ec7        	bnone	a14, a12, 3737 <_Z15CAacDecoderOpenP7BIT_BUFiP5fractS2_+0xdb>
    3734:	20c6c2        	addi	a12, a6, 32

00003737 <_Z15CAacDecoderOpenP7BIT_BUFiP5fractS2_+0xdb>:
    3737:	f8ccf2        	addi	a15, a12, -8
    373a:	0569c2        	s32i	a12, a9, 20
    373d:	02a876        	loopgtz	a8, 3743 <_Z15CAacDecoderOpenP7BIT_BUFiP5fractS2_+0xe7>
    3740:	568f14        	ae_sp24x2s.iu	aep0, a15, 8

00003743 <_Z15CAacDecoderOpenP7BIT_BUFiP5fractS2_+0xe7>:
    3743:	8e2292        	l32i	a9, a2, 0x238
    3746:	99ba           	add.n	a9, a9, a11
    3748:	0998           	l32i.n	a9, a9, 0
    374a:	0388           	l32i.n	a8, a3, 0
    374c:	0989           	s32i.n	a8, a9, 0
    374e:	f23381        	l32r	a8, 1c (109e0 <OnlyShortWindowSine>)
    3751:	6cda           	add.n	a6, a12, a13
    3753:	08dcf2        	addmi	a15, a12, 0x800
    3756:	0888           	l32i.n	a8, a8, 0
    3758:	2989           	s32i.n	a8, a9, 8
    375a:	f25f81        	l32r	a8, d8 (109dc <OnlyLongWindowKBD>)
    375d:	aa1b           	addi.n	a10, a10, 1
    375f:	8d22c2        	l32i	a12, a2, 0x234
    3762:	0888           	l32i.n	a8, a8, 0
    3764:	1989           	s32i.n	a8, a9, 4
    3766:	f25b81        	l32r	a8, d4 (109d8 <OnlyShortWindowKBD>)
    3769:	5cba           	add.n	a5, a12, a11
    376b:	bb4b           	addi.n	a11, a11, 4
    376d:	0888           	l32i.n	a8, a8, 0
    376f:	3989           	s32i.n	a8, a9, 12
    3771:	0065f2        	s32i	a15, a5, 0
    3774:	8f9b77        	bne	a11, a7, 3707 <_Z15CAacDecoderOpenP7BIT_BUFiP5fractS2_+0xab>
    3777:	0121a2        	l32i	a10, a1, 4
    377a:	f274b1        	l32r	a11, 14c (1010 <_Z26CLongBlock_FrequencyToTimeP28CAacDecoderStaticChannelInfoP22CAacDecoderChannelInfoP5fractiiiS4_+0x164>)
    377d:	1eaa76        	loopgtz	a10, 379f <_Z15CAacDecoderOpenP7BIT_BUFiP5fractS2_+0x143>
    3780:	14c4a2        	addi	a10, a4, 20
    3783:	0cd8           	l32i.n	a13, a12, 0
    3785:	0c88           	l32i.n	a8, a12, 0
    3787:	cc4b           	addi.n	a12, a12, 4
    3789:	0d49           	s32i.n	a4, a13, 0
    378b:	050ea7        	bnone	a14, a10, 3794 <_Z15CAacDecoderOpenP7BIT_BUFiP5fractS2_+0x138>
    378e:	18c492        	addi	a9, a4, 24
    3791:	000046        	j	3796 <_Z15CAacDecoderOpenP7BIT_BUFiP5fractS2_+0x13a>

00003794 <_Z15CAacDecoderOpenP7BIT_BUFiP5fractS2_+0x138>:
    3794:	0a9d           	mov.n	a9, a10

00003796 <_Z15CAacDecoderOpenP7BIT_BUFiP5fractS2_+0x13a>:
    3796:	49ba           	add.n	a4, a9, a11
    3798:	7899           	s32i.n	a9, a8, 28
    379a:	10d9f2        	addmi	a15, a9, 0x1000
    379d:	88f9           	s32i.n	a15, a8, 32

0000379f <_Z15CAacDecoderOpenP7BIT_BUFiP5fractS2_+0x143>:
    379f:	040e47        	bnone	a14, a4, 37a7 <_Z15CAacDecoderOpenP7BIT_BUFiP5fractS2_+0x14b>
    37a2:	a44b           	addi.n	a10, a4, 4
    37a4:	000046        	j	37a9 <_Z15CAacDecoderOpenP7BIT_BUFiP5fractS2_+0x14d>

000037a7 <_Z15CAacDecoderOpenP7BIT_BUFiP5fractS2_+0x14b>:
    37a7:	04ad           	mov.n	a10, a4

000037a9 <_Z15CAacDecoderOpenP7BIT_BUFiP5fractS2_+0x14d>:
    37a9:	1198           	l32i.n	a9, a1, 4
    37ab:	0a4d           	mov.n	a4, a10
    37ad:	01a9           	s32i.n	a10, a1, 0
    37af:	5719a6        	blti	a9, 1, 380a <_Z15CAacDecoderOpenP7BIT_BUFiP5fractS2_+0x1ae>
    37b2:	8d22c2        	l32i	a12, a2, 0x234
    37b5:	68a772        	movi	a7, 0x768
    37b8:	04dae2        	addmi	a14, a10, 0x400
    37bb:	03da32        	addmi	a3, a10, 0x300
    37be:	06dab2        	addmi	a11, a10, 0x600
    37c1:	05dad2        	addmi	a13, a10, 0x500
    37c4:	e8cdd2        	addi	a13, a13, -24
    37c7:	e8cbb2        	addi	a11, a11, -24
    37ca:	6cc362        	addi	a6, a3, 108
    37cd:	c0cef2        	addi	a15, a14, -64
    37d0:	78c352        	addi	a5, a3, 120
    37d3:	d8cee2        	addi	a14, a14, -40
    37d6:	7cc332        	addi	a3, a3, 124
    37d9:	07daa2        	addmi	a10, a10, 0x700
    37dc:	e8caa2        	addi	a10, a10, -24
    37df:	27a976        	loopgtz	a9, 380a <_Z15CAacDecoderOpenP7BIT_BUFiP5fractS2_+0x1ae>
    37e2:	0c88           	l32i.n	a8, a12, 0
    37e4:	cc4b           	addi.n	a12, a12, 4
    37e6:	2869           	s32i.n	a6, a8, 8
    37e8:	3859           	s32i.n	a5, a8, 12
    37ea:	4839           	s32i.n	a3, a8, 16
    37ec:	58f9           	s32i.n	a15, a8, 20
    37ee:	68e9           	s32i.n	a14, a8, 24
    37f0:	98d9           	s32i.n	a13, a8, 36
    37f2:	a8b9           	s32i.n	a11, a8, 40
    37f4:	1849           	s32i.n	a4, a8, 4
    37f6:	b8a9           	s32i.n	a10, a8, 44
    37f8:	447a           	add.n	a4, a4, a7
    37fa:	aa7a           	add.n	a10, a10, a7
    37fc:	bb7a           	add.n	a11, a11, a7
    37fe:	dd7a           	add.n	a13, a13, a7
    3800:	ee7a           	add.n	a14, a14, a7
    3802:	ff7a           	add.n	a15, a15, a7
    3804:	337a           	add.n	a3, a3, a7
    3806:	557a           	add.n	a5, a5, a7
    3808:	667a           	add.n	a6, a6, a7

0000380a <_Z15CAacDecoderOpenP7BIT_BUFiP5fractS2_+0x1ae>:
    380a:	0198           	l32i.n	a9, a1, 0
    380c:	8f6292        	s32i	a9, a2, 0x23c
    380f:	f01d           	retw.n

00003811 <_Z15CAacDecoderOpenP7BIT_BUFiP5fractS2_+0x1b5>:
    3811:	000000                                        ...

00003814 <_Z32CAacDecoderGetRequiredBufferSizePiS_i>:
    3814:	004136        	entry	a1, 32
    3817:	02b8           	l32i.n	a11, a2, 0
    3819:	490c           	movi.n	a9, 4
    381b:	417240        	srli	a7, a4, 2
    381e:	148040        	extui	a8, a4, 0, 2
    3821:	a0a790        	addx4	a10, a7, a9
    3824:	a07790        	addx4	a7, a7, a9
    3827:	83a480        	moveqz	a10, a4, a8
    382a:	03dbb2        	addmi	a11, a11, 0x300
    382d:	dccbb2        	addi	a11, a11, -36
    3830:	a0b4b0        	addx4	a11, a4, a11
    3833:	a0b4b0        	addx4	a11, a4, a11
    3836:	aaba           	add.n	a10, a10, a11
    3838:	02a9           	s32i.n	a10, a2, 0
    383a:	0368           	l32i.n	a6, a3, 0
    383c:	837480        	moveqz	a7, a4, a8
    383f:	80a082        	movi	a8, 128
    3842:	667a           	add.n	a6, a6, a7
    3844:	0369           	s32i.n	a6, a3, 0
    3846:	10a172        	movi	a7, 0x110
    3849:	1f14a6        	blti	a4, 1, 386c <_Z32CAacDecoderGetRequiredBufferSizePiS_i+0x58>
    384c:	0268           	l32i.n	a6, a2, 0
    384e:	0aa476        	loopgtz	a4, 385c <_Z32CAacDecoderGetRequiredBufferSizePiS_i+0x48>
    3851:	1cc662        	addi	a6, a6, 28
    3854:	08d662        	addmi	a6, a6, 0x800
    3857:	38c662        	addi	a6, a6, 56
    385a:	0269           	s32i.n	a6, a2, 0

0000385c <_Z32CAacDecoderGetRequiredBufferSizePiS_i+0x48>:
    385c:	0368           	l32i.n	a6, a3, 0
    385e:	0aa476        	loopgtz	a4, 386c <_Z32CAacDecoderGetRequiredBufferSizePiS_i+0x58>
    3861:	14c662        	addi	a6, a6, 20
    3864:	10d662        	addmi	a6, a6, 0x1000
    3867:	18c662        	addi	a6, a6, 24
    386a:	0369           	s32i.n	a6, a3, 0

0000386c <_Z32CAacDecoderGetRequiredBufferSizePiS_i+0x58>:
    386c:	069d           	mov.n	a9, a6
    386e:	6ca322        	movi	a2, 0x36c
    3871:	0da476        	loopgtz	a4, 3882 <_Z32CAacDecoderGetRequiredBufferSizePiS_i+0x6e>
    3874:	662a           	add.n	a6, a6, a2
    3876:	6cc662        	addi	a6, a6, 108
    3879:	667a           	add.n	a6, a6, a7
    387b:	02d662        	addmi	a6, a6, 0x200
    387e:	668a           	add.n	a6, a6, a8
    3880:	0369           	s32i.n	a6, a3, 0

00003882 <_Z32CAacDecoderGetRequiredBufferSizePiS_i+0x6e>:
    3882:	f21c81        	l32r	a8, f4 (1000 <_Z26CLongBlock_FrequencyToTimeP28CAacDecoderStaticChannelInfoP22CAacDecoderChannelInfoP5fractiiiS4_+0x154>)
    3885:	c0a690        	sub	a10, a6, a9
    3888:	4388a0        	min	a8, a8, a10
    388b:	c08680        	sub	a8, a6, a8
    388e:	10d882        	addmi	a8, a8, 0x1000
    3891:	888b           	addi.n	a8, a8, 8
    3893:	0389           	s32i.n	a8, a3, 0
    3895:	f01d           	retw.n

00003897 <_Z32CAacDecoderGetRequiredBufferSizePiS_i+0x83>:
	...

00003898 <_Z19LongShortLapIllegalP5fractS0_S0_PKjS2_ii>:
    3898:	006136        	entry	a1, 48
    389b:	c198           	l32i.n	a9, a1, 48
    389d:	10d5a2        	addmi	a10, a5, 0x1000
    38a0:	11b7e0        	slli	a11, a7, 2
    38a3:	e0a082        	movi	a8, 224
    38a6:	1129           	s32i.n	a2, a1, 4
    38a8:	3149           	s32i.n	a4, a1, 12
    38aa:	0169           	s32i.n	a6, a1, 0
    38ac:	2139           	s32i.n	a3, a1, 8
    38ae:	f06770        	subx8	a6, a7, a7
    38b1:	21c8           	l32i.n	a12, a1, 8
    38b3:	1137f0        	slli	a3, a7, 1
    38b6:	1143e0        	slli	a4, a3, 2
    38b9:	032122        	l32i	a2, a1, 12
    38bc:	1133f0        	slli	a3, a3, 1
    38bf:	08dcc2        	addmi	a12, a12, 0x800
    38c2:	a0f720        	addx4	a15, a7, a2
    38c5:	90d720        	addx2	a13, a7, a2
    38c8:	fe2493e22f 	{ or	a14, a2, a2; ae_zeroq56	aeq2 }
    38cd:	53a876        	loopgtz	a8, 3924 <_Z19LongShortLapIllegalP5fractS0_S0_PKjS2_ii+0x8c>
    38d0:	ff14700aff 	{ ae_lp24x2.i	aep0, a10, -8; ae_movq56	aeq3, aeq2 }
    38d5:	fc14701cff 	{ ae_lp24x2.i	aep1, a12, -8; ae_movq56	aeq0, aeq2 }
    38da:	ee058f8aae 	{ addi	a10, a10, -8; ae_mulsfp24s.ll	aeq0, aep1, aep0 }
    38df:	ed04cf8cce 	{ addi	a12, a12, -8; ae_mulsfp24s.hh	aeq3, aep1, aep0 }
    38e4:	d9dc           	bnez.n	a9, 3905 <_Z19LongShortLapIllegalP5fractS0_S0_PKjS2_ii+0x6d>
    38e6:	062b34        	ae_movq56	aeq0, aeq2
    38e9:	ec04bf217f 	{ ae_movq56	aeq1, aeq2; ae_mulsfp24s.hh	aeq0, aep1, aep0 }
    38ee:	0118b4        	ae_mulsfp24s.ll	aeq1, aep1, aep0
    38f1:	1b8c34        	ae_roundsp24q48sym	aep3, aeq0
    38f4:	1b9c54        	ae_roundsp24q48sym	aep5, aeq1
    38f7:	0bd0c4        	ae_sllisp24s	aep4, aep5, 1
    38fa:	c90eb4420f 	{ ae_sp24f.l.i	aep4, a2, 0; ae_sllisp24s	aep2, aep3, 1 }
    38ff:	522f04        	ae_sp24f.l.i	aep2, a15, 0
    3902:	000586        	j	391c <_Z19LongShortLapIllegalP5fractS0_S0_PKjS2_ii+0x84>

00003905 <_Z19LongShortLapIllegalP5fractS0_S0_PKjS2_ii+0x6d>:
    3905:	1b8c54        	ae_roundsp24q48sym	aep5, aeq0
    3908:	1bbc44        	ae_roundsp24q48sym	aep4, aeq3
    390b:	0bc0f4        	ae_sllisp24s	aep7, aep4, 1
    390e:	0bd0b4        	ae_sllisp24s	aep3, aep5, 1
    3911:	0930a4        	ae_roundsp16sym	aep2, aep3
    3914:	fb1fb22e0f 	{ ae_sp16f.l.i	aep2, a14, 0; ae_roundsp16sym	aep6, aep7 }
    3919:	426d04        	ae_sp16f.l.i	aep6, a13, 0

0000391c <_Z19LongShortLapIllegalP5fractS0_S0_PKjS2_ii+0x84>:
    391c:	dd3a           	add.n	a13, a13, a3
    391e:	ff4a           	add.n	a15, a15, a4
    3920:	ee3a           	add.n	a14, a14, a3
    3922:	224a           	add.n	a2, a2, a4

00003924 <_Z19LongShortLapIllegalP5fractS0_S0_PKjS2_ii+0x8c>:
    3924:	09d5e2        	addmi	a14, a5, 0x900
    3927:	11a7d0        	slli	a10, a7, 3
    392a:	11d8           	l32i.n	a13, a1, 4
    392c:	3188           	l32i.n	a8, a1, 12
    392e:	01c8           	l32i.n	a12, a1, 0
    3930:	21f8           	l32i.n	a15, a1, 8
    3932:	113690        	slli	a3, a6, 7
    3935:	1126a0        	slli	a2, a6, 6
    3938:	272a           	add.n	a2, a7, a2
    393a:	116680        	slli	a6, a6, 8
    393d:	01dff2        	addmi	a15, a15, 0x100
    3940:	f8ccc2        	addi	a12, a12, -8
    3943:	686a           	add.n	a6, a8, a6
    3945:	a04280        	addx4	a4, a2, a8
    3948:	0fddd2        	addmi	a13, a13, 0xf00
    394b:	f8cdd2        	addi	a13, a13, -8
    394e:	383a           	add.n	a3, a8, a3
    3950:	902280        	addx2	a2, a2, a8
    3953:	082c           	movi.n	a8, 32
    3955:	60a876        	loopgtz	a8, 39b9 <_Z19LongShortLapIllegalP5fractS0_S0_PKjS2_ii+0x121>
    3958:	543ff4        	ae_lp24x2.i	aep3, a15, -8
    395b:	542ef4        	ae_lp24x2.i	aep2, a14, -8
    395e:	540c14        	ae_lp24x2.i	aep0, a12, 8
    3961:	541d14        	ae_lp24x2.i	aep1, a13, 8
    3964:	e8048f8eee 	{ addi	a14, a14, -8; ae_mulfp24s.hh	aeq0, aep1, aep0 }
    3969:	eb05cf8ffe 	{ addi	a15, a15, -8; ae_mulfp24s.ll	aeq3, aep1, aep0 }
    396e:	ed68c08cce 	{ addi	a12, a12, 8; ae_mulsfp24s.hh	aeq3, aep2, aep3 }
    3973:	ee69808dde 	{ addi	a13, a13, 8; ae_mulsfp24s.ll	aeq0, aep2, aep3 }
    3978:	e9dc           	bnez.n	a9, 399a <_Z19LongShortLapIllegalP5fractS0_S0_PKjS2_ii+0x102>
    397a:	011844        	ae_mulfp24s.hh	aeq1, aep1, aep0
    397d:	019074        	ae_mulfp24s.ll	aeq2, aep1, aep0
    3980:	01a384        	ae_mulsfp24s.hh	aeq2, aep2, aep3
    3983:	012bb4        	ae_mulsfp24s.ll	aeq1, aep2, aep3
    3986:	1bac74        	ae_roundsp24q48sym	aep7, aeq2
    3989:	1b9c54        	ae_roundsp24q48sym	aep5, aeq1
    398c:	0bd0c4        	ae_sllisp24s	aep4, aep5, 1
    398f:	cb1eb4460f 	{ ae_sp24f.l.i	aep4, a6, 0; ae_sllisp24s	aep6, aep7, 1 }
    3994:	526404        	ae_sp24f.l.i	aep6, a4, 0
    3997:	000586        	j	39b1 <_Z19LongShortLapIllegalP5fractS0_S0_PKjS2_ii+0x119>

0000399a <_Z19LongShortLapIllegalP5fractS0_S0_PKjS2_ii+0x102>:
    399a:	1b8c64        	ae_roundsp24q48sym	aep6, aeq0
    399d:	1bbc74        	ae_roundsp24q48sym	aep7, aeq3
    39a0:	0bf0f4        	ae_sllisp24s	aep7, aep7, 1
    39a3:	0be0d4        	ae_sllisp24s	aep5, aep6, 1
    39a6:	0950c4        	ae_roundsp16sym	aep4, aep5
    39a9:	fb1fb2430f 	{ ae_sp16f.l.i	aep4, a3, 0; ae_roundsp16sym	aep6, aep7 }
    39ae:	426204        	ae_sp16f.l.i	aep6, a2, 0

000039b1 <_Z19LongShortLapIllegalP5fractS0_S0_PKjS2_ii+0x119>:
    39b1:	22ba           	add.n	a2, a2, a11
    39b3:	33ba           	add.n	a3, a3, a11
    39b5:	44aa           	add.n	a4, a4, a10
    39b7:	66aa           	add.n	a6, a6, a10

000039b9 <_Z19LongShortLapIllegalP5fractS0_S0_PKjS2_ii+0x121>:
    39b9:	08d5e2        	addmi	a14, a5, 0x800
    39bc:	082c           	movi.n	a8, 32
    39be:	01c8           	l32i.n	a12, a1, 0
    39c0:	116760        	slli	a6, a7, 10
    39c3:	11d8           	l32i.n	a13, a1, 4
    39c5:	3128           	l32i.n	a2, a1, 12
    39c7:	11f770        	slli	a15, a7, 9
    39ca:	114750        	slli	a4, a7, 11
    39cd:	f7fa           	add.n	a15, a7, a15
    39cf:	a03f20        	addx4	a3, a15, a2
    39d2:	90ff20        	addx2	a15, a15, a2
    39d5:	424a           	add.n	a4, a2, a4
    39d7:	10ddd2        	addmi	a13, a13, 0x1000
    39da:	802260        	add	a2, a2, a6
    39dd:	022162        	l32i	a6, a1, 8
    39e0:	01dcc2        	addmi	a12, a12, 0x100
    39e3:	f8ccc2        	addi	a12, a12, -8
    39e6:	f8c662        	addi	a6, a6, -8
    39e9:	4da876        	loopgtz	a8, 3a3a <_Z19LongShortLapIllegalP5fractS0_S0_PKjS2_ii+0x1a2>
    39ec:	547c14        	ae_lp24x2.i	aep7, a12, 8
    39ef:	546df4        	ae_lp24x2.i	aep6, a13, -8
    39f2:	eaf8f0561f 	{ ae_lp24x2.i	aep5, a6, 8; ae_mulfp24s.hl	aeq1, aep6, aep7 }
    39f7:	e9f9b04eff 	{ ae_lp24x2.i	aep4, a14, -8; ae_mulfp24s.lh	aeq2, aep6, aep7 }
    39fc:	01c524        	ae_mulafp24s.lh	aeq2, aep4, aep5
    39ff:	014d14        	ae_mulafp24s.hl	aeq1, aep4, aep5
    3a02:	1bac24        	ae_roundsp24q48sym	aep2, aeq2
    3a05:	1b9c34        	ae_roundsp24q48sym	aep3, aeq1
    3a08:	fc780f8dde 	{ addi	a13, a13, -8; ae_negsp24s	aep0, aep3 }
    3a0d:	fc584f8eee 	{ addi	a14, a14, -8; ae_negsp24s	aep1, aep2 }
    3a12:	c806c0866e 	{ addi	a6, a6, 8; ae_sllisp24s	aep1, aep1, 1 }
    3a17:	c802808cce 	{ addi	a12, a12, 8; ae_sllisp24s	aep0, aep0, 1 }
    3a1c:	79cc           	bnez.n	a9, 3a27 <_Z19LongShortLapIllegalP5fractS0_S0_PKjS2_ii+0x18f>
    3a1e:	521404        	ae_sp24f.l.i	aep1, a4, 0
    3a21:	520304        	ae_sp24f.l.i	aep0, a3, 0
    3a24:	000286        	j	3a32 <_Z19LongShortLapIllegalP5fractS0_S0_PKjS2_ii+0x19a>

00003a27 <_Z19LongShortLapIllegalP5fractS0_S0_PKjS2_ii+0x18f>:
    3a27:	0910b4        	ae_roundsp16sym	aep3, aep1
    3a2a:	f903b2320f 	{ ae_sp16f.l.i	aep3, a2, 0; ae_roundsp16sym	aep2, aep0 }
    3a2f:	422f04        	ae_sp16f.l.i	aep2, a15, 0

00003a32 <_Z19LongShortLapIllegalP5fractS0_S0_PKjS2_ii+0x19a>:
    3a32:	ffba           	add.n	a15, a15, a11
    3a34:	22ba           	add.n	a2, a2, a11
    3a36:	33aa           	add.n	a3, a3, a10
    3a38:	44aa           	add.n	a4, a4, a10

00003a3a <_Z19LongShortLapIllegalP5fractS0_S0_PKjS2_ii+0x1a2>:
    3a3a:	07d542        	addmi	a4, a5, 0x700
    3a3d:	e0a0e2        	movi	a14, 224
    3a40:	2138           	l32i.n	a3, a1, 8
    3a42:	3188           	l32i.n	a8, a1, 12
    3a44:	1128           	l32i.n	a2, a1, 4
    3a46:	b0d770        	addx8	a13, a7, a7
    3a49:	116da0        	slli	a6, a13, 6
    3a4c:	676a           	add.n	a6, a7, a6
    3a4e:	0fd222        	addmi	a2, a2, 0xf00
    3a51:	a0c680        	addx4	a12, a6, a8
    3a54:	117d90        	slli	a7, a13, 7
    3a57:	01d332        	addmi	a3, a3, 0x100
    3a5a:	f8c332        	addi	a3, a3, -8
    3a5d:	807870        	add	a7, a8, a7
    3a60:	906680        	addx2	a6, a6, a8
    3a63:	11dd80        	slli	a13, a13, 8
    3a66:	80d8d0        	add	a13, a8, a13
    3a69:	48ae76        	loopgtz	a14, 3ab5 <_Z19LongShortLapIllegalP5fractS0_S0_PKjS2_ii+0x21d>
    3a6c:	5422f4        	ae_lp24x2.i	aep2, a2, -8
    3a6f:	ff4430131f 	{ ae_lp24x2.i	aep1, a3, 8; ae_cvtq48p24s.h	aeq3, aep2 }
    3a74:	fc4c3004ff 	{ ae_lp24x2.i	aep0, a4, -8; ae_cvtq48p24s.l	aeq0, aep2 }
    3a79:	010124        	ae_mulafp24s.lh	aeq0, aep0, aep1
    3a7c:	018914        	ae_mulafp24s.hl	aeq3, aep0, aep1
    3a7f:	1b8c64        	ae_roundsp24q48sym	aep6, aeq0
    3a82:	1bbc74        	ae_roundsp24q48sym	aep7, aeq3
    3a85:	078f44        	ae_negsp24s	aep4, aep7
    3a88:	fed84f822e 	{ addi	a2, a2, -8; ae_negsp24s	aep5, aep6 }
    3a8d:	c816cf844e 	{ addi	a4, a4, -8; ae_sllisp24s	aep1, aep5, 1 }
    3a92:	c81280833e 	{ addi	a3, a3, 8; ae_sllisp24s	aep0, aep4, 1 }
    3a97:	79cc           	bnez.n	a9, 3aa2 <_Z19LongShortLapIllegalP5fractS0_S0_PKjS2_ii+0x20a>
    3a99:	521d04        	ae_sp24f.l.i	aep1, a13, 0
    3a9c:	520c04        	ae_sp24f.l.i	aep0, a12, 0
    3a9f:	000286        	j	3aad <_Z19LongShortLapIllegalP5fractS0_S0_PKjS2_ii+0x215>

00003aa2 <_Z19LongShortLapIllegalP5fractS0_S0_PKjS2_ii+0x20a>:
    3aa2:	0910c4        	ae_roundsp16sym	aep4, aep1
    3aa5:	f903f2470f 	{ ae_sp16f.l.i	aep4, a7, 0; ae_roundsp16sym	aep3, aep0 }
    3aaa:	423604        	ae_sp16f.l.i	aep3, a6, 0

00003aad <_Z19LongShortLapIllegalP5fractS0_S0_PKjS2_ii+0x215>:
    3aad:	66ba           	add.n	a6, a6, a11
    3aaf:	77ba           	add.n	a7, a7, a11
    3ab1:	ccaa           	add.n	a12, a12, a10
    3ab3:	ddaa           	add.n	a13, a13, a10

00003ab5 <_Z19LongShortLapIllegalP5fractS0_S0_PKjS2_ii+0x21d>:
    3ab5:	f01d           	retw.n

00003ab7 <_Z19LongShortLapIllegalP5fractS0_S0_PKjS2_ii+0x21f>:
	...

00003ab8 <_Z19ShortLongLapIllegalP5fractS0_S0_PKjS2_ii>:
    3ab8:	006136        	entry	a1, 48
    3abb:	c1e8           	l32i.n	a14, a1, 48
    3abd:	f8c5a2        	addi	a10, a5, -8
    3ac0:	e0a082        	movi	a8, 224
    3ac3:	1139           	s32i.n	a3, a1, 4
    3ac5:	f8c3b2        	addi	a11, a3, -8
    3ac8:	2129           	s32i.n	a2, a1, 8
    3aca:	08d292        	addmi	a9, a2, 0x800
    3acd:	3149           	s32i.n	a4, a1, 12
    3acf:	0169           	s32i.n	a6, a1, 0
    3ad1:	1147f0        	slli	a4, a7, 1
    3ad4:	1164e0        	slli	a6, a4, 2
    3ad7:	032122        	l32i	a2, a1, 12
    3ada:	1137e0        	slli	a3, a7, 2
    3add:	1144f0        	slli	a4, a4, 1
    3ae0:	a0f720        	addx4	a15, a7, a2
    3ae3:	90c720        	addx2	a12, a7, a2
    3ae6:	20d220        	or	a13, a2, a2
    3ae9:	5aa876        	loopgtz	a8, 3b47 <_Z19ShortLongLapIllegalP5fractS0_S0_PKjS2_ii+0x8f>
    3aec:	541904        	ae_lp24x2.i	aep1, a9, 0
    3aef:	542b14        	ae_lp24x2.i	aep2, a11, 8
    3af2:	ff44300a1f 	{ ae_lp24x2.i	aep0, a10, 8; ae_cvtq48p24s.h	aeq3, aep2 }
    3af7:	fe4c008aae 	{ addi	a10, a10, 8; ae_cvtq48p24s.l	aeq2, aep2 }
    3afc:	e30780899e 	{ addi	a9, a9, 8; ae_mulafp24s.ll	aeq2, aep1, aep0 }
    3b01:	e306408bbe 	{ addi	a11, a11, 8; ae_mulafp24s.hh	aeq3, aep1, aep0 }
    3b06:	eedc           	bnez.n	a14, 3b28 <_Z19ShortLongLapIllegalP5fractS0_S0_PKjS2_ii+0x70>
    3b08:	0a0a84        	ae_cvtq48p24s.h	aeq0, aep2
    3b0b:	0a4284        	ae_cvtq48p24s.l	aeq1, aep2
    3b0e:	011834        	ae_mulafp24s.ll	aeq1, aep1, aep0
    3b11:	011004        	ae_mulafp24s.hh	aeq0, aep1, aep0
    3b14:	1b9c44        	ae_roundsp24q48sym	aep4, aeq1
    3b17:	1b8c64        	ae_roundsp24q48sym	aep6, aeq0
    3b1a:	0be0d4        	ae_sllisp24s	aep5, aep6, 1
    3b1d:	c912f4520f 	{ ae_sp24f.l.i	aep5, a2, 0; ae_sllisp24s	aep3, aep4, 1 }
    3b22:	523f04        	ae_sp24f.l.i	aep3, a15, 0
    3b25:	000586        	j	3b3f <_Z19ShortLongLapIllegalP5fractS0_S0_PKjS2_ii+0x87>

00003b28 <_Z19ShortLongLapIllegalP5fractS0_S0_PKjS2_ii+0x70>:
    3b28:	1bbc64        	ae_roundsp24q48sym	aep6, aeq3
    3b2b:	1bac74        	ae_roundsp24q48sym	aep7, aeq2
    3b2e:	0bf0b4        	ae_sllisp24s	aep3, aep7, 1
    3b31:	0be0d4        	ae_sllisp24s	aep5, aep6, 1
    3b34:	0950c4        	ae_roundsp16sym	aep4, aep5
    3b37:	fb0ff24d0f 	{ ae_sp16f.l.i	aep4, a13, 0; ae_roundsp16sym	aep7, aep3 }
    3b3c:	427c04        	ae_sp16f.l.i	aep7, a12, 0

00003b3f <_Z19ShortLongLapIllegalP5fractS0_S0_PKjS2_ii+0x87>:
    3b3f:	cc4a           	add.n	a12, a12, a4
    3b41:	ff6a           	add.n	a15, a15, a6
    3b43:	dd4a           	add.n	a13, a13, a4
    3b45:	226a           	add.n	a2, a2, a6

00003b47 <_Z19ShortLongLapIllegalP5fractS0_S0_PKjS2_ii+0x8f>:
    3b47:	1197d0        	slli	a9, a7, 3
    3b4a:	21d8           	l32i.n	a13, a1, 8
    3b4c:	3188           	l32i.n	a8, a1, 12
    3b4e:	11a8           	l32i.n	a10, a1, 4
    3b50:	01b8           	l32i.n	a11, a1, 0
    3b52:	f06770        	subx8	a6, a7, a7
    3b55:	07d5c2        	addmi	a12, a5, 0x700
    3b58:	f8ccc2        	addi	a12, a12, -8
    3b5b:	112690        	slli	a2, a6, 7
    3b5e:	11f6a0        	slli	a15, a6, 6
    3b61:	f7fa           	add.n	a15, a7, a15
    3b63:	02dbb2        	addmi	a11, a11, 0x200
    3b66:	08daa2        	addmi	a10, a10, 0x800
    3b69:	282a           	add.n	a2, a8, a2
    3b6b:	a04f80        	addx4	a4, a15, a8
    3b6e:	116680        	slli	a6, a6, 8
    3b71:	0fddd2        	addmi	a13, a13, 0xf00
    3b74:	f8cdd2        	addi	a13, a13, -8
    3b77:	686a           	add.n	a6, a8, a6
    3b79:	90ff80        	addx2	a15, a15, a8
    3b7c:	082c           	movi.n	a8, 32
    3b7e:	60a876        	loopgtz	a8, 3be2 <_Z19ShortLongLapIllegalP5fractS0_S0_PKjS2_ii+0x12a>
    3b81:	540af4        	ae_lp24x2.i	aep0, a10, -8
    3b84:	541bf4        	ae_lp24x2.i	aep1, a11, -8
    3b87:	542c14        	ae_lp24x2.i	aep2, a12, 8
    3b8a:	543d14        	ae_lp24x2.i	aep3, a13, 8
    3b8d:	e94ccf8aae 	{ addi	a10, a10, -8; ae_mulfp24s.hh	aeq3, aep3, aep2 }
    3b92:	eb4d8f8bbe 	{ addi	a11, a11, -8; ae_mulfp24s.ll	aeq2, aep3, aep2 }
    3b97:	ed04808cce 	{ addi	a12, a12, 8; ae_mulsfp24s.hh	aeq2, aep1, aep0 }
    3b9c:	ef05c08dde 	{ addi	a13, a13, 8; ae_mulsfp24s.ll	aeq3, aep1, aep0 }
    3ba1:	eedc           	bnez.n	a14, 3bc3 <_Z19ShortLongLapIllegalP5fractS0_S0_PKjS2_ii+0x10b>
    3ba3:	013244        	ae_mulfp24s.hh	aeq0, aep3, aep2
    3ba6:	013a74        	ae_mulfp24s.ll	aeq1, aep3, aep2
    3ba9:	011884        	ae_mulsfp24s.hh	aeq1, aep1, aep0
    3bac:	0110b4        	ae_mulsfp24s.ll	aeq0, aep1, aep0
    3baf:	1b9c54        	ae_roundsp24q48sym	aep5, aeq1
    3bb2:	1b8c74        	ae_roundsp24q48sym	aep7, aeq0
    3bb5:	0bf0e4        	ae_sllisp24s	aep6, aep7, 1
    3bb8:	ca16b4660f 	{ ae_sp24f.l.i	aep6, a6, 0; ae_sllisp24s	aep4, aep5, 1 }
    3bbd:	524404        	ae_sp24f.l.i	aep4, a4, 0
    3bc0:	000586        	j	3bda <_Z19ShortLongLapIllegalP5fractS0_S0_PKjS2_ii+0x122>

00003bc3 <_Z19ShortLongLapIllegalP5fractS0_S0_PKjS2_ii+0x10b>:
    3bc3:	1bbc44        	ae_roundsp24q48sym	aep4, aeq3
    3bc6:	1bac54        	ae_roundsp24q48sym	aep5, aeq2
    3bc9:	0bd0d4        	ae_sllisp24s	aep5, aep5, 1
    3bcc:	0bc0f4        	ae_sllisp24s	aep7, aep4, 1
    3bcf:	0970e4        	ae_roundsp16sym	aep6, aep7
    3bd2:	fa17b2620f 	{ ae_sp16f.l.i	aep6, a2, 0; ae_roundsp16sym	aep4, aep5 }
    3bd7:	424f04        	ae_sp16f.l.i	aep4, a15, 0

00003bda <_Z19ShortLongLapIllegalP5fractS0_S0_PKjS2_ii+0x122>:
    3bda:	ff3a           	add.n	a15, a15, a3
    3bdc:	223a           	add.n	a2, a2, a3
    3bde:	449a           	add.n	a4, a4, a9
    3be0:	669a           	add.n	a6, a6, a9

00003be2 <_Z19ShortLongLapIllegalP5fractS0_S0_PKjS2_ii+0x12a>:
    3be2:	082c           	movi.n	a8, 32
    3be4:	11c8           	l32i.n	a12, a1, 4
    3be6:	116760        	slli	a6, a7, 10
    3be9:	01a8           	l32i.n	a10, a1, 0
    3beb:	114750        	slli	a4, a7, 11
    3bee:	31f8           	l32i.n	a15, a1, 12
    3bf0:	08d5b2        	addmi	a11, a5, 0x800
    3bf3:	11d770        	slli	a13, a7, 9
    3bf6:	d7da           	add.n	a13, a7, a13
    3bf8:	f8cbb2        	addi	a11, a11, -8
    3bfb:	a02df0        	addx4	a2, a13, a15
    3bfe:	90ddf0        	addx2	a13, a13, a15
    3c01:	4f4a           	add.n	a4, a15, a4
    3c03:	01daa2        	addmi	a10, a10, 0x100
    3c06:	ff6a           	add.n	a15, a15, a6
    3c08:	2168           	l32i.n	a6, a1, 8
    3c0a:	07dcc2        	addmi	a12, a12, 0x700
    3c0d:	fe248f8cce 	{ addi	a12, a12, -8; ae_zeroq56	aeq2 }
    3c12:	10d662        	addmi	a6, a6, 0x1000
    3c15:	4da876        	loopgtz	a8, 3c66 <_Z19ShortLongLapIllegalP5fractS0_S0_PKjS2_ii+0x1ae>
    3c18:	545b14        	ae_lp24x2.i	aep5, a11, 8
    3c1b:	5446f4        	ae_lp24x2.i	aep4, a6, -8
    3c1e:	eab0b03c1f 	{ ae_lp24x2.i	aep3, a12, 8; ae_mulfp24s.hl	aeq0, aep4, aep5 }
    3c23:	e8b1f02aff 	{ ae_lp24x2.i	aep2, a10, -8; ae_mulfp24s.lh	aeq1, aep4, aep5 }
    3c28:	012b24        	ae_mulafp24s.lh	aeq1, aep2, aep3
    3c2b:	012314        	ae_mulafp24s.hl	aeq0, aep2, aep3
    3c2e:	1b9c04        	ae_roundsp24q48sym	aep0, aeq1
    3c31:	1b8c14        	ae_roundsp24q48sym	aep1, aeq0
    3c34:	ff380f866e 	{ addi	a6, a6, -8; ae_negsp24s	aep6, aep1 }
    3c39:	ff184f8aae 	{ addi	a10, a10, -8; ae_negsp24s	aep7, aep0 }
    3c3e:	c81ec08bbe 	{ addi	a11, a11, 8; ae_sllisp24s	aep1, aep7, 1 }
    3c43:	c81a808cce 	{ addi	a12, a12, 8; ae_sllisp24s	aep0, aep6, 1 }
    3c48:	7ecc           	bnez.n	a14, 3c53 <_Z19ShortLongLapIllegalP5fractS0_S0_PKjS2_ii+0x19b>
    3c4a:	521404        	ae_sp24f.l.i	aep1, a4, 0
    3c4d:	520204        	ae_sp24f.l.i	aep0, a2, 0
    3c50:	000286        	j	3c5e <_Z19ShortLongLapIllegalP5fractS0_S0_PKjS2_ii+0x1a6>

00003c53 <_Z19ShortLongLapIllegalP5fractS0_S0_PKjS2_ii+0x19b>:
    3c53:	0910f4        	ae_roundsp16sym	aep7, aep1
    3c56:	fb03b27f0f 	{ ae_sp16f.l.i	aep7, a15, 0; ae_roundsp16sym	aep6, aep0 }
    3c5b:	426d04        	ae_sp16f.l.i	aep6, a13, 0

00003c5e <_Z19ShortLongLapIllegalP5fractS0_S0_PKjS2_ii+0x1a6>:
    3c5e:	dd3a           	add.n	a13, a13, a3
    3c60:	ff3a           	add.n	a15, a15, a3
    3c62:	229a           	add.n	a2, a2, a9
    3c64:	449a           	add.n	a4, a4, a9

00003c66 <_Z19ShortLongLapIllegalP5fractS0_S0_PKjS2_ii+0x1ae>:
    3c66:	e0a0f2        	movi	a15, 224
    3c69:	3188           	l32i.n	a8, a1, 12
    3c6b:	2128           	l32i.n	a2, a1, 8
    3c6d:	b0b770        	addx8	a11, a7, a7
    3c70:	09d542        	addmi	a4, a5, 0x900
    3c73:	f8c442        	addi	a4, a4, -8
    3c76:	116ba0        	slli	a6, a11, 6
    3c79:	676a           	add.n	a6, a7, a6
    3c7b:	0fd222        	addmi	a2, a2, 0xf00
    3c7e:	a0a680        	addx4	a10, a6, a8
    3c81:	117b90        	slli	a7, a11, 7
    3c84:	787a           	add.n	a7, a8, a7
    3c86:	906680        	addx2	a6, a6, a8
    3c89:	11bb80        	slli	a11, a11, 8
    3c8c:	b8ba           	add.n	a11, a8, a11
    3c8e:	53af76        	loopgtz	a15, 3ce5 <_Z19ShortLongLapIllegalP5fractS0_S0_PKjS2_ii+0x22d>
    3c91:	fd1470141f 	{ ae_lp24x2.i	aep1, a4, 8; ae_movq56	aeq1, aeq2 }
    3c96:	ff147002ff 	{ ae_lp24x2.i	aep0, a2, -8; ae_movq56	aeq3, aeq2 }
    3c9b:	ed21cf822e 	{ addi	a2, a2, -8; ae_mulsfp24s.lh	aeq3, aep0, aep1 }
    3ca0:	ee20c0844e 	{ addi	a4, a4, 8; ae_mulsfp24s.hl	aeq1, aep0, aep1 }
    3ca5:	dedc           	bnez.n	a14, 3cc6 <_Z19ShortLongLapIllegalP5fractS0_S0_PKjS2_ii+0x20e>
    3ca7:	06eb34        	ae_movq56	aeq3, aeq2
    3caa:	ef20ff213f 	{ ae_movq56	aeq0, aeq2; ae_mulsfp24s.hl	aeq3, aep0, aep1 }
    3caf:	0101a4        	ae_mulsfp24s.lh	aeq0, aep0, aep1
    3cb2:	1bbc34        	ae_roundsp24q48sym	aep3, aeq3
    3cb5:	1b8c54        	ae_roundsp24q48sym	aep5, aeq0
    3cb8:	0bd0c4        	ae_sllisp24s	aep4, aep5, 1
    3cbb:	c90eb44b0f 	{ ae_sp24f.l.i	aep4, a11, 0; ae_sllisp24s	aep2, aep3, 1 }
    3cc0:	522a04        	ae_sp24f.l.i	aep2, a10, 0
    3cc3:	000586        	j	3cdd <_Z19ShortLongLapIllegalP5fractS0_S0_PKjS2_ii+0x225>

00003cc6 <_Z19ShortLongLapIllegalP5fractS0_S0_PKjS2_ii+0x20e>:
    3cc6:	1bbc54        	ae_roundsp24q48sym	aep5, aeq3
    3cc9:	1b9c44        	ae_roundsp24q48sym	aep4, aeq1
    3ccc:	0bc0f4        	ae_sllisp24s	aep7, aep4, 1
    3ccf:	0bd0b4        	ae_sllisp24s	aep3, aep5, 1
    3cd2:	0930a4        	ae_roundsp16sym	aep2, aep3
    3cd5:	fb1fb2270f 	{ ae_sp16f.l.i	aep2, a7, 0; ae_roundsp16sym	aep6, aep7 }
    3cda:	426604        	ae_sp16f.l.i	aep6, a6, 0

00003cdd <_Z19ShortLongLapIllegalP5fractS0_S0_PKjS2_ii+0x225>:
    3cdd:	663a           	add.n	a6, a6, a3
    3cdf:	773a           	add.n	a7, a7, a3
    3ce1:	aa9a           	add.n	a10, a10, a9
    3ce3:	bb9a           	add.n	a11, a11, a9

00003ce5 <_Z19ShortLongLapIllegalP5fractS0_S0_PKjS2_ii+0x22d>:
    3ce5:	f01d           	retw.n

00003ce7 <_Z19ShortLongLapIllegalP5fractS0_S0_PKjS2_ii+0x22f>:
	...

00003ce8 <_Z19LongShortLapIllegalP5fractS0_S0_PKjS2_S2_ii>:
    3ce8:	00c136        	entry	a1, 96
    3ceb:	04cd           	mov.n	a12, a4
    3ced:	10d7a2        	addmi	a10, a7, 0x1000
    3cf0:	04dd           	mov.n	a13, a4
    3cf2:	e0a082        	movi	a8, 224
    3cf5:	8139           	s32i.n	a3, a1, 32
    3cf7:	08d392        	addmi	a9, a3, 0x800
    3cfa:	7129           	s32i.n	a2, a1, 28
    3cfc:	b159           	s32i.n	a5, a1, 44
    3cfe:	192122        	l32i	a2, a1, 100
    3d01:	065d           	mov.n	a5, a6
    3d03:	182132        	l32i	a3, a1, 96
    3d06:	5159           	s32i.n	a5, a1, 20
    3d08:	6139           	s32i.n	a3, a1, 24
    3d0a:	11f3e0        	slli	a15, a3, 2
    3d0d:	a0e340        	addx4	a14, a3, a4
    3d10:	fe2491b34f 	{ addx2	a11, a3, a4; ae_zeroq56	aeq2 }
    3d15:	1133f0        	slli	a3, a3, 1
    3d18:	1163e0        	slli	a6, a3, 2
    3d1b:	1133f0        	slli	a3, a3, 1
    3d1e:	53a876        	loopgtz	a8, 3d75 <_Z19LongShortLapIllegalP5fractS0_S0_PKjS2_S2_ii+0x8d>
    3d21:	ff147009ff 	{ ae_lp24x2.i	aep0, a9, -8; ae_movq56	aeq3, aeq2 }
    3d26:	fc14701aff 	{ ae_lp24x2.i	aep1, a10, -8; ae_movq56	aeq0, aeq2 }
    3d2b:	ee058f899e 	{ addi	a9, a9, -8; ae_mulsfp24s.ll	aeq0, aep1, aep0 }
    3d30:	ed04cf8aae 	{ addi	a10, a10, -8; ae_mulsfp24s.hh	aeq3, aep1, aep0 }
    3d35:	d2dc           	bnez.n	a2, 3d56 <_Z19LongShortLapIllegalP5fractS0_S0_PKjS2_S2_ii+0x6e>
    3d37:	062b34        	ae_movq56	aeq0, aeq2
    3d3a:	ec04bf217f 	{ ae_movq56	aeq1, aeq2; ae_mulsfp24s.hh	aeq0, aep1, aep0 }
    3d3f:	0118b4        	ae_mulsfp24s.ll	aeq1, aep1, aep0
    3d42:	1b8c34        	ae_roundsp24q48sym	aep3, aeq0
    3d45:	1b9c54        	ae_roundsp24q48sym	aep5, aeq1
    3d48:	0bd0c4        	ae_sllisp24s	aep4, aep5, 1
    3d4b:	c90eb4440f 	{ ae_sp24f.l.i	aep4, a4, 0; ae_sllisp24s	aep2, aep3, 1 }
    3d50:	522e04        	ae_sp24f.l.i	aep2, a14, 0
    3d53:	000586        	j	3d6d <_Z19LongShortLapIllegalP5fractS0_S0_PKjS2_S2_ii+0x85>

00003d56 <_Z19LongShortLapIllegalP5fractS0_S0_PKjS2_S2_ii+0x6e>:
    3d56:	1b8c54        	ae_roundsp24q48sym	aep5, aeq0
    3d59:	1bbc44        	ae_roundsp24q48sym	aep4, aeq3
    3d5c:	0bc0f4        	ae_sllisp24s	aep7, aep4, 1
    3d5f:	0bd0b4        	ae_sllisp24s	aep3, aep5, 1
    3d62:	0930a4        	ae_roundsp16sym	aep2, aep3
    3d65:	fb1fb22d0f 	{ ae_sp16f.l.i	aep2, a13, 0; ae_roundsp16sym	aep6, aep7 }
    3d6a:	426b04        	ae_sp16f.l.i	aep6, a11, 0

00003d6d <_Z19LongShortLapIllegalP5fractS0_S0_PKjS2_S2_ii+0x85>:
    3d6d:	bb3a           	add.n	a11, a11, a3
    3d6f:	ee6a           	add.n	a14, a14, a6
    3d71:	dd3a           	add.n	a13, a13, a3
    3d73:	446a           	add.n	a4, a4, a6

00003d75 <_Z19LongShortLapIllegalP5fractS0_S0_PKjS2_S2_ii+0x8d>:
    3d75:	09d7d2        	addmi	a13, a7, 0x900
    3d78:	082c           	movi.n	a8, 32
    3d7a:	71a8           	l32i.n	a10, a1, 28
    3d7c:	5198           	l32i.n	a9, a1, 20
    3d7e:	6148           	l32i.n	a4, a1, 24
    3d80:	81b8           	l32i.n	a11, a1, 32
    3d82:	f8c992        	addi	a9, a9, -8
    3d85:	f05440        	subx8	a5, a4, a4
    3d88:	01dbb2        	addmi	a11, a11, 0x100
    3d8b:	01daa2        	addmi	a10, a10, 0x100
    3d8e:	f8caa2        	addi	a10, a10, -8
    3d91:	41b9           	s32i.n	a11, a1, 16
    3d93:	11e590        	slli	a14, a5, 7
    3d96:	1165a0        	slli	a6, a5, 6
    3d99:	646a           	add.n	a6, a4, a6
    3d9b:	80ece0        	add	a14, a12, a14
    3d9e:	1144d0        	slli	a4, a4, 3
    3da1:	a036c0        	addx4	a3, a6, a12
    3da4:	115580        	slli	a5, a5, 8
    3da7:	805c50        	add	a5, a12, a5
    3daa:	9066c0        	addx2	a6, a6, a12
    3dad:	60a876        	loopgtz	a8, 3e11 <_Z19LongShortLapIllegalP5fractS0_S0_PKjS2_S2_ii+0x129>
    3db0:	542bf4        	ae_lp24x2.i	aep2, a11, -8
    3db3:	543df4        	ae_lp24x2.i	aep3, a13, -8
    3db6:	540914        	ae_lp24x2.i	aep0, a9, 8
    3db9:	541a14        	ae_lp24x2.i	aep1, a10, 8
    3dbc:	e8048f8bbe 	{ addi	a11, a11, -8; ae_mulfp24s.hh	aeq0, aep1, aep0 }
    3dc1:	eb05cf8dde 	{ addi	a13, a13, -8; ae_mulfp24s.ll	aeq3, aep1, aep0 }
    3dc6:	ed4cc0899e 	{ addi	a9, a9, 8; ae_mulsfp24s.hh	aeq3, aep3, aep2 }
    3dcb:	ee4d808aae 	{ addi	a10, a10, 8; ae_mulsfp24s.ll	aeq0, aep3, aep2 }
    3dd0:	e2dc           	bnez.n	a2, 3df2 <_Z19LongShortLapIllegalP5fractS0_S0_PKjS2_S2_ii+0x10a>
    3dd2:	011844        	ae_mulfp24s.hh	aeq1, aep1, aep0
    3dd5:	019074        	ae_mulfp24s.ll	aeq2, aep1, aep0
    3dd8:	01b284        	ae_mulsfp24s.hh	aeq2, aep3, aep2
    3ddb:	013ab4        	ae_mulsfp24s.ll	aeq1, aep3, aep2
    3dde:	1bac74        	ae_roundsp24q48sym	aep7, aeq2
    3de1:	1b9c54        	ae_roundsp24q48sym	aep5, aeq1
    3de4:	0bd0c4        	ae_sllisp24s	aep4, aep5, 1
    3de7:	cb1eb4450f 	{ ae_sp24f.l.i	aep4, a5, 0; ae_sllisp24s	aep6, aep7, 1 }
    3dec:	526304        	ae_sp24f.l.i	aep6, a3, 0
    3def:	000586        	j	3e09 <_Z19LongShortLapIllegalP5fractS0_S0_PKjS2_S2_ii+0x121>

00003df2 <_Z19LongShortLapIllegalP5fractS0_S0_PKjS2_S2_ii+0x10a>:
    3df2:	1b8c64        	ae_roundsp24q48sym	aep6, aeq0
    3df5:	1bbc74        	ae_roundsp24q48sym	aep7, aeq3
    3df8:	0bf0f4        	ae_sllisp24s	aep7, aep7, 1
    3dfb:	0be0d4        	ae_sllisp24s	aep5, aep6, 1
    3dfe:	0950c4        	ae_roundsp16sym	aep4, aep5
    3e01:	fb1fb24e0f 	{ ae_sp16f.l.i	aep4, a14, 0; ae_roundsp16sym	aep6, aep7 }
    3e06:	426604        	ae_sp16f.l.i	aep6, a6, 0

00003e09 <_Z19LongShortLapIllegalP5fractS0_S0_PKjS2_S2_ii+0x121>:
    3e09:	66fa           	add.n	a6, a6, a15
    3e0b:	eefa           	add.n	a14, a14, a15
    3e0d:	334a           	add.n	a3, a3, a4
    3e0f:	554a           	add.n	a5, a5, a4

00003e11 <_Z19LongShortLapIllegalP5fractS0_S0_PKjS2_S2_ii+0x129>:
    3e11:	400200        	ssr	a2
    3e14:	082c           	movi.n	a8, 32
    3e16:	51a8           	l32i.n	a10, a1, 20
    3e18:	61e8           	l32i.n	a14, a1, 24
    3e1a:	8198           	l32i.n	a9, a1, 32
    3e1c:	08d7d2        	addmi	a13, a7, 0x800
    3e1f:	71b8           	l32i.n	a11, a1, 28
    3e21:	07d772        	addmi	a7, a7, 0x700
    3e24:	f8c772        	addi	a7, a7, -8
    3e27:	02dbb2        	addmi	a11, a11, 0x200
    3e2a:	f8c992        	addi	a9, a9, -8
    3e2d:	115e50        	slli	a5, a14, 11
    3e30:	116e70        	slli	a6, a14, 9
    3e33:	01daa2        	addmi	a10, a10, 0x100
    3e36:	f8caa2        	addi	a10, a10, -8
    3e39:	6e6a           	add.n	a6, a14, a6
    3e3b:	5c5a           	add.n	a5, a12, a5
    3e3d:	a036c0        	addx4	a3, a6, a12
    3e40:	9066c0        	addx2	a6, a6, a12
    3e43:	11ee60        	slli	a14, a14, 10
    3e46:	80ece0        	add	a14, a12, a14
    3e49:	4da876        	loopgtz	a8, 3e9a <_Z19LongShortLapIllegalP5fractS0_S0_PKjS2_S2_ii+0x1b2>
    3e4c:	547a14        	ae_lp24x2.i	aep7, a10, 8
    3e4f:	546bf4        	ae_lp24x2.i	aep6, a11, -8
    3e52:	eaf8f0591f 	{ ae_lp24x2.i	aep5, a9, 8; ae_mulfp24s.hl	aeq1, aep6, aep7 }
    3e57:	e9f9b04dff 	{ ae_lp24x2.i	aep4, a13, -8; ae_mulfp24s.lh	aeq2, aep6, aep7 }
    3e5c:	01c524        	ae_mulafp24s.lh	aeq2, aep4, aep5
    3e5f:	014d14        	ae_mulafp24s.hl	aeq1, aep4, aep5
    3e62:	1bac24        	ae_roundsp24q48sym	aep2, aeq2
    3e65:	1b9c34        	ae_roundsp24q48sym	aep3, aeq1
    3e68:	fc780f8bbe 	{ addi	a11, a11, -8; ae_negsp24s	aep0, aep3 }
    3e6d:	fc584f8dde 	{ addi	a13, a13, -8; ae_negsp24s	aep1, aep2 }
    3e72:	c806c0899e 	{ addi	a9, a9, 8; ae_sllisp24s	aep1, aep1, 1 }
    3e77:	c802808aae 	{ addi	a10, a10, 8; ae_sllisp24s	aep0, aep0, 1 }
    3e7c:	72cc           	bnez.n	a2, 3e87 <_Z19LongShortLapIllegalP5fractS0_S0_PKjS2_S2_ii+0x19f>
    3e7e:	521504        	ae_sp24f.l.i	aep1, a5, 0
    3e81:	520304        	ae_sp24f.l.i	aep0, a3, 0
    3e84:	000286        	j	3e92 <_Z19LongShortLapIllegalP5fractS0_S0_PKjS2_S2_ii+0x1aa>

00003e87 <_Z19LongShortLapIllegalP5fractS0_S0_PKjS2_S2_ii+0x19f>:
    3e87:	0910b4        	ae_roundsp16sym	aep3, aep1
    3e8a:	f903b23e0f 	{ ae_sp16f.l.i	aep3, a14, 0; ae_roundsp16sym	aep2, aep0 }
    3e8f:	422604        	ae_sp16f.l.i	aep2, a6, 0

00003e92 <_Z19LongShortLapIllegalP5fractS0_S0_PKjS2_S2_ii+0x1aa>:
    3e92:	66fa           	add.n	a6, a6, a15
    3e94:	eefa           	add.n	a14, a14, a15
    3e96:	334a           	add.n	a3, a3, a4
    3e98:	554a           	add.n	a5, a5, a4

00003e9a <_Z19LongShortLapIllegalP5fractS0_S0_PKjS2_S2_ii+0x1b2>:
    3e9a:	4138           	l32i.n	a3, a1, 16
    3e9c:	7158           	l32i.n	a5, a1, 28
    3e9e:	060c           	movi.n	a6, 0
    3ea0:	6188           	l32i.n	a8, a1, 24
    3ea2:	c169           	s32i.n	a6, a1, 48
    3ea4:	860c           	movi.n	a6, 8
    3ea6:	b04880        	addx8	a4, a8, a8
    3ea9:	119880        	slli	a9, a8, 8
    3eac:	03d552        	addmi	a5, a5, 0x300
    3eaf:	f8c552        	addi	a5, a5, -8
    3eb2:	9199           	s32i.n	a9, a1, 36
    3eb4:	1144a0        	slli	a4, a4, 6
    3eb7:	c04480        	sub	a4, a4, a8
    3eba:	9190f0        	srl	a9, a15
    3ebd:	a199           	s32i.n	a9, a1, 40
    3ebf:	1144e0        	slli	a4, a4, 2
    3ec2:	914040        	srl	a4, a4
    3ec5:	4c4a           	add.n	a4, a12, a4

00003ec7 <_Z19LongShortLapIllegalP5fractS0_S0_PKjS2_S2_ii+0x1df>:
    3ec7:	1129           	s32i.n	a2, a1, 4
    3ec9:	05ad           	mov.n	a10, a5
    3ecb:	06bd           	mov.n	a11, a6
    3ecd:	b1c8           	l32i.n	a12, a1, 44
    3ecf:	07dd           	mov.n	a13, a7
    3ed1:	03ed           	mov.n	a14, a3
    3ed3:	04fd           	mov.n	a15, a4
    3ed5:	f09e81        	l32r	a8, 150 (3f4c <_Z24LongShortLapIllegal_one3PK5fractiPKjS3_S1_PS_ii>)
    3ed8:	a198           	l32i.n	a9, a1, 40
    3eda:	0199           	s32i.n	a9, a1, 0
    3edc:	0008e0        	callx8	a8
    3edf:	01d552        	addmi	a5, a5, 0x100
    3ee2:	606060        	neg	a6, a6
    3ee5:	ffd772        	addmi	a7, a7, 0xffffff00
    3ee8:	01d332        	addmi	a3, a3, 0x100
    3eeb:	91b8           	l32i.n	a11, a1, 36
    3eed:	c1a8           	l32i.n	a10, a1, 48
    3eef:	400200        	ssr	a2
    3ef2:	91b0b0        	srl	a11, a11
    3ef5:	aa1b           	addi.n	a10, a10, 1
    3ef7:	c1a9           	s32i.n	a10, a1, 48
    3ef9:	44ba           	add.n	a4, a4, a11
    3efb:	c87a66        	bnei	a10, 7, 3ec7 <_Z19LongShortLapIllegalP5fractS0_S0_PKjS2_S2_ii+0x1df>
    3efe:	0e2c           	movi.n	a14, 32
    3f00:	81a8           	l32i.n	a10, a1, 32
    3f02:	0721b2        	l32i	a11, a1, 28
    3f05:	0b21c2        	l32i	a12, a1, 44
    3f08:	fccaa2        	addi	a10, a10, -4
    3f0b:	0adbd2        	addmi	a13, a11, 0xa00
    3f0e:	01dc92        	addmi	a9, a12, 0x100
    3f11:	f8c992        	addi	a9, a9, -8
    3f14:	01dcc2        	addmi	a12, a12, 0x100
    3f17:	06dbb2        	addmi	a11, a11, 0x600
    3f1a:	f8cbb2        	addi	a11, a11, -8
    3f1d:	26ae76        	loopgtz	a14, 3f47 <_Z19LongShortLapIllegalP5fractS0_S0_PKjS2_S2_ii+0x25f>
    3f20:	54b914        	ae_lp24x2.iu	aep3, a9, 8
    3f23:	54adf4        	ae_lp24x2.iu	aep2, a13, -8
    3f26:	e969f09cff 	{ ae_lp24x2.iu	aep1, a12, -8; ae_mulfp24s.lh	aeq3, aep2, aep3 }
    3f2b:	ea68b08b1f 	{ ae_lp24x2.iu	aep0, a11, 8; ae_mulfp24s.hl	aeq0, aep2, aep3 }
    3f30:	010124        	ae_mulafp24s.lh	aeq0, aep0, aep1
    3f33:	018914        	ae_mulafp24s.hl	aeq3, aep0, aep1
    3f36:	1b8c54        	ae_roundsp24q48sym	aep5, aeq0
    3f39:	1bbc74        	ae_roundsp24q48sym	aep7, aeq3
    3f3c:	078f64        	ae_negsp24s	aep6, aep7
    3f3f:	feb8356a1f 	{ ae_sp24s.l.i	aep6, a10, 4; ae_negsp24s	aep4, aep5 }
    3f44:	4eca24        	ae_sp24s.l.iu	aep4, a10, 8

00003f47 <_Z19LongShortLapIllegalP5fractS0_S0_PKjS2_S2_ii+0x25f>:
    3f47:	f01d           	retw.n

00003f49 <_Z19LongShortLapIllegalP5fractS0_S0_PKjS2_S2_ii+0x261>:
    3f49:	000000                                        ...

00003f4c <_Z24LongShortLapIllegal_one3PK5fractiPKjS3_S1_PS_ii>:
    3f4c:	004136        	entry	a1, 32
    3f4f:	91c8           	l32i.n	a12, a1, 36
    3f51:	082c           	movi.n	a8, 32
    3f53:	08aee2        	movi	a14, 0xfffffe08
    3f56:	360334        	ae_cvtq48a32s	aeq0, a3
    3f59:	31af30        	srai	a10, a3, 31
    3f5c:	11ba80        	slli	a11, a10, 8
    3f5f:	11daa0        	slli	a13, a10, 6
    3f62:	dada           	add.n	a13, a10, a13
    3f64:	c094b0        	sub	a9, a4, a11
    3f67:	f8c992        	addi	a9, a9, -8
    3f6a:	b0dd20        	addx8	a13, a13, a2
    3f6d:	80b4b0        	add	a11, a4, a11
    3f70:	02db42        	addmi	a4, a11, 0x200
    3f73:	11aaf0        	slli	a10, a10, 1
    3f76:	0821b2        	l32i	a11, a1, 32
    3f79:	11aae0        	slli	a10, a10, 2
    3f7c:	fd2495a2af 	{ sub	a10, a2, a10; ae_zeroq56	aeq1 }
    3f81:	d648102def 	{ add	a2, a13, a14; ae_ltq56s	b0, aeq0, aeq1 }
    3f86:	60d030        	neg	a13, a3
    3f89:	60a876        	loopgtz	a8, 3fed <_Z24LongShortLapIllegal_one3PK5fractiPKjS3_S1_PS_ii+0xa1>
    3f8c:	55ea34        	ae_lp24x2.xu	aep6, a10, a3
    3f8f:	dcd9a042df 	{ ae_lp24x2.xu	aep4, a2, a13; ae_selp24.lh	aep0, aep6, aep6 }
    3f94:	1ac494        	ae_selp24.lh	aep1, aep4, aep4
    3f97:	18c904        	ae_movtp48	aep4, aep1, b0
    3f9a:	d11830791f 	{ ae_lp24x2.i	aep7, a9, 8; ae_movtp48	aep6, aep0, b0 }
    3f9f:	01e744        	ae_mulfp24s.hh	aeq2, aep6, aep7
    3fa2:	ebf9f0360f 	{ ae_lp24x2.i	aep3, a6, 0; ae_mulfp24s.ll	aeq3, aep6, aep7 }
    3fa7:	fd90b054ff 	{ ae_lp24x2.i	aep5, a4, -8; ae_negq56	aeq1, aeq2 }
    3fac:	fc94be90bf 	{ ae_movtq56	aeq2, aeq1, b0; ae_negq56	aeq0, aeq3 }
    3fb1:	efb1be80ff 	{ ae_movtq56	aeq3, aeq0, b0; ae_mulsfp24s.ll	aeq2, aep4, aep5 }
    3fb6:	edb0f0250f 	{ ae_lp24x2.i	aep2, a5, 0; ae_mulsfp24s.hh	aeq3, aep4, aep5 }
    3fbb:	01ab94        	ae_mulsfp24s.hl	aeq3, aep2, aep3
    3fbe:	01a3a4        	ae_mulsfp24s.lh	aeq2, aep2, aep3
    3fc1:	f8ff8f855e 	{ addi	a5, a5, -8; ae_roundsp24q48sym	aep0, aeq3 }
    3fc6:	f8f7cf844e 	{ addi	a4, a4, -8; ae_roundsp24q48sym	aep1, aeq2 }
    3fcb:	c806c0866e 	{ addi	a6, a6, 8; ae_sllisp24s	aep1, aep1, 1 }
    3fd0:	c80280899e 	{ addi	a9, a9, 8; ae_sllisp24s	aep0, aep0, 1 }
    3fd5:	7ccc           	bnez.n	a12, 3fe0 <_Z24LongShortLapIllegal_one3PK5fractiPKjS3_S1_PS_ii+0x94>
    3fd7:	5397b4        	ae_sp24f.l.xu	aep1, a7, a11
    3fda:	5387b4        	ae_sp24f.l.xu	aep0, a7, a11
    3fdd:	000286        	j	3feb <_Z24LongShortLapIllegal_one3PK5fractiPKjS3_S1_PS_ii+0x9f>

00003fe0 <_Z24LongShortLapIllegal_one3PK5fractiPKjS3_S1_PS_ii+0x94>:
    3fe0:	0910b4        	ae_roundsp16sym	aep3, aep1
    3fe3:	f903a3b7bf 	{ ae_sp16f.l.xu	aep3, a7, a11; ae_roundsp16sym	aep2, aep0 }
    3fe8:	43a7b4        	ae_sp16f.l.xu	aep2, a7, a11

00003feb <_Z24LongShortLapIllegal_one3PK5fractiPKjS3_S1_PS_ii+0x9f>:
    3feb:	f03d           	nop.n

00003fed <_Z24LongShortLapIllegal_one3PK5fractiPKjS3_S1_PS_ii+0xa1>:
    3fed:	f01d           	retw.n

00003fef <_Z24LongShortLapIllegal_one3PK5fractiPKjS3_S1_PS_ii+0xa3>:
	...

00003ff0 <_Z15CStreamInfoInitP11CStreamInfo>:
    3ff0:	004136        	entry	a1, 32
    3ff3:	080c           	movi.n	a8, 0
    3ff5:	00a432        	movi	a3, 0x400
    3ff8:	6239           	s32i.n	a3, a2, 24
    3ffa:	004282        	s8i	a8, a2, 0
    3ffd:	1289           	s32i.n	a8, a2, 4
    3fff:	2289           	s32i.n	a8, a2, 8
    4001:	3289           	s32i.n	a8, a2, 12
    4003:	4289           	s32i.n	a8, a2, 16
    4005:	5289           	s32i.n	a8, a2, 20
    4007:	f01d           	retw.n

00004009 <_Z15CStreamInfoInitP11CStreamInfo+0x19>:
    4009:	00000000 36000000                                .......

00004010 <_Z30MapMidSideMaskToPnsCorrelationPP22CAacDecoderChannelInfo>:
    4010:	004136        	entry	a1, 32
    4013:	02a8           	l32i.n	a10, a2, 0
    4015:	0ad8           	l32i.n	a13, a10, 0
    4017:	090db2        	l8ui	a11, a13, 9
    401a:	23bb00        	sext	a11, a11, 7
    401d:	021be6        	bgei	a11, 1, 4023 <_Z30MapMidSideMaskToPnsCorrelationPP22CAacDecoderChannelInfo+0x13>
    4020:	002486        	j	40b6 <_Z30MapMidSideMaskToPnsCorrelationPP22CAacDecoderChannelInfo+0xa6>
    4023:	040dc2        	l8ui	a12, a13, 4
    4026:	050c           	movi.n	a5, 0
    4028:	160c           	movi.n	a6, 1
    402a:	23cc00        	sext	a12, a12, 7
    402d:	001686        	j	408b <_Z30MapMidSideMaskToPnsCorrelationPP22CAacDecoderChannelInfo+0x7b>

00004030 <_Z30MapMidSideMaskToPnsCorrelationPP22CAacDecoderChannelInfo+0x20>:
    4030:	000000                                        ...

00004033 <_Z30MapMidSideMaskToPnsCorrelationPP22CAacDecoderChannelInfo+0x23>:
    4033:	f04881        	l32r	a8, 154 (1568 <_Z19CPns_SetCorrelationP22CAacDecoderChannelInfoii>)
    4036:	05bd           	mov.n	a11, a5
    4038:	03cd           	mov.n	a12, a3
    403a:	0008e0        	callx8	a8
    403d:	02a8           	l32i.n	a10, a2, 0
    403f:	f00e81        	l32r	a8, 78 (1590 <_Z14CPns_IsPnsUsedP22CAacDecoderChannelInfoii>)
    4042:	05bd           	mov.n	a11, a5
    4044:	03cd           	mov.n	a12, a3
    4046:	0008e0        	callx8	a8
    4049:	064a16        	beqz	a10, 40b1 <_Z30MapMidSideMaskToPnsCorrelationPP22CAacDecoderChannelInfo+0xa1>
    404c:	12a8           	l32i.n	a10, a2, 4
    404e:	f00a81        	l32r	a8, 78 (1590 <_Z14CPns_IsPnsUsedP22CAacDecoderChannelInfoii>)
    4051:	05bd           	mov.n	a11, a5
    4053:	03cd           	mov.n	a12, a3
    4055:	0008e0        	callx8	a8
    4058:	055a16        	beqz	a10, 40b1 <_Z30MapMidSideMaskToPnsCorrelationPP22CAacDecoderChannelInfo+0xa1>
    405b:	190c           	movi.n	a9, 1

0000405d <_Z30MapMidSideMaskToPnsCorrelationPP22CAacDecoderChannelInfo+0x4d>:
    405d:	d98c           	beqz.n	a9, 406e <_Z30MapMidSideMaskToPnsCorrelationPP22CAacDecoderChannelInfo+0x5e>
    405f:	02a8           	l32i.n	a10, a2, 0
    4061:	4aa8           	l32i.n	a10, a10, 16
    4063:	a3aa           	add.n	a10, a3, a10
    4065:	010a92        	l8ui	a9, a10, 1
    4068:	309940        	xor	a9, a9, a4
    406b:	014a92        	s8i	a9, a10, 1

0000406e <_Z30MapMidSideMaskToPnsCorrelationPP22CAacDecoderChannelInfo+0x5e>:
    406e:	02a8           	l32i.n	a10, a2, 0
    4070:	0ad8           	l32i.n	a13, a10, 0
    4072:	040dc2        	l8ui	a12, a13, 4
    4075:	331b           	addi.n	a3, a3, 1
    4077:	233300        	sext	a3, a3, 7
    407a:	23cc00        	sext	a12, a12, 7
    407d:	1823c7        	blt	a3, a12, 4099 <_Z30MapMidSideMaskToPnsCorrelationPP22CAacDecoderChannelInfo+0x89>

00004080 <_Z30MapMidSideMaskToPnsCorrelationPP22CAacDecoderChannelInfo+0x70>:
    4080:	090db2        	l8ui	a11, a13, 9
    4083:	23bb00        	sext	a11, a11, 7

00004086 <_Z30MapMidSideMaskToPnsCorrelationPP22CAacDecoderChannelInfo+0x76>:
    4086:	551b           	addi.n	a5, a5, 1
    4088:	2aa5b7        	bge	a5, a11, 40b6 <_Z30MapMidSideMaskToPnsCorrelationPP22CAacDecoderChannelInfo+0xa6>

0000408b <_Z30MapMidSideMaskToPnsCorrelationPP22CAacDecoderChannelInfo+0x7b>:
    408b:	f71ca6        	blti	a12, 1, 4086 <_Z30MapMidSideMaskToPnsCorrelationPP22CAacDecoderChannelInfo+0x76>
    408e:	030c           	movi.n	a3, 0
    4090:	401500        	ssl	a5
    4093:	a14600        	sll	a4, a6
    4096:	744040        	extui	a4, a4, 0, 8

00004099 <_Z30MapMidSideMaskToPnsCorrelationPP22CAacDecoderChannelInfo+0x89>:
    4099:	4ab8           	l32i.n	a11, a10, 16
    409b:	0f8076        	loop	a0, 40ae <_Z30MapMidSideMaskToPnsCorrelationPP22CAacDecoderChannelInfo+0x9e>
    409e:	83ba           	add.n	a8, a3, a11
    40a0:	010882        	l8ui	a8, a8, 1
    40a3:	8c8487        	bany	a4, a8, 4033 <_Z30MapMidSideMaskToPnsCorrelationPP22CAacDecoderChannelInfo+0x23>
    40a6:	331b           	addi.n	a3, a3, 1
    40a8:	233300        	sext	a3, a3, 7
    40ab:	d1a3c7        	bge	a3, a12, 4080 <_Z30MapMidSideMaskToPnsCorrelationPP22CAacDecoderChannelInfo+0x70>

000040ae <_Z30MapMidSideMaskToPnsCorrelationPP22CAacDecoderChannelInfo+0x9e>:
    40ae:	fffa46        	j	409b <_Z30MapMidSideMaskToPnsCorrelationPP22CAacDecoderChannelInfo+0x8b>

000040b1 <_Z30MapMidSideMaskToPnsCorrelationPP22CAacDecoderChannelInfo+0xa1>:
    40b1:	090c           	movi.n	a9, 0
    40b3:	ffe986        	j	405d <_Z30MapMidSideMaskToPnsCorrelationPP22CAacDecoderChannelInfo+0x4d>

000040b6 <_Z30MapMidSideMaskToPnsCorrelationPP22CAacDecoderChannelInfo+0xa6>:
    40b6:	f01d           	retw.n

000040b8 <_Z26CChannelPairElement_DecodePP28CAacDecoderStaticChannelInfoPP22CAacDecoderChannelInfo>:
    40b8:	004136        	entry	a1, 32
    40bb:	03b8           	l32i.n	a11, a3, 0
    40bd:	3bf8           	l32i.n	a15, a11, 12
    40bf:	000ff2        	l8ui	a15, a15, 0
    40c2:	efe741        	l32r	a4, 60 (109f0 <SamplingRateInfoTable>)
    40c5:	5b88           	l32i.n	a8, a11, 20
    40c7:	04ff16        	beqz	a15, 411a <_Z26CChannelPairElement_DecodePP28CAacDecoderStaticChannelInfoPP22CAacDecoderChannelInfo+0x62>
    40ca:	140882        	l8ui	a8, a8, 20
    40cd:	78cc           	bnez.n	a8, 40d8 <_Z26CChannelPairElement_DecodePP28CAacDecoderStaticChannelInfoPP22CAacDecoderChannelInfo+0x20>
    40cf:	1398           	l32i.n	a9, a3, 4
    40d1:	5998           	l32i.n	a9, a9, 20
    40d3:	140992        	l8ui	a9, a9, 20
    40d6:	898c           	beqz.n	a9, 40e2 <_Z26CChannelPairElement_DecodePP28CAacDecoderStaticChannelInfoPP22CAacDecoderChannelInfo+0x2a>

000040d8 <_Z26CChannelPairElement_DecodePP28CAacDecoderStaticChannelInfoPP22CAacDecoderChannelInfo+0x20>:
    40d8:	f02081        	l32r	a8, 158 (4010 <_Z30MapMidSideMaskToPnsCorrelationPP22CAacDecoderChannelInfo>)
    40db:	03ad           	mov.n	a10, a3
    40dd:	0008e0        	callx8	a8
    40e0:	03b8           	l32i.n	a11, a3, 0

000040e2 <_Z26CChannelPairElement_DecodePP28CAacDecoderStaticChannelInfoPP22CAacDecoderChannelInfo+0x2a>:
    40e2:	0be8           	l32i.n	a14, a11, 0
    40e4:	03ad           	mov.n	a10, a3
    40e6:	f01d81        	l32r	a8, 15c (1fa8 <_Z20CJointStereo_ApplyMSPP22CAacDecoderChannelInfoPKtPcii>)
    40e9:	ceab           	addi.n	a12, a14, 10
    40eb:	090ed2        	l8ui	a13, a14, 9
    40ee:	070eb2        	l8ui	a11, a14, 7
    40f1:	030ef2        	l8ui	a15, a14, 3
    40f4:	23dd00        	sext	a13, a13, 7
    40f7:	23bb00        	sext	a11, a11, 7
    40fa:	a0bbb0        	addx4	a11, a11, a11
    40fd:	040ee2        	l8ui	a14, a14, 4
    4100:	a0bb40        	addx4	a11, a11, a4
    4103:	2b98           	l32i.n	a9, a11, 8
    4105:	4bb8           	l32i.n	a11, a11, 16
    4107:	fecff2        	addi	a15, a15, -2
    410a:	23ee00        	sext	a14, a14, 7
    410d:	93b9f0        	movnez	a11, a9, a15
    4110:	0008e0        	callx8	a8
    4113:	03b8           	l32i.n	a11, a3, 0
    4115:	3bf8           	l32i.n	a15, a11, 12
    4117:	000ff2        	l8ui	a15, a15, 0

0000411a <_Z26CChannelPairElement_DecodePP28CAacDecoderStaticChannelInfoPP22CAacDecoderChannelInfo+0x62>:
    411a:	03ad           	mov.n	a10, a3
    411c:	f01181        	l32r	a8, 160 (1de0 <_Z20CJointStereo_ApplyISPP22CAacDecoderChannelInfoPKtPciih>)
    411f:	0be8           	l32i.n	a14, a11, 0
    4121:	150c           	movi.n	a5, 1
    4123:	93f5f0        	movnez	a15, a5, a15
    4126:	ceab           	addi.n	a12, a14, 10
    4128:	090ed2        	l8ui	a13, a14, 9
    412b:	070eb2        	l8ui	a11, a14, 7
    412e:	030e52        	l8ui	a5, a14, 3
    4131:	23dd00        	sext	a13, a13, 7
    4134:	23bb00        	sext	a11, a11, 7
    4137:	a0bbb0        	addx4	a11, a11, a11
    413a:	040ee2        	l8ui	a14, a14, 4
    413d:	a0bb40        	addx4	a11, a11, a4
    4140:	2b98           	l32i.n	a9, a11, 8
    4142:	4bb8           	l32i.n	a11, a11, 16
    4144:	fec552        	addi	a5, a5, -2
    4147:	23ee00        	sext	a14, a14, 7
    414a:	93b950        	movnez	a11, a9, a5
    414d:	0008e0        	callx8	a8
    4150:	035d           	mov.n	a5, a3
    4152:	040c           	movi.n	a4, 0

00004154 <_Z26CChannelPairElement_DecodePP28CAacDecoderStaticChannelInfoPP22CAacDecoderChannelInfo+0x9c>:
    4154:	05a8           	l32i.n	a10, a5, 0
    4156:	0a88           	l32i.n	a8, a10, 0
    4158:	030882        	l8ui	a8, a8, 3
    415b:	1b2826        	beqi	a8, 2, 417a <_Z26CChannelPairElement_DecodePP28CAacDecoderStaticChannelInfoPP22CAacDecoderChannelInfo+0xc2>
    415e:	f00181        	l32r	a8, 164 (11b4 <_Z28CLongBlock_ScaleSpectralDataP22CAacDecoderChannelInfo>)
    4161:	0008e0        	callx8	a8

00004164 <_Z26CChannelPairElement_DecodePP28CAacDecoderStaticChannelInfoPP22CAacDecoderChannelInfo+0xac>:
    4164:	03bd           	mov.n	a11, a3
    4166:	f00081        	l32r	a8, 168 (8c0 <_Z10ApplyToolsPP28CAacDecoderStaticChannelInfoPP22CAacDecoderChannelInfoi>)
    4169:	02ad           	mov.n	a10, a2
    416b:	04cd           	mov.n	a12, a4
    416d:	0008e0        	callx8	a8
    4170:	554b           	addi.n	a5, a5, 4
    4172:	441b           	addi.n	a4, a4, 1
    4174:	dc2466        	bnei	a4, 2, 4154 <_Z26CChannelPairElement_DecodePP28CAacDecoderStaticChannelInfoPP22CAacDecoderChannelInfo+0x9c>
    4177:	f01d           	retw.n

00004179 <_Z26CChannelPairElement_DecodePP28CAacDecoderStaticChannelInfoPP22CAacDecoderChannelInfo+0xc1>:
	...

0000417a <_Z26CChannelPairElement_DecodePP28CAacDecoderStaticChannelInfoPP22CAacDecoderChannelInfo+0xc2>:
    417a:	effc81        	l32r	a8, 16c (1c24 <_Z29CShortBlock_ScaleSpectralDataP22CAacDecoderChannelInfo>)
    417d:	0008e0        	callx8	a8
    4180:	fff806        	j	4164 <_Z26CChannelPairElement_DecodePP28CAacDecoderStaticChannelInfoPP22CAacDecoderChannelInfo+0xac>

00004183 <_Z26CChannelPairElement_DecodePP28CAacDecoderStaticChannelInfoPP22CAacDecoderChannelInfo+0xcb>:
	...

00004184 <_Z28CSingleChannelElement_DecodePP28CAacDecoderStaticChannelInfoPP22CAacDecoderChannelInfo>:
    4184:	004136        	entry	a1, 32
    4187:	03a8           	l32i.n	a10, a3, 0
    4189:	002a82        	l32i	a8, a10, 0
    418c:	030882        	l8ui	a8, a8, 3
    418f:	172826        	beqi	a8, 2, 41aa <_Z28CSingleChannelElement_DecodePP28CAacDecoderStaticChannelInfoPP22CAacDecoderChannelInfo+0x26>
    4192:	eff481        	l32r	a8, 164 (11b4 <_Z28CLongBlock_ScaleSpectralDataP22CAacDecoderChannelInfo>)
    4195:	0008e0        	callx8	a8

00004198 <_Z28CSingleChannelElement_DecodePP28CAacDecoderStaticChannelInfoPP22CAacDecoderChannelInfo+0x14>:
    4198:	03bd           	mov.n	a11, a3
    419a:	eff381        	l32r	a8, 168 (8c0 <_Z10ApplyToolsPP28CAacDecoderStaticChannelInfoPP22CAacDecoderChannelInfoi>)
    419d:	02ad           	mov.n	a10, a2
    419f:	0c0c           	movi.n	a12, 0
    41a1:	0008e0        	callx8	a8
    41a4:	f01d           	retw.n

000041a6 <_Z28CSingleChannelElement_DecodePP28CAacDecoderStaticChannelInfoPP22CAacDecoderChannelInfo+0x22>:
    41a6:	00000000                                ....

000041aa <_Z28CSingleChannelElement_DecodePP28CAacDecoderStaticChannelInfoPP22CAacDecoderChannelInfo+0x26>:
    41aa:	eff081        	l32r	a8, 16c (1c24 <_Z29CShortBlock_ScaleSpectralDataP22CAacDecoderChannelInfo>)
    41ad:	0008e0        	callx8	a8
    41b0:	fff906        	j	4198 <_Z28CSingleChannelElement_DecodePP28CAacDecoderStaticChannelInfoPP22CAacDecoderChannelInfo+0x14>

000041b3 <_Z28CSingleChannelElement_DecodePP28CAacDecoderStaticChannelInfoPP22CAacDecoderChannelInfo+0x2f>:
	...

000041b4 <_Z24CChannelPairElement_ReadP7BIT_BUFPP22CAacDecoderChannelInfoP11CStreamInfoP12CAdtsCrcInfoPc>:
    41b4:	006136        	entry	a1, 48
    41b7:	efc981        	l32r	a8, dc (6f60 <initBitParser>)
    41ba:	20a220        	or	a10, a2, a2
    41bd:	0008e0        	callx8	a8
    41c0:	0398           	l32i.n	a9, a3, 0
    41c2:	3998           	l32i.n	a9, a9, 12
    41c4:	01a9           	s32i.n	a10, a1, 0
    41c6:	000682        	l8ui	a8, a6, 0
    41c9:	014982        	s8i	a8, a9, 1
    41cc:	03f8           	l32i.n	a15, a3, 0
    41ce:	0ff8           	l32i.n	a15, a15, 0
    41d0:	090c           	movi.n	a9, 0
    41d2:	004f92        	s8i	a9, a15, 0
    41d5:	03e8           	l32i.n	a14, a3, 0
    41d7:	0ee8           	l32i.n	a14, a14, 0
    41d9:	064e92        	s8i	a9, a14, 6
    41dc:	03d8           	l32i.n	a13, a3, 0
    41de:	0dd8           	l32i.n	a13, a13, 0
    41e0:	0004f2        	l8ui	a15, a4, 0
    41e3:	074df2        	s8i	a15, a13, 7
    41e6:	03c8           	l32i.n	a12, a3, 0
    41e8:	0cc8           	l32i.n	a12, a12, 0
    41ea:	24d8           	l32i.n	a13, a4, 8
    41ec:	084cd2        	s8i	a13, a12, 8
    41ef:	13b8           	l32i.n	a11, a3, 4
    41f1:	0bb8           	l32i.n	a11, a11, 0
    41f3:	004b92        	s8i	a9, a11, 0
    41f6:	13a8           	l32i.n	a10, a3, 4
    41f8:	0aa8           	l32i.n	a10, a10, 0
    41fa:	064a92        	s8i	a9, a10, 6
    41fd:	1388           	l32i.n	a8, a3, 4
    41ff:	0888           	l32i.n	a8, a8, 0
    4201:	0748f2        	s8i	a15, a8, 7
    4204:	13e8           	l32i.n	a14, a3, 4
    4206:	0ee8           	l32i.n	a14, a14, 0
    4208:	084ed2        	s8i	a13, a14, 8
    420b:	03c8           	l32i.n	a12, a3, 0
    420d:	3cc8           	l32i.n	a12, a12, 12
    420f:	03bf14        	ae_lbi	a11, 1
    4212:	004cb2        	s8i	a11, a12, 0
    4215:	03b8           	l32i.n	a11, a3, 0
    4217:	01a8           	l32i.n	a10, a1, 0
    4219:	3b98           	l32i.n	a9, a11, 12
    421b:	001af4        	ae_dbi	a10, 1
    421e:	01a9           	s32i.n	a10, a1, 0
    4220:	000992        	l8ui	a9, a9, 0
    4223:	049916        	beqz	a9, 4270 <_Z24CChannelPairElement_ReadP7BIT_BUFPP22CAacDecoderChannelInfoP11CStreamInfoP12CAdtsCrcInfoPc+0xbc>
    4226:	efd281        	l32r	a8, 170 (4498 <_Z7IcsReadPPtP8CIcsInfo>)
    4229:	0bb8           	l32i.n	a11, a11, 0
    422b:	01ad           	mov.n	a10, a1
    422d:	0008e0        	callx8	a8
    4230:	0a4d           	mov.n	a4, a10
    4232:	ea8c           	beqz.n	a10, 4244 <_Z24CChannelPairElement_ReadP7BIT_BUFPP22CAacDecoderChannelInfoP11CStreamInfoP12CAdtsCrcInfoPc+0x90>
    4234:	efab81        	l32r	a8, e0 (6f38 <TerminateBitParser_new>)
    4237:	02ad           	mov.n	a10, a2
    4239:	01b8           	l32i.n	a11, a1, 0
    423b:	0008e0        	callx8	a8
    423e:	042d           	mov.n	a2, a4
    4240:	f01d           	retw.n

00004242 <_Z24CChannelPairElement_ReadP7BIT_BUFPP22CAacDecoderChannelInfoP11CStreamInfoP12CAdtsCrcInfoPc+0x8e>:
	...

00004244 <_Z24CChannelPairElement_ReadP7BIT_BUFPP22CAacDecoderChannelInfoP11CStreamInfoP12CAdtsCrcInfoPc+0x90>:
    4244:	2c1c           	movi.n	a12, 18
    4246:	13a8           	l32i.n	a10, a3, 4
    4248:	03b8           	l32i.n	a11, a3, 0
    424a:	efa781        	l32r	a8, e8 (418 <memcpy>)
    424d:	0aa8           	l32i.n	a10, a10, 0
    424f:	0bb8           	l32i.n	a11, a11, 0
    4251:	0008e0        	callx8	a8
    4254:	03b8           	l32i.n	a11, a3, 0
    4256:	0bd8           	l32i.n	a13, a11, 0
    4258:	01ad           	mov.n	a10, a1
    425a:	efc681        	l32r	a8, 174 (55f8 <_Z17CJointStereo_ReadPPtP16CJointStereoDataii>)
    425d:	090dc2        	l8ui	a12, a13, 9
    4260:	040dd2        	l8ui	a13, a13, 4
    4263:	4bb8           	l32i.n	a11, a11, 16
    4265:	23cc00        	sext	a12, a12, 7
    4268:	23dd00        	sext	a13, a13, 7
    426b:	0008e0        	callx8	a8
    426e:	03b8           	l32i.n	a11, a3, 0

00004270 <_Z24CChannelPairElement_ReadP7BIT_BUFPP22CAacDecoderChannelInfoP11CStreamInfoP12CAdtsCrcInfoPc+0xbc>:
    4270:	efc281        	l32r	a8, 178 (4348 <_Z7ReadICSPPtP22CAacDecoderChannelInfo>)
    4273:	01ad           	mov.n	a10, a1
    4275:	0008e0        	callx8	a8
    4278:	0a4d           	mov.n	a4, a10
    427a:	ea8c           	beqz.n	a10, 428c <_Z24CChannelPairElement_ReadP7BIT_BUFPP22CAacDecoderChannelInfoP11CStreamInfoP12CAdtsCrcInfoPc+0xd8>
    427c:	ef9981        	l32r	a8, e0 (6f38 <TerminateBitParser_new>)
    427f:	02ad           	mov.n	a10, a2
    4281:	01b8           	l32i.n	a11, a1, 0
    4283:	0008e0        	callx8	a8
    4286:	042d           	mov.n	a2, a4
    4288:	f01d           	retw.n

0000428a <_Z24CChannelPairElement_ReadP7BIT_BUFPP22CAacDecoderChannelInfoP11CStreamInfoP12CAdtsCrcInfoPc+0xd6>:
	...

0000428c <_Z24CChannelPairElement_ReadP7BIT_BUFPP22CAacDecoderChannelInfoP11CStreamInfoP12CAdtsCrcInfoPc+0xd8>:
    428c:	0598           	l32i.n	a9, a5, 0
    428e:	221966        	bnei	a9, 1, 42b4 <_Z24CChannelPairElement_ReadP7BIT_BUFPP22CAacDecoderChannelInfoP11CStreamInfoP12CAdtsCrcInfoPc+0x100>
    4291:	ef9381        	l32r	a8, e0 (6f38 <TerminateBitParser_new>)
    4294:	02ad           	mov.n	a10, a2
    4296:	01b8           	l32i.n	a11, a1, 0
    4298:	0008e0        	callx8	a8
    429b:	05ad           	mov.n	a10, a5
    429d:	ef9c81        	l32r	a8, 110 (5810 <_Z15AdtsCrcStartRegP12CAdtsCrcInfoP7BIT_BUFi>)
    42a0:	02bd           	mov.n	a11, a2
    42a2:	80a0c2        	movi	a12, 128
    42a5:	0008e0        	callx8	a8
    42a8:	ef8d81        	l32r	a8, dc (6f60 <initBitParser>)
    42ab:	11a9           	s32i.n	a10, a1, 4
    42ad:	02ad           	mov.n	a10, a2
    42af:	0008e0        	callx8	a8
    42b2:	01a9           	s32i.n	a10, a1, 0

000042b4 <_Z24CChannelPairElement_ReadP7BIT_BUFPP22CAacDecoderChannelInfoP11CStreamInfoP12CAdtsCrcInfoPc+0x100>:
    42b4:	efb181        	l32r	a8, 178 (4348 <_Z7ReadICSPPtP22CAacDecoderChannelInfo>)
    42b7:	13b8           	l32i.n	a11, a3, 4
    42b9:	01ad           	mov.n	a10, a1
    42bb:	0008e0        	callx8	a8
    42be:	0a3d           	mov.n	a3, a10
    42c0:	01b8           	l32i.n	a11, a1, 0
    42c2:	aa8c           	beqz.n	a10, 42d0 <_Z24CChannelPairElement_ReadP7BIT_BUFPP22CAacDecoderChannelInfoP11CStreamInfoP12CAdtsCrcInfoPc+0x11c>
    42c4:	ef8781        	l32r	a8, e0 (6f38 <TerminateBitParser_new>)
    42c7:	02ad           	mov.n	a10, a2
    42c9:	0008e0        	callx8	a8
    42cc:	032d           	mov.n	a2, a3
    42ce:	f01d           	retw.n

000042d0 <_Z24CChannelPairElement_ReadP7BIT_BUFPP22CAacDecoderChannelInfoP11CStreamInfoP12CAdtsCrcInfoPc+0x11c>:
    42d0:	0598           	l32i.n	a9, a5, 0
    42d2:	0b1926        	beqi	a9, 1, 42e1 <_Z24CChannelPairElement_ReadP7BIT_BUFPP22CAacDecoderChannelInfoP11CStreamInfoP12CAdtsCrcInfoPc+0x12d>

000042d5 <_Z24CChannelPairElement_ReadP7BIT_BUFPP22CAacDecoderChannelInfoP11CStreamInfoP12CAdtsCrcInfoPc+0x121>:
    42d5:	ef8281        	l32r	a8, e0 (6f38 <TerminateBitParser_new>)
    42d8:	02ad           	mov.n	a10, a2
    42da:	0008e0        	callx8	a8
    42dd:	032d           	mov.n	a2, a3
    42df:	f01d           	retw.n

000042e1 <_Z24CChannelPairElement_ReadP7BIT_BUFPP22CAacDecoderChannelInfoP11CStreamInfoP12CAdtsCrcInfoPc+0x12d>:
    42e1:	ef7f81        	l32r	a8, e0 (6f38 <TerminateBitParser_new>)
    42e4:	02ad           	mov.n	a10, a2
    42e6:	0008e0        	callx8	a8
    42e9:	05ad           	mov.n	a10, a5
    42eb:	ef8b81        	l32r	a8, 118 (57f4 <_Z13AdtsCrcEndRegP12CAdtsCrcInfoP7BIT_BUFi>)
    42ee:	02bd           	mov.n	a11, a2
    42f0:	11c8           	l32i.n	a12, a1, 4
    42f2:	0008e0        	callx8	a8
    42f5:	ef7981        	l32r	a8, dc (6f60 <initBitParser>)
    42f8:	02ad           	mov.n	a10, a2
    42fa:	0008e0        	callx8	a8
    42fd:	0abd           	mov.n	a11, a10
    42ff:	01a9           	s32i.n	a10, a1, 0
    4301:	fff406        	j	42d5 <_Z24CChannelPairElement_ReadP7BIT_BUFPP22CAacDecoderChannelInfoP11CStreamInfoP12CAdtsCrcInfoPc+0x121>

00004304 <_Z26CSingleChannelElement_ReadP7BIT_BUFP22CAacDecoderChannelInfoP11CStreamInfoc>:
    4304:	006136        	entry	a1, 48
    4307:	ef7581        	l32r	a8, dc (6f60 <initBitParser>)
    430a:	20a220        	or	a10, a2, a2
    430d:	0008e0        	callx8	a8
    4310:	ef9a81        	l32r	a8, 178 (4348 <_Z7ReadICSPPtP22CAacDecoderChannelInfo>)
    4313:	3398           	l32i.n	a9, a3, 12
    4315:	03b8           	l32i.n	a11, a3, 0
    4317:	24d8           	l32i.n	a13, a4, 8
    4319:	01a9           	s32i.n	a10, a1, 0
    431b:	0004c2        	l8ui	a12, a4, 0
    431e:	0a0c           	movi.n	a10, 0
    4320:	084bd2        	s8i	a13, a11, 8
    4323:	064ba2        	s8i	a10, a11, 6
    4326:	004ba2        	s8i	a10, a11, 0
    4329:	074bc2        	s8i	a12, a11, 7
    432c:	01ad           	mov.n	a10, a1
    432e:	03bd           	mov.n	a11, a3
    4330:	014952        	s8i	a5, a9, 1
    4333:	0008e0        	callx8	a8
    4336:	0a3d           	mov.n	a3, a10
    4338:	ef6a81        	l32r	a8, e0 (6f38 <TerminateBitParser_new>)
    433b:	01b8           	l32i.n	a11, a1, 0
    433d:	02ad           	mov.n	a10, a2
    433f:	0008e0        	callx8	a8
    4342:	032d           	mov.n	a2, a3
    4344:	f01d           	retw.n

00004346 <_Z26CSingleChannelElement_ReadP7BIT_BUFP22CAacDecoderChannelInfoP11CStreamInfoc+0x42>:
	...

00004348 <_Z7ReadICSPPtP22CAacDecoderChannelInfo>:
    4348:	004136        	entry	a1, 32
    434b:	33b8           	l32i.n	a11, a3, 12
    434d:	03af84        	ae_lbi	a10, 8
    4350:	024ba2        	s8i	a10, a11, 2
    4353:	0298           	l32i.n	a9, a2, 0
    4355:	03b8           	l32i.n	a11, a3, 0
    4357:	0089f4        	ae_dbi	a9, 8
    435a:	0299           	s32i.n	a9, a2, 0
    435c:	000b82        	l8ui	a8, a11, 0
    435f:	28bc           	beqz.n	a8, 4395 <_Z7ReadICSPPtP22CAacDecoderChannelInfo+0x4d>

00004361 <_Z7ReadICSPPtP22CAacDecoderChannelInfo+0x19>:
    4361:	030bc2        	l8ui	a12, a11, 3
    4364:	122c26        	beqi	a12, 2, 437a <_Z7ReadICSPPtP22CAacDecoderChannelInfo+0x32>
    4367:	02ad           	mov.n	a10, a2
    4369:	33c8           	l32i.n	a12, a3, 12
    436b:	ef8481        	l32r	a8, 17c (4420 <_Z15CLongBlock_ReadPPtP22CAacDecoderChannelInfoh>)
    436e:	03bd           	mov.n	a11, a3
    4370:	020cc2        	l8ui	a12, a12, 2
    4373:	0008e0        	callx8	a8
    4376:	0a2d           	mov.n	a2, a10
    4378:	f01d           	retw.n

0000437a <_Z7ReadICSPPtP22CAacDecoderChannelInfo+0x32>:
    437a:	ef8181        	l32r	a8, 180 (1d78 <_Z16CShortBlock_InitP22CAacDecoderChannelInfo>)
    437d:	03ad           	mov.n	a10, a3
    437f:	0008e0        	callx8	a8
    4382:	02ad           	mov.n	a10, a2
    4384:	33c8           	l32i.n	a12, a3, 12
    4386:	ef7f81        	l32r	a8, 184 (43a8 <_Z16CShortBlock_ReadPPtP22CAacDecoderChannelInfoh>)
    4389:	03bd           	mov.n	a11, a3
    438b:	020cc2        	l8ui	a12, a12, 2
    438e:	0008e0        	callx8	a8
    4391:	0a2d           	mov.n	a2, a10
    4393:	f01d           	retw.n

00004395 <_Z7ReadICSPPtP22CAacDecoderChannelInfo+0x4d>:
    4395:	ef7681        	l32r	a8, 170 (4498 <_Z7IcsReadPPtP8CIcsInfo>)
    4398:	02ad           	mov.n	a10, a2
    439a:	0008e0        	callx8	a8
    439d:	2a8c           	beqz.n	a10, 43a3 <_Z7ReadICSPPtP22CAacDecoderChannelInfo+0x5b>
    439f:	0a2d           	mov.n	a2, a10
    43a1:	f01d           	retw.n

000043a3 <_Z7ReadICSPPtP22CAacDecoderChannelInfo+0x5b>:
    43a3:	03b8           	l32i.n	a11, a3, 0
    43a5:	ffee06        	j	4361 <_Z7ReadICSPPtP22CAacDecoderChannelInfo+0x19>

000043a8 <_Z16CShortBlock_ReadPPtP22CAacDecoderChannelInfoh>:
    43a8:	004136        	entry	a1, 32
    43ab:	ef7781        	l32r	a8, 188 (5340 <_Z27CShortBlock_ReadSectionDataPPtP22CAacDecoderChannelInfo>)
    43ae:	02ad           	mov.n	a10, a2
    43b0:	03bd           	mov.n	a11, a3
    43b2:	0008e0        	callx8	a8
    43b5:	3a8c           	beqz.n	a10, 43bc <_Z16CShortBlock_ReadPPtP22CAacDecoderChannelInfoh+0x14>
    43b7:	0a2d           	mov.n	a2, a10
    43b9:	f01d           	retw.n

000043bb <_Z16CShortBlock_ReadPPtP22CAacDecoderChannelInfoh+0x13>:
	...

000043bc <_Z16CShortBlock_ReadPPtP22CAacDecoderChannelInfoh+0x14>:
    43bc:	04cd           	mov.n	a12, a4
    43be:	ef7381        	l32r	a8, 18c (544c <_Z31CShortBlock_ReadScaleFactorDataPPtP22CAacDecoderChannelInfoh>)
    43c1:	02ad           	mov.n	a10, a2
    43c3:	03bd           	mov.n	a11, a3
    43c5:	0008e0        	callx8	a8
    43c8:	ef7281        	l32r	a8, 190 (5ed8 <_Z15CPulseData_ReadPPtP22CAacDecoderChannelInfo>)
    43cb:	02ad           	mov.n	a10, a2
    43cd:	03bd           	mov.n	a11, a3
    43cf:	0008e0        	callx8	a8
    43d2:	2a8c           	beqz.n	a10, 43d8 <_Z16CShortBlock_ReadPPtP22CAacDecoderChannelInfoh+0x30>
    43d4:	021c           	movi.n	a2, 16
    43d6:	f01d           	retw.n

000043d8 <_Z16CShortBlock_ReadPPtP22CAacDecoderChannelInfoh+0x30>:
    43d8:	13a8           	l32i.n	a10, a3, 4
    43da:	03bf14        	ae_lbi	a11, 1
    43dd:	004ab2        	s8i	a11, a10, 0
    43e0:	0298           	l32i.n	a9, a2, 0
    43e2:	0019f4        	ae_dbi	a9, 1
    43e5:	0299           	s32i.n	a9, a2, 0
    43e7:	000aa2        	l8ui	a10, a10, 0
    43ea:	2a9c           	beqz.n	a10, 4400 <_Z16CShortBlock_ReadPPtP22CAacDecoderChannelInfoh+0x58>
    43ec:	ef6a81        	l32r	a8, 194 (25a4 <_Z9CTns_ReadPPtP22CAacDecoderChannelInfo>)
    43ef:	02ad           	mov.n	a10, a2
    43f1:	03bd           	mov.n	a11, a3
    43f3:	0008e0        	callx8	a8
    43f6:	4a8c           	beqz.n	a10, 43fe <_Z16CShortBlock_ReadPPtP22CAacDecoderChannelInfoh+0x56>
    43f8:	0a2d           	mov.n	a2, a10
    43fa:	f01d           	retw.n

000043fc <_Z16CShortBlock_ReadPPtP22CAacDecoderChannelInfoh+0x54>:
	...

000043fe <_Z16CShortBlock_ReadPPtP22CAacDecoderChannelInfoh+0x56>:
    43fe:	0298           	l32i.n	a9, a2, 0

00004400 <_Z16CShortBlock_ReadPPtP22CAacDecoderChannelInfoh+0x58>:
    4400:	03af14        	ae_lbi	a10, 1
    4403:	0019f4        	ae_dbi	a9, 1
    4406:	0299           	s32i.n	a9, a2, 0
    4408:	4a8c           	beqz.n	a10, 4410 <_Z16CShortBlock_ReadPPtP22CAacDecoderChannelInfoh+0x68>
    440a:	820c           	movi.n	a2, 8
    440c:	f01d           	retw.n

0000440e <_Z16CShortBlock_ReadPPtP22CAacDecoderChannelInfoh+0x66>:
	...

00004410 <_Z16CShortBlock_ReadPPtP22CAacDecoderChannelInfoh+0x68>:
    4410:	ef6281        	l32r	a8, 198 (4c68 <_Z28CShortBlock_ReadSpectralDataPPtP22CAacDecoderChannelInfo>)
    4413:	03bd           	mov.n	a11, a3
    4415:	02ad           	mov.n	a10, a2
    4417:	0008e0        	callx8	a8
    441a:	0a2d           	mov.n	a2, a10
    441c:	f01d           	retw.n

0000441e <_Z16CShortBlock_ReadPPtP22CAacDecoderChannelInfoh+0x76>:
	...

00004420 <_Z15CLongBlock_ReadPPtP22CAacDecoderChannelInfoh>:
    4420:	004136        	entry	a1, 32
    4423:	ef5e81        	l32r	a8, 19c (4af4 <_Z26CLongBlock_ReadSectionDataPPtP22CAacDecoderChannelInfo>)
    4426:	02ad           	mov.n	a10, a2
    4428:	03bd           	mov.n	a11, a3
    442a:	0008e0        	callx8	a8
    442d:	3a8c           	beqz.n	a10, 4434 <_Z15CLongBlock_ReadPPtP22CAacDecoderChannelInfoh+0x14>
    442f:	0a2d           	mov.n	a2, a10
    4431:	f01d           	retw.n

00004433 <_Z15CLongBlock_ReadPPtP22CAacDecoderChannelInfoh+0x13>:
	...

00004434 <_Z15CLongBlock_ReadPPtP22CAacDecoderChannelInfoh+0x14>:
    4434:	04cd           	mov.n	a12, a4
    4436:	ef5a81        	l32r	a8, 1a0 (4ba4 <_Z30CLongBlock_ReadScaleFactorDataPPtP22CAacDecoderChannelInfoh>)
    4439:	02ad           	mov.n	a10, a2
    443b:	03bd           	mov.n	a11, a3
    443d:	0008e0        	callx8	a8
    4440:	ef5481        	l32r	a8, 190 (5ed8 <_Z15CPulseData_ReadPPtP22CAacDecoderChannelInfo>)
    4443:	02ad           	mov.n	a10, a2
    4445:	03bd           	mov.n	a11, a3
    4447:	0008e0        	callx8	a8
    444a:	2a8c           	beqz.n	a10, 4450 <_Z15CLongBlock_ReadPPtP22CAacDecoderChannelInfoh+0x30>
    444c:	021c           	movi.n	a2, 16
    444e:	f01d           	retw.n

00004450 <_Z15CLongBlock_ReadPPtP22CAacDecoderChannelInfoh+0x30>:
    4450:	13a8           	l32i.n	a10, a3, 4
    4452:	03bf14        	ae_lbi	a11, 1
    4455:	004ab2        	s8i	a11, a10, 0
    4458:	0298           	l32i.n	a9, a2, 0
    445a:	0019f4        	ae_dbi	a9, 1
    445d:	0299           	s32i.n	a9, a2, 0
    445f:	000aa2        	l8ui	a10, a10, 0
    4462:	2a9c           	beqz.n	a10, 4478 <_Z15CLongBlock_ReadPPtP22CAacDecoderChannelInfoh+0x58>
    4464:	ef4c81        	l32r	a8, 194 (25a4 <_Z9CTns_ReadPPtP22CAacDecoderChannelInfo>)
    4467:	02ad           	mov.n	a10, a2
    4469:	03bd           	mov.n	a11, a3
    446b:	0008e0        	callx8	a8
    446e:	4a8c           	beqz.n	a10, 4476 <_Z15CLongBlock_ReadPPtP22CAacDecoderChannelInfoh+0x56>
    4470:	0a2d           	mov.n	a2, a10
    4472:	f01d           	retw.n

00004474 <_Z15CLongBlock_ReadPPtP22CAacDecoderChannelInfoh+0x54>:
	...

00004476 <_Z15CLongBlock_ReadPPtP22CAacDecoderChannelInfoh+0x56>:
    4476:	0298           	l32i.n	a9, a2, 0

00004478 <_Z15CLongBlock_ReadPPtP22CAacDecoderChannelInfoh+0x58>:
    4478:	03af14        	ae_lbi	a10, 1
    447b:	0019f4        	ae_dbi	a9, 1
    447e:	0299           	s32i.n	a9, a2, 0
    4480:	4a8c           	beqz.n	a10, 4488 <_Z15CLongBlock_ReadPPtP22CAacDecoderChannelInfoh+0x68>
    4482:	820c           	movi.n	a2, 8
    4484:	f01d           	retw.n

00004486 <_Z15CLongBlock_ReadPPtP22CAacDecoderChannelInfoh+0x66>:
	...

00004488 <_Z15CLongBlock_ReadPPtP22CAacDecoderChannelInfoh+0x68>:
    4488:	ef4781        	l32r	a8, 1a4 (4590 <_Z27CLongBlock_ReadSpectralDataPPtP22CAacDecoderChannelInfo>)
    448b:	03bd           	mov.n	a11, a3
    448d:	02ad           	mov.n	a10, a2
    448f:	0008e0        	callx8	a8
    4492:	0a2d           	mov.n	a2, a10
    4494:	f01d           	retw.n

00004496 <_Z15CLongBlock_ReadPPtP22CAacDecoderChannelInfoh+0x76>:
	...

00004498 <_Z7IcsReadPPtP8CIcsInfo>:
    4498:	004136        	entry	a1, 32
    449b:	03bf14        	ae_lbi	a11, 1
    449e:	0143b2        	s8i	a11, a3, 1
    44a1:	02a8           	l32i.n	a10, a2, 0
    44a3:	001af4        	ae_dbi	a10, 1
    44a6:	02a9           	s32i.n	a10, a2, 0
    44a8:	039f24        	ae_lbi	a9, 2
    44ab:	034392        	s8i	a9, a3, 3
    44ae:	0288           	l32i.n	a8, a2, 0
    44b0:	0028f4        	ae_dbi	a8, 2
    44b3:	0289           	s32i.n	a8, a2, 0
    44b5:	037f14        	ae_lbi	a7, 1
    44b8:	024372        	s8i	a7, a3, 2
    44bb:	0268           	l32i.n	a6, a2, 0
    44bd:	680c           	movi.n	a8, 6
    44bf:	170c           	movi.n	a7, 1
    44c1:	0016f4        	ae_dbi	a6, 1
    44c4:	0269           	s32i.n	a6, a2, 0
    44c6:	070352        	l8ui	a5, a3, 7
    44c9:	030342        	l8ui	a4, a3, 3
    44cc:	eee561        	l32r	a6, 60 (109f0 <SamplingRateInfoTable>)
    44cf:	235500        	sext	a5, a5, 7
    44d2:	a05550        	addx4	a5, a5, a5
    44d5:	a05560        	addx4	a5, a5, a6
    44d8:	242426        	beqi	a4, 2, 4500 <_Z7IcsReadPPtP8CIcsInfo+0x68>
    44db:	0405f2        	l8ui	a15, a5, 4
    44de:	03ef64        	ae_lbi	a14, 6
    44e1:	0443e2        	s8i	a14, a3, 4
    44e4:	0643f2        	s8i	a15, a3, 6
    44e7:	02d8           	l32i.n	a13, a2, 0
    44e9:	006df4        	ae_dbi	a13, 6
    44ec:	02d9           	s32i.n	a13, a2, 0
    44ee:	03cf14        	ae_lbi	a12, 1
    44f1:	001df4        	ae_dbi	a13, 1
    44f4:	02d9           	s32i.n	a13, a2, 0
    44f6:	23cc00        	sext	a12, a12, 7
    44f9:	085c16        	beqz	a12, 4582 <_Z7IcsReadPPtP8CIcsInfo+0xea>
    44fc:	620c           	movi.n	a2, 6
    44fe:	f01d           	retw.n

00004500 <_Z7IcsReadPPtP8CIcsInfo+0x68>:
    4500:	0c05c2        	l8ui	a12, a5, 12
    4503:	03df44        	ae_lbi	a13, 4
    4506:	0443d2        	s8i	a13, a3, 4
    4509:	0643c2        	s8i	a12, a3, 6
    450c:	02b8           	l32i.n	a11, a2, 0
    450e:	004bf4        	ae_dbi	a11, 4
    4511:	02b9           	s32i.n	a11, a2, 0
    4513:	03af74        	ae_lbi	a10, 7
    4516:	0543a2        	s8i	a10, a3, 5
    4519:	0298           	l32i.n	a9, a2, 0
    451b:	740c           	movi.n	a4, 7
    451d:	060c           	movi.n	a6, 0
    451f:	0079f4        	ae_dbi	a9, 7
    4522:	0299           	s32i.n	a9, a2, 0
    4524:	094362        	s8i	a6, a3, 9
    4527:	30a476        	loopgtz	a4, 455b <_Z7IcsReadPPtP8CIcsInfo+0xc3>
    452a:	263a           	add.n	a2, a6, a3
    452c:	c0f860        	sub	a15, a8, a6
    452f:	401f00        	ssl	a15
    4532:	0a4272        	s8i	a7, a2, 10
    4535:	090322        	l8ui	a2, a3, 9
    4538:	0503f2        	l8ui	a15, a3, 5
    453b:	a1e700        	sll	a14, a7
    453e:	23ee00        	sext	a14, a14, 7
    4541:	23ff00        	sext	a15, a15, 7
    4544:	0c0ef7        	bnone	a14, a15, 4554 <_Z7IcsReadPPtP8CIcsInfo+0xbc>
    4547:	523a           	add.n	a5, a2, a3
    4549:	0a0542        	l8ui	a4, a5, 10
    454c:	441b           	addi.n	a4, a4, 1
    454e:	0a4542        	s8i	a4, a5, 10
    4551:	000106        	j	4559 <_Z7IcsReadPPtP8CIcsInfo+0xc1>

00004554 <_Z7IcsReadPPtP8CIcsInfo+0xbc>:
    4554:	921b           	addi.n	a9, a2, 1
    4556:	094392        	s8i	a9, a3, 9

00004559 <_Z7IcsReadPPtP8CIcsInfo+0xc1>:
    4559:	661b           	addi.n	a6, a6, 1

0000455b <_Z7IcsReadPPtP8CIcsInfo+0xc3>:
    455b:	0903a2        	l8ui	a10, a3, 9
    455e:	114372        	s8i	a7, a3, 17
    4561:	f03d           	nop.n
    4563:	aa1b           	addi.n	a10, a10, 1
    4565:	0943a2        	s8i	a10, a3, 9

00004568 <_Z7IcsReadPPtP8CIcsInfo+0xd0>:
    4568:	0403c2        	l8ui	a12, a3, 4
    456b:	0603b2        	l8ui	a11, a3, 6
    456e:	f20c           	movi.n	a2, 15
    4570:	23cc00        	sext	a12, a12, 7
    4573:	23bb00        	sext	a11, a11, 7
    4576:	01abc7        	bge	a11, a12, 457b <_Z7IcsReadPPtP8CIcsInfo+0xe3>
    4579:	f01d           	retw.n

0000457b <_Z7IcsReadPPtP8CIcsInfo+0xe3>:
    457b:	004372        	s8i	a7, a3, 0
    457e:	020c           	movi.n	a2, 0
    4580:	f01d           	retw.n

00004582 <_Z7IcsReadPPtP8CIcsInfo+0xea>:
    4582:	094372        	s8i	a7, a3, 9
    4585:	0a4372        	s8i	a7, a3, 10
    4588:	fff706        	j	4568 <_Z7IcsReadPPtP8CIcsInfo+0xd0>

0000458b <_Z7IcsReadPPtP8CIcsInfo+0xf3>:
    458b:	00000000 01213600                                .....

00004590 <_Z27CLongBlock_ReadSpectralDataPPtP22CAacDecoderChannelInfo>:
    4590:	012136        	entry	a1, 144
    4593:	a139           	s32i.n	a3, a1, 40
    4595:	83d8           	l32i.n	a13, a3, 32
    4597:	0c0c           	movi.n	a12, 0
    4599:	eeb1f1        	l32r	a15, 60 (109f0 <SamplingRateInfoTable>)
    459c:	0398           	l32i.n	a9, a3, 0
    459e:	7388           	l32i.n	a8, a3, 28
    45a0:	93a8           	l32i.n	a10, a3, 36
    45a2:	b3b8           	l32i.n	a11, a3, 44
    45a4:	1061b2        	s32i	a11, a1, 64
    45a7:	81a9           	s32i.n	a10, a1, 32
    45a9:	e189           	s32i.n	a8, a1, 56
    45ab:	0709e2        	l8ui	a14, a9, 7
    45ae:	f8c882        	addi	a8, a8, -8
    45b1:	030992        	l8ui	a9, a9, 3
    45b4:	23ee00        	sext	a14, a14, 7
    45b7:	a0eee0        	addx4	a14, a14, a14
    45ba:	a0eef0        	addx4	a14, a14, a15
    45bd:	2ef8           	l32i.n	a15, a14, 8
    45bf:	4ee8           	l32i.n	a14, a14, 16
    45c1:	6dcd           	ae_s16i.n	a12, a13, 0
    45c3:	fec992        	addi	a9, a9, -2
    45c6:	93ef90        	movnez	a14, a15, a9
    45c9:	91e9           	s32i.n	a14, a1, 36
    45cb:	a398           	l32i.n	a9, a3, 40
    45cd:	076192        	s32i	a9, a1, 28
    45d0:	fc2082009f 	{ movi	a9, 0x200; ae_zerop48	aep0 }
    45d5:	028976        	loop	a9, 45db <_Z27CLongBlock_ReadSpectralDataPPtP22CAacDecoderChannelInfo+0x4b>
    45d8:	568814        	ae_sp24x2s.iu	aep0, a8, 8

000045db <_Z27CLongBlock_ReadSpectralDataPPtP22CAacDecoderChannelInfo+0x4b>:
    45db:	a1d8           	l32i.n	a13, a1, 40
    45dd:	0dd8           	l32i.n	a13, a13, 0
    45df:	082182        	l32i	a8, a1, 32
    45e2:	060d92        	l8ui	a9, a13, 6
    45e5:	fec882        	addi	a8, a8, -2
    45e8:	239900        	sext	a9, a9, 7
    45eb:	0c19a6        	blti	a9, 1, 45fb <_Z27CLongBlock_ReadSpectralDataPPtP22CAacDecoderChannelInfo+0x6b>
    45ee:	07c804        	ae_zerop48	aep0
    45f1:	02a976        	loopgtz	a9, 45f7 <_Z27CLongBlock_ReadSpectralDataPPtP22CAacDecoderChannelInfo+0x67>
    45f4:	428814        	ae_sp16f.l.iu	aep0, a8, 2
    45f7:	a1d8           	l32i.n	a13, a1, 40
    45f9:	0dd8           	l32i.n	a13, a13, 0

000045fb <_Z27CLongBlock_ReadSpectralDataPPtP22CAacDecoderChannelInfo+0x6b>:
    45fb:	040de2        	l8ui	a14, a13, 4
    45fe:	23ee00        	sext	a14, a14, 7
    4601:	1161e2        	s32i	a14, a1, 68
    4604:	021ee6        	bgei	a14, 1, 460a <_Z27CLongBlock_ReadSpectralDataPPtP22CAacDecoderChannelInfo+0x7a>
    4607:	00a1c6        	j	4892 <_Z27CLongBlock_ReadSpectralDataPPtP22CAacDecoderChannelInfo+0x302>
    460a:	080c           	movi.n	a8, 0
    460c:	9198           	l32i.n	a9, a1, 36
    460e:	136192        	s32i	a9, a1, 76
    4611:	146182        	s32i	a8, a1, 80
    4614:	000646        	j	4631 <_Z27CLongBlock_ReadSpectralDataPPtP22CAacDecoderChannelInfo+0xa1>

00004617 <_Z27CLongBlock_ReadSpectralDataPPtP22CAacDecoderChannelInfo+0x87>:
	...

00004618 <_Z27CLongBlock_ReadSpectralDataPPtP22CAacDecoderChannelInfo+0x88>:
    4618:	1421b2        	l32i	a11, a1, 80
    461b:	1321c2        	l32i	a12, a1, 76
    461e:	1121a2        	l32i	a10, a1, 68
    4621:	bb1b           	addi.n	a11, a11, 1
    4623:	cc2b           	addi.n	a12, a12, 2
    4625:	1361c2        	s32i	a12, a1, 76
    4628:	1461b2        	s32i	a11, a1, 80
    462b:	c0aab0        	sub	a10, a10, a11
    462e:	260a16        	beqz	a10, 4892 <_Z27CLongBlock_ReadSpectralDataPPtP22CAacDecoderChannelInfo+0x302>

00004631 <_Z27CLongBlock_ReadSpectralDataPPtP22CAacDecoderChannelInfo+0xa1>:
    4631:	102192        	l32i	a9, a1, 64
    4634:	142182        	l32i	a8, a1, 80
    4637:	889a           	add.n	a8, a8, a9
    4639:	000882        	l8ui	a8, a8, 0
    463c:	239800        	sext	a9, a8, 7
    463f:	fd5816        	beqz	a8, 4618 <_Z27CLongBlock_ReadSpectralDataPPtP22CAacDecoderChannelInfo+0x88>
    4642:	fa0c           	movi.n	a10, 15
    4644:	d018a7        	beq	a8, a10, 4618 <_Z27CLongBlock_ReadSpectralDataPPtP22CAacDecoderChannelInfo+0x88>
    4647:	eb0c           	movi.n	a11, 14
    4649:	cb18b7        	beq	a8, a11, 4618 <_Z27CLongBlock_ReadSpectralDataPPtP22CAacDecoderChannelInfo+0x88>
    464c:	dc0c           	movi.n	a12, 13
    464e:	c618c7        	beq	a8, a12, 4618 <_Z27CLongBlock_ReadSpectralDataPPtP22CAacDecoderChannelInfo+0x88>
    4651:	eed5b1        	l32r	a11, 1a8 (ebc0 <HuffmanCodeBooks>)
    4654:	132142        	l32i	a4, a1, 76
    4657:	eed5e1        	l32r	a14, 1ac (10b30 <hcb_list>)
    465a:	b0b9b0        	addx8	a11, a9, a11
    465d:	543d           	ae_l16ui.n	a3, a4, 2
    465f:	a0e9e0        	addx4	a14, a9, a14
    4662:	444d           	ae_l16ui.n	a4, a4, 0
    4664:	0ee8           	l32i.n	a14, a14, 0
    4666:	000b82        	l8ui	a8, a11, 0
    4669:	020b52        	l8ui	a5, a11, 2
    466c:	010bb2        	l8ui	a11, a11, 1
    466f:	238800        	sext	a8, a8, 7
    4672:	235500        	sext	a5, a5, 7
    4675:	4e7d           	ae_l16ui.n	a7, a14, 0
    4677:	035674        	wur.ae_first_ts	a7
    467a:	23bb00        	sext	a11, a11, 7
    467d:	97a437        	bge	a4, a3, 4618 <_Z27CLongBlock_ReadSpectralDataPPtP22CAacDecoderChannelInfo+0x88>
    4680:	ce2b           	addi.n	a12, a14, 2
    4682:	4199           	s32i.n	a9, a1, 16
    4684:	e1e8           	l32i.n	a14, a1, 56
    4686:	11f8e0        	slli	a15, a8, 2
    4689:	1561f2        	s32i	a15, a1, 84
    468c:	a0e4e0        	addx4	a14, a4, a14
    468f:	000a86        	j	46bd <_Z27CLongBlock_ReadSpectralDataPPtP22CAacDecoderChannelInfo+0x12d>

00004692 <_Z27CLongBlock_ReadSpectralDataPPtP22CAacDecoderChannelInfo+0x102>:
    4692:	fcc8a2        	addi	a10, a8, -4
    4695:	447a16        	beqz	a10, 4ae0 <_Z27CLongBlock_ReadSpectralDataPPtP22CAacDecoderChannelInfo+0x550>
    4698:	6f5b26        	beqi	a11, 5, 470b <_Z27CLongBlock_ReadSpectralDataPPtP22CAacDecoderChannelInfo+0x17b>
    469b:	34f090        	extui	a15, a9, 0, 4
    469e:	349490        	extui	a9, a9, 4, 4

000046a1 <_Z27CLongBlock_ReadSpectralDataPPtP22CAacDecoderChannelInfo+0x111>:
    46a1:	15bc           	beqz.n	a5, 46d6 <_Z27CLongBlock_ReadSpectralDataPPtP22CAacDecoderChannelInfo+0x146>
    46a3:	c0d950        	sub	a13, a9, a5
    46a6:	c0af50        	sub	a10, a15, a5
    46a9:	0ea9           	s32i.n	a10, a14, 0
    46ab:	1ed9           	s32i.n	a13, a14, 4
    46ad:	634826        	beqi	a8, 4, 4714 <_Z27CLongBlock_ReadSpectralDataPPtP22CAacDecoderChannelInfo+0x184>

000046b0 <_Z27CLongBlock_ReadSpectralDataPPtP22CAacDecoderChannelInfo+0x120>:
    46b0:	1521d2        	l32i	a13, a1, 84
    46b3:	448a           	add.n	a4, a4, a8
    46b5:	eeda           	add.n	a14, a14, a13
    46b7:	022437        	blt	a4, a3, 46bd <_Z27CLongBlock_ReadSpectralDataPPtP22CAacDecoderChannelInfo+0x12d>
    46ba:	ffd686        	j	4618 <_Z27CLongBlock_ReadSpectralDataPPtP22CAacDecoderChannelInfo+0x88>

000046bd <_Z27CLongBlock_ReadSpectralDataPPtP22CAacDecoderChannelInfo+0x12d>:
    46bd:	038674        	ae_vldsht	a7

000046c0 <_Z27CLongBlock_ReadSpectralDataPPtP22CAacDecoderChannelInfo+0x130>:
    46c0:	f03d           	nop.n
    46c2:	0c8076        	loop	a0, 46d2 <_Z27CLongBlock_ReadSpectralDataPPtP22CAacDecoderChannelInfo+0x142>
    46c5:	0268           	l32i.n	a6, a2, 0
    46c7:	130c94        	ae_vldl16t	b0, a9, a12
    46ca:	180614        	ae_vldl16c	a6
    46cd:	0269           	s32i.n	a6, a2, 0
    46cf:	bf1076        	bt	b0, 4692 <_Z27CLongBlock_ReadSpectralDataPPtP22CAacDecoderChannelInfo+0x102>

000046d2 <_Z27CLongBlock_ReadSpectralDataPPtP22CAacDecoderChannelInfo+0x142>:
    46d2:	fffa86        	j	46c0 <_Z27CLongBlock_ReadSpectralDataPPtP22CAacDecoderChannelInfo+0x130>

000046d5 <_Z27CLongBlock_ReadSpectralDataPPtP22CAacDecoderChannelInfo+0x145>:
	...

000046d6 <_Z27CLongBlock_ReadSpectralDataPPtP22CAacDecoderChannelInfo+0x146>:
    46d6:	ef8c           	beqz.n	a15, 46e8 <_Z27CLongBlock_ReadSpectralDataPPtP22CAacDecoderChannelInfo+0x158>
    46d8:	60a0f0        	neg	a10, a15
    46db:	03df14        	ae_lbi	a13, 1
    46de:	0016f4        	ae_dbi	a6, 1
    46e1:	0269           	s32i.n	a6, a2, 0
    46e3:	83afd0        	moveqz	a10, a15, a13
    46e6:	0afd           	mov.n	a15, a10

000046e8 <_Z27CLongBlock_ReadSpectralDataPPtP22CAacDecoderChannelInfo+0x158>:
    46e8:	e98c           	beqz.n	a9, 46fa <_Z27CLongBlock_ReadSpectralDataPPtP22CAacDecoderChannelInfo+0x16a>
    46ea:	60a090        	neg	a10, a9
    46ed:	03df14        	ae_lbi	a13, 1
    46f0:	0016f4        	ae_dbi	a6, 1
    46f3:	0269           	s32i.n	a6, a2, 0
    46f5:	83a9d0        	moveqz	a10, a9, a13
    46f8:	0a9d           	mov.n	a9, a10

000046fa <_Z27CLongBlock_ReadSpectralDataPPtP22CAacDecoderChannelInfo+0x16a>:
    46fa:	284826        	beqi	a8, 4, 4726 <_Z27CLongBlock_ReadSpectralDataPPtP22CAacDecoderChannelInfo+0x196>
    46fd:	41a8           	l32i.n	a10, a1, 16
    46ff:	bd0c           	movi.n	a13, 11
    4701:	651ad7        	beq	a10, a13, 476a <_Z27CLongBlock_ReadSpectralDataPPtP22CAacDecoderChannelInfo+0x1da>

00004704 <_Z27CLongBlock_ReadSpectralDataPPtP22CAacDecoderChannelInfo+0x174>:
    4704:	0ef9           	s32i.n	a15, a14, 0
    4706:	1e99           	s32i.n	a9, a14, 4
    4708:	ffe906        	j	46b0 <_Z27CLongBlock_ReadSpectralDataPPtP22CAacDecoderChannelInfo+0x120>

0000470b <_Z27CLongBlock_ReadSpectralDataPPtP22CAacDecoderChannelInfo+0x17b>:
    470b:	44f090        	extui	a15, a9, 0, 5
    470e:	449590        	extui	a9, a9, 5, 5
    4711:	ffe306        	j	46a1 <_Z27CLongBlock_ReadSpectralDataPPtP22CAacDecoderChannelInfo+0x111>

00004714 <_Z27CLongBlock_ReadSpectralDataPPtP22CAacDecoderChannelInfo+0x184>:
    4714:	31f8           	l32i.n	a15, a1, 12
    4716:	2198           	l32i.n	a9, a1, 8
    4718:	c0ff50        	sub	a15, a15, a5
    471b:	c09950        	sub	a9, a9, a5
    471e:	2e99           	s32i.n	a9, a14, 8
    4720:	3ef9           	s32i.n	a15, a14, 12
    4722:	ffe286        	j	46b0 <_Z27CLongBlock_ReadSpectralDataPPtP22CAacDecoderChannelInfo+0x120>

00004725 <_Z27CLongBlock_ReadSpectralDataPPtP22CAacDecoderChannelInfo+0x195>:
	...

00004726 <_Z27CLongBlock_ReadSpectralDataPPtP22CAacDecoderChannelInfo+0x196>:
    4726:	21d8           	l32i.n	a13, a1, 8
    4728:	51d9           	s32i.n	a13, a1, 20
    472a:	6d9c           	beqz.n	a13, 4744 <_Z27CLongBlock_ReadSpectralDataPPtP22CAacDecoderChannelInfo+0x1b4>
    472c:	176132        	s32i	a3, a1, 92
    472f:	03af14        	ae_lbi	a10, 1
    4732:	6030d0        	neg	a3, a13
    4735:	0016f4        	ae_dbi	a6, 1
    4738:	0269           	s32i.n	a6, a2, 0
    473a:	833da0        	moveqz	a3, a13, a10
    473d:	2139           	s32i.n	a3, a1, 8
    473f:	5139           	s32i.n	a3, a1, 20
    4741:	172132        	l32i	a3, a1, 92

00004744 <_Z27CLongBlock_ReadSpectralDataPPtP22CAacDecoderChannelInfo+0x1b4>:
    4744:	31d8           	l32i.n	a13, a1, 12
    4746:	6d9c           	beqz.n	a13, 4760 <_Z27CLongBlock_ReadSpectralDataPPtP22CAacDecoderChannelInfo+0x1d0>
    4748:	176132        	s32i	a3, a1, 92
    474b:	03af14        	ae_lbi	a10, 1
    474e:	6030d0        	neg	a3, a13
    4751:	0016f4        	ae_dbi	a6, 1
    4754:	0269           	s32i.n	a6, a2, 0
    4756:	833da0        	moveqz	a3, a13, a10
    4759:	03dd           	mov.n	a13, a3
    475b:	3139           	s32i.n	a3, a1, 12
    475d:	172132        	l32i	a3, a1, 92

00004760 <_Z27CLongBlock_ReadSpectralDataPPtP22CAacDecoderChannelInfo+0x1d0>:
    4760:	3ed9           	s32i.n	a13, a14, 12
    4762:	51a8           	l32i.n	a10, a1, 20
    4764:	2ea9           	s32i.n	a10, a14, 8
    4766:	ffe686        	j	4704 <_Z27CLongBlock_ReadSpectralDataPPtP22CAacDecoderChannelInfo+0x174>

00004769 <_Z27CLongBlock_ReadSpectralDataPPtP22CAacDecoderChannelInfo+0x1d9>:
	...

0000476a <_Z27CLongBlock_ReadSpectralDataPPtP22CAacDecoderChannelInfo+0x1da>:
    476a:	60d1f0        	abs	a13, a15
    476d:	29bd26        	beqi	a13, 16, 479a <_Z27CLongBlock_ReadSpectralDataPPtP22CAacDecoderChannelInfo+0x20a>
    4770:	0fdd           	mov.n	a13, a15

00004772 <_Z27CLongBlock_ReadSpectralDataPPtP22CAacDecoderChannelInfo+0x1e2>:
    4772:	61d9           	s32i.n	a13, a1, 24
    4774:	0dfd           	mov.n	a15, a13
    4776:	60a190        	abs	a10, a9
    4779:	23ba26        	beqi	a10, 16, 47a0 <_Z27CLongBlock_ReadSpectralDataPPtP22CAacDecoderChannelInfo+0x210>
    477c:	f199           	s32i.n	a9, a1, 60
    477e:	61d9           	s32i.n	a13, a1, 24

00004780 <_Z27CLongBlock_ReadSpectralDataPPtP22CAacDecoderChannelInfo+0x1f0>:
    4780:	61d8           	l32i.n	a13, a1, 24
    4782:	ee8b61        	l32r	a6, 1b0 (7fffffff <_end+0x7ffef447>)
    4785:	f198           	l32i.n	a9, a1, 60
    4787:	60d1d0        	abs	a13, a13
    478a:	081d67        	beq	a13, a6, 4796 <_Z27CLongBlock_ReadSpectralDataPPtP22CAacDecoderChannelInfo+0x206>
    478d:	60a190        	abs	a10, a9
    4790:	021a67        	beq	a10, a6, 4796 <_Z27CLongBlock_ReadSpectralDataPPtP22CAacDecoderChannelInfo+0x206>
    4793:	ffdb46        	j	4704 <_Z27CLongBlock_ReadSpectralDataPPtP22CAacDecoderChannelInfo+0x174>

00004796 <_Z27CLongBlock_ReadSpectralDataPPtP22CAacDecoderChannelInfo+0x206>:
    4796:	220c           	movi.n	a2, 2
    4798:	f01d           	retw.n

0000479a <_Z27CLongBlock_ReadSpectralDataPPtP22CAacDecoderChannelInfo+0x20a>:
    479a:	4d0c           	movi.n	a13, 4
    479c:	000206        	j	47a8 <_Z27CLongBlock_ReadSpectralDataPPtP22CAacDecoderChannelInfo+0x218>

0000479f <_Z27CLongBlock_ReadSpectralDataPPtP22CAacDecoderChannelInfo+0x20f>:
	...

000047a0 <_Z27CLongBlock_ReadSpectralDataPPtP22CAacDecoderChannelInfo+0x210>:
    47a0:	4d0c           	movi.n	a13, 4
    47a2:	000906        	j	47ca <_Z27CLongBlock_ReadSpectralDataPPtP22CAacDecoderChannelInfo+0x23a>

000047a5 <_Z27CLongBlock_ReadSpectralDataPPtP22CAacDecoderChannelInfo+0x215>:
	...

000047a6 <_Z27CLongBlock_ReadSpectralDataPPtP22CAacDecoderChannelInfo+0x216>:
    47a6:	dd1b           	addi.n	a13, a13, 1

000047a8 <_Z27CLongBlock_ReadSpectralDataPPtP22CAacDecoderChannelInfo+0x218>:
    47a8:	d1d9           	s32i.n	a13, a1, 52
    47aa:	03af14        	ae_lbi	a10, 1
    47ad:	0016f4        	ae_dbi	a6, 1
    47b0:	0269           	s32i.n	a6, a2, 0
    47b2:	f01a26        	beqi	a10, 1, 47a6 <_Z27CLongBlock_ReadSpectralDataPPtP22CAacDecoderChannelInfo+0x216>
    47b5:	d1a8           	l32i.n	a10, a1, 52
    47b7:	0d1c           	movi.n	a13, 16
    47b9:	33ada7        	bge	a13, a10, 47f0 <_Z27CLongBlock_ReadSpectralDataPPtP22CAacDecoderChannelInfo+0x260>
    47bc:	0d3c           	movi.n	a13, 48
    47be:	42ada7        	bge	a13, a10, 4804 <_Z27CLongBlock_ReadSpectralDataPPtP22CAacDecoderChannelInfo+0x274>
    47c1:	ee7bd1        	l32r	a13, 1b0 (7fffffff <_end+0x7ffef447>)
    47c4:	ffea86        	j	4772 <_Z27CLongBlock_ReadSpectralDataPPtP22CAacDecoderChannelInfo+0x1e2>

000047c7 <_Z27CLongBlock_ReadSpectralDataPPtP22CAacDecoderChannelInfo+0x237>:
	...

000047c8 <_Z27CLongBlock_ReadSpectralDataPPtP22CAacDecoderChannelInfo+0x238>:
    47c8:	dd1b           	addi.n	a13, a13, 1

000047ca <_Z27CLongBlock_ReadSpectralDataPPtP22CAacDecoderChannelInfo+0x23a>:
    47ca:	d1d9           	s32i.n	a13, a1, 52
    47cc:	03af14        	ae_lbi	a10, 1
    47cf:	0016f4        	ae_dbi	a6, 1
    47d2:	0269           	s32i.n	a6, a2, 0
    47d4:	f01a26        	beqi	a10, 1, 47c8 <_Z27CLongBlock_ReadSpectralDataPPtP22CAacDecoderChannelInfo+0x238>
    47d7:	d1a8           	l32i.n	a10, a1, 52
    47d9:	0d1c           	movi.n	a13, 16
    47db:	51ada7        	bge	a13, a10, 4830 <_Z27CLongBlock_ReadSpectralDataPPtP22CAacDecoderChannelInfo+0x2a0>
    47de:	0d3c           	movi.n	a13, 48
    47e0:	71ada7        	bge	a13, a10, 4855 <_Z27CLongBlock_ReadSpectralDataPPtP22CAacDecoderChannelInfo+0x2c5>
    47e3:	61d8           	l32i.n	a13, a1, 24
    47e5:	ee7291        	l32r	a9, 1b0 (7fffffff <_end+0x7ffef447>)
    47e8:	60d1d0        	abs	a13, a13
    47eb:	ffe9c6        	j	4796 <_Z27CLongBlock_ReadSpectralDataPPtP22CAacDecoderChannelInfo+0x206>

000047ee <_Z27CLongBlock_ReadSpectralDataPPtP22CAacDecoderChannelInfo+0x25e>:
	...

000047f0 <_Z27CLongBlock_ReadSpectralDataPPtP22CAacDecoderChannelInfo+0x260>:
    47f0:	03d7a4        	ae_lb	a13, a10
    47f3:	b1d9           	s32i.n	a13, a1, 44
    47f5:	1c16a4        	ae_db	a6, a10
    47f8:	0269           	s32i.n	a6, a2, 0
    47fa:	cd0c           	movi.n	a13, 12
    47fc:	19ada7        	bge	a13, a10, 4819 <_Z27CLongBlock_ReadSpectralDataPPtP22CAacDecoderChannelInfo+0x289>
    47ff:	0d0c           	movi.n	a13, 0
    4801:	ffdb46        	j	4772 <_Z27CLongBlock_ReadSpectralDataPPtP22CAacDecoderChannelInfo+0x1e2>

00004804 <_Z27CLongBlock_ReadSpectralDataPPtP22CAacDecoderChannelInfo+0x274>:
    4804:	f0cad2        	addi	a13, a10, -16
    4807:	03a7d4        	ae_lb	a10, a13
    480a:	1c16d4        	ae_db	a6, a13
    480d:	0269           	s32i.n	a6, a2, 0
    480f:	15aa04        	ae_lbki	a10, a10, 16
    4812:	b1a9           	s32i.n	a10, a1, 44
    4814:	0006f4        	ae_dbi	a6, 16
    4817:	0269           	s32i.n	a6, a2, 0

00004819 <_Z27CLongBlock_ReadSpectralDataPPtP22CAacDecoderChannelInfo+0x289>:
    4819:	d1d8           	l32i.n	a13, a1, 52
    481b:	401d00        	ssl	a13
    481e:	b1d8           	l32i.n	a13, a1, 44
    4820:	1a0c           	movi.n	a10, 1
    4822:	a1aa00        	sll	a10, a10
    4825:	ddaa           	add.n	a13, a13, a10
    4827:	60a0d0        	neg	a10, a13
    482a:	a3daf0        	movltz	a13, a10, a15
    482d:	ffd046        	j	4772 <_Z27CLongBlock_ReadSpectralDataPPtP22CAacDecoderChannelInfo+0x1e2>

00004830 <_Z27CLongBlock_ReadSpectralDataPPtP22CAacDecoderChannelInfo+0x2a0>:
    4830:	0add           	mov.n	a13, a10
    4832:	03a7a4        	ae_lb	a10, a10
    4835:	b1a9           	s32i.n	a10, a1, 44
    4837:	1c16d4        	ae_db	a6, a13
    483a:	0269           	s32i.n	a6, a2, 0
    483c:	ca0c           	movi.n	a10, 12
    483e:	2eaad7        	bge	a10, a13, 4870 <_Z27CLongBlock_ReadSpectralDataPPtP22CAacDecoderChannelInfo+0x2e0>
    4841:	61d8           	l32i.n	a13, a1, 24
    4843:	ee5b91        	l32r	a9, 1b0 (7fffffff <_end+0x7ffef447>)
    4846:	60d1d0        	abs	a13, a13
    4849:	c0dd90        	sub	a13, a13, a9
    484c:	f46d16        	beqz	a13, 4796 <_Z27CLongBlock_ReadSpectralDataPPtP22CAacDecoderChannelInfo+0x206>
    484f:	090c           	movi.n	a9, 0
    4851:	ffabc6        	j	4704 <_Z27CLongBlock_ReadSpectralDataPPtP22CAacDecoderChannelInfo+0x174>

00004854 <_Z27CLongBlock_ReadSpectralDataPPtP22CAacDecoderChannelInfo+0x2c4>:
	...

00004855 <_Z27CLongBlock_ReadSpectralDataPPtP22CAacDecoderChannelInfo+0x2c5>:
    4855:	176132        	s32i	a3, a1, 92
    4858:	f0caa2        	addi	a10, a10, -16
    485b:	0337a4        	ae_lb	a3, a10
    485e:	1c16a4        	ae_db	a6, a10
    4861:	153304        	ae_lbki	a3, a3, 16
    4864:	0269           	s32i.n	a6, a2, 0
    4866:	b139           	s32i.n	a3, a1, 44
    4868:	172132        	l32i	a3, a1, 92
    486b:	0006f4        	ae_dbi	a6, 16
    486e:	0269           	s32i.n	a6, a2, 0

00004870 <_Z27CLongBlock_ReadSpectralDataPPtP22CAacDecoderChannelInfo+0x2e0>:
    4870:	186122        	s32i	a2, a1, 96
    4873:	d128           	l32i.n	a2, a1, 52
    4875:	401200        	ssl	a2
    4878:	b128           	l32i.n	a2, a1, 44
    487a:	1a0c           	movi.n	a10, 1
    487c:	a1aa00        	sll	a10, a10
    487f:	22aa           	add.n	a2, a2, a10
    4881:	60a020        	neg	a10, a2
    4884:	a32a90        	movltz	a2, a10, a9
    4887:	f129           	s32i.n	a2, a1, 60
    4889:	182122        	l32i	a2, a1, 96
    488c:	ffbc06        	j	4780 <_Z27CLongBlock_ReadSpectralDataPPtP22CAacDecoderChannelInfo+0x1f0>

0000488f <_Z27CLongBlock_ReadSpectralDataPPtP22CAacDecoderChannelInfo+0x2ff>:
    488f:	000000                                        ...

00004892 <_Z27CLongBlock_ReadSpectralDataPPtP22CAacDecoderChannelInfo+0x302>:
    4892:	91b8           	l32i.n	a11, a1, 36
    4894:	a1a8           	l32i.n	a10, a1, 40
    4896:	ee4781        	l32r	a8, 1b4 (5f8c <_Z16CPulseData_ApplyP10CPulseDataPKtPi>)
    4899:	e1c8           	l32i.n	a12, a1, 56
    489b:	2aa8           	l32i.n	a10, a10, 8
    489d:	0008e0        	callx8	a8
    48a0:	ee46b1        	l32r	a11, 1b8 (109ec <InverseQuantTable_delta>)
    48a3:	ee4671        	l32r	a7, 1bc (dc40 <specExpTableComb>)
    48a6:	1121c2        	l32i	a12, a1, 68
    48a9:	762c           	movi.n	a6, 39
    48ab:	ee0031        	l32r	a3, ac (109e8 <specExpMantTableComb>)
    48ae:	021ce6        	bgei	a12, 1, 48b4 <_Z27CLongBlock_ReadSpectralDataPPtP22CAacDecoderChannelInfo+0x324>
    48b1:	008986        	j	4adb <_Z27CLongBlock_ReadSpectralDataPPtP22CAacDecoderChannelInfo+0x54b>
    48b4:	8128           	l32i.n	a2, a1, 32
    48b6:	0d0c           	movi.n	a13, 0
    48b8:	9158           	l32i.n	a5, a1, 36
    48ba:	71f8           	l32i.n	a15, a1, 28
    48bc:	03e8           	l32i.n	a14, a3, 0
    48be:	1261f2        	s32i	a15, a1, 72
    48c1:	136152        	s32i	a5, a1, 76
    48c4:	1461d2        	s32i	a13, a1, 80
    48c7:	0b58           	l32i.n	a5, a11, 0
    48c9:	c1e9           	s32i.n	a14, a1, 48
    48cb:	001d06        	j	4943 <_Z27CLongBlock_ReadSpectralDataPPtP22CAacDecoderChannelInfo+0x3b3>

000048ce <_Z27CLongBlock_ReadSpectralDataPPtP22CAacDecoderChannelInfo+0x33e>:
    48ce:	c1d8           	l32i.n	a13, a1, 48
    48d0:	14a080        	extui	a10, a8, 0, 2
    48d3:	368934        	ae_cvtq48a32s	aeq2, a9
    48d6:	366c04        	ae_nsaq56s	a12, aeq2
    48d9:	f0aaa0        	subx8	a10, a10, a10
    48dc:	b0dad0        	addx8	a13, a10, a13
    48df:	f8ccf2        	addi	a15, a12, -8
    48e2:	401f00        	ssl	a15
    48e5:	d0aac0        	subx2	a10, a10, a12
    48e8:	a1e900        	sll	a14, a9
    48eb:	75f6e0        	extui	a15, a14, 22, 8
    48ee:	35e2e0        	extui	a14, a14, 18, 4
    48f1:	11ffd0        	slli	a15, a15, 3
    48f4:	5525f4        	ae_lp24x2.x	aep2, a5, a15
    48f7:	01eed0        	slli	a14, a14, 19
    48fa:	fd44223eef 	{ ae_movpa24x2	aep3, a14, a14; ae_cvtq48p24s.h	aeq1, aep2 }
    48ff:	e26bd5c6cf 	{ sub	a12, a6, a12; ae_mulafp24s.ll	aeq1, aep2, aep3 }
    4904:	a0ccd0        	addx4	a12, a12, a13
    4907:	f8efb11c0f 	{ ae_lp24.i	aep1, a12, 0; ae_roundsp24q48sym	aep0, aeq1 }
    490c:	ea209097af 	{ add	a9, a7, a10; ae_mulfp24s.hl	aeq0, aep0, aep1 }
    4911:	270992        	l8ui	a9, a9, 39
    4914:	364a04        	ae_nsaq56s	a10, aeq0
    4917:	c099a0        	sub	a9, a9, a10
    491a:	998b           	addi.n	a9, a9, 8

0000491c <_Z27CLongBlock_ReadSpectralDataPPtP22CAacDecoderChannelInfo+0x38c>:
    491c:	21c280        	srai	a12, a8, 2
    491f:	c9ca           	add.n	a12, a9, a12
    4921:	62cd           	ae_s16i.n	a12, a2, 0

00004923 <_Z27CLongBlock_ReadSpectralDataPPtP22CAacDecoderChannelInfo+0x393>:
    4923:	222b           	addi.n	a2, a2, 2
    4925:	1121d2        	l32i	a13, a1, 68
    4928:	1421e2        	l32i	a14, a1, 80
    492b:	1221f2        	l32i	a15, a1, 72
    492e:	132182        	l32i	a8, a1, 76
    4931:	ee1b           	addi.n	a14, a14, 1
    4933:	ff2b           	addi.n	a15, a15, 2
    4935:	882b           	addi.n	a8, a8, 2
    4937:	136182        	s32i	a8, a1, 76
    493a:	1261f2        	s32i	a15, a1, 72
    493d:	1461e2        	s32i	a14, a1, 80
    4940:	641de7        	beq	a13, a14, 49a8 <_Z27CLongBlock_ReadSpectralDataPPtP22CAacDecoderChannelInfo+0x418>

00004943 <_Z27CLongBlock_ReadSpectralDataPPtP22CAacDecoderChannelInfo+0x3b3>:
    4943:	102192        	l32i	a9, a1, 64
    4946:	142182        	l32i	a8, a1, 80
    4949:	889a           	add.n	a8, a8, a9
    494b:	000882        	l8ui	a8, a8, 0
    494e:	fd1816        	beqz	a8, 4923 <_Z27CLongBlock_ReadSpectralDataPPtP22CAacDecoderChannelInfo+0x393>
    4951:	fa0c           	movi.n	a10, 15
    4953:	cc18a7        	beq	a8, a10, 4923 <_Z27CLongBlock_ReadSpectralDataPPtP22CAacDecoderChannelInfo+0x393>
    4956:	ec0c           	movi.n	a12, 14
    4958:	c718c7        	beq	a8, a12, 4923 <_Z27CLongBlock_ReadSpectralDataPPtP22CAacDecoderChannelInfo+0x393>
    495b:	dd0c           	movi.n	a13, 13
    495d:	c218d7        	beq	a8, a13, 4923 <_Z27CLongBlock_ReadSpectralDataPPtP22CAacDecoderChannelInfo+0x393>
    4960:	132142        	l32i	a4, a1, 76
    4963:	548d           	ae_l16ui.n	a8, a4, 2
    4965:	444d           	ae_l16ui.n	a4, a4, 0
    4967:	07c814        	ae_zerop48	aep1
    496a:	25a487        	bge	a4, a8, 4993 <_Z27CLongBlock_ReadSpectralDataPPtP22CAacDecoderChannelInfo+0x403>
    496d:	c09840        	sub	a9, a8, a4
    4970:	e188           	l32i.n	a8, a1, 56
    4972:	991b           	addi.n	a9, a9, 1
    4974:	219190        	srai	a9, a9, 1
    4977:	a08480        	addx4	a8, a4, a8
    497a:	f8c882        	addi	a8, a8, -8
    497d:	548814        	ae_lp24x2.iu	aep0, a8, 8
    4980:	fc000ff99e 	{ addi	a9, a9, -1; ae_absp24	aep0, aep0 }
    4985:	07a976        	loopgtz	a9, 4990 <_Z27CLongBlock_ReadSpectralDataPPtP22CAacDecoderChannelInfo+0x400>
    4988:	d80670881f 	{ ae_lp24x2.iu	aep0, a8, 8; ae_maxp24s	aep1, aep1, aep0 }
    498d:	07b804        	ae_absp24	aep0, aep0

00004990 <_Z27CLongBlock_ReadSpectralDataPPtP22CAacDecoderChannelInfo+0x400>:
    4990:	071814        	ae_maxp24s	aep1, aep1, aep0

00004993 <_Z27CLongBlock_ReadSpectralDataPPtP22CAacDecoderChannelInfo+0x403>:
    4993:	1a99a4        	ae_selp24.hh	aep2, aep1, aep1
    4996:	d94631218e 	{ l32i	a8, a1, 72; ae_maxp24s	aep2, aep1, aep2 }
    499b:	34a904        	ae_movap24s.l	a9, aep2
    499e:	288d           	ae_l16si.n	a8, a8, 0
    49a0:	f2a956        	bnez	a9, 48ce <_Z27CLongBlock_ReadSpectralDataPPtP22CAacDecoderChannelInfo+0x33e>
    49a3:	896c           	movi.n	a9, -24
    49a5:	ffdcc6        	j	491c <_Z27CLongBlock_ReadSpectralDataPPtP22CAacDecoderChannelInfo+0x38c>

000049a8 <_Z27CLongBlock_ReadSpectralDataPPtP22CAacDecoderChannelInfo+0x418>:
    49a8:	021de6        	bgei	a13, 1, 49ae <_Z27CLongBlock_ReadSpectralDataPPtP22CAacDecoderChannelInfo+0x41e>
    49ab:	004b06        	j	4adb <_Z27CLongBlock_ReadSpectralDataPPtP22CAacDecoderChannelInfo+0x54b>
    49ae:	8128           	l32i.n	a2, a1, 32
    49b0:	0b58           	l32i.n	a5, a11, 0
    49b2:	0a0c           	movi.n	a10, 0
    49b4:	03c8           	l32i.n	a12, a3, 0
    49b6:	71d8           	l32i.n	a13, a1, 28
    49b8:	91e8           	l32i.n	a14, a1, 36
    49ba:	1361e2        	s32i	a14, a1, 76
    49bd:	1261d2        	s32i	a13, a1, 72
    49c0:	c1c9           	s32i.n	a12, a1, 48
    49c2:	1461a2        	s32i	a10, a1, 80

000049c5 <_Z27CLongBlock_ReadSpectralDataPPtP22CAacDecoderChannelInfo+0x435>:
    49c5:	122192        	l32i	a9, a1, 72
    49c8:	132142        	l32i	a4, a1, 76
    49cb:	0020f0        	nop
    49ce:	299d           	ae_l16si.n	a9, a9, 0
    49d0:	548d           	ae_l16ui.n	a8, a4, 2
    49d2:	444d           	ae_l16ui.n	a4, a4, 0
    49d4:	213290        	srai	a3, a9, 2
    49d7:	149090        	extui	a9, a9, 0, 2
    49da:	022487        	blt	a4, a8, 49e0 <_Z27CLongBlock_ReadSpectralDataPPtP22CAacDecoderChannelInfo+0x450>
    49dd:	002706        	j	4a7d <_Z27CLongBlock_ReadSpectralDataPPtP22CAacDecoderChannelInfo+0x4ed>
    49e0:	166182        	s32i	a8, a1, 88
    49e3:	0e21e2        	l32i	a14, a1, 56
    49e6:	f0b990        	subx8	a11, a9, a9
    49e9:	c0a840        	sub	a10, a8, a4
    49ec:	a0e4e0        	addx4	a14, a4, a14
    49ef:	0c2142        	l32i	a4, a1, 48
    49f2:	11cbf0        	slli	a12, a11, 1
    49f5:	fcce92        	addi	a9, a14, -4
    49f8:	b04b40        	addx8	a4, a11, a4
    49fb:	6eaa76        	loopgtz	a10, 4a6d <_Z27CLongBlock_ReadSpectralDataPPtP22CAacDecoderChannelInfo+0x4dd>
    49fe:	0e88           	l32i.n	a8, a14, 0
    4a00:	fc20d3beef 	{ or	a11, a14, a14; ae_zerop48	aep1 }
    4a05:	0020f0        	nop
    4a08:	05c816        	beqz	a8, 4a68 <_Z27CLongBlock_ReadSpectralDataPPtP22CAacDecoderChannelInfo+0x4d8>
    4a0b:	60a180        	abs	a10, a8
    4a0e:	364a34        	ae_cvtq48a32s	aeq1, a10
    4a11:	365f04        	ae_nsaq56s	a15, aeq1
    4a14:	f03d           	nop.n
    4a16:	c0ecf0        	sub	a14, a12, a15
    4a19:	f8cfd2        	addi	a13, a15, -8
    4a1c:	401d00        	ssl	a13
    4a1f:	e7ea           	add.n	a14, a7, a14
    4a21:	270ee2        	l8ui	a14, a14, 39
    4a24:	c0f6f0        	sub	a15, a6, a15
    4a27:	a1aa00        	sll	a10, a10
    4a2a:	35d2a0        	extui	a13, a10, 18, 4
    4a2d:	a0ff40        	addx4	a15, a15, a4
    4a30:	75a6a0        	extui	a10, a10, 22, 8
    4a33:	01ddd0        	slli	a13, a13, 19
    4a36:	39add4        	ae_movpa24x2	aep2, a13, a13
    4a39:	11aad0        	slli	a10, a10, 3
    4a3c:	5515a4        	ae_lp24x2.x	aep1, a5, a10
    4a3f:	fc242002de 	{ l16si	a13, a2, 0; ae_cvtq48p24s.h	aeq0, aep1 }
    4a44:	011234        	ae_mulafp24s.ll	aeq0, aep1, aep2
    4a47:	4c0f04        	ae_lp24.i	aep0, a15, 0
    4a4a:	fbe7d5dd3f 	{ sub	a13, a13, a3; ae_roundsp24q48sym	aep7, aeq0 }
    4a4f:	ea1c95ddef 	{ sub	a13, a13, a14; ae_mulfp24s.hl	aeq0, aep7, aep0 }
    4a54:	1b1da6        	blti	a13, 1, 4a73 <_Z27CLongBlock_ReadSpectralDataPPtP22CAacDecoderChannelInfo+0x4e3>
    4a57:	340db4        	ae_sraaq56	aeq0, aeq0, a13

00004a5a <_Z27CLongBlock_ReadSpectralDataPPtP22CAacDecoderChannelInfo+0x4ca>:
    4a5a:	fc10bf017f 	{ ae_movq56	aeq1, aeq0; ae_negq56	aeq0, aeq0 }
    4a5f:	02f8f7        	bbsi	a8, 31, 4a65 <_Z27CLongBlock_ReadSpectralDataPPtP22CAacDecoderChannelInfo+0x4d5>
    4a62:	061b34        	ae_movq56	aeq0, aeq1

00004a65 <_Z27CLongBlock_ReadSpectralDataPPtP22CAacDecoderChannelInfo+0x4d5>:
    4a65:	1b8c14        	ae_roundsp24q48sym	aep1, aeq0

00004a68 <_Z27CLongBlock_ReadSpectralDataPPtP22CAacDecoderChannelInfo+0x4d8>:
    4a68:	4e9914        	ae_sp24s.l.iu	aep1, a9, 4
    4a6b:	eb4b           	addi.n	a14, a11, 4

00004a6d <_Z27CLongBlock_ReadSpectralDataPPtP22CAacDecoderChannelInfo+0x4dd>:
    4a6d:	162142        	l32i	a4, a1, 88
    4a70:	000246        	j	4a7d <_Z27CLongBlock_ReadSpectralDataPPtP22CAacDecoderChannelInfo+0x4ed>

00004a73 <_Z27CLongBlock_ReadSpectralDataPPtP22CAacDecoderChannelInfo+0x4e3>:
    4a73:	60e0d0        	neg	a14, a13
    4a76:	340e34        	ae_sllasq56s	aeq0, aeq0, a14
    4a79:	fff746        	j	4a5a <_Z27CLongBlock_ReadSpectralDataPPtP22CAacDecoderChannelInfo+0x4ca>

00004a7c <_Z27CLongBlock_ReadSpectralDataPPtP22CAacDecoderChannelInfo+0x4ec>:
	...

00004a7d <_Z27CLongBlock_ReadSpectralDataPPtP22CAacDecoderChannelInfo+0x4ed>:
    4a7d:	222b           	addi.n	a2, a2, 2
    4a7f:	1121f2        	l32i	a15, a1, 68
    4a82:	142182        	l32i	a8, a1, 80
    4a85:	122192        	l32i	a9, a1, 72
    4a88:	1321a2        	l32i	a10, a1, 76
    4a8b:	881b           	addi.n	a8, a8, 1
    4a8d:	02c992        	addi	a9, a9, 2
    4a90:	02caa2        	addi	a10, a10, 2
    4a93:	1361a2        	s32i	a10, a1, 76
    4a96:	126192        	s32i	a9, a1, 72
    4a99:	146182        	s32i	a8, a1, 80
    4a9c:	c0ff80        	sub	a15, a15, a8
    4a9f:	f22f56        	bnez	a15, 49c5 <_Z27CLongBlock_ReadSpectralDataPPtP22CAacDecoderChannelInfo+0x435>

00004aa2 <_Z27CLongBlock_ReadSpectralDataPPtP22CAacDecoderChannelInfo+0x512>:
    4aa2:	126407        	bbci	a4, 0, 4ab8 <_Z27CLongBlock_ReadSpectralDataPPtP22CAacDecoderChannelInfo+0x528>
    4aa5:	ffa3b2        	movi	a11, 0x3ff
    4aa8:	2b2b47        	blt	a11, a4, 4ad7 <_Z27CLongBlock_ReadSpectralDataPPtP22CAacDecoderChannelInfo+0x547>
    4aab:	e1c8           	l32i.n	a12, a1, 56
    4aad:	fd20c0144e 	{ addi	a4, a4, 1; ae_zerop48	aep3 }
    4ab2:	a0c4c0        	addx4	a12, a4, a12
    4ab5:	4e3cf4        	ae_sp24s.l.i	aep3, a12, -4
    4ab8:	ffa3d2        	movi	a13, 0x3ff
    4abb:	182d47        	blt	a13, a4, 4ad7 <_Z27CLongBlock_ReadSpectralDataPPtP22CAacDecoderChannelInfo+0x547>
    4abe:	e188           	l32i.n	a8, a1, 56
    4ac0:	01a492        	movi	a9, 0x401
    4ac3:	c09940        	sub	a9, a9, a4
    4ac6:	219190        	srai	a9, a9, 1
    4ac9:	a08480        	addx4	a8, a4, a8
    4acc:	fc208f888e 	{ addi	a8, a8, -8; ae_zerop48	aep0 }
    4ad1:	02a976        	loopgtz	a9, 4ad7 <_Z27CLongBlock_ReadSpectralDataPPtP22CAacDecoderChannelInfo+0x547>
    4ad4:	568814        	ae_sp24x2s.iu	aep0, a8, 8

00004ad7 <_Z27CLongBlock_ReadSpectralDataPPtP22CAacDecoderChannelInfo+0x547>:
    4ad7:	020c           	movi.n	a2, 0
    4ad9:	f01d           	retw.n

00004adb <_Z27CLongBlock_ReadSpectralDataPPtP22CAacDecoderChannelInfo+0x54b>:
    4adb:	040c           	movi.n	a4, 0
    4add:	fff046        	j	4aa2 <_Z27CLongBlock_ReadSpectralDataPPtP22CAacDecoderChannelInfo+0x512>

00004ae0 <_Z27CLongBlock_ReadSpectralDataPPtP22CAacDecoderChannelInfo+0x550>:
    4ae0:	14f090        	extui	a15, a9, 0, 2
    4ae3:	14a690        	extui	a10, a9, 6, 2
    4ae6:	14d490        	extui	a13, a9, 4, 2
    4ae9:	21d9           	s32i.n	a13, a1, 8
    4aeb:	31a9           	s32i.n	a10, a1, 12
    4aed:	149290        	extui	a9, a9, 2, 2
    4af0:	feeb46        	j	46a1 <_Z27CLongBlock_ReadSpectralDataPPtP22CAacDecoderChannelInfo+0x111>

00004af3 <_Z27CLongBlock_ReadSpectralDataPPtP22CAacDecoderChannelInfo+0x563>:
	...

00004af4 <_Z26CLongBlock_ReadSectionDataPPtP22CAacDecoderChannelInfo>:
    4af4:	004136        	entry	a1, 32
    4af7:	0358           	l32i.n	a5, a3, 0
    4af9:	0405a2        	l8ui	a10, a5, 4
    4afc:	b3c8           	l32i.n	a12, a3, 44
    4afe:	23aa00        	sext	a10, a10, 7
    4b01:	741aa6        	blti	a10, 1, 4b79 <_Z26CLongBlock_ReadSectionDataPPtP22CAacDecoderChannelInfo+0x85>
    4b04:	070c           	movi.n	a7, 0
    4b06:	0b0c           	movi.n	a11, 0
    4b08:	01a0d2        	movi	a13, 1
    4b0b:	1fa092        	movi	a9, 31

00004b0e <_Z26CLongBlock_ReadSectionDataPPtP22CAacDecoderChannelInfo+0x1a>:
    4b0e:	02e8           	l32i.n	a14, a2, 0
    4b10:	038f44        	ae_lbi	a8, 4
    4b13:	004ef4        	ae_dbi	a14, 4
    4b16:	02e9           	s32i.n	a14, a2, 0
    4b18:	03ff54        	ae_lbi	a15, 5
    4b1b:	005ef4        	ae_dbi	a14, 5
    4b1e:	02e9           	s32i.n	a14, a2, 0
    4b20:	169f97        	bne	a15, a9, 4b3a <_Z26CLongBlock_ReadSectionDataPPtP22CAacDecoderChannelInfo+0x46>
    4b23:	060c           	movi.n	a6, 0
    4b25:	0d8076        	loop	a0, 4b36 <_Z26CLongBlock_ReadSectionDataPPtP22CAacDecoderChannelInfo+0x42>
    4b28:	1fc662        	addi	a6, a6, 31
    4b2b:	03ff54        	ae_lbi	a15, 5
    4b2e:	005ef4        	ae_dbi	a14, 5
    4b31:	02e9           	s32i.n	a14, a2, 0
    4b33:	059f97        	bne	a15, a9, 4b3c <_Z26CLongBlock_ReadSectionDataPPtP22CAacDecoderChannelInfo+0x48>

00004b36 <_Z26CLongBlock_ReadSectionDataPPtP22CAacDecoderChannelInfo+0x42>:
    4b36:	fffac6        	j	4b25 <_Z26CLongBlock_ReadSectionDataPPtP22CAacDecoderChannelInfo+0x31>

00004b39 <_Z26CLongBlock_ReadSectionDataPPtP22CAacDecoderChannelInfo+0x45>:
	...

00004b3a <_Z26CLongBlock_ReadSectionDataPPtP22CAacDecoderChannelInfo+0x46>:
    4b3a:	060c           	movi.n	a6, 0

00004b3c <_Z26CLongBlock_ReadSectionDataPPtP22CAacDecoderChannelInfo+0x48>:
    4b3c:	0b4d           	mov.n	a4, a11
    4b3e:	66fa           	add.n	a6, a6, a15
    4b40:	e67a           	add.n	a14, a6, a7
    4b42:	bb1b           	addi.n	a11, a11, 1
    4b44:	56a4a7        	bge	a4, a10, 4b9e <_Z26CLongBlock_ReadSectionDataPPtP22CAacDecoderChannelInfo+0xaa>
    4b47:	532ae7        	blt	a10, a14, 4b9e <_Z26CLongBlock_ReadSectionDataPPtP22CAacDecoderChannelInfo+0xaa>
    4b4a:	14a7e7        	bge	a7, a14, 4b62 <_Z26CLongBlock_ReadSectionDataPPtP22CAacDecoderChannelInfo+0x6e>
    4b4d:	745080        	extui	a5, a8, 0, 8
    4b50:	53e6d0        	max	a14, a6, a13
    4b53:	67ca           	add.n	a6, a7, a12
    4b55:	09ae76        	loopgtz	a14, 4b62 <_Z26CLongBlock_ReadSectionDataPPtP22CAacDecoderChannelInfo+0x6e>
    4b58:	004682        	s8i	a8, a6, 0
    4b5b:	14a526        	beqi	a5, 12, 4b73 <_Z26CLongBlock_ReadSectionDataPPtP22CAacDecoderChannelInfo+0x7f>
    4b5e:	661b           	addi.n	a6, a6, 1
    4b60:	771b           	addi.n	a7, a7, 1

00004b62 <_Z26CLongBlock_ReadSectionDataPPtP22CAacDecoderChannelInfo+0x6e>:
    4b62:	a827a7        	blt	a7, a10, 4b0e <_Z26CLongBlock_ReadSectionDataPPtP22CAacDecoderChannelInfo+0x1a>
    4b65:	03f8           	l32i.n	a15, a3, 0
    4b67:	060ff2        	l8ui	a15, a15, 6
    4b6a:	23ff00        	sext	a15, a15, 7
    4b6d:	1327f7        	blt	a7, a15, 4b84 <_Z26CLongBlock_ReadSectionDataPPtP22CAacDecoderChannelInfo+0x90>
    4b70:	000986        	j	4b9a <_Z26CLongBlock_ReadSectionDataPPtP22CAacDecoderChannelInfo+0xa6>

00004b73 <_Z26CLongBlock_ReadSectionDataPPtP22CAacDecoderChannelInfo+0x7f>:
    4b73:	420c           	movi.n	a2, 4
    4b75:	f01d           	retw.n

00004b77 <_Z26CLongBlock_ReadSectionDataPPtP22CAacDecoderChannelInfo+0x83>:
	...

00004b79 <_Z26CLongBlock_ReadSectionDataPPtP22CAacDecoderChannelInfo+0x85>:
    4b79:	060542        	l8ui	a4, a5, 6
    4b7c:	234400        	sext	a4, a4, 7
    4b7f:	1714a6        	blti	a4, 1, 4b9a <_Z26CLongBlock_ReadSectionDataPPtP22CAacDecoderChannelInfo+0xa6>
    4b82:	070c           	movi.n	a7, 0

00004b84 <_Z26CLongBlock_ReadSectionDataPPtP22CAacDecoderChannelInfo+0x90>:
    4b84:	67ca           	add.n	a6, a7, a12
    4b86:	020c           	movi.n	a2, 0

00004b88 <_Z26CLongBlock_ReadSectionDataPPtP22CAacDecoderChannelInfo+0x94>:
    4b88:	004622        	s8i	a2, a6, 0
    4b8b:	0358           	l32i.n	a5, a3, 0
    4b8d:	060552        	l8ui	a5, a5, 6
    4b90:	771b           	addi.n	a7, a7, 1
    4b92:	661b           	addi.n	a6, a6, 1
    4b94:	235500        	sext	a5, a5, 7
    4b97:	ed2757        	blt	a7, a5, 4b88 <_Z26CLongBlock_ReadSectionDataPPtP22CAacDecoderChannelInfo+0x94>
    4b9a:	020c           	movi.n	a2, 0
    4b9c:	f01d           	retw.n

00004b9e <_Z26CLongBlock_ReadSectionDataPPtP22CAacDecoderChannelInfo+0xaa>:
    4b9e:	220c           	movi.n	a2, 2
    4ba0:	f01d           	retw.n

00004ba2 <_Z26CLongBlock_ReadSectionDataPPtP22CAacDecoderChannelInfo+0xae>:
	...

00004ba4 <_Z30CLongBlock_ReadScaleFactorDataPPtP22CAacDecoderChannelInfoh>:
    4ba4:	008136        	entry	a1, 64
    4ba7:	03ad           	mov.n	a10, a3
    4ba9:	a368           	l32i.n	a6, a3, 40
    4bab:	049d           	mov.n	a9, a4
    4bad:	4149           	s32i.n	a4, a1, 16
    4baf:	ed7f81        	l32r	a8, 1ac (10b30 <hcb_list>)
    4bb2:	0378           	l32i.n	a7, a3, 0
    4bb4:	02bd           	mov.n	a11, a2
    4bb6:	c888           	l32i.n	a8, a8, 48
    4bb8:	040772        	l8ui	a7, a7, 4
    4bbb:	b328           	l32i.n	a2, a3, 44
    4bbd:	482b           	addi.n	a4, a8, 2
    4bbf:	237700        	sext	a7, a7, 7
    4bc2:	488d           	ae_l16ui.n	a8, a8, 0
    4bc4:	5189           	s32i.n	a8, a1, 20
    4bc6:	035684        	wur.ae_first_ts	a8
    4bc9:	0217e6        	bgei	a7, 1, 4bcf <_Z30CLongBlock_ReadScaleFactorDataPPtP22CAacDecoderChannelInfoh+0x2b>
    4bcc:	002406        	j	4c60 <_Z30CLongBlock_ReadScaleFactorDataPPtP22CAacDecoderChannelInfoh+0xbc>
    4bcf:	050c           	movi.n	a5, 0
    4bd1:	030c           	movi.n	a3, 0
    4bd3:	21a9           	s32i.n	a10, a1, 8
    4bd5:	1199           	s32i.n	a9, a1, 4
    4bd7:	ed7ac1        	l32r	a12, 1c0 (ec20 <HuffmanCodeBooks+0x60>)
    4bda:	31c9           	s32i.n	a12, a1, 12
    4bdc:	0008c6        	j	4c03 <_Z30CLongBlock_ReadScaleFactorDataPPtP22CAacDecoderChannelInfoh+0x5f>

00004bdf <_Z30CLongBlock_ReadScaleFactorDataPPtP22CAacDecoderChannelInfoh+0x3b>:
	...

00004be0 <_Z30CLongBlock_ReadScaleFactorDataPPtP22CAacDecoderChannelInfoh+0x3c>:
    4be0:	51d8           	l32i.n	a13, a1, 20
    4be2:	0386d4        	ae_vldsht	a13

00004be5 <_Z30CLongBlock_ReadScaleFactorDataPPtP22CAacDecoderChannelInfoh+0x41>:
    4be5:	0be8           	l32i.n	a14, a11, 0
    4be7:	130494        	ae_vldl16t	b0, a9, a4
    4bea:	180e14        	ae_vldl16c	a14
    4bed:	0be9           	s32i.n	a14, a11, 0
    4bef:	f20076        	bf	b0, 4be5 <_Z30CLongBlock_ReadScaleFactorDataPPtP22CAacDecoderChannelInfoh+0x41>
    4bf2:	c4c982        	addi	a8, a9, -60
    4bf5:	338a           	add.n	a3, a3, a8
    4bf7:	9cc3f2        	addi	a15, a3, -100
    4bfa:	66fd           	ae_s16i.n	a15, a6, 0

00004bfc <_Z30CLongBlock_ReadScaleFactorDataPPtP22CAacDecoderChannelInfoh+0x58>:
    4bfc:	662b           	addi.n	a6, a6, 2
    4bfe:	551b           	addi.n	a5, a5, 1
    4c00:	441757        	beq	a7, a5, 4c48 <_Z30CLongBlock_ReadScaleFactorDataPPtP22CAacDecoderChannelInfoh+0xa4>

00004c03 <_Z30CLongBlock_ReadScaleFactorDataPPtP22CAacDecoderChannelInfoh+0x5f>:
    4c03:	952a           	add.n	a9, a5, a2
    4c05:	000992        	l8ui	a9, a9, 0
    4c08:	fe0c           	movi.n	a14, 15
    4c0a:	23f900        	sext	a15, a9, 7
    4c0d:	09bc           	beqz.n	a9, 4c41 <_Z30CLongBlock_ReadScaleFactorDataPPtP22CAacDecoderChannelInfoh+0x9d>
    4c0f:	cd1fe7        	beq	a15, a14, 4be0 <_Z30CLongBlock_ReadScaleFactorDataPPtP22CAacDecoderChannelInfoh+0x3c>
    4c12:	ea0c           	movi.n	a10, 14
    4c14:	c81fa7        	beq	a15, a10, 4be0 <_Z30CLongBlock_ReadScaleFactorDataPPtP22CAacDecoderChannelInfoh+0x3c>
    4c17:	01b9           	s32i.n	a11, a1, 0
    4c19:	dc0c           	movi.n	a12, 13
    4c1b:	2b1fc7        	beq	a15, a12, 4c4a <_Z30CLongBlock_ReadScaleFactorDataPPtP22CAacDecoderChannelInfoh+0xa6>
    4c1e:	51d8           	l32i.n	a13, a1, 20
    4c20:	41f8           	l32i.n	a15, a1, 16
    4c22:	0386d4        	ae_vldsht	a13

00004c25 <_Z30CLongBlock_ReadScaleFactorDataPPtP22CAacDecoderChannelInfoh+0x81>:
    4c25:	0be8           	l32i.n	a14, a11, 0
    4c27:	131494        	ae_vldl16t	b1, a9, a4
    4c2a:	180e14        	ae_vldl16c	a14
    4c2d:	0be9           	s32i.n	a14, a11, 0
    4c2f:	f20176        	bf	b1, 4c25 <_Z30CLongBlock_ReadScaleFactorDataPPtP22CAacDecoderChannelInfoh+0x81>
    4c32:	c4c982        	addi	a8, a9, -60
    4c35:	ff8a           	add.n	a15, a15, a8
    4c37:	41f9           	s32i.n	a15, a1, 16
    4c39:	9ccff2        	addi	a15, a15, -100
    4c3c:	66fd           	ae_s16i.n	a15, a6, 0
    4c3e:	ffee86        	j	4bfc <_Z30CLongBlock_ReadScaleFactorDataPPtP22CAacDecoderChannelInfoh+0x58>

00004c41 <_Z30CLongBlock_ReadScaleFactorDataPPtP22CAacDecoderChannelInfoh+0x9d>:
    4c41:	090c           	movi.n	a9, 0
    4c43:	669d           	ae_s16i.n	a9, a6, 0
    4c45:	ffecc6        	j	4bfc <_Z30CLongBlock_ReadScaleFactorDataPPtP22CAacDecoderChannelInfoh+0x58>

00004c48 <_Z30CLongBlock_ReadScaleFactorDataPPtP22CAacDecoderChannelInfoh+0xa4>:
    4c48:	f01d           	retw.n

00004c4a <_Z30CLongBlock_ReadScaleFactorDataPPtP22CAacDecoderChannelInfoh+0xa6>:
    4c4a:	21a8           	l32i.n	a10, a1, 8
    4c4c:	31c8           	l32i.n	a12, a1, 12
    4c4e:	11d8           	l32i.n	a13, a1, 4
    4c50:	ed5d81        	l32r	a8, 1c4 (5560 <_Z9CPns_ReadP22CAacDecoderChannelInfoPPtPK22tagCodeBookDescriptionhii>)
    4c53:	05ed           	mov.n	a14, a5
    4c55:	0f0c           	movi.n	a15, 0
    4c57:	0008e0        	callx8	a8
    4c5a:	01b8           	l32i.n	a11, a1, 0
    4c5c:	ffe706        	j	4bfc <_Z30CLongBlock_ReadScaleFactorDataPPtP22CAacDecoderChannelInfoh+0x58>

00004c5f <_Z30CLongBlock_ReadScaleFactorDataPPtP22CAacDecoderChannelInfoh+0xbb>:
	...

00004c60 <_Z30CLongBlock_ReadScaleFactorDataPPtP22CAacDecoderChannelInfoh+0xbc>:
    4c60:	f01d           	retw.n

00004c62 <_Z30CLongBlock_ReadScaleFactorDataPPtP22CAacDecoderChannelInfoh+0xbe>:
    4c62:	00000000 a1360000                                ......

00004c68 <_Z28CShortBlock_ReadSpectralDataPPtP22CAacDecoderChannelInfo>:
    4c68:	01a136        	entry	a1, 208
    4c6b:	9139           	s32i.n	a3, a1, 36
    4c6d:	8378           	l32i.n	a7, a3, 32
    4c6f:	ecfc41        	l32r	a4, 60 (109f0 <SamplingRateInfoTable>)
    4c72:	73a8           	l32i.n	a10, a3, 28
    4c74:	02fd           	mov.n	a15, a2
    4c76:	0368           	l32i.n	a6, a3, 0
    4c78:	090c           	movi.n	a9, 0
    4c7a:	a3b8           	l32i.n	a11, a3, 40
    4c7c:	93c8           	l32i.n	a12, a3, 36
    4c7e:	b3d8           	l32i.n	a13, a3, 44
    4c80:	51d9           	s32i.n	a13, a1, 20
    4c82:	1661c2        	s32i	a12, a1, 88
    4c85:	61b9           	s32i.n	a11, a1, 24
    4c87:	176192        	s32i	a9, a1, 92
    4c8a:	070622        	l8ui	a2, a6, 7
    4c8d:	2661a2        	s32i	a10, a1, 152
    4c90:	030692        	l8ui	a9, a6, 3
    4c93:	232200        	sext	a2, a2, 7
    4c96:	a02220        	addx4	a2, a2, a2
    4c99:	a02240        	addx4	a2, a2, a4
    4c9c:	2248           	l32i.n	a4, a2, 8
    4c9e:	4228           	l32i.n	a2, a2, 16
    4ca0:	10c782        	addi	a8, a7, 16
    4ca3:	fec992        	addi	a9, a9, -2
    4ca6:	932490        	movnez	a2, a4, a9
    4ca9:	d129           	s32i.n	a2, a1, 52

00004cab <_Z28CShortBlock_ReadSpectralDataPPtP22CAacDecoderChannelInfo+0x43>:
    4cab:	162152        	l32i	a5, a1, 88
    4cae:	172122        	l32i	a2, a1, 92
    4cb1:	030c           	movi.n	a3, 0
    4cb3:	673d           	ae_s16i.n	a3, a7, 0
    4cb5:	060642        	l8ui	a4, a6, 6
    4cb8:	225a           	add.n	a2, a2, a5
    4cba:	234400        	sext	a4, a4, 7
    4cbd:	02a476        	loopgtz	a4, 4cc3 <_Z28CShortBlock_ReadSpectralDataPPtP22CAacDecoderChannelInfo+0x5b>
    4cc0:	09c234        	ae_s16ip	a3, a2, 2

00004cc3 <_Z28CShortBlock_ReadSpectralDataPPtP22CAacDecoderChannelInfo+0x5b>:
    4cc3:	172152        	l32i	a5, a1, 92
    4cc6:	02c772        	addi	a7, a7, 2
    4cc9:	20c552        	addi	a5, a5, 32
    4ccc:	176152        	s32i	a5, a1, 92
    4ccf:	d89787        	bne	a7, a8, 4cab <_Z28CShortBlock_ReadSpectralDataPPtP22CAacDecoderChannelInfo+0x43>
    4cd2:	262122        	l32i	a2, a1, 152
    4cd5:	00a232        	movi	a3, 0x200
    4cd8:	fd20cf822e 	{ addi	a2, a2, -8; ae_zerop48	aep3 }
    4cdd:	028376        	loop	a3, 4ce3 <_Z28CShortBlock_ReadSpectralDataPPtP22CAacDecoderChannelInfo+0x7b>
    4ce0:	56b214        	ae_sp24x2s.iu	aep3, a2, 8
    4ce3:	9168           	l32i.n	a6, a1, 36
    4ce5:	0668           	l32i.n	a6, a6, 0
    4ce7:	040652        	l8ui	a5, a6, 4
    4cea:	090642        	l8ui	a4, a6, 9
    4ced:	235500        	sext	a5, a5, 7
    4cf0:	234400        	sext	a4, a4, 7
    4cf3:	e159           	s32i.n	a5, a1, 56
    4cf5:	045d           	mov.n	a5, a4
    4cf7:	0214e6        	bgei	a4, 1, 4cfd <_Z28CShortBlock_ReadSpectralDataPPtP22CAacDecoderChannelInfo+0x95>
    4cfa:	012606        	j	5196 <_Z28CShortBlock_ReadSpectralDataPPtP22CAacDecoderChannelInfo+0x52e>
    4cfd:	020c           	movi.n	a2, 0
    4cff:	4159           	s32i.n	a5, a1, 16
    4d01:	0d0c           	movi.n	a13, 0
    4d03:	0e0c           	movi.n	a14, 0
    4d05:	0c0c           	movi.n	a12, 0
    4d07:	1361c2        	s32i	a12, a1, 76
    4d0a:	71e9           	s32i.n	a14, a1, 28
    4d0c:	0861d2        	s32i	a13, a1, 32
    4d0f:	ed2be1        	l32r	a14, 1bc (dc40 <specExpTableComb>)
    4d12:	27a0d2        	movi	a13, 39

00004d15 <_Z28CShortBlock_ReadSpectralDataPPtP22CAacDecoderChannelInfo+0xad>:
    4d15:	526a           	add.n	a5, a2, a6
    4d17:	0a0552        	l8ui	a5, a5, 10
    4d1a:	e148           	l32i.n	a4, a1, 56
    4d1c:	235500        	sext	a5, a5, 7
    4d1f:	146152        	s32i	a5, a1, 80
    4d22:	0214e6        	bgei	a4, 1, 4d28 <_Z28CShortBlock_ReadSpectralDataPPtP22CAacDecoderChannelInfo+0xc0>
    4d25:	0033c6        	j	4df8 <_Z28CShortBlock_ReadSpectralDataPPtP22CAacDecoderChannelInfo+0x190>
    4d28:	276122        	s32i	a2, a1, 156
    4d2b:	e1a8           	l32i.n	a10, a1, 56
    4d2d:	5148           	l32i.n	a4, a1, 20
    4d2f:	6198           	l32i.n	a9, a1, 24
    4d31:	81c8           	l32i.n	a12, a1, 32
    4d33:	0b0c           	movi.n	a11, 0
    4d35:	d188           	l32i.n	a8, a1, 52
    4d37:	256182        	s32i	a8, a1, 148
    4d3a:	1561b2        	s32i	a11, a1, 84
    4d3d:	7188           	l32i.n	a8, a1, 28
    4d3f:	cc9a           	add.n	a12, a12, a9
    4d41:	2461c2        	s32i	a12, a1, 144
    4d44:	484a           	add.n	a4, a8, a4
    4d46:	a149           	s32i.n	a4, a1, 40
    4d48:	88aa           	add.n	a8, a8, a10
    4d4a:	908890        	addx2	a8, a8, a9
    4d4d:	1f6182        	s32i	a8, a1, 124

00004d50 <_Z28CShortBlock_ReadSpectralDataPPtP22CAacDecoderChannelInfo+0xe8>:
    4d50:	242182        	l32i	a8, a1, 144
    4d53:	a198           	l32i.n	a9, a1, 40
    4d55:	288d           	ae_l16si.n	a8, a8, 0
    4d57:	000992        	l8ui	a9, a9, 0
    4d5a:	ed1321        	l32r	a2, 1a8 (ebc0 <HuffmanCodeBooks>)
    4d5d:	21a280        	srai	a10, a8, 2
    4d60:	237900        	sext	a7, a9, 7
    4d63:	1b6172        	s32i	a7, a1, 108
    4d66:	148080        	extui	a8, a8, 0, 2
    4d69:	b07720        	addx8	a7, a7, a2
    4d6c:	052916        	beqz	a9, 4dc2 <_Z28CShortBlock_ReadSpectralDataPPtP22CAacDecoderChannelInfo+0x15a>
    4d6f:	1b2192        	l32i	a9, a1, 108
    4d72:	f60c           	movi.n	a6, 15
    4d74:	4a1967        	beq	a9, a6, 4dc2 <_Z28CShortBlock_ReadSpectralDataPPtP22CAacDecoderChannelInfo+0x15a>
    4d77:	ec0c           	movi.n	a12, 14
    4d79:	4519c7        	beq	a9, a12, 4dc2 <_Z28CShortBlock_ReadSpectralDataPPtP22CAacDecoderChannelInfo+0x15a>
    4d7c:	d50c           	movi.n	a5, 13
    4d7e:	401957        	beq	a9, a5, 4dc2 <_Z28CShortBlock_ReadSpectralDataPPtP22CAacDecoderChannelInfo+0x15a>
    4d81:	ed0a91        	l32r	a9, 1ac (10b30 <hcb_list>)
    4d84:	020722        	l8ui	a2, a7, 2
    4d87:	252142        	l32i	a4, a1, 148
    4d8a:	1b2152        	l32i	a5, a1, 108
    4d8d:	232200        	sext	a2, a2, 7
    4d90:	544d           	ae_l16ui.n	a4, a4, 2
    4d92:	a05590        	addx4	a5, a5, a9
    4d95:	0558           	l32i.n	a5, a5, 0
    4d97:	236142        	s32i	a4, a1, 140
    4d9a:	142192        	l32i	a9, a1, 80
    4d9d:	45bd           	ae_l16ui.n	a11, a5, 0
    4d9f:	2061b2        	s32i	a11, a1, 128
    4da2:	0356b4        	wur.ae_first_ts	a11
    4da5:	1919a6        	blti	a9, 1, 4dc2 <_Z28CShortBlock_ReadSpectralDataPPtP22CAacDecoderChannelInfo+0x15a>
    4da8:	f0b880        	subx8	a11, a8, a8
    4dab:	452b           	addi.n	a4, a5, 2
    4dad:	216142        	s32i	a4, a1, 132
    4db0:	11cbd0        	slli	a12, a11, 3
    4db3:	1161c2        	s32i	a12, a1, 68
    4db6:	11bbf0        	slli	a11, a11, 1
    4db9:	0c0c           	movi.n	a12, 0
    4dbb:	1a61c2        	s32i	a12, a1, 104
    4dbe:	003d86        	j	4eb8 <_Z28CShortBlock_ReadSpectralDataPPtP22CAacDecoderChannelInfo+0x250>

00004dc1 <_Z28CShortBlock_ReadSpectralDataPPtP22CAacDecoderChannelInfo+0x159>:
	...

00004dc2 <_Z28CShortBlock_ReadSpectralDataPPtP22CAacDecoderChannelInfo+0x15a>:
    4dc2:	1f2182        	l32i	a8, a1, 124
    4dc5:	1521b2        	l32i	a11, a1, 84
    4dc8:	242152        	l32i	a5, a1, 144
    4dcb:	252192        	l32i	a9, a1, 148
    4dce:	a1a8           	l32i.n	a10, a1, 40
    4dd0:	552b           	addi.n	a5, a5, 2
    4dd2:	992b           	addi.n	a9, a9, 2
    4dd4:	aa1b           	addi.n	a10, a10, 1
    4dd6:	bb1b           	addi.n	a11, a11, 1
    4dd8:	1561b2        	s32i	a11, a1, 84
    4ddb:	a1a9           	s32i.n	a10, a1, 40
    4ddd:	256192        	s32i	a9, a1, 148
    4de0:	246152        	s32i	a5, a1, 144
    4de3:	021587        	beq	a5, a8, 4de9 <_Z28CShortBlock_ReadSpectralDataPPtP22CAacDecoderChannelInfo+0x181>
    4de6:	ffd986        	j	4d50 <_Z28CShortBlock_ReadSpectralDataPPtP22CAacDecoderChannelInfo+0xe8>
    4de9:	9168           	l32i.n	a6, a1, 36
    4deb:	272122        	l32i	a2, a1, 156
    4dee:	0668           	l32i.n	a6, a6, 0
    4df0:	526a           	add.n	a5, a2, a6
    4df2:	0a0552        	l8ui	a5, a5, 10
    4df5:	235500        	sext	a5, a5, 7

00004df8 <_Z28CShortBlock_ReadSpectralDataPPtP22CAacDecoderChannelInfo+0x190>:
    4df8:	1321b2        	l32i	a11, a1, 76
    4dfb:	71a8           	l32i.n	a10, a1, 28
    4dfd:	4188           	l32i.n	a8, a1, 16
    4dff:	8198           	l32i.n	a9, a1, 32
    4e01:	221b           	addi.n	a2, a2, 1
    4e03:	c08820        	sub	a8, a8, a2
    4e06:	20c992        	addi	a9, a9, 32
    4e09:	10caa2        	addi	a10, a10, 16
    4e0c:	bb5a           	add.n	a11, a11, a5
    4e0e:	1361b2        	s32i	a11, a1, 76
    4e11:	71a9           	s32i.n	a10, a1, 28
    4e13:	8199           	s32i.n	a9, a1, 32
    4e15:	efc856        	bnez	a8, 4d15 <_Z28CShortBlock_ReadSpectralDataPPtP22CAacDecoderChannelInfo+0xad>
    4e18:	1169           	s32i.n	a6, a1, 4
    4e1a:	4148           	l32i.n	a4, a1, 16
    4e1c:	eca4b1        	l32r	a11, ac (109e8 <specExpMantTableComb>)
    4e1f:	ece6c1        	l32r	a12, 1b8 (109ec <InverseQuantTable_delta>)
    4e22:	080c           	movi.n	a8, 0
    4e24:	090c           	movi.n	a9, 0
    4e26:	0a0c           	movi.n	a10, 0
    4e28:	71a9           	s32i.n	a10, a1, 28
    4e2a:	8199           	s32i.n	a9, a1, 32
    4e2c:	106182        	s32i	a8, a1, 64
    4e2f:	0cc8           	l32i.n	a12, a12, 0
    4e31:	0bb8           	l32i.n	a11, a11, 0
    4e33:	446a           	add.n	a4, a4, a6
    4e35:	0149           	s32i.n	a4, a1, 0
    4e37:	1c61b2        	s32i	a11, a1, 112
    4e3a:	00dd46        	j	51b3 <_Z28CShortBlock_ReadSpectralDataPPtP22CAacDecoderChannelInfo+0x54b>

00004e3d <_Z28CShortBlock_ReadSpectralDataPPtP22CAacDecoderChannelInfo+0x1d5>:
    4e3d:	2a0c16        	beqz	a12, 50e1 <_Z28CShortBlock_ReadSpectralDataPPtP22CAacDecoderChannelInfo+0x479>
    4e40:	112192        	l32i	a9, a1, 68
    4e43:	ec9a81        	l32r	a8, ac (109e8 <specExpMantTableComb>)
    4e46:	ecdc31        	l32r	a3, 1b8 (109ec <InverseQuantTable_delta>)
    4e49:	368c34        	ae_cvtq48a32s	aeq2, a12
    4e4c:	366604        	ae_nsaq56s	a6, aeq2
    4e4f:	0338           	l32i.n	a3, a3, 0
    4e51:	0888           	l32i.n	a8, a8, 0
    4e53:	c05b60        	sub	a5, a11, a6
    4e56:	f8c642        	addi	a4, a6, -8
    4e59:	401400        	ssl	a4
    4e5c:	889a           	add.n	a8, a8, a9
    4e5e:	a19c00        	sll	a9, a12
    4e61:	754690        	extui	a4, a9, 22, 8
    4e64:	359290        	extui	a9, a9, 18, 4
    4e67:	1144d0        	slli	a4, a4, 3
    4e6a:	552344        	ae_lp24x2.x	aep2, a3, a4
    4e6d:	0199d0        	slli	a9, a9, 19
    4e70:	fd4422499f 	{ ae_movpa24x2	aep4, a9, a9; ae_cvtq48p24s.h	aeq1, aep2 }
    4e75:	e28bd56d6f 	{ sub	a6, a13, a6; ae_mulafp24s.ll	aeq1, aep2, aep4 }
    4e7a:	a06680        	addx4	a6, a6, a8
    4e7d:	f8efb1160f 	{ ae_lp24.i	aep1, a6, 0; ae_roundsp24q48sym	aep0, aeq1 }
    4e82:	ea20905e5f 	{ add	a5, a14, a5; ae_mulfp24s.hl	aeq0, aep0, aep1 }
    4e87:	270552        	l8ui	a5, a5, 39
    4e8a:	364604        	ae_nsaq56s	a6, aeq0
    4e8d:	c05560        	sub	a5, a5, a6
    4e90:	08c552        	addi	a5, a5, 8

00004e93 <_Z28CShortBlock_ReadSpectralDataPPtP22CAacDecoderChannelInfo+0x22b>:
    4e93:	4a5a           	add.n	a4, a10, a5
    4e95:	142192        	l32i	a9, a1, 80
    4e98:	2188           	l32i.n	a8, a1, 8
    4e9a:	1a21c2        	l32i	a12, a1, 104
    4e9d:	152162        	l32i	a6, a1, 84
    4ea0:	1188c0        	slli	a8, a8, 4
    4ea3:	cc1b           	addi.n	a12, a12, 1
    4ea5:	668a           	add.n	a6, a6, a8
    4ea7:	162182        	l32i	a8, a1, 88
    4eaa:	1a61c2        	s32i	a12, a1, 104
    4ead:	c099c0        	sub	a9, a9, a12
    4eb0:	906680        	addx2	a6, a6, a8
    4eb3:	664d           	ae_s16i.n	a4, a6, 0
    4eb5:	f09916        	beqz	a9, 4dc2 <_Z28CShortBlock_ReadSpectralDataPPtP22CAacDecoderChannelInfo+0x15a>

00004eb8 <_Z28CShortBlock_ReadSpectralDataPPtP22CAacDecoderChannelInfo+0x250>:
    4eb8:	132192        	l32i	a9, a1, 76
    4ebb:	252162        	l32i	a6, a1, 148
    4ebe:	1a2182        	l32i	a8, a1, 104
    4ec1:	466d           	ae_l16ui.n	a6, a6, 0
    4ec3:	889a           	add.n	a8, a8, a9
    4ec5:	232192        	l32i	a9, a1, 140
    4ec8:	2189           	s32i.n	a8, a1, 8
    4eca:	022697        	blt	a6, a9, 4ed0 <_Z28CShortBlock_ReadSpectralDataPPtP22CAacDecoderChannelInfo+0x268>
    4ecd:	008406        	j	50e1 <_Z28CShortBlock_ReadSpectralDataPPtP22CAacDecoderChannelInfo+0x479>
    4ed0:	2189           	s32i.n	a8, a1, 8
    4ed2:	0c0c           	movi.n	a12, 0
    4ed4:	119890        	slli	a9, a8, 7
    4ed7:	226192        	s32i	a9, a1, 136
    4eda:	001546        	j	4f33 <_Z28CShortBlock_ReadSpectralDataPPtP22CAacDecoderChannelInfo+0x2cb>

00004edd <_Z28CShortBlock_ReadSpectralDataPPtP22CAacDecoderChannelInfo+0x275>:
    4edd:	000742        	l8ui	a4, a7, 0
    4ee0:	f03d           	nop.n
    4ee2:	6c4426        	beqi	a4, 4, 4f52 <_Z28CShortBlock_ReadSpectralDataPPtP22CAacDecoderChannelInfo+0x2ea>
    4ee5:	010782        	l8ui	a8, a7, 1
    4ee8:	238800        	sext	a8, a8, 7
    4eeb:	fbc882        	addi	a8, a8, -5
    4eee:	11b816        	beqz	a8, 500d <_Z28CShortBlock_ReadSpectralDataPPtP22CAacDecoderChannelInfo+0x3a5>
    4ef1:	348450        	extui	a8, a5, 4, 4
    4ef4:	349050        	extui	a9, a5, 0, 4
    4ef7:	c09920        	sub	a9, a9, a2
    4efa:	c08820        	sub	a8, a8, a2

00004efd <_Z28CShortBlock_ReadSpectralDataPPtP22CAacDecoderChannelInfo+0x295>:
    4efd:	0a8216        	beqz	a2, 4fa9 <_Z28CShortBlock_ReadSpectralDataPPtP22CAacDecoderChannelInfo+0x341>

00004f00 <_Z28CShortBlock_ReadSpectralDataPPtP22CAacDecoderChannelInfo+0x298>:
    4f00:	296122        	s32i	a2, a1, 164
    4f03:	222142        	l32i	a4, a1, 136
    4f06:	602190        	abs	a2, a9
    4f09:	53cc20        	max	a12, a12, a2
    4f0c:	262122        	l32i	a2, a1, 152
    4f0f:	446a           	add.n	a4, a4, a6
    4f11:	a04420        	addx4	a4, a4, a2
    4f14:	0499           	s32i.n	a9, a4, 0
    4f16:	016482        	s32i	a8, a4, 4
    4f19:	602180        	abs	a2, a8
    4f1c:	53cc20        	max	a12, a12, a2
    4f1f:	292122        	l32i	a2, a1, 164

00004f22 <_Z28CShortBlock_ReadSpectralDataPPtP22CAacDecoderChannelInfo+0x2ba>:
    4f22:	000752        	l8ui	a5, a7, 0
    4f25:	232142        	l32i	a4, a1, 140
    4f28:	235500        	sext	a5, a5, 7
    4f2b:	665a           	add.n	a6, a6, a5
    4f2d:	022647        	blt	a6, a4, 4f33 <_Z28CShortBlock_ReadSpectralDataPPtP22CAacDecoderChannelInfo+0x2cb>
    4f30:	ffc246        	j	4e3d <_Z28CShortBlock_ReadSpectralDataPPtP22CAacDecoderChannelInfo+0x1d5>

00004f33 <_Z28CShortBlock_ReadSpectralDataPPtP22CAacDecoderChannelInfo+0x2cb>:
    4f33:	202182        	l32i	a8, a1, 128
    4f36:	038684        	ae_vldsht	a8
    4f39:	0f8076        	loop	a0, 4f4c <_Z28CShortBlock_ReadSpectralDataPPtP22CAacDecoderChannelInfo+0x2e4>
    4f3c:	212192        	l32i	a9, a1, 132
    4f3f:	0f38           	l32i.n	a3, a15, 0
    4f41:	130954        	ae_vldl16t	b0, a5, a9
    4f44:	180314        	ae_vldl16c	a3
    4f47:	0f39           	s32i.n	a3, a15, 0
    4f49:	901076        	bt	b0, 4edd <_Z28CShortBlock_ReadSpectralDataPPtP22CAacDecoderChannelInfo+0x275>

00004f4c <_Z28CShortBlock_ReadSpectralDataPPtP22CAacDecoderChannelInfo+0x2e4>:
    4f4c:	fffa46        	j	4f39 <_Z28CShortBlock_ReadSpectralDataPPtP22CAacDecoderChannelInfo+0x2d1>

00004f4f <_Z28CShortBlock_ReadSpectralDataPPtP22CAacDecoderChannelInfo+0x2e7>:
    4f4f:	000000                                        ...

00004f52 <_Z28CShortBlock_ReadSpectralDataPPtP22CAacDecoderChannelInfo+0x2ea>:
    4f52:	144450        	extui	a4, a5, 4, 2
    4f55:	148250        	extui	a8, a5, 2, 2
    4f58:	149050        	extui	a9, a5, 0, 2
    4f5b:	c09920        	sub	a9, a9, a2
    4f5e:	c08820        	sub	a8, a8, a2
    4f61:	c04420        	sub	a4, a4, a2
    4f64:	1e6142        	s32i	a4, a1, 120
    4f67:	145650        	extui	a5, a5, 6, 2
    4f6a:	c05520        	sub	a5, a5, a2
    4f6d:	0ab216        	beqz	a2, 501c <_Z28CShortBlock_ReadSpectralDataPPtP22CAacDecoderChannelInfo+0x3b4>

00004f70 <_Z28CShortBlock_ReadSpectralDataPPtP22CAacDecoderChannelInfo+0x308>:
    4f70:	296122        	s32i	a2, a1, 164
    4f73:	604190        	abs	a4, a9
    4f76:	53cc40        	max	a12, a12, a4
    4f79:	602180        	abs	a2, a8
    4f7c:	222142        	l32i	a4, a1, 136
    4f7f:	53cc20        	max	a12, a12, a2
    4f82:	262122        	l32i	a2, a1, 152
    4f85:	446a           	add.n	a4, a4, a6
    4f87:	a04420        	addx4	a4, a4, a2
    4f8a:	0499           	s32i.n	a9, a4, 0
    4f8c:	1489           	s32i.n	a8, a4, 4
    4f8e:	1e2122        	l32i	a2, a1, 120
    4f91:	2429           	s32i.n	a2, a4, 8
    4f93:	3459           	s32i.n	a5, a4, 12
    4f95:	602120        	abs	a2, a2
    4f98:	53cc20        	max	a12, a12, a2
    4f9b:	602150        	abs	a2, a5
    4f9e:	53cc20        	max	a12, a12, a2
    4fa1:	292122        	l32i	a2, a1, 164
    4fa4:	ffde86        	j	4f22 <_Z28CShortBlock_ReadSpectralDataPPtP22CAacDecoderChannelInfo+0x2ba>

00004fa7 <_Z28CShortBlock_ReadSpectralDataPPtP22CAacDecoderChannelInfo+0x33f>:
	...

00004fa9 <_Z28CShortBlock_ReadSpectralDataPPtP22CAacDecoderChannelInfo+0x341>:
    4fa9:	c98c           	beqz.n	a9, 4fb9 <_Z28CShortBlock_ReadSpectralDataPPtP22CAacDecoderChannelInfo+0x351>
    4fab:	605090        	neg	a5, a9
    4fae:	034f14        	ae_lbi	a4, 1
    4fb1:	0013f4        	ae_dbi	a3, 1
    4fb4:	0f39           	s32i.n	a3, a15, 0
    4fb6:	939540        	movnez	a9, a5, a4

00004fb9 <_Z28CShortBlock_ReadSpectralDataPPtP22CAacDecoderChannelInfo+0x351>:
    4fb9:	c88c           	beqz.n	a8, 4fc9 <_Z28CShortBlock_ReadSpectralDataPPtP22CAacDecoderChannelInfo+0x361>
    4fbb:	605080        	neg	a5, a8
    4fbe:	034f14        	ae_lbi	a4, 1
    4fc1:	0013f4        	ae_dbi	a3, 1
    4fc4:	0f39           	s32i.n	a3, a15, 0
    4fc6:	938540        	movnez	a8, a5, a4

00004fc9 <_Z28CShortBlock_ReadSpectralDataPPtP22CAacDecoderChannelInfo+0x361>:
    4fc9:	1b2142        	l32i	a4, a1, 108
    4fcc:	296122        	s32i	a2, a1, 164
    4fcf:	f5c442        	addi	a4, a4, -11
    4fd2:	f2a456        	bnez	a4, 4f00 <_Z28CShortBlock_ReadSpectralDataPPtP22CAacDecoderChannelInfo+0x298>
    4fd5:	604190        	abs	a4, a9
    4fd8:	02b466        	bnei	a4, 16, 4fde <_Z28CShortBlock_ReadSpectralDataPPtP22CAacDecoderChannelInfo+0x376>
    4fdb:	0029c6        	j	5086 <_Z28CShortBlock_ReadSpectralDataPPtP22CAacDecoderChannelInfo+0x41e>
    4fde:	095d           	mov.n	a5, a9

00004fe0 <_Z28CShortBlock_ReadSpectralDataPPtP22CAacDecoderChannelInfo+0x378>:
    4fe0:	3159           	s32i.n	a5, a1, 12
    4fe2:	059d           	mov.n	a9, a5
    4fe4:	604180        	abs	a4, a8
    4fe7:	02b466        	bnei	a4, 16, 4fed <_Z28CShortBlock_ReadSpectralDataPPtP22CAacDecoderChannelInfo+0x385>
    4fea:	002746        	j	508b <_Z28CShortBlock_ReadSpectralDataPPtP22CAacDecoderChannelInfo+0x423>
    4fed:	196182        	s32i	a8, a1, 100
    4ff0:	3159           	s32i.n	a5, a1, 12

00004ff2 <_Z28CShortBlock_ReadSpectralDataPPtP22CAacDecoderChannelInfo+0x38a>:
    4ff2:	3158           	l32i.n	a5, a1, 12
    4ff4:	ec6f31        	l32r	a3, 1b0 (7fffffff <_end+0x7ffef447>)
    4ff7:	192182        	l32i	a8, a1, 100
    4ffa:	605150        	abs	a5, a5
    4ffd:	081537        	beq	a5, a3, 5009 <_Z28CShortBlock_ReadSpectralDataPPtP22CAacDecoderChannelInfo+0x3a1>
    5000:	604180        	abs	a4, a8
    5003:	c04430        	sub	a4, a4, a3
    5006:	ef6456        	bnez	a4, 4f00 <_Z28CShortBlock_ReadSpectralDataPPtP22CAacDecoderChannelInfo+0x298>

00005009 <_Z28CShortBlock_ReadSpectralDataPPtP22CAacDecoderChannelInfo+0x3a1>:
    5009:	220c           	movi.n	a2, 2
    500b:	f01d           	retw.n

0000500d <_Z28CShortBlock_ReadSpectralDataPPtP22CAacDecoderChannelInfo+0x3a5>:
    500d:	448550        	extui	a8, a5, 5, 5
    5010:	449050        	extui	a9, a5, 0, 5
    5013:	c09920        	sub	a9, a9, a2
    5016:	c08820        	sub	a8, a8, a2
    5019:	ffb806        	j	4efd <_Z28CShortBlock_ReadSpectralDataPPtP22CAacDecoderChannelInfo+0x295>

0000501c <_Z28CShortBlock_ReadSpectralDataPPtP22CAacDecoderChannelInfo+0x3b4>:
    501c:	299c           	beqz.n	a9, 5032 <_Z28CShortBlock_ReadSpectralDataPPtP22CAacDecoderChannelInfo+0x3ca>
    501e:	296122        	s32i	a2, a1, 164
    5021:	034f14        	ae_lbi	a4, 1
    5024:	602090        	neg	a2, a9
    5027:	0013f4        	ae_dbi	a3, 1
    502a:	0f39           	s32i.n	a3, a15, 0
    502c:	939240        	movnez	a9, a2, a4
    502f:	292122        	l32i	a2, a1, 164

00005032 <_Z28CShortBlock_ReadSpectralDataPPtP22CAacDecoderChannelInfo+0x3ca>:
    5032:	289c           	beqz.n	a8, 5048 <_Z28CShortBlock_ReadSpectralDataPPtP22CAacDecoderChannelInfo+0x3e0>
    5034:	296122        	s32i	a2, a1, 164
    5037:	034f14        	ae_lbi	a4, 1
    503a:	602080        	neg	a2, a8
    503d:	0013f4        	ae_dbi	a3, 1
    5040:	0f39           	s32i.n	a3, a15, 0
    5042:	938240        	movnez	a8, a2, a4
    5045:	292122        	l32i	a2, a1, 164

00005048 <_Z28CShortBlock_ReadSpectralDataPPtP22CAacDecoderChannelInfo+0x3e0>:
    5048:	1e2142        	l32i	a4, a1, 120
    504b:	d49c           	beqz.n	a4, 506c <_Z28CShortBlock_ReadSpectralDataPPtP22CAacDecoderChannelInfo+0x404>
    504d:	2a61f2        	s32i	a15, a1, 168
    5050:	2b6132        	s32i	a3, a1, 172
    5053:	03ff14        	ae_lbi	a15, 1
    5056:	043d           	mov.n	a3, a4
    5058:	604040        	neg	a4, a4
    505b:	9334f0        	movnez	a3, a4, a15
    505e:	1e6132        	s32i	a3, a1, 120
    5061:	2b2132        	l32i	a3, a1, 172
    5064:	2a21f2        	l32i	a15, a1, 168
    5067:	0013f4        	ae_dbi	a3, 1
    506a:	0f39           	s32i.n	a3, a15, 0

0000506c <_Z28CShortBlock_ReadSpectralDataPPtP22CAacDecoderChannelInfo+0x404>:
    506c:	f00516        	beqz	a5, 4f70 <_Z28CShortBlock_ReadSpectralDataPPtP22CAacDecoderChannelInfo+0x308>
    506f:	296122        	s32i	a2, a1, 164
    5072:	034f14        	ae_lbi	a4, 1
    5075:	602050        	neg	a2, a5
    5078:	0013f4        	ae_dbi	a3, 1
    507b:	0f39           	s32i.n	a3, a15, 0
    507d:	935240        	movnez	a5, a2, a4
    5080:	292122        	l32i	a2, a1, 164
    5083:	ffba46        	j	4f70 <_Z28CShortBlock_ReadSpectralDataPPtP22CAacDecoderChannelInfo+0x308>

00005086 <_Z28CShortBlock_ReadSpectralDataPPtP22CAacDecoderChannelInfo+0x41e>:
    5086:	450c           	movi.n	a5, 4
    5088:	000186        	j	5092 <_Z28CShortBlock_ReadSpectralDataPPtP22CAacDecoderChannelInfo+0x42a>

0000508b <_Z28CShortBlock_ReadSpectralDataPPtP22CAacDecoderChannelInfo+0x423>:
    508b:	450c           	movi.n	a5, 4
    508d:	000906        	j	50b5 <_Z28CShortBlock_ReadSpectralDataPPtP22CAacDecoderChannelInfo+0x44d>

00005090 <_Z28CShortBlock_ReadSpectralDataPPtP22CAacDecoderChannelInfo+0x428>:
    5090:	551b           	addi.n	a5, a5, 1

00005092 <_Z28CShortBlock_ReadSpectralDataPPtP22CAacDecoderChannelInfo+0x42a>:
    5092:	186152        	s32i	a5, a1, 96
    5095:	034f14        	ae_lbi	a4, 1
    5098:	0013f4        	ae_dbi	a3, 1
    509b:	0f39           	s32i.n	a3, a15, 0
    509d:	ef1426        	beqi	a4, 1, 5090 <_Z28CShortBlock_ReadSpectralDataPPtP22CAacDecoderChannelInfo+0x428>
    50a0:	182142        	l32i	a4, a1, 96
    50a3:	051c           	movi.n	a5, 16
    50a5:	3da547        	bge	a5, a4, 50e6 <_Z28CShortBlock_ReadSpectralDataPPtP22CAacDecoderChannelInfo+0x47e>
    50a8:	053c           	movi.n	a5, 48
    50aa:	4fa547        	bge	a5, a4, 50fd <_Z28CShortBlock_ReadSpectralDataPPtP22CAacDecoderChannelInfo+0x495>
    50ad:	ec4051        	l32r	a5, 1b0 (7fffffff <_end+0x7ffef447>)
    50b0:	ffcb06        	j	4fe0 <_Z28CShortBlock_ReadSpectralDataPPtP22CAacDecoderChannelInfo+0x378>

000050b3 <_Z28CShortBlock_ReadSpectralDataPPtP22CAacDecoderChannelInfo+0x44b>:
    50b3:	551b           	addi.n	a5, a5, 1

000050b5 <_Z28CShortBlock_ReadSpectralDataPPtP22CAacDecoderChannelInfo+0x44d>:
    50b5:	186152        	s32i	a5, a1, 96
    50b8:	034f14        	ae_lbi	a4, 1
    50bb:	0013f4        	ae_dbi	a3, 1
    50be:	0f39           	s32i.n	a3, a15, 0
    50c0:	ef1426        	beqi	a4, 1, 50b3 <_Z28CShortBlock_ReadSpectralDataPPtP22CAacDecoderChannelInfo+0x44b>
    50c3:	182142        	l32i	a4, a1, 96
    50c6:	051c           	movi.n	a5, 16
    50c8:	66a547        	bge	a5, a4, 5132 <_Z28CShortBlock_ReadSpectralDataPPtP22CAacDecoderChannelInfo+0x4ca>
    50cb:	053c           	movi.n	a5, 48
    50cd:	022547        	blt	a5, a4, 50d3 <_Z28CShortBlock_ReadSpectralDataPPtP22CAacDecoderChannelInfo+0x46b>
    50d0:	002106        	j	5158 <_Z28CShortBlock_ReadSpectralDataPPtP22CAacDecoderChannelInfo+0x4f0>
    50d3:	3188           	l32i.n	a8, a1, 12
    50d5:	ec3641        	l32r	a4, 1b0 (7fffffff <_end+0x7ffef447>)
    50d8:	608180        	abs	a8, a8
    50db:	c08840        	sub	a8, a8, a4
    50de:	ffc9c6        	j	5009 <_Z28CShortBlock_ReadSpectralDataPPtP22CAacDecoderChannelInfo+0x3a1>

000050e1 <_Z28CShortBlock_ReadSpectralDataPPtP22CAacDecoderChannelInfo+0x479>:
    50e1:	856c           	movi.n	a5, -24
    50e3:	ff6b06        	j	4e93 <_Z28CShortBlock_ReadSpectralDataPPtP22CAacDecoderChannelInfo+0x22b>

000050e6 <_Z28CShortBlock_ReadSpectralDataPPtP22CAacDecoderChannelInfo+0x47e>:
    50e6:	045d           	mov.n	a5, a4
    50e8:	034744        	ae_lb	a4, a4
    50eb:	126142        	s32i	a4, a1, 72
    50ee:	1c1354        	ae_db	a3, a5
    50f1:	0f39           	s32i.n	a3, a15, 0
    50f3:	c40c           	movi.n	a4, 12
    50f5:	20a457        	bge	a4, a5, 5119 <_Z28CShortBlock_ReadSpectralDataPPtP22CAacDecoderChannelInfo+0x4b1>
    50f8:	050c           	movi.n	a5, 0
    50fa:	ffb886        	j	4fe0 <_Z28CShortBlock_ReadSpectralDataPPtP22CAacDecoderChannelInfo+0x378>

000050fd <_Z28CShortBlock_ReadSpectralDataPPtP22CAacDecoderChannelInfo+0x495>:
    50fd:	296122        	s32i	a2, a1, 164
    5100:	f0c442        	addi	a4, a4, -16
    5103:	032744        	ae_lb	a2, a4
    5106:	1c1344        	ae_db	a3, a4
    5109:	152204        	ae_lbki	a2, a2, 16
    510c:	0f39           	s32i.n	a3, a15, 0
    510e:	126122        	s32i	a2, a1, 72
    5111:	292122        	l32i	a2, a1, 164
    5114:	0003f4        	ae_dbi	a3, 16
    5117:	0f39           	s32i.n	a3, a15, 0

00005119 <_Z28CShortBlock_ReadSpectralDataPPtP22CAacDecoderChannelInfo+0x4b1>:
    5119:	182152        	l32i	a5, a1, 96
    511c:	401500        	ssl	a5
    511f:	122152        	l32i	a5, a1, 72
    5122:	140c           	movi.n	a4, 1
    5124:	a14400        	sll	a4, a4
    5127:	554a           	add.n	a5, a5, a4
    5129:	604050        	neg	a4, a5
    512c:	a35490        	movltz	a5, a4, a9
    512f:	ffab46        	j	4fe0 <_Z28CShortBlock_ReadSpectralDataPPtP22CAacDecoderChannelInfo+0x378>

00005132 <_Z28CShortBlock_ReadSpectralDataPPtP22CAacDecoderChannelInfo+0x4ca>:
    5132:	045d           	mov.n	a5, a4
    5134:	034744        	ae_lb	a4, a4
    5137:	126142        	s32i	a4, a1, 72
    513a:	1c1354        	ae_db	a3, a5
    513d:	0f39           	s32i.n	a3, a15, 0
    513f:	c40c           	movi.n	a4, 12
    5141:	2fa457        	bge	a4, a5, 5174 <_Z28CShortBlock_ReadSpectralDataPPtP22CAacDecoderChannelInfo+0x50c>
    5144:	3188           	l32i.n	a8, a1, 12
    5146:	ec1a41        	l32r	a4, 1b0 (7fffffff <_end+0x7ffef447>)
    5149:	608180        	abs	a8, a8
    514c:	c08840        	sub	a8, a8, a4
    514f:	eb6816        	beqz	a8, 5009 <_Z28CShortBlock_ReadSpectralDataPPtP22CAacDecoderChannelInfo+0x3a1>
    5152:	080c           	movi.n	a8, 0
    5154:	ff6a06        	j	4f00 <_Z28CShortBlock_ReadSpectralDataPPtP22CAacDecoderChannelInfo+0x298>

00005157 <_Z28CShortBlock_ReadSpectralDataPPtP22CAacDecoderChannelInfo+0x4ef>:
	...

00005158 <_Z28CShortBlock_ReadSpectralDataPPtP22CAacDecoderChannelInfo+0x4f0>:
    5158:	296122        	s32i	a2, a1, 164
    515b:	f0c442        	addi	a4, a4, -16
    515e:	032744        	ae_lb	a2, a4
    5161:	1c1344        	ae_db	a3, a4
    5164:	152204        	ae_lbki	a2, a2, 16
    5167:	0f39           	s32i.n	a3, a15, 0
    5169:	126122        	s32i	a2, a1, 72
    516c:	292122        	l32i	a2, a1, 164
    516f:	0003f4        	ae_dbi	a3, 16
    5172:	0f39           	s32i.n	a3, a15, 0

00005174 <_Z28CShortBlock_ReadSpectralDataPPtP22CAacDecoderChannelInfo+0x50c>:
    5174:	296122        	s32i	a2, a1, 164
    5177:	182122        	l32i	a2, a1, 96
    517a:	401200        	ssl	a2
    517d:	122122        	l32i	a2, a1, 72
    5180:	140c           	movi.n	a4, 1
    5182:	a14400        	sll	a4, a4
    5185:	224a           	add.n	a2, a2, a4
    5187:	604020        	neg	a4, a2
    518a:	a32480        	movltz	a2, a4, a8
    518d:	196122        	s32i	a2, a1, 100
    5190:	292122        	l32i	a2, a1, 164
    5193:	ff96c6        	j	4ff2 <_Z28CShortBlock_ReadSpectralDataPPtP22CAacDecoderChannelInfo+0x38a>

00005196 <_Z28CShortBlock_ReadSpectralDataPPtP22CAacDecoderChannelInfo+0x52e>:
    5196:	020c           	movi.n	a2, 0
    5198:	f01d           	retw.n

0000519a <_Z28CShortBlock_ReadSpectralDataPPtP22CAacDecoderChannelInfo+0x532>:
    519a:	0158           	l32i.n	a5, a1, 0
    519c:	1148           	l32i.n	a4, a1, 4
    519e:	8188           	l32i.n	a8, a1, 32
    51a0:	7198           	l32i.n	a9, a1, 28
    51a2:	441b           	addi.n	a4, a4, 1
    51a4:	20c882        	addi	a8, a8, 32
    51a7:	10c992        	addi	a9, a9, 16
    51aa:	7199           	s32i.n	a9, a1, 28
    51ac:	8189           	s32i.n	a8, a1, 32
    51ae:	1149           	s32i.n	a4, a1, 4
    51b0:	e21457        	beq	a4, a5, 5196 <_Z28CShortBlock_ReadSpectralDataPPtP22CAacDecoderChannelInfo+0x52e>

000051b3 <_Z28CShortBlock_ReadSpectralDataPPtP22CAacDecoderChannelInfo+0x54b>:
    51b3:	11a8           	l32i.n	a10, a1, 4
    51b5:	0a0aa2        	l8ui	a10, a10, 10
    51b8:	23aa00        	sext	a10, a10, 7
    51bb:	c1a9           	s32i.n	a10, a1, 48
    51bd:	d91aa6        	blti	a10, 1, 519a <_Z28CShortBlock_ReadSpectralDataPPtP22CAacDecoderChannelInfo+0x532>
    51c0:	6148           	l32i.n	a4, a1, 24
    51c2:	e1a8           	l32i.n	a10, a1, 56
    51c4:	102182        	l32i	a8, a1, 64
    51c7:	7198           	l32i.n	a9, a1, 28
    51c9:	81f8           	l32i.n	a15, a1, 32
    51cb:	11b8c0        	slli	a11, a8, 4
    51ce:	99aa           	add.n	a9, a9, a10
    51d0:	118890        	slli	a8, a8, 7
    51d3:	11bbf0        	slli	a11, a11, 1
    51d6:	ff4a           	add.n	a15, a15, a4
    51d8:	b1f9           	s32i.n	a15, a1, 44
    51da:	1761b2        	s32i	a11, a1, 92
    51dd:	1d6182        	s32i	a8, a1, 116
    51e0:	909940        	addx2	a9, a9, a4
    51e3:	1f6192        	s32i	a9, a1, 124
    51e6:	7fc882        	addi	a8, a8, 127
    51e9:	262192        	l32i	a9, a1, 152
    51ec:	0b0c           	movi.n	a11, 0
    51ee:	1a61b2        	s32i	a11, a1, 104
    51f1:	a08890        	addx4	a8, a8, a9
    51f4:	f8c882        	addi	a8, a8, -8
    51f7:	f189           	s32i.n	a8, a1, 60
    51f9:	004d86        	j	5333 <_Z28CShortBlock_ReadSpectralDataPPtP22CAacDecoderChannelInfo+0x6cb>

000051fc <_Z28CShortBlock_ReadSpectralDataPPtP22CAacDecoderChannelInfo+0x594>:
	...

000051fd <_Z28CShortBlock_ReadSpectralDataPPtP22CAacDecoderChannelInfo+0x595>:
    51fd:	1621a2        	l32i	a10, a1, 88
    5200:	d1b8           	l32i.n	a11, a1, 52
    5202:	b1f8           	l32i.n	a15, a1, 44
    5204:	172192        	l32i	a9, a1, 92
    5207:	2461f2        	s32i	a15, a1, 144
    520a:	2561b2        	s32i	a11, a1, 148
    520d:	8099a0        	add	a9, a9, a10

00005210 <_Z28CShortBlock_ReadSpectralDataPPtP22CAacDecoderChannelInfo+0x5a8>:
    5210:	242182        	l32i	a8, a1, 144
    5213:	252162        	l32i	a6, a1, 148
    5216:	f03d           	nop.n
    5218:	288d           	ae_l16si.n	a8, a8, 0
    521a:	563d           	ae_l16ui.n	a3, a6, 2
    521c:	466d           	ae_l16ui.n	a6, a6, 0
    521e:	21a280        	srai	a10, a8, 2
    5221:	148080        	extui	a8, a8, 0, 2
    5224:	022637        	blt	a6, a3, 522a <_Z28CShortBlock_ReadSpectralDataPPtP22CAacDecoderChannelInfo+0x5c2>
    5227:	002346        	j	52b8 <_Z28CShortBlock_ReadSpectralDataPPtP22CAacDecoderChannelInfo+0x650>
    522a:	286132        	s32i	a3, a1, 160
    522d:	1c2152        	l32i	a5, a1, 112
    5230:	f0f880        	subx8	a15, a8, a8
    5233:	1d2122        	l32i	a2, a1, 116
    5236:	11bff0        	slli	a11, a15, 1
    5239:	b0ff50        	addx8	a15, a15, a5
    523c:	262152        	l32i	a5, a1, 152
    523f:	c04360        	sub	a4, a3, a6
    5242:	226a           	add.n	a2, a2, a6
    5244:	a02250        	addx4	a2, a2, a5
    5247:	fcc252        	addi	a5, a2, -4
    524a:	67a476        	loopgtz	a4, 52b5 <_Z28CShortBlock_ReadSpectralDataPPtP22CAacDecoderChannelInfo+0x64d>
    524d:	0238           	l32i.n	a3, a2, 0
    524f:	093494        	ae_movp48	aep1, aep3
    5252:	05a316        	beqz	a3, 52b0 <_Z28CShortBlock_ReadSpectralDataPPtP22CAacDecoderChannelInfo+0x648>
    5255:	604130        	abs	a4, a3
    5258:	364434        	ae_cvtq48a32s	aeq1, a4
    525b:	365804        	ae_nsaq56s	a8, aeq1
    525e:	c07b80        	sub	a7, a11, a8
    5261:	f8c862        	addi	a6, a8, -8
    5264:	401600        	ssl	a6
    5267:	7e7a           	add.n	a7, a14, a7
    5269:	270772        	l8ui	a7, a7, 39
    526c:	c08d80        	sub	a8, a13, a8
    526f:	a14400        	sll	a4, a4
    5272:	356240        	extui	a6, a4, 18, 4
    5275:	a088f0        	addx4	a8, a8, a15
    5278:	754640        	extui	a4, a4, 22, 8
    527b:	0166d0        	slli	a6, a6, 19
    527e:	39d664        	ae_movpa24x2	aep5, a6, a6
    5281:	1144d0        	slli	a4, a4, 3
    5284:	554c44        	ae_lp24x2.x	aep4, a12, a4
    5287:	fc8420096e 	{ l16si	a6, a9, 0; ae_cvtq48p24s.h	aeq0, aep4 }
    528c:	014534        	ae_mulafp24s.ll	aeq0, aep4, aep5
    528f:	4c2804        	ae_lp24.i	aep2, a8, 0
    5292:	f8e7d566af 	{ sub	a6, a6, a10; ae_roundsp24q48sym	aep1, aeq0 }
    5297:	ea4495667f 	{ sub	a6, a6, a7; ae_mulfp24s.hl	aeq0, aep1, aep2 }
    529c:	3916a6        	blti	a6, 1, 52d9 <_Z28CShortBlock_ReadSpectralDataPPtP22CAacDecoderChannelInfo+0x671>
    529f:	3406b4        	ae_sraaq56	aeq0, aeq0, a6

000052a2 <_Z28CShortBlock_ReadSpectralDataPPtP22CAacDecoderChannelInfo+0x63a>:
    52a2:	fc10bf017f 	{ ae_movq56	aeq1, aeq0; ae_negq56	aeq0, aeq0 }
    52a7:	02f3f7        	bbsi	a3, 31, 52ad <_Z28CShortBlock_ReadSpectralDataPPtP22CAacDecoderChannelInfo+0x645>
    52aa:	061b34        	ae_movq56	aeq0, aeq1

000052ad <_Z28CShortBlock_ReadSpectralDataPPtP22CAacDecoderChannelInfo+0x645>:
    52ad:	1b8c14        	ae_roundsp24q48sym	aep1, aeq0

000052b0 <_Z28CShortBlock_ReadSpectralDataPPtP22CAacDecoderChannelInfo+0x648>:
    52b0:	4e9514        	ae_sp24s.l.iu	aep1, a5, 4
    52b3:	224b           	addi.n	a2, a2, 4

000052b5 <_Z28CShortBlock_ReadSpectralDataPPtP22CAacDecoderChannelInfo+0x64d>:
    52b5:	282162        	l32i	a6, a1, 160

000052b8 <_Z28CShortBlock_ReadSpectralDataPPtP22CAacDecoderChannelInfo+0x650>:
    52b8:	992b           	addi.n	a9, a9, 2
    52ba:	242182        	l32i	a8, a1, 144
    52bd:	2521b2        	l32i	a11, a1, 148
    52c0:	1f21a2        	l32i	a10, a1, 124
    52c3:	882b           	addi.n	a8, a8, 2
    52c5:	bb2b           	addi.n	a11, a11, 2
    52c7:	2561b2        	s32i	a11, a1, 148
    52ca:	246182        	s32i	a8, a1, 144
    52cd:	c088a0        	sub	a8, a8, a10
    52d0:	f3c856        	bnez	a8, 5210 <_Z28CShortBlock_ReadSpectralDataPPtP22CAacDecoderChannelInfo+0x5a8>
    52d3:	0be6a6        	blti	a6, 128, 52e2 <_Z28CShortBlock_ReadSpectralDataPPtP22CAacDecoderChannelInfo+0x67a>
    52d6:	000946        	j	52ff <_Z28CShortBlock_ReadSpectralDataPPtP22CAacDecoderChannelInfo+0x697>

000052d9 <_Z28CShortBlock_ReadSpectralDataPPtP22CAacDecoderChannelInfo+0x671>:
    52d9:	604060        	neg	a4, a6
    52dc:	340434        	ae_sllasq56s	aeq0, aeq0, a4
    52df:	ffefc6        	j	52a2 <_Z28CShortBlock_ReadSpectralDataPPtP22CAacDecoderChannelInfo+0x63a>

000052e2 <_Z28CShortBlock_ReadSpectralDataPPtP22CAacDecoderChannelInfo+0x67a>:
    52e2:	262142        	l32i	a4, a1, 152
    52e5:	1d2122        	l32i	a2, a1, 116
    52e8:	81a032        	movi	a3, 129
    52eb:	c03360        	sub	a3, a3, a6
    52ee:	213130        	srai	a3, a3, 1
    52f1:	226a           	add.n	a2, a2, a6
    52f3:	a02240        	addx4	a2, a2, a4
    52f6:	f8c222        	addi	a2, a2, -8
    52f9:	02a376        	loopgtz	a3, 52ff <_Z28CShortBlock_ReadSpectralDataPPtP22CAacDecoderChannelInfo+0x697>
    52fc:	56b214        	ae_sp24x2s.iu	aep3, a2, 8

000052ff <_Z28CShortBlock_ReadSpectralDataPPtP22CAacDecoderChannelInfo+0x697>:
    52ff:	1721f2        	l32i	a15, a1, 92
    5302:	f198           	l32i.n	a9, a1, 60
    5304:	1d21a2        	l32i	a10, a1, 116
    5307:	102142        	l32i	a4, a1, 64
    530a:	1a2182        	l32i	a8, a1, 104
    530d:	01daa2        	addmi	a10, a10, 0x100
    5310:	441b           	addi.n	a4, a4, 1
    5312:	881b           	addi.n	a8, a8, 1
    5314:	02d992        	addmi	a9, a9, 0x200
    5317:	20cff2        	addi	a15, a15, 32
    531a:	1761f2        	s32i	a15, a1, 92
    531d:	f199           	s32i.n	a9, a1, 60
    531f:	1a6182        	s32i	a8, a1, 104
    5322:	106142        	s32i	a4, a1, 64
    5325:	c148           	l32i.n	a4, a1, 48
    5327:	80caa2        	addi	a10, a10, -128
    532a:	1d61a2        	s32i	a10, a1, 116
    532d:	c04480        	sub	a4, a4, a8
    5330:	e66416        	beqz	a4, 519a <_Z28CShortBlock_ReadSpectralDataPPtP22CAacDecoderChannelInfo+0x532>

00005333 <_Z28CShortBlock_ReadSpectralDataPPtP22CAacDecoderChannelInfo+0x6cb>:
    5333:	e188           	l32i.n	a8, a1, 56
    5335:	0218a6        	blti	a8, 1, 533b <_Z28CShortBlock_ReadSpectralDataPPtP22CAacDecoderChannelInfo+0x6d3>
    5338:	ffb046        	j	51fd <_Z28CShortBlock_ReadSpectralDataPPtP22CAacDecoderChannelInfo+0x595>
    533b:	060c           	movi.n	a6, 0
    533d:	ffe846        	j	52e2 <_Z28CShortBlock_ReadSpectralDataPPtP22CAacDecoderChannelInfo+0x67a>

00005340 <_Z27CShortBlock_ReadSectionDataPPtP22CAacDecoderChannelInfo>:
    5340:	006136        	entry	a1, 48
    5343:	029d           	mov.n	a9, a2
    5345:	0328           	l32i.n	a2, a3, 0
    5347:	03ed           	mov.n	a14, a3
    5349:	b3c8           	l32i.n	a12, a3, 44
    534b:	0402a2        	l8ui	a10, a2, 4
    534e:	0602f2        	l8ui	a15, a2, 6
    5351:	090222        	l8ui	a2, a2, 9
    5354:	23aa00        	sext	a10, a10, 7
    5357:	23ff00        	sext	a15, a15, 7
    535a:	232200        	sext	a2, a2, 7
    535d:	0212e6        	bgei	a2, 1, 5363 <_Z27CShortBlock_ReadSectionDataPPtP22CAacDecoderChannelInfo+0x23>
    5360:	003746        	j	5441 <_Z27CShortBlock_ReadSectionDataPPtP22CAacDecoderChannelInfo+0x101>
    5363:	0d0c           	movi.n	a13, 0
    5365:	030c           	movi.n	a3, 0
    5367:	00a082        	movi	a8, 0
    536a:	80bfc0        	add	a11, a15, a12
    536d:	0061b2        	s32i	a11, a1, 0
    5370:	016182        	s32i	a8, a1, 4

00005373 <_Z27CShortBlock_ReadSectionDataPPtP22CAacDecoderChannelInfo+0x33>:
    5373:	6d1aa6        	blti	a10, 1, 53e4 <_Z27CShortBlock_ReadSectionDataPPtP22CAacDecoderChannelInfo+0xa4>
    5376:	060c           	movi.n	a6, 0
    5378:	0b0c           	movi.n	a11, 0

0000537a <_Z27CShortBlock_ReadSectionDataPPtP22CAacDecoderChannelInfo+0x3a>:
    537a:	0958           	l32i.n	a5, a9, 0
    537c:	032f44        	ae_lbi	a2, 4
    537f:	0045f4        	ae_dbi	a5, 4
    5382:	0959           	s32i.n	a5, a9, 0
    5384:	038f34        	ae_lbi	a8, 3
    5387:	0035f4        	ae_dbi	a5, 3
    538a:	0959           	s32i.n	a5, a9, 0
    538c:	147866        	bnei	a8, 7, 53a4 <_Z27CShortBlock_ReadSectionDataPPtP22CAacDecoderChannelInfo+0x64>
    538f:	070c           	movi.n	a7, 0
    5391:	0c8076        	loop	a0, 53a1 <_Z27CShortBlock_ReadSectionDataPPtP22CAacDecoderChannelInfo+0x61>
    5394:	777b           	addi.n	a7, a7, 7
    5396:	038f34        	ae_lbi	a8, 3
    5399:	0035f4        	ae_dbi	a5, 3
    539c:	0959           	s32i.n	a5, a9, 0
    539e:	047866        	bnei	a8, 7, 53a6 <_Z27CShortBlock_ReadSectionDataPPtP22CAacDecoderChannelInfo+0x66>

000053a1 <_Z27CShortBlock_ReadSectionDataPPtP22CAacDecoderChannelInfo+0x61>:
    53a1:	fffb06        	j	5391 <_Z27CShortBlock_ReadSectionDataPPtP22CAacDecoderChannelInfo+0x51>

000053a4 <_Z27CShortBlock_ReadSectionDataPPtP22CAacDecoderChannelInfo+0x64>:
    53a4:	070c           	movi.n	a7, 0

000053a6 <_Z27CShortBlock_ReadSectionDataPPtP22CAacDecoderChannelInfo+0x66>:
    53a6:	0b4d           	mov.n	a4, a11
    53a8:	778a           	add.n	a7, a7, a8
    53aa:	876a           	add.n	a8, a7, a6
    53ac:	bb1b           	addi.n	a11, a11, 1
    53ae:	0224a7        	blt	a4, a10, 53b4 <_Z27CShortBlock_ReadSectionDataPPtP22CAacDecoderChannelInfo+0x74>
    53b1:	002406        	j	5445 <_Z27CShortBlock_ReadSectionDataPPtP22CAacDecoderChannelInfo+0x105>
    53b4:	02aa87        	bge	a10, a8, 53ba <_Z27CShortBlock_ReadSectionDataPPtP22CAacDecoderChannelInfo+0x7a>
    53b7:	002286        	j	5445 <_Z27CShortBlock_ReadSectionDataPPtP22CAacDecoderChannelInfo+0x105>
    53ba:	18a687        	bge	a6, a8, 53d6 <_Z27CShortBlock_ReadSectionDataPPtP22CAacDecoderChannelInfo+0x96>
    53bd:	180c           	movi.n	a8, 1
    53bf:	745020        	extui	a5, a2, 0, 8
    53c2:	538780        	max	a8, a7, a8
    53c5:	7d6a           	add.n	a7, a13, a6
    53c7:	7c7a           	add.n	a7, a12, a7
    53c9:	09a876        	loopgtz	a8, 53d6 <_Z27CShortBlock_ReadSectionDataPPtP22CAacDecoderChannelInfo+0x96>
    53cc:	004722        	s8i	a2, a7, 0
    53cf:	0da526        	beqi	a5, 12, 53e0 <_Z27CShortBlock_ReadSectionDataPPtP22CAacDecoderChannelInfo+0xa0>
    53d2:	771b           	addi.n	a7, a7, 1
    53d4:	661b           	addi.n	a6, a6, 1

000053d6 <_Z27CShortBlock_ReadSectionDataPPtP22CAacDecoderChannelInfo+0x96>:
    53d6:	a026a7        	blt	a6, a10, 537a <_Z27CShortBlock_ReadSectionDataPPtP22CAacDecoderChannelInfo+0x3a>
    53d9:	0c26f7        	blt	a6, a15, 53e9 <_Z27CShortBlock_ReadSectionDataPPtP22CAacDecoderChannelInfo+0xa9>
    53dc:	000fc6        	j	541f <_Z27CShortBlock_ReadSectionDataPPtP22CAacDecoderChannelInfo+0xdf>

000053df <_Z27CShortBlock_ReadSectionDataPPtP22CAacDecoderChannelInfo+0x9f>:
	...

000053e0 <_Z27CShortBlock_ReadSectionDataPPtP22CAacDecoderChannelInfo+0xa0>:
    53e0:	420c           	movi.n	a2, 4
    53e2:	f01d           	retw.n

000053e4 <_Z27CShortBlock_ReadSectionDataPPtP22CAacDecoderChannelInfo+0xa4>:
    53e4:	431fa6        	blti	a15, 1, 542b <_Z27CShortBlock_ReadSectionDataPPtP22CAacDecoderChannelInfo+0xeb>
    53e7:	060c           	movi.n	a6, 0

000053e9 <_Z27CShortBlock_ReadSectionDataPPtP22CAacDecoderChannelInfo+0xa9>:
    53e9:	c02f60        	sub	a2, a15, a6
    53ec:	807d60        	add	a7, a13, a6
    53ef:	807c70        	add	a7, a12, a7
    53f2:	24b020        	extui	a11, a2, 0, 3
    53f5:	04ab76        	loopgtz	a11, 53fd <_Z27CShortBlock_ReadSectionDataPPtP22CAacDecoderChannelInfo+0xbd>
    53f8:	004732        	s8i	a3, a7, 0
    53fb:	771b           	addi.n	a7, a7, 1

000053fd <_Z27CShortBlock_ReadSectionDataPPtP22CAacDecoderChannelInfo+0xbd>:
    53fd:	214320        	srai	a4, a2, 3
    5400:	f03d           	nop.n
    5402:	19a476        	loopgtz	a4, 541f <_Z27CShortBlock_ReadSectionDataPPtP22CAacDecoderChannelInfo+0xdf>
    5405:	004732        	s8i	a3, a7, 0
    5408:	014732        	s8i	a3, a7, 1
    540b:	024732        	s8i	a3, a7, 2
    540e:	034732        	s8i	a3, a7, 3
    5411:	044732        	s8i	a3, a7, 4
    5414:	054732        	s8i	a3, a7, 5
    5417:	064732        	s8i	a3, a7, 6
    541a:	074732        	s8i	a3, a7, 7
    541d:	778b           	addi.n	a7, a7, 8

0000541f <_Z27CShortBlock_ReadSectionDataPPtP22CAacDecoderChannelInfo+0xdf>:
    541f:	0e28           	l32i.n	a2, a14, 0
    5421:	f03d           	nop.n
    5423:	f03d           	nop.n
    5425:	090222        	l8ui	a2, a2, 9
    5428:	232200        	sext	a2, a2, 7

0000542b <_Z27CShortBlock_ReadSectionDataPPtP22CAacDecoderChannelInfo+0xeb>:
    542b:	1148           	l32i.n	a4, a1, 4
    542d:	0158           	l32i.n	a5, a1, 0
    542f:	10cdd2        	addi	a13, a13, 16
    5432:	441b           	addi.n	a4, a4, 1
    5434:	10c552        	addi	a5, a5, 16
    5437:	0159           	s32i.n	a5, a1, 0
    5439:	1149           	s32i.n	a4, a1, 4
    543b:	02a427        	bge	a4, a2, 5441 <_Z27CShortBlock_ReadSectionDataPPtP22CAacDecoderChannelInfo+0x101>
    543e:	ffcc46        	j	5373 <_Z27CShortBlock_ReadSectionDataPPtP22CAacDecoderChannelInfo+0x33>

00005441 <_Z27CShortBlock_ReadSectionDataPPtP22CAacDecoderChannelInfo+0x101>:
    5441:	020c           	movi.n	a2, 0
    5443:	f01d           	retw.n

00005445 <_Z27CShortBlock_ReadSectionDataPPtP22CAacDecoderChannelInfo+0x105>:
    5445:	220c           	movi.n	a2, 2
    5447:	f01d           	retw.n

00005449 <_Z27CShortBlock_ReadSectionDataPPtP22CAacDecoderChannelInfo+0x109>:
    5449:	000000                                        ...

0000544c <_Z31CShortBlock_ReadScaleFactorDataPPtP22CAacDecoderChannelInfoh>:
    544c:	00a136        	entry	a1, 80
    544f:	a3c8           	l32i.n	a12, a3, 40
    5451:	eb56b1        	l32r	a11, 1ac (10b30 <hcb_list>)
    5454:	049d           	mov.n	a9, a4
    5456:	9149           	s32i.n	a4, a1, 36
    5458:	b3d8           	l32i.n	a13, a3, 44
    545a:	31d9           	s32i.n	a13, a1, 12
    545c:	0348           	l32i.n	a4, a3, 0
    545e:	cbb8           	l32i.n	a11, a11, 48
    5460:	41c9           	s32i.n	a12, a1, 16
    5462:	090482        	l8ui	a8, a4, 9
    5465:	5b2b           	addi.n	a5, a11, 2
    5467:	040442        	l8ui	a4, a4, 4
    546a:	4bbd           	ae_l16ui.n	a11, a11, 0
    546c:	a1b9           	s32i.n	a11, a1, 40
    546e:	0356b4        	wur.ae_first_ts	a11
    5471:	238800        	sext	a8, a8, 7
    5474:	234400        	sext	a4, a4, 7
    5477:	5189           	s32i.n	a8, a1, 20
    5479:	0218e6        	bgei	a8, 1, 547f <_Z31CShortBlock_ReadScaleFactorDataPPtP22CAacDecoderChannelInfoh+0x33>
    547c:	0036c6        	j	555b <_Z31CShortBlock_ReadScaleFactorDataPPtP22CAacDecoderChannelInfoh+0x10f>
    547f:	1139           	s32i.n	a3, a1, 4
    5481:	0199           	s32i.n	a9, a1, 0
    5483:	0d0c           	movi.n	a13, 0
    5485:	0e0c           	movi.n	a14, 0
    5487:	0f0c           	movi.n	a15, 0
    5489:	eb4d81        	l32r	a8, 1c0 (ec20 <HuffmanCodeBooks+0x60>)
    548c:	0b0c           	movi.n	a11, 0
    548e:	71b9           	s32i.n	a11, a1, 28
    5490:	2189           	s32i.n	a8, a1, 8
    5492:	81f9           	s32i.n	a15, a1, 32
    5494:	61e9           	s32i.n	a14, a1, 24
    5496:	b1d9           	s32i.n	a13, a1, 44
    5498:	000706        	j	54b8 <_Z31CShortBlock_ReadScaleFactorDataPPtP22CAacDecoderChannelInfoh+0x6c>

0000549b <_Z31CShortBlock_ReadScaleFactorDataPPtP22CAacDecoderChannelInfoh+0x4f>:
	...

0000549c <_Z31CShortBlock_ReadScaleFactorDataPPtP22CAacDecoderChannelInfoh+0x50>:
    549c:	51c8           	l32i.n	a12, a1, 20
    549e:	61d8           	l32i.n	a13, a1, 24
    54a0:	81e8           	l32i.n	a14, a1, 32
    54a2:	71f8           	l32i.n	a15, a1, 28
    54a4:	dd1b           	addi.n	a13, a13, 1
    54a6:	20cee2        	addi	a14, a14, 32
    54a9:	10cff2        	addi	a15, a15, 16
    54ac:	71f9           	s32i.n	a15, a1, 28
    54ae:	81e9           	s32i.n	a14, a1, 32
    54b0:	61d9           	s32i.n	a13, a1, 24
    54b2:	c0ccd0        	sub	a12, a12, a13
    54b5:	0a2c16        	beqz	a12, 555b <_Z31CShortBlock_ReadScaleFactorDataPPtP22CAacDecoderChannelInfoh+0x10f>

000054b8 <_Z31CShortBlock_ReadScaleFactorDataPPtP22CAacDecoderChannelInfoh+0x6c>:
    54b8:	e014a6        	blti	a4, 1, 549c <_Z31CShortBlock_ReadScaleFactorDataPPtP22CAacDecoderChannelInfoh+0x50>
    54bb:	3178           	l32i.n	a7, a1, 12
    54bd:	7168           	l32i.n	a6, a1, 28
    54bf:	4188           	l32i.n	a8, a1, 16
    54c1:	667a           	add.n	a6, a6, a7
    54c3:	8178           	l32i.n	a7, a1, 32
    54c5:	030c           	movi.n	a3, 0
    54c7:	778a           	add.n	a7, a7, a8
    54c9:	0005c6        	j	54e4 <_Z31CShortBlock_ReadScaleFactorDataPPtP22CAacDecoderChannelInfoh+0x98>

000054cc <_Z31CShortBlock_ReadScaleFactorDataPPtP22CAacDecoderChannelInfoh+0x80>:
	...

000054cd <_Z31CShortBlock_ReadScaleFactorDataPPtP22CAacDecoderChannelInfoh+0x81>:
    54cd:	b188           	l32i.n	a8, a1, 44
    54cf:	c4c9a2        	addi	a10, a9, -60
    54d2:	88aa           	add.n	a8, a8, a10
    54d4:	b189           	s32i.n	a8, a1, 44
    54d6:	9cc882        	addi	a8, a8, -100
    54d9:	678d           	ae_s16i.n	a8, a7, 0

000054db <_Z31CShortBlock_ReadScaleFactorDataPPtP22CAacDecoderChannelInfoh+0x8f>:
    54db:	772b           	addi.n	a7, a7, 2
    54dd:	661b           	addi.n	a6, a6, 1
    54df:	331b           	addi.n	a3, a3, 1
    54e1:	b71437        	beq	a4, a3, 549c <_Z31CShortBlock_ReadScaleFactorDataPPtP22CAacDecoderChannelInfoh+0x50>

000054e4 <_Z31CShortBlock_ReadScaleFactorDataPPtP22CAacDecoderChannelInfoh+0x98>:
    54e4:	0006b2        	l8ui	a11, a6, 0
    54e7:	23eb00        	sext	a14, a11, 7
    54ea:	04fb16        	beqz	a11, 553d <_Z31CShortBlock_ReadScaleFactorDataPPtP22CAacDecoderChannelInfoh+0xf1>
    54ed:	fb0c           	movi.n	a11, 15
    54ef:	211eb7        	beq	a14, a11, 5514 <_Z31CShortBlock_ReadScaleFactorDataPPtP22CAacDecoderChannelInfoh+0xc8>
    54f2:	ec0c           	movi.n	a12, 14
    54f4:	1c1ec7        	beq	a14, a12, 5514 <_Z31CShortBlock_ReadScaleFactorDataPPtP22CAacDecoderChannelInfoh+0xc8>
    54f7:	dd0c           	movi.n	a13, 13
    54f9:	491ed7        	beq	a14, a13, 5546 <_Z31CShortBlock_ReadScaleFactorDataPPtP22CAacDecoderChannelInfoh+0xfa>
    54fc:	a1e8           	l32i.n	a14, a1, 40
    54fe:	0386e4        	ae_vldsht	a14
    5501:	0c8076        	loop	a0, 5511 <_Z31CShortBlock_ReadScaleFactorDataPPtP22CAacDecoderChannelInfoh+0xc5>
    5504:	02f8           	l32i.n	a15, a2, 0
    5506:	130594        	ae_vldl16t	b0, a9, a5
    5509:	180f14        	ae_vldl16c	a15
    550c:	02f9           	s32i.n	a15, a2, 0
    550e:	1a1076        	bt	b0, 552c <_Z31CShortBlock_ReadScaleFactorDataPPtP22CAacDecoderChannelInfoh+0xe0>

00005511 <_Z31CShortBlock_ReadScaleFactorDataPPtP22CAacDecoderChannelInfoh+0xc5>:
    5511:	fffb06        	j	5501 <_Z31CShortBlock_ReadScaleFactorDataPPtP22CAacDecoderChannelInfoh+0xb5>

00005514 <_Z31CShortBlock_ReadScaleFactorDataPPtP22CAacDecoderChannelInfoh+0xc8>:
    5514:	a188           	l32i.n	a8, a1, 40
    5516:	038684        	ae_vldsht	a8
    5519:	0c8076        	loop	a0, 5529 <_Z31CShortBlock_ReadScaleFactorDataPPtP22CAacDecoderChannelInfoh+0xdd>
    551c:	02a8           	l32i.n	a10, a2, 0
    551e:	131594        	ae_vldl16t	b1, a9, a5
    5521:	180a14        	ae_vldl16c	a10
    5524:	02a9           	s32i.n	a10, a2, 0
    5526:	a31176        	bt	b1, 54cd <_Z31CShortBlock_ReadScaleFactorDataPPtP22CAacDecoderChannelInfoh+0x81>

00005529 <_Z31CShortBlock_ReadScaleFactorDataPPtP22CAacDecoderChannelInfoh+0xdd>:
    5529:	fffb06        	j	5519 <_Z31CShortBlock_ReadScaleFactorDataPPtP22CAacDecoderChannelInfoh+0xcd>

0000552c <_Z31CShortBlock_ReadScaleFactorDataPPtP22CAacDecoderChannelInfoh+0xe0>:
    552c:	91b8           	l32i.n	a11, a1, 36
    552e:	c4c9c2        	addi	a12, a9, -60
    5531:	bbca           	add.n	a11, a11, a12
    5533:	91b9           	s32i.n	a11, a1, 36
    5535:	9ccbb2        	addi	a11, a11, -100
    5538:	67bd           	ae_s16i.n	a11, a7, 0
    553a:	ffe746        	j	54db <_Z31CShortBlock_ReadScaleFactorDataPPtP22CAacDecoderChannelInfoh+0x8f>

0000553d <_Z31CShortBlock_ReadScaleFactorDataPPtP22CAacDecoderChannelInfoh+0xf1>:
    553d:	0d0c           	movi.n	a13, 0
    553f:	67dd           	ae_s16i.n	a13, a7, 0
    5541:	ffe586        	j	54db <_Z31CShortBlock_ReadScaleFactorDataPPtP22CAacDecoderChannelInfoh+0x8f>

00005544 <_Z31CShortBlock_ReadScaleFactorDataPPtP22CAacDecoderChannelInfoh+0xf8>:
	...

00005546 <_Z31CShortBlock_ReadScaleFactorDataPPtP22CAacDecoderChannelInfoh+0xfa>:
    5546:	11a8           	l32i.n	a10, a1, 4
    5548:	02bd           	mov.n	a11, a2
    554a:	21c8           	l32i.n	a12, a1, 8
    554c:	01d8           	l32i.n	a13, a1, 0
    554e:	eb1d81        	l32r	a8, 1c4 (5560 <_Z9CPns_ReadP22CAacDecoderChannelInfoPPtPK22tagCodeBookDescriptionhii>)
    5551:	03ed           	mov.n	a14, a3
    5553:	61f8           	l32i.n	a15, a1, 24
    5555:	0008e0        	callx8	a8
    5558:	ffdfc6        	j	54db <_Z31CShortBlock_ReadScaleFactorDataPPtP22CAacDecoderChannelInfoh+0x8f>

0000555b <_Z31CShortBlock_ReadScaleFactorDataPPtP22CAacDecoderChannelInfoh+0x10f>:
    555b:	f01d           	retw.n

0000555d <_Z31CShortBlock_ReadScaleFactorDataPPtP22CAacDecoderChannelInfoh+0x111>:
    555d:	000000                                        ...

00005560 <_Z9CPns_ReadP22CAacDecoderChannelInfoPPtPK22tagCodeBookDescriptionhii>:
    5560:	004136        	entry	a1, 32
    5563:	eb12a1        	l32r	a10, 1ac (10b30 <hcb_list>)
    5566:	5288           	l32i.n	a8, a2, 20
    5568:	caa8           	l32i.n	a10, a10, 48
    556a:	1b0c           	movi.n	a11, 1
    556c:	140842        	l8ui	a4, a8, 20
    556f:	9a2b           	addi.n	a9, a10, 2
    5571:	4aad           	ae_l16ui.n	a10, a10, 0
    5573:	0356a4        	wur.ae_first_ts	a10
    5576:	e4bc           	beqz.n	a4, 55b8 <_Z9CPns_ReadP22CAacDecoderChannelInfoPPtPK22tagCodeBookDescriptionhii+0x58>
    5578:	0386a4        	ae_vldsht	a10
    557b:	48f8           	l32i.n	a15, a8, 16
    557d:	0a2242        	l32i	a4, a2, 40

00005580 <_Z9CPns_ReadP22CAacDecoderChannelInfoPPtPK22tagCodeBookDescriptionhii+0x20>:
    5580:	03c8           	l32i.n	a12, a3, 0
    5582:	130954        	ae_vldl16t	b0, a5, a9
    5585:	180c14        	ae_vldl16c	a12
    5588:	03c9           	s32i.n	a12, a3, 0
    558a:	f20076        	bf	b0, 5580 <_Z9CPns_ReadP22CAacDecoderChannelInfoPPtPK22tagCodeBookDescriptionhii+0x20>
    558d:	c4c592        	addi	a9, a5, -60
    5590:	1137c0        	slli	a3, a7, 4
    5593:	363a           	add.n	a3, a6, a3
    5595:	ff9a           	add.n	a15, a15, a9
    5597:	48f9           	s32i.n	a15, a8, 16
    5599:	904340        	addx2	a4, a3, a4
    559c:	41e330        	srli	a14, a3, 3
    559f:	e8ea           	add.n	a14, a8, a14
    55a1:	243030        	extui	a3, a3, 0, 3
    55a4:	64fd           	ae_s16i.n	a15, a4, 0
    55a6:	000ed2        	l8ui	a13, a14, 0
    55a9:	401300        	ssl	a3
    55ac:	a1fb00        	sll	a15, a11
    55af:	20ddf0        	or	a13, a13, a15
    55b2:	004ed2        	s8i	a13, a14, 0
    55b5:	f01d           	retw.n

000055b7 <_Z9CPns_ReadP22CAacDecoderChannelInfoPPtPK22tagCodeBookDescriptionhii+0x57>:
	...

000055b8 <_Z9CPns_ReadP22CAacDecoderChannelInfoPPtPK22tagCodeBookDescriptionhii+0x58>:
    55b8:	a6c5a2        	addi	a10, a5, -90
    55bb:	a2d8           	l32i.n	a13, a2, 40
    55bd:	03ef94        	ae_lbi	a14, 9
    55c0:	03f8           	l32i.n	a15, a3, 0
    55c2:	11c7c0        	slli	a12, a7, 4
    55c5:	c6ca           	add.n	a12, a6, a12
    55c7:	4193c0        	srli	a9, a12, 3
    55ca:	989a           	add.n	a9, a8, a9
    55cc:	009ff4        	ae_dbi	a15, 9
    55cf:	90dcd0        	addx2	a13, a12, a13
    55d2:	ffdee2        	addmi	a14, a14, 0xffffff00
    55d5:	24c0c0        	extui	a12, a12, 0, 3
    55d8:	aaea           	add.n	a10, a10, a14
    55da:	03f9           	s32i.n	a15, a3, 0
    55dc:	1448b2        	s8i	a11, a8, 20
    55df:	48a9           	s32i.n	a10, a8, 16
    55e1:	6dad           	ae_s16i.n	a10, a13, 0
    55e3:	000942        	l8ui	a4, a9, 0
    55e6:	401c00        	ssl	a12
    55e9:	a1ab00        	sll	a10, a11
    55ec:	2044a0        	or	a4, a4, a10
    55ef:	004942        	s8i	a4, a9, 0
    55f2:	f01d           	retw.n

000055f4 <_Z9CPns_ReadP22CAacDecoderChannelInfoPPtPK22tagCodeBookDescriptionhii+0x94>:
    55f4:	00000000                                ....

000055f8 <_Z17CJointStereo_ReadPPtP16CJointStereoDataii>:
    55f8:	004136        	entry	a1, 32
    55fb:	04bd           	mov.n	a11, a4
    55fd:	03ad           	mov.n	a10, a3
    55ff:	02cd           	mov.n	a12, a2
    5601:	0268           	l32i.n	a6, a2, 0
    5603:	059d           	mov.n	a9, a5
    5605:	032f24        	ae_lbi	a2, 2
    5608:	0026f4        	ae_dbi	a6, 2
    560b:	0c69           	s32i.n	a6, a12, 0
    560d:	004322        	s8i	a2, a3, 0
    5610:	232200        	sext	a2, a2, 7
    5613:	3615a6        	blti	a5, 1, 564d <_Z17CJointStereo_ReadPPtP16CJointStereoDataii+0x55>
    5616:	032d           	mov.n	a2, a3
    5618:	248050        	extui	a8, a5, 0, 3
    561b:	030c           	movi.n	a3, 0
    561d:	04a876        	loopgtz	a8, 5625 <_Z17CJointStereo_ReadPPtP16CJointStereoDataii+0x2d>
    5620:	014232        	s8i	a3, a2, 1
    5623:	221b           	addi.n	a2, a2, 1

00005625 <_Z17CJointStereo_ReadPPtP16CJointStereoDataii+0x2d>:
    5625:	214390        	srai	a4, a9, 3
    5628:	f03d           	nop.n
    562a:	19a476        	loopgtz	a4, 5647 <_Z17CJointStereo_ReadPPtP16CJointStereoDataii+0x4f>
    562d:	014232        	s8i	a3, a2, 1
    5630:	024232        	s8i	a3, a2, 2
    5633:	034232        	s8i	a3, a2, 3
    5636:	044232        	s8i	a3, a2, 4
    5639:	054232        	s8i	a3, a2, 5
    563c:	064232        	s8i	a3, a2, 6
    563f:	074232        	s8i	a3, a2, 7
    5642:	084232        	s8i	a3, a2, 8
    5645:	228b           	addi.n	a2, a2, 8
    5647:	000a22        	l8ui	a2, a10, 0
    564a:	232200        	sext	a2, a2, 7

0000564d <_Z17CJointStereo_ReadPPtP16CJointStereoDataii+0x55>:
    564d:	064216        	beqz	a2, 56b5 <_Z17CJointStereo_ReadPPtP16CJointStereoDataii+0xbd>
    5650:	341226        	beqi	a2, 1, 5688 <_Z17CJointStereo_ReadPPtP16CJointStereoDataii+0x90>
    5653:	5e2266        	bnei	a2, 2, 56b5 <_Z17CJointStereo_ReadPPtP16CJointStereoDataii+0xbd>
    5656:	5b19a6        	blti	a9, 1, 56b5 <_Z17CJointStereo_ReadPPtP16CJointStereoDataii+0xbd>
    5659:	f37c           	movi.n	a3, -1
    565b:	246090        	extui	a6, a9, 0, 3
    565e:	04a676        	loopgtz	a6, 5666 <_Z17CJointStereo_ReadPPtP16CJointStereoDataii+0x6e>
    5661:	014a32        	s8i	a3, a10, 1
    5664:	aa1b           	addi.n	a10, a10, 1

00005666 <_Z17CJointStereo_ReadPPtP16CJointStereoDataii+0x6e>:
    5666:	214390        	srai	a4, a9, 3
    5669:	19a476        	loopgtz	a4, 5686 <_Z17CJointStereo_ReadPPtP16CJointStereoDataii+0x8e>
    566c:	014a32        	s8i	a3, a10, 1
    566f:	024a32        	s8i	a3, a10, 2
    5672:	034a32        	s8i	a3, a10, 3
    5675:	044a32        	s8i	a3, a10, 4
    5678:	054a32        	s8i	a3, a10, 5
    567b:	064a32        	s8i	a3, a10, 6
    567e:	074a32        	s8i	a3, a10, 7
    5681:	084a32        	s8i	a3, a10, 8
    5684:	aa8b           	addi.n	a10, a10, 8
    5686:	f01d           	retw.n

00005688 <_Z17CJointStereo_ReadPPtP16CJointStereoDataii+0x90>:
    5688:	291ba6        	blti	a11, 1, 56b5 <_Z17CJointStereo_ReadPPtP16CJointStereoDataii+0xbd>
    568b:	080c           	movi.n	a8, 0

0000568d <_Z17CJointStereo_ReadPPtP16CJointStereoDataii+0x95>:
    568d:	1f19a6        	blti	a9, 1, 56b0 <_Z17CJointStereo_ReadPPtP16CJointStereoDataii+0xb8>
    5690:	401800        	ssl	a8
    5693:	0a4d           	mov.n	a4, a10
    5695:	17a976        	loopgtz	a9, 56b0 <_Z17CJointStereo_ReadPPtP16CJointStereoDataii+0xb8>
    5698:	0c28           	l32i.n	a2, a12, 0
    569a:	033f14        	ae_lbi	a3, 1
    569d:	441b           	addi.n	a4, a4, 1
    569f:	0012f4        	ae_dbi	a2, 1
    56a2:	0c29           	s32i.n	a2, a12, 0
    56a4:	000422        	l8ui	a2, a4, 0
    56a7:	a13300        	sll	a3, a3
    56aa:	202230        	or	a2, a2, a3
    56ad:	004422        	s8i	a2, a4, 0

000056b0 <_Z17CJointStereo_ReadPPtP16CJointStereoDataii+0xb8>:
    56b0:	881b           	addi.n	a8, a8, 1
    56b2:	d79b87        	bne	a11, a8, 568d <_Z17CJointStereo_ReadPPtP16CJointStereoDataii+0x95>
    56b5:	f01d           	retw.n

000056b7 <_Z17CJointStereo_ReadPPtP16CJointStereoDataii+0xbf>:
	...

000056b8 <_Z14AdtsCrcSlowCrcPthh>:
    56b8:	004136        	entry	a1, 32
    56bb:	04bc           	beqz.n	a4, 56ef <_Z14AdtsCrcSlowCrcPthh+0x37>
    56bd:	01a082        	movi	a8, 1
    56c0:	07a072        	movi	a7, 7
    56c3:	426d           	ae_l16ui.n	a6, a2, 0
    56c5:	269476        	loopnez	a4, 56ef <_Z14AdtsCrcSlowCrcPthh+0x37>
    56c8:	401700        	ssl	a7
    56cb:	049f60        	extui	a9, a6, 15, 1
    56ce:	a15800        	sll	a5, a8
    56d1:	1166f0        	slli	a6, a6, 1
    56d4:	400700        	ssr	a7
    56d7:	105350        	and	a5, a3, a5
    56da:	770b           	addi.n	a7, a7, -1
    56dc:	b15050        	sra	a5, a5
    56df:	305590        	xor	a5, a5, a9
    56e2:	114530        	slli	a4, a5, 13
    56e5:	454a           	add.n	a4, a5, a4
    56e7:	a04450        	addx4	a4, a4, a5
    56ea:	306460        	xor	a6, a4, a6
    56ed:	626d           	ae_s16i.n	a6, a2, 0

000056ef <_Z14AdtsCrcSlowCrcPthh+0x37>:
    56ef:	f01d           	retw.n

000056f1 <_Z14AdtsCrcSlowCrcPthh+0x39>:
    56f1:	000000                                        ...

000056f4 <_Z14AdtsCrcFastCrcP12CAdtsCrcInfoPth>:
    56f4:	004136        	entry	a1, 32
    56f7:	436d           	ae_l16ui.n	a6, a3, 0
    56f9:	2278           	l32i.n	a7, a2, 8
    56fb:	415860        	srli	a5, a6, 8
    56fe:	305450        	xor	a5, a4, a5
    5701:	905570        	addx2	a5, a5, a7
    5704:	455d           	ae_l16ui.n	a5, a5, 0
    5706:	116680        	slli	a6, a6, 8
    5709:	305560        	xor	a5, a5, a6
    570c:	635d           	ae_s16i.n	a5, a3, 0
    570e:	f01d           	retw.n

00005710 <_Z15AdtsCrcCheckCrcP12CAdtsCrcInfot>:
    5710:	006136        	entry	a1, 48
    5713:	613d           	ae_s16i.n	a3, a1, 0
    5715:	021282        	l16ui	a8, a2, 4
    5718:	0218e6        	bgei	a8, 1, 571e <_Z15AdtsCrcCheckCrcP12CAdtsCrcInfot+0xe>
    571b:	0031c6        	j	57e6 <_Z15AdtsCrcCheckCrcP12CAdtsCrcInfot+0xd6>
    571e:	025d           	mov.n	a5, a2
    5720:	070c           	movi.n	a7, 0

00005722 <_Z15AdtsCrcCheckCrcP12CAdtsCrcInfot+0x12>:
    5722:	3568           	l32i.n	a6, a5, 12
    5724:	26b8           	l32i.n	a11, a6, 8
    5726:	46a8           	l32i.n	a10, a6, 16
    5728:	0a1ba6        	blti	a11, 1, 5736 <_Z15AdtsCrcCheckCrcP12CAdtsCrcInfot+0x26>
    572b:	022ba7        	blt	a11, a10, 5731 <_Z15AdtsCrcCheckCrcP12CAdtsCrcInfot+0x21>
    572e:	002f46        	j	57ef <_Z15AdtsCrcCheckCrcP12CAdtsCrcInfot+0xdf>
    5731:	0b3d           	mov.n	a3, a11
    5733:	000046        	j	5738 <_Z15AdtsCrcCheckCrcP12CAdtsCrcInfot+0x28>

00005736 <_Z15AdtsCrcCheckCrcP12CAdtsCrcInfot+0x26>:
    5736:	0a3d           	mov.n	a3, a10

00005738 <_Z15AdtsCrcCheckCrcP12CAdtsCrcInfot+0x28>:
    5738:	ea6981        	l32r	a8, dc (6f60 <initBitParser>)
    573b:	14c6a2        	addi	a10, a6, 20
    573e:	0008e0        	callx8	a8
    5741:	0a4d           	mov.n	a4, a10
    5743:	2983b6        	bltui	a3, 8, 5770 <_Z15AdtsCrcCheckCrcP12CAdtsCrcInfot+0x60>
    5746:	1139           	s32i.n	a3, a1, 4
    5748:	41a330        	srli	a10, a3, 3
    574b:	21a9           	s32i.n	a10, a1, 8

0000574d <_Z15AdtsCrcCheckCrcP12CAdtsCrcInfot+0x3d>:
    574d:	02ad           	mov.n	a10, a2
    574f:	01bd           	mov.n	a11, a1
    5751:	03cf84        	ae_lbi	a12, 8
    5754:	ea9d81        	l32r	a8, 1c8 (56f4 <_Z14AdtsCrcFastCrcP12CAdtsCrcInfoPth>)
    5757:	0084f4        	ae_dbi	a4, 8
    575a:	74c0c0        	extui	a12, a12, 0, 8
    575d:	0008e0        	callx8	a8
    5760:	f8c332        	addi	a3, a3, -8
    5763:	e683f6        	bgeui	a3, 8, 574d <_Z15AdtsCrcCheckCrcP12CAdtsCrcInfot+0x3d>
    5766:	2188           	l32i.n	a8, a1, 8
    5768:	1138           	l32i.n	a3, a1, 4
    576a:	1188d0        	slli	a8, a8, 3
    576d:	c03380        	sub	a3, a3, a8

00005770 <_Z15AdtsCrcCheckCrcP12CAdtsCrcInfot+0x60>:
    5770:	ea5c81        	l32r	a8, e0 (6f38 <TerminateBitParser_new>)
    5773:	03b734        	ae_lb	a11, a3
    5776:	35a8           	l32i.n	a10, a5, 12
    5778:	1c1434        	ae_db	a4, a3
    577b:	31b9           	s32i.n	a11, a1, 12
    577d:	14caa2        	addi	a10, a10, 20
    5780:	04bd           	mov.n	a11, a4
    5782:	0008e0        	callx8	a8
    5785:	01ad           	mov.n	a10, a1
    5787:	ea9181        	l32r	a8, 1cc (56b8 <_Z14AdtsCrcSlowCrcPthh>)
    578a:	840c           	movi.n	a4, 8
    578c:	31b8           	l32i.n	a11, a1, 12
    578e:	c0c430        	sub	a12, a4, a3
    5791:	401c00        	ssl	a12
    5794:	74c030        	extui	a12, a3, 0, 8
    5797:	a1bb00        	sll	a11, a11
    579a:	74b0b0        	extui	a11, a11, 0, 8
    579d:	0008e0        	callx8	a8
    57a0:	35a8           	l32i.n	a10, a5, 12
    57a2:	26b8           	l32i.n	a11, a6, 8
    57a4:	4aa8           	l32i.n	a10, a10, 16
    57a6:	2faab7        	bge	a10, a11, 57d9 <_Z15AdtsCrcCheckCrcP12CAdtsCrcInfot+0xc9>
    57a9:	c04ba0        	sub	a4, a11, a10
    57ac:	043d           	mov.n	a3, a4
    57ae:	1a84b6        	bltui	a4, 8, 57cc <_Z15AdtsCrcCheckCrcP12CAdtsCrcInfot+0xbc>
    57b1:	416340        	srli	a6, a4, 3

000057b4 <_Z15AdtsCrcCheckCrcP12CAdtsCrcInfot+0xa4>:
    57b4:	02ad           	mov.n	a10, a2
    57b6:	ea8481        	l32r	a8, 1c8 (56f4 <_Z14AdtsCrcFastCrcP12CAdtsCrcInfoPth>)
    57b9:	01bd           	mov.n	a11, a1
    57bb:	0c0c           	movi.n	a12, 0
    57bd:	0008e0        	callx8	a8
    57c0:	f8c332        	addi	a3, a3, -8
    57c3:	ed83f6        	bgeui	a3, 8, 57b4 <_Z15AdtsCrcCheckCrcP12CAdtsCrcInfot+0xa4>
    57c6:	1136d0        	slli	a3, a6, 3
    57c9:	c03430        	sub	a3, a4, a3

000057cc <_Z15AdtsCrcCheckCrcP12CAdtsCrcInfot+0xbc>:
    57cc:	74c030        	extui	a12, a3, 0, 8
    57cf:	ea7f81        	l32r	a8, 1cc (56b8 <_Z14AdtsCrcSlowCrcPthh>)
    57d2:	01ad           	mov.n	a10, a1
    57d4:	0b0c           	movi.n	a11, 0
    57d6:	0008e0        	callx8	a8

000057d9 <_Z15AdtsCrcCheckCrcP12CAdtsCrcInfot+0xc9>:
    57d9:	021292        	l16ui	a9, a2, 4
    57dc:	554b           	addi.n	a5, a5, 4
    57de:	771b           	addi.n	a7, a7, 1
    57e0:	02a797        	bge	a7, a9, 57e6 <_Z15AdtsCrcCheckCrcP12CAdtsCrcInfot+0xd6>
    57e3:	ffcec6        	j	5722 <_Z15AdtsCrcCheckCrcP12CAdtsCrcInfot+0x12>

000057e6 <_Z15AdtsCrcCheckCrcP12CAdtsCrcInfot+0xd6>:
    57e6:	0a0c           	movi.n	a10, 0
    57e8:	0252a2        	s16i	a10, a2, 4
    57eb:	412d           	ae_l16ui.n	a2, a1, 0
    57ed:	f01d           	retw.n

000057ef <_Z15AdtsCrcCheckCrcP12CAdtsCrcInfot+0xdf>:
    57ef:	0a3d           	mov.n	a3, a10
    57f1:	ffd0c6        	j	5738 <_Z15AdtsCrcCheckCrcP12CAdtsCrcInfot+0x28>

000057f4 <_Z13AdtsCrcEndRegP12CAdtsCrcInfoP7BIT_BUFi>:
    57f4:	004136        	entry	a1, 32
    57f7:	070c           	movi.n	a7, 0
    57f9:	a06420        	addx4	a6, a4, a2
    57fc:	3688           	l32i.n	a8, a6, 12
    57fe:	004872        	s8i	a7, a8, 0
    5801:	3668           	l32i.n	a6, a6, 12
    5803:	5378           	l32i.n	a7, a3, 20
    5805:	a658           	l32i.n	a5, a6, 40
    5807:	c05570        	sub	a5, a5, a7
    580a:	4659           	s32i.n	a5, a6, 16
    580c:	f01d           	retw.n

0000580e <_Z13AdtsCrcEndRegP12CAdtsCrcInfoP7BIT_BUFi+0x1a>:
	...

00005810 <_Z15AdtsCrcStartRegP12CAdtsCrcInfoP7BIT_BUFi>:
    5810:	004136        	entry	a1, 32
    5813:	0212b2        	l16ui	a11, a2, 4
    5816:	0a0c           	movi.n	a10, 0
    5818:	887c           	movi.n	a8, -8
    581a:	035bb6        	bltui	a11, 5, 5821 <_Z15AdtsCrcStartRegP12CAdtsCrcInfoP7BIT_BUFi+0x11>
    581d:	f27c           	movi.n	a2, -1
    581f:	f01d           	retw.n

00005821 <_Z15AdtsCrcStartRegP12CAdtsCrcInfoP7BIT_BUFi+0x11>:
    5821:	80a0d2        	movi	a13, 128
    5824:	609140        	abs	a9, a4
    5827:	a0cb20        	addx4	a12, a11, a2
    582a:	3cb8           	l32i.n	a11, a12, 12
    582c:	839d90        	moveqz	a9, a13, a9
    582f:	108980        	and	a8, a9, a8
    5832:	2b49           	s32i.n	a4, a11, 8
    5834:	3ba9           	s32i.n	a10, a11, 12
    5836:	21b390        	srai	a11, a9, 3
    5839:	01b897        	bgeu	a8, a9, 583e <_Z15AdtsCrcStartRegP12CAdtsCrcInfoP7BIT_BUFi+0x2e>
    583c:	bb1b           	addi.n	a11, a11, 1

0000583e <_Z15AdtsCrcStartRegP12CAdtsCrcInfoP7BIT_BUFi+0x2e>:
    583e:	3cd8           	l32i.n	a13, a12, 12
    5840:	03ad           	mov.n	a10, a3
    5842:	1e0c           	movi.n	a14, 1
    5844:	004de2        	s8i	a14, a13, 0
    5847:	3c98           	l32i.n	a9, a12, 12
    5849:	ea6181        	l32r	a8, 1d0 (7104 <CopyBitBufState>)
    584c:	1db9           	s32i.n	a11, a13, 4
    584e:	14c9b2        	addi	a11, a9, 20
    5851:	0008e0        	callx8	a8
    5854:	0212f2        	l16ui	a15, a2, 4
    5857:	ff1b           	addi.n	a15, a15, 1
    5859:	9ffd           	ae_zext16	a15, a15
    585b:	0252f2        	s16i	a15, a2, 4
    585e:	2f0b           	addi.n	a2, a15, -1
    5860:	f01d           	retw.n

00005862 <_Z15AdtsCrcStartRegP12CAdtsCrcInfoP7BIT_BUFi+0x52>:
	...

00005864 <_Z15AdtsCrcStartRegP12CAdtsCrcInfoP7BIT_BUFi+0x54>:
    5864:	004136        	entry	a1, 32
    5867:	030c           	movi.n	a3, 0
    5869:	025232        	s16i	a3, a2, 4
    586c:	f01d           	retw.n

0000586e <_Z15AdtsCrcStartRegP12CAdtsCrcInfoP7BIT_BUFi+0x5e>:
	...

00005870 <_Z11AdtsCrcOpenPP12CAdtsCrcInfoS0_P10CrcRegData>:
    5870:	004136        	entry	a1, 32
    5873:	550c           	movi.n	a5, 5
    5875:	ea5781        	l32r	a8, 1d4 (ec30 <HuffmanCodeBooks+0x70>)
    5878:	0239           	s32i.n	a3, a2, 0
    587a:	090c           	movi.n	a9, 0
    587c:	0cc322        	addi	a2, a3, 12
    587f:	025392        	s16i	a9, a3, 4
    5882:	026382        	s32i	a8, a3, 8
    5885:	05a576        	loopgtz	a5, 588e <_Z11AdtsCrcOpenPP12CAdtsCrcInfoS0_P10CrcRegData+0x1e>
    5888:	09e244        	ae_s32ip	a4, a2, 4
    588b:	38c442        	addi	a4, a4, 56

0000588e <_Z11AdtsCrcOpenPP12CAdtsCrcInfoS0_P10CrcRegData+0x1e>:
    588e:	f01d           	retw.n

00005890 <_Z23CDataStreamElement_ReadP7BIT_BUFP18CDataStreamElementPi>:
    5890:	004136        	entry	a1, 32
    5893:	ea1281        	l32r	a8, dc (6f60 <initBitParser>)
    5896:	02ad           	mov.n	a10, a2
    5898:	0008e0        	callx8	a8
    589b:	ffa092        	movi	a9, 255
    589e:	0abd           	mov.n	a11, a10
    58a0:	03cf44        	ae_lbi	a12, 4
    58a3:	0043c2        	s8i	a12, a3, 0
    58a6:	004bf4        	ae_dbi	a11, 4
    58a9:	03af14        	ae_lbi	a10, 1
    58ac:	13a9           	s32i.n	a10, a3, 4
    58ae:	001bf4        	ae_dbi	a11, 1
    58b1:	03af84        	ae_lbi	a10, 8
    58b4:	23a9           	s32i.n	a10, a3, 8
    58b6:	008bf4        	ae_dbi	a11, 8
    58b9:	099a97        	bne	a10, a9, 58c6 <_Z23CDataStreamElement_ReadP7BIT_BUFP18CDataStreamElementPi+0x36>
    58bc:	03df84        	ae_lbi	a13, 8
    58bf:	008bf4        	ae_dbi	a11, 8
    58c2:	dada           	add.n	a13, a10, a13
    58c4:	23d9           	s32i.n	a13, a3, 8

000058c6 <_Z23CDataStreamElement_ReadP7BIT_BUFP18CDataStreamElementPi+0x36>:
    58c6:	ea0681        	l32r	a8, e0 (6f38 <TerminateBitParser_new>)
    58c9:	02ad           	mov.n	a10, a2
    58cb:	0008e0        	callx8	a8
    58ce:	1398           	l32i.n	a9, a3, 4
    58d0:	898c           	beqz.n	a9, 58dc <_Z23CDataStreamElement_ReadP7BIT_BUFP18CDataStreamElementPi+0x4c>
    58d2:	ea1a81        	l32r	a8, 13c (6fb8 <ByteAlign>)
    58d5:	04bd           	mov.n	a11, a4
    58d7:	02ad           	mov.n	a10, a2
    58d9:	0008e0        	callx8	a8

000058dc <_Z23CDataStreamElement_ReadP7BIT_BUFP18CDataStreamElementPi+0x4c>:
    58dc:	ea0081        	l32r	a8, dc (6f60 <initBitParser>)
    58df:	02ad           	mov.n	a10, a2
    58e1:	0008e0        	callx8	a8
    58e4:	23c8           	l32i.n	a12, a3, 8
    58e6:	0abd           	mov.n	a11, a10
    58e8:	0a0c           	movi.n	a10, 0
    58ea:	071ca6        	blti	a12, 1, 58f5 <_Z23CDataStreamElement_ReadP7BIT_BUFP18CDataStreamElementPi+0x65>

000058ed <_Z23CDataStreamElement_ReadP7BIT_BUFP18CDataStreamElementPi+0x5d>:
    58ed:	008bf4        	ae_dbi	a11, 8
    58f0:	aa1b           	addi.n	a10, a10, 1
    58f2:	f72ac7        	blt	a10, a12, 58ed <_Z23CDataStreamElement_ReadP7BIT_BUFP18CDataStreamElementPi+0x5d>

000058f5 <_Z23CDataStreamElement_ReadP7BIT_BUFP18CDataStreamElementPi+0x65>:
    58f5:	e9fa81        	l32r	a8, e0 (6f38 <TerminateBitParser_new>)
    58f8:	02ad           	mov.n	a10, a2
    58fa:	0008e0        	callx8	a8
    58fd:	f01d           	retw.n

000058ff <_Z23CDataStreamElement_ReadP7BIT_BUFP18CDataStreamElementPi+0x6f>:
	...

00005900 <_Z17CopyPCEfromHeaderP21tProgramConfigElementP14CProgramConfig>:
    5900:	004136        	entry	a1, 32
    5903:	000252        	l8ui	a5, a2, 0
    5906:	010242        	l8ui	a4, a2, 1
    5909:	080c           	movi.n	a8, 0
    590b:	0602b2        	l8ui	a11, a2, 6
    590e:	0302e2        	l8ui	a14, a2, 3
    5911:	0702a2        	l8ui	a10, a2, 7
    5914:	080292        	l8ui	a9, a2, 8
    5917:	0502c2        	l8ui	a12, a2, 5
    591a:	0402d2        	l8ui	a13, a2, 4
    591d:	0202f2        	l8ui	a15, a2, 2
    5920:	0743f2        	s8i	a15, a3, 7
    5923:	0943d2        	s8i	a13, a3, 9
    5926:	0a43c2        	s8i	a12, a3, 10
    5929:	0d4392        	s8i	a9, a3, 13
    592c:	0c43a2        	s8i	a10, a3, 12
    592f:	0843e2        	s8i	a14, a3, 8
    5932:	0b43b2        	s8i	a11, a3, 11
    5935:	004382        	s8i	a8, a3, 0
    5938:	064342        	s8i	a4, a3, 6
    593b:	054352        	s8i	a5, a3, 5
    593e:	0b0242        	l8ui	a4, a2, 11
    5941:	0a0252        	l8ui	a5, a2, 10
    5944:	090282        	l8ui	a8, a2, 9
    5947:	0e4382        	s8i	a8, a3, 14
    594a:	0803b2        	l8ui	a11, a3, 8
    594d:	104352        	s8i	a5, a3, 16
    5950:	124342        	s8i	a4, a3, 18
    5953:	23bb00        	sext	a11, a11, 7
    5956:	a48c           	beqz.n	a4, 5964 <_Z17CopyPCEfromHeaderP21tProgramConfigElementP14CProgramConfig+0x64>
    5958:	0d0292        	l8ui	a9, a2, 13
    595b:	0c02a2        	l8ui	a10, a2, 12
    595e:	1343a2        	s8i	a10, a3, 19
    5961:	144392        	s8i	a9, a3, 20

00005964 <_Z17CopyPCEfromHeaderP21tProgramConfigElementP14CProgramConfig+0x64>:
    5964:	2a0c           	movi.n	a10, 2
    5966:	190c           	movi.n	a9, 1
    5968:	2d1ba6        	blti	a11, 1, 5999 <_Z17CopyPCEfromHeaderP21tProgramConfigElementP14CProgramConfig+0x99>
    596b:	060c           	movi.n	a6, 0
    596d:	037d           	mov.n	a7, a3
    596f:	028d           	mov.n	a8, a2

00005971 <_Z17CopyPCEfromHeaderP21tProgramConfigElementP14CProgramConfig+0x71>:
    5971:	661b           	addi.n	a6, a6, 1
    5973:	09ed           	mov.n	a14, a9
    5975:	1508f2        	l8ui	a15, a8, 21
    5978:	1547f2        	s8i	a15, a7, 21
    597b:	160842        	l8ui	a4, a8, 22
    597e:	1d4742        	s8i	a4, a7, 29
    5981:	883b           	addi.n	a8, a8, 3
    5983:	771b           	addi.n	a7, a7, 1
    5985:	0803c2        	l8ui	a12, a3, 8
    5988:	0003d2        	l8ui	a13, a3, 0
    598b:	93eaf0        	movnez	a14, a10, a15
    598e:	23cc00        	sext	a12, a12, 7
    5991:	ddea           	add.n	a13, a13, a14
    5993:	0043d2        	s8i	a13, a3, 0
    5996:	d726c7        	blt	a6, a12, 5971 <_Z17CopyPCEfromHeaderP21tProgramConfigElementP14CProgramConfig+0x71>

00005999 <_Z17CopyPCEfromHeaderP21tProgramConfigElementP14CProgramConfig+0x99>:
    5999:	090382        	l8ui	a8, a3, 9
    599c:	037d           	mov.n	a7, a3
    599e:	060c           	movi.n	a6, 0
    59a0:	238800        	sext	a8, a8, 7
    59a3:	2918a6        	blti	a8, 1, 59d0 <_Z17CopyPCEfromHeaderP21tProgramConfigElementP14CProgramConfig+0xd0>
    59a6:	028d           	mov.n	a8, a2

000059a8 <_Z17CopyPCEfromHeaderP21tProgramConfigElementP14CProgramConfig+0xa8>:
    59a8:	661b           	addi.n	a6, a6, 1
    59aa:	09dd           	mov.n	a13, a9
    59ac:	4508e2        	l8ui	a14, a8, 69
    59af:	2547e2        	s8i	a14, a7, 37
    59b2:	4608f2        	l8ui	a15, a8, 70
    59b5:	2d47f2        	s8i	a15, a7, 45
    59b8:	883b           	addi.n	a8, a8, 3
    59ba:	771b           	addi.n	a7, a7, 1
    59bc:	0903b2        	l8ui	a11, a3, 9
    59bf:	0003c2        	l8ui	a12, a3, 0
    59c2:	93dae0        	movnez	a13, a10, a14
    59c5:	23bb00        	sext	a11, a11, 7
    59c8:	ccda           	add.n	a12, a12, a13
    59ca:	0043c2        	s8i	a12, a3, 0
    59cd:	d726b7        	blt	a6, a11, 59a8 <_Z17CopyPCEfromHeaderP21tProgramConfigElementP14CProgramConfig+0xa8>

000059d0 <_Z17CopyPCEfromHeaderP21tProgramConfigElementP14CProgramConfig+0xd0>:
    59d0:	0a0342        	l8ui	a4, a3, 10
    59d3:	028d           	mov.n	a8, a2
    59d5:	234400        	sext	a4, a4, 7
    59d8:	2b14a6        	blti	a4, 1, 5a07 <_Z17CopyPCEfromHeaderP21tProgramConfigElementP14CProgramConfig+0x107>
    59db:	037d           	mov.n	a7, a3
    59dd:	060c           	movi.n	a6, 0

000059df <_Z17CopyPCEfromHeaderP21tProgramConfigElementP14CProgramConfig+0xdf>:
    59df:	661b           	addi.n	a6, a6, 1
    59e1:	09cd           	mov.n	a12, a9
    59e3:	7508d2        	l8ui	a13, a8, 117
    59e6:	3547d2        	s8i	a13, a7, 53
    59e9:	7608e2        	l8ui	a14, a8, 118
    59ec:	3d47e2        	s8i	a14, a7, 61
    59ef:	883b           	addi.n	a8, a8, 3
    59f1:	771b           	addi.n	a7, a7, 1
    59f3:	0a0352        	l8ui	a5, a3, 10
    59f6:	0003b2        	l8ui	a11, a3, 0
    59f9:	93cad0        	movnez	a12, a10, a13
    59fc:	235500        	sext	a5, a5, 7
    59ff:	bbca           	add.n	a11, a11, a12
    5a01:	0043b2        	s8i	a11, a3, 0
    5a04:	d72657        	blt	a6, a5, 59df <_Z17CopyPCEfromHeaderP21tProgramConfigElementP14CProgramConfig+0xdf>

00005a07 <_Z17CopyPCEfromHeaderP21tProgramConfigElementP14CProgramConfig+0x107>:
    5a07:	0b03f2        	l8ui	a15, a3, 11
    5a0a:	037d           	mov.n	a7, a3
    5a0c:	060c           	movi.n	a6, 0
    5a0e:	23ff00        	sext	a15, a15, 7
    5a11:	1c1fa6        	blti	a15, 1, 5a31 <_Z17CopyPCEfromHeaderP21tProgramConfigElementP14CProgramConfig+0x131>

00005a14 <_Z17CopyPCEfromHeaderP21tProgramConfigElementP14CProgramConfig+0x114>:
    5a14:	a60252        	l8ui	a5, a2, 166
    5a17:	661b           	addi.n	a6, a6, 1
    5a19:	223b           	addi.n	a2, a2, 3
    5a1b:	454752        	s8i	a5, a7, 69
    5a1e:	0b0342        	l8ui	a4, a3, 11
    5a21:	000352        	l8ui	a5, a3, 0
    5a24:	771b           	addi.n	a7, a7, 1
    5a26:	234400        	sext	a4, a4, 7
    5a29:	551b           	addi.n	a5, a5, 1
    5a2b:	004352        	s8i	a5, a3, 0
    5a2e:	e22647        	blt	a6, a4, 5a14 <_Z17CopyPCEfromHeaderP21tProgramConfigElementP14CProgramConfig+0x114>

00005a31 <_Z17CopyPCEfromHeaderP21tProgramConfigElementP14CProgramConfig+0x131>:
    5a31:	f01d           	retw.n

00005a33 <_Z17CopyPCEfromHeaderP21tProgramConfigElementP14CProgramConfig+0x133>:
	...

00005a34 <_Z34CProgramConfigSetChannelAssignmentPA16_hP14CProgramConfigi>:
    5a34:	004136        	entry	a1, 32
    5a37:	080352        	l8ui	a5, a3, 8
    5a3a:	2d0c           	movi.n	a13, 2
    5a3c:	1c0c           	movi.n	a12, 1
    5a3e:	235500        	sext	a5, a5, 7
    5a41:	4715a6        	blti	a5, 1, 5a8c <_Z34CProgramConfigSetChannelAssignmentPA16_hP14CProgramConfigi+0x58>
    5a44:	070c           	movi.n	a7, 0
    5a46:	0e0c           	movi.n	a14, 0
    5a48:	080c           	movi.n	a8, 0

00005a4a <_Z34CProgramConfigSetChannelAssignmentPA16_hP14CProgramConfigi+0x16>:
    5a4a:	983a           	add.n	a9, a8, a3
    5a4c:	1509b2        	l8ui	a11, a9, 21
    5a4f:	0cad           	mov.n	a10, a12
    5a51:	1f0c           	movi.n	a15, 1
    5a53:	93bfb0        	movnez	a11, a15, a11
    5a56:	93adb0        	movnez	a10, a13, a11
    5a59:	072a66        	bnei	a10, 2, 5a64 <_Z34CProgramConfigSetChannelAssignmentPA16_hP14CProgramConfigi+0x30>
    5a5c:	ee1b           	addi.n	a14, a14, 1
    5a5e:	024ea6        	blti	a14, 4, 5a64 <_Z34CProgramConfigSetChannelAssignmentPA16_hP14CProgramConfigi+0x30>
    5a61:	fec772        	addi	a7, a7, -2
    5a64:	aa7a           	add.n	a10, a10, a7
    5a66:	02a4a7        	bge	a4, a10, 5a6c <_Z34CProgramConfigSetChannelAssignmentPA16_hP14CProgramConfigi+0x38>
    5a69:	003806        	j	5b4d <_Z34CProgramConfigSetChannelAssignmentPA16_hP14CProgramConfigi+0x119>
    5a6c:	1d0962        	l8ui	a6, a9, 29
    5a6f:	11fbc0        	slli	a15, a11, 4
    5a72:	f2fa           	add.n	a15, a2, a15
    5a74:	236600        	sext	a6, a6, 7
    5a77:	66fa           	add.n	a6, a6, a15
    5a79:	004672        	s8i	a7, a6, 0
    5a7c:	080352        	l8ui	a5, a3, 8
    5a7f:	881b           	addi.n	a8, a8, 1
    5a81:	0a7d           	mov.n	a7, a10
    5a83:	235500        	sext	a5, a5, 7
    5a86:	c02857        	blt	a8, a5, 5a4a <_Z34CProgramConfigSetChannelAssignmentPA16_hP14CProgramConfigi+0x16>
    5a89:	0000c6        	j	5a90 <_Z34CProgramConfigSetChannelAssignmentPA16_hP14CProgramConfigi+0x5c>

00005a8c <_Z34CProgramConfigSetChannelAssignmentPA16_hP14CProgramConfigi+0x58>:
    5a8c:	0e0c           	movi.n	a14, 0
    5a8e:	070c           	movi.n	a7, 0

00005a90 <_Z34CProgramConfigSetChannelAssignmentPA16_hP14CProgramConfigi+0x5c>:
    5a90:	090352        	l8ui	a5, a3, 9
    5a93:	080c           	movi.n	a8, 0
    5a95:	235500        	sext	a5, a5, 7
    5a98:	3e15a6        	blti	a5, 1, 5ada <_Z34CProgramConfigSetChannelAssignmentPA16_hP14CProgramConfigi+0xa6>

00005a9b <_Z34CProgramConfigSetChannelAssignmentPA16_hP14CProgramConfigi+0x67>:
    5a9b:	983a           	add.n	a9, a8, a3
    5a9d:	2509b2        	l8ui	a11, a9, 37
    5aa0:	0cad           	mov.n	a10, a12
    5aa2:	1f0c           	movi.n	a15, 1
    5aa4:	93bfb0        	movnez	a11, a15, a11
    5aa7:	93adb0        	movnez	a10, a13, a11
    5aaa:	072a66        	bnei	a10, 2, 5ab5 <_Z34CProgramConfigSetChannelAssignmentPA16_hP14CProgramConfigi+0x81>
    5aad:	ee1b           	addi.n	a14, a14, 1
    5aaf:	024ea6        	blti	a14, 4, 5ab5 <_Z34CProgramConfigSetChannelAssignmentPA16_hP14CProgramConfigi+0x81>
    5ab2:	fec772        	addi	a7, a7, -2
    5ab5:	aa7a           	add.n	a10, a10, a7
    5ab7:	02a4a7        	bge	a4, a10, 5abd <_Z34CProgramConfigSetChannelAssignmentPA16_hP14CProgramConfigi+0x89>
    5aba:	0023c6        	j	5b4d <_Z34CProgramConfigSetChannelAssignmentPA16_hP14CProgramConfigi+0x119>
    5abd:	2d0962        	l8ui	a6, a9, 45
    5ac0:	11fbc0        	slli	a15, a11, 4
    5ac3:	f2fa           	add.n	a15, a2, a15
    5ac5:	236600        	sext	a6, a6, 7
    5ac8:	66fa           	add.n	a6, a6, a15
    5aca:	004672        	s8i	a7, a6, 0
    5acd:	090352        	l8ui	a5, a3, 9
    5ad0:	881b           	addi.n	a8, a8, 1
    5ad2:	0a7d           	mov.n	a7, a10
    5ad4:	235500        	sext	a5, a5, 7
    5ad7:	c02857        	blt	a8, a5, 5a9b <_Z34CProgramConfigSetChannelAssignmentPA16_hP14CProgramConfigi+0x67>

00005ada <_Z34CProgramConfigSetChannelAssignmentPA16_hP14CProgramConfigi+0xa6>:
    5ada:	0a0352        	l8ui	a5, a3, 10
    5add:	080c           	movi.n	a8, 0
    5adf:	235500        	sext	a5, a5, 7
    5ae2:	3b15a6        	blti	a5, 1, 5b21 <_Z34CProgramConfigSetChannelAssignmentPA16_hP14CProgramConfigi+0xed>

00005ae5 <_Z34CProgramConfigSetChannelAssignmentPA16_hP14CProgramConfigi+0xb1>:
    5ae5:	983a           	add.n	a9, a8, a3
    5ae7:	3509b2        	l8ui	a11, a9, 53
    5aea:	0cad           	mov.n	a10, a12
    5aec:	1f0c           	movi.n	a15, 1
    5aee:	93bfb0        	movnez	a11, a15, a11
    5af1:	93adb0        	movnez	a10, a13, a11
    5af4:	072a66        	bnei	a10, 2, 5aff <_Z34CProgramConfigSetChannelAssignmentPA16_hP14CProgramConfigi+0xcb>
    5af7:	ee1b           	addi.n	a14, a14, 1
    5af9:	024ea6        	blti	a14, 4, 5aff <_Z34CProgramConfigSetChannelAssignmentPA16_hP14CProgramConfigi+0xcb>
    5afc:	fec772        	addi	a7, a7, -2
    5aff:	aa7a           	add.n	a10, a10, a7
    5b01:	4824a7        	blt	a4, a10, 5b4d <_Z34CProgramConfigSetChannelAssignmentPA16_hP14CProgramConfigi+0x119>
    5b04:	3d0962        	l8ui	a6, a9, 61
    5b07:	11fbc0        	slli	a15, a11, 4
    5b0a:	f2fa           	add.n	a15, a2, a15
    5b0c:	236600        	sext	a6, a6, 7
    5b0f:	66fa           	add.n	a6, a6, a15
    5b11:	004672        	s8i	a7, a6, 0
    5b14:	0a0352        	l8ui	a5, a3, 10
    5b17:	881b           	addi.n	a8, a8, 1
    5b19:	0a7d           	mov.n	a7, a10
    5b1b:	235500        	sext	a5, a5, 7
    5b1e:	c32857        	blt	a8, a5, 5ae5 <_Z34CProgramConfigSetChannelAssignmentPA16_hP14CProgramConfigi+0xb1>

00005b21 <_Z34CProgramConfigSetChannelAssignmentPA16_hP14CProgramConfigi+0xed>:
    5b21:	0b0352        	l8ui	a5, a3, 11
    5b24:	080c           	movi.n	a8, 0
    5b26:	235500        	sext	a5, a5, 7
    5b29:	1c15a6        	blti	a5, 1, 5b49 <_Z34CProgramConfigSetChannelAssignmentPA16_hP14CProgramConfigi+0x115>

00005b2c <_Z34CProgramConfigSetChannelAssignmentPA16_hP14CProgramConfigi+0xf8>:
    5b2c:	1da747        	bge	a7, a4, 5b4d <_Z34CProgramConfigSetChannelAssignmentPA16_hP14CProgramConfigi+0x119>
    5b2f:	983a           	add.n	a9, a8, a3
    5b31:	450992        	l8ui	a9, a9, 69
    5b34:	239900        	sext	a9, a9, 7
    5b37:	992a           	add.n	a9, a9, a2
    5b39:	204972        	s8i	a7, a9, 32
    5b3c:	0b0362        	l8ui	a6, a3, 11
    5b3f:	881b           	addi.n	a8, a8, 1
    5b41:	771b           	addi.n	a7, a7, 1
    5b43:	236600        	sext	a6, a6, 7
    5b46:	e22867        	blt	a8, a6, 5b2c <_Z34CProgramConfigSetChannelAssignmentPA16_hP14CProgramConfigi+0xf8>

00005b49 <_Z34CProgramConfigSetChannelAssignmentPA16_hP14CProgramConfigi+0x115>:
    5b49:	020c           	movi.n	a2, 0
    5b4b:	f01d           	retw.n

00005b4d <_Z34CProgramConfigSetChannelAssignmentPA16_hP14CProgramConfigi+0x119>:
    5b4d:	f27c           	movi.n	a2, -1
    5b4f:	f01d           	retw.n

00005b51 <_Z34CProgramConfigSetChannelAssignmentPA16_hP14CProgramConfigi+0x11d>:
    5b51:	000000                                        ...

00005b54 <_Z25CProgramConfig_AddChannelP14CProgramConfigih>:
    5b54:	004136        	entry	a1, 32
    5b57:	040242        	l8ui	a4, a2, 4
    5b5a:	026d           	mov.n	a6, a2
    5b5c:	080282        	l8ui	a8, a2, 8
    5b5f:	34cc           	bnez.n	a4, 5b66 <_Z25CProgramConfig_AddChannelP14CProgramConfigih+0x12>

00005b61 <_Z25CProgramConfig_AddChannelP14CProgramConfigih+0xd>:
    5b61:	120c           	movi.n	a2, 1
    5b63:	f01d           	retw.n

00005b65 <_Z25CProgramConfig_AddChannelP14CProgramConfigih+0x11>:
	...

00005b66 <_Z25CProgramConfig_AddChannelP14CProgramConfigih+0x12>:
    5b66:	238800        	sext	a8, a8, 7
    5b69:	0aa876        	loopgtz	a8, 5b77 <_Z25CProgramConfig_AddChannelP14CProgramConfigih+0x23>
    5b6c:	1d0692        	l8ui	a9, a6, 29
    5b6f:	661b           	addi.n	a6, a6, 1
    5b71:	239900        	sext	a9, a9, 7
    5b74:	e91937        	beq	a9, a3, 5b61 <_Z25CProgramConfig_AddChannelP14CProgramConfigih+0xd>

00005b77 <_Z25CProgramConfig_AddChannelP14CProgramConfigih+0x23>:
    5b77:	0902a2        	l8ui	a10, a2, 9
    5b7a:	026d           	mov.n	a6, a2
    5b7c:	23aa00        	sext	a10, a10, 7
    5b7f:	f03d           	nop.n
    5b81:	0aaa76        	loopgtz	a10, 5b8f <_Z25CProgramConfig_AddChannelP14CProgramConfigih+0x3b>
    5b84:	2d06b2        	l8ui	a11, a6, 45
    5b87:	661b           	addi.n	a6, a6, 1
    5b89:	23bb00        	sext	a11, a11, 7
    5b8c:	d11b37        	beq	a11, a3, 5b61 <_Z25CProgramConfig_AddChannelP14CProgramConfigih+0xd>
    5b8f:	0a02c2        	l8ui	a12, a2, 10
    5b92:	026d           	mov.n	a6, a2
    5b94:	23cc00        	sext	a12, a12, 7
    5b97:	f03d           	nop.n
    5b99:	0aac76        	loopgtz	a12, 5ba7 <_Z25CProgramConfig_AddChannelP14CProgramConfigih+0x53>
    5b9c:	3d06d2        	l8ui	a13, a6, 61
    5b9f:	661b           	addi.n	a6, a6, 1
    5ba1:	23dd00        	sext	a13, a13, 7
    5ba4:	b91d37        	beq	a13, a3, 5b61 <_Z25CProgramConfig_AddChannelP14CProgramConfigih+0xd>
    5ba7:	0b02e2        	l8ui	a14, a2, 11
    5baa:	026d           	mov.n	a6, a2
    5bac:	020c           	movi.n	a2, 0
    5bae:	23ee00        	sext	a14, a14, 7
    5bb1:	0aae76        	loopgtz	a14, 5bbf <_Z25CProgramConfig_AddChannelP14CProgramConfigih+0x6b>
    5bb4:	4506f2        	l8ui	a15, a6, 69
    5bb7:	661b           	addi.n	a6, a6, 1
    5bb9:	23ff00        	sext	a15, a15, 7
    5bbc:	a11f37        	beq	a15, a3, 5b61 <_Z25CProgramConfig_AddChannelP14CProgramConfigih+0xd>
    5bbf:	f01d           	retw.n

00005bc1 <_Z25CProgramConfig_AddChannelP14CProgramConfigih+0x6d>:
    5bc1:	000000                                        ...

00005bc4 <_Z19CProgramConfig_ReadP7BIT_BUFP14CProgramConfigPi>:
    5bc4:	004136        	entry	a1, 32
    5bc7:	e94581        	l32r	a8, dc (6f60 <initBitParser>)
    5bca:	02ad           	mov.n	a10, a2
    5bcc:	0008e0        	callx8	a8
    5bcf:	0abd           	mov.n	a11, a10
    5bd1:	0c0c           	movi.n	a12, 0
    5bd3:	03df44        	ae_lbi	a13, 4
    5bd6:	0543d2        	s8i	a13, a3, 5
    5bd9:	0043c2        	s8i	a12, a3, 0
    5bdc:	004bf4        	ae_dbi	a11, 4
    5bdf:	03af24        	ae_lbi	a10, 2
    5be2:	0643a2        	s8i	a10, a3, 6
    5be5:	002bf4        	ae_dbi	a11, 2
    5be8:	039f44        	ae_lbi	a9, 4
    5beb:	074392        	s8i	a9, a3, 7
    5bee:	004bf4        	ae_dbi	a11, 4
    5bf1:	038f44        	ae_lbi	a8, 4
    5bf4:	084382        	s8i	a8, a3, 8
    5bf7:	004bf4        	ae_dbi	a11, 4
    5bfa:	03ff44        	ae_lbi	a15, 4
    5bfd:	0943f2        	s8i	a15, a3, 9
    5c00:	004bf4        	ae_dbi	a11, 4
    5c03:	03ef44        	ae_lbi	a14, 4
    5c06:	0a43e2        	s8i	a14, a3, 10
    5c09:	004bf4        	ae_dbi	a11, 4
    5c0c:	03df24        	ae_lbi	a13, 2
    5c0f:	0b43d2        	s8i	a13, a3, 11
    5c12:	002bf4        	ae_dbi	a11, 2
    5c15:	03cf34        	ae_lbi	a12, 3
    5c18:	0c43c2        	s8i	a12, a3, 12
    5c1b:	003bf4        	ae_dbi	a11, 3
    5c1e:	03af44        	ae_lbi	a10, 4
    5c21:	0d43a2        	s8i	a10, a3, 13
    5c24:	004bf4        	ae_dbi	a11, 4
    5c27:	039f14        	ae_lbi	a9, 1
    5c2a:	0e4392        	s8i	a9, a3, 14
    5c2d:	001bf4        	ae_dbi	a11, 1
    5c30:	749090        	extui	a9, a9, 0, 8
    5c33:	798c           	beqz.n	a9, 5c3e <_Z19CProgramConfig_ReadP7BIT_BUFP14CProgramConfigPi+0x7a>
    5c35:	03ef44        	ae_lbi	a14, 4
    5c38:	0f43e2        	s8i	a14, a3, 15
    5c3b:	004bf4        	ae_dbi	a11, 4

00005c3e <_Z19CProgramConfig_ReadP7BIT_BUFP14CProgramConfigPi+0x7a>:
    5c3e:	03ff14        	ae_lbi	a15, 1
    5c41:	1043f2        	s8i	a15, a3, 16
    5c44:	001bf4        	ae_dbi	a11, 1
    5c47:	74f0f0        	extui	a15, a15, 0, 8
    5c4a:	7f8c           	beqz.n	a15, 5c55 <_Z19CProgramConfig_ReadP7BIT_BUFP14CProgramConfigPi+0x91>
    5c4c:	038f44        	ae_lbi	a8, 4
    5c4f:	114382        	s8i	a8, a3, 17
    5c52:	004bf4        	ae_dbi	a11, 4

00005c55 <_Z19CProgramConfig_ReadP7BIT_BUFP14CProgramConfigPi+0x91>:
    5c55:	150c           	movi.n	a5, 1
    5c57:	0803d2        	l8ui	a13, a3, 8
    5c5a:	039f14        	ae_lbi	a9, 1
    5c5d:	124392        	s8i	a9, a3, 18
    5c60:	001bf4        	ae_dbi	a11, 1
    5c63:	23dd00        	sext	a13, a13, 7
    5c66:	749090        	extui	a9, a9, 0, 8
    5c69:	099c           	beqz.n	a9, 5c7d <_Z19CProgramConfig_ReadP7BIT_BUFP14CProgramConfigPi+0xb9>
    5c6b:	03cf24        	ae_lbi	a12, 2
    5c6e:	1343c2        	s8i	a12, a3, 19
    5c71:	002bf4        	ae_dbi	a11, 2
    5c74:	03af14        	ae_lbi	a10, 1
    5c77:	1443a2        	s8i	a10, a3, 20
    5c7a:	001bf4        	ae_dbi	a11, 1

00005c7d <_Z19CProgramConfig_ReadP7BIT_BUFP14CProgramConfigPi+0xb9>:
    5c7d:	2c0c           	movi.n	a12, 2
    5c7f:	301da6        	blti	a13, 1, 5cb3 <_Z19CProgramConfig_ReadP7BIT_BUFP14CProgramConfigPi+0xef>
    5c82:	0a0c           	movi.n	a10, 0

00005c84 <_Z19CProgramConfig_ReadP7BIT_BUFP14CProgramConfigPi+0xc0>:
    5c84:	05fd           	mov.n	a15, a5
    5c86:	ea3a           	add.n	a14, a10, a3
    5c88:	039f14        	ae_lbi	a9, 1
    5c8b:	aa1b           	addi.n	a10, a10, 1
    5c8d:	154e92        	s8i	a9, a14, 21
    5c90:	001bf4        	ae_dbi	a11, 1
    5c93:	749090        	extui	a9, a9, 0, 8
    5c96:	93fc90        	movnez	a15, a12, a9
    5c99:	03df44        	ae_lbi	a13, 4
    5c9c:	1d4ed2        	s8i	a13, a14, 29
    5c9f:	0803e2        	l8ui	a14, a3, 8
    5ca2:	000382        	l8ui	a8, a3, 0
    5ca5:	004bf4        	ae_dbi	a11, 4
    5ca8:	23ee00        	sext	a14, a14, 7
    5cab:	ff8a           	add.n	a15, a15, a8
    5cad:	0043f2        	s8i	a15, a3, 0
    5cb0:	d02ae7        	blt	a10, a14, 5c84 <_Z19CProgramConfig_ReadP7BIT_BUFP14CProgramConfigPi+0xc0>

00005cb3 <_Z19CProgramConfig_ReadP7BIT_BUFP14CProgramConfigPi+0xef>:
    5cb3:	0903f2        	l8ui	a15, a3, 9
    5cb6:	0a0c           	movi.n	a10, 0
    5cb8:	23ff00        	sext	a15, a15, 7
    5cbb:	2e1fa6        	blti	a15, 1, 5ced <_Z19CProgramConfig_ReadP7BIT_BUFP14CProgramConfigPi+0x129>

00005cbe <_Z19CProgramConfig_ReadP7BIT_BUFP14CProgramConfigPi+0xfa>:
    5cbe:	059d           	mov.n	a9, a5
    5cc0:	8a3a           	add.n	a8, a10, a3
    5cc2:	03ef14        	ae_lbi	a14, 1
    5cc5:	aa1b           	addi.n	a10, a10, 1
    5cc7:	2548e2        	s8i	a14, a8, 37
    5cca:	001bf4        	ae_dbi	a11, 1
    5ccd:	74e0e0        	extui	a14, a14, 0, 8
    5cd0:	939ce0        	movnez	a9, a12, a14
    5cd3:	03ff44        	ae_lbi	a15, 4
    5cd6:	2d48f2        	s8i	a15, a8, 45
    5cd9:	090382        	l8ui	a8, a3, 9
    5cdc:	0003d2        	l8ui	a13, a3, 0
    5cdf:	004bf4        	ae_dbi	a11, 4
    5ce2:	238800        	sext	a8, a8, 7
    5ce5:	99da           	add.n	a9, a9, a13
    5ce7:	004392        	s8i	a9, a3, 0
    5cea:	d02a87        	blt	a10, a8, 5cbe <_Z19CProgramConfig_ReadP7BIT_BUFP14CProgramConfigPi+0xfa>

00005ced <_Z19CProgramConfig_ReadP7BIT_BUFP14CProgramConfigPi+0x129>:
    5ced:	0a0392        	l8ui	a9, a3, 10
    5cf0:	0a0c           	movi.n	a10, 0
    5cf2:	239900        	sext	a9, a9, 7
    5cf5:	2e19a6        	blti	a9, 1, 5d27 <_Z19CProgramConfig_ReadP7BIT_BUFP14CProgramConfigPi+0x163>

00005cf8 <_Z19CProgramConfig_ReadP7BIT_BUFP14CProgramConfigPi+0x134>:
    5cf8:	05ed           	mov.n	a14, a5
    5cfa:	da3a           	add.n	a13, a10, a3
    5cfc:	038f14        	ae_lbi	a8, 1
    5cff:	aa1b           	addi.n	a10, a10, 1
    5d01:	354d82        	s8i	a8, a13, 53
    5d04:	001bf4        	ae_dbi	a11, 1
    5d07:	748080        	extui	a8, a8, 0, 8
    5d0a:	93ec80        	movnez	a14, a12, a8
    5d0d:	039f44        	ae_lbi	a9, 4
    5d10:	3d4d92        	s8i	a9, a13, 61
    5d13:	0a03d2        	l8ui	a13, a3, 10
    5d16:	0003f2        	l8ui	a15, a3, 0
    5d19:	004bf4        	ae_dbi	a11, 4
    5d1c:	23dd00        	sext	a13, a13, 7
    5d1f:	eefa           	add.n	a14, a14, a15
    5d21:	0043e2        	s8i	a14, a3, 0
    5d24:	d02ad7        	blt	a10, a13, 5cf8 <_Z19CProgramConfig_ReadP7BIT_BUFP14CProgramConfigPi+0x134>

00005d27 <_Z19CProgramConfig_ReadP7BIT_BUFP14CProgramConfigPi+0x163>:
    5d27:	0b03e2        	l8ui	a14, a3, 11
    5d2a:	0a0c           	movi.n	a10, 0
    5d2c:	23ee00        	sext	a14, a14, 7
    5d2f:	1d1ea6        	blti	a14, 1, 5d50 <_Z19CProgramConfig_ReadP7BIT_BUFP14CProgramConfigPi+0x18c>

00005d32 <_Z19CProgramConfig_ReadP7BIT_BUFP14CProgramConfigPi+0x16e>:
    5d32:	9a3a           	add.n	a9, a10, a3
    5d34:	038f44        	ae_lbi	a8, 4
    5d37:	aa1b           	addi.n	a10, a10, 1
    5d39:	454982        	s8i	a8, a9, 69
    5d3c:	0b03f2        	l8ui	a15, a3, 11
    5d3f:	000382        	l8ui	a8, a3, 0
    5d42:	004bf4        	ae_dbi	a11, 4
    5d45:	23ff00        	sext	a15, a15, 7
    5d48:	881b           	addi.n	a8, a8, 1
    5d4a:	004382        	s8i	a8, a3, 0
    5d4d:	e12af7        	blt	a10, a15, 5d32 <_Z19CProgramConfig_ReadP7BIT_BUFP14CProgramConfigPi+0x16e>

00005d50 <_Z19CProgramConfig_ReadP7BIT_BUFP14CProgramConfigPi+0x18c>:
    5d50:	0c03a2        	l8ui	a10, a3, 12
    5d53:	23aa00        	sext	a10, a10, 7
    5d56:	171aa6        	blti	a10, 1, 5d71 <_Z19CProgramConfig_ReadP7BIT_BUFP14CProgramConfigPi+0x1ad>
    5d59:	0a0c           	movi.n	a10, 0

00005d5b <_Z19CProgramConfig_ReadP7BIT_BUFP14CProgramConfigPi+0x197>:
    5d5b:	ea3a           	add.n	a14, a10, a3
    5d5d:	03df44        	ae_lbi	a13, 4
    5d60:	4d4ed2        	s8i	a13, a14, 77
    5d63:	0c03c2        	l8ui	a12, a3, 12
    5d66:	aa1b           	addi.n	a10, a10, 1
    5d68:	004bf4        	ae_dbi	a11, 4
    5d6b:	23cc00        	sext	a12, a12, 7
    5d6e:	e92ac7        	blt	a10, a12, 5d5b <_Z19CProgramConfig_ReadP7BIT_BUFP14CProgramConfigPi+0x197>

00005d71 <_Z19CProgramConfig_ReadP7BIT_BUFP14CProgramConfigPi+0x1ad>:
    5d71:	0d03f2        	l8ui	a15, a3, 13
    5d74:	0a0c           	movi.n	a10, 0
    5d76:	23ff00        	sext	a15, a15, 7
    5d79:	1e1fa6        	blti	a15, 1, 5d9b <_Z19CProgramConfig_ReadP7BIT_BUFP14CProgramConfigPi+0x1d7>

00005d7c <_Z19CProgramConfig_ReadP7BIT_BUFP14CProgramConfigPi+0x1b8>:
    5d7c:	ca3a           	add.n	a12, a10, a3
    5d7e:	03df14        	ae_lbi	a13, 1
    5d81:	554cd2        	s8i	a13, a12, 85
    5d84:	001bf4        	ae_dbi	a11, 1
    5d87:	039f44        	ae_lbi	a9, 4
    5d8a:	5d4c92        	s8i	a9, a12, 93
    5d8d:	0d0382        	l8ui	a8, a3, 13
    5d90:	aa1b           	addi.n	a10, a10, 1
    5d92:	004bf4        	ae_dbi	a11, 4
    5d95:	238800        	sext	a8, a8, 7
    5d98:	e02a87        	blt	a10, a8, 5d7c <_Z19CProgramConfig_ReadP7BIT_BUFP14CProgramConfigPi+0x1b8>

00005d9b <_Z19CProgramConfig_ReadP7BIT_BUFP14CProgramConfigPi+0x1d7>:
    5d9b:	e8d181        	l32r	a8, e0 (6f38 <TerminateBitParser_new>)
    5d9e:	02ad           	mov.n	a10, a2
    5da0:	0008e0        	callx8	a8
    5da3:	e8e681        	l32r	a8, 13c (6fb8 <ByteAlign>)
    5da6:	04bd           	mov.n	a11, a4
    5da8:	02ad           	mov.n	a10, a2
    5daa:	0008e0        	callx8	a8
    5dad:	e8cb81        	l32r	a8, dc (6f60 <initBitParser>)
    5db0:	02ad           	mov.n	a10, a2
    5db2:	0008e0        	callx8	a8
    5db5:	0abd           	mov.n	a11, a10
    5db7:	039f84        	ae_lbi	a9, 8
    5dba:	654392        	s8i	a9, a3, 101
    5dbd:	008bf4        	ae_dbi	a11, 8
    5dc0:	749090        	extui	a9, a9, 0, 8
    5dc3:	1a19a6        	blti	a9, 1, 5de1 <_Z19CProgramConfig_ReadP7BIT_BUFP14CProgramConfigPi+0x21d>
    5dc6:	0a0c           	movi.n	a10, 0
    5dc8:	039f84        	ae_lbi	a9, 8

00005dcb <_Z19CProgramConfig_ReadP7BIT_BUFP14CProgramConfigPi+0x207>:
    5dcb:	008bf4        	ae_dbi	a11, 8
    5dce:	04dae6        	bgei	a10, 64, 5dd6 <_Z19CProgramConfig_ReadP7BIT_BUFP14CProgramConfigPi+0x212>
    5dd1:	ca3a           	add.n	a12, a10, a3
    5dd3:	664c92        	s8i	a9, a12, 102

00005dd6 <_Z19CProgramConfig_ReadP7BIT_BUFP14CProgramConfigPi+0x212>:
    5dd6:	6503d2        	l8ui	a13, a3, 101
    5dd9:	039f84        	ae_lbi	a9, 8
    5ddc:	aa1b           	addi.n	a10, a10, 1
    5dde:	e92ad7        	blt	a10, a13, 5dcb <_Z19CProgramConfig_ReadP7BIT_BUFP14CProgramConfigPi+0x207>

00005de1 <_Z19CProgramConfig_ReadP7BIT_BUFP14CProgramConfigPi+0x21d>:
    5de1:	e8bf81        	l32r	a8, e0 (6f38 <TerminateBitParser_new>)
    5de4:	02ad           	mov.n	a10, a2
    5de6:	0008e0        	callx8	a8
    5de9:	66c3a2        	addi	a10, a3, 102
    5dec:	6503b2        	l8ui	a11, a3, 101
    5def:	0803c2        	l8ui	a12, a3, 8
    5df2:	0903d2        	l8ui	a13, a3, 9
    5df5:	0a03e2        	l8ui	a14, a3, 10
    5df8:	e8f881        	l32r	a8, 1d8 (5e30 <Parse_Height_Extension_Element>)
    5dfb:	01d3f2        	addmi	a15, a3, 0x100
    5dfe:	a6cff2        	addi	a15, a15, -90
    5e01:	0008e0        	callx8	a8
    5e04:	0003a2        	l8ui	a10, a3, 0
    5e07:	044352        	s8i	a5, a3, 4
    5e0a:	890c           	movi.n	a9, 8
    5e0c:	23aa00        	sext	a10, a10, 7
    5e0f:	0329a7        	blt	a9, a10, 5e16 <_Z19CProgramConfig_ReadP7BIT_BUFP14CProgramConfigPi+0x252>
    5e12:	020c           	movi.n	a2, 0
    5e14:	f01d           	retw.n

00005e16 <_Z19CProgramConfig_ReadP7BIT_BUFP14CProgramConfigPi+0x252>:
    5e16:	f27c           	movi.n	a2, -1
    5e18:	004322        	s8i	a2, a3, 0
    5e1b:	f01d           	retw.n

00005e1d <_Z19CProgramConfig_ReadP7BIT_BUFP14CProgramConfigPi+0x259>:
    5e1d:	000000                                        ...

00005e20 <_Z18CProgramConfigOpenP14CProgramConfig>:
    5e20:	004136        	entry	a1, 32
    5e23:	030c           	movi.n	a3, 0
    5e25:	044232        	s8i	a3, a2, 4
    5e28:	014232        	s8i	a3, a2, 1
    5e2b:	f01d           	retw.n

00005e2d <_Z18CProgramConfigOpenP14CProgramConfig+0xd>:
    5e2d:	000000                                        ...

00005e30 <Parse_Height_Extension_Element>:
    5e30:	004136        	entry	a1, 32
    5e33:	791c           	movi.n	a9, 23
    5e35:	845a           	add.n	a8, a4, a5
    5e37:	868a           	add.n	a8, a6, a8
    5e39:	908890        	addx2	a8, a8, a9
    5e3c:	218380        	srai	a8, a8, 3
    5e3f:	02a387        	bge	a3, a8, 5e45 <Parse_Height_Extension_Element+0x15>
    5e42:	002346        	j	5ed3 <Parse_Height_Extension_Element+0xa3>
    5e45:	000292        	l8ui	a9, a2, 0
    5e48:	aca0a2        	movi	a10, 172
    5e4b:	c099a0        	sub	a9, a9, a10
    5e4e:	081956        	bnez	a9, 5ed3 <Parse_Height_Extension_Element+0xa3>
    5e51:	07ad           	mov.n	a10, a7
    5e53:	e8a981        	l32r	a8, f8 (9db0 <__vec_memset>)
    5e56:	0b0c           	movi.n	a11, 0
    5e58:	0c3c           	movi.n	a12, 48
    5e5a:	0008e0        	callx8	a8
    5e5d:	84ac           	beqz.n	a4, 5e89 <Parse_Height_Extension_Element+0x59>
    5e5f:	690c           	movi.n	a9, 6
    5e61:	1b0c           	movi.n	a11, 1
    5e63:	0a0c           	movi.n	a10, 0
    5e65:	1d9476        	loopnez	a4, 5e86 <Parse_Height_Extension_Element+0x56>
    5e68:	cb2a           	add.n	a12, a11, a2
    5e6a:	000cc2        	l8ui	a12, a12, 0
    5e6d:	da7a           	add.n	a13, a10, a7
    5e6f:	400900        	ssr	a9
    5e72:	b1c0c0        	sra	a12, a12
    5e75:	14c0c0        	extui	a12, a12, 0, 2
    5e78:	004dc2        	s8i	a12, a13, 0
    5e7b:	29cc           	bnez.n	a9, 5e81 <Parse_Height_Extension_Element+0x51>
    5e7d:	bb1b           	addi.n	a11, a11, 1
    5e7f:	690c           	movi.n	a9, 6

00005e81 <Parse_Height_Extension_Element+0x51>:
    5e81:	aa1b           	addi.n	a10, a10, 1
    5e83:	fec992        	addi	a9, a9, -2

00005e86 <Parse_Height_Extension_Element+0x56>:
    5e86:	0000c6        	j	5e8d <Parse_Height_Extension_Element+0x5d>

00005e89 <Parse_Height_Extension_Element+0x59>:
    5e89:	1b0c           	movi.n	a11, 1
    5e8b:	690c           	movi.n	a9, 6

00005e8d <Parse_Height_Extension_Element+0x5d>:
    5e8d:	0a0c           	movi.n	a10, 0
    5e8f:	1d9576        	loopnez	a5, 5eb0 <Parse_Height_Extension_Element+0x80>
    5e92:	db2a           	add.n	a13, a11, a2
    5e94:	000dd2        	l8ui	a13, a13, 0
    5e97:	ea7a           	add.n	a14, a10, a7
    5e99:	400900        	ssr	a9
    5e9c:	b1d0d0        	sra	a13, a13
    5e9f:	14d0d0        	extui	a13, a13, 0, 2
    5ea2:	104ed2        	s8i	a13, a14, 16
    5ea5:	29cc           	bnez.n	a9, 5eab <Parse_Height_Extension_Element+0x7b>
    5ea7:	bb1b           	addi.n	a11, a11, 1
    5ea9:	690c           	movi.n	a9, 6

00005eab <Parse_Height_Extension_Element+0x7b>:
    5eab:	aa1b           	addi.n	a10, a10, 1
    5ead:	fec992        	addi	a9, a9, -2

00005eb0 <Parse_Height_Extension_Element+0x80>:
    5eb0:	0a0c           	movi.n	a10, 0
    5eb2:	1d9676        	loopnez	a6, 5ed3 <Parse_Height_Extension_Element+0xa3>
    5eb5:	fa7a           	add.n	a15, a10, a7
    5eb7:	eb2a           	add.n	a14, a11, a2
    5eb9:	000ee2        	l8ui	a14, a14, 0
    5ebc:	400900        	ssr	a9
    5ebf:	aa1b           	addi.n	a10, a10, 1
    5ec1:	b1e0e0        	sra	a14, a14
    5ec4:	14e0e0        	extui	a14, a14, 0, 2
    5ec7:	204fe2        	s8i	a14, a15, 32
    5eca:	29cc           	bnez.n	a9, 5ed0 <Parse_Height_Extension_Element+0xa0>
    5ecc:	bb1b           	addi.n	a11, a11, 1
    5ece:	690c           	movi.n	a9, 6

00005ed0 <Parse_Height_Extension_Element+0xa0>:
    5ed0:	fec992        	addi	a9, a9, -2
    5ed3:	020c           	movi.n	a2, 0
    5ed5:	f01d           	retw.n

00005ed7 <Parse_Height_Extension_Element+0xa7>:
	...

00005ed8 <_Z15CPulseData_ReadPPtP22CAacDecoderChannelInfo>:
    5ed8:	004136        	entry	a1, 32
    5edb:	2368           	l32i.n	a6, a3, 8
    5edd:	039f14        	ae_lbi	a9, 1
    5ee0:	004692        	s8i	a9, a6, 0
    5ee3:	0288           	l32i.n	a8, a2, 0
    5ee5:	0018f4        	ae_dbi	a8, 1
    5ee8:	0289           	s32i.n	a8, a2, 0
    5eea:	000642        	l8ui	a4, a6, 0
    5eed:	090416        	beqz	a4, 5f81 <_Z15CPulseData_ReadPPtP22CAacDecoderChannelInfo+0xa9>
    5ef0:	0378           	l32i.n	a7, a3, 0
    5ef2:	e85bc1        	l32r	a12, 60 (109f0 <SamplingRateInfoTable>)
    5ef5:	030732        	l8ui	a3, a7, 3
    5ef8:	03df24        	ae_lbi	a13, 2
    5efb:	0707b2        	l8ui	a11, a7, 7
    5efe:	fec3a2        	addi	a10, a3, -2
    5f01:	080a16        	beqz	a10, 5f85 <_Z15CPulseData_ReadPPtP22CAacDecoderChannelInfo+0xad>
    5f04:	23bb00        	sext	a11, a11, 7
    5f07:	0146d2        	s8i	a13, a6, 1
    5f0a:	02e8           	l32i.n	a14, a2, 0
    5f0c:	a0bbb0        	addx4	a11, a11, a11
    5f0f:	a0bbc0        	addx4	a11, a11, a12
    5f12:	4b78           	l32i.n	a7, a11, 16
    5f14:	2b48           	l32i.n	a4, a11, 8
    5f16:	002ef4        	ae_dbi	a14, 2
    5f19:	03df64        	ae_lbi	a13, 6
    5f1c:	040bb2        	l8ui	a11, a11, 4
    5f1f:	02e9           	s32i.n	a14, a2, 0
    5f21:	0246d2        	s8i	a13, a6, 2
    5f24:	02c8           	l32i.n	a12, a2, 0
    5f26:	9374a0        	movnez	a7, a4, a10
    5f29:	006cf4        	ae_dbi	a12, 6
    5f2c:	02c9           	s32i.n	a12, a2, 0
    5f2e:	020632        	l8ui	a3, a6, 2
    5f31:	23bb00        	sext	a11, a11, 7
    5f34:	0106e2        	l8ui	a14, a6, 1
    5f37:	233300        	sext	a3, a3, 7
    5f3a:	47a3b7        	bge	a3, a11, 5f85 <_Z15CPulseData_ReadPPtP22CAacDecoderChannelInfo+0xad>
    5f3d:	907370        	addx2	a7, a3, a7
    5f40:	277d           	ae_l16si.n	a7, a7, 0
    5f42:	3bee77        	bbsi	a14, 7, 5f81 <_Z15CPulseData_ReadPPtP22CAacDecoderChannelInfo+0xa9>
    5f45:	ffa392        	movi	a9, 0x3ff
    5f48:	030c           	movi.n	a3, 0
    5f4a:	03cf54        	ae_lbi	a12, 5

00005f4d <_Z15CPulseData_ReadPPtP22CAacDecoderChannelInfo+0x75>:
    5f4d:	836a           	add.n	a8, a3, a6
    5f4f:	0348c2        	s8i	a12, a8, 3
    5f52:	02b8           	l32i.n	a11, a2, 0
    5f54:	005bf4        	ae_dbi	a11, 5
    5f57:	02b9           	s32i.n	a11, a2, 0
    5f59:	0308a2        	l8ui	a10, a8, 3
    5f5c:	331b           	addi.n	a3, a3, 1
    5f5e:	03ff44        	ae_lbi	a15, 4
    5f61:	23aa00        	sext	a10, a10, 7
    5f64:	7a7a           	add.n	a7, a10, a7
    5f66:	877d           	ae_sext16	a7, a7
    5f68:	192977        	blt	a9, a7, 5f85 <_Z15CPulseData_ReadPPtP22CAacDecoderChannelInfo+0xad>
    5f6b:	0748f2        	s8i	a15, a8, 7
    5f6e:	02e8           	l32i.n	a14, a2, 0
    5f70:	004ef4        	ae_dbi	a14, 4
    5f73:	02e9           	s32i.n	a14, a2, 0
    5f75:	0106d2        	l8ui	a13, a6, 1
    5f78:	03cf54        	ae_lbi	a12, 5
    5f7b:	23dd00        	sext	a13, a13, 7
    5f7e:	cbad37        	bge	a13, a3, 5f4d <_Z15CPulseData_ReadPPtP22CAacDecoderChannelInfo+0x75>

00005f81 <_Z15CPulseData_ReadPPtP22CAacDecoderChannelInfo+0xa9>:
    5f81:	020c           	movi.n	a2, 0
    5f83:	f01d           	retw.n

00005f85 <_Z15CPulseData_ReadPPtP22CAacDecoderChannelInfo+0xad>:
    5f85:	021c           	movi.n	a2, 16
    5f87:	f01d           	retw.n

00005f89 <_Z15CPulseData_ReadPPtP22CAacDecoderChannelInfo+0xb1>:
    5f89:	000000                                        ...

00005f8c <_Z16CPulseData_ApplyP10CPulseDataPKtPi>:
    5f8c:	004136        	entry	a1, 32
    5f8f:	000252        	l8ui	a5, a2, 0
    5f92:	020272        	l8ui	a7, a2, 2
    5f95:	010282        	l8ui	a8, a2, 1
    5f98:	85bc           	beqz.n	a5, 5fd4 <_Z16CPulseData_ApplyP10CPulseDataPKtPi+0x48>
    5f9a:	237700        	sext	a7, a7, 7
    5f9d:	907730        	addx2	a7, a7, a3
    5fa0:	477d           	ae_l16ui.n	a7, a7, 0
    5fa2:	2ee877        	bbsi	a8, 7, 5fd4 <_Z16CPulseData_ApplyP10CPulseDataPKtPi+0x48>
    5fa5:	030c           	movi.n	a3, 0

00005fa7 <_Z16CPulseData_ApplyP10CPulseDataPKtPi+0x1b>:
    5fa7:	832a           	add.n	a8, a3, a2
    5fa9:	030892        	l8ui	a9, a8, 3
    5fac:	070882        	l8ui	a8, a8, 7
    5faf:	239900        	sext	a9, a9, 7
    5fb2:	779a           	add.n	a7, a7, a9
    5fb4:	a09740        	addx4	a9, a7, a4
    5fb7:	0968           	l32i.n	a6, a9, 0
    5fb9:	331b           	addi.n	a3, a3, 1
    5fbb:	238800        	sext	a8, a8, 7
    5fbe:	0516e6        	bgei	a6, 1, 5fc7 <_Z16CPulseData_ApplyP10CPulseDataPKtPi+0x3b>
    5fc1:	c08680        	sub	a8, a6, a8
    5fc4:	000046        	j	5fc9 <_Z16CPulseData_ApplyP10CPulseDataPKtPi+0x3d>

00005fc7 <_Z16CPulseData_ApplyP10CPulseDataPKtPi+0x3b>:
    5fc7:	886a           	add.n	a8, a8, a6

00005fc9 <_Z16CPulseData_ApplyP10CPulseDataPKtPi+0x3d>:
    5fc9:	0989           	s32i.n	a8, a9, 0
    5fcb:	0102a2        	l8ui	a10, a2, 1
    5fce:	23aa00        	sext	a10, a10, 7
    5fd1:	d2aa37        	bge	a10, a3, 5fa7 <_Z16CPulseData_ApplyP10CPulseDataPKtPi+0x1b>
    5fd4:	f01d           	retw.n

00005fd6 <_Z16CPulseData_ApplyP10CPulseDataPKtPi+0x4a>:
	...

00005fd8 <tParseADIF>:
    5fd8:	008136        	entry	a1, 64
    5fdb:	850b           	addi.n	a8, a5, -1
    5fdd:	04dd           	mov.n	a13, a4
    5fdf:	31d9           	s32i.n	a13, a1, 12
    5fe1:	040c           	movi.n	a4, 0
    5fe3:	13f856        	bnez	a8, 6126 <tParseADIF+0x14e>
    5fe6:	e87d81        	l32r	a8, 1dc (6ae4 <InitBitParser>)
    5fe9:	02ad           	mov.n	a10, a2
    5feb:	04bd           	mov.n	a11, a4
    5fed:	0008e0        	callx8	a8
    5ff0:	01a9           	s32i.n	a10, a1, 0
    5ff2:	890c           	movi.n	a9, 8
    5ff4:	03b794        	ae_lb	a11, a9
    5ff7:	1c1a94        	ae_db	a10, a9
    5ffa:	01a9           	s32i.n	a10, a1, 0
    5ffc:	9bbd           	ae_zext16	a11, a11
    5ffe:	bfcbb2        	addi	a11, a11, -65
    6001:	18bb56        	bnez	a11, 6190 <tParseADIF+0x1b8>
    6004:	03c794        	ae_lb	a12, a9
    6007:	1c1a94        	ae_db	a10, a9
    600a:	01a9           	s32i.n	a10, a1, 0
    600c:	9ccd           	ae_zext16	a12, a12
    600e:	bcccc2        	addi	a12, a12, -68
    6011:	17bc56        	bnez	a12, 6190 <tParseADIF+0x1b8>
    6014:	03d794        	ae_lb	a13, a9
    6017:	1c1a94        	ae_db	a10, a9
    601a:	01a9           	s32i.n	a10, a1, 0
    601c:	9ddd           	ae_zext16	a13, a13
    601e:	b7cdd2        	addi	a13, a13, -73
    6021:	16bd56        	bnez	a13, 6190 <tParseADIF+0x1b8>
    6024:	03e794        	ae_lb	a14, a9
    6027:	1c1a94        	ae_db	a10, a9
    602a:	01a9           	s32i.n	a10, a1, 0
    602c:	9eed           	ae_zext16	a14, a14
    602e:	bacee2        	addi	a14, a14, -70
    6031:	15be56        	bnez	a14, 6190 <tParseADIF+0x1b8>
    6034:	180c           	movi.n	a8, 1
    6036:	03f784        	ae_lb	a15, a8
    6039:	1c1a84        	ae_db	a10, a8
    603c:	01a9           	s32i.n	a10, a1, 0
    603e:	0047f2        	s8i	a15, a7, 0
    6041:	74f0f0        	extui	a15, a15, 0, 8
    6044:	4f9c           	beqz.n	a15, 605c <tParseADIF+0x84>
    6046:	07ad           	mov.n	a10, a7
    6048:	9b0c           	movi.n	a11, 9
    604a:	0eab76        	loopgtz	a11, 605c <tParseADIF+0x84>
    604d:	01d8           	l32i.n	a13, a1, 0
    604f:	03c794        	ae_lb	a12, a9
    6052:	aa1b           	addi.n	a10, a10, 1
    6054:	1c1d94        	ae_db	a13, a9
    6057:	01d9           	s32i.n	a13, a1, 0
    6059:	004ac2        	s8i	a12, a10, 0

0000605c <tParseADIF+0x84>:
    605c:	01a8           	l32i.n	a10, a1, 0
    605e:	1e0c           	movi.n	a14, 1
    6060:	0397e4        	ae_lb	a9, a14
    6063:	1c1ae4        	ae_db	a10, a14
    6066:	01a9           	s32i.n	a10, a1, 0
    6068:	0a4792        	s8i	a9, a7, 10
    606b:	0188           	l32i.n	a8, a1, 0
    606d:	4b0c           	movi.n	a11, 4
    606f:	03f7e4        	ae_lb	a15, a14
    6072:	1c18e4        	ae_db	a8, a14
    6075:	0189           	s32i.n	a8, a1, 0
    6077:	0b47f2        	s8i	a15, a7, 11
    607a:	01c8           	l32i.n	a12, a1, 0
    607c:	7d0c           	movi.n	a13, 7
    607e:	03a7e4        	ae_lb	a10, a14
    6081:	1c1ce4        	ae_db	a12, a14
    6084:	0397d4        	ae_lb	a9, a13
    6087:	01c9           	s32i.n	a12, a1, 0
    6089:	0c47a2        	s8i	a10, a7, 12
    608c:	0188           	l32i.n	a8, a1, 0
    608e:	0c1c           	movi.n	a12, 16
    6090:	999d           	ae_zext16	a9, a9
    6092:	1c18d4        	ae_db	a8, a13
    6095:	03a7c4        	ae_lb	a10, a12
    6098:	0189           	s32i.n	a8, a1, 0
    609a:	1c18c4        	ae_db	a8, a12
    609d:	0189           	s32i.n	a8, a1, 0
    609f:	03f7b4        	ae_lb	a15, a11
    60a2:	9aad           	ae_zext16	a10, a10
    60a4:	11aa90        	slli	a10, a10, 7
    60a7:	2099a0        	or	a9, a9, a10
    60aa:	ff1b           	addi.n	a15, a15, 1
    60ac:	4799           	s32i.n	a9, a7, 16
    60ae:	1c18b4        	ae_db	a8, a11
    60b1:	0189           	s32i.n	a8, a1, 0
    60b3:	0c07e2        	l8ui	a14, a7, 12
    60b6:	1447f2        	s8i	a15, a7, 20
    60b9:	6749           	s32i.n	a4, a7, 24
    60bb:	cedc           	bnez.n	a14, 60db <tParseADIF+0x103>
    60bd:	03d7b4        	ae_lb	a13, a11
    60c0:	01f8           	l32i.n	a15, a1, 0
    60c2:	9ddd           	ae_zext16	a13, a13
    60c4:	1c1fb4        	ae_db	a15, a11
    60c7:	01f9           	s32i.n	a15, a1, 0
    60c9:	03e7c4        	ae_lb	a14, a12
    60cc:	1c1fc4        	ae_db	a15, a12
    60cf:	01f9           	s32i.n	a15, a1, 0
    60d1:	9eed           	ae_zext16	a14, a14
    60d3:	11eec0        	slli	a14, a14, 4
    60d6:	20dde0        	or	a13, a13, a14
    60d9:	67d9           	s32i.n	a13, a7, 24

000060db <tParseADIF+0x103>:
    60db:	e84181        	l32r	a8, 1e0 (6854 <tScanPCEFromBitstream>)
    60de:	01ad           	mov.n	a10, a1
    60e0:	1cc7b2        	addi	a11, a7, 28
    60e3:	0008e0        	callx8	a8
    60e6:	0a5d           	mov.n	a5, a10
    60e8:	e83f81        	l32r	a8, 1e4 (6ac0 <ByteAlignHW>)
    60eb:	21a9           	s32i.n	a10, a1, 8
    60ed:	01ad           	mov.n	a10, a1
    60ef:	0008e0        	callx8	a8
    60f2:	e83d81        	l32r	a8, 1e8 (6a98 <TerminateBitParser>)
    60f5:	01a8           	l32i.n	a10, a1, 0
    60f7:	b14b           	addi.n	a11, a1, 4
    60f9:	0008e0        	callx8	a8
    60fc:	21b8           	l32i.n	a11, a1, 8
    60fe:	8bcc           	bnez.n	a11, 610a <tParseADIF+0x132>
    6100:	150c           	movi.n	a5, 1
    6102:	c09a20        	sub	a9, a10, a2
    6105:	013397        	bltu	a3, a9, 610a <tParseADIF+0x132>
    6108:	0b5d           	mov.n	a5, a11
    610a:	0af556        	bnez	a5, 61bd <tParseADIF+0x1e5>
    610d:	1407d2        	l8ui	a13, a7, 20
    6110:	3b0c           	movi.n	a11, 3
    6112:	1c0c           	movi.n	a12, 1
    6114:	c0ccd0        	sub	a12, a12, a13
    6117:	a35bc0        	movltz	a5, a11, a12
    611a:	09f556        	bnez	a5, 61bd <tParseADIF+0x1e5>
    611d:	c09a20        	sub	a9, a10, a2
    6120:	1199d0        	slli	a9, a9, 3
    6123:	001d46        	j	619c <tParseADIF+0x1c4>

00006126 <tParseADIF+0x14e>:
    6126:	045d           	mov.n	a5, a4

00006128 <tParseADIF+0x150>:
    6128:	e83181        	l32r	a8, 1ec (680c <tNCCFromPCE>)
    612b:	1cc7a2        	addi	a10, a7, 28
    612e:	41a9           	s32i.n	a10, a1, 16
    6130:	0008e0        	callx8	a8
    6133:	112192        	l32i	a9, a1, 68
    6136:	3ca9a7        	bge	a9, a10, 6176 <tParseADIF+0x19e>
    6139:	320c           	movi.n	a2, 3
    613b:	f01d           	retw.n

0000613d <tParseADIF+0x165>:
    613d:	3629           	s32i.n	a2, a6, 12
    613f:	4639           	s32i.n	a3, a6, 16
    6141:	025642        	s16i	a4, a6, 4
    6144:	8649           	s32i.n	a4, a6, 32
    6146:	5649           	s32i.n	a4, a6, 20
    6148:	6649           	s32i.n	a4, a6, 24
    614a:	06a8           	l32i.n	a10, a6, 0
    614c:	1e07b2        	l8ui	a11, a7, 30
    614f:	2b07c2        	l8ui	a12, a7, 43
    6152:	e82781        	l32r	a8, 1f0 (67d0 <tInitDefaultASC>)
    6155:	190c           	movi.n	a9, 1
    6157:	7699           	s32i.n	a9, a6, 28
    6159:	0008e0        	callx8	a8
    615c:	1cc7b2        	addi	a11, a7, 28
    615f:	06a8           	l32i.n	a10, a6, 0
    6161:	e7e181        	l32r	a8, e8 (418 <memcpy>)
    6164:	04a1c2        	movi	a12, 0x104
    6167:	20caa2        	addi	a10, a10, 32
    616a:	0008e0        	callx8	a8
    616d:	1021b2        	l32i	a11, a1, 64
    6170:	020c           	movi.n	a2, 0
    6172:	0b59           	s32i.n	a5, a11, 0
    6174:	f01d           	retw.n

00006176 <tParseADIF+0x19e>:
    6176:	e81d81        	l32r	a8, 1ec (680c <tNCCFromPCE>)
    6179:	41a8           	l32i.n	a10, a1, 16
    617b:	0008e0        	callx8	a8
    617e:	909aa0        	addx2	a9, a10, a10
    6181:	119980        	slli	a9, a9, 8
    6184:	b5a397        	bge	a3, a9, 613d <tParseADIF+0x165>
    6187:	31a8           	l32i.n	a10, a1, 12
    6189:	fb0a56        	bnez	a10, 613d <tParseADIF+0x165>
    618c:	120c           	movi.n	a2, 1
    618e:	f01d           	retw.n

00006190 <tParseADIF+0x1b8>:
    6190:	e81681        	l32r	a8, 1e8 (6a98 <TerminateBitParser>)
    6193:	b14b           	addi.n	a11, a1, 4
    6195:	0008e0        	callx8	a8
    6198:	750c           	movi.n	a5, 7
    619a:	090c           	movi.n	a9, 0

0000619c <tParseADIF+0x1c4>:
    619c:	259c           	beqz.n	a5, 61b2 <tParseADIF+0x1da>
    619e:	052d           	mov.n	a2, a5
    61a0:	054526        	beqi	a5, 4, 61a9 <tParseADIF+0x1d1>
    61a3:	023526        	beqi	a5, 3, 61a9 <tParseADIF+0x1d1>
    61a6:	067566        	bnei	a5, 7, 61b0 <tParseADIF+0x1d8>
    61a9:	1021a2        	l32i	a10, a1, 64
    61ac:	190c           	movi.n	a9, 1
    61ae:	0a99           	s32i.n	a9, a10, 0

000061b0 <tParseADIF+0x1d8>:
    61b0:	f01d           	retw.n

000061b2 <tParseADIF+0x1da>:
    61b2:	415390        	srli	a5, a9, 3
    61b5:	c03350        	sub	a3, a3, a5
    61b8:	252a           	add.n	a2, a5, a2
    61ba:	ffda86        	j	6128 <tParseADIF+0x150>

000061bd <tParseADIF+0x1e5>:
    61bd:	090c           	movi.n	a9, 0
    61bf:	fff646        	j	619c <tParseADIF+0x1c4>

000061c2 <tParseADIF+0x1ea>:
	...

000061c4 <tParseADTS>:
    61c4:	01a136        	entry	a1, 208
    61c7:	296132        	s32i	a3, a1, 164
    61ca:	2a6152        	s32i	a5, a1, 168
    61cd:	07dd           	mov.n	a13, a7
    61cf:	a80c           	movi.n	a8, 10
    61d1:	04fd           	mov.n	a15, a4
    61d3:	1c0c           	movi.n	a12, 1
    61d5:	2861c2        	s32i	a12, a1, 160
    61d8:	2b61f2        	s32i	a15, a1, 172
    61db:	040c           	movi.n	a4, 0
    61dd:	3749           	s32i.n	a4, a7, 12
    61df:	4749           	s32i.n	a4, a7, 16
    61e1:	5749           	s32i.n	a4, a7, 20
    61e3:	6749           	s32i.n	a4, a7, 24
    61e5:	492837        	blt	a8, a3, 6232 <tParseADTS+0x6e>
    61e8:	045d           	mov.n	a5, a4
    61ea:	0c2d           	mov.n	a2, a12
    61ec:	286122        	s32i	a2, a1, 160
    61ef:	000046        	j	61f4 <tParseADTS+0x30>

000061f2 <tParseADTS+0x2e>:
    61f2:	220c           	movi.n	a2, 2

000061f4 <tParseADTS+0x30>:
    61f4:	920b           	addi.n	a9, a2, -1
    61f6:	14f916        	beqz	a9, 6349 <tParseADTS+0x185>
    61f9:	1b2226        	beqi	a2, 2, 6218 <tParseADTS+0x54>
    61fc:	1b4226        	beqi	a2, 4, 621b <tParseADTS+0x57>
    61ff:	fbc2a2        	addi	a10, a2, -5
    6202:	152a16        	beqz	a10, 6358 <tParseADTS+0x194>
    6205:	22dc           	bnez.n	a2, 621b <tParseADTS+0x57>
    6207:	2a21b2        	l32i	a11, a1, 168
    620a:	2bec           	bnez.n	a11, 6230 <tParseADTS+0x6c>
    620c:	3421c2        	l32i	a12, a1, 208
    620f:	3521d2        	l32i	a13, a1, 212
    6212:	6cc8           	l32i.n	a12, a12, 24
    6214:	0dc9           	s32i.n	a12, a13, 0
    6216:	f01d           	retw.n

00006218 <tParseADTS+0x54>:
    6218:	286152        	s32i	a5, a1, 160

0000621b <tParseADTS+0x57>:
    621b:	342192        	l32i	a9, a1, 208
    621e:	144942        	s8i	a4, a9, 20
    6221:	352182        	l32i	a8, a1, 212
    6224:	2821f2        	l32i	a15, a1, 160
    6227:	08f9           	s32i.n	a15, a8, 0
    6229:	f01d           	retw.n

0000622b <tParseADTS+0x67>:
    622b:	2921a2        	l32i	a10, a1, 164
    622e:	0ba9           	s32i.n	a10, a11, 0

00006230 <tParseADTS+0x6c>:
    6230:	f01d           	retw.n

00006232 <tParseADTS+0x6e>:
    6232:	045d           	mov.n	a5, a4
    6234:	266122        	s32i	a2, a1, 152
    6237:	276162        	s32i	a6, a1, 156
    623a:	2561d2        	s32i	a13, a1, 148
    623d:	f6c372        	addi	a7, a3, -10
    6240:	e7ed31        	l32r	a3, 1f4 (fff <_Z26CLongBlock_FrequencyToTimeP28CAacDecoderStaticChannelInfoP22CAacDecoderChannelInfoP5fractiiiS4_+0x153>)

00006243 <tParseADTS+0x7f>:
    6243:	0149           	s32i.n	a4, a1, 0
    6245:	e7e581        	l32r	a8, 1dc (6ae4 <InitBitParser>)
    6248:	02ad           	mov.n	a10, a2
    624a:	0b0c           	movi.n	a11, 0
    624c:	0008e0        	callx8	a8
    624f:	01bd           	mov.n	a11, a1
    6251:	c90c           	movi.n	a9, 12
    6253:	e7e581        	l32r	a8, 1e8 (6a98 <TerminateBitParser>)
    6256:	036794        	ae_lb	a6, a9
    6259:	1c1a94        	ae_db	a10, a9
    625c:	0008e0        	callx8	a8
    625f:	96ad           	ae_zext16	a10, a6
    6261:	c0aa30        	sub	a10, a10, a3
    6264:	0dca16        	beqz	a10, 6344 <tParseADTS+0x180>
    6267:	221b           	addi.n	a2, a2, 1
    6269:	551b           	addi.n	a5, a5, 1
    626b:	d49757        	bne	a7, a5, 6243 <tParseADTS+0x7f>
    626e:	090c           	movi.n	a9, 0

00006270 <tParseADTS+0xac>:
    6270:	f7e916        	beqz	a9, 61f2 <tParseADTS+0x2e>
    6273:	f7b556        	bnez	a5, 61f2 <tParseADTS+0x2e>
    6276:	a14b           	addi.n	a10, a1, 4
    6278:	342162        	l32i	a6, a1, 208
    627b:	e79b81        	l32r	a8, e8 (418 <memcpy>)
    627e:	4c3c           	movi.n	a12, 52
    6280:	06bd           	mov.n	a11, a6
    6282:	0008e0        	callx8	a8
    6285:	e149           	s32i.n	a4, a1, 56
    6287:	2621a2        	l32i	a10, a1, 152
    628a:	0b0c           	movi.n	a11, 0
    628c:	2a2192        	l32i	a9, a1, 168
    628f:	e7d381        	l32r	a8, 1dc (6ae4 <InitBitParser>)
    6292:	214b           	addi.n	a2, a1, 4
    6294:	932690        	movnez	a2, a6, a9
    6297:	0008e0        	callx8	a8
    629a:	1c0c           	movi.n	a12, 1
    629c:	0b0c           	movi.n	a11, 0
    629e:	2821f2        	l32i	a15, a1, 160
    62a1:	c90c           	movi.n	a9, 12
    62a3:	1c1a94        	ae_db	a10, a9
    62a6:	2e0c           	movi.n	a14, 2
    62a8:	0387f4        	ae_lb	a8, a15
    62ab:	1c1af4        	ae_db	a10, a15
    62ae:	0377e4        	ae_lb	a7, a14
    62b1:	004282        	s8i	a8, a2, 0
    62b4:	1c1ae4        	ae_db	a10, a14
    62b7:	03d7f4        	ae_lb	a13, a15
    62ba:	014272        	s8i	a7, a2, 1
    62bd:	1c1af4        	ae_db	a10, a15
    62c0:	9ddd           	ae_zext16	a13, a13
    62c2:	0397e4        	ae_lb	a9, a14
    62c5:	83bcd0        	moveqz	a11, a12, a13
    62c8:	4d0c           	movi.n	a13, 4
    62ca:	0242b2        	s8i	a11, a2, 2
    62cd:	1c1ae4        	ae_db	a10, a14
    62d0:	0387d4        	ae_lb	a8, a13
    62d3:	034292        	s8i	a9, a2, 3
    62d6:	1c1ad4        	ae_db	a10, a13
    62d9:	0377f4        	ae_lb	a7, a15
    62dc:	044282        	s8i	a8, a2, 4
    62df:	1c1af4        	ae_db	a10, a15
    62e2:	054272        	s8i	a7, a2, 5
    62e5:	370c           	movi.n	a7, 3
    62e7:	03c774        	ae_lb	a12, a7
    62ea:	1c1a74        	ae_db	a10, a7
    62ed:	03b7f4        	ae_lb	a11, a15
    62f0:	0642c2        	s8i	a12, a2, 6
    62f3:	1c1af4        	ae_db	a10, a15
    62f6:	0742b2        	s8i	a11, a2, 7
    62f9:	0397f4        	ae_lb	a9, a15
    62fc:	db0c           	movi.n	a11, 13
    62fe:	1c1af4        	ae_db	a10, a15
    6301:	0387f4        	ae_lb	a8, a15
    6304:	084292        	s8i	a9, a2, 8
    6307:	1c1af4        	ae_db	a10, a15
    630a:	094282        	s8i	a8, a2, 9
    630d:	03c7f4        	ae_lb	a12, a15
    6310:	b80c           	movi.n	a8, 11
    6312:	1c1af4        	ae_db	a10, a15
    6315:	0a42c2        	s8i	a12, a2, 10
    6318:	0397b4        	ae_lb	a9, a11
    631b:	1c1ab4        	ae_db	a10, a11
    631e:	0202b2        	l8ui	a11, a2, 2
    6321:	03f784        	ae_lb	a15, a8
    6324:	999d           	ae_zext16	a9, a9
    6326:	6299           	s32i.n	a9, a2, 24
    6328:	1c1a84        	ae_db	a10, a8
    632b:	03c7e4        	ae_lb	a12, a14
    632e:	9ffd           	ae_zext16	a15, a15
    6330:	72f9           	s32i.n	a15, a2, 28
    6332:	1c1ae4        	ae_db	a10, a14
    6335:	f1a9           	s32i.n	a10, a1, 60
    6337:	9ccd           	ae_zext16	a12, a12
    6339:	cc1b           	addi.n	a12, a12, 1
    633b:	82c9           	s32i.n	a12, a2, 32
    633d:	fbdc           	bnez.n	a11, 6360 <tParseADTS+0x19c>
    633f:	0c0c           	movi.n	a12, 0
    6341:	000946        	j	636a <tParseADTS+0x1a6>

00006344 <tParseADTS+0x180>:
    6344:	190c           	movi.n	a9, 1
    6346:	ffc986        	j	6270 <tParseADTS+0xac>

00006349 <tParseADTS+0x185>:
    6349:	2b21a2        	l32i	a10, a1, 172
    634c:	3521b2        	l32i	a11, a1, 212
    634f:	620c           	movi.n	a2, 6
    6351:	ed6a56        	bnez	a10, 622b <tParseADTS+0x67>
    6354:	120c           	movi.n	a2, 1
    6356:	f01d           	retw.n

00006358 <tParseADTS+0x194>:
    6358:	3421b2        	l32i	a11, a1, 208
    635b:	144b42        	s8i	a4, a11, 20
    635e:	f01d           	retw.n

00006360 <tParseADTS+0x19c>:
    6360:	0f1c           	movi.n	a15, 16
    6362:	03c7f4        	ae_lb	a12, a15
    6365:	1c1af4        	ae_db	a10, a15
    6368:	f1a9           	s32i.n	a10, a1, 60

0000636a <tParseADTS+0x1a6>:
    636a:	e79f81        	l32r	a8, 1e8 (6a98 <TerminateBitParser>)
    636d:	1252c2        	s16i	a12, a2, 36
    6370:	38c1b2        	addi	a11, a1, 56
    6373:	0008e0        	callx8	a8
    6376:	62c8           	l32i.n	a12, a2, 24
    6378:	2461a2        	s32i	a10, a1, 144
    637b:	3ccc           	bnez.n	a12, 6382 <tParseADTS+0x1be>
    637d:	490c           	movi.n	a9, 4
    637f:	0004c6        	j	6396 <tParseADTS+0x1d2>

00006382 <tParseADTS+0x1be>:
    6382:	292192        	l32i	a9, a1, 164
    6385:	04a9c7        	bge	a9, a12, 638d <tParseADTS+0x1c9>
    6388:	190c           	movi.n	a9, 1
    638a:	000206        	j	6396 <tParseADTS+0x1d2>

0000638d <tParseADTS+0x1c9>:
    638d:	82a8           	l32i.n	a10, a2, 32
    638f:	079d           	mov.n	a9, a7
    6391:	012af6        	bgeui	a10, 2, 6396 <tParseADTS+0x1d2>
    6394:	049d           	mov.n	a9, a4
    6396:	980c           	movi.n	a8, 9
    6398:	0202a2        	l8ui	a10, a2, 2
    639b:	770c           	movi.n	a7, 7
    639d:	092d           	mov.n	a2, a9
    639f:	9378a0        	movnez	a7, a8, a10
    63a2:	c07c70        	sub	a7, a12, a7
    63a5:	1177d0        	slli	a7, a7, 3
    63a8:	062956        	bnez	a9, 640e <tParseADTS+0x24a>
    63ab:	2a21b2        	l32i	a11, a1, 168
    63ae:	c14b           	addi.n	a12, a1, 4
    63b0:	93c6b0        	movnez	a12, a6, a11
    63b3:	060c92        	l8ui	a9, a12, 6
    63b6:	39cc           	bnez.n	a9, 63bd <tParseADTS+0x1f9>
    63b8:	8d0c           	movi.n	a13, 8
    63ba:	0001c6        	j	63c5 <tParseADTS+0x201>

000063bd <tParseADTS+0x1f9>:
    63bd:	e78ed1        	l32r	a13, 1f8 (f060 <channelConfig2NCC>)
    63c0:	d9da           	add.n	a13, a9, a13
    63c2:	000dd2        	l8ui	a13, a13, 0

000063c5 <tParseADTS+0x201>:
    63c5:	cf3c           	movi.n	a15, 60
    63c7:	8b4c           	movi.n	a11, 72
    63c9:	883c           	movi.n	a8, 56
    63cb:	6ce8           	l32i.n	a14, a12, 24
    63cd:	020ca2        	l8ui	a10, a12, 2
    63d0:	909dd0        	addx2	a9, a13, a13
    63d3:	11eed0        	slli	a14, a14, 3
    63d6:	1d0c           	movi.n	a13, 1
    63d8:	119950        	slli	a9, a9, 11
    63db:	93ada0        	movnez	a10, a13, a10
    63de:	938ba0        	movnez	a8, a11, a10
    63e1:	889a           	add.n	a8, a8, a9
    63e3:	c94c           	movi.n	a9, 76
    63e5:	93f9a0        	movnez	a15, a9, a10
    63e8:	0238e7        	bltu	a8, a14, 63ee <tParseADTS+0x22a>
    63eb:	013fe7        	bltu	a15, a14, 63f0 <tParseADTS+0x22c>

000063ee <tParseADTS+0x22a>:
    63ee:	0d0c           	movi.n	a13, 0
    63f0:	4a0c           	movi.n	a10, 4
    63f2:	1f0c           	movi.n	a15, 1
    63f4:	040ce2        	l8ui	a14, a12, 4
    63f7:	0b0c           	movi.n	a11, 0
    63f9:	010c82        	l8ui	a8, a12, 1
    63fc:	f4cee2        	addi	a14, a14, -12
    63ff:	05efe0        	extui	a14, a14, 31, 1
    6402:	83bf80        	moveqz	a11, a15, a8
    6405:	10bdb0        	and	a11, a13, a11
    6408:	10bbe0        	and	a11, a11, a14
    640b:	832ab0        	moveqz	a2, a10, a11
    640e:	82fc           	bnez.n	a2, 644a <tParseADTS+0x286>
    6410:	2a2192        	l32i	a9, a1, 168
    6413:	99fc           	bnez.n	a9, 6450 <tParseADTS+0x28c>
    6415:	0801e2        	l8ui	a14, a1, 8
    6418:	0406b2        	l8ui	a11, a6, 4
    641b:	0a01f2        	l8ui	a15, a1, 10
    641e:	050122        	l8ui	a2, a1, 5
    6421:	070182        	l8ui	a8, a1, 7
    6424:	0306c2        	l8ui	a12, a6, 3
    6427:	0106a2        	l8ui	a10, a6, 1
    642a:	0606d2        	l8ui	a13, a6, 6
    642d:	30cc80        	xor	a12, a12, a8
    6430:	30aa20        	xor	a10, a10, a2
    6433:	30ddf0        	xor	a13, a13, a15
    6436:	30bbe0        	xor	a11, a11, a14
    6439:	20bbd0        	or	a11, a11, a13
    643c:	20aac0        	or	a10, a10, a12
    643f:	20aab0        	or	a10, a10, a11
    6442:	158a56        	bnez	a10, 659e <tParseADTS+0x3da>
    6445:	020c           	movi.n	a2, 0
    6447:	001886        	j	64ad <tParseADTS+0x2e9>

0000644a <tParseADTS+0x286>:
    644a:	144642        	s8i	a4, a6, 20
    644d:	ff68c6        	j	61f4 <tParseADTS+0x30>

00006450 <tParseADTS+0x28c>:
    6450:	272192        	l32i	a9, a1, 156
    6453:	66c8           	l32i.n	a12, a6, 24
    6455:	19dc           	bnez.n	a9, 646a <tParseADTS+0x2a6>
    6457:	2921a2        	l32i	a10, a1, 164
    645a:	022ac7        	blt	a10, a12, 6460 <tParseADTS+0x29c>
    645d:	005b86        	j	65cf <tParseADTS+0x40b>
    6460:	2b21b2        	l32i	a11, a1, 172
    6463:	1b9c           	beqz.n	a11, 6478 <tParseADTS+0x2b4>

00006465 <tParseADTS+0x2a1>:
    6465:	420c           	movi.n	a2, 4
    6467:	001086        	j	64ad <tParseADTS+0x2e9>

0000646a <tParseADTS+0x2a6>:
    646a:	2921d2        	l32i	a13, a1, 164
    646d:	ec2b           	addi.n	a14, a12, 2
    646f:	0aade7        	bge	a13, a14, 647d <tParseADTS+0x2b9>
    6472:	2b21f2        	l32i	a15, a1, 172
    6475:	fecf56        	bnez	a15, 6465 <tParseADTS+0x2a1>

00006478 <tParseADTS+0x2b4>:
    6478:	120c           	movi.n	a2, 1
    647a:	000bc6        	j	64ad <tParseADTS+0x2e9>

0000647d <tParseADTS+0x2b9>:
    647d:	2621a2        	l32i	a10, a1, 152
    6480:	e75781        	l32r	a8, 1dc (6ae4 <InitBitParser>)
    6483:	0b0c           	movi.n	a11, 0
    6485:	acaa           	add.n	a10, a12, a10
    6487:	0008e0        	callx8	a8
    648a:	e75781        	l32r	a8, 1e8 (6a98 <TerminateBitParser>)
    648d:	7fc1b2        	addi	a11, a1, 127
    6490:	cc0c           	movi.n	a12, 12
    6492:	0327c4        	ae_lb	a2, a12
    6495:	bb1b           	addi.n	a11, a11, 1
    6497:	1c1ac4        	ae_db	a10, a12
    649a:	1f61a2        	s32i	a10, a1, 124
    649d:	0008e0        	callx8	a8
    64a0:	180c           	movi.n	a8, 1
    64a2:	922d           	ae_zext16	a2, a2
    64a4:	c02230        	sub	a2, a2, a3
    64a7:	932820        	movnez	a2, a8, a2
    64aa:	1122e0        	slli	a2, a2, 2

000064ad <tParseADTS+0x2e9>:
    64ad:	f99256        	bnez	a2, 644a <tParseADTS+0x286>
    64b0:	2a2182        	l32i	a8, a1, 168
    64b3:	a8cc           	bnez.n	a8, 64c1 <tParseADTS+0x2fd>
    64b5:	06ad           	mov.n	a10, a6
    64b7:	e70c81        	l32r	a8, e8 (418 <memcpy>)
    64ba:	b14b           	addi.n	a11, a1, 4
    64bc:	4c3c           	movi.n	a12, 52
    64be:	0008e0        	callx8	a8

000064c1 <tParseADTS+0x2fd>:
    64c1:	0a0692        	l8ui	a9, a6, 10
    64c4:	69cc           	bnez.n	a9, 64ce <tParseADTS+0x30a>
    64c6:	1406a2        	l8ui	a10, a6, 20
    64c9:	05ba16        	beqz	a10, 6528 <tParseADTS+0x364>
    64cc:	d98c           	beqz.n	a9, 64dd <tParseADTS+0x319>

000064ce <tParseADTS+0x30a>:
    64ce:	144642        	s8i	a4, a6, 20
    64d1:	a6bb           	addi.n	a10, a6, 11
    64d3:	e70981        	l32r	a8, f8 (9db0 <__vec_memset>)
    64d6:	0b0c           	movi.n	a11, 0
    64d8:	9c0c           	movi.n	a12, 9
    64da:	0008e0        	callx8	a8

000064dd <tParseADTS+0x319>:
    64dd:	1406d2        	l8ui	a13, a6, 20
    64e0:	41d3d0        	srli	a13, a13, 3
    64e3:	d6da           	add.n	a13, a6, a13
    64e5:	0b0dc2        	l8ui	a12, a13, 11
    64e8:	11ccf0        	slli	a12, a12, 1
    64eb:	0b4dc2        	s8i	a12, a13, 11
    64ee:	1406b2        	l8ui	a11, a6, 20
    64f1:	0906a2        	l8ui	a10, a6, 9
    64f4:	41b3b0        	srli	a11, a11, 3
    64f7:	b6ba           	add.n	a11, a6, a11
    64f9:	0b0bc2        	l8ui	a12, a11, 11
    64fc:	20aac0        	or	a10, a10, a12
    64ff:	0b4ba2        	s8i	a10, a11, 11
    6502:	140692        	l8ui	a9, a6, 20
    6505:	8a4c           	movi.n	a10, 72
    6507:	991b           	addi.n	a9, a9, 1
    6509:	749090        	extui	a9, a9, 0, 8
    650c:	144692        	s8i	a9, a6, 20
    650f:	1599a7        	bne	a9, a10, 6528 <tParseADTS+0x364>
    6512:	144642        	s8i	a4, a6, 20
    6515:	28c6a2        	addi	a10, a6, 40
    6518:	b6bb           	addi.n	a11, a6, 11
    651a:	9c0c           	movi.n	a12, 9
    651c:	e6f381        	l32r	a8, e8 (418 <memcpy>)
    651f:	282192        	l32i	a9, a1, 160
    6522:	274692        	s8i	a9, a6, 39
    6525:	0008e0        	callx8	a8
    6528:	2521b2        	l32i	a11, a1, 148
    652b:	0206a2        	l8ui	a10, a6, 2
    652e:	025ba2        	s16i	a10, a11, 4
    6531:	fabc           	beqz.n	a10, 6574 <tParseADTS+0x3b0>
    6533:	0b0c           	movi.n	a11, 0
    6535:	0c0c           	movi.n	a12, 0
    6537:	e73181        	l32r	a8, 1fc (67b0 <startCRCRegion>)
    653a:	7fc1a2        	addi	a10, a1, 127
    653d:	aa5b           	addi.n	a10, a10, 5
    653f:	0008e0        	callx8	a8
    6542:	8b3c           	movi.n	a11, 56
    6544:	e730c1        	l32r	a12, 204 (ffff <channelConfig2NCC+0xf9f>)
    6547:	e72e81        	l32r	a8, 200 (67a0 <stopCRCRegion>)
    654a:	7fc1a2        	addi	a10, a1, 127
    654d:	aa5b           	addi.n	a10, a10, 5
    654f:	0008e0        	callx8	a8
    6552:	2621a2        	l32i	a10, a1, 152
    6555:	2921b2        	l32i	a11, a1, 164
    6558:	1d0c           	movi.n	a13, 1
    655a:	e72ae1        	l32r	a14, 204 (ffff <channelConfig2NCC+0xf9f>)
    655d:	e72a81        	l32r	a8, 208 (66c8 <calcCRC>)
    6560:	7fc1c2        	addi	a12, a1, 127
    6563:	cc5b           	addi.n	a12, a12, 5
    6565:	0008e0        	callx8	a8
    6568:	2521e2        	l32i	a14, a1, 148
    656b:	1216d2        	l16ui	a13, a6, 36
    656e:	045ea2        	s16i	a10, a14, 8
    6571:	035ed2        	s16i	a13, a14, 6

00006574 <tParseADTS+0x3b0>:
    6574:	0406b2        	l8ui	a11, a6, 4
    6577:	2521a2        	l32i	a10, a1, 148
    657a:	e71d81        	l32r	a8, 1f0 (67d0 <tInitDefaultASC>)
    657d:	0606c2        	l8ui	a12, a6, 6
    6580:	0aa8           	l32i.n	a10, a10, 0
    6582:	0008e0        	callx8	a8
    6585:	2821c2        	l32i	a12, a1, 160
    6588:	2521b2        	l32i	a11, a1, 148
    658b:	21d370        	srai	a13, a7, 3
    658e:	2421e2        	l32i	a14, a1, 144
    6591:	3be9           	s32i.n	a14, a11, 12
    6593:	4bd9           	s32i.n	a13, a11, 16
    6595:	7bc9           	s32i.n	a12, a11, 28
    6597:	8b49           	s32i.n	a4, a11, 32
    6599:	5b49           	s32i.n	a4, a11, 20
    659b:	ff1546        	j	61f4 <tParseADTS+0x30>

0000659e <tParseADTS+0x3da>:
    659e:	2721f2        	l32i	a15, a1, 156
    65a1:	ef8c           	beqz.n	a15, 65b3 <tParseADTS+0x3ef>
    65a3:	71c8           	l32i.n	a12, a1, 28
    65a5:	292182        	l32i	a8, a1, 164
    65a8:	9c9b           	addi.n	a9, a12, 9
    65aa:	26a897        	bge	a8, a9, 65d4 <tParseADTS+0x410>
    65ad:	2b21a2        	l32i	a10, a1, 172
    65b0:	0e3a16        	beqz	a10, 6697 <tParseADTS+0x4d3>

000065b3 <tParseADTS+0x3ef>:
    65b3:	420c           	movi.n	a2, 4
    65b5:	ffbd06        	j	64ad <tParseADTS+0x2e9>

000065b8 <tParseADTS+0x3f4>:
    65b8:	130c           	movi.n	a3, 1

000065ba <tParseADTS+0x3f6>:
    65ba:	e70b81        	l32r	a8, 1e8 (6a98 <TerminateBitParser>)
    65bd:	02ad           	mov.n	a10, a2
    65bf:	78c1b2        	addi	a11, a1, 120
    65c2:	0008e0        	callx8	a8
    65c5:	490c           	movi.n	a9, 4
    65c7:	520c           	movi.n	a2, 5
    65c9:	932930        	movnez	a2, a9, a3
    65cc:	ffb746        	j	64ad <tParseADTS+0x2e9>

000065cf <tParseADTS+0x40b>:
    65cf:	020c           	movi.n	a2, 0
    65d1:	ffb606        	j	64ad <tParseADTS+0x2e9>

000065d4 <tParseADTS+0x410>:
    65d4:	2621a2        	l32i	a10, a1, 152
    65d7:	e70181        	l32r	a8, 1dc (6ae4 <InitBitParser>)
    65da:	0b0c           	movi.n	a11, 0
    65dc:	aaca           	add.n	a10, a10, a12
    65de:	0008e0        	callx8	a8
    65e1:	0a2d           	mov.n	a2, a10
    65e3:	cc0c           	movi.n	a12, 12
    65e5:	03b7c4        	ae_lb	a11, a12
    65e8:	1c12c4        	ae_db	a2, a12
    65eb:	106122        	s32i	a2, a1, 64
    65ee:	9bbd           	ae_zext16	a11, a11
    65f0:	c49b37        	bne	a11, a3, 65b8 <tParseADTS+0x3f4>
    65f3:	4b0c           	movi.n	a11, 4
    65f5:	282192        	l32i	a9, a1, 160
    65f8:	2d0c           	movi.n	a13, 2
    65fa:	03a794        	ae_lb	a10, a9
    65fd:	1c1294        	ae_db	a2, a9
    6600:	4441a2        	s8i	a10, a1, 68
    6603:	0387d4        	ae_lb	a8, a13
    6606:	1c12d4        	ae_db	a2, a13
    6609:	454182        	s8i	a8, a1, 69
    660c:	03e794        	ae_lb	a14, a9
    660f:	1c1294        	ae_db	a2, a9
    6612:	03f7d4        	ae_lb	a15, a13
    6615:	9eed           	ae_zext16	a14, a14
    6617:	4741f2        	s8i	a15, a1, 71
    661a:	3f0c           	movi.n	a15, 3
    661c:	1c12d4        	ae_db	a2, a13
    661f:	03c7b4        	ae_lb	a12, a11
    6622:	1d0c           	movi.n	a13, 1
    6624:	4841c2        	s8i	a12, a1, 72
    6627:	0c0c           	movi.n	a12, 0
    6629:	1c12b4        	ae_db	a2, a11
    662c:	03a794        	ae_lb	a10, a9
    662f:	83cde0        	moveqz	a12, a13, a14
    6632:	4641c2        	s8i	a12, a1, 70
    6635:	4941a2        	s8i	a10, a1, 73
    6638:	1c1294        	ae_db	a2, a9
    663b:	0387f4        	ae_lb	a8, a15
    663e:	4a4182        	s8i	a8, a1, 74
    6641:	e6e981        	l32r	a8, 1e8 (6a98 <TerminateBitParser>)
    6644:	1c12f4        	ae_db	a2, a15
    6647:	03b794        	ae_lb	a11, a9
    664a:	4b41b2        	s8i	a11, a1, 75
    664d:	1c1294        	ae_db	a2, a9
    6650:	78c1b2        	addi	a11, a1, 120
    6653:	03a794        	ae_lb	a10, a9
    6656:	1c1294        	ae_db	a2, a9
    6659:	4c41a2        	s8i	a10, a1, 76
    665c:	106122        	s32i	a2, a1, 64
    665f:	02ad           	mov.n	a10, a2
    6661:	0008e0        	callx8	a8
    6664:	0701b2        	l8ui	a11, a1, 7
    6667:	0a01d2        	l8ui	a13, a1, 10
    666a:	0801a2        	l8ui	a10, a1, 8
    666d:	44c192        	addi	a9, a1, 68
    6670:	010932        	l8ui	a3, a9, 1
    6673:	040982        	l8ui	a8, a9, 4
    6676:	0609c2        	l8ui	a12, a9, 6
    6679:	030992        	l8ui	a9, a9, 3
    667c:	3088a0        	xor	a8, a8, a10
    667f:	30ccd0        	xor	a12, a12, a13
    6682:	0501a2        	l8ui	a10, a1, 5
    6685:	2088c0        	or	a8, a8, a12
    6688:	3099b0        	xor	a9, a9, a11
    668b:	3033a0        	xor	a3, a3, a10
    668e:	203390        	or	a3, a3, a9
    6691:	203380        	or	a3, a3, a8
    6694:	ffc886        	j	65ba <tParseADTS+0x3f6>

00006697 <tParseADTS+0x4d3>:
    6697:	120c           	movi.n	a2, 1
    6699:	ff8406        	j	64ad <tParseADTS+0x2e9>

0000669c <tParseADTS+0x4d8>:
    669c:	004136        	entry	a1, 32
    669f:	118300        	slli	a8, a3, 16
    66a2:	20a062        	movi	a6, 32
    66a5:	e6d931        	l32r	a3, 20c (80000000 <_end+0x7ffef448>)
    66a8:	c06650        	sub	a6, a6, a5
    66ab:	401600        	ssl	a6
    66ae:	a14400        	sll	a4, a4
    66b1:	0ea576        	loopgtz	a5, 66c3 <tParseADTS+0x4ff>
    66b4:	307240        	xor	a7, a2, a4
    66b7:	1122f0        	slli	a2, a2, 1
    66ba:	020737        	bnone	a7, a3, 66c0 <tParseADTS+0x4fc>
    66bd:	302820        	xor	a2, a8, a2

000066c0 <tParseADTS+0x4fc>:
    66c0:	1144f0        	slli	a4, a4, 1

000066c3 <tParseADTS+0x4ff>:
    66c3:	f01d           	retw.n

000066c5 <tParseADTS+0x501>:
    66c5:	000000                                        ...

000066c8 <calcCRC>:
    66c8:	00a136        	entry	a1, 80
    66cb:	b129           	s32i.n	a2, a1, 44
    66cd:	11a600        	slli	a10, a6, 16
    66d0:	0c4516        	beqz	a5, 6798 <calcCRC+0xd0>
    66d3:	e6cf61        	l32r	a6, 210 (ee30 <HuffmanCodeBooks+0x270>)
    66d6:	909550        	addx2	a9, a5, a5
    66d9:	11b3d0        	slli	a11, a3, 3
    66dc:	91b9           	s32i.n	a11, a1, 36
    66de:	a09940        	addx4	a9, a9, a4
    66e1:	a199           	s32i.n	a9, a1, 40

000066e3 <calcCRC+0x1b>:
    66e3:	b1b8           	l32i.n	a11, a1, 44
    66e5:	91c8           	l32i.n	a12, a1, 36
    66e7:	1428           	l32i.n	a2, a4, 4
    66e9:	0a3d           	mov.n	a3, a10
    66eb:	e6ca81        	l32r	a8, 214 (71e8 <CreateInitializedBitBuffer>)
    66ee:	01ad           	mov.n	a10, a1
    66f0:	027d           	mov.n	a7, a2
    66f2:	0008e0        	callx8	a8
    66f5:	e6c881        	l32r	a8, 218 (6fec <WindBitBufferBidirectional>)
    66f8:	01ad           	mov.n	a10, a1
    66fa:	04b8           	l32i.n	a11, a4, 0
    66fc:	0008e0        	callx8	a8
    66ff:	e67781        	l32r	a8, dc (6f60 <initBitParser>)
    6702:	01ad           	mov.n	a10, a1
    6704:	0008e0        	callx8	a8
    6707:	0a5d           	mov.n	a5, a10
    6709:	2882b6        	bltui	a2, 8, 6735 <calcCRC+0x6d>
    670c:	41a320        	srli	a10, a2, 3
    670f:	117ad0        	slli	a7, a10, 3
    6712:	1c9a76        	loopnez	a10, 6732 <calcCRC+0x6a>
    6715:	039f84        	ae_lbi	a9, 8
    6718:	75b830        	extui	a11, a3, 24, 8
    671b:	749090        	extui	a9, a9, 0, 8
    671e:	3099b0        	xor	a9, a9, a11
    6721:	909960        	addx2	a9, a9, a6
    6724:	499d           	ae_l16ui.n	a9, a9, 0
    6726:	118380        	slli	a8, a3, 8
    6729:	0085f4        	ae_dbi	a5, 8
    672c:	113900        	slli	a3, a9, 16
    672f:	303380        	xor	a3, a3, a8

00006732 <calcCRC+0x6a>:
    6732:	c07270        	sub	a7, a2, a7

00006735 <calcCRC+0x6d>:
    6735:	03ad           	mov.n	a10, a3
    6737:	07dd           	mov.n	a13, a7
    6739:	03c774        	ae_lb	a12, a7
    673c:	e6b8b1        	l32r	a11, 21c (8005 <_Z17xa_aacmch_set_pceP25_xa_aacmch_dec_api_structP15_tranportInfo_t+0x29>)
    673f:	1c1574        	ae_db	a5, a7
    6742:	fff5a5        	call8	669c <tParseADTS+0x4d8>
    6745:	24d8           	l32i.n	a13, a4, 8
    6747:	14e8           	l32i.n	a14, a4, 4
    6749:	0a3d           	mov.n	a3, a10
    674b:	33bed7        	bgeu	a14, a13, 6782 <calcCRC+0xba>
    674e:	c09de0        	sub	a9, a13, a14
    6751:	207990        	or	a7, a9, a9
    6754:	1c89b6        	bltui	a9, 8, 6774 <calcCRC+0xac>
    6757:	41a390        	srli	a10, a9, 3
    675a:	117ad0        	slli	a7, a10, 3
    675d:	109a76        	loopnez	a10, 6771 <calcCRC+0xa9>
    6760:	75b830        	extui	a11, a3, 24, 8
    6763:	90bb60        	addx2	a11, a11, a6
    6766:	4bbd           	ae_l16ui.n	a11, a11, 0
    6768:	118380        	slli	a8, a3, 8
    676b:	113b00        	slli	a3, a11, 16
    676e:	303380        	xor	a3, a3, a8

00006771 <calcCRC+0xa9>:
    6771:	c07970        	sub	a7, a9, a7

00006774 <calcCRC+0xac>:
    6774:	07dd           	mov.n	a13, a7
    6776:	03ad           	mov.n	a10, a3
    6778:	e6a9b1        	l32r	a11, 21c (8005 <_Z17xa_aacmch_set_pceP25_xa_aacmch_dec_api_structP15_tranportInfo_t+0x29>)
    677b:	0c0c           	movi.n	a12, 0
    677d:	fff1e5        	call8	669c <tParseADTS+0x4d8>
    6780:	0a3d           	mov.n	a3, a10

00006782 <calcCRC+0xba>:
    6782:	e65781        	l32r	a8, e0 (6f38 <TerminateBitParser_new>)
    6785:	05bd           	mov.n	a11, a5
    6787:	01ad           	mov.n	a10, a1
    6789:	0008e0        	callx8	a8
    678c:	a198           	l32i.n	a9, a1, 40
    678e:	03ad           	mov.n	a10, a3
    6790:	44cb           	addi.n	a4, a4, 12
    6792:	c09490        	sub	a9, a4, a9
    6795:	f4a956        	bnez	a9, 66e3 <calcCRC+0x1b>

00006798 <calcCRC+0xd0>:
    6798:	f520a0        	extui	a2, a10, 16, 16
    679b:	f01d           	retw.n

0000679d <calcCRC+0xd5>:
    679d:	000000                                        ...

000067a0 <stopCRCRegion>:
    67a0:	004136        	entry	a1, 32
    67a3:	0258           	l32i.n	a5, a2, 0
    67a5:	c05350        	sub	a5, a3, a5
    67a8:	635450        	minu	a5, a4, a5
    67ab:	1259           	s32i.n	a5, a2, 4
    67ad:	f01d           	retw.n

000067af <stopCRCRegion+0xf>:
	...

000067b0 <startCRCRegion>:
    67b0:	004136        	entry	a1, 32
    67b3:	0239           	s32i.n	a3, a2, 0
    67b5:	2249           	s32i.n	a4, a2, 8
    67b7:	f01d           	retw.n

000067b9 <startCRCRegion+0x9>:
    67b9:	000000                                        ...

000067bc <tIndexToFrequency>:
    67bc:	004136        	entry	a1, 32
    67bf:	09a2f6        	bgeui	a2, 12, 67cc <tIndexToFrequency+0x10>
    67c2:	e69731        	l32r	a3, 220 (f030 <iSampFreqs>)
    67c5:	a02230        	addx4	a2, a2, a3
    67c8:	0228           	l32i.n	a2, a2, 0
    67ca:	f01d           	retw.n

000067cc <tIndexToFrequency+0x10>:
    67cc:	020c           	movi.n	a2, 0
    67ce:	f01d           	retw.n

000067d0 <tInitDefaultASC>:
    67d0:	004136        	entry	a1, 32
    67d3:	02ad           	mov.n	a10, a2
    67d5:	e64881        	l32r	a8, f8 (9db0 <__vec_memset>)
    67d8:	0b0c           	movi.n	a11, 0
    67da:	24a1c2        	movi	a12, 0x124
    67dd:	0008e0        	callx8	a8
    67e0:	094242        	s8i	a4, a2, 9
    67e3:	e69081        	l32r	a8, 224 (67bc <tIndexToFrequency>)
    67e6:	03ad           	mov.n	a10, a3
    67e8:	290c           	movi.n	a9, 2
    67ea:	0299           	s32i.n	a9, a2, 0
    67ec:	030c           	movi.n	a3, 0
    67ee:	084232        	s8i	a3, a2, 8
    67f1:	0008e0        	callx8	a8
    67f4:	1e4232        	s8i	a3, a2, 30
    67f7:	1c4232        	s8i	a3, a2, 28
    67fa:	6239           	s32i.n	a3, a2, 24
    67fc:	32a9           	s32i.n	a10, a2, 12
    67fe:	42a9           	s32i.n	a10, a2, 16
    6800:	1d4232        	s8i	a3, a2, 29
    6803:	00a4a2        	movi	a10, 0x400
    6806:	52a9           	s32i.n	a10, a2, 20
    6808:	f01d           	retw.n

0000680a <tInitDefaultASC+0x3a>:
	...

0000680c <tNCCFromPCE>:
    680c:	004136        	entry	a1, 32
    680f:	030262        	l8ui	a6, a2, 3
    6812:	025d           	mov.n	a5, a2
    6814:	040582        	l8ui	a8, a5, 4
    6817:	369c           	beqz.n	a6, 682e <tNCCFromPCE+0x22>
    6819:	024d           	mov.n	a4, a2
    681b:	020c           	movi.n	a2, 0
    681d:	089676        	loopnez	a6, 6829 <tNCCFromPCE+0x1d>
    6820:	150432        	l8ui	a3, a4, 21
    6823:	443b           	addi.n	a4, a4, 3
    6825:	331b           	addi.n	a3, a3, 1
    6827:	223a           	add.n	a2, a2, a3

00006829 <tNCCFromPCE+0x1d>:
    6829:	0000c6        	j	6830 <tNCCFromPCE+0x24>

0000682c <tNCCFromPCE+0x20>:
	...

0000682e <tNCCFromPCE+0x22>:
    682e:	020c           	movi.n	a2, 0

00006830 <tNCCFromPCE+0x24>:
    6830:	054d           	mov.n	a4, a5
    6832:	0505a2        	l8ui	a10, a5, 5
    6835:	089876        	loopnez	a8, 6841 <tNCCFromPCE+0x35>
    6838:	450492        	l8ui	a9, a4, 69
    683b:	443b           	addi.n	a4, a4, 3
    683d:	991b           	addi.n	a9, a9, 1
    683f:	229a           	add.n	a2, a2, a9

00006841 <tNCCFromPCE+0x35>:
    6841:	054d           	mov.n	a4, a5
    6843:	f03d           	nop.n
    6845:	089a76        	loopnez	a10, 6851 <tNCCFromPCE+0x45>
    6848:	7504b2        	l8ui	a11, a4, 117
    684b:	443b           	addi.n	a4, a4, 3
    684d:	bb1b           	addi.n	a11, a11, 1
    684f:	22ba           	add.n	a2, a2, a11
    6851:	f01d           	retw.n

00006853 <tNCCFromPCE+0x47>:
	...

00006854 <tScanPCEFromBitstream>:
    6854:	024136        	entry	a1, 0x120
    6857:	02a8           	l32i.n	a10, a2, 0
    6859:	4b0c           	movi.n	a11, 4
    685b:	0397b4        	ae_lb	a9, a11
    685e:	1c1ab4        	ae_db	a10, a11
    6861:	02a9           	s32i.n	a10, a2, 0
    6863:	004392        	s8i	a9, a3, 0
    6866:	0288           	l32i.n	a8, a2, 0
    6868:	2d0c           	movi.n	a13, 2
    686a:	03f7d4        	ae_lb	a15, a13
    686d:	1c18d4        	ae_db	a8, a13
    6870:	0289           	s32i.n	a8, a2, 0
    6872:	0143f2        	s8i	a15, a3, 1
    6875:	02e8           	l32i.n	a14, a2, 0
    6877:	03c7b4        	ae_lb	a12, a11
    687a:	1c1eb4        	ae_db	a14, a11
    687d:	02e9           	s32i.n	a14, a2, 0
    687f:	0243c2        	s8i	a12, a3, 2
    6882:	02a8           	l32i.n	a10, a2, 0
    6884:	0397b4        	ae_lb	a9, a11
    6887:	1c1ab4        	ae_db	a10, a11
    688a:	02a9           	s32i.n	a10, a2, 0
    688c:	034392        	s8i	a9, a3, 3
    688f:	0288           	l32i.n	a8, a2, 0
    6891:	03f7b4        	ae_lb	a15, a11
    6894:	1c18b4        	ae_db	a8, a11
    6897:	0289           	s32i.n	a8, a2, 0
    6899:	0443f2        	s8i	a15, a3, 4
    689c:	02e8           	l32i.n	a14, a2, 0
    689e:	03c7b4        	ae_lb	a12, a11
    68a1:	1c1eb4        	ae_db	a14, a11
    68a4:	02e9           	s32i.n	a14, a2, 0
    68a6:	0543c2        	s8i	a12, a3, 5
    68a9:	02a8           	l32i.n	a10, a2, 0
    68ab:	0397d4        	ae_lb	a9, a13
    68ae:	1c1ad4        	ae_db	a10, a13
    68b1:	02a9           	s32i.n	a10, a2, 0
    68b3:	064392        	s8i	a9, a3, 6
    68b6:	0288           	l32i.n	a8, a2, 0
    68b8:	3a0c           	movi.n	a10, 3
    68ba:	03f7a4        	ae_lb	a15, a10
    68bd:	1c18a4        	ae_db	a8, a10
    68c0:	0289           	s32i.n	a8, a2, 0
    68c2:	0743f2        	s8i	a15, a3, 7
    68c5:	02e8           	l32i.n	a14, a2, 0
    68c7:	03c7b4        	ae_lb	a12, a11
    68ca:	1c1eb4        	ae_db	a14, a11
    68cd:	02e9           	s32i.n	a14, a2, 0
    68cf:	0843c2        	s8i	a12, a3, 8
    68d2:	0298           	l32i.n	a9, a2, 0
    68d4:	1c0c           	movi.n	a12, 1
    68d6:	0387c4        	ae_lb	a8, a12
    68d9:	1c19c4        	ae_db	a9, a12
    68dc:	0299           	s32i.n	a9, a2, 0
    68de:	094382        	s8i	a8, a3, 9
    68e1:	748080        	extui	a8, a8, 0, 8
    68e4:	08dc           	bnez.n	a8, 68f8 <tScanPCEFromBitstream+0xa4>
    68e6:	02f8           	l32i.n	a15, a2, 0
    68e8:	03e7c4        	ae_lb	a14, a12
    68eb:	1c1fc4        	ae_db	a15, a12
    68ee:	02f9           	s32i.n	a15, a2, 0
    68f0:	0a43e2        	s8i	a14, a3, 10
    68f3:	74e0e0        	extui	a14, a14, 0, 8
    68f6:	0eac           	beqz.n	a14, 691a <tScanPCEFromBitstream+0xc6>

000068f8 <tScanPCEFromBitstream+0xa4>:
    68f8:	0a2d           	mov.n	a2, a10
    68fa:	f01d           	retw.n

000068fc <tScanPCEFromBitstream+0xa8>:
    68fc:	0e03b2        	l8ui	a11, a3, 14
    68ff:	0303c2        	l8ui	a12, a3, 3
    6902:	0403d2        	l8ui	a13, a3, 4
    6905:	0503e2        	l8ui	a14, a3, 5
    6908:	01ad           	mov.n	a10, a1
    690a:	e63381        	l32r	a8, 1d8 (5e30 <Parse_Height_Extension_Element>)
    690d:	01d3f2        	addmi	a15, a3, 0x100
    6910:	d4cff2        	addi	a15, a15, -44
    6913:	0008e0        	callx8	a8
    6916:	020c           	movi.n	a2, 0
    6918:	f01d           	retw.n

0000691a <tScanPCEFromBitstream+0xc6>:
    691a:	02a8           	l32i.n	a10, a2, 0
    691c:	0397c4        	ae_lb	a9, a12
    691f:	1c1ac4        	ae_db	a10, a12
    6922:	02a9           	s32i.n	a10, a2, 0
    6924:	0b4392        	s8i	a9, a3, 11
    6927:	749090        	extui	a9, a9, 0, 8
    692a:	899c           	beqz.n	a9, 6946 <tScanPCEFromBitstream+0xf2>
    692c:	0298           	l32i.n	a9, a2, 0
    692e:	0387d4        	ae_lb	a8, a13
    6931:	1c19d4        	ae_db	a9, a13
    6934:	0299           	s32i.n	a9, a2, 0
    6936:	0c4382        	s8i	a8, a3, 12
    6939:	02f8           	l32i.n	a15, a2, 0
    693b:	03e7c4        	ae_lb	a14, a12
    693e:	1c1fc4        	ae_db	a15, a12
    6941:	02f9           	s32i.n	a15, a2, 0
    6943:	0d43e2        	s8i	a14, a3, 13

00006946 <tScanPCEFromBitstream+0xf2>:
    6946:	0303a2        	l8ui	a10, a3, 3
    6949:	040c           	movi.n	a4, 0
    694b:	1f0c           	movi.n	a15, 1
    694d:	2d1aa6        	blti	a10, 1, 697e <tScanPCEFromBitstream+0x12a>
    6950:	03ad           	mov.n	a10, a3

00006952 <tScanPCEFromBitstream+0xfe>:
    6952:	0298           	l32i.n	a9, a2, 0
    6954:	0387c4        	ae_lb	a8, a12
    6957:	1c19c4        	ae_db	a9, a12
    695a:	98ed           	ae_zext16	a14, a8
    695c:	93efe0        	movnez	a14, a15, a14
    695f:	0299           	s32i.n	a9, a2, 0
    6961:	154a82        	s8i	a8, a10, 21
    6964:	144ae2        	s8i	a14, a10, 20
    6967:	0298           	l32i.n	a9, a2, 0
    6969:	441b           	addi.n	a4, a4, 1
    696b:	0387b4        	ae_lb	a8, a11
    696e:	1c19b4        	ae_db	a9, a11
    6971:	0299           	s32i.n	a9, a2, 0
    6973:	0303e2        	l8ui	a14, a3, 3
    6976:	aa3b           	addi.n	a10, a10, 3
    6978:	134a82        	s8i	a8, a10, 19
    697b:	d324e7        	blt	a4, a14, 6952 <tScanPCEFromBitstream+0xfe>

0000697e <tScanPCEFromBitstream+0x12a>:
    697e:	0403a2        	l8ui	a10, a3, 4
    6981:	040c           	movi.n	a4, 0
    6983:	1e0c           	movi.n	a14, 1
    6985:	2d1aa6        	blti	a10, 1, 69b6 <tScanPCEFromBitstream+0x162>
    6988:	03ad           	mov.n	a10, a3

0000698a <tScanPCEFromBitstream+0x136>:
    698a:	0298           	l32i.n	a9, a2, 0
    698c:	0387c4        	ae_lb	a8, a12
    698f:	1c19c4        	ae_db	a9, a12
    6992:	98fd           	ae_zext16	a15, a8
    6994:	93fef0        	movnez	a15, a14, a15
    6997:	0299           	s32i.n	a9, a2, 0
    6999:	454a82        	s8i	a8, a10, 69
    699c:	444af2        	s8i	a15, a10, 68
    699f:	0298           	l32i.n	a9, a2, 0
    69a1:	441b           	addi.n	a4, a4, 1
    69a3:	0387b4        	ae_lb	a8, a11
    69a6:	1c19b4        	ae_db	a9, a11
    69a9:	0299           	s32i.n	a9, a2, 0
    69ab:	0403f2        	l8ui	a15, a3, 4
    69ae:	aa3b           	addi.n	a10, a10, 3
    69b0:	434a82        	s8i	a8, a10, 67
    69b3:	d324f7        	blt	a4, a15, 698a <tScanPCEFromBitstream+0x136>

000069b6 <tScanPCEFromBitstream+0x162>:
    69b6:	0503a2        	l8ui	a10, a3, 5
    69b9:	050c           	movi.n	a5, 0
    69bb:	040c           	movi.n	a4, 0
    69bd:	2f1aa6        	blti	a10, 1, 69f0 <tScanPCEFromBitstream+0x19c>
    69c0:	1e0c           	movi.n	a14, 1
    69c2:	03ad           	mov.n	a10, a3

000069c4 <tScanPCEFromBitstream+0x170>:
    69c4:	0298           	l32i.n	a9, a2, 0
    69c6:	0387c4        	ae_lb	a8, a12
    69c9:	1c19c4        	ae_db	a9, a12
    69cc:	98fd           	ae_zext16	a15, a8
    69ce:	93fef0        	movnez	a15, a14, a15
    69d1:	0299           	s32i.n	a9, a2, 0
    69d3:	754a82        	s8i	a8, a10, 117
    69d6:	744af2        	s8i	a15, a10, 116
    69d9:	0298           	l32i.n	a9, a2, 0
    69db:	441b           	addi.n	a4, a4, 1
    69dd:	0387b4        	ae_lb	a8, a11
    69e0:	1c19b4        	ae_db	a9, a11
    69e3:	0299           	s32i.n	a9, a2, 0
    69e5:	0503f2        	l8ui	a15, a3, 5
    69e8:	aa3b           	addi.n	a10, a10, 3
    69ea:	734a82        	s8i	a8, a10, 115
    69ed:	d324f7        	blt	a4, a15, 69c4 <tScanPCEFromBitstream+0x170>

000069f0 <tScanPCEFromBitstream+0x19c>:
    69f0:	0603a2        	l8ui	a10, a3, 6
    69f3:	054d           	mov.n	a4, a5
    69f5:	1e1aa6        	blti	a10, 1, 6a17 <tScanPCEFromBitstream+0x1c3>
    69f8:	03ad           	mov.n	a10, a3

000069fa <tScanPCEFromBitstream+0x1a6>:
    69fa:	a44ad2        	s8i	a13, a10, 164
    69fd:	154a52        	s8i	a5, a10, 21
    6a00:	02f8           	l32i.n	a15, a2, 0
    6a02:	441b           	addi.n	a4, a4, 1
    6a04:	03e7b4        	ae_lb	a14, a11
    6a07:	1c1fb4        	ae_db	a15, a11
    6a0a:	02f9           	s32i.n	a15, a2, 0
    6a0c:	0603c2        	l8ui	a12, a3, 6
    6a0f:	aa3b           	addi.n	a10, a10, 3
    6a11:	a34ae2        	s8i	a14, a10, 163
    6a14:	e224c7        	blt	a4, a12, 69fa <tScanPCEFromBitstream+0x1a6>

00006a17 <tScanPCEFromBitstream+0x1c3>:
    6a17:	070382        	l8ui	a8, a3, 7
    6a1a:	040c           	movi.n	a4, 0
    6a1c:	1118a6        	blti	a8, 1, 6a31 <tScanPCEFromBitstream+0x1dd>

00006a1f <tScanPCEFromBitstream+0x1cb>:
    6a1f:	e60281        	l32r	a8, 228 (6ad8 <SkipBits>)
    6a22:	02ad           	mov.n	a10, a2
    6a24:	4b0c           	movi.n	a11, 4
    6a26:	0008e0        	callx8	a8
    6a29:	070392        	l8ui	a9, a3, 7
    6a2c:	441b           	addi.n	a4, a4, 1
    6a2e:	ed2497        	blt	a4, a9, 6a1f <tScanPCEFromBitstream+0x1cb>

00006a31 <tScanPCEFromBitstream+0x1dd>:
    6a31:	0803a2        	l8ui	a10, a3, 8
    6a34:	040c           	movi.n	a4, 0
    6a36:	111aa6        	blti	a10, 1, 6a4b <tScanPCEFromBitstream+0x1f7>

00006a39 <tScanPCEFromBitstream+0x1e5>:
    6a39:	e5fb81        	l32r	a8, 228 (6ad8 <SkipBits>)
    6a3c:	02ad           	mov.n	a10, a2
    6a3e:	5b0c           	movi.n	a11, 5
    6a40:	0008e0        	callx8	a8
    6a43:	080392        	l8ui	a9, a3, 8
    6a46:	441b           	addi.n	a4, a4, 1
    6a48:	ed2497        	blt	a4, a9, 6a39 <tScanPCEFromBitstream+0x1e5>

00006a4b <tScanPCEFromBitstream+0x1f7>:
    6a4b:	e5e681        	l32r	a8, 1e4 (6ac0 <ByteAlignHW>)
    6a4e:	02ad           	mov.n	a10, a2
    6a50:	0008e0        	callx8	a8
    6a53:	02a8           	l32i.n	a10, a2, 0
    6a55:	8b0c           	movi.n	a11, 8
    6a57:	0397b4        	ae_lb	a9, a11
    6a5a:	1c1ab4        	ae_db	a10, a11
    6a5d:	02a9           	s32i.n	a10, a2, 0
    6a5f:	0e4392        	s8i	a9, a3, 14
    6a62:	749090        	extui	a9, a9, 0, 8
    6a65:	1a19a6        	blti	a9, 1, 6a83 <tScanPCEFromBitstream+0x22f>
    6a68:	040c           	movi.n	a4, 0
    6a6a:	01ad           	mov.n	a10, a1

00006a6c <tScanPCEFromBitstream+0x218>:
    6a6c:	02e8           	l32i.n	a14, a2, 0
    6a6e:	03d7b4        	ae_lb	a13, a11
    6a71:	1c1eb4        	ae_db	a14, a11
    6a74:	02e9           	s32i.n	a14, a2, 0
    6a76:	004ad2        	s8i	a13, a10, 0
    6a79:	0e03c2        	l8ui	a12, a3, 14
    6a7c:	441b           	addi.n	a4, a4, 1
    6a7e:	aa1b           	addi.n	a10, a10, 1
    6a80:	e824c7        	blt	a4, a12, 6a6c <tScanPCEFromBitstream+0x218>

00006a83 <tScanPCEFromBitstream+0x22f>:
    6a83:	e5e881        	l32r	a8, 224 (67bc <tIndexToFrequency>)
    6a86:	0f4352        	s8i	a5, a3, 15
    6a89:	0203a2        	l8ui	a10, a3, 2
    6a8c:	0008e0        	callx8	a8
    6a8f:	43a9           	s32i.n	a10, a3, 16
    6a91:	e67a56        	bnez	a10, 68fc <tScanPCEFromBitstream+0xa8>
    6a94:	420c           	movi.n	a2, 4
    6a96:	f01d           	retw.n

00006a98 <TerminateBitParser>:
    6a98:	004136        	entry	a1, 32
    6a9b:	025d           	mov.n	a5, a2
    6a9d:	0062c4        	rur.ae_bitptr	a6
    6aa0:	0369           	s32i.n	a6, a3, 0
    6aa2:	fec222        	addi	a2, a2, -2
    6aa5:	0686a6        	blti	a6, 8, 6aaf <TerminateBitParser+0x17>
    6aa8:	250b           	addi.n	a2, a5, -1
    6aaa:	f8c642        	addi	a4, a6, -8
    6aad:	0349           	s32i.n	a4, a3, 0

00006aaf <TerminateBitParser+0x17>:
    6aaf:	f01d           	retw.n

00006ab1 <TerminateBitParser+0x19>:
    6ab1:	000000                                        ...

00006ab4 <ShowBitsHW>:
    6ab4:	004136        	entry	a1, 32
    6ab7:	032734        	ae_lb	a2, a3
    6aba:	922d           	ae_zext16	a2, a2
    6abc:	f01d           	retw.n

00006abe <ShowBitsHW+0xa>:
	...

00006ac0 <ByteAlignHW>:
    6ac0:	004136        	entry	a1, 32
    6ac3:	0052c4        	rur.ae_bitptr	a5
    6ac6:	0238           	l32i.n	a3, a2, 0
    6ac8:	457b           	addi.n	a4, a5, 7
    6aca:	214340        	srai	a4, a4, 3
    6acd:	f04450        	subx8	a4, a4, a5
    6ad0:	1c1344        	ae_db	a3, a4
    6ad3:	0239           	s32i.n	a3, a2, 0
    6ad5:	f01d           	retw.n

00006ad7 <ByteAlignHW+0x17>:
	...

00006ad8 <SkipBits>:
    6ad8:	004136        	entry	a1, 32
    6adb:	0248           	l32i.n	a4, a2, 0
    6add:	1c1434        	ae_db	a4, a3
    6ae0:	0249           	s32i.n	a4, a2, 0
    6ae2:	f01d           	retw.n

00006ae4 <InitBitParser>:
    6ae4:	004136        	entry	a1, 32
    6ae7:	050c           	movi.n	a5, 0
    6ae9:	0d6207        	bbci	a2, 0, 6afa <InitBitParser+0x16>
    6aec:	f3f150        	wur.ae_bithead	a5
    6aef:	fdc222        	addi	a2, a2, -3
    6af2:	438b           	addi.n	a4, a3, 8
    6af4:	032644        	wur.ae_bitptr	a4
    6af7:	000206        	j	6b03 <InitBitParser+0x1f>

00006afa <InitBitParser+0x16>:
    6afa:	f3f150        	wur.ae_bithead	a5
    6afd:	032634        	wur.ae_bitptr	a3
    6b00:	fec222        	addi	a2, a2, -2

00006b03 <InitBitParser+0x1f>:
    6b03:	0002f4        	ae_dbi	a2, 16
    6b06:	0002f4        	ae_dbi	a2, 16
    6b09:	f01d           	retw.n

00006b0b <InitBitParser+0x27>:
	...

00006b0c <tDetectFormat>:
    6b0c:	032136        	entry	a1, 0x190
    6b0f:	783c           	movi.n	a8, 55
    6b11:	090c           	movi.n	a9, 0
    6b13:	10c1a2        	addi	a10, a1, 16
    6b16:	4d61a2        	s32i	a10, a1, 0x134
    6b19:	566192        	s32i	a9, a1, 0x158
    6b1c:	0799           	s32i.n	a9, a7, 0
    6b1e:	6aa837        	bge	a8, a3, 6b8c <tDetectFormat+0x80>
    6b21:	1159           	s32i.n	a5, a1, 4
    6b23:	02ad           	mov.n	a10, a2
    6b25:	03bd           	mov.n	a11, a3
    6b27:	04cd           	mov.n	a12, a4
    6b29:	1d0c           	movi.n	a13, 1
    6b2b:	5a6172        	s32i	a7, a1, 0x168
    6b2e:	e5bf81        	l32r	a8, 22c (5fd8 <tParseADIF>)
    6b31:	01d1e2        	addmi	a14, a1, 0x100
    6b34:	58cef2        	addi	a15, a14, 88
    6b37:	01f9           	s32i.n	a15, a1, 0
    6b39:	34cee2        	addi	a14, a14, 52
    6b3c:	06fd           	mov.n	a15, a6
    6b3e:	0008e0        	callx8	a8
    6b41:	170c           	movi.n	a7, 1
    6b43:	050a16        	beqz	a10, 6b97 <tDetectFormat+0x8b>
    6b46:	0169           	s32i.n	a6, a1, 0
    6b48:	02ad           	mov.n	a10, a2
    6b4a:	03bd           	mov.n	a11, a3
    6b4c:	04cd           	mov.n	a12, a4
    6b4e:	07dd           	mov.n	a13, a7
    6b50:	01d1f2        	addmi	a15, a1, 0x100
    6b53:	58cf82        	addi	a8, a15, 88
    6b56:	1189           	s32i.n	a8, a1, 4
    6b58:	e5b681        	l32r	a8, 230 (61c4 <tParseADTS>)
    6b5b:	1e0c           	movi.n	a14, 1
    6b5d:	34cff2        	addi	a15, a15, 52
    6b60:	0008e0        	callx8	a8
    6b63:	feca92        	addi	a9, a10, -2
    6b66:	0bb916        	beqz	a9, 6c25 <tDetectFormat+0x119>
    6b69:	fccab2        	addi	a11, a10, -4
    6b6c:	0b5b16        	beqz	a11, 6c25 <tDetectFormat+0x119>
    6b6f:	050c           	movi.n	a5, 0

00006b71 <tDetectFormat+0x65>:
    6b71:	5621c2        	l32i	a12, a1, 0x158
    6b74:	fdcad2        	addi	a13, a10, -3
    6b77:	835cd0        	moveqz	a5, a12, a13
    6b7a:	2aec           	bnez.n	a10, 6ba0 <tDetectFormat+0x94>
    6b7c:	270c           	movi.n	a7, 2
    6b7e:	000546        	j	6b97 <tDetectFormat+0x8b>

00006b81 <tDetectFormat+0x75>:
    6b81:	071a26        	beqi	a10, 1, 6b8c <tDetectFormat+0x80>
    6b84:	5821e2        	l32i	a14, a1, 0x160
    6b87:	ee0b           	addi.n	a14, a14, -1
    6b89:	08be56        	bnez	a14, 6c18 <tDetectFormat+0x10c>

00006b8c <tDetectFormat+0x80>:
    6b8c:	120c           	movi.n	a2, 1
    6b8e:	f01d           	retw.n

00006b90 <tDetectFormat+0x84>:
    6b90:	090c           	movi.n	a9, 0

00006b92 <tDetectFormat+0x86>:
    6b92:	06ba56        	bnez	a10, 6c01 <tDetectFormat+0xf5>
    6b95:	570c           	movi.n	a7, 5

00006b97 <tDetectFormat+0x8b>:
    6b97:	5a21f2        	l32i	a15, a1, 0x168
    6b9a:	020c           	movi.n	a2, 0
    6b9c:	0f79           	s32i.n	a7, a15, 0
    6b9e:	f01d           	retw.n

00006ba0 <tDetectFormat+0x94>:
    6ba0:	0169           	s32i.n	a6, a1, 0
    6ba2:	1e0c           	movi.n	a14, 1
    6ba4:	e5a481        	l32r	a8, 234 (9998 <tParseLOAS>)
    6ba7:	1d0c           	movi.n	a13, 1
    6ba9:	0b0c           	movi.n	a11, 0
    6bab:	ca0b           	addi.n	a12, a10, -1
    6bad:	652192        	l32i	a9, a1, 0x194
    6bb0:	596192        	s32i	a9, a1, 0x164
    6bb3:	2199           	s32i.n	a9, a1, 8
    6bb5:	01d1a2        	addmi	a10, a1, 0x100
    6bb8:	34caf2        	addi	a15, a10, 52
    6bbb:	83bdc0        	moveqz	a11, a13, a12
    6bbe:	58caa2        	addi	a10, a10, 88
    6bc1:	04cd           	mov.n	a12, a4
    6bc3:	11a9           	s32i.n	a10, a1, 4
    6bc5:	5861b2        	s32i	a11, a1, 0x160
    6bc8:	02ad           	mov.n	a10, a2
    6bca:	03bd           	mov.n	a11, a3
    6bcc:	0008e0        	callx8	a8
    6bcf:	bd2a66        	bnei	a10, 2, 6b90 <tDetectFormat+0x84>
    6bd2:	04cd           	mov.n	a12, a4
    6bd4:	1d0c           	movi.n	a13, 1
    6bd6:	1e0c           	movi.n	a14, 1
    6bd8:	592192        	l32i	a9, a1, 0x164
    6bdb:	01d1f2        	addmi	a15, a1, 0x100
    6bde:	5621b2        	l32i	a11, a1, 0x158
    6be1:	0169           	s32i.n	a6, a1, 0
    6be3:	5761b2        	s32i	a11, a1, 0x15c
    6be6:	58cf82        	addi	a8, a15, 88
    6be9:	2199           	s32i.n	a9, a1, 8
    6beb:	34cff2        	addi	a15, a15, 52
    6bee:	1189           	s32i.n	a8, a1, 4
    6bf0:	e59181        	l32r	a8, 234 (9998 <tParseLOAS>)
    6bf3:	ab2a           	add.n	a10, a11, a2
    6bf5:	c0b3b0        	sub	a11, a3, a11
    6bf8:	0008e0        	callx8	a8
    6bfb:	572192        	l32i	a9, a1, 0x15c
    6bfe:	ffe406        	j	6b92 <tDetectFormat+0x86>

00006c01 <tDetectFormat+0xf5>:
    6c01:	0515e6        	bgei	a5, 1, 6c0a <tDetectFormat+0xfe>
    6c04:	0219e6        	bgei	a9, 1, 6c0a <tDetectFormat+0xfe>
    6c07:	ffdd86        	j	6b81 <tDetectFormat+0x75>

00006c0a <tDetectFormat+0xfe>:
    6c0a:	6421a2        	l32i	a10, a1, 0x190
    6c0d:	0215a6        	blti	a5, 1, 6c13 <tDetectFormat+0x107>
    6c10:	439950        	min	a9, a9, a5

00006c13 <tDetectFormat+0x107>:
    6c13:	0a99           	s32i.n	a9, a10, 0
    6c15:	000206        	j	6c21 <tDetectFormat+0x115>

00006c18 <tDetectFormat+0x10c>:
    6c18:	6421a2        	l32i	a10, a1, 0x190
    6c1b:	0ab8           	l32i.n	a11, a10, 0
    6c1d:	0bcc           	bnez.n	a11, 6c21 <tDetectFormat+0x115>
    6c1f:	0a79           	s32i.n	a7, a10, 0

00006c21 <tDetectFormat+0x115>:
    6c21:	220c           	movi.n	a2, 2
    6c23:	f01d           	retw.n

00006c25 <tDetectFormat+0x119>:
    6c25:	04cd           	mov.n	a12, a4
    6c27:	1d0c           	movi.n	a13, 1
    6c29:	1e0c           	movi.n	a14, 1
    6c2b:	e58181        	l32r	a8, 230 (61c4 <tParseADTS>)
    6c2e:	562152        	l32i	a5, a1, 0x158
    6c31:	01d192        	addmi	a9, a1, 0x100
    6c34:	34c9f2        	addi	a15, a9, 52
    6c37:	0169           	s32i.n	a6, a1, 0
    6c39:	58c992        	addi	a9, a9, 88
    6c3c:	1199           	s32i.n	a9, a1, 4
    6c3e:	a25a           	add.n	a10, a2, a5
    6c40:	c0b350        	sub	a11, a3, a5
    6c43:	0008e0        	callx8	a8
    6c46:	ffc9c6        	j	6b71 <tDetectFormat+0x65>

00006c49 <tDetectFormat+0x13d>:
    6c49:	000000                                        ...

00006c4c <codec_state_update>:
    6c4c:	004136        	entry	a1, 32
    6c4f:	291c           	movi.n	a9, 18
    6c51:	080c           	movi.n	a8, 0
    6c53:	561c           	movi.n	a6, 21
    6c55:	471367        	beq	a3, a6, 6ca0 <codec_state_update+0x54>
    6c58:	623326        	beqi	a3, 3, 6cbe <codec_state_update+0x72>
    6c5b:	970c           	movi.n	a7, 9
    6c5d:	3d9377        	bne	a3, a7, 6c9e <codec_state_update+0x52>
    6c60:	3af466        	bnei	a4, 0x100, 6c9e <codec_state_update+0x52>
    6c63:	95dc           	bnez.n	a5, 6c80 <codec_state_update+0x34>
    6c65:	2b2232        	l32i	a3, a2, 172
    6c68:	793c           	movi.n	a9, 55
    6c6a:	643c           	movi.n	a4, 54
    6c6c:	dbc3a2        	addi	a10, a3, -37
    6c6f:	097a16        	beqz	a10, 6d0a <codec_state_update+0xbe>
    6c72:	cac3b2        	addi	a11, a3, -54
    6c75:	097b16        	beqz	a11, 6d10 <codec_state_update+0xc4>
    6c78:	049397        	bne	a3, a9, 6c80 <codec_state_update+0x34>
    6c7b:	833c           	movi.n	a3, 56

00006c7d <codec_state_update+0x31>:
    6c7d:	2b6232        	s32i	a3, a2, 172
    6c80:	2122c2        	l32i	a12, a2, 132
    6c83:	8b4c           	movi.n	a11, 72
    6c85:	2022d2        	l32i	a13, a2, 128
    6c88:	571c66        	bnei	a12, 1, 6ce3 <codec_state_update+0x97>
    6c8b:	206282        	s32i	a8, a2, 128
    6c8e:	ad4c           	movi.n	a13, 74
    6c90:	2b62d2        	s32i	a13, a2, 172
    6c93:	f01d           	retw.n

00006c95 <codec_state_update+0x49>:
    6c95:	07c516        	beqz	a5, 6d15 <codec_state_update+0xc9>
    6c98:	e568e1        	l32r	a14, 238 (8c2 <_Z10ApplyToolsPP28CAacDecoderStaticChannelInfoPP22CAacDecoderChannelInfoi+0x2>)
    6c9b:	7615e7        	beq	a5, a14, 6d15 <codec_state_update+0xc9>

00006c9e <codec_state_update+0x52>:
    6c9e:	f01d           	retw.n

00006ca0 <codec_state_update+0x54>:
    6ca0:	2b22f2        	l32i	a15, a2, 172
    6ca3:	f79f97        	bne	a15, a9, 6c9e <codec_state_update+0x52>
    6ca6:	041272        	l16ui	a7, a2, 8
    6ca9:	130c           	movi.n	a3, 1
    6cab:	044716        	beqz	a7, 6cf3 <codec_state_update+0xa7>
    6cae:	2a2242        	l32i	a4, a2, 168
    6cb1:	069776        	loopnez	a7, 6cbb <codec_state_update+0x6f>
    6cb4:	0468           	l32i.n	a6, a4, 0
    6cb6:	444b           	addi.n	a4, a4, 4
    6cb8:	833860        	moveqz	a3, a8, a6

00006cbb <codec_state_update+0x6f>:
    6cbb:	000d86        	j	6cf5 <codec_state_update+0xa9>

00006cbe <codec_state_update+0x72>:
    6cbe:	40f426        	beqi	a4, 0x100, 6d02 <codec_state_update+0xb6>
    6cc1:	00a272        	movi	a7, 0x200
    6cc4:	cd1477        	beq	a4, a7, 6c95 <codec_state_update+0x49>
    6cc7:	00a382        	movi	a8, 0x300
    6cca:	d09487        	bne	a4, a8, 6c9e <codec_state_update+0x52>
    6ccd:	1f2292        	l32i	a9, a2, 124
    6cd0:	432c           	movi.n	a3, 36
    6cd2:	081966        	bnei	a9, 1, 6cde <codec_state_update+0x92>
    6cd5:	041516        	beqz	a5, 6d1a <codec_state_update+0xce>
    6cd8:	e559a1        	l32r	a10, 23c (10cd <_Z26CLongBlock_FrequencyToTimeP28CAacDecoderStaticChannelInfoP22CAacDecoderChannelInfoP5fractiiiS4_+0x221>)
    6cdb:	3b15a7        	beq	a5, a10, 6d1a <codec_state_update+0xce>

00006cde <codec_state_update+0x92>:
    6cde:	2b6232        	s32i	a3, a2, 172
    6ce1:	f01d           	retw.n

00006ce3 <codec_state_update+0x97>:
    6ce3:	2b22c2        	l32i	a12, a2, 172
    6ce6:	b42bc7        	blt	a11, a12, 6c9e <codec_state_update+0x52>
    6ce9:	b11d66        	bnei	a13, 1, 6c9e <codec_state_update+0x52>
    6cec:	9e4c           	movi.n	a14, 73
    6cee:	2b62e2        	s32i	a14, a2, 172
    6cf1:	f01d           	retw.n

00006cf3 <codec_state_update+0xa7>:
    6cf3:	130c           	movi.n	a3, 1

00006cf5 <codec_state_update+0xa9>:
    6cf5:	fa5316        	beqz	a3, 6c9e <codec_state_update+0x52>
    6cf8:	fa2556        	bnez	a5, 6c9e <codec_state_update+0x52>
    6cfb:	3f2c           	movi.n	a15, 35
    6cfd:	2b62f2        	s32i	a15, a2, 172
    6d00:	f01d           	retw.n

00006d02 <codec_state_update+0xb6>:
    6d02:	f98556        	bnez	a5, 6c9e <codec_state_update+0x52>
    6d05:	131c           	movi.n	a3, 17
    6d07:	fff4c6        	j	6cde <codec_state_update+0x92>

00006d0a <codec_state_update+0xbe>:
    6d0a:	834950        	moveqz	a4, a9, a5
    6d0d:	2b6242        	s32i	a4, a2, 172

00006d10 <codec_state_update+0xc4>:
    6d10:	093d           	mov.n	a3, a9
    6d12:	ffd9c6        	j	6c7d <codec_state_update+0x31>

00006d15 <codec_state_update+0xc9>:
    6d15:	2b6292        	s32i	a9, a2, 172
    6d18:	f01d           	retw.n

00006d1a <codec_state_update+0xce>:
    6d1a:	532c           	movi.n	a3, 37
    6d1c:	ffef86        	j	6cde <codec_state_update+0x92>

00006d1f <codec_state_update+0xd3>:
	...

00006d20 <codec_state_validate>:
    6d20:	004136        	entry	a1, 32
    6d23:	3b2c           	movi.n	a11, 35
    6d25:	066416        	beqz	a4, 6d8f <codec_state_validate+0x6f>
    6d28:	631426        	beqi	a4, 1, 6d8f <codec_state_validate+0x6f>

00006d2b <codec_state_validate+0xb>:
    6d2b:	00a3c2        	movi	a12, 0x300
    6d2e:	00a2d2        	movi	a13, 0x200
    6d31:	b70c           	movi.n	a7, 11
    6d33:	d80c           	movi.n	a8, 13
    6d35:	192c           	movi.n	a9, 33
    6d37:	5f2c           	movi.n	a15, 37
    6d39:	ae2c           	movi.n	a14, 42
    6d3b:	fa2c           	movi.n	a10, 47
    6d3d:	e51c           	movi.n	a5, 30
    6d3f:	0fb357        	bgeu	a3, a5, 6d52 <codec_state_validate+0x32>
    6d42:	e53f51        	l32r	a5, 240 (f110 <channelConfig2NCC+0xb0>)
    6d45:	e53f61        	l32r	a6, 244 (6d20 <codec_state_validate>)
    6d48:	a05350        	addx4	a5, a3, a5
    6d4b:	0558           	l32i.n	a5, a5, 0
    6d4d:	556a           	add.n	a5, a5, a6
    6d4f:	0005a0        	jx	a5

00006d52 <codec_state_validate+0x32>:
    6d52:	e81c           	movi.n	a8, 30

00006d54 <codec_state_validate+0x34>:
    6d54:	e31c           	movi.n	a3, 30
    6d56:	862c           	movi.n	a6, 40
    6d58:	01a867        	bge	a8, a6, 6d5d <codec_state_validate+0x3d>
    6d5b:	083d           	mov.n	a3, a8

00006d5d <codec_state_validate+0x3d>:
    6d5d:	e53a51        	l32r	a5, 248 (f070 <channelConfig2NCC+0x10>)
    6d60:	344020        	extui	a4, a2, 0, 4
    6d63:	1123e0        	slli	a2, a3, 2
    6d66:	225a           	add.n	a2, a2, a5
    6d68:	0228           	l32i.n	a2, a2, 0
    6d6a:	1144f0        	slli	a4, a4, 1
    6d6d:	400400        	ssr	a4
    6d70:	912020        	srl	a2, a2
    6d73:	142020        	extui	a2, a2, 0, 2
    6d76:	22cc           	bnez.n	a2, 6d7c <codec_state_validate+0x5c>
    6d78:	020c           	movi.n	a2, 0
    6d7a:	f01d           	retw.n

00006d7c <codec_state_validate+0x5c>:
    6d7c:	051226        	beqi	a2, 1, 6d85 <codec_state_validate+0x65>
    6d7f:	193226        	beqi	a2, 3, 6d9c <codec_state_validate+0x7c>
    6d82:	042226        	beqi	a2, 2, 6d8a <codec_state_validate+0x6a>

00006d85 <codec_state_validate+0x65>:
    6d85:	e53121        	l32r	a2, 24c (ffff8002 <_end+0xfffe744a>)
    6d88:	f01d           	retw.n

00006d8a <codec_state_validate+0x6a>:
    6d8a:	c1a022        	movi	a2, 193
    6d8d:	f01d           	retw.n

00006d8f <codec_state_validate+0x6f>:
    6d8f:	561c           	movi.n	a6, 21
    6d91:	969367        	bne	a3, a6, 6d2b <codec_state_validate+0xb>
    6d94:	93ab27        	bge	a11, a2, 6d2b <codec_state_validate+0xb>
    6d97:	e52e21        	l32r	a2, 250 (ffff80c4 <_end+0xfffe750c>)
    6d9a:	f01d           	retw.n

00006d9c <codec_state_validate+0x7c>:
    6d9c:	e52d21        	l32r	a2, 250 (ffff80c4 <_end+0xfffe750c>)
    6d9f:	f01d           	retw.n

00006da1 <codec_state_validate+0x81>:
    6da1:	180c           	movi.n	a8, 1
    6da3:	ffeb46        	j	6d54 <codec_state_validate+0x34>

00006da6 <codec_state_validate+0x86>:
    6da6:	d81c           	movi.n	a8, 29
    6da8:	ffea06        	j	6d54 <codec_state_validate+0x34>

00006dab <codec_state_validate+0x8b>:
    6dab:	c81c           	movi.n	a8, 28
    6dad:	ffe8c6        	j	6d54 <codec_state_validate+0x34>

00006db0 <codec_state_validate+0x90>:
    6db0:	b81c           	movi.n	a8, 27
    6db2:	ffe786        	j	6d54 <codec_state_validate+0x34>

00006db5 <codec_state_validate+0x95>:
    6db5:	a81c           	movi.n	a8, 26
    6db7:	ffe646        	j	6d54 <codec_state_validate+0x34>

00006dba <codec_state_validate+0x9a>:
    6dba:	981c           	movi.n	a8, 25
    6dbc:	ffe506        	j	6d54 <codec_state_validate+0x34>

00006dbf <codec_state_validate+0x9f>:
    6dbf:	881c           	movi.n	a8, 24
    6dc1:	ffe3c6        	j	6d54 <codec_state_validate+0x34>

00006dc4 <codec_state_validate+0xa4>:
    6dc4:	781c           	movi.n	a8, 23
    6dc6:	ffe286        	j	6d54 <codec_state_validate+0x34>

00006dc9 <codec_state_validate+0xa9>:
    6dc9:	681c           	movi.n	a8, 22
    6dcb:	ffe146        	j	6d54 <codec_state_validate+0x34>

00006dce <codec_state_validate+0xae>:
    6dce:	581c           	movi.n	a8, 21
    6dd0:	ffe006        	j	6d54 <codec_state_validate+0x34>

00006dd3 <codec_state_validate+0xb3>:
    6dd3:	481c           	movi.n	a8, 20
    6dd5:	ffdec6        	j	6d54 <codec_state_validate+0x34>

00006dd8 <codec_state_validate+0xb8>:
    6dd8:	381c           	movi.n	a8, 19
    6dda:	ffdd86        	j	6d54 <codec_state_validate+0x34>

00006ddd <codec_state_validate+0xbd>:
    6ddd:	281c           	movi.n	a8, 18
    6ddf:	ffdc46        	j	6d54 <codec_state_validate+0x34>

00006de2 <codec_state_validate+0xc2>:
    6de2:	181c           	movi.n	a8, 17
    6de4:	ffdb06        	j	6d54 <codec_state_validate+0x34>

00006de7 <codec_state_validate+0xc7>:
    6de7:	081c           	movi.n	a8, 16
    6de9:	ffd9c6        	j	6d54 <codec_state_validate+0x34>

00006dec <codec_state_validate+0xcc>:
    6dec:	e80c           	movi.n	a8, 14
    6dee:	ffd886        	j	6d54 <codec_state_validate+0x34>

00006df1 <codec_state_validate+0xd1>:
    6df1:	c80c           	movi.n	a8, 12
    6df3:	ffd746        	j	6d54 <codec_state_validate+0x34>

00006df6 <codec_state_validate+0xd6>:
    6df6:	078d           	mov.n	a8, a7
    6df8:	ffd606        	j	6d54 <codec_state_validate+0x34>

00006dfb <codec_state_validate+0xdb>:
    6dfb:	a80c           	movi.n	a8, 10
    6dfd:	ffd4c6        	j	6d54 <codec_state_validate+0x34>

00006e00 <codec_state_validate+0xe0>:
    6e00:	ffd482        	addmi	a8, a4, 0xffffff00
    6e03:	0f0816        	beqz	a8, 6ef7 <codec_state_validate+0x1d7>
    6e06:	fdd492        	addmi	a9, a4, 0xfffffd00
    6e09:	0f4916        	beqz	a9, 6f01 <codec_state_validate+0x1e1>
    6e0c:	fed4b2        	addmi	a11, a4, 0xfffffe00
    6e0f:	3a2c           	movi.n	a10, 35
    6e11:	f81c           	movi.n	a8, 31
    6e13:	838ab0        	moveqz	a8, a10, a11
    6e16:	ffce86        	j	6d54 <codec_state_validate+0x34>

00006e19 <codec_state_validate+0xf9>:
    6e19:	880c           	movi.n	a8, 8
    6e1b:	ffcd46        	j	6d54 <codec_state_validate+0x34>

00006e1e <codec_state_validate+0xfe>:
    6e1e:	780c           	movi.n	a8, 7
    6e20:	ffcc06        	j	6d54 <codec_state_validate+0x34>

00006e23 <codec_state_validate+0x103>:
    6e23:	680c           	movi.n	a8, 6
    6e25:	ffcac6        	j	6d54 <codec_state_validate+0x34>

00006e28 <codec_state_validate+0x108>:
    6e28:	022947        	blt	a9, a4, 6e2e <codec_state_validate+0x10e>
    6e2b:	002346        	j	6ebc <codec_state_validate+0x19c>
    6e2e:	2c2c           	movi.n	a12, 34
    6e30:	022c47        	blt	a12, a4, 6e36 <codec_state_validate+0x116>
    6e33:	002a06        	j	6edf <codec_state_validate+0x1bf>
    6e36:	022a47        	blt	a10, a4, 6e3c <codec_state_validate+0x11c>
    6e39:	003406        	j	6f0d <codec_state_validate+0x1ed>
    6e3c:	0e3c           	movi.n	a14, 48
    6e3e:	022e47        	blt	a14, a4, 6e44 <codec_state_validate+0x124>
    6e41:	002686        	j	6edf <codec_state_validate+0x1bf>
    6e44:	ffa1f2        	movi	a15, 0x1ff
    6e47:	022f47        	blt	a15, a4, 6e4d <codec_state_validate+0x12d>
    6e4a:	003746        	j	6f2b <codec_state_validate+0x20b>
    6e4d:	02ad47        	bge	a13, a4, 6e53 <codec_state_validate+0x133>
    6e50:	002786        	j	6ef2 <codec_state_validate+0x1d2>

00006e53 <codec_state_validate+0x133>:
    6e53:	782c           	movi.n	a8, 39
    6e55:	ffbec6        	j	6d54 <codec_state_validate+0x34>

00006e58 <codec_state_validate+0x138>:
    6e58:	5b1477        	beq	a4, a7, 6eb7 <codec_state_validate+0x197>
    6e5b:	587426        	beqi	a4, 7, 6eb7 <codec_state_validate+0x197>
    6e5e:	55a426        	beqi	a4, 12, 6eb7 <codec_state_validate+0x197>
    6e61:	5214a7        	beq	a4, a10, 6eb7 <codec_state_validate+0x197>
    6e64:	6ff426        	beqi	a4, 0x100, 6ed7 <codec_state_validate+0x1b7>
    6e67:	06c416        	beqz	a4, 6ed7 <codec_state_validate+0x1b7>
    6e6a:	691426        	beqi	a4, 1, 6ed7 <codec_state_validate+0x1b7>
    6e6d:	662426        	beqi	a4, 2, 6ed7 <codec_state_validate+0x1b7>
    6e70:	633426        	beqi	a4, 3, 6ed7 <codec_state_validate+0x1b7>
    6e73:	604426        	beqi	a4, 4, 6ed7 <codec_state_validate+0x1b7>
    6e76:	5d1487        	beq	a4, a8, 6ed7 <codec_state_validate+0x1b7>
    6e79:	151c           	movi.n	a5, 17
    6e7b:	581457        	beq	a4, a5, 6ed7 <codec_state_validate+0x1b7>
    6e7e:	55c426        	beqi	a4, 32, 6ed7 <codec_state_validate+0x1b7>
    6e81:	521497        	beq	a4, a9, 6ed7 <codec_state_validate+0x1b7>
    6e84:	4f14b7        	beq	a4, a11, 6ed7 <codec_state_validate+0x1b7>
    6e87:	462c           	movi.n	a6, 36
    6e89:	4a1467        	beq	a4, a6, 6ed7 <codec_state_validate+0x1b7>
    6e8c:	4714f7        	beq	a4, a15, 6ed7 <codec_state_validate+0x1b7>
    6e8f:	4414e7        	beq	a4, a14, 6ed7 <codec_state_validate+0x1b7>
    6e92:	b82c           	movi.n	a8, 43
    6e94:	3f1487        	beq	a4, a8, 6ed7 <codec_state_validate+0x1b7>
    6e97:	f81c           	movi.n	a8, 31
    6e99:	ffadc6        	j	6d54 <codec_state_validate+0x34>

00006e9c <codec_state_validate+0x17c>:
    6e9c:	5c14c7        	beq	a4, a12, 6efc <codec_state_validate+0x1dc>
    6e9f:	63f426        	beqi	a4, 0x100, 6f06 <codec_state_validate+0x1e6>
    6ea2:	7514d7        	beq	a4, a13, 6f1b <codec_state_validate+0x1fb>
    6ea5:	fcd4a2        	addmi	a10, a4, 0xfffffc00
    6ea8:	292c           	movi.n	a9, 34
    6eaa:	f81c           	movi.n	a8, 31
    6eac:	8389a0        	moveqz	a8, a9, a10
    6eaf:	ffa846        	j	6d54 <codec_state_validate+0x34>

00006eb2 <codec_state_validate+0x192>:
    6eb2:	280c           	movi.n	a8, 2
    6eb4:	ffa706        	j	6d54 <codec_state_validate+0x34>

00006eb7 <codec_state_validate+0x197>:
    6eb7:	480c           	movi.n	a8, 4
    6eb9:	ffa5c6        	j	6d54 <codec_state_validate+0x34>

00006ebc <codec_state_validate+0x19c>:
    6ebc:	2494a6        	blti	a4, 10, 6ee4 <codec_state_validate+0x1c4>
    6ebf:	ab0c           	movi.n	a11, 10
    6ec1:	8eab47        	bge	a11, a4, 6e53 <codec_state_validate+0x133>
    6ec4:	27a847        	bge	a8, a4, 6eef <codec_state_validate+0x1cf>
    6ec7:	0c1c           	movi.n	a12, 16
    6ec9:	12ac47        	bge	a12, a4, 6edf <codec_state_validate+0x1bf>
    6ecc:	bd1c           	movi.n	a13, 27
    6ece:	20ad47        	bge	a13, a4, 6ef2 <codec_state_validate+0x1d2>
    6ed1:	1dc4e6        	bgei	a4, 32, 6ef2 <codec_state_validate+0x1d2>
    6ed4:	0001c6        	j	6edf <codec_state_validate+0x1bf>

00006ed7 <codec_state_validate+0x1b7>:
    6ed7:	582c           	movi.n	a8, 37
    6ed9:	ff9dc6        	j	6d54 <codec_state_validate+0x34>

00006edc <codec_state_validate+0x1bc>:
    6edc:	1254a6        	blti	a4, 5, 6ef2 <codec_state_validate+0x1d2>

00006edf <codec_state_validate+0x1bf>:
    6edf:	682c           	movi.n	a8, 38
    6ee1:	ff9bc6        	j	6d54 <codec_state_validate+0x34>

00006ee4 <codec_state_validate+0x1c4>:
    6ee4:	f474a6        	blti	a4, 7, 6edc <codec_state_validate+0x1bc>
    6ee7:	f484e6        	bgei	a4, 8, 6edf <codec_state_validate+0x1bf>

00006eea <codec_state_validate+0x1ca>:
    6eea:	580c           	movi.n	a8, 5
    6eec:	ff9906        	j	6d54 <codec_state_validate+0x34>

00006eef <codec_state_validate+0x1cf>:
    6eef:	ec1477        	beq	a4, a7, 6edf <codec_state_validate+0x1bf>

00006ef2 <codec_state_validate+0x1d2>:
    6ef2:	f81c           	movi.n	a8, 31
    6ef4:	ff9706        	j	6d54 <codec_state_validate+0x34>

00006ef7 <codec_state_validate+0x1d7>:
    6ef7:	980c           	movi.n	a8, 9
    6ef9:	ff95c6        	j	6d54 <codec_state_validate+0x34>

00006efc <codec_state_validate+0x1dc>:
    6efc:	380c           	movi.n	a8, 3
    6efe:	ff9486        	j	6d54 <codec_state_validate+0x34>

00006f01 <codec_state_validate+0x1e1>:
    6f01:	f80c           	movi.n	a8, 15
    6f03:	ff9346        	j	6d54 <codec_state_validate+0x34>

00006f06 <codec_state_validate+0x1e6>:
    6f06:	082c           	movi.n	a8, 32
    6f08:	021c           	movi.n	a2, 16
    6f0a:	ff9186        	j	6d54 <codec_state_validate+0x34>

00006f0d <codec_state_validate+0x1ed>:
    6f0d:	0fae47        	bge	a14, a4, 6f20 <codec_state_validate+0x200>
    6f10:	be2c           	movi.n	a14, 43
    6f12:	d4ae47        	bge	a14, a4, 6eea <codec_state_validate+0x1ca>
    6f15:	d994a7        	bne	a4, a10, 6ef2 <codec_state_validate+0x1d2>
    6f18:	fff386        	j	6eea <codec_state_validate+0x1ca>

00006f1b <codec_state_validate+0x1fb>:
    6f1b:	098d           	mov.n	a8, a9
    6f1d:	ff8cc6        	j	6d54 <codec_state_validate+0x34>

00006f20 <codec_state_validate+0x200>:
    6f20:	ceaf47        	bge	a15, a4, 6ef2 <codec_state_validate+0x1d2>
    6f23:	9f2c           	movi.n	a15, 41
    6f25:	c92f47        	blt	a15, a4, 6ef2 <codec_state_validate+0x1d2>
    6f28:	ffecc6        	j	6edf <codec_state_validate+0x1bf>

00006f2b <codec_state_validate+0x20b>:
    6f2b:	c3f466        	bnei	a4, 0x100, 6ef2 <codec_state_validate+0x1d2>
    6f2e:	ffee06        	j	6eea <codec_state_validate+0x1ca>

00006f31 <codec_state_validate+0x211>:
    6f31:	00000000 36000000                                .......

00006f38 <TerminateBitParser_new>:
    6f38:	004136        	entry	a1, 32
    6f3b:	02ad           	mov.n	a10, a2
    6f3d:	82e8           	l32i.n	a14, a2, 32
    6f3f:	72d8           	l32i.n	a13, a2, 28
    6f41:	00c2c4        	rur.ae_bitptr	a12
    6f44:	e4b581        	l32r	a8, 218 (6fec <WindBitBufferBidirectional>)
    6f47:	c0d3d0        	sub	a13, a3, a13
    6f4a:	c0cce0        	sub	a12, a12, a14
    6f4d:	bd1b           	addi.n	a11, a13, 1
    6f4f:	b3bdd0        	movgez	a11, a13, a13
    6f52:	21b1b0        	srai	a11, a11, 1
    6f55:	11bbc0        	slli	a11, a11, 4
    6f58:	bbca           	add.n	a11, a11, a12
    6f5a:	0008e0        	callx8	a8
    6f5d:	f01d           	retw.n

00006f5f <TerminateBitParser_new+0x27>:
	...

00006f60 <initBitParser>:
    6f60:	004136        	entry	a1, 32
    6f63:	071242        	l16ui	a4, a2, 14
    6f66:	0c0282        	l8ui	a8, a2, 12
    6f69:	2268           	l32i.n	a6, a2, 8
    6f6b:	051c           	movi.n	a5, 16
    6f6d:	c05580        	sub	a5, a5, a8
    6f70:	206607        	bbci	a6, 0, 6f94 <initBitParser+0x34>
    6f73:	0006b2        	l8ui	a11, a6, 0
    6f76:	11c480        	slli	a12, a4, 8
    6f79:	8a0c           	movi.n	a10, 8
    6f7b:	0326a4        	wur.ae_bitptr	a10
    6f7e:	460b           	addi.n	a4, a6, -1
    6f80:	20bbc0        	or	a11, a11, a12
    6f83:	f3f1b0        	wur.ae_bithead	a11
    6f86:	1c1454        	ae_db	a4, a5
    6f89:	0092c4        	rur.ae_bitptr	a9
    6f8c:	7249           	s32i.n	a4, a2, 28
    6f8e:	8299           	s32i.n	a9, a2, 32
    6f90:	042d           	mov.n	a2, a4
    6f92:	f01d           	retw.n

00006f94 <initBitParser+0x34>:
    6f94:	f3f140        	wur.ae_bithead	a4
    6f97:	fe0c           	movi.n	a14, 15
    6f99:	0326e4        	wur.ae_bitptr	a14
    6f9c:	fec642        	addi	a4, a6, -2
    6f9f:	0014f4        	ae_dbi	a4, 1
    6fa2:	1c1454        	ae_db	a4, a5
    6fa5:	00d2c4        	rur.ae_bitptr	a13
    6fa8:	7249           	s32i.n	a4, a2, 28
    6faa:	82d9           	s32i.n	a13, a2, 32
    6fac:	042d           	mov.n	a2, a4
    6fae:	f01d           	retw.n

00006fb0 <initBitParser+0x50>:
    6fb0:	004136        	entry	a1, 32
    6fb3:	6228           	l32i.n	a2, a2, 24
    6fb5:	f01d           	retw.n

00006fb7 <initBitParser+0x57>:
	...

00006fb8 <ByteAlign>:
    6fb8:	004136        	entry	a1, 32
    6fbb:	5298           	l32i.n	a9, a2, 20
    6fbd:	03a8           	l32i.n	a10, a3, 0
    6fbf:	c0aa90        	sub	a10, a10, a9
    6fc2:	ba7b           	addi.n	a11, a10, 7
    6fc4:	b3baa0        	movgez	a11, a10, a10
    6fc7:	21b3b0        	srai	a11, a11, 3
    6fca:	11bbd0        	slli	a11, a11, 3
    6fcd:	c0aab0        	sub	a10, a10, a11
    6fd0:	4a9c           	beqz.n	a10, 6fe8 <ByteAlign+0x30>
    6fd2:	e4a081        	l32r	a8, 254 (7118 <ReadBits>)
    6fd5:	8b0c           	movi.n	a11, 8
    6fd7:	c0bba0        	sub	a11, a11, a10
    6fda:	74b0b0        	extui	a11, a11, 0, 8
    6fdd:	02ad           	mov.n	a10, a2
    6fdf:	0008e0        	callx8	a8
    6fe2:	52c8           	l32i.n	a12, a2, 20
    6fe4:	03c9           	s32i.n	a12, a3, 0
    6fe6:	f01d           	retw.n

00006fe8 <ByteAlign+0x30>:
    6fe8:	0399           	s32i.n	a9, a3, 0
    6fea:	f01d           	retw.n

00006fec <WindBitBufferBidirectional>:
    6fec:	004136        	entry	a1, 32
    6fef:	0e5316        	beqz	a3, 70d8 <WindBitBufferBidirectional+0xec>
    6ff2:	5258           	l32i.n	a5, a2, 20
    6ff4:	c05530        	sub	a5, a5, a3
    6ff7:	7713a6        	blti	a3, 1, 7072 <WindBitBufferBidirectional+0x86>
    6ffa:	2268           	l32i.n	a6, a2, 8
    6ffc:	0288           	l32i.n	a8, a2, 0
    6ffe:	6248           	l32i.n	a4, a2, 24
    7000:	5259           	s32i.n	a5, a2, 20
    7002:	1278           	l32i.n	a7, a2, 4
    7004:	0c0252        	l8ui	a5, a2, 12
    7007:	443a           	add.n	a4, a4, a3
    7009:	6249           	s32i.n	a4, a2, 24
    700b:	c05350        	sub	a5, a3, a5
    700e:	10c592        	addi	a9, a5, 16
    7011:	c03780        	sub	a3, a7, a8
    7014:	331b           	addi.n	a3, a3, 1
    7016:	2713a6        	blti	a3, 1, 7041 <WindBitBufferBidirectional+0x55>
    7019:	17c5a2        	addi	a10, a5, 23
    701c:	b3a990        	movgez	a10, a9, a9
    701f:	21a3a0        	srai	a10, a10, 3
    7022:	fecab2        	addi	a11, a10, -2
    7025:	66ba           	add.n	a6, a6, a11
    7027:	2269           	s32i.n	a6, a2, 8
    7029:	022aa6        	blti	a10, 2, 702f <WindBitBufferBidirectional+0x43>
    702c:	002ac6        	j	70db <WindBitBufferBidirectional+0xef>
    702f:	0eb687        	bgeu	a6, a8, 7041 <WindBitBufferBidirectional+0x55>
    7032:	068076        	loop	a0, 703c <WindBitBufferBidirectional+0x50>
    7035:	663a           	add.n	a6, a6, a3
    7037:	2269           	s32i.n	a6, a2, 8
    7039:	04b687        	bgeu	a6, a8, 7041 <WindBitBufferBidirectional+0x55>

0000703c <WindBitBufferBidirectional+0x50>:
    703c:	fffc86        	j	7032 <WindBitBufferBidirectional+0x46>

0000703f <WindBitBufferBidirectional+0x53>:
	...

00007041 <WindBitBufferBidirectional+0x55>:
    7041:	b97b           	addi.n	a11, a9, 7
    7043:	0006c2        	l8ui	a12, a6, 0
    7046:	0752c2        	s16i	a12, a2, 14
    7049:	b3b990        	movgez	a11, a9, a9
    704c:	21b3b0        	srai	a11, a11, 3
    704f:	f0bb90        	subx8	a11, a11, a9
    7052:	bb8b           	addi.n	a11, a11, 8
    7054:	0c42b2        	s8i	a11, a2, 12
    7057:	7d13a6        	blti	a3, 1, 70d8 <WindBitBufferBidirectional+0xec>
    705a:	661b           	addi.n	a6, a6, 1
    705c:	2269           	s32i.n	a6, a2, 8
    705e:	76b767        	bgeu	a7, a6, 70d8 <WindBitBufferBidirectional+0xec>
    7061:	078076        	loop	a0, 706c <WindBitBufferBidirectional+0x80>
    7064:	c06630        	sub	a6, a6, a3
    7067:	2269           	s32i.n	a6, a2, 8
    7069:	03b767        	bgeu	a7, a6, 7070 <WindBitBufferBidirectional+0x84>

0000706c <WindBitBufferBidirectional+0x80>:
    706c:	fffc46        	j	7061 <WindBitBufferBidirectional+0x75>

0000706f <WindBitBufferBidirectional+0x83>:
	...

00007070 <WindBitBufferBidirectional+0x84>:
    7070:	f01d           	retw.n

00007072 <WindBitBufferBidirectional+0x86>:
    7072:	2268           	l32i.n	a6, a2, 8
    7074:	0288           	l32i.n	a8, a2, 0
    7076:	6248           	l32i.n	a4, a2, 24
    7078:	5259           	s32i.n	a5, a2, 20
    707a:	1278           	l32i.n	a7, a2, 4
    707c:	0c0252        	l8ui	a5, a2, 12
    707f:	443a           	add.n	a4, a4, a3
    7081:	6249           	s32i.n	a4, a2, 24
    7083:	c05530        	sub	a5, a5, a3
    7086:	957b           	addi.n	a9, a5, 7
    7088:	c03780        	sub	a3, a7, a8
    708b:	331b           	addi.n	a3, a3, 1
    708d:	1c13a6        	blti	a3, 1, 70ad <WindBitBufferBidirectional+0xc1>
    7090:	a5eb           	addi.n	a10, a5, 14
    7092:	b3a990        	movgez	a10, a9, a9
    7095:	21a3a0        	srai	a10, a10, 3
    7098:	60a0a0        	neg	a10, a10
    709b:	6a6a           	add.n	a6, a10, a6
    709d:	2269           	s32i.n	a6, a2, 8
    709f:	052a96        	bltz	a10, 70f5 <WindBitBufferBidirectional+0x109>
    70a2:	07b767        	bgeu	a7, a6, 70ad <WindBitBufferBidirectional+0xc1>

000070a5 <WindBitBufferBidirectional+0xb9>:
    70a5:	c06630        	sub	a6, a6, a3
    70a8:	2269           	s32i.n	a6, a2, 8
    70aa:	f73767        	bltu	a7, a6, 70a5 <WindBitBufferBidirectional+0xb9>

000070ad <WindBitBufferBidirectional+0xc1>:
    70ad:	b97b           	addi.n	a11, a9, 7
    70af:	0006c2        	l8ui	a12, a6, 0
    70b2:	0752c2        	s16i	a12, a2, 14
    70b5:	b3b990        	movgez	a11, a9, a9
    70b8:	21b3b0        	srai	a11, a11, 3
    70bb:	11bbd0        	slli	a11, a11, 3
    70be:	c0b9b0        	sub	a11, a9, a11
    70c1:	bb1b           	addi.n	a11, a11, 1
    70c3:	0c42b2        	s8i	a11, a2, 12
    70c6:	0e13a6        	blti	a3, 1, 70d8 <WindBitBufferBidirectional+0xec>
    70c9:	661b           	addi.n	a6, a6, 1
    70cb:	2269           	s32i.n	a6, a2, 8
    70cd:	07b767        	bgeu	a7, a6, 70d8 <WindBitBufferBidirectional+0xec>

000070d0 <WindBitBufferBidirectional+0xe4>:
    70d0:	c06630        	sub	a6, a6, a3
    70d3:	2269           	s32i.n	a6, a2, 8
    70d5:	f73767        	bltu	a7, a6, 70d0 <WindBitBufferBidirectional+0xe4>
    70d8:	f01d           	retw.n

000070da <WindBitBufferBidirectional+0xee>:
	...

000070db <WindBitBufferBidirectional+0xef>:
    70db:	023767        	bltu	a7, a6, 70e1 <WindBitBufferBidirectional+0xf5>
    70de:	ffd7c6        	j	7041 <WindBitBufferBidirectional+0x55>
    70e1:	0c8076        	loop	a0, 70f1 <WindBitBufferBidirectional+0x105>
    70e4:	c06630        	sub	a6, a6, a3
    70e7:	2269           	s32i.n	a6, a2, 8
    70e9:	023767        	bltu	a7, a6, 70ef <WindBitBufferBidirectional+0x103>
    70ec:	ffd446        	j	7041 <WindBitBufferBidirectional+0x55>
    70ef:	f03d           	nop.n

000070f1 <WindBitBufferBidirectional+0x105>:
    70f1:	fffb06        	j	70e1 <WindBitBufferBidirectional+0xf5>

000070f4 <WindBitBufferBidirectional+0x108>:
	...

000070f5 <WindBitBufferBidirectional+0x109>:
    70f5:	b4b687        	bgeu	a6, a8, 70ad <WindBitBufferBidirectional+0xc1>

000070f8 <WindBitBufferBidirectional+0x10c>:
    70f8:	663a           	add.n	a6, a6, a3
    70fa:	2269           	s32i.n	a6, a2, 8
    70fc:	f83687        	bltu	a6, a8, 70f8 <WindBitBufferBidirectional+0x10c>
    70ff:	ffea86        	j	70ad <WindBitBufferBidirectional+0xc1>

00007102 <WindBitBufferBidirectional+0x116>:
	...

00007104 <CopyBitBufState>:
    7104:	004136        	entry	a1, 32
    7107:	03ad           	mov.n	a10, a3
    7109:	e3f781        	l32r	a8, e8 (418 <memcpy>)
    710c:	02bd           	mov.n	a11, a2
    710e:	4c2c           	movi.n	a12, 36
    7110:	0008e0        	callx8	a8
    7113:	f01d           	retw.n

00007115 <CopyBitBufState+0x11>:
    7115:	000000                                        ...

00007118 <ReadBits>:
    7118:	004136        	entry	a1, 32
    711b:	100282        	l8ui	a8, a2, 16
    711e:	024d           	mov.n	a4, a2
    7120:	689c           	beqz.n	a8, 713a <ReadBits+0x22>
    7122:	0c0222        	l8ui	a2, a2, 12
    7125:	e43c81        	l32r	a8, 218 (6fec <WindBitBufferBidirectional>)
    7128:	04ad           	mov.n	a10, a4
    712a:	60b020        	neg	a11, a2
    712d:	0008e0        	callx8	a8
    7130:	e43a81        	l32r	a8, 218 (6fec <WindBitBufferBidirectional>)
    7133:	02bd           	mov.n	a11, a2
    7135:	04ad           	mov.n	a10, a4
    7137:	0008e0        	callx8	a8

0000713a <ReadBits+0x22>:
    713a:	890c           	movi.n	a9, 8
    713c:	23b937        	bgeu	a9, a3, 7163 <ReadBits+0x4b>
    713f:	020c           	movi.n	a2, 0

00007141 <ReadBits+0x29>:
    7141:	04ad           	mov.n	a10, a4
    7143:	8b0c           	movi.n	a11, 8
    7145:	e44381        	l32r	a8, 254 (7118 <ReadBits>)
    7148:	f8c332        	addi	a3, a3, -8
    714b:	743030        	extui	a3, a3, 0, 8
    714e:	0008e0        	callx8	a8
    7151:	880c           	movi.n	a8, 8
    7153:	401300        	ssl	a3
    7156:	a19a00        	sll	a9, a10
    7159:	229a           	add.n	a2, a2, a9
    715b:	e23837        	bltu	a8, a3, 7141 <ReadBits+0x29>
    715e:	0000c6        	j	7165 <ReadBits+0x4d>

00007161 <ReadBits+0x49>:
	...

00007163 <ReadBits+0x4b>:
    7163:	020c           	movi.n	a2, 0

00007165 <ReadBits+0x4d>:
    7165:	0c04a2        	l8ui	a10, a4, 12
    7168:	8b0c           	movi.n	a11, 8
    716a:	3a3ba7        	bltu	a11, a10, 71a8 <ReadBits+0x90>
    716d:	04c8           	l32i.n	a12, a4, 0
    716f:	0714e2        	l16ui	a14, a4, 14
    7172:	24a8           	l32i.n	a10, a4, 8
    7174:	14b8           	l32i.n	a11, a4, 4
    7176:	11ee80        	slli	a14, a14, 8
    7179:	000ad2        	l8ui	a13, a10, 0
    717c:	c0cbc0        	sub	a12, a11, a12
    717f:	cc1b           	addi.n	a12, a12, 1
    7181:	20dde0        	or	a13, a13, a14
    7184:	0754d2        	s16i	a13, a4, 14
    7187:	151ca6        	blti	a12, 1, 71a0 <ReadBits+0x88>
    718a:	aa1b           	addi.n	a10, a10, 1
    718c:	24a9           	s32i.n	a10, a4, 8
    718e:	0ebba7        	bgeu	a11, a10, 71a0 <ReadBits+0x88>
    7191:	078076        	loop	a0, 719c <ReadBits+0x84>
    7194:	c0aac0        	sub	a10, a10, a12
    7197:	24a9           	s32i.n	a10, a4, 8
    7199:	03bba7        	bgeu	a11, a10, 71a0 <ReadBits+0x88>

0000719c <ReadBits+0x84>:
    719c:	fffc46        	j	7191 <ReadBits+0x79>

0000719f <ReadBits+0x87>:
	...

000071a0 <ReadBits+0x88>:
    71a0:	0c04a2        	l8ui	a10, a4, 12
    71a3:	aa8b           	addi.n	a10, a10, 8
    71a5:	0c44a2        	s8i	a10, a4, 12

000071a8 <ReadBits+0x90>:
    71a8:	1d0c           	movi.n	a13, 1
    71aa:	6488           	l32i.n	a8, a4, 24
    71ac:	54b8           	l32i.n	a11, a4, 20
    71ae:	0714f2        	l16ui	a15, a4, 14
    71b1:	c0ca30        	sub	a12, a10, a3
    71b4:	74c0c0        	extui	a12, a12, 0, 8
    71b7:	0c44c2        	s8i	a12, a4, 12
    71ba:	400c00        	ssr	a12
    71bd:	b1f0f0        	sra	a15, a15
    71c0:	c0bb30        	sub	a11, a11, a3
    71c3:	883a           	add.n	a8, a8, a3
    71c5:	6489           	s32i.n	a8, a4, 24
    71c7:	54b9           	s32i.n	a11, a4, 20
    71c9:	401300        	ssl	a3
    71cc:	a1ed00        	sll	a14, a13
    71cf:	ee0b           	addi.n	a14, a14, -1
    71d1:	10eef0        	and	a14, a14, a15
    71d4:	22ea           	add.n	a2, a2, a14
    71d6:	062bc7        	blt	a11, a12, 71e0 <ReadBits+0xc8>
    71d9:	0d0c           	movi.n	a13, 0
    71db:	1044d2        	s8i	a13, a4, 16
    71de:	f01d           	retw.n

000071e0 <ReadBits+0xc8>:
    71e0:	1044d2        	s8i	a13, a4, 16
    71e3:	f01d           	retw.n

000071e5 <ReadBits+0xcd>:
    71e5:	000000                                        ...

000071e8 <CreateInitializedBitBuffer>:
    71e8:	004136        	entry	a1, 32
    71eb:	0239           	s32i.n	a3, a2, 0
    71ed:	2239           	s32i.n	a3, a2, 8
    71ef:	5249           	s32i.n	a4, a2, 20
    71f1:	080c           	movi.n	a8, 0
    71f3:	547b           	addi.n	a5, a4, 7
    71f5:	415350        	srli	a5, a5, 3
    71f8:	075282        	s16i	a8, a2, 14
    71fb:	0c4282        	s8i	a8, a2, 12
    71fe:	104282        	s8i	a8, a2, 16
    7201:	6289           	s32i.n	a8, a2, 24
    7203:	535a           	add.n	a5, a3, a5
    7205:	550b           	addi.n	a5, a5, -1
    7207:	1259           	s32i.n	a5, a2, 4
    7209:	f01d           	retw.n

0000720b <CreateInitializedBitBuffer+0x23>:
	...

0000720c <_Z12fft_rad2_ditP5fractiPKS_iPiS3_iiS0_>:
    720c:	00a136        	entry	a1, 80
    720f:	4159           	s32i.n	a5, a1, 16
    7211:	f7c3c2        	addi	a12, a3, -9
    7214:	401300        	ssl	a3
    7217:	04ad           	mov.n	a10, a4
    7219:	1b0c           	movi.n	a11, 1
    721b:	06b9           	s32i.n	a11, a6, 0
    721d:	074d           	mov.n	a4, a7
    721f:	e40f61        	l32r	a6, 25c (103c0 <bit_rev_table_long>)
    7222:	a1eb00        	sll	a14, a11
    7225:	0739           	s32i.n	a3, a7, 0
    7227:	119ef0        	slli	a9, a14, 1
    722a:	891b           	addi.n	a8, a9, 1
    722c:	b38990        	movgez	a8, a9, a9
    722f:	e40a91        	l32r	a9, 258 (10340 <bit_rev_table_short>)
    7232:	fc208f827e 	{ addi	a7, a2, -8; ae_zerop48	aep0 }
    7237:	218180        	srai	a8, a8, 1
    723a:	9369c0        	movnez	a6, a9, a12
    723d:	08a876        	loopgtz	a8, 7249 <_Z12fft_rad2_ditP5fractiPKS_iPiS3_iiS0_+0x3d>
    7240:	54a714        	ae_lp24x2.iu	aep2, a7, 8
    7243:	079a14        	ae_abssp24s	aep1, aep2
    7246:	070904        	ae_maxp24s	aep0, aep0, aep1

00007249 <_Z12fft_rad2_ditP5fractiPKS_iPiS3_iiS0_+0x3d>:
    7249:	0316b4        	wur.ae_sar	a11
    724c:	1a88b4        	ae_selp24.hh	aep3, aep0, aep0
    724f:	d9624000cf 	{ movi	a12, 0; ae_maxp24s	aep3, aep0, aep3 }
    7254:	fc6c14214f 	{ s32i.n	a4, a1, 8; ae_cvtq48p24s.l	aeq0, aep3 }
    7259:	364d04        	ae_nsaq56s	a13, aeq0
    725c:	1129           	s32i.n	a2, a1, 4
    725e:	7f1c           	movi.n	a15, 23
    7260:	f8cdd2        	addi	a13, a13, -8
    7263:	43ddf0        	min	a13, a13, a15
    7266:	31d9           	s32i.n	a13, a1, 12
    7268:	061da6        	blti	a13, 1, 7272 <_Z12fft_rad2_ditP5fractiPKS_iPiS3_iiS0_+0x66>
    726b:	0316c4        	wur.ae_sar	a12
    726e:	f30b           	addi.n	a15, a3, -1
    7270:	04f9           	s32i.n	a15, a4, 0

00007272 <_Z12fft_rad2_ditP5fractiPKS_iPiS3_iiS0_+0x66>:
    7272:	1128           	l32i.n	a2, a1, 4
    7274:	162192        	l32i	a9, a1, 88
    7277:	9199           	s32i.n	a9, a1, 36
    7279:	021ee6        	bgei	a14, 1, 727f <_Z12fft_rad2_ditP5fractiPKS_iPiS3_iiS0_+0x73>
    727c:	002406        	j	7310 <_Z12fft_rad2_ditP5fractiPKS_iPiS3_iiS0_+0x104>
    727f:	094d           	mov.n	a4, a9
    7281:	9199           	s32i.n	a9, a1, 36
    7283:	07ced2        	addi	a13, a14, 7
    7286:	21d3d0        	srai	a13, a13, 3
    7289:	83ad76        	loopgtz	a13, 7310 <_Z12fft_rad2_ditP5fractiPKS_iPiS3_iiS0_+0x104>
    728c:	26cd           	ae_l16si.n	a12, a6, 0
    728e:	029692        	l16si	a9, a6, 4
    7291:	059682        	l16si	a8, a6, 10
    7294:	36bd           	ae_l16si.n	a11, a6, 2
    7296:	079652        	l16si	a5, a6, 14
    7299:	0696f2        	l16si	a15, a6, 12
    729c:	049672        	l16si	a7, a6, 8
    729f:	1155e0        	slli	a5, a5, 2
    72a2:	11ffe0        	slli	a15, a15, 2
    72a5:	1177e0        	slli	a7, a7, 2
    72a8:	11bbe0        	slli	a11, a11, 2
    72ab:	1188e0        	slli	a8, a8, 2
    72ae:	1199e0        	slli	a9, a9, 2
    72b1:	11cce0        	slli	a12, a12, 2
    72b4:	5502c4        	ae_lp24x2.x	aep0, a2, a12
    72b7:	555294        	ae_lp24x2.x	aep5, a2, a9
    72ba:	fab7dfb28f 	{ ae_lp24x2.x	aep3, a2, a8; ae_srasp24	aep5, aep5 }
    72bf:	f9afdf92bf 	{ ae_lp24x2.x	aep1, a2, a11; ae_srasp24	aep3, aep3 }
    72c4:	f8a7e036be 	{ l16si	a11, a6, 6; ae_srasp24	aep1, aep1 }
    72c9:	f8a384044e 	{ addi	a4, a4, 64; ae_srasp24	aep0, aep0 }
    72ce:	df22dfa27f 	{ ae_lp24x2.x	aep2, a2, a7; ae_subsp24s	aep7, aep0, aep1 }
    72d3:	11bbe0        	slli	a11, a11, 2
    72d6:	f9abb7749f 	{ ae_sp24x2s.i	aep7, a4, -56; ae_srasp24	aep2, aep2 }
    72db:	d8211ff2ff 	{ ae_lp24x2.x	aep7, a2, a15; ae_addsp24s	aep0, aep0, aep1 }
    72e0:	fbbfdfe2bf 	{ ae_lp24x2.x	aep6, a2, a11; ae_srasp24	aep7, aep7 }
    72e5:	fbbbb7048f 	{ ae_sp24x2s.i	aep0, a4, -64; ae_srasp24	aep6, aep6 }
    72ea:	dc6adf825f 	{ ae_lp24x2.x	aep0, a2, a5; ae_subsp24s	aep1, aep2, aep3 }
    72ef:	f8a381066e 	{ addi	a6, a6, 16; ae_srasp24	aep0, aep0 }
    72f4:	ded6b714df 	{ ae_sp24x2s.i	aep1, a4, -24; ae_subsp24s	aep4, aep5, aep6 }
    72f9:	d9693744bf 	{ ae_sp24x2s.i	aep4, a4, -40; ae_addsp24s	aep2, aep2, aep3 }
    72fe:	dad57724cf 	{ ae_sp24x2s.i	aep2, a4, -32; ae_addsp24s	aep5, aep5, aep6 }
    7303:	de1ef754af 	{ ae_sp24x2s.i	aep5, a4, -48; ae_subsp24s	aep5, aep7, aep0 }
    7308:	db1d3754ff 	{ ae_sp24x2s.i	aep5, a4, -8; ae_addsp24s	aep6, aep7, aep0 }
    730d:	5664e4        	ae_sp24x2s.i	aep6, a4, -16

00007310 <_Z12fft_rad2_ditP5fractiPKS_iPiS3_iiS0_+0x104>:
    7310:	9198           	l32i.n	a9, a1, 36
    7312:	0c0c           	movi.n	a12, 0
    7314:	fec3d2        	addi	a13, a3, -2
    7317:	1129           	s32i.n	a2, a1, 4
    7319:	3188           	l32i.n	a8, a1, 12
    731b:	1b0c           	movi.n	a11, 1
    731d:	0316b4        	wur.ae_sar	a11
    7320:	0628a6        	blti	a8, 2, 732a <_Z12fft_rad2_ditP5fractiPKS_iPiS3_iiS0_+0x11e>
    7323:	21f8           	l32i.n	a15, a1, 8
    7325:	0316c4        	wur.ae_sar	a12
    7328:	0fd9           	s32i.n	a13, a15, 0

0000732a <_Z12fft_rad2_ditP5fractiPKS_iPiS3_iiS0_+0x11e>:
    732a:	541904        	ae_lp24x2.i	aep1, a9, 0
    732d:	f8a7f0092f 	{ ae_lp24x2.i	aep0, a9, 16; ae_srasp24	aep1, aep1 }
    7332:	f8a3b0112e 	{ l32i	a2, a1, 4; ae_srasp24	aep0, aep0 }
    7337:	401ea6        	blti	a14, 1, 737b <_Z12fft_rad2_ditP5fractiPKS_iPiS3_iiS0_+0x16f>
    733a:	8e3b           	addi.n	a8, a14, 3
    733c:	096d           	mov.n	a6, a9
    733e:	e8c272        	addi	a7, a2, -24
    7341:	f0c242        	addi	a4, a2, -16
    7344:	e8c992        	addi	a9, a9, -24
    7347:	218280        	srai	a8, a8, 2
    734a:	2da876        	loopgtz	a8, 737b <_Z12fft_rad2_ditP5fractiPKS_iPiS3_iiS0_+0x16f>
    734d:	0790e4        	ae_subsp24s	aep6, aep1, aep0
    7350:	db0570c94f 	{ ae_lp24x2.iu	aep4, a9, 32; ae_addsp24s	aep7, aep1, aep0 }
    7355:	fab3b0964f 	{ ae_lp24x2.iu	aep1, a6, 32; ae_srasp24	aep4, aep4 }
    735a:	f8a7f0592f 	{ ae_lp24x2.i	aep5, a9, 16; ae_srasp24	aep1, aep1 }
    735f:	078d24        	ae_negsp24s	aep2, aep5
    7362:	de55f7742f 	{ ae_sp24x2s.i	aep7, a4, 16; ae_selp24.lh	aep5, aep5, aep2 }
    7367:	fab7f0062f 	{ ae_lp24x2.i	aep0, a6, 16; ae_srasp24	aep5, aep5 }
    736c:	d9b177e44f 	{ ae_sp24x2s.iu	aep6, a4, 32; ae_addsp24s	aep3, aep4, aep5 }
    7371:	ddb2b7b74f 	{ ae_sp24x2s.iu	aep3, a7, 32; ae_subsp24s	aep2, aep4, aep5 }
    7376:	f8a3b7272f 	{ ae_sp24x2s.i	aep2, a7, 16; ae_srasp24	aep0, aep0 }

0000737b <_Z12fft_rad2_ditP5fractiPKS_iPiS3_iiS0_+0x16f>:
    737b:	4148           	l32i.n	a4, a1, 16
    737d:	401d00        	ssl	a13
    7380:	a1db00        	sll	a13, a11
    7383:	1144f0        	slli	a4, a4, 1
    7386:	214240        	srai	a4, a4, 2
    7389:	0233e6        	bgei	a3, 3, 738f <_Z12fft_rad2_ditP5fractiPKS_iPiS3_iiS0_+0x183>
    738c:	005206        	j	74d8 <_Z12fft_rad2_ditP5fractiPKS_iPiS3_iiS0_+0x2cc>
    738f:	01a9           	s32i.n	a10, a1, 0
    7391:	1129           	s32i.n	a2, a1, 4
    7393:	41b8           	l32i.n	a11, a1, 16
    7395:	e33f81        	l32r	a8, 94 (400000 <_end+0x3ef448>)
    7398:	390c           	movi.n	a9, 3
    739a:	11cef0        	slli	a12, a14, 1
    739d:	f31b           	addi.n	a15, a3, 1
    739f:	61f9           	s32i.n	a15, a1, 24
    73a1:	71c9           	s32i.n	a12, a1, 28
    73a3:	8199           	s32i.n	a9, a1, 32
    73a5:	39c884        	ae_movpa24x2	aep4, a8, a8
    73a8:	490c           	movi.n	a9, 4
    73aa:	a0bba0        	addx4	a11, a11, a10
    73ad:	51b9           	s32i.n	a11, a1, 20

000073af <_Z12fft_rad2_ditP5fractiPKS_iPiS3_iiS0_+0x1a3>:
    73af:	21d1d0        	srai	a13, a13, 1
    73b2:	214140        	srai	a4, a4, 1
    73b5:	7138           	l32i.n	a3, a1, 28
    73b7:	1199f0        	slli	a9, a9, 1
    73ba:	1158           	l32i.n	a5, a1, 4
    73bc:	216190        	srai	a6, a9, 1
    73bf:	c03360        	sub	a3, a3, a6
    73c2:	11e3e0        	slli	a14, a3, 2
    73c5:	a03350        	addx4	a3, a3, a5
    73c8:	f8c332        	addi	a3, a3, -8
    73cb:	035d           	mov.n	a5, a3
    73cd:	0216e6        	bgei	a6, 1, 73d3 <_Z12fft_rad2_ditP5fractiPKS_iPiS3_iiS0_+0x1c7>
    73d0:	003d86        	j	74ca <_Z12fft_rad2_ditP5fractiPKS_iPiS3_iiS0_+0x2be>
    73d3:	a199           	s32i.n	a9, a1, 40
    73d5:	51a8           	l32i.n	a10, a1, 20
    73d7:	01b8           	l32i.n	a11, a1, 0
    73d9:	1179e0        	slli	a7, a9, 2
    73dc:	2d0b           	addi.n	a2, a13, -1
    73de:	0c0c           	movi.n	a12, 0
    73e0:	c085e0        	sub	a8, a5, a14
    73e3:	11f4f0        	slli	a15, a4, 1
    73e6:	11ffe0        	slli	a15, a15, 2
    73e9:	08c852        	addi	a5, a8, 8

000073ec <_Z12fft_rad2_ditP5fractiPKS_iPiS3_iiS0_+0x1e0>:
    73ec:	1196e0        	slli	a9, a6, 2
    73ef:	4c6a04        	ae_lp24.i	aep6, a10, 0
    73f2:	4c5b04        	ae_lp24.i	aep5, a11, 0
    73f5:	ded660657f 	{ ae_lp24x2.xu	aep6, a5, a7; ae_selp24.ll	aep5, aep5, aep6 }
    73fa:	04e5a4        	ae_mulzsap24s.hh.ll	aeq2, aep6, aep5
    73fd:	f2bbf0181f 	{ ae_lp24x2.i	aep1, a8, 8; ae_mulzaap24s.hl.lh	aeq1, aep6, aep5 }
    7402:	011c14        	ae_mulafp24s.hl	aeq1, aep1, aep4
    7405:	019434        	ae_mulafp24s.ll	aeq2, aep1, aep4
    7408:	fb6fd533ef 	{ sub	a3, a3, a14; ae_roundsp24q48asym	aep7, aeq1 }
    740d:	f87795559f 	{ sub	a5, a5, a9; ae_roundsp24q48asym	aep0, aeq2 }
    7412:	e9b835033f 	{ ae_sp24s.l.i	aep0, a3, 12; ae_mulasfp24s.hh.ll	aeq2, aep6, aep5 }
    7417:	f2ba75f32f 	{ ae_sp24s.l.iu	aep7, a3, 8; ae_mulssfp24s.hl.lh	aeq1, aep6, aep5 }
    741c:	f877f0250f 	{ ae_lp24x2.i	aep2, a5, 0; ae_roundsp24q48asym	aep1, aeq2 }
    7421:	f96fe0657f 	{ ae_lp24x2.xu	aep6, a5, a7; ae_roundsp24q48asym	aep3, aeq1 }
    7426:	f4b9c02cce 	{ addi	a12, a12, 2; ae_mulzsap24s.hh.ll	aeq1, aep6, aep5 }
    742b:	f6bb15aaff 	{ sub	a10, a10, a15; ae_mulzssp24s.hl.lh	aeq0, aep6, aep5 }
    7430:	e28b90bbff 	{ add	a11, a11, a15; ae_mulafp24s.ll	aeq0, aep2, aep4 }
    7435:	e28b68337f 	{ ae_sp24s.l.xu	aep3, a3, a7; ae_mulafp24s.hl	aeq1, aep2, aep4 }
    743a:	fb67f5131f 	{ ae_sp24s.l.i	aep1, a3, 4; ae_roundsp24q48asym	aep7, aeq0 }
    743f:	f86f95339f 	{ sub	a3, a3, a9; ae_roundsp24q48asym	aep0, aeq1 }
    7444:	e8b875030f 	{ ae_sp24s.l.i	aep0, a3, 0; ae_mulasfp24s.hh.ll	aeq1, aep6, aep5 }
    7449:	e2b935731f 	{ ae_sp24s.l.i	aep7, a3, 4; ae_mulaafp24s.hl.lh	aeq0, aep6, aep5 }
    744e:	602da6        	blti	a13, 2, 74b2 <_Z12fft_rad2_ditP5fractiPKS_iPiS3_iiS0_+0x2a6>
    7451:	5da276        	loopgtz	a2, 74b2 <_Z12fft_rad2_ditP5fractiPKS_iPiS3_iiS0_+0x2a6>
    7454:	a05650        	addx4	a5, a6, a5
    7457:	fb6fb0350f 	{ ae_lp24x2.i	aep3, a5, 0; ae_roundsp24q48asym	aep6, aeq1 }
    745c:	f967a0757f 	{ ae_lp24x2.xu	aep7, a5, a7; ae_roundsp24q48asym	aep2, aeq0 }
    7461:	04fd34        	ae_mulzaap24s.hl.lh	aeq3, aep7, aep5
    7464:	f4bda8637f 	{ ae_sp24s.l.xu	aep6, a3, a7; ae_mulzsap24s.hh.ll	aeq0, aep7, aep5 }
    7469:	a08630        	addx4	a8, a6, a3
    746c:	013434        	ae_mulafp24s.ll	aeq0, aep3, aep4
    746f:	01bc14        	ae_mulafp24s.hl	aeq3, aep3, aep4
    7472:	f867d5559f 	{ sub	a5, a5, a9; ae_roundsp24q48asym	aep1, aeq0 }
    7477:	f87fb5231f 	{ ae_sp24s.l.i	aep2, a3, 4; ae_roundsp24q48asym	aep0, aeq3 }
    747c:	f3be75080f 	{ ae_sp24s.l.i	aep0, a8, 0; ae_mulssfp24s.hl.lh	aeq3, aep7, aep5 }
    7481:	e8bc35181f 	{ ae_sp24s.l.i	aep1, a8, 4; ae_mulasfp24s.hh.ll	aeq0, aep7, aep5 }
    7486:	fb7fb0350f 	{ ae_lp24x2.i	aep3, a5, 0; ae_roundsp24q48asym	aep6, aeq3 }
    748b:	f967a0757f 	{ ae_lp24x2.xu	aep7, a5, a7; ae_roundsp24q48asym	aep2, aeq0 }
    7490:	047da4        	ae_mulzsap24s.hh.ll	aeq1, aep7, aep5
    7493:	0475f4        	ae_mulzssp24s.hl.lh	aeq0, aep7, aep5
    7496:	013434        	ae_mulafp24s.ll	aeq0, aep3, aep4
    7499:	e28f68687f 	{ ae_sp24s.l.xu	aep6, a8, a7; ae_mulafp24s.hl	aeq1, aep3, aep4 }
    749e:	f867b5281f 	{ ae_sp24s.l.i	aep2, a8, 4; ae_roundsp24q48asym	aep0, aeq0 }
    74a3:	f86fd5389f 	{ sub	a3, a8, a9; ae_roundsp24q48asym	aep1, aeq1 }
    74a8:	e8bc75130f 	{ ae_sp24s.l.i	aep1, a3, 0; ae_mulasfp24s.hh.ll	aeq1, aep7, aep5 }
    74ad:	e2bd35031f 	{ ae_sp24s.l.i	aep0, a3, 4; ae_mulaafp24s.hl.lh	aeq0, aep7, aep5 }

000074b2 <_Z12fft_rad2_ditP5fractiPKS_iPiS3_iiS0_+0x2a6>:
    74b2:	c085e0        	sub	a8, a5, a14
    74b5:	f86f80885e 	{ addi	a5, a8, 8; ae_roundsp24q48asym	aep0, aeq1 }
    74ba:	fb67e8037f 	{ ae_sp24s.l.xu	aep0, a3, a7; ae_roundsp24q48asym	aep7, aeq0 }
    74bf:	4e7314        	ae_sp24s.l.i	aep7, a3, 4
    74c2:	02ac67        	bge	a12, a6, 74c8 <_Z12fft_rad2_ditP5fractiPKS_iPiS3_iiS0_+0x2bc>
    74c5:	ffc8c6        	j	73ec <_Z12fft_rad2_ditP5fractiPKS_iPiS3_iiS0_+0x1e0>
    74c8:	a198           	l32i.n	a9, a1, 40

000074ca <_Z12fft_rad2_ditP5fractiPKS_iPiS3_iiS0_+0x2be>:
    74ca:	81a8           	l32i.n	a10, a1, 32
    74cc:	6188           	l32i.n	a8, a1, 24
    74ce:	aa1b           	addi.n	a10, a10, 1
    74d0:	81a9           	s32i.n	a10, a1, 32
    74d2:	c088a0        	sub	a8, a8, a10
    74d5:	ed6856        	bnez	a8, 73af <_Z12fft_rad2_ditP5fractiPKS_iPiS3_iiS0_+0x1a3>

000074d8 <_Z12fft_rad2_ditP5fractiPKS_iPiS3_iiS0_+0x2cc>:
    74d8:	f01d           	retw.n

000074da <_Z12fft_rad2_ditP5fractiPKS_iPiS3_iiS0_+0x2ce>:
	...

000074dc <_Z6divideii>:
    74dc:	006136        	entry	a1, 48
    74df:	e33461        	l32r	a6, 1b0 (7fffffff <_end+0x7ffef447>)
    74e2:	4b0c           	movi.n	a11, 4
    74e4:	609130        	abs	a9, a3
    74e7:	1199           	s32i.n	a9, a1, 4
    74e9:	60e1b4        	ae_lq32f.x	aeq3, a1, a11
    74ec:	367704        	ae_nsaq56s	a7, aeq3
    74ef:	60a120        	abs	a10, a2
    74f2:	e35b91        	l32r	a9, 260 (10b68 <mul8>)
    74f5:	f8c772        	addi	a7, a7, -8
    74f8:	34f794        	ae_sllaq56	aeq3, aeq3, a7
    74fb:	faffc0005f 	{ movi	a5, 0; ae_roundsp24q48sym	aep5, aeq3 }
    7500:	4f51b4        	ae_sp24s.l.x	aep5, a1, a11
    7503:	1188           	l32i.n	a8, a1, 4
    7505:	0998           	l32i.n	a9, a9, 0
    7507:	01a9           	s32i.n	a10, a1, 0
    7509:	258380        	extui	a8, a8, 19, 3
    750c:	a08890        	addx4	a8, a8, a9
    750f:	4c4804        	ae_lp24.i	aep4, a8, 0
    7512:	ea94fbd15f 	{ ae_lq32f.x	aeq2, a1, a5; ae_mulfp24s.hl	aeq1, aep5, aep4 }
    7517:	34a794        	ae_sllaq56	aeq2, aeq2, a7
    751a:	f9f7ba905f 	{ ae_slliq56	aeq1, aeq1, 1; ae_roundsp24q48sym	aep2, aeq2 }
    751f:	1b9c34        	ae_roundsp24q48sym	aep3, aeq1
    7522:	0a0384        	ae_cvtq48p24s.l	aeq0, aep3
    7525:	eb88fb001f 	{ ae_sraiq56	aeq0, aeq0, 1; ae_mulfp24s.hl	aeq3, aep2, aep4 }
    752a:	f8e7eba66f 	{ ae_truncp24a32x2	aep2, a6, a6; ae_roundsp24q48sym	aep1, aeq0 }
    752f:	072194        	ae_subp24	aep1, aep2, aep1
    7532:	01b154        	ae_mulfp24s.hl	aeq2, aep3, aep1
    7535:	35f054        	ae_slliq56	aeq3, aeq3, 1
    7538:	f8ffbaa09f 	{ ae_slliq56	aeq2, aeq2, 1; ae_roundsp24q48sym	aep0, aeq3 }
    753d:	1bac74        	ae_roundsp24q48sym	aep7, aeq2
    7540:	0a4784        	ae_cvtq48p24s.l	aeq1, aep7
    7543:	ea20bb105f 	{ ae_sraiq56	aeq1, aeq1, 1; ae_mulfp24s.hl	aeq0, aep0, aep1 }
    7548:	1b9c64        	ae_roundsp24q48sym	aep6, aeq1
    754b:	0726e4        	ae_subp24	aep6, aep2, aep6
    754e:	ebdcfa801f 	{ ae_slliq56	aeq0, aeq0, 1; ae_mulfp24s.hl	aeq3, aep7, aep6 }
    7553:	1b8c54        	ae_roundsp24q48sym	aep5, aeq0
    7556:	ebd4bab0df 	{ ae_slliq56	aeq3, aeq3, 1; ae_mulfp24s.hl	aeq2, aep5, aep6 }
    755b:	1bbc44        	ae_roundsp24q48sym	aep4, aeq3
    755e:	fd8c3aa09f 	{ ae_slliq56	aeq2, aeq2, 1; ae_cvtq48p24s.l	aeq1, aep4 }
    7563:	f8f7fb105f 	{ ae_sraiq56	aeq1, aeq1, 1; ae_roundsp24q48sym	aep1, aeq2 }
    7568:	1b9c34        	ae_roundsp24q48sym	aep3, aeq1
    756b:	0723a4        	ae_subp24	aep2, aep2, aep3
    756e:	011254        	ae_mulfp24s.hl	aeq0, aep1, aep2
    7571:	350054        	ae_slliq56	aeq0, aeq0, 1
    7574:	1b8c04        	ae_roundsp24q48sym	aep0, aeq0
    7577:	4f0154        	ae_sp24s.l.x	aep0, a1, a5
    757a:	0148           	l32i.n	a4, a1, 0
    757c:	305320        	xor	a5, a3, a2
    757f:	315750        	srai	a5, a5, 23
    7582:	602040        	neg	a2, a4
    7585:	832450        	moveqz	a2, a4, a5
    7588:	f01d           	retw.n

0000758a <_Z6divideii+0xae>:
	...

0000758c <_Z6divideii+0xb0>:
    758c:	004136        	entry	a1, 32
    758f:	e2be81        	l32r	a8, 88 (7fffff <_end+0x7ef447>)
    7592:	060c           	movi.n	a6, 0
    7594:	317f30        	srai	a7, a3, 31
    7597:	006796        	bltz	a7, 75a1 <_Z6divideii+0xc5>
    759a:	17cc           	bnez.n	a7, 759f <_Z6divideii+0xc3>
    759c:	01b837        	bgeu	a8, a3, 75a1 <_Z6divideii+0xc5>

0000759f <_Z6divideii+0xc3>:
    759f:	160c           	movi.n	a6, 1

000075a1 <_Z6divideii+0xc5>:
    75a1:	568c           	beqz.n	a6, 75aa <_Z6divideii+0xce>
    75a3:	e2b931        	l32r	a3, 88 (7fffff <_end+0x7ef447>)

000075a6 <_Z6divideii+0xca>:
    75a6:	0239           	s32i.n	a3, a2, 0
    75a8:	f01d           	retw.n

000075aa <_Z6divideii+0xce>:
    75aa:	608030        	neg	a8, a3
    75ad:	060c           	movi.n	a6, 0
    75af:	f57c           	movi.n	a5, -1
    75b1:	305750        	xor	a5, a7, a5
    75b4:	e2b671        	l32r	a7, 8c (800000 <_end+0x7ef448>)
    75b7:	451b           	addi.n	a4, a5, 1
    75b9:	835430        	moveqz	a5, a4, a3
    75bc:	006596        	bltz	a5, 75c6 <_Z6divideii+0xea>
    75bf:	15cc           	bnez.n	a5, 75c4 <_Z6divideii+0xe8>
    75c1:	01b787        	bgeu	a7, a8, 75c6 <_Z6divideii+0xea>

000075c4 <_Z6divideii+0xe8>:
    75c4:	160c           	movi.n	a6, 1

000075c6 <_Z6divideii+0xea>:
    75c6:	e2b281        	l32r	a8, 90 (ff800000 <_end+0xff7ef448>)
    75c9:	933860        	movnez	a3, a8, a6
    75cc:	fff586        	j	75a6 <_Z6divideii+0xca>

000075cf <_Z6divideii+0xf3>:
	...

000075d0 <_Z6divideii+0xf4>:
    75d0:	004136        	entry	a1, 32
    75d3:	e2ad81        	l32r	a8, 88 (7fffff <_end+0x7ef447>)
    75d6:	060c           	movi.n	a6, 0
    75d8:	317f30        	srai	a7, a3, 31
    75db:	006796        	bltz	a7, 75e5 <_Z6divideii+0x109>
    75de:	17cc           	bnez.n	a7, 75e3 <_Z6divideii+0x107>
    75e0:	01b837        	bgeu	a8, a3, 75e5 <_Z6divideii+0x109>

000075e3 <_Z6divideii+0x107>:
    75e3:	160c           	movi.n	a6, 1

000075e5 <_Z6divideii+0x109>:
    75e5:	568c           	beqz.n	a6, 75ee <_Z6divideii+0x112>
    75e7:	e2a831        	l32r	a3, 88 (7fffff <_end+0x7ef447>)

000075ea <_Z6divideii+0x10e>:
    75ea:	0239           	s32i.n	a3, a2, 0
    75ec:	f01d           	retw.n

000075ee <_Z6divideii+0x112>:
    75ee:	608030        	neg	a8, a3
    75f1:	060c           	movi.n	a6, 0
    75f3:	f57c           	movi.n	a5, -1
    75f5:	305750        	xor	a5, a7, a5
    75f8:	e2a571        	l32r	a7, 8c (800000 <_end+0x7ef448>)
    75fb:	451b           	addi.n	a4, a5, 1
    75fd:	835430        	moveqz	a5, a4, a3
    7600:	006596        	bltz	a5, 760a <_Z6divideii+0x12e>
    7603:	15cc           	bnez.n	a5, 7608 <_Z6divideii+0x12c>
    7605:	01b787        	bgeu	a7, a8, 760a <_Z6divideii+0x12e>

00007608 <_Z6divideii+0x12c>:
    7608:	160c           	movi.n	a6, 1

0000760a <_Z6divideii+0x12e>:
    760a:	e2a181        	l32r	a8, 90 (ff800000 <_end+0xff7ef448>)
    760d:	933860        	movnez	a3, a8, a6
    7610:	fff586        	j	75ea <_Z6divideii+0x10e>

00007613 <_Z6divideii+0x137>:
	...

00007614 <_Z6divideii+0x138>:
    7614:	004136        	entry	a1, 32
    7617:	0388           	l32i.n	a8, a3, 0
    7619:	140c           	movi.n	a4, 1
    761b:	0258           	l32i.n	a5, a2, 0
    761d:	020c           	movi.n	a2, 0
    761f:	c05580        	sub	a5, a5, a8
    7622:	832450        	moveqz	a2, a4, a5
    7625:	f01d           	retw.n

00007627 <_Z6divideii+0x14b>:
	...

00007628 <_Z6divideii+0x14c>:
    7628:	004136        	entry	a1, 32
    762b:	0348           	l32i.n	a4, a3, 0
    762d:	0258           	l32i.n	a5, a2, 0
    762f:	120c           	movi.n	a2, 1
    7631:	012457        	blt	a4, a5, 7636 <_Z6divideii+0x15a>
    7634:	020c           	movi.n	a2, 0

00007636 <_Z6divideii+0x15a>:
    7636:	f01d           	retw.n

00007638 <_Z6divideii+0x15c>:
    7638:	004136        	entry	a1, 32
    763b:	0358           	l32i.n	a5, a3, 0
    763d:	0248           	l32i.n	a4, a2, 0
    763f:	120c           	movi.n	a2, 1
    7641:	012457        	blt	a4, a5, 7646 <_Z6divideii+0x16a>
    7644:	020c           	movi.n	a2, 0

00007646 <_Z6divideii+0x16a>:
    7646:	f01d           	retw.n

00007648 <_Z6divideii+0x16c>:
    7648:	004136        	entry	a1, 32
    764b:	0239           	s32i.n	a3, a2, 0
    764d:	080c           	movi.n	a8, 0
    764f:	f67c           	movi.n	a6, -1
    7651:	e28d71        	l32r	a7, 88 (7fffff <_end+0x7ef447>)
    7654:	319f30        	srai	a9, a3, 31
    7657:	1299           	s32i.n	a9, a2, 4
    7659:	072977        	blt	a9, a7, 7664 <_Z6divideii+0x188>
    765c:	029977        	bne	a9, a7, 7662 <_Z6divideii+0x186>
    765f:	01b637        	bgeu	a6, a3, 7664 <_Z6divideii+0x188>

00007662 <_Z6divideii+0x186>:
    7662:	180c           	movi.n	a8, 1

00007664 <_Z6divideii+0x188>:
    7664:	f8dc           	bnez.n	a8, 7687 <_Z6divideii+0x1ab>
    7666:	f87c           	movi.n	a8, -1
    7668:	308980        	xor	a8, a9, a8
    766b:	609030        	neg	a9, a3
    766e:	481b           	addi.n	a4, a8, 1
    7670:	838430        	moveqz	a8, a4, a3
    7673:	030c           	movi.n	a3, 0
    7675:	072877        	blt	a8, a7, 7680 <_Z6divideii+0x1a4>
    7678:	029877        	bne	a8, a7, 767e <_Z6divideii+0x1a2>
    767b:	01b697        	bgeu	a6, a9, 7680 <_Z6divideii+0x1a4>

0000767e <_Z6divideii+0x1a2>:
    767e:	130c           	movi.n	a3, 1

00007680 <_Z6divideii+0x1a4>:
    7680:	938c           	beqz.n	a3, 768d <_Z6divideii+0x1b1>
    7682:	060c           	movi.n	a6, 0
    7684:	e28371        	l32r	a7, 90 (ff800000 <_end+0xff7ef448>)

00007687 <_Z6divideii+0x1ab>:
    7687:	1279           	s32i.n	a7, a2, 4
    7689:	0269           	s32i.n	a6, a2, 0
    768b:	f01d           	retw.n

0000768d <_Z6divideii+0x1b1>:
    768d:	f01d           	retw.n

0000768f <_Z6divideii+0x1b3>:
	...

00007690 <_Z6divideii+0x1b4>:
    7690:	004136        	entry	a1, 32
    7693:	0239           	s32i.n	a3, a2, 0
    7695:	080c           	movi.n	a8, 0
    7697:	f67c           	movi.n	a6, -1
    7699:	e27b71        	l32r	a7, 88 (7fffff <_end+0x7ef447>)
    769c:	319f30        	srai	a9, a3, 31
    769f:	1299           	s32i.n	a9, a2, 4
    76a1:	072977        	blt	a9, a7, 76ac <_Z6divideii+0x1d0>
    76a4:	029977        	bne	a9, a7, 76aa <_Z6divideii+0x1ce>
    76a7:	01b637        	bgeu	a6, a3, 76ac <_Z6divideii+0x1d0>

000076aa <_Z6divideii+0x1ce>:
    76aa:	180c           	movi.n	a8, 1

000076ac <_Z6divideii+0x1d0>:
    76ac:	f8dc           	bnez.n	a8, 76cf <_Z6divideii+0x1f3>
    76ae:	f87c           	movi.n	a8, -1
    76b0:	308980        	xor	a8, a9, a8
    76b3:	609030        	neg	a9, a3
    76b6:	481b           	addi.n	a4, a8, 1
    76b8:	838430        	moveqz	a8, a4, a3
    76bb:	030c           	movi.n	a3, 0
    76bd:	072877        	blt	a8, a7, 76c8 <_Z6divideii+0x1ec>
    76c0:	029877        	bne	a8, a7, 76c6 <_Z6divideii+0x1ea>
    76c3:	01b697        	bgeu	a6, a9, 76c8 <_Z6divideii+0x1ec>

000076c6 <_Z6divideii+0x1ea>:
    76c6:	130c           	movi.n	a3, 1

000076c8 <_Z6divideii+0x1ec>:
    76c8:	938c           	beqz.n	a3, 76d5 <_Z6divideii+0x1f9>
    76ca:	060c           	movi.n	a6, 0
    76cc:	e27171        	l32r	a7, 90 (ff800000 <_end+0xff7ef448>)

000076cf <_Z6divideii+0x1f3>:
    76cf:	1279           	s32i.n	a7, a2, 4
    76d1:	0269           	s32i.n	a6, a2, 0
    76d3:	f01d           	retw.n

000076d5 <_Z6divideii+0x1f9>:
    76d5:	f01d           	retw.n

000076d7 <_Z6divideii+0x1fb>:
	...

000076d8 <_Z6divideii+0x1fc>:
    76d8:	004136        	entry	a1, 32
    76db:	0239           	s32i.n	a3, a2, 0
    76dd:	080c           	movi.n	a8, 0
    76df:	f67c           	movi.n	a6, -1
    76e1:	e26971        	l32r	a7, 88 (7fffff <_end+0x7ef447>)
    76e4:	319f30        	srai	a9, a3, 31
    76e7:	1299           	s32i.n	a9, a2, 4
    76e9:	072977        	blt	a9, a7, 76f4 <_Z6divideii+0x218>
    76ec:	029977        	bne	a9, a7, 76f2 <_Z6divideii+0x216>
    76ef:	01b637        	bgeu	a6, a3, 76f4 <_Z6divideii+0x218>

000076f2 <_Z6divideii+0x216>:
    76f2:	180c           	movi.n	a8, 1

000076f4 <_Z6divideii+0x218>:
    76f4:	f8dc           	bnez.n	a8, 7717 <_Z6divideii+0x23b>
    76f6:	f87c           	movi.n	a8, -1
    76f8:	308980        	xor	a8, a9, a8
    76fb:	609030        	neg	a9, a3
    76fe:	481b           	addi.n	a4, a8, 1
    7700:	838430        	moveqz	a8, a4, a3
    7703:	030c           	movi.n	a3, 0
    7705:	072877        	blt	a8, a7, 7710 <_Z6divideii+0x234>
    7708:	029877        	bne	a8, a7, 770e <_Z6divideii+0x232>
    770b:	01b697        	bgeu	a6, a9, 7710 <_Z6divideii+0x234>

0000770e <_Z6divideii+0x232>:
    770e:	130c           	movi.n	a3, 1

00007710 <_Z6divideii+0x234>:
    7710:	938c           	beqz.n	a3, 771d <_Z6divideii+0x241>
    7712:	060c           	movi.n	a6, 0
    7714:	e25f71        	l32r	a7, 90 (ff800000 <_end+0xff7ef448>)

00007717 <_Z6divideii+0x23b>:
    7717:	1279           	s32i.n	a7, a2, 4
    7719:	0269           	s32i.n	a6, a2, 0
    771b:	f01d           	retw.n

0000771d <_Z6divideii+0x241>:
    771d:	f01d           	retw.n

0000771f <_Z6divideii+0x243>:
	...

00007720 <_Z6divideii+0x244>:
    7720:	004136        	entry	a1, 32
    7723:	0239           	s32i.n	a3, a2, 0
    7725:	080c           	movi.n	a8, 0
    7727:	f67c           	movi.n	a6, -1
    7729:	e25771        	l32r	a7, 88 (7fffff <_end+0x7ef447>)
    772c:	319f30        	srai	a9, a3, 31
    772f:	1299           	s32i.n	a9, a2, 4
    7731:	072977        	blt	a9, a7, 773c <_Z6divideii+0x260>
    7734:	029977        	bne	a9, a7, 773a <_Z6divideii+0x25e>
    7737:	01b637        	bgeu	a6, a3, 773c <_Z6divideii+0x260>

0000773a <_Z6divideii+0x25e>:
    773a:	180c           	movi.n	a8, 1

0000773c <_Z6divideii+0x260>:
    773c:	f8dc           	bnez.n	a8, 775f <_Z6divideii+0x283>
    773e:	f87c           	movi.n	a8, -1
    7740:	308980        	xor	a8, a9, a8
    7743:	609030        	neg	a9, a3
    7746:	481b           	addi.n	a4, a8, 1
    7748:	838430        	moveqz	a8, a4, a3
    774b:	030c           	movi.n	a3, 0
    774d:	072877        	blt	a8, a7, 7758 <_Z6divideii+0x27c>
    7750:	029877        	bne	a8, a7, 7756 <_Z6divideii+0x27a>
    7753:	01b697        	bgeu	a6, a9, 7758 <_Z6divideii+0x27c>

00007756 <_Z6divideii+0x27a>:
    7756:	130c           	movi.n	a3, 1

00007758 <_Z6divideii+0x27c>:
    7758:	938c           	beqz.n	a3, 7765 <_Z6divideii+0x289>
    775a:	060c           	movi.n	a6, 0
    775c:	e24d71        	l32r	a7, 90 (ff800000 <_end+0xff7ef448>)

0000775f <_Z6divideii+0x283>:
    775f:	1279           	s32i.n	a7, a2, 4
    7761:	0269           	s32i.n	a6, a2, 0
    7763:	f01d           	retw.n

00007765 <_Z6divideii+0x289>:
    7765:	f01d           	retw.n

00007767 <_Z6divideii+0x28b>:
	...

00007768 <_Z6divideii+0x28c>:
    7768:	004136        	entry	a1, 32
    776b:	0288           	l32i.n	a8, a2, 0
    776d:	1278           	l32i.n	a7, a2, 4
    776f:	1368           	l32i.n	a6, a3, 4
    7771:	0338           	l32i.n	a3, a3, 0
    7773:	020c           	movi.n	a2, 0
    7775:	072767        	blt	a7, a6, 7780 <_Z6divideii+0x2a4>
    7778:	029767        	bne	a7, a6, 777e <_Z6divideii+0x2a2>
    777b:	01b387        	bgeu	a3, a8, 7780 <_Z6divideii+0x2a4>

0000777e <_Z6divideii+0x2a2>:
    777e:	120c           	movi.n	a2, 1

00007780 <_Z6divideii+0x2a4>:
    7780:	f01d           	retw.n

00007782 <_Z6divideii+0x2a6>:
	...

00007784 <_Z6divideii+0x2a8>:
    7784:	006136        	entry	a1, 48
    7787:	070c           	movi.n	a7, 0
    7789:	1179           	s32i.n	a7, a1, 4
    778b:	0179           	s32i.n	a7, a1, 0
    778d:	0279           	s32i.n	a7, a2, 0
    778f:	1279           	s32i.n	a7, a2, 4
    7791:	610304        	ae_lq56.i	aeq0, a3, 0
    7794:	017496        	bltz	a4, 77af <_Z6divideii+0x2d3>
    7797:	1368           	l32i.n	a6, a3, 4
    7799:	0388           	l32i.n	a8, a3, 0
    779b:	030c           	movi.n	a3, 0
    779d:	006696        	bltz	a6, 77a7 <_Z6divideii+0x2cb>
    77a0:	16cc           	bnez.n	a6, 77a5 <_Z6divideii+0x2c9>
    77a2:	013877        	bltu	a8, a7, 77a7 <_Z6divideii+0x2cb>

000077a5 <_Z6divideii+0x2c9>:
    77a5:	130c           	movi.n	a3, 1

000077a7 <_Z6divideii+0x2cb>:
    77a7:	739c           	beqz.n	a3, 77c2 <_Z6divideii+0x2e6>
    77a9:	3404b4        	ae_sraaq56	aeq0, aeq0, a4
    77ac:	000146        	j	77b5 <_Z6divideii+0x2d9>

000077af <_Z6divideii+0x2d3>:
    77af:	605040        	neg	a5, a4
    77b2:	340534        	ae_sllasq56s	aeq0, aeq0, a5

000077b5 <_Z6divideii+0x2d9>:
    77b5:	630104        	ae_sq56s.i	aeq0, a1, 0
    77b8:	0188           	l32i.n	a8, a1, 0
    77ba:	1198           	l32i.n	a9, a1, 4
    77bc:	1299           	s32i.n	a9, a2, 4
    77be:	0289           	s32i.n	a8, a2, 0
    77c0:	f01d           	retw.n

000077c2 <_Z6divideii+0x2e6>:
    77c2:	060824        	ae_negq56	aeq0, aeq0
    77c5:	3404b4        	ae_sraaq56	aeq0, aeq0, a4
    77c8:	060824        	ae_negq56	aeq0, aeq0
    77cb:	fff986        	j	77b5 <_Z6divideii+0x2d9>

000077ce <_Z6divideii+0x2f2>:
	...

000077d0 <_ZNK5fractrsEi>:
    77d0:	006136        	entry	a1, 48
    77d3:	d18b           	addi.n	a13, a1, 8
    77d5:	404800        	ssai	8
    77d8:	0368           	l32i.n	a6, a3, 0
    77da:	a18b           	addi.n	a10, a1, 8
    77dc:	080c           	movi.n	a8, 0
    77de:	1a89           	s32i.n	a8, a10, 4
    77e0:	0a89           	s32i.n	a8, a10, 0
    77e2:	319f60        	srai	a9, a6, 31
    77e5:	813960        	src	a3, a9, a6
    77e8:	1139           	s32i.n	a3, a1, 4
    77ea:	016680        	slli	a6, a6, 24
    77ed:	0169           	s32i.n	a6, a1, 0
    77ef:	610104        	ae_lq56.i	aeq0, a1, 0
    77f2:	013496        	bltz	a4, 7809 <_ZNK5fractrsEi+0x39>
    77f5:	070c           	movi.n	a7, 0
    77f7:	006396        	bltz	a3, 7801 <_ZNK5fractrsEi+0x31>
    77fa:	13cc           	bnez.n	a3, 77ff <_ZNK5fractrsEi+0x2f>
    77fc:	013687        	bltu	a6, a8, 7801 <_ZNK5fractrsEi+0x31>

000077ff <_ZNK5fractrsEi+0x2f>:
    77ff:	170c           	movi.n	a7, 1

00007801 <_ZNK5fractrsEi+0x31>:
    7801:	a79c           	beqz.n	a7, 781f <_ZNK5fractrsEi+0x4f>
    7803:	3404b4        	ae_sraaq56	aeq0, aeq0, a4
    7806:	000146        	j	780f <_ZNK5fractrsEi+0x3f>

00007809 <_ZNK5fractrsEi+0x39>:
    7809:	60b040        	neg	a11, a4
    780c:	340b34        	ae_sllasq56s	aeq0, aeq0, a11

0000780f <_ZNK5fractrsEi+0x3f>:
    780f:	630d04        	ae_sq56s.i	aeq0, a13, 0
    7812:	614114        	ae_lq56.i	aeq1, a1, 8
    7815:	1b9c04        	ae_roundsp24q48sym	aep0, aeq1
    7818:	348c04        	ae_movap24s.l	a12, aep0
    781b:	02c9           	s32i.n	a12, a2, 0
    781d:	f01d           	retw.n

0000781f <_ZNK5fractrsEi+0x4f>:
    781f:	060824        	ae_negq56	aeq0, aeq0
    7822:	3404b4        	ae_sraaq56	aeq0, aeq0, a4
    7825:	060824        	ae_negq56	aeq0, aeq0
    7828:	fff8c6        	j	780f <_ZNK5fractrsEi+0x3f>

0000782b <_ZNK5fractrsEi+0x5b>:
	...

0000782c <_ZNK5fractrsEi+0x5c>:
    782c:	006136        	entry	a1, 48
    782f:	050c           	movi.n	a5, 0
    7831:	1159           	s32i.n	a5, a1, 4
    7833:	0159           	s32i.n	a5, a1, 0
    7835:	0259           	s32i.n	a5, a2, 0
    7837:	1259           	s32i.n	a5, a2, 4
    7839:	610304        	ae_lq56.i	aeq0, a3, 0
    783c:	0084d6        	bgez	a4, 7848 <_ZNK5fractrsEi+0x78>
    783f:	608040        	neg	a8, a4
    7842:	3408b4        	ae_sraaq56	aeq0, aeq0, a8
    7845:	000086        	j	784b <_ZNK5fractrsEi+0x7b>

00007848 <_ZNK5fractrsEi+0x78>:
    7848:	340434        	ae_sllasq56s	aeq0, aeq0, a4

0000784b <_ZNK5fractrsEi+0x7b>:
    784b:	630104        	ae_sq56s.i	aeq0, a1, 0
    784e:	0198           	l32i.n	a9, a1, 0
    7850:	11a8           	l32i.n	a10, a1, 4
    7852:	12a9           	s32i.n	a10, a2, 4
    7854:	0299           	s32i.n	a9, a2, 0
    7856:	f01d           	retw.n

00007858 <_ZNK5fractrsEi+0x88>:
    7858:	006136        	entry	a1, 48
    785b:	c18b           	addi.n	a12, a1, 8
    785d:	404800        	ssai	8
    7860:	0368           	l32i.n	a6, a3, 0
    7862:	918b           	addi.n	a9, a1, 8
    7864:	080c           	movi.n	a8, 0
    7866:	1989           	s32i.n	a8, a9, 4
    7868:	0989           	s32i.n	a8, a9, 0
    786a:	315f60        	srai	a5, a6, 31
    786d:	017680        	slli	a7, a6, 24
    7870:	0179           	s32i.n	a7, a1, 0
    7872:	815560        	src	a5, a5, a6
    7875:	1159           	s32i.n	a5, a1, 4
    7877:	610104        	ae_lq56.i	aeq0, a1, 0
    787a:	0084d6        	bgez	a4, 7886 <_ZNK5fractrsEi+0xb6>
    787d:	60a040        	neg	a10, a4
    7880:	340ab4        	ae_sraaq56	aeq0, aeq0, a10
    7883:	000086        	j	7889 <_ZNK5fractrsEi+0xb9>

00007886 <_ZNK5fractrsEi+0xb6>:
    7886:	340434        	ae_sllasq56s	aeq0, aeq0, a4

00007889 <_ZNK5fractrsEi+0xb9>:
    7889:	630c04        	ae_sq56s.i	aeq0, a12, 0
    788c:	614114        	ae_lq56.i	aeq1, a1, 8
    788f:	1b9c04        	ae_roundsp24q48sym	aep0, aeq1
    7892:	348b04        	ae_movap24s.l	a11, aep0
    7895:	02b9           	s32i.n	a11, a2, 0
    7897:	f01d           	retw.n

00007899 <_ZNK5fractrsEi+0xc9>:
    7899:	000000                                        ...

0000789c <rawDecodeFrame>:
    789c:	008136        	entry	a1, 64
    789f:	e27181        	l32r	a8, 264 (35c0 <_Z26CAacDecoderGetSamplingRateP20AAC_DECODER_INSTANCE>)
    78a2:	02a8           	l32i.n	a10, a2, 0
    78a4:	0008e0        	callx8	a8
    78a7:	e27081        	l32r	a8, 268 (35a0 <_Z32CAacDecoderGetChannelsPerElementP20AAC_DECODER_INSTANCE>)
    78aa:	1821c2        	l32i	a12, a1, 96
    78ad:	1921b2        	l32i	a11, a1, 100
    78b0:	00a492        	movi	a9, 0x400
    78b3:	0ca9           	s32i.n	a10, a12, 0
    78b5:	0b99           	s32i.n	a9, a11, 0
    78b7:	02a8           	l32i.n	a10, a2, 0
    78b9:	0008e0        	callx8	a8
    78bc:	e25681        	l32r	a8, 214 (71e8 <CreateInitializedBitBuffer>)
    78bf:	b0c560        	addx8	a12, a5, a6
    78c2:	04bd           	mov.n	a11, a4
    78c4:	0a5d           	mov.n	a5, a10
    78c6:	424b           	addi.n	a4, a2, 4
    78c8:	04ad           	mov.n	a10, a4
    78ca:	0008e0        	callx8	a8
    78cd:	e25281        	l32r	a8, 218 (6fec <WindBitBufferBidirectional>)
    78d0:	06bd           	mov.n	a11, a6
    78d2:	04ad           	mov.n	a10, a4
    78d4:	0008e0        	callx8	a8
    78d7:	1121e2        	l32i	a14, a1, 68
    78da:	1021d2        	l32i	a13, a1, 64
    78dd:	e26381        	l32r	a8, 26c (2bb4 <_Z22CAacDecoder_ParseFrameP20AAC_DECODER_INSTANCEPiciiS1_P21XA_AACDEC_CHANNELMODEcii>)
    78e0:	142162        	l32i	a6, a1, 80
    78e3:	4801c2        	l8ui	a12, a1, 72
    78e6:	1721f2        	l32i	a15, a1, 92
    78e9:	1a21b2        	l32i	a11, a1, 104
    78ec:	02a8           	l32i.n	a10, a2, 0
    78ee:	1b2192        	l32i	a9, a1, 108
    78f1:	3199           	s32i.n	a9, a1, 12
    78f3:	21b9           	s32i.n	a11, a1, 8
    78f5:	01f9           	s32i.n	a15, a1, 0
    78f7:	34c2b2        	addi	a11, a2, 52
    78fa:	23cc00        	sext	a12, a12, 7
    78fd:	11c9           	s32i.n	a12, a1, 4
    78ff:	06fd           	mov.n	a15, a6
    7901:	07cd           	mov.n	a12, a7
    7903:	0008e0        	callx8	a8
    7906:	1321b2        	l32i	a11, a1, 76
    7909:	152192        	l32i	a9, a1, 84
    790c:	7288           	l32i.n	a8, a2, 28
    790e:	0b89           	s32i.n	a8, a11, 0
    7910:	09b8           	l32i.n	a11, a9, 0
    7912:	06c8           	l32i.n	a12, a6, 0
    7914:	6bac           	beqz.n	a11, 793e <rawDecodeFrame+0xa2>
    7916:	1c9bc7        	bne	a11, a12, 7936 <rawDecodeFrame+0x9a>
    7919:	1d1ca6        	blti	a12, 1, 793a <rawDecodeFrame+0x9e>
    791c:	1621b2        	l32i	a11, a1, 88
    791f:	040c           	movi.n	a4, 0
    7921:	0eac76        	loopgtz	a12, 7933 <rawDecodeFrame+0x97>
    7924:	000bd2        	l8ui	a13, a11, 0
    7927:	e45a           	add.n	a14, a4, a5
    7929:	000ee2        	l8ui	a14, a14, 0
    792c:	441b           	addi.n	a4, a4, 1
    792e:	bb1b           	addi.n	a11, a11, 1
    7930:	029de7        	bne	a13, a14, 7936 <rawDecodeFrame+0x9a>

00007933 <rawDecodeFrame+0x97>:
    7933:	000906        	j	795b <rawDecodeFrame+0xbf>

00007936 <rawDecodeFrame+0x9a>:
    7936:	321c           	movi.n	a2, 19
    7938:	f01d           	retw.n

0000793a <rawDecodeFrame+0x9e>:
    793a:	0a2d           	mov.n	a2, a10
    793c:	f01d           	retw.n

0000793e <rawDecodeFrame+0xa2>:
    793e:	09c9           	s32i.n	a12, a9, 0
    7940:	06f8           	l32i.n	a15, a6, 0
    7942:	040c           	movi.n	a4, 0
    7944:	1621b2        	l32i	a11, a1, 88
    7947:	ef1fa6        	blti	a15, 1, 793a <rawDecodeFrame+0x9e>

0000794a <rawDecodeFrame+0xae>:
    794a:	c45a           	add.n	a12, a4, a5
    794c:	000cc2        	l8ui	a12, a12, 0
    794f:	004bc2        	s8i	a12, a11, 0
    7952:	06c8           	l32i.n	a12, a6, 0
    7954:	441b           	addi.n	a4, a4, 1
    7956:	bb1b           	addi.n	a11, a11, 1
    7958:	ee24c7        	blt	a4, a12, 794a <rawDecodeFrame+0xae>
    795b:	db1ca6        	blti	a12, 1, 793a <rawDecodeFrame+0x9e>
    795e:	040c           	movi.n	a4, 0
    7960:	61a9           	s32i.n	a10, a1, 24

00007962 <rawDecodeFrame+0xc6>:
    7962:	1b22b2        	l32i	a11, a2, 108
    7965:	a0f420        	addx4	a15, a4, a2
    7968:	dfc8           	l32i.n	a12, a15, 52
    796a:	3b8c           	beqz.n	a11, 7971 <rawDecodeFrame+0xd5>
    796c:	db0b           	addi.n	a13, a11, -1
    796e:	1b62d2        	s32i	a13, a2, 108

00007971 <rawDecodeFrame+0xd5>:
    7971:	02a8           	l32i.n	a10, a2, 0
    7973:	1a22e2        	l32i	a14, a2, 104
    7976:	41f9           	s32i.n	a15, a1, 16
    7978:	e23e81        	l32r	a8, 270 (2b58 <_Z27CAacDecoder_FrequencyToTimeP20AAC_DECODER_INSTANCEP5fractiii>)
    797b:	11db00        	slli	a13, a11, 16
    797e:	51d9           	s32i.n	a13, a1, 20
    7980:	03bd           	mov.n	a11, a3
    7982:	20ddc0        	or	a13, a13, a12
    7985:	04cd           	mov.n	a12, a4
    7987:	0008e0        	callx8	a8
    798a:	745a           	add.n	a7, a4, a5
    798c:	0007e2        	l8ui	a14, a7, 0
    798f:	23be00        	sext	a11, a14, 7
    7992:	1d2e66        	bnei	a14, 2, 79b3 <rawDecodeFrame+0x117>
    7995:	02a8           	l32i.n	a10, a2, 0
    7997:	03bd           	mov.n	a11, a3
    7999:	41d8           	l32i.n	a13, a1, 16
    799b:	c41b           	addi.n	a12, a4, 1
    799d:	51f8           	l32i.n	a15, a1, 20
    799f:	edd8           	l32i.n	a13, a13, 56
    79a1:	e23381        	l32r	a8, 270 (2b58 <_Z27CAacDecoder_FrequencyToTimeP20AAC_DECODER_INSTANCEP5fractiii>)
    79a4:	1a22e2        	l32i	a14, a2, 104
    79a7:	20ddf0        	or	a13, a13, a15
    79aa:	0008e0        	callx8	a8
    79ad:	0007b2        	l8ui	a11, a7, 0
    79b0:	23bb00        	sext	a11, a11, 7

000079b3 <rawDecodeFrame+0x117>:
    79b3:	06c8           	l32i.n	a12, a6, 0
    79b5:	44ba           	add.n	a4, a4, a11
    79b7:	a724c7        	blt	a4, a12, 7962 <rawDecodeFrame+0xc6>
    79ba:	61a8           	l32i.n	a10, a1, 24
    79bc:	ffde86        	j	793a <rawDecodeFrame+0x9e>

000079bf <rawDecodeFrame+0x123>:
	...

000079c0 <rawDecInit>:
    79c0:	004136        	entry	a1, 32
    79c3:	03bd           	mov.n	a11, a3
    79c5:	e22b81        	l32r	a8, 274 (35e8 <_Z15CAacDecoderInitP20AAC_DECODER_INSTANCEi>)
    79c8:	f0c4c2        	addi	a12, a4, -16
    79cb:	1a0c           	movi.n	a10, 1
    79cd:	090c           	movi.n	a9, 0
    79cf:	839ac0        	moveqz	a9, a10, a12
    79d2:	1a6292        	s32i	a9, a2, 104
    79d5:	02a8           	l32i.n	a10, a2, 0
    79d7:	0008e0        	callx8	a8
    79da:	0d0c           	movi.n	a13, 0
    79dc:	321c           	movi.n	a2, 19
    79de:	832da0        	moveqz	a2, a13, a10
    79e1:	f01d           	retw.n

000079e3 <rawDecInit+0x23>:
	...

000079e4 <rawDecOpen>:
    79e4:	006136        	entry	a1, 48
    79e7:	01ad           	mov.n	a10, a1
    79e9:	b14b           	addi.n	a11, a1, 4
    79eb:	04cd           	mov.n	a12, a4
    79ed:	e22281        	l32r	a8, 278 (3814 <_Z32CAacDecoderGetRequiredBufferSizePiS_i>)
    79f0:	01d292        	addmi	a9, a2, 0x100
    79f3:	050c           	movi.n	a5, 0
    79f5:	1159           	s32i.n	a5, a1, 4
    79f7:	0159           	s32i.n	a5, a1, 0
    79f9:	98c992        	addi	a9, a9, -104
    79fc:	a299           	s32i.n	a9, a2, 40
    79fe:	0008e0        	callx8	a8
    7a01:	1c6252        	s32i	a5, a2, 112
    7a04:	1d6252        	s32i	a5, a2, 116
    7a07:	209220        	or	a9, a2, a2
    7a0a:	08a0a2        	movi	a10, 8
    7a0d:	04aa76        	loopgtz	a10, 7a15 <rawDecOpen+0x31>
    7a10:	784952        	s8i	a5, a9, 120
    7a13:	991b           	addi.n	a9, a9, 1

00007a15 <rawDecOpen+0x31>:
    7a15:	04bd           	mov.n	a11, a4
    7a17:	03dd           	mov.n	a13, a3
    7a19:	b239           	s32i.n	a3, a2, 44
    7a1b:	e21881        	l32r	a8, 27c (365c <_Z15CAacDecoderOpenP7BIT_BUFiP5fractS2_>)
    7a1e:	a24b           	addi.n	a10, a2, 4
    7a20:	a2c8           	l32i.n	a12, a2, 40
    7a22:	0008e0        	callx8	a8
    7a25:	02a9           	s32i.n	a10, a2, 0
    7a27:	090c           	movi.n	a9, 0
    7a29:	9392a0        	movnez	a9, a2, a10
    7a2c:	092d           	mov.n	a2, a9
    7a2e:	f01d           	retw.n

00007a30 <_Z17xa_aacmch_processP25_xa_aacmch_dec_api_structi>:
    7a30:	032136        	entry	a1, 0x190
    7a33:	32cc           	bnez.n	a2, 7a3a <_Z17xa_aacmch_processP25_xa_aacmch_dec_api_structi+0xa>
    7a35:	e21221        	l32r	a2, 280 (ffff8000 <_end+0xfffe7448>)
    7a38:	f01d           	retw.n

00007a3a <_Z17xa_aacmch_processP25_xa_aacmch_dec_api_structi+0xa>:
    7a3a:	232282        	l32i	a8, a2, 140
    7a3d:	2422c2        	l32i	a12, a2, 144
    7a40:	070c           	movi.n	a7, 0
    7a42:	1d6272        	s32i	a7, a2, 116
    7a45:	1e6272        	s32i	a7, a2, 120
    7a48:	2262c2        	s32i	a12, a2, 136
    7a4b:	041866        	bnei	a8, 1, 7a53 <_Z17xa_aacmch_processP25_xa_aacmch_dec_api_structi+0x23>
    7a4e:	fa7c           	movi.n	a10, -1
    7a50:	2362a2        	s32i	a10, a2, 140

00007a53 <_Z17xa_aacmch_processP25_xa_aacmch_dec_api_structi+0x23>:
    7a53:	150c           	movi.n	a5, 1
    7a55:	1922a2        	l32i	a10, a2, 100
    7a58:	051366        	bnei	a3, 1, 7a61 <_Z17xa_aacmch_processP25_xa_aacmch_dec_api_structi+0x31>
    7a5b:	216272        	s32i	a7, a2, 132
    7a5e:	1f6272        	s32i	a7, a2, 124

00007a61 <_Z17xa_aacmch_processP25_xa_aacmch_dec_api_structi+0x31>:
    7a61:	0d5316        	beqz	a3, 7b3a <_Z17xa_aacmch_processP25_xa_aacmch_dec_api_structi+0x10a>
    7a64:	111ae6        	bgei	a10, 1, 7a79 <_Z17xa_aacmch_processP25_xa_aacmch_dec_api_structi+0x49>
    7a67:	2022b2        	l32i	a11, a2, 128
    7a6a:	1b0b16        	beqz	a11, 7c1e <_Z17xa_aacmch_processP25_xa_aacmch_dec_api_structi+0x1ee>
    7a6d:	e20591        	l32r	a9, 284 (ffff90c5 <_end+0xfffe850d>)
    7a70:	000946        	j	7a99 <_Z17xa_aacmch_processP25_xa_aacmch_dec_api_structi+0x69>

00007a73 <_Z17xa_aacmch_processP25_xa_aacmch_dec_api_structi+0x43>:
    7a73:	24da96        	bltz	a10, 7cc4 <_Z17xa_aacmch_processP25_xa_aacmch_dec_api_structi+0x294>
    7a76:	1aaa16        	beqz	a10, 7c24 <_Z17xa_aacmch_processP25_xa_aacmch_dec_api_structi+0x1f4>

00007a79 <_Z17xa_aacmch_processP25_xa_aacmch_dec_api_structi+0x49>:
    7a79:	1a22b2        	l32i	a11, a2, 104
    7a7c:	1b22e2        	l32i	a14, a2, 108
    7a7f:	149ab7        	bne	a10, a11, 7a97 <_Z17xa_aacmch_processP25_xa_aacmch_dec_api_structi+0x67>
    7a82:	2022d2        	l32i	a13, a2, 128
    7a85:	0c6d16        	beqz	a13, 7b4f <_Z17xa_aacmch_processP25_xa_aacmch_dec_api_structi+0x11f>
    7a88:	0c3e16        	beqz	a14, 7b4f <_Z17xa_aacmch_processP25_xa_aacmch_dec_api_structi+0x11f>
    7a8b:	1d62b2        	s32i	a11, a2, 116
    7a8e:	216252        	s32i	a5, a2, 132
    7a91:	e1fd91        	l32r	a9, 288 (10cb <_Z26CLongBlock_FrequencyToTimeP28CAacDecoderStaticChannelInfoP22CAacDecoderChannelInfoP5fractiiiS4_+0x21f>)
    7a94:	000046        	j	7a99 <_Z17xa_aacmch_processP25_xa_aacmch_dec_api_structi+0x69>

00007a97 <_Z17xa_aacmch_processP25_xa_aacmch_dec_api_structi+0x67>:
    7a97:	090c           	movi.n	a9, 0

00007a99 <_Z17xa_aacmch_processP25_xa_aacmch_dec_api_structi+0x69>:
    7a99:	298c           	beqz.n	a9, 7a9f <_Z17xa_aacmch_processP25_xa_aacmch_dec_api_structi+0x6f>
    7a9b:	092d           	mov.n	a2, a9

00007a9d <_Z17xa_aacmch_processP25_xa_aacmch_dec_api_structi+0x6d>:
    7a9d:	f01d           	retw.n

00007a9f <_Z17xa_aacmch_processP25_xa_aacmch_dec_api_structi+0x6f>:
    7a9f:	60a2a2        	movi	a10, 0x260
    7aa2:	2a2262        	l32i	a6, a2, 168
    7aa5:	0248           	l32i.n	a4, a2, 0
    7aa7:	049316        	beqz	a3, 7af4 <_Z17xa_aacmch_processP25_xa_aacmch_dec_api_structi+0xc4>
    7aaa:	0648           	l32i.n	a4, a6, 0
    7aac:	0249           	s32i.n	a4, a2, 0
    7aae:	44cc           	bnez.n	a4, 7ab6 <_Z17xa_aacmch_processP25_xa_aacmch_dec_api_structi+0x86>

00007ab0 <_Z17xa_aacmch_processP25_xa_aacmch_dec_api_structi+0x80>:
    7ab0:	e1f491        	l32r	a9, 280 (ffff8000 <_end+0xfffe7448>)
    7ab3:	001f46        	j	7b34 <_Z17xa_aacmch_processP25_xa_aacmch_dec_api_structi+0x104>

00007ab6 <_Z17xa_aacmch_processP25_xa_aacmch_dec_api_structi+0x86>:
    7ab6:	04ad           	mov.n	a10, a4
    7ab8:	2922c2        	l32i	a12, a2, 164
    7abb:	e18f81        	l32r	a8, f8 (9db0 <__vec_memset>)
    7abe:	0b0c           	movi.n	a11, 0
    7ac0:	0cc8           	l32i.n	a12, a12, 0
    7ac2:	0008e0        	callx8	a8
    7ac5:	10c1a2        	addi	a10, a1, 16
    7ac8:	14c1b2        	addi	a11, a1, 20
    7acb:	18c1c2        	addi	a12, a1, 24
    7ace:	e1ef81        	l32r	a8, 28c (8804 <_Z16aacmch_get_memszPiS_S_S_i>)
    7ad1:	1cc1d2        	addi	a13, a1, 28
    7ad4:	b2e8           	l32i.n	a14, a2, 44
    7ad6:	0008e0        	callx8	a8
    7ad9:	60a2a2        	movi	a10, 0x260
    7adc:	928b           	addi.n	a9, a2, 8
    7ade:	51d8           	l32i.n	a13, a1, 20
    7ae0:	61b8           	l32i.n	a11, a1, 24
    7ae2:	02d4c2        	addmi	a12, a4, 0x200
    7ae5:	60ccc2        	addi	a12, a12, 96
    7ae8:	bb4a           	add.n	a11, a11, a4
    7aea:	dd4a           	add.n	a13, a13, a4
    7aec:	7c6cd2        	s32i	a13, a12, 0x1f0
    7aef:	7d6cb2        	s32i	a11, a12, 0x1f4
    7af2:	0499           	s32i.n	a9, a4, 0

00007af4 <_Z17xa_aacmch_processP25_xa_aacmch_dec_api_structi+0xc4>:
    7af4:	fb8416        	beqz	a4, 7ab0 <_Z17xa_aacmch_processP25_xa_aacmch_dec_api_structi+0x80>
    7af7:	16c8           	l32i.n	a12, a6, 4
    7af9:	a4aa           	add.n	a10, a4, a10
    7afb:	7e2ab2        	l32i	a11, a10, 0x1f8
    7afe:	041bc7        	beq	a11, a12, 7b06 <_Z17xa_aacmch_processP25_xa_aacmch_dec_api_structi+0xd6>
    7b01:	0cbd           	mov.n	a11, a12
    7b03:	7e6ac2        	s32i	a12, a10, 0x1f8

00007b06 <_Z17xa_aacmch_processP25_xa_aacmch_dec_api_structi+0xd6>:
    7b06:	26d8           	l32i.n	a13, a6, 8
    7b08:	822ac2        	l32i	a12, a10, 0x208
    7b0b:	041cd7        	beq	a12, a13, 7b13 <_Z17xa_aacmch_processP25_xa_aacmch_dec_api_structi+0xe3>
    7b0e:	0dcd           	mov.n	a12, a13
    7b10:	826ad2        	s32i	a13, a10, 0x208

00007b13 <_Z17xa_aacmch_processP25_xa_aacmch_dec_api_structi+0xe3>:
    7b13:	36e8           	l32i.n	a14, a6, 12
    7b15:	812ad2        	l32i	a13, a10, 0x204
    7b18:	0d1de7        	beq	a13, a14, 7b29 <_Z17xa_aacmch_processP25_xa_aacmch_dec_api_structi+0xf9>
    7b1b:	1122f2        	l32i	a15, a2, 68
    7b1e:	0edd           	mov.n	a13, a14
    7b20:	816ae2        	s32i	a14, a10, 0x204
    7b23:	20ff50        	or	a15, a15, a5
    7b26:	1162f2        	s32i	a15, a2, 68

00007b29 <_Z17xa_aacmch_processP25_xa_aacmch_dec_api_structi+0xf9>:
    7b29:	f83b16        	beqz	a11, 7ab0 <_Z17xa_aacmch_processP25_xa_aacmch_dec_api_structi+0x80>
    7b2c:	f80c16        	beqz	a12, 7ab0 <_Z17xa_aacmch_processP25_xa_aacmch_dec_api_structi+0x80>
    7b2f:	f7dd16        	beqz	a13, 7ab0 <_Z17xa_aacmch_processP25_xa_aacmch_dec_api_structi+0x80>
    7b32:	090c           	movi.n	a9, 0

00007b34 <_Z17xa_aacmch_processP25_xa_aacmch_dec_api_structi+0x104>:
    7b34:	69bc           	beqz.n	a9, 7b6e <_Z17xa_aacmch_processP25_xa_aacmch_dec_api_structi+0x13e>
    7b36:	092d           	mov.n	a2, a9
    7b38:	f01d           	retw.n

00007b3a <_Z17xa_aacmch_processP25_xa_aacmch_dec_api_structi+0x10a>:
    7b3a:	021aa6        	blti	a10, 1, 7b40 <_Z17xa_aacmch_processP25_xa_aacmch_dec_api_structi+0x110>
    7b3d:	ffce06        	j	7a79 <_Z17xa_aacmch_processP25_xa_aacmch_dec_api_structi+0x49>
    7b40:	202282        	l32i	a8, a2, 128
    7b43:	f2c816        	beqz	a8, 7a73 <_Z17xa_aacmch_processP25_xa_aacmch_dec_api_structi+0x43>
    7b46:	216252        	s32i	a5, a2, 132
    7b49:	e1d191        	l32r	a9, 290 (10cc <_Z26CLongBlock_FrequencyToTimeP28CAacDecoderStaticChannelInfoP22CAacDecoderChannelInfoP5fractiiiS4_+0x220>)
    7b4c:	ffd246        	j	7a99 <_Z17xa_aacmch_processP25_xa_aacmch_dec_api_structi+0x69>

00007b4f <_Z17xa_aacmch_processP25_xa_aacmch_dec_api_structi+0x11f>:
    7b4f:	1c2292        	l32i	a9, a2, 112
    7b52:	02aa97        	bge	a10, a9, 7b58 <_Z17xa_aacmch_processP25_xa_aacmch_dec_api_structi+0x128>
    7b55:	ffcf86        	j	7a97 <_Z17xa_aacmch_processP25_xa_aacmch_dec_api_structi+0x67>
    7b58:	1b62d2        	s32i	a13, a2, 108
    7b5b:	1d6252        	s32i	a5, a2, 116
    7b5e:	e1cd91        	l32r	a9, 294 (10ca <_Z26CLongBlock_FrequencyToTimeP28CAacDecoderStaticChannelInfoP22CAacDecoderChannelInfoP5fractiiiS4_+0x21e>)
    7b61:	ba0b           	addi.n	a11, a10, -1
    7b63:	ec1b           	addi.n	a14, a12, 1
    7b65:	2462e2        	s32i	a14, a2, 144
    7b68:	1a62b2        	s32i	a11, a2, 104
    7b6b:	ffca86        	j	7a99 <_Z17xa_aacmch_processP25_xa_aacmch_dec_api_structi+0x69>

00007b6e <_Z17xa_aacmch_processP25_xa_aacmch_dec_api_structi+0x13e>:
    7b6e:	e1ca41        	l32r	a4, 298 (107c0 <bit_rev_table_long+0x400>)
    7b71:	0268           	l32i.n	a6, a2, 0
    7b73:	20c1a2        	addi	a10, a1, 32
    7b76:	e15c81        	l32r	a8, e8 (418 <memcpy>)
    7b79:	e1c8b1        	l32r	a11, 29c (108b0 <bit_rev_table_long+0x4f0>)
    7b7c:	4c2c           	movi.n	a12, 36
    7b7e:	0008e0        	callx8	a8
    7b81:	5b6142        	s32i	a4, a1, 0x16c
    7b84:	44c192        	addi	a9, a1, 68
    7b87:	8199           	s32i.n	a9, a1, 32
    7b89:	641366        	bnei	a3, 1, 7bf1 <_Z17xa_aacmch_processP25_xa_aacmch_dec_api_structi+0x1c1>
    7b8c:	42b8           	l32i.n	a11, a2, 16
    7b8e:	f2b9           	s32i.n	a11, a2, 60
    7b90:	5f2b26        	beqi	a11, 2, 7bf3 <_Z17xa_aacmch_processP25_xa_aacmch_dec_api_structi+0x1c3>
    7b93:	5c1b26        	beqi	a11, 1, 7bf3 <_Z17xa_aacmch_processP25_xa_aacmch_dec_api_structi+0x1c3>
    7b96:	593b26        	beqi	a11, 3, 7bf3 <_Z17xa_aacmch_processP25_xa_aacmch_dec_api_structi+0x1c3>
    7b99:	565b26        	beqi	a11, 5, 7bf3 <_Z17xa_aacmch_processP25_xa_aacmch_dec_api_structi+0x1c3>
    7b9c:	536b26        	beqi	a11, 6, 7bf3 <_Z17xa_aacmch_processP25_xa_aacmch_dec_api_structi+0x1c3>
    7b9f:	3cc2f2        	addi	a15, a2, 60
    7ba2:	e1bf81        	l32r	a8, 2a0 (6b0c <tDetectFormat>)
    7ba5:	1922b2        	l32i	a11, a2, 100
    7ba8:	2022c2        	l32i	a12, a2, 128
    7bab:	b2d8           	l32i.n	a13, a2, 44
    7bad:	04d6a2        	addmi	a10, a6, 0x400
    7bb0:	74c2e2        	addi	a14, a2, 116
    7bb3:	1a2aa2        	l32i	a10, a10, 104
    7bb6:	01e9           	s32i.n	a14, a1, 0
    7bb8:	e64b           	addi.n	a14, a6, 4
    7bba:	272292        	l32i	a9, a2, 156
    7bbd:	1199           	s32i.n	a9, a1, 4
    7bbf:	0008e0        	callx8	a8
    7bc2:	2422d2        	l32i	a13, a2, 144
    7bc5:	1d22c2        	l32i	a12, a2, 116
    7bc8:	1922b2        	l32i	a11, a2, 100
    7bcb:	2022e2        	l32i	a14, a2, 128
    7bce:	1b62e2        	s32i	a14, a2, 108
    7bd1:	c0bbc0        	sub	a11, a11, a12
    7bd4:	1a62b2        	s32i	a11, a2, 104
    7bd7:	ccda           	add.n	a12, a12, a13
    7bd9:	2462c2        	s32i	a12, a2, 144
    7bdc:	291a16        	beqz	a10, 7e71 <_Z17xa_aacmch_processP25_xa_aacmch_dec_api_structi+0x441>

00007bdf <_Z17xa_aacmch_processP25_xa_aacmch_dec_api_structi+0x1af>:
    7bdf:	b093a0        	addx8	a9, a3, a10
    7be2:	ff7c           	movi.n	a15, -1
    7be4:	1962f2        	s32i	a15, a2, 100

00007be7 <_Z17xa_aacmch_processP25_xa_aacmch_dec_api_structi+0x1b7>:
    7be7:	5b2122        	l32i	a2, a1, 0x16c
    7bea:	a02920        	addx4	a2, a9, a2
    7bed:	0228           	l32i.n	a2, a2, 0
    7bef:	f01d           	retw.n

00007bf1 <_Z17xa_aacmch_processP25_xa_aacmch_dec_api_structi+0x1c1>:
    7bf1:	f2b8           	l32i.n	a11, a2, 60

00007bf3 <_Z17xa_aacmch_processP25_xa_aacmch_dec_api_structi+0x1c3>:
    7bf3:	3bcc           	bnez.n	a11, 7bfa <_Z17xa_aacmch_processP25_xa_aacmch_dec_api_structi+0x1ca>
    7bf5:	e1ab21        	l32r	a2, 2a4 (ffff90c8 <_end+0xfffe8510>)
    7bf8:	f01d           	retw.n

00007bfa <_Z17xa_aacmch_processP25_xa_aacmch_dec_api_structi+0x1ca>:
    7bfa:	8b0b           	addi.n	a8, a11, -1
    7bfc:	f97c           	movi.n	a9, -1
    7bfe:	286292        	s32i	a9, a2, 160
    7c01:	198816        	beqz	a8, 7d9d <_Z17xa_aacmch_processP25_xa_aacmch_dec_api_structi+0x36d>
    7c04:	fecba2        	addi	a10, a11, -2
    7c07:	1e2a16        	beqz	a10, 7ded <_Z17xa_aacmch_processP25_xa_aacmch_dec_api_structi+0x3bd>
    7c0a:	fbcbc2        	addi	a12, a11, -5
    7c0d:	209c16        	beqz	a12, 7e1a <_Z17xa_aacmch_processP25_xa_aacmch_dec_api_structi+0x3ea>
    7c10:	fdcbd2        	addi	a13, a11, -3
    7c13:	1abd16        	beqz	a13, 7dc2 <_Z17xa_aacmch_processP25_xa_aacmch_dec_api_structi+0x392>
    7c16:	106b26        	beqi	a11, 6, 7c2a <_Z17xa_aacmch_processP25_xa_aacmch_dec_api_structi+0x1fa>
    7c19:	e1a321        	l32r	a2, 2a8 (ffff90c3 <_end+0xfffe850b>)
    7c1c:	f01d           	retw.n

00007c1e <_Z17xa_aacmch_processP25_xa_aacmch_dec_api_structi+0x1ee>:
    7c1e:	0a2a96        	bltz	a10, 7cc4 <_Z17xa_aacmch_processP25_xa_aacmch_dec_api_structi+0x294>
    7c21:	e54a56        	bnez	a10, 7a79 <_Z17xa_aacmch_processP25_xa_aacmch_dec_api_structi+0x49>

00007c24 <_Z17xa_aacmch_processP25_xa_aacmch_dec_api_structi+0x1f4>:
    7c24:	e1a291        	l32r	a9, 2ac (10c0 <_Z26CLongBlock_FrequencyToTimeP28CAacDecoderStaticChannelInfoP22CAacDecoderChannelInfoP5fractiiiS4_+0x214>)
    7c27:	ff9b86        	j	7a99 <_Z17xa_aacmch_processP25_xa_aacmch_dec_api_structi+0x69>

00007c2a <_Z17xa_aacmch_processP25_xa_aacmch_dec_api_structi+0x1fa>:
    7c2a:	1622e2        	l32i	a14, a2, 88
    7c2d:	192242        	l32i	a4, a2, 100
    7c30:	1722a2        	l32i	a10, a2, 92
    7c33:	8198           	l32i.n	a9, a1, 32
    7c35:	3288           	l32i.n	a8, a2, 12
    7c37:	1d6272        	s32i	a7, a2, 116
    7c3a:	125172        	s16i	a7, a1, 36
    7c3d:	f159           	s32i.n	a5, a1, 60
    7c3f:	106172        	s32i	a7, a1, 64
    7c42:	3989           	s32i.n	a8, a9, 12
    7c44:	0949a2        	s8i	a10, a9, 9
    7c47:	d179           	s32i.n	a7, a1, 52
    7c49:	e179           	s32i.n	a7, a1, 56
    7c4b:	c149           	s32i.n	a4, a1, 48
    7c4d:	090c           	movi.n	a9, 0
    7c4f:	01d642        	addmi	a4, a6, 0x100
    7c52:	da24f2        	l32i	a15, a4, 0x368
    7c55:	b1f9           	s32i.n	a15, a1, 44
    7c57:	3ecc           	bnez.n	a14, 7c5e <_Z17xa_aacmch_processP25_xa_aacmch_dec_api_structi+0x22e>
    7c59:	0a0c           	movi.n	a10, 0
    7c5b:	000086        	j	7c61 <_Z17xa_aacmch_processP25_xa_aacmch_dec_api_structi+0x231>

00007c5e <_Z17xa_aacmch_processP25_xa_aacmch_dec_api_structi+0x22e>:
    7c5e:	1522a2        	l32i	a10, a2, 84

00007c61 <_Z17xa_aacmch_processP25_xa_aacmch_dec_api_structi+0x231>:
    7c61:	d1a9           	s32i.n	a10, a1, 52
    7c63:	43cc           	bnez.n	a3, 7c6b <_Z17xa_aacmch_processP25_xa_aacmch_dec_api_structi+0x23b>
    7c65:	166272        	s32i	a7, a2, 88
    7c68:	156272        	s32i	a7, a2, 84

00007c6b <_Z17xa_aacmch_processP25_xa_aacmch_dec_api_structi+0x23b>:
    7c6b:	0a0c           	movi.n	a10, 0

00007c6d <_Z17xa_aacmch_processP25_xa_aacmch_dec_api_structi+0x23d>:
    7c6d:	593b26        	beqi	a11, 3, 7cca <_Z17xa_aacmch_processP25_xa_aacmch_dec_api_structi+0x29a>
    7c70:	565b26        	beqi	a11, 5, 7cca <_Z17xa_aacmch_processP25_xa_aacmch_dec_api_structi+0x29a>

00007c73 <_Z17xa_aacmch_processP25_xa_aacmch_dec_api_structi+0x243>:
    7c73:	2422c2        	l32i	a12, a2, 144
    7c76:	c9ca           	add.n	a12, a9, a12
    7c78:	2462c2        	s32i	a12, a2, 144

00007c7b <_Z17xa_aacmch_processP25_xa_aacmch_dec_api_structi+0x24b>:
    7c7b:	181b26        	beqi	a11, 1, 7c97 <_Z17xa_aacmch_processP25_xa_aacmch_dec_api_structi+0x267>
    7c7e:	156b26        	beqi	a11, 6, 7c97 <_Z17xa_aacmch_processP25_xa_aacmch_dec_api_structi+0x267>
    7c81:	1922d2        	l32i	a13, a2, 100
    7c84:	2022b2        	l32i	a11, a2, 128
    7c87:	1b62b2        	s32i	a11, a2, 108
    7c8a:	c0dd90        	sub	a13, a13, a9
    7c8d:	1a62d2        	s32i	a13, a2, 104
    7c90:	3dcc           	bnez.n	a13, 7c97 <_Z17xa_aacmch_processP25_xa_aacmch_dec_api_structi+0x267>
    7c92:	1b8c           	beqz.n	a11, 7c97 <_Z17xa_aacmch_processP25_xa_aacmch_dec_api_structi+0x267>
    7c94:	216252        	s32i	a5, a2, 132
    7c97:	04fa16        	beqz	a10, 7cea <_Z17xa_aacmch_processP25_xa_aacmch_dec_api_structi+0x2ba>
    7c9a:	1a5a26        	beqi	a10, 5, 7cb8 <_Z17xa_aacmch_processP25_xa_aacmch_dec_api_structi+0x288>
    7c9d:	112a26        	beqi	a10, 2, 7cb2 <_Z17xa_aacmch_processP25_xa_aacmch_dec_api_structi+0x282>
    7ca0:	0e4a26        	beqi	a10, 4, 7cb2 <_Z17xa_aacmch_processP25_xa_aacmch_dec_api_structi+0x282>
    7ca3:	021a66        	bnei	a10, 1, 7ca9 <_Z17xa_aacmch_processP25_xa_aacmch_dec_api_structi+0x279>
    7ca6:	ffcd46        	j	7bdf <_Z17xa_aacmch_processP25_xa_aacmch_dec_api_structi+0x1af>
    7ca9:	056a66        	bnei	a10, 6, 7cb2 <_Z17xa_aacmch_processP25_xa_aacmch_dec_api_structi+0x282>
    7cac:	216252        	s32i	a5, a2, 132
    7caf:	ffcb06        	j	7bdf <_Z17xa_aacmch_processP25_xa_aacmch_dec_api_structi+0x1af>

00007cb2 <_Z17xa_aacmch_processP25_xa_aacmch_dec_api_structi+0x282>:
    7cb2:	d86472        	s32i	a7, a4, 0x360
    7cb5:	ffc986        	j	7bdf <_Z17xa_aacmch_processP25_xa_aacmch_dec_api_structi+0x1af>

00007cb8 <_Z17xa_aacmch_processP25_xa_aacmch_dec_api_structi+0x288>:
    7cb8:	1a6272        	s32i	a7, a2, 104
    7cbb:	1b6272        	s32i	a7, a2, 108
    7cbe:	1f6272        	s32i	a7, a2, 124
    7cc1:	ffc686        	j	7bdf <_Z17xa_aacmch_processP25_xa_aacmch_dec_api_structi+0x1af>

00007cc4 <_Z17xa_aacmch_processP25_xa_aacmch_dec_api_structi+0x294>:
    7cc4:	e16391        	l32r	a9, 250 (ffff80c4 <_end+0xfffe750c>)
    7cc7:	ff7386        	j	7a99 <_Z17xa_aacmch_processP25_xa_aacmch_dec_api_structi+0x69>

00007cca <_Z17xa_aacmch_processP25_xa_aacmch_dec_api_structi+0x29a>:
    7cca:	fa5356        	bnez	a3, 7c73 <_Z17xa_aacmch_processP25_xa_aacmch_dec_api_structi+0x243>
    7ccd:	2522d2        	l32i	a13, a2, 148
    7cd0:	2422c2        	l32i	a12, a2, 144
    7cd3:	c0ccd0        	sub	a12, a12, a13
    7cd6:	2462c2        	s32i	a12, a2, 144
    7cd9:	0219e6        	bgei	a9, 1, 7cdf <_Z17xa_aacmch_processP25_xa_aacmch_dec_api_structi+0x2af>
    7cdc:	009a86        	j	7f4a <_Z17xa_aacmch_processP25_xa_aacmch_dec_api_structi+0x51a>
    7cdf:	256272        	s32i	a7, a2, 148
    7ce2:	c9ca           	add.n	a12, a9, a12

00007ce4 <_Z17xa_aacmch_processP25_xa_aacmch_dec_api_structi+0x2b4>:
    7ce4:	2462c2        	s32i	a12, a2, 144
    7ce7:	ffe406        	j	7c7b <_Z17xa_aacmch_processP25_xa_aacmch_dec_api_structi+0x24b>

00007cea <_Z17xa_aacmch_processP25_xa_aacmch_dec_api_structi+0x2ba>:
    7cea:	638c           	beqz.n	a3, 7cf4 <_Z17xa_aacmch_processP25_xa_aacmch_dec_api_structi+0x2c4>
    7cec:	81e8           	l32i.n	a14, a1, 32
    7cee:	3ee8           	l32i.n	a14, a14, 12
    7cf0:	62e9           	s32i.n	a14, a2, 24
    7cf2:	32e9           	s32i.n	a14, a2, 12

00007cf4 <_Z17xa_aacmch_processP25_xa_aacmch_dec_api_structi+0x2c4>:
    7cf4:	e16f81        	l32r	a8, 2b0 (7fdc <_Z17xa_aacmch_set_pceP25_xa_aacmch_dec_api_structP15_tranportInfo_t>)
    7cf7:	02ad           	mov.n	a10, a2
    7cf9:	20c1b2        	addi	a11, a1, 32
    7cfc:	0008e0        	callx8	a8
    7cff:	930b           	addi.n	a9, a3, -1
    7d01:	171916        	beqz	a9, 7e76 <_Z17xa_aacmch_processP25_xa_aacmch_dec_api_structi+0x446>
    7d04:	d824a2        	l32i	a10, a4, 0x360
    7d07:	16ba16        	beqz	a10, 7e76 <_Z17xa_aacmch_processP25_xa_aacmch_dec_api_structi+0x446>
    7d0a:	0a0c           	movi.n	a10, 0

00007d0c <_Z17xa_aacmch_processP25_xa_aacmch_dec_api_structi+0x2dc>:
    7d0c:	13dc           	bnez.n	a3, 7d21 <_Z17xa_aacmch_processP25_xa_aacmch_dec_api_structi+0x2f1>
    7d0e:	facc           	bnez.n	a10, 7d21 <_Z17xa_aacmch_processP25_xa_aacmch_dec_api_structi+0x2f1>
    7d10:	d324a2        	l32i	a10, a4, 0x34c
    7d13:	b28b           	addi.n	a11, a2, 8
    7d15:	e16781        	l32r	a8, 2b4 (88d8 <_Z18aacmch_rawdec_execP20RAW_DECODER_INSTANCEP27xa_aacmch_dec_config_structP15_tranportInfo_tP5fract>)
    7d18:	20c1c2        	addi	a12, a1, 32
    7d1b:	d924d2        	l32i	a13, a4, 0x364
    7d1e:	0008e0        	callx8	a8
    7d21:	e165d1        	l32r	a13, 2b8 (10800 <bit_rev_table_long+0x440>)
    7d24:	04b356        	bnez	a3, 7d73 <_Z17xa_aacmch_processP25_xa_aacmch_dec_api_structi+0x343>
    7d27:	f298           	l32i.n	a9, a2, 60
    7d29:	026926        	beqi	a9, 6, 7d2f <_Z17xa_aacmch_processP25_xa_aacmch_dec_api_structi+0x2ff>
    7d2c:	431966        	bnei	a9, 1, 7d73 <_Z17xa_aacmch_processP25_xa_aacmch_dec_api_structi+0x343>
    7d2f:	e163b1        	l32r	a11, 2bc (10c2 <_Z26CLongBlock_FrequencyToTimeP28CAacDecoderStaticChannelInfoP22CAacDecoderChannelInfoP5fractiiiS4_+0x216>)
    7d32:	a09330        	addx4	a9, a3, a3
    7d35:	a09930        	addx4	a9, a9, a3
    7d38:	9a9a           	add.n	a9, a10, a9
    7d3a:	a099d0        	addx4	a9, a9, a13
    7d3d:	0998           	l32i.n	a9, a9, 0
    7d3f:	2422c2        	l32i	a12, a2, 144
    7d42:	0c99b7        	bne	a9, a11, 7d52 <_Z17xa_aacmch_processP25_xa_aacmch_dec_api_structi+0x322>
    7d45:	1d6252        	s32i	a5, a2, 116
    7d48:	190c           	movi.n	a9, 1
    7d4a:	bc1b           	addi.n	a11, a12, 1
    7d4c:	2462b2        	s32i	a11, a2, 144
    7d4f:	000286        	j	7d5d <_Z17xa_aacmch_processP25_xa_aacmch_dec_api_structi+0x32d>

00007d52 <_Z17xa_aacmch_processP25_xa_aacmch_dec_api_structi+0x322>:
    7d52:	102192        	l32i	a9, a1, 64
    7d55:	1d6292        	s32i	a9, a2, 116
    7d58:	e9ca           	add.n	a14, a9, a12
    7d5a:	2462e2        	s32i	a14, a2, 144

00007d5d <_Z17xa_aacmch_processP25_xa_aacmch_dec_api_structi+0x32d>:
    7d5d:	1922f2        	l32i	a15, a2, 100
    7d60:	2022b2        	l32i	a11, a2, 128
    7d63:	1b62b2        	s32i	a11, a2, 108
    7d66:	c0ff90        	sub	a15, a15, a9
    7d69:	1a62f2        	s32i	a15, a2, 104
    7d6c:	3fcc           	bnez.n	a15, 7d73 <_Z17xa_aacmch_processP25_xa_aacmch_dec_api_structi+0x343>
    7d6e:	1b8c           	beqz.n	a11, 7d73 <_Z17xa_aacmch_processP25_xa_aacmch_dec_api_structi+0x343>
    7d70:	216252        	s32i	a5, a2, 132
    7d73:	16aa16        	beqz	a10, 7ee1 <_Z17xa_aacmch_processP25_xa_aacmch_dec_api_structi+0x4b1>
    7d76:	f298           	l32i.n	a9, a2, 60
    7d78:	fb7c           	movi.n	a11, -1
    7d7a:	1962b2        	s32i	a11, a2, 100
    7d7d:	fec982        	addi	a8, a9, -2
    7d80:	0c9816        	beqz	a8, 7e4d <_Z17xa_aacmch_processP25_xa_aacmch_dec_api_structi+0x41d>
    7d83:	fbc9c2        	addi	a12, a9, -5
    7d86:	0c3c16        	beqz	a12, 7e4d <_Z17xa_aacmch_processP25_xa_aacmch_dec_api_structi+0x41d>
    7d89:	fdc9e2        	addi	a14, a9, -3
    7d8c:	0bde16        	beqz	a14, 7e4d <_Z17xa_aacmch_processP25_xa_aacmch_dec_api_structi+0x41d>
    7d8f:	5b61d2        	s32i	a13, a1, 0x16c
    7d92:	a09330        	addx4	a9, a3, a3
    7d95:	a09930        	addx4	a9, a9, a3
    7d98:	9a9a           	add.n	a9, a10, a9
    7d9a:	ff9246        	j	7be7 <_Z17xa_aacmch_processP25_xa_aacmch_dec_api_structi+0x1b7>

00007d9d <_Z17xa_aacmch_processP25_xa_aacmch_dec_api_structi+0x36d>:
    7d9d:	20c1e2        	addi	a14, a1, 32
    7da0:	f64b           	addi.n	a15, a6, 4
    7da2:	e12281        	l32r	a8, 22c (5fd8 <tParseADIF>)
    7da5:	1922b2        	l32i	a11, a2, 100
    7da8:	2022c2        	l32i	a12, a2, 128
    7dab:	01d642        	addmi	a4, a6, 0x100
    7dae:	74c2d2        	addi	a13, a2, 116
    7db1:	da24a2        	l32i	a10, a4, 0x368
    7db4:	01d9           	s32i.n	a13, a1, 0
    7db6:	03dd           	mov.n	a13, a3
    7db8:	b298           	l32i.n	a9, a2, 44
    7dba:	1199           	s32i.n	a9, a1, 4
    7dbc:	0008e0        	callx8	a8
    7dbf:	000886        	j	7de5 <_Z17xa_aacmch_processP25_xa_aacmch_dec_api_structi+0x3b5>

00007dc2 <_Z17xa_aacmch_processP25_xa_aacmch_dec_api_structi+0x392>:
    7dc2:	20c1e2        	addi	a14, a1, 32
    7dc5:	f64b           	addi.n	a15, a6, 4
    7dc7:	e13e81        	l32r	a8, 2c0 (985c <tParseLATM>)
    7dca:	1922b2        	l32i	a11, a2, 100
    7dcd:	2022c2        	l32i	a12, a2, 128
    7dd0:	01d642        	addmi	a4, a6, 0x100
    7dd3:	74c2d2        	addi	a13, a2, 116
    7dd6:	da24a2        	l32i	a10, a4, 0x368
    7dd9:	01d9           	s32i.n	a13, a1, 0
    7ddb:	03dd           	mov.n	a13, a3
    7ddd:	272292        	l32i	a9, a2, 156
    7de0:	1199           	s32i.n	a9, a1, 4
    7de2:	0008e0        	callx8	a8

00007de5 <_Z17xa_aacmch_processP25_xa_aacmch_dec_api_structi+0x3b5>:
    7de5:	1d2292        	l32i	a9, a2, 116
    7de8:	f2b8           	l32i.n	a11, a2, 60
    7dea:	ff9fc6        	j	7c6d <_Z17xa_aacmch_processP25_xa_aacmch_dec_api_structi+0x23d>

00007ded <_Z17xa_aacmch_processP25_xa_aacmch_dec_api_structi+0x3bd>:
    7ded:	e11081        	l32r	a8, 230 (61c4 <tParseADTS>)
    7df0:	74c292        	addi	a9, a2, 116
    7df3:	1922b2        	l32i	a11, a2, 100
    7df6:	2022c2        	l32i	a12, a2, 128
    7df9:	262242        	l32i	a4, a2, 152
    7dfc:	1f0c           	movi.n	a15, 1
    7dfe:	0e0c           	movi.n	a14, 0
    7e00:	d64b           	addi.n	a13, a6, 4
    7e02:	83ef40        	moveqz	a14, a15, a4
    7e05:	20c1f2        	addi	a15, a1, 32
    7e08:	01d642        	addmi	a4, a6, 0x100
    7e0b:	da24a2        	l32i	a10, a4, 0x368
    7e0e:	01d9           	s32i.n	a13, a1, 0
    7e10:	1199           	s32i.n	a9, a1, 4
    7e12:	03dd           	mov.n	a13, a3
    7e14:	0008e0        	callx8	a8
    7e17:	fff286        	j	7de5 <_Z17xa_aacmch_processP25_xa_aacmch_dec_api_structi+0x3b5>

00007e1a <_Z17xa_aacmch_processP25_xa_aacmch_dec_api_structi+0x3ea>:
    7e1a:	74c2f2        	addi	a15, a2, 116
    7e1d:	1922b2        	l32i	a11, a2, 100
    7e20:	2022c2        	l32i	a12, a2, 128
    7e23:	262282        	l32i	a8, a2, 152
    7e26:	140c           	movi.n	a4, 1
    7e28:	0e0c           	movi.n	a14, 0
    7e2a:	d64b           	addi.n	a13, a6, 4
    7e2c:	83e480        	moveqz	a14, a4, a8
    7e2f:	e10181        	l32r	a8, 234 (9998 <tParseLOAS>)
    7e32:	01d642        	addmi	a4, a6, 0x100
    7e35:	da24a2        	l32i	a10, a4, 0x368
    7e38:	01d9           	s32i.n	a13, a1, 0
    7e3a:	11f9           	s32i.n	a15, a1, 4
    7e3c:	03dd           	mov.n	a13, a3
    7e3e:	20c1f2        	addi	a15, a1, 32
    7e41:	272292        	l32i	a9, a2, 156
    7e44:	2199           	s32i.n	a9, a1, 8
    7e46:	0008e0        	callx8	a8
    7e49:	ffe606        	j	7de5 <_Z17xa_aacmch_processP25_xa_aacmch_dec_api_structi+0x3b5>

00007e4c <_Z17xa_aacmch_processP25_xa_aacmch_dec_api_structi+0x41c>:
	...

00007e4d <_Z17xa_aacmch_processP25_xa_aacmch_dec_api_structi+0x41d>:
    7e4d:	e11d91        	l32r	a9, 2c4 (ffff90c1 <_end+0xfffe8509>)
    7e50:	a02330        	addx4	a2, a3, a3
    7e53:	a02230        	addx4	a2, a2, a3
    7e56:	2a2a           	add.n	a2, a10, a2
    7e58:	a022d0        	addx4	a2, a2, a13
    7e5b:	0228           	l32i.n	a2, a2, 0
    7e5d:	c09290        	sub	a9, a2, a9
    7e60:	13c916        	beqz	a9, 7fa0 <_Z17xa_aacmch_processP25_xa_aacmch_dec_api_structi+0x570>
    7e63:	e11181        	l32r	a8, 2a8 (ffff90c3 <_end+0xfffe850b>)
    7e66:	c08280        	sub	a8, a2, a8
    7e69:	c30856        	bnez	a8, 7a9d <_Z17xa_aacmch_processP25_xa_aacmch_dec_api_structi+0x6d>
    7e6c:	e11b21        	l32r	a2, 2d8 (10c9 <_Z26CLongBlock_FrequencyToTimeP28CAacDecoderStaticChannelInfoP22CAacDecoderChannelInfoP5fractiiiS4_+0x21d>)
    7e6f:	f01d           	retw.n

00007e71 <_Z17xa_aacmch_processP25_xa_aacmch_dec_api_structi+0x441>:
    7e71:	f2b8           	l32i.n	a11, a2, 60
    7e73:	ff5f06        	j	7bf3 <_Z17xa_aacmch_processP25_xa_aacmch_dec_api_structi+0x1c3>

00007e76 <_Z17xa_aacmch_processP25_xa_aacmch_dec_api_structi+0x446>:
    7e76:	a28b           	addi.n	a10, a2, 8
    7e78:	20c1c2        	addi	a12, a1, 32
    7e7b:	d924d2        	l32i	a13, a4, 0x364
    7e7e:	04d6e2        	addmi	a14, a6, 0x400
    7e81:	04d6b2        	addmi	a11, a6, 0x400
    7e84:	e11181        	l32r	a8, 2c8 (8adc <_Z18aacmch_rawdec_initP27xa_aacmch_dec_config_structP15_raw_memtable_tP15_tranportInfo_tP5fractPP20RAW_DECODER_INSTANCE>)
    7e87:	50cbb2        	addi	a11, a11, 80
    7e8a:	4ccee2        	addi	a14, a14, 76
    7e8d:	0008e0        	callx8	a8
    7e90:	5a61a2        	s32i	a10, a1, 0x168
    7e93:	aadc           	bnez.n	a10, 7eb1 <_Z17xa_aacmch_processP25_xa_aacmch_dec_api_structi+0x481>
    7e95:	d86452        	s32i	a5, a4, 0x360
    7e98:	e10681        	l32r	a8, 2b0 (7fdc <_Z17xa_aacmch_set_pceP25_xa_aacmch_dec_api_structP15_tranportInfo_t>)
    7e9b:	02ad           	mov.n	a10, a2
    7e9d:	20c1b2        	addi	a11, a1, 32
    7ea0:	0008e0        	callx8	a8
    7ea3:	d324a2        	l32i	a10, a4, 0x34c
    7ea6:	e10981        	l32r	a8, 2cc (2abc <_Z23xa_Copy_PCE_From_HeaderP20AAC_DECODER_INSTANCE>)
    7ea9:	0aa8           	l32i.n	a10, a10, 0
    7eab:	0008e0        	callx8	a8
    7eae:	000606        	j	7eca <_Z17xa_aacmch_processP25_xa_aacmch_dec_api_structi+0x49a>

00007eb1 <_Z17xa_aacmch_processP25_xa_aacmch_dec_api_structi+0x481>:
    7eb1:	d324b2        	l32i	a11, a4, 0x34c
    7eb4:	2b9c           	beqz.n	a11, 7eca <_Z17xa_aacmch_processP25_xa_aacmch_dec_api_structi+0x49a>
    7eb6:	1d6b72        	s32i	a7, a11, 116
    7eb9:	090c           	movi.n	a9, 0
    7ebb:	8c0c           	movi.n	a12, 8
    7ebd:	09ac76        	loopgtz	a12, 7eca <_Z17xa_aacmch_processP25_xa_aacmch_dec_api_structi+0x49a>
    7ec0:	d324d2        	l32i	a13, a4, 0x34c
    7ec3:	d9da           	add.n	a13, a9, a13
    7ec5:	784d72        	s8i	a7, a13, 120
    7ec8:	991b           	addi.n	a9, a9, 1
    7eca:	d924a2        	l32i	a10, a4, 0x364
    7ecd:	2922c2        	l32i	a12, a2, 164
    7ed0:	e08a81        	l32r	a8, f8 (9db0 <__vec_memset>)
    7ed3:	0b0c           	movi.n	a11, 0
    7ed5:	182cc2        	l32i	a12, a12, 96
    7ed8:	0008e0        	callx8	a8
    7edb:	5a21a2        	l32i	a10, a1, 0x168
    7ede:	ff8a86        	j	7d0c <_Z17xa_aacmch_processP25_xa_aacmch_dec_api_structi+0x2dc>

00007ee1 <_Z17xa_aacmch_processP25_xa_aacmch_dec_api_structi+0x4b1>:
    7ee1:	e0fb81        	l32r	a8, 2d0 (8ab8 <_Z17GetConfigInfo_rawP27xa_aacmch_dec_config_structP20RAW_DECODER_INSTANCE>)
    7ee4:	a28b           	addi.n	a10, a2, 8
    7ee6:	d324b2        	l32i	a11, a4, 0x34c
    7ee9:	0008e0        	callx8	a8
    7eec:	f2b8           	l32i.n	a11, a2, 60
    7eee:	938c           	beqz.n	a3, 7efb <_Z17xa_aacmch_processP25_xa_aacmch_dec_api_structi+0x4cb>
    7ef0:	076b66        	bnei	a11, 6, 7efb <_Z17xa_aacmch_processP25_xa_aacmch_dec_api_structi+0x4cb>
    7ef3:	d32492        	l32i	a9, a4, 0x34c
    7ef6:	212992        	l32i	a9, a9, 132
    7ef9:	6299           	s32i.n	a9, a2, 24
    7efb:	0e1b26        	beqi	a11, 1, 7f0d <_Z17xa_aacmch_processP25_xa_aacmch_dec_api_structi+0x4dd>
    7efe:	05f316        	beqz	a3, 7f61 <_Z17xa_aacmch_processP25_xa_aacmch_dec_api_structi+0x531>
    7f01:	e0f481        	l32r	a8, 2d4 (87e8 <_Z22BitRateDelayBufferInitP23_bitrate_delay_buffer_t>)
    7f04:	04d6a2        	addmi	a10, a6, 0x400
    7f07:	6ccaa2        	addi	a10, a10, 108
    7f0a:	0008e0        	callx8	a8
    7f0d:	050316        	beqz	a3, 7f61 <_Z17xa_aacmch_processP25_xa_aacmch_dec_api_structi+0x531>
    7f10:	1f6252        	s32i	a5, a2, 124
    7f13:	b2c8           	l32i.n	a12, a2, 44
    7f15:	d2e8           	l32i.n	a14, a2, 52
    7f17:	0a0c           	movi.n	a10, 0
    7f19:	0b0c           	movi.n	a11, 0
    7f1b:	0fa0f2        	movi	a15, 15
    7f1e:	08a092        	movi	a9, 8
    7f21:	12a976        	loopgtz	a9, 7f37 <_Z17xa_aacmch_processP25_xa_aacmch_dec_api_structi+0x507>
    7f24:	400a00        	ssr	a10
    7f27:	b1d0e0        	sra	a13, a14
    7f2a:	34d0d0        	extui	a13, a13, 0, 4
    7f2d:	041df7        	beq	a13, a15, 7f35 <_Z17xa_aacmch_processP25_xa_aacmch_dec_api_structi+0x505>
    7f30:	bb1b           	addi.n	a11, a11, 1
    7f32:	6fadc7        	bge	a13, a12, 7fa5 <_Z17xa_aacmch_processP25_xa_aacmch_dec_api_structi+0x575>
    7f35:	aa4b           	addi.n	a10, a10, 4

00007f37 <_Z17xa_aacmch_processP25_xa_aacmch_dec_api_structi+0x507>:
    7f37:	72a8           	l32i.n	a10, a2, 28
    7f39:	029ca7        	bne	a12, a10, 7f3f <_Z17xa_aacmch_processP25_xa_aacmch_dec_api_structi+0x50f>
    7f3c:	6a1ab7        	beq	a10, a11, 7faa <_Z17xa_aacmch_processP25_xa_aacmch_dec_api_structi+0x57a>

00007f3f <_Z17xa_aacmch_processP25_xa_aacmch_dec_api_structi+0x50f>:
    7f3f:	c2e8           	l32i.n	a14, a2, 48
    7f41:	650e26        	beqi	a14, -1, 7faa <_Z17xa_aacmch_processP25_xa_aacmch_dec_api_structi+0x57a>
    7f44:	e0be31        	l32r	a3, 23c (10cd <_Z26CLongBlock_FrequencyToTimeP28CAacDecoderStaticChannelInfoP22CAacDecoderChannelInfoP5fractiiiS4_+0x221>)
    7f47:	000606        	j	7f63 <_Z17xa_aacmch_processP25_xa_aacmch_dec_api_structi+0x533>

00007f4a <_Z17xa_aacmch_processP25_xa_aacmch_dec_api_structi+0x51a>:
    7f4a:	c1e8           	l32i.n	a14, a1, 48
    7f4c:	d2be16        	beqz	a14, 7c7b <_Z17xa_aacmch_processP25_xa_aacmch_dec_api_structi+0x24b>
    7f4f:	da2482        	l32i	a8, a4, 0x368
    7f52:	b1f8           	l32i.n	a15, a1, 44
    7f54:	c0ff80        	sub	a15, a15, a8
    7f57:	fefa           	add.n	a15, a14, a15
    7f59:	2562f2        	s32i	a15, a2, 148
    7f5c:	ccfa           	add.n	a12, a12, a15
    7f5e:	ff6086        	j	7ce4 <_Z17xa_aacmch_processP25_xa_aacmch_dec_api_structi+0x2b4>

00007f61 <_Z17xa_aacmch_processP25_xa_aacmch_dec_api_structi+0x531>:
    7f61:	030c           	movi.n	a3, 0

00007f63 <_Z17xa_aacmch_processP25_xa_aacmch_dec_api_structi+0x533>:
    7f63:	1a6272        	s32i	a7, a2, 104
    7f66:	1e2292        	l32i	a9, a2, 120
    7f69:	1b6272        	s32i	a7, a2, 108
    7f6c:	d324b2        	l32i	a11, a4, 0x34c
    7f6f:	c99c           	beqz.n	a9, 7f8f <_Z17xa_aacmch_processP25_xa_aacmch_dec_api_structi+0x55f>
    7f71:	1b2b92        	l32i	a9, a11, 108
    7f74:	c9dc           	bnez.n	a9, 7f94 <_Z17xa_aacmch_processP25_xa_aacmch_dec_api_structi+0x564>
    7f76:	f2a8           	l32i.n	a10, a2, 60
    7f78:	331a66        	bnei	a10, 1, 7faf <_Z17xa_aacmch_processP25_xa_aacmch_dec_api_structi+0x57f>
    7f7b:	56a8           	l32i.n	a10, a6, 20

00007f7d <_Z17xa_aacmch_processP25_xa_aacmch_dec_api_structi+0x54d>:
    7f7d:	2322c2        	l32i	a12, a2, 140
    7f80:	a2a9           	s32i.n	a10, a2, 40
    7f82:	fb7c           	movi.n	a11, -1
    7f84:	cc2b           	addi.n	a12, a12, 2
    7f86:	835bc0        	moveqz	a5, a11, a12
    7f89:	236252        	s32i	a5, a2, 140
    7f8c:	000086        	j	7f92 <_Z17xa_aacmch_processP25_xa_aacmch_dec_api_structi+0x562>

00007f8f <_Z17xa_aacmch_processP25_xa_aacmch_dec_api_structi+0x55f>:
    7f8f:	1b2b92        	l32i	a9, a11, 108

00007f92 <_Z17xa_aacmch_processP25_xa_aacmch_dec_api_structi+0x562>:
    7f92:	198c           	beqz.n	a9, 7f97 <_Z17xa_aacmch_processP25_xa_aacmch_dec_api_structi+0x567>

00007f94 <_Z17xa_aacmch_processP25_xa_aacmch_dec_api_structi+0x564>:
    7f94:	e0d231        	l32r	a3, 2dc (10c1 <_Z26CLongBlock_FrequencyToTimeP28CAacDecoderStaticChannelInfoP22CAacDecoderChannelInfoP5fractiiiS4_+0x215>)

00007f97 <_Z17xa_aacmch_processP25_xa_aacmch_dec_api_structi+0x567>:
    7f97:	fd7c           	movi.n	a13, -1
    7f99:	1962d2        	s32i	a13, a2, 100
    7f9c:	032d           	mov.n	a2, a3
    7f9e:	f01d           	retw.n

00007fa0 <_Z17xa_aacmch_processP25_xa_aacmch_dec_api_structi+0x570>:
    7fa0:	e0c721        	l32r	a2, 2bc (10c2 <_Z26CLongBlock_FrequencyToTimeP28CAacDecoderStaticChannelInfoP22CAacDecoderChannelInfoP5fractiiiS4_+0x216>)
    7fa3:	f01d           	retw.n

00007fa5 <_Z17xa_aacmch_processP25_xa_aacmch_dec_api_structi+0x575>:
    7fa5:	e0ce21        	l32r	a2, 2e0 (ffff88c7 <_end+0xfffe7d0f>)
    7fa8:	f01d           	retw.n

00007faa <_Z17xa_aacmch_processP25_xa_aacmch_dec_api_structi+0x57a>:
    7faa:	030c           	movi.n	a3, 0
    7fac:	ffecc6        	j	7f63 <_Z17xa_aacmch_processP25_xa_aacmch_dec_api_structi+0x533>

00007faf <_Z17xa_aacmch_processP25_xa_aacmch_dec_api_structi+0x57f>:
    7faf:	1d22b2        	l32i	a11, a2, 116
    7fb2:	04d662        	addmi	a6, a6, 0x400
    7fb5:	e0cb81        	l32r	a8, 2e4 (87c4 <_Z26BitrateDelayBufferAddFrameP23_bitrate_delay_buffer_ti>)
    7fb8:	6cc662        	addi	a6, a6, 108
    7fbb:	06ad           	mov.n	a10, a6
    7fbd:	0008e0        	callx8	a8
    7fc0:	06ad           	mov.n	a10, a6
    7fc2:	62c8           	l32i.n	a12, a2, 24
    7fc4:	d324b2        	l32i	a11, a4, 0x34c
    7fc7:	e0c881        	l32r	a8, 2e8 (876c <_Z16CalculateBitrateP23_bitrate_delay_buffer_tiii>)
    7fca:	a2d8           	l32i.n	a13, a2, 40
    7fcc:	222bb2        	l32i	a11, a11, 136
    7fcf:	0008e0        	callx8	a8
    7fd2:	d32492        	l32i	a9, a4, 0x34c
    7fd5:	1b2992        	l32i	a9, a9, 108
    7fd8:	ffe846        	j	7f7d <_Z17xa_aacmch_processP25_xa_aacmch_dec_api_structi+0x54d>

00007fdb <_Z17xa_aacmch_processP25_xa_aacmch_dec_api_structi+0x5ab>:
	...

00007fdc <_Z17xa_aacmch_set_pceP25_xa_aacmch_dec_api_structP15_tranportInfo_t>:
    7fdc:	004136        	entry	a1, 32
    7fdf:	32cc           	bnez.n	a2, 7fe6 <_Z17xa_aacmch_set_pceP25_xa_aacmch_dec_api_structP15_tranportInfo_t+0xa>
    7fe1:	e0a721        	l32r	a2, 280 (ffff8000 <_end+0xfffe7448>)
    7fe4:	f01d           	retw.n

00007fe6 <_Z17xa_aacmch_set_pceP25_xa_aacmch_dec_api_structP15_tranportInfo_t+0xa>:
    7fe6:	f298           	l32i.n	a9, a2, 60
    7fe8:	50a2b2        	movi	a11, 0x250
    7feb:	02d8           	l32i.n	a13, a2, 0
    7fed:	2c1926        	beqi	a9, 1, 801d <_Z17xa_aacmch_set_pceP25_xa_aacmch_dec_api_structP15_tranportInfo_t+0x41>
    7ff0:	472926        	beqi	a9, 2, 803b <_Z17xa_aacmch_set_pceP25_xa_aacmch_dec_api_structP15_tranportInfo_t+0x5f>
    7ff3:	025926        	beqi	a9, 5, 7ff9 <_Z17xa_aacmch_set_pceP25_xa_aacmch_dec_api_structP15_tranportInfo_t+0x1d>
    7ff6:	1f3966        	bnei	a9, 3, 8019 <_Z17xa_aacmch_set_pceP25_xa_aacmch_dec_api_structP15_tranportInfo_t+0x3d>
    7ff9:	03c8           	l32i.n	a12, a3, 0
    7ffb:	1e0c82        	l8ui	a8, a12, 30
    7ffe:	290c           	movi.n	a9, 2
    8000:	1a0c           	movi.n	a10, 1
    8002:	08bc           	beqz.n	a8, 8036 <_Z17xa_aacmch_set_pceP25_xa_aacmch_dec_api_structP15_tranportInfo_t+0x5a>
    8004:	1de8           	l32i.n	a14, a13, 4
    8006:	93a9e0        	movnez	a10, a9, a14

00008009 <_Z17xa_aacmch_set_pceP25_xa_aacmch_dec_api_structP15_tranportInfo_t+0x2d>:
    8009:	1462a2        	s32i	a10, a2, 80
    800c:	e0b881        	l32r	a8, 2ec (8848 <_Z19_aacmch_raw_set_ascP20RAW_DECODER_INSTANCEP27xa_aacmch_dec_config_structP20tAudioSpecificConfig>)
    800f:	adba           	add.n	a10, a13, a11
    8011:	b28b           	addi.n	a11, a2, 8
    8013:	7f2aa2        	l32i	a10, a10, 0x1fc
    8016:	0008e0        	callx8	a8

00008019 <_Z17xa_aacmch_set_pceP25_xa_aacmch_dec_api_structP15_tranportInfo_t+0x3d>:
    8019:	020c           	movi.n	a2, 0
    801b:	f01d           	retw.n

0000801d <_Z17xa_aacmch_set_pceP25_xa_aacmch_dec_api_structP15_tranportInfo_t+0x41>:
    801d:	02dda2        	addmi	a10, a13, 0x200
    8020:	932aa2        	l32i	a10, a10, 0x24c
    8023:	ff2a16        	beqz	a10, 8019 <_Z17xa_aacmch_set_pceP25_xa_aacmch_dec_api_structP15_tranportInfo_t+0x3d>
    8026:	0aa8           	l32i.n	a10, a10, 0
    8028:	e0b281        	l32r	a8, 2f0 (2b28 <_Z24CAacDecoderSetPCEpointerP20AAC_DECODER_INSTANCEPvc>)
    802b:	20cdb2        	addi	a11, a13, 32
    802e:	1c0c           	movi.n	a12, 1
    8030:	0008e0        	callx8	a8
    8033:	fff886        	j	8019 <_Z17xa_aacmch_set_pceP25_xa_aacmch_dec_api_structP15_tranportInfo_t+0x3d>

00008036 <_Z17xa_aacmch_set_pceP25_xa_aacmch_dec_api_structP15_tranportInfo_t+0x5a>:
    8036:	0a0c           	movi.n	a10, 0
    8038:	fff346        	j	8009 <_Z17xa_aacmch_set_pceP25_xa_aacmch_dec_api_structP15_tranportInfo_t+0x2d>

0000803b <_Z17xa_aacmch_set_pceP25_xa_aacmch_dec_api_structP15_tranportInfo_t+0x5f>:
    803b:	b28b           	addi.n	a11, a2, 8
    803d:	0a0dc2        	l8ui	a12, a13, 10
    8040:	02dda2        	addmi	a10, a13, 0x200
    8043:	e0ac81        	l32r	a8, 2f4 (88a0 <_Z27_aacmch_raw_set_channel_cfgP20RAW_DECODER_INSTANCEP27xa_aacmch_dec_config_structc>)
    8046:	932aa2        	l32i	a10, a10, 0x24c
    8049:	23cc00        	sext	a12, a12, 7
    804c:	0008e0        	callx8	a8
    804f:	fff186        	j	8019 <_Z17xa_aacmch_set_pceP25_xa_aacmch_dec_api_structP15_tranportInfo_t+0x3d>

00008052 <_Z17xa_aacmch_set_pceP25_xa_aacmch_dec_api_structP15_tranportInfo_t+0x76>:
	...

00008054 <_Z22xa_aacmch_runtime_initP25_xa_aacmch_dec_api_struct>:
    8054:	004136        	entry	a1, 32
    8057:	0258           	l32i.n	a5, a2, 0
    8059:	040c           	movi.n	a4, 0
    805b:	04d552        	addmi	a5, a5, 0x400
    805e:	132552        	l32i	a5, a5, 76
    8061:	e67c           	movi.n	a6, -2
    8063:	180c           	movi.n	a8, 1
    8065:	45cc           	bnez.n	a5, 806d <_Z22xa_aacmch_runtime_initP25_xa_aacmch_dec_api_struct+0x19>
    8067:	e0a441        	l32r	a4, 2f8 (ffff8003 <_end+0xfffe744b>)
    806a:	000146        	j	8073 <_Z22xa_aacmch_runtime_initP25_xa_aacmch_dec_api_struct+0x1f>

0000806d <_Z22xa_aacmch_runtime_initP25_xa_aacmch_dec_api_struct+0x19>:
    806d:	1b6582        	s32i	a8, a5, 108
    8070:	236262        	s32i	a6, a2, 140

00008073 <_Z22xa_aacmch_runtime_initP25_xa_aacmch_dec_api_struct+0x1f>:
    8073:	042d           	mov.n	a2, a4
    8075:	f01d           	retw.n

00008077 <_Z22xa_aacmch_runtime_initP25_xa_aacmch_dec_api_struct+0x23>:
	...

00008078 <_Z19xa_aacmch_getconfigP25_xa_aacmch_dec_api_structiPv>:
    8078:	004136        	entry	a1, 32
    807b:	34cc           	bnez.n	a4, 8082 <_Z19xa_aacmch_getconfigP25_xa_aacmch_dec_api_structiPv+0xa>
    807d:	e08021        	l32r	a2, 280 (ffff8000 <_end+0xfffe7448>)
    8080:	f01d           	retw.n

00008082 <_Z19xa_aacmch_getconfigP25_xa_aacmch_dec_api_structiPv+0xa>:
    8082:	0b0c           	movi.n	a11, 0
    8084:	09b3a6        	blti	a3, 16, 8091 <_Z19xa_aacmch_getconfigP25_xa_aacmch_dec_api_structiPv+0x19>
    8087:	081c           	movi.n	a8, 16
    8089:	142837        	blt	a8, a3, 80a1 <_Z19xa_aacmch_getconfigP25_xa_aacmch_dec_api_structiPv+0x29>
    808c:	f2a8           	l32i.n	a10, a2, 60
    808e:	000246        	j	809b <_Z19xa_aacmch_getconfigP25_xa_aacmch_dec_api_structiPv+0x23>

00008091 <_Z19xa_aacmch_getconfigP25_xa_aacmch_dec_api_structiPv+0x19>:
    8091:	890c           	movi.n	a9, 8
    8093:	1aa937        	bge	a9, a3, 80b1 <_Z19xa_aacmch_getconfigP25_xa_aacmch_dec_api_structiPv+0x39>
    8096:	4493e6        	bgei	a3, 10, 80de <_Z19xa_aacmch_getconfigP25_xa_aacmch_dec_api_structiPv+0x66>
    8099:	62a8           	l32i.n	a10, a2, 24

0000809b <_Z19xa_aacmch_getconfigP25_xa_aacmch_dec_api_structiPv+0x23>:
    809b:	04a9           	s32i.n	a10, a4, 0

0000809d <_Z19xa_aacmch_getconfigP25_xa_aacmch_dec_api_structiPv+0x25>:
    809d:	020c           	movi.n	a2, 0
    809f:	f01d           	retw.n

000080a1 <_Z19xa_aacmch_getconfigP25_xa_aacmch_dec_api_structiPv+0x29>:
    80a1:	aa2c           	movi.n	a10, 42
    80a3:	18aa37        	bge	a10, a3, 80bf <_Z19xa_aacmch_getconfigP25_xa_aacmch_dec_api_structiPv+0x47>
    80a6:	bc2c           	movi.n	a12, 43
    80a8:	5c2c37        	blt	a12, a3, 8108 <_Z19xa_aacmch_getconfigP25_xa_aacmch_dec_api_structiPv+0x90>
    80ab:	2622a2        	l32i	a10, a2, 152
    80ae:	fffa46        	j	809b <_Z19xa_aacmch_getconfigP25_xa_aacmch_dec_api_structiPv+0x23>

000080b1 <_Z19xa_aacmch_getconfigP25_xa_aacmch_dec_api_structiPv+0x39>:
    80b1:	4b73a6        	blti	a3, 7, 8100 <_Z19xa_aacmch_getconfigP25_xa_aacmch_dec_api_structiPv+0x88>
    80b4:	0283a6        	blti	a3, 8, 80ba <_Z19xa_aacmch_getconfigP25_xa_aacmch_dec_api_structiPv+0x42>
    80b7:	002286        	j	8145 <_Z19xa_aacmch_getconfigP25_xa_aacmch_dec_api_structiPv+0xcd>
    80ba:	82a8           	l32i.n	a10, a2, 32
    80bc:	fff6c6        	j	809b <_Z19xa_aacmch_getconfigP25_xa_aacmch_dec_api_structiPv+0x23>

000080bf <_Z19xa_aacmch_getconfigP25_xa_aacmch_dec_api_structiPv+0x47>:
    80bf:	6d2c           	movi.n	a13, 38
    80c1:	58ad37        	bge	a13, a3, 811d <_Z19xa_aacmch_getconfigP25_xa_aacmch_dec_api_structiPv+0xa5>
    80c4:	7e2c           	movi.n	a14, 39
    80c6:	02ae37        	bge	a14, a3, 80cc <_Z19xa_aacmch_getconfigP25_xa_aacmch_dec_api_structiPv+0x54>
    80c9:	006c06        	j	827d <_Z19xa_aacmch_getconfigP25_xa_aacmch_dec_api_structiPv+0x205>
    80cc:	f298           	l32i.n	a9, a2, 60
    80ce:	fec9f2        	addi	a15, a9, -2
    80d1:	209f16        	beqz	a15, 82de <_Z19xa_aacmch_getconfigP25_xa_aacmch_dec_api_structiPv+0x266>
    80d4:	890b           	addi.n	a8, a9, -1
    80d6:	1d7816        	beqz	a8, 82b1 <_Z19xa_aacmch_getconfigP25_xa_aacmch_dec_api_structiPv+0x239>

000080d9 <_Z19xa_aacmch_getconfigP25_xa_aacmch_dec_api_structiPv+0x61>:
    80d9:	c0a022        	movi	a2, 192
    80dc:	f01d           	retw.n

000080de <_Z19xa_aacmch_getconfigP25_xa_aacmch_dec_api_structiPv+0x66>:
    80de:	d90c           	movi.n	a9, 13
    80e0:	51a937        	bge	a9, a3, 8135 <_Z19xa_aacmch_getconfigP25_xa_aacmch_dec_api_structiPv+0xbd>
    80e3:	ea0c           	movi.n	a10, 14
    80e5:	02aa37        	bge	a10, a3, 80eb <_Z19xa_aacmch_getconfigP25_xa_aacmch_dec_api_structiPv+0x73>
    80e8:	002106        	j	8170 <_Z19xa_aacmch_getconfigP25_xa_aacmch_dec_api_structiPv+0xf8>
    80eb:	02b8           	l32i.n	a11, a2, 0
    80ed:	04dbb2        	addmi	a11, a11, 0x400
    80f0:	132bb2        	l32i	a11, a11, 76
    80f3:	192bb2        	l32i	a11, a11, 100
    80f6:	04b9           	s32i.n	a11, a4, 0
    80f8:	a10b66        	bnei	a11, -1, 809d <_Z19xa_aacmch_getconfigP25_xa_aacmch_dec_api_structiPv+0x25>

000080fb <_Z19xa_aacmch_getconfigP25_xa_aacmch_dec_api_structiPv+0x83>:
    80fb:	e08021        	l32r	a2, 2fc (8c0 <_Z10ApplyToolsPP28CAacDecoderStaticChannelInfoPP22CAacDecoderChannelInfoi>)
    80fe:	f01d           	retw.n

00008100 <_Z19xa_aacmch_getconfigP25_xa_aacmch_dec_api_structiPv+0x88>:
    8100:	4e63a6        	blti	a3, 6, 8152 <_Z19xa_aacmch_getconfigP25_xa_aacmch_dec_api_structiPv+0xda>
    8103:	72a8           	l32i.n	a10, a2, 28
    8105:	ffe486        	j	809b <_Z19xa_aacmch_getconfigP25_xa_aacmch_dec_api_structiPv+0x23>

00008108 <_Z19xa_aacmch_getconfigP25_xa_aacmch_dec_api_structiPv+0x90>:
    8108:	6ff3a6        	blti	a3, 0x100, 817b <_Z19xa_aacmch_getconfigP25_xa_aacmch_dec_api_structiPv+0x103>
    810b:	00a1c2        	movi	a12, 0x100
    810e:	02ac37        	bge	a12, a3, 8114 <_Z19xa_aacmch_getconfigP25_xa_aacmch_dec_api_structiPv+0x9c>
    8111:	006906        	j	82b9 <_Z19xa_aacmch_getconfigP25_xa_aacmch_dec_api_structiPv+0x241>
    8114:	2422d2        	l32i	a13, a2, 144
    8117:	04d9           	s32i.n	a13, a4, 0
    8119:	0b2d           	mov.n	a2, a11
    811b:	f01d           	retw.n

0000811d <_Z19xa_aacmch_getconfigP25_xa_aacmch_dec_api_structiPv+0xa5>:
    811d:	5e2c           	movi.n	a14, 37
    811f:	37ae37        	bge	a14, a3, 815a <_Z19xa_aacmch_getconfigP25_xa_aacmch_dec_api_structiPv+0xe2>
    8122:	02a8           	l32i.n	a10, a2, 0
    8124:	04daa2        	addmi	a10, a10, 0x400
    8127:	132aa2        	l32i	a10, a10, 76
    812a:	e07581        	l32r	a8, 300 (2b50 <_Z31CAacDecoderGetDRCExtPresentFlagP20AAC_DECODER_INSTANCE>)
    812d:	0aa8           	l32i.n	a10, a10, 0
    812f:	0008e0        	callx8	a8
    8132:	ffd946        	j	809b <_Z19xa_aacmch_getconfigP25_xa_aacmch_dec_api_structiPv+0x23>

00008135 <_Z19xa_aacmch_getconfigP25_xa_aacmch_dec_api_structiPv+0xbd>:
    8135:	ac0c           	movi.n	a12, 10
    8137:	022c37        	blt	a12, a3, 813d <_Z19xa_aacmch_getconfigP25_xa_aacmch_dec_api_structiPv+0xc5>
    813a:	005786        	j	829c <_Z19xa_aacmch_getconfigP25_xa_aacmch_dec_api_structiPv+0x224>
    813d:	98a3e6        	bgei	a3, 12, 80d9 <_Z19xa_aacmch_getconfigP25_xa_aacmch_dec_api_structiPv+0x61>
    8140:	b2a8           	l32i.n	a10, a2, 44
    8142:	ffd546        	j	809b <_Z19xa_aacmch_getconfigP25_xa_aacmch_dec_api_structiPv+0x23>

00008145 <_Z19xa_aacmch_getconfigP25_xa_aacmch_dec_api_structiPv+0xcd>:
    8145:	908366        	bnei	a3, 8, 80d9 <_Z19xa_aacmch_getconfigP25_xa_aacmch_dec_api_structiPv+0x61>
    8148:	92a8           	l32i.n	a10, a2, 36
    814a:	1d0c           	movi.n	a13, 1
    814c:	93ada0        	movnez	a10, a13, a10
    814f:	ffd206        	j	809b <_Z19xa_aacmch_getconfigP25_xa_aacmch_dec_api_structiPv+0x23>

00008152 <_Z19xa_aacmch_getconfigP25_xa_aacmch_dec_api_structiPv+0xda>:
    8152:	835366        	bnei	a3, 5, 80d9 <_Z19xa_aacmch_getconfigP25_xa_aacmch_dec_api_structiPv+0x61>
    8155:	62a8           	l32i.n	a10, a2, 24
    8157:	ffd006        	j	809b <_Z19xa_aacmch_getconfigP25_xa_aacmch_dec_api_structiPv+0x23>

0000815a <_Z19xa_aacmch_getconfigP25_xa_aacmch_dec_api_structiPv+0xe2>:
    815a:	e2c3e2        	addi	a14, a3, -30
    815d:	f78e56        	bnez	a14, 80d9 <_Z19xa_aacmch_getconfigP25_xa_aacmch_dec_api_structiPv+0x61>
    8160:	f2f8           	l32i.n	a15, a2, 60
    8162:	fecff2        	addi	a15, a15, -2
    8165:	f70f56        	bnez	a15, 80d9 <_Z19xa_aacmch_getconfigP25_xa_aacmch_dec_api_structiPv+0x61>
    8168:	02a8           	l32i.n	a10, a2, 0
    816a:	040aa2        	l8ui	a10, a10, 4
    816d:	ffca86        	j	809b <_Z19xa_aacmch_getconfigP25_xa_aacmch_dec_api_structiPv+0x23>

00008170 <_Z19xa_aacmch_getconfigP25_xa_aacmch_dec_api_structiPv+0xf8>:
    8170:	f1c3b2        	addi	a11, a3, -15
    8173:	f62b56        	bnez	a11, 80d9 <_Z19xa_aacmch_getconfigP25_xa_aacmch_dec_api_structiPv+0x61>
    8176:	e2a8           	l32i.n	a10, a2, 56
    8178:	ffc7c6        	j	809b <_Z19xa_aacmch_getconfigP25_xa_aacmch_dec_api_structiPv+0x23>

0000817b <_Z19xa_aacmch_getconfigP25_xa_aacmch_dec_api_structiPv+0x103>:
    817b:	fa2c           	movi.n	a10, 47
    817d:	022a37        	blt	a10, a3, 8183 <_Z19xa_aacmch_getconfigP25_xa_aacmch_dec_api_structiPv+0x10b>
    8180:	005386        	j	82d2 <_Z19xa_aacmch_getconfigP25_xa_aacmch_dec_api_structiPv+0x25a>
    8183:	0c3c           	movi.n	a12, 48
    8185:	02ac37        	bge	a12, a3, 818b <_Z19xa_aacmch_getconfigP25_xa_aacmch_dec_api_structiPv+0x113>
    8188:	ffd346        	j	80d9 <_Z19xa_aacmch_getconfigP25_xa_aacmch_dec_api_structiPv+0x61>
    818b:	02a8           	l32i.n	a10, a2, 0
    818d:	04daa2        	addmi	a10, a10, 0x400
    8190:	132aa2        	l32i	a10, a10, 76
    8193:	e05c81        	l32r	a8, 304 (35b0 <_Z23CAacDecoderGetPtrForPCEP20AAC_DECODER_INSTANCE>)
    8196:	0aa8           	l32i.n	a10, a10, 0
    8198:	0008e0        	callx8	a8
    819b:	0a3d           	mov.n	a3, a10
    819d:	efca16        	beqz	a10, 809d <_Z19xa_aacmch_getconfigP25_xa_aacmch_dec_api_structiPv+0x25>
    81a0:	04ad           	mov.n	a10, a4
    81a2:	dfd581        	l32r	a8, f8 (9db0 <__vec_memset>)
    81a5:	0b0c           	movi.n	a11, 0
    81a7:	74a0c2        	movi	a12, 116
    81aa:	0008e0        	callx8	a8
    81ad:	132292        	l32i	a9, a2, 76
    81b0:	a9cc           	bnez.n	a9, 81be <_Z19xa_aacmch_getconfigP25_xa_aacmch_dec_api_structiPv+0x146>
    81b2:	1422a2        	l32i	a10, a2, 80
    81b5:	5acc           	bnez.n	a10, 81be <_Z19xa_aacmch_getconfigP25_xa_aacmch_dec_api_structiPv+0x146>
    81b7:	f2b8           	l32i.n	a11, a2, 60
    81b9:	bb0b           	addi.n	a11, a11, -1
    81bb:	f3cb56        	bnez	a11, 80fb <_Z19xa_aacmch_getconfigP25_xa_aacmch_dec_api_structiPv+0x83>
    81be:	0803c2        	l8ui	a12, a3, 8
    81c1:	0044c2        	s8i	a12, a4, 0
    81c4:	090392        	l8ui	a9, a3, 9
    81c7:	23cc00        	sext	a12, a12, 7
    81ca:	014492        	s8i	a9, a4, 1
    81cd:	0b03d2        	l8ui	a13, a3, 11
    81d0:	0a03e2        	l8ui	a14, a3, 10
    81d3:	239900        	sext	a9, a9, 7
    81d6:	0244e2        	s8i	a14, a4, 2
    81d9:	0344d2        	s8i	a13, a4, 3
    81dc:	281ca6        	blti	a12, 1, 8208 <_Z19xa_aacmch_getconfigP25_xa_aacmch_dec_api_structiPv+0x190>
    81df:	03ad           	mov.n	a10, a3
    81e1:	04cd           	mov.n	a12, a4
    81e3:	0b0c           	movi.n	a11, 0

000081e5 <_Z19xa_aacmch_getconfigP25_xa_aacmch_dec_api_structiPv+0x16d>:
    81e5:	150af2        	l8ui	a15, a10, 21
    81e8:	bb1b           	addi.n	a11, a11, 1
    81ea:	ff1b           	addi.n	a15, a15, 1
    81ec:	044cf2        	s8i	a15, a12, 4
    81ef:	a60ae2        	l8ui	a14, a10, 166
    81f2:	444ce2        	s8i	a14, a12, 68
    81f5:	0803d2        	l8ui	a13, a3, 8
    81f8:	aa1b           	addi.n	a10, a10, 1
    81fa:	cc1b           	addi.n	a12, a12, 1
    81fc:	23dd00        	sext	a13, a13, 7
    81ff:	e22bd7        	blt	a11, a13, 81e5 <_Z19xa_aacmch_getconfigP25_xa_aacmch_dec_api_structiPv+0x16d>
    8202:	090392        	l8ui	a9, a3, 9
    8205:	239900        	sext	a9, a9, 7

00008208 <_Z19xa_aacmch_getconfigP25_xa_aacmch_dec_api_structiPv+0x190>:
    8208:	2219a6        	blti	a9, 1, 822e <_Z19xa_aacmch_getconfigP25_xa_aacmch_dec_api_structiPv+0x1b6>
    820b:	03ad           	mov.n	a10, a3
    820d:	04cd           	mov.n	a12, a4
    820f:	0b0c           	movi.n	a11, 0

00008211 <_Z19xa_aacmch_getconfigP25_xa_aacmch_dec_api_structiPv+0x199>:
    8211:	250af2        	l8ui	a15, a10, 37
    8214:	bb1b           	addi.n	a11, a11, 1
    8216:	ff1b           	addi.n	a15, a15, 1
    8218:	144cf2        	s8i	a15, a12, 20
    821b:	b60ae2        	l8ui	a14, a10, 182
    821e:	544ce2        	s8i	a14, a12, 84
    8221:	0903d2        	l8ui	a13, a3, 9
    8224:	aa1b           	addi.n	a10, a10, 1
    8226:	cc1b           	addi.n	a12, a12, 1
    8228:	23dd00        	sext	a13, a13, 7
    822b:	e22bd7        	blt	a11, a13, 8211 <_Z19xa_aacmch_getconfigP25_xa_aacmch_dec_api_structiPv+0x199>

0000822e <_Z19xa_aacmch_getconfigP25_xa_aacmch_dec_api_structiPv+0x1b6>:
    822e:	0a0382        	l8ui	a8, a3, 10
    8231:	238800        	sext	a8, a8, 7
    8234:	2218a6        	blti	a8, 1, 825a <_Z19xa_aacmch_getconfigP25_xa_aacmch_dec_api_structiPv+0x1e2>
    8237:	03ad           	mov.n	a10, a3
    8239:	04cd           	mov.n	a12, a4
    823b:	0b0c           	movi.n	a11, 0

0000823d <_Z19xa_aacmch_getconfigP25_xa_aacmch_dec_api_structiPv+0x1c5>:
    823d:	350ae2        	l8ui	a14, a10, 53
    8240:	bb1b           	addi.n	a11, a11, 1
    8242:	ee1b           	addi.n	a14, a14, 1
    8244:	244ce2        	s8i	a14, a12, 36
    8247:	c60ad2        	l8ui	a13, a10, 198
    824a:	644cd2        	s8i	a13, a12, 100
    824d:	0a0392        	l8ui	a9, a3, 10
    8250:	aa1b           	addi.n	a10, a10, 1
    8252:	cc1b           	addi.n	a12, a12, 1
    8254:	239900        	sext	a9, a9, 7
    8257:	e22b97        	blt	a11, a9, 823d <_Z19xa_aacmch_getconfigP25_xa_aacmch_dec_api_structiPv+0x1c5>

0000825a <_Z19xa_aacmch_getconfigP25_xa_aacmch_dec_api_structiPv+0x1e2>:
    825a:	0b03f2        	l8ui	a15, a3, 11
    825d:	23ff00        	sext	a15, a15, 7
    8260:	021fe6        	bgei	a15, 1, 8266 <_Z19xa_aacmch_getconfigP25_xa_aacmch_dec_api_structiPv+0x1ee>
    8263:	ff8d86        	j	809d <_Z19xa_aacmch_getconfigP25_xa_aacmch_dec_api_structiPv+0x25>
    8266:	0b0c           	movi.n	a11, 0
    8268:	1a0c           	movi.n	a10, 1

0000826a <_Z19xa_aacmch_getconfigP25_xa_aacmch_dec_api_structiPv+0x1f2>:
    826a:	3444a2        	s8i	a10, a4, 52
    826d:	0b0382        	l8ui	a8, a3, 11
    8270:	bb1b           	addi.n	a11, a11, 1
    8272:	441b           	addi.n	a4, a4, 1
    8274:	238800        	sext	a8, a8, 7
    8277:	ef2b87        	blt	a11, a8, 826a <_Z19xa_aacmch_getconfigP25_xa_aacmch_dec_api_structiPv+0x1f2>
    827a:	ff87c6        	j	809d <_Z19xa_aacmch_getconfigP25_xa_aacmch_dec_api_structiPv+0x25>

0000827d <_Z19xa_aacmch_getconfigP25_xa_aacmch_dec_api_structiPv+0x205>:
    827d:	d8c392        	addi	a9, a3, -40
    8280:	e55956        	bnez	a9, 80d9 <_Z19xa_aacmch_getconfigP25_xa_aacmch_dec_api_structiPv+0x61>
    8283:	f298           	l32i.n	a9, a2, 60
    8285:	5d2926        	beqi	a9, 2, 82e6 <_Z19xa_aacmch_getconfigP25_xa_aacmch_dec_api_structiPv+0x26e>
    8288:	a90b           	addi.n	a10, a9, -1
    828a:	e4ba56        	bnez	a10, 80d9 <_Z19xa_aacmch_getconfigP25_xa_aacmch_dec_api_structiPv+0x61>
    828d:	04b9           	s32i.n	a11, a4, 0
    828f:	0298           	l32i.n	a9, a2, 0
    8291:	0409c2        	l8ui	a12, a9, 4
    8294:	05cc16        	beqz	a12, 82f4 <_Z19xa_aacmch_getconfigP25_xa_aacmch_dec_api_structiPv+0x27c>
    8297:	a95b           	addi.n	a10, a9, 5
    8299:	ff7f86        	j	809b <_Z19xa_aacmch_getconfigP25_xa_aacmch_dec_api_structiPv+0x23>

0000829c <_Z19xa_aacmch_getconfigP25_xa_aacmch_dec_api_structiPv+0x224>:
    829c:	f6c3d2        	addi	a13, a3, -10
    829f:	e36d56        	bnez	a13, 80d9 <_Z19xa_aacmch_getconfigP25_xa_aacmch_dec_api_structiPv+0x61>
    82a2:	a2a8           	l32i.n	a10, a2, 40
    82a4:	020a26        	beqi	a10, -1, 82aa <_Z19xa_aacmch_getconfigP25_xa_aacmch_dec_api_structiPv+0x232>
    82a7:	ff7c06        	j	809b <_Z19xa_aacmch_getconfigP25_xa_aacmch_dec_api_structiPv+0x23>
    82aa:	04b9           	s32i.n	a11, a4, 0
    82ac:	e01921        	l32r	a2, 310 (8c1 <_Z10ApplyToolsPP28CAacDecoderStaticChannelInfoPP22CAacDecoderChannelInfoi+0x1>)
    82af:	f01d           	retw.n

000082b1 <_Z19xa_aacmch_getconfigP25_xa_aacmch_dec_api_structiPv+0x239>:
    82b1:	02a8           	l32i.n	a10, a2, 0
    82b3:	0e0aa2        	l8ui	a10, a10, 14
    82b6:	ff7846        	j	809b <_Z19xa_aacmch_getconfigP25_xa_aacmch_dec_api_structiPv+0x23>

000082b9 <_Z19xa_aacmch_getconfigP25_xa_aacmch_dec_api_structiPv+0x241>:
    82b9:	fed3b2        	addmi	a11, a3, 0xfffffe00
    82bc:	e19b56        	bnez	a11, 80d9 <_Z19xa_aacmch_getconfigP25_xa_aacmch_dec_api_structiPv+0x61>
    82bf:	2222d2        	l32i	a13, a2, 136
    82c2:	04d9           	s32i.n	a13, a4, 0
    82c4:	2322c2        	l32i	a12, a2, 140
    82c7:	021ca6        	blti	a12, 1, 82cd <_Z19xa_aacmch_getconfigP25_xa_aacmch_dec_api_structiPv+0x255>
    82ca:	ff73c6        	j	809d <_Z19xa_aacmch_getconfigP25_xa_aacmch_dec_api_structiPv+0x25>
    82cd:	e00e21        	l32r	a2, 308 (8c3 <_Z10ApplyToolsPP28CAacDecoderStaticChannelInfoPP22CAacDecoderChannelInfoi+0x3>)
    82d0:	f01d           	retw.n

000082d2 <_Z19xa_aacmch_getconfigP25_xa_aacmch_dec_api_structiPv+0x25a>:
    82d2:	d1c3e2        	addi	a14, a3, -47
    82d5:	e00e56        	bnez	a14, 80d9 <_Z19xa_aacmch_getconfigP25_xa_aacmch_dec_api_structiPv+0x61>
    82d8:	2722a2        	l32i	a10, a2, 156
    82db:	ff6f06        	j	809b <_Z19xa_aacmch_getconfigP25_xa_aacmch_dec_api_structiPv+0x23>

000082de <_Z19xa_aacmch_getconfigP25_xa_aacmch_dec_api_structiPv+0x266>:
    82de:	02a8           	l32i.n	a10, a2, 0
    82e0:	0b0aa2        	l8ui	a10, a10, 11
    82e3:	ff6d06        	j	809b <_Z19xa_aacmch_getconfigP25_xa_aacmch_dec_api_structiPv+0x23>

000082e6 <_Z19xa_aacmch_getconfigP25_xa_aacmch_dec_api_structiPv+0x26e>:
    82e6:	04b9           	s32i.n	a11, a4, 0
    82e8:	0298           	l32i.n	a9, a2, 0
    82ea:	2b09c2        	l8ui	a12, a9, 43
    82ed:	3c8c           	beqz.n	a12, 82f4 <_Z19xa_aacmch_getconfigP25_xa_aacmch_dec_api_structiPv+0x27c>
    82ef:	2cc9d2        	addi	a13, a9, 44
    82f2:	04d9           	s32i.n	a13, a4, 0

000082f4 <_Z19xa_aacmch_getconfigP25_xa_aacmch_dec_api_structiPv+0x27c>:
    82f4:	e00621        	l32r	a2, 30c (8c4 <_Z10ApplyToolsPP28CAacDecoderStaticChannelInfoPP22CAacDecoderChannelInfoi+0x4>)
    82f7:	f01d           	retw.n

000082f9 <_Z19xa_aacmch_getconfigP25_xa_aacmch_dec_api_structiPv+0x281>:
    82f9:	000000                                        ...

000082fc <_Z19xa_aacmch_setconfigP25_xa_aacmch_dec_api_structiPv>:
    82fc:	004136        	entry	a1, 32
    82ff:	025d           	mov.n	a5, a2
    8301:	32cc           	bnez.n	a2, 8308 <_Z19xa_aacmch_setconfigP25_xa_aacmch_dec_api_structiPv+0xc>
    8303:	dfdf21        	l32r	a2, 280 (ffff8000 <_end+0xfffe7448>)
    8306:	f01d           	retw.n

00008308 <_Z19xa_aacmch_setconfigP25_xa_aacmch_dec_api_structiPv+0xc>:
    8308:	0448           	l32i.n	a4, a4, 0
    830a:	3ba3a6        	blti	a3, 12, 8349 <_Z19xa_aacmch_setconfigP25_xa_aacmch_dec_api_structiPv+0x4d>
    830d:	c80c           	movi.n	a8, 12
    830f:	512837        	blt	a8, a3, 8364 <_Z19xa_aacmch_setconfigP25_xa_aacmch_dec_api_structiPv+0x68>
    8312:	219840        	srai	a9, a4, 8
    8315:	02b996        	bltz	a9, 8344 <_Z19xa_aacmch_setconfigP25_xa_aacmch_dec_api_structiPv+0x48>
    8318:	2829e6        	bgei	a9, 2, 8344 <_Z19xa_aacmch_setconfigP25_xa_aacmch_dec_api_structiPv+0x48>
    831b:	74a040        	extui	a10, a4, 0, 8
    831e:	1a8c           	beqz.n	a10, 8323 <_Z19xa_aacmch_setconfigP25_xa_aacmch_dec_api_structiPv+0x27>
    8320:	202a66        	bnei	a10, 2, 8344 <_Z19xa_aacmch_setconfigP25_xa_aacmch_dec_api_structiPv+0x48>
    8323:	fc0c           	movi.n	a12, 15
    8325:	11bae0        	slli	a11, a10, 2
    8328:	401b00        	ssl	a11
    832b:	c5a8           	l32i.n	a10, a5, 48
    832d:	a1dc00        	sll	a13, a12
    8330:	400b00        	ssr	a11
    8333:	20aad0        	or	a10, a10, a13
    8336:	c5a9           	s32i.n	a10, a5, 48
    8338:	b1d0a0        	sra	a13, a10
    833b:	34d0d0        	extui	a13, a13, 0, 4
    833e:	f1cdd2        	addi	a13, a13, -15
    8341:	0e8d16        	beqz	a13, 842d <_Z19xa_aacmch_setconfigP25_xa_aacmch_dec_api_structiPv+0x131>

00008344 <_Z19xa_aacmch_setconfigP25_xa_aacmch_dec_api_structiPv+0x48>:
    8344:	dfe721        	l32r	a2, 2e0 (ffff88c7 <_end+0xfffe7d0f>)
    8347:	f01d           	retw.n

00008349 <_Z19xa_aacmch_setconfigP25_xa_aacmch_dec_api_structiPv+0x4d>:
    8349:	2743a6        	blti	a3, 4, 8374 <_Z19xa_aacmch_setconfigP25_xa_aacmch_dec_api_structiPv+0x78>
    834c:	5653e6        	bgei	a3, 5, 83a6 <_Z19xa_aacmch_setconfigP25_xa_aacmch_dec_api_structiPv+0xaa>
    834f:	0be496        	bltz	a4, 8411 <_Z19xa_aacmch_setconfigP25_xa_aacmch_dec_api_structiPv+0x115>
    8352:	0224a6        	blti	a4, 2, 8358 <_Z19xa_aacmch_setconfigP25_xa_aacmch_dec_api_structiPv+0x5c>
    8355:	002e06        	j	8411 <_Z19xa_aacmch_setconfigP25_xa_aacmch_dec_api_structiPv+0x115>
    8358:	5249           	s32i.n	a4, a2, 20
    835a:	000c46        	j	838f <_Z19xa_aacmch_setconfigP25_xa_aacmch_dec_api_structiPv+0x93>

0000835d <_Z19xa_aacmch_setconfigP25_xa_aacmch_dec_api_structiPv+0x61>:
    835d:	dfe621        	l32r	a2, 2f8 (ffff8003 <_end+0xfffe744b>)
    8360:	f01d           	retw.n

00008362 <_Z19xa_aacmch_setconfigP25_xa_aacmch_dec_api_structiPv+0x66>:
    8362:	f01d           	retw.n

00008364 <_Z19xa_aacmch_setconfigP25_xa_aacmch_dec_api_structiPv+0x68>:
    8364:	ae2c           	movi.n	a14, 42
    8366:	29ae37        	bge	a14, a3, 8393 <_Z19xa_aacmch_setconfigP25_xa_aacmch_dec_api_structiPv+0x97>
    8369:	bf2c           	movi.n	a15, 43
    836b:	5b2f37        	blt	a15, a3, 83ca <_Z19xa_aacmch_setconfigP25_xa_aacmch_dec_api_structiPv+0xce>
    836e:	266242        	s32i	a4, a2, 152
    8371:	000686        	j	838f <_Z19xa_aacmch_setconfigP25_xa_aacmch_dec_api_structiPv+0x93>

00008374 <_Z19xa_aacmch_setconfigP25_xa_aacmch_dec_api_structiPv+0x78>:
    8374:	3e33a6        	blti	a3, 3, 83b6 <_Z19xa_aacmch_setconfigP25_xa_aacmch_dec_api_structiPv+0xba>
    8377:	249c           	beqz.n	a4, 838d <_Z19xa_aacmch_setconfigP25_xa_aacmch_dec_api_structiPv+0x91>
    8379:	103426        	beqi	a4, 3, 838d <_Z19xa_aacmch_setconfigP25_xa_aacmch_dec_api_structiPv+0x91>
    837c:	0d5426        	beqi	a4, 5, 838d <_Z19xa_aacmch_setconfigP25_xa_aacmch_dec_api_structiPv+0x91>
    837f:	0a1426        	beqi	a4, 1, 838d <_Z19xa_aacmch_setconfigP25_xa_aacmch_dec_api_structiPv+0x91>
    8382:	072426        	beqi	a4, 2, 838d <_Z19xa_aacmch_setconfigP25_xa_aacmch_dec_api_structiPv+0x91>
    8385:	046426        	beqi	a4, 6, 838d <_Z19xa_aacmch_setconfigP25_xa_aacmch_dec_api_structiPv+0x91>
    8388:	dfe321        	l32r	a2, 314 (ffff88c3 <_end+0xfffe7d0b>)
    838b:	f01d           	retw.n

0000838d <_Z19xa_aacmch_setconfigP25_xa_aacmch_dec_api_structiPv+0x91>:
    838d:	4549           	s32i.n	a4, a5, 16

0000838f <_Z19xa_aacmch_setconfigP25_xa_aacmch_dec_api_structiPv+0x93>:
    838f:	020c           	movi.n	a2, 0
    8391:	f01d           	retw.n

00008393 <_Z19xa_aacmch_setconfigP25_xa_aacmch_dec_api_structiPv+0x97>:
    8393:	982c           	movi.n	a8, 41
    8395:	45a837        	bge	a8, a3, 83de <_Z19xa_aacmch_setconfigP25_xa_aacmch_dec_api_structiPv+0xe2>
    8398:	ff3496        	bltz	a4, 838f <_Z19xa_aacmch_setconfigP25_xa_aacmch_dec_api_structiPv+0x93>
    839b:	156242        	s32i	a4, a2, 84
    839e:	190c           	movi.n	a9, 1
    83a0:	166292        	s32i	a9, a2, 88
    83a3:	fffa06        	j	838f <_Z19xa_aacmch_setconfigP25_xa_aacmch_dec_api_structiPv+0x93>

000083a6 <_Z19xa_aacmch_setconfigP25_xa_aacmch_dec_api_structiPv+0xaa>:
    83a6:	aa0c           	movi.n	a10, 10
    83a8:	52aa37        	bge	a10, a3, 83fe <_Z19xa_aacmch_setconfigP25_xa_aacmch_dec_api_structiPv+0x102>
    83ab:	7924a6        	blti	a4, 2, 8428 <_Z19xa_aacmch_setconfigP25_xa_aacmch_dec_api_structiPv+0x12c>
    83ae:	7634e6        	bgei	a4, 3, 8428 <_Z19xa_aacmch_setconfigP25_xa_aacmch_dec_api_structiPv+0x12c>
    83b1:	b249           	s32i.n	a4, a2, 44
    83b3:	fff606        	j	838f <_Z19xa_aacmch_setconfigP25_xa_aacmch_dec_api_structiPv+0x93>

000083b6 <_Z19xa_aacmch_setconfigP25_xa_aacmch_dec_api_structiPv+0xba>:
    83b6:	a32366        	bnei	a3, 2, 835d <_Z19xa_aacmch_setconfigP25_xa_aacmch_dec_api_structiPv+0x61>
    83b9:	dfd781        	l32r	a8, 318 (846c <_Z31validate_supported_samplingratei>)
    83bc:	04ad           	mov.n	a10, a4
    83be:	0008e0        	callx8	a8
    83c1:	0a2d           	mov.n	a2, a10
    83c3:	f9ba56        	bnez	a10, 8362 <_Z19xa_aacmch_setconfigP25_xa_aacmch_dec_api_structiPv+0x66>
    83c6:	3549           	s32i.n	a4, a5, 12
    83c8:	f01d           	retw.n

000083ca <_Z19xa_aacmch_setconfigP25_xa_aacmch_dec_api_structiPv+0xce>:
    83ca:	48f3a6        	blti	a3, 0x100, 8416 <_Z19xa_aacmch_setconfigP25_xa_aacmch_dec_api_structiPv+0x11a>
    83cd:	00a192        	movi	a9, 0x100
    83d0:	892937        	blt	a9, a3, 835d <_Z19xa_aacmch_setconfigP25_xa_aacmch_dec_api_structiPv+0x61>
    83d3:	246242        	s32i	a4, a2, 144
    83d6:	ea7c           	movi.n	a10, -2
    83d8:	2362a2        	s32i	a10, a2, 140
    83db:	ffec06        	j	838f <_Z19xa_aacmch_setconfigP25_xa_aacmch_dec_api_structiPv+0x93>

000083de <_Z19xa_aacmch_setconfigP25_xa_aacmch_dec_api_structiPv+0xe2>:
    83de:	efc3b2        	addi	a11, a3, -17
    83e1:	f78b56        	bnez	a11, 835d <_Z19xa_aacmch_setconfigP25_xa_aacmch_dec_api_structiPv+0x61>
    83e4:	05d496        	bltz	a4, 8445 <_Z19xa_aacmch_setconfigP25_xa_aacmch_dec_api_structiPv+0x149>
    83e7:	5a24e6        	bgei	a4, 2, 8445 <_Z19xa_aacmch_setconfigP25_xa_aacmch_dec_api_structiPv+0x149>
    83ea:	1122c2        	l32i	a12, a2, 68
    83ed:	11d4f0        	slli	a13, a4, 1
    83f0:	de7c           	movi.n	a14, -3
    83f2:	10cce0        	and	a12, a12, a14
    83f5:	20ccd0        	or	a12, a12, a13
    83f8:	1162c2        	s32i	a12, a2, 68
    83fb:	ffe406        	j	838f <_Z19xa_aacmch_setconfigP25_xa_aacmch_dec_api_structiPv+0x93>

000083fe <_Z19xa_aacmch_setconfigP25_xa_aacmch_dec_api_structiPv+0x102>:
    83fe:	f9c3f2        	addi	a15, a3, -7
    8401:	f58f56        	bnez	a15, 835d <_Z19xa_aacmch_setconfigP25_xa_aacmch_dec_api_structiPv+0x61>
    8404:	881c           	movi.n	a8, 24
    8406:	361487        	beq	a4, a8, 8440 <_Z19xa_aacmch_setconfigP25_xa_aacmch_dec_api_structiPv+0x144>
    8409:	33b426        	beqi	a4, 16, 8440 <_Z19xa_aacmch_setconfigP25_xa_aacmch_dec_api_structiPv+0x144>
    840c:	dfc421        	l32r	a2, 31c (ffff88c8 <_end+0xfffe7d10>)
    840f:	f01d           	retw.n

00008411 <_Z19xa_aacmch_setconfigP25_xa_aacmch_dec_api_structiPv+0x115>:
    8411:	dfc321        	l32r	a2, 320 (ffff88c4 <_end+0xfffe7d0c>)
    8414:	f01d           	retw.n

00008416 <_Z19xa_aacmch_setconfigP25_xa_aacmch_dec_api_structiPv+0x11a>:
    8416:	d1c392        	addi	a9, a3, -47
    8419:	f40956        	bnez	a9, 835d <_Z19xa_aacmch_setconfigP25_xa_aacmch_dec_api_structiPv+0x61>
    841c:	02a496        	bltz	a4, 844a <_Z19xa_aacmch_setconfigP25_xa_aacmch_dec_api_structiPv+0x14e>
    841f:	2724e6        	bgei	a4, 2, 844a <_Z19xa_aacmch_setconfigP25_xa_aacmch_dec_api_structiPv+0x14e>
    8422:	276242        	s32i	a4, a2, 156
    8425:	ffd986        	j	838f <_Z19xa_aacmch_setconfigP25_xa_aacmch_dec_api_structiPv+0x93>

00008428 <_Z19xa_aacmch_setconfigP25_xa_aacmch_dec_api_structiPv+0x12c>:
    8428:	dfbf21        	l32r	a2, 324 (ffff88c5 <_end+0xfffe7d0d>)
    842b:	f01d           	retw.n

0000842d <_Z19xa_aacmch_setconfigP25_xa_aacmch_dec_api_structiPv+0x131>:
    842d:	401b00        	ssl	a11
    8430:	30d9c0        	xor	a13, a9, a12
    8433:	a1dd00        	sll	a13, a13
    8436:	30dad0        	xor	a13, a10, a13
    8439:	c5d9           	s32i.n	a13, a5, 48
    843b:	d5d9           	s32i.n	a13, a5, 52
    843d:	ffd386        	j	838f <_Z19xa_aacmch_setconfigP25_xa_aacmch_dec_api_structiPv+0x93>

00008440 <_Z19xa_aacmch_setconfigP25_xa_aacmch_dec_api_structiPv+0x144>:
    8440:	8549           	s32i.n	a4, a5, 32
    8442:	ffd246        	j	838f <_Z19xa_aacmch_setconfigP25_xa_aacmch_dec_api_structiPv+0x93>

00008445 <_Z19xa_aacmch_setconfigP25_xa_aacmch_dec_api_structiPv+0x149>:
    8445:	dfb821        	l32r	a2, 328 (ffff88c9 <_end+0xfffe7d11>)
    8448:	f01d           	retw.n

0000844a <_Z19xa_aacmch_setconfigP25_xa_aacmch_dec_api_structiPv+0x14e>:
    844a:	dfb821        	l32r	a2, 32c (8c7 <_Z10ApplyToolsPP28CAacDecoderStaticChannelInfoPP22CAacDecoderChannelInfoi+0x7>)
    844d:	f01d           	retw.n

0000844f <_Z19xa_aacmch_setconfigP25_xa_aacmch_dec_api_structiPv+0x153>:
	...

00008450 <_Z19xa_aacmch_setconfigP25_xa_aacmch_dec_api_structiPv+0x154>:
    8450:	004136        	entry	a1, 32
    8453:	0a82a6        	blti	a2, 8, 8461 <_Z19xa_aacmch_setconfigP25_xa_aacmch_dec_api_structiPv+0x165>
    8456:	243020        	extui	a3, a2, 0, 3
    8459:	43cc           	bnez.n	a3, 8461 <_Z19xa_aacmch_setconfigP25_xa_aacmch_dec_api_structiPv+0x165>
    845b:	c0a042        	movi	a4, 192
    845e:	04a427        	bge	a4, a2, 8466 <_Z19xa_aacmch_setconfigP25_xa_aacmch_dec_api_structiPv+0x16a>
    8461:	dfb321        	l32r	a2, 330 (ffff88cc <_end+0xfffe7d14>)
    8464:	f01d           	retw.n

00008466 <_Z19xa_aacmch_setconfigP25_xa_aacmch_dec_api_structiPv+0x16a>:
    8466:	020c           	movi.n	a2, 0
    8468:	f01d           	retw.n

0000846a <_Z19xa_aacmch_setconfigP25_xa_aacmch_dec_api_structiPv+0x16e>:
	...

0000846c <_Z31validate_supported_samplingratei>:
    846c:	004136        	entry	a1, 32
    846f:	dfb131        	l32r	a3, 334 (7cff <_Z17xa_aacmch_processP25_xa_aacmch_dec_api_structi+0x2cf>)
    8472:	dfb141        	l32r	a4, 338 (7d00 <_Z17xa_aacmch_processP25_xa_aacmch_dec_api_structi+0x2d0>)
    8475:	dfb5c1        	l32r	a12, 34c (3e7f <_Z19LongShortLapIllegalP5fractS0_S0_PKjS2_S2_ii+0x197>)
    8478:	23a327        	bge	a3, a2, 849f <_Z31validate_supported_samplingratei+0x33>
    847b:	35a427        	bge	a4, a2, 84b4 <_Z31validate_supported_samplingratei+0x48>
    847e:	dfaf81        	l32r	a8, 33c (f9ff <channelConfig2NCC+0x99f>)
    8481:	dfaf91        	l32r	a9, 340 (fa00 <channelConfig2NCC+0x9a0>)
    8484:	dfbba1        	l32r	a10, 370 (bb7f <_DYNAMIC+0x1cc3>)
    8487:	4da827        	bge	a8, a2, 84d8 <_Z31validate_supported_samplingratei+0x6c>
    848a:	26a927        	bge	a9, a2, 84b4 <_Z31validate_supported_samplingratei+0x48>
    848d:	dfada1        	l32r	a10, 344 (176ff <_end+0x6b47>)
    8490:	dfaeb1        	l32r	a11, 348 (17700 <_end+0x6b48>)
    8493:	dfbbe1        	l32r	a14, 380 (15888 <_end+0x4cd0>)
    8496:	5caa27        	bge	a10, a2, 84f6 <_Z31validate_supported_samplingratei+0x8a>
    8499:	17ab27        	bge	a11, a2, 84b4 <_Z31validate_supported_samplingratei+0x48>
    849c:	0006c6        	j	84bb <_Z31validate_supported_samplingratei+0x4f>

0000849f <_Z31validate_supported_samplingratei+0x33>:
    849f:	1dac27        	bge	a12, a2, 84c0 <_Z31validate_supported_samplingratei+0x54>
    84a2:	dfabd1        	l32r	a13, 350 (3e80 <_Z19LongShortLapIllegalP5fractS0_S0_PKjS2_S2_ii+0x198>)
    84a5:	dfabe1        	l32r	a14, 354 (5dbf <_Z19CProgramConfig_ReadP7BIT_BUFP14CProgramConfigPi+0x1fb>)
    84a8:	08ad27        	bge	a13, a2, 84b4 <_Z31validate_supported_samplingratei+0x48>
    84ab:	3eae27        	bge	a14, a2, 84ed <_Z31validate_supported_samplingratei+0x81>
    84ae:	dfaaf1        	l32r	a15, 358 (5dc0 <_Z19CProgramConfig_ReadP7BIT_BUFP14CProgramConfigPi+0x1fc>)
    84b1:	062f27        	blt	a15, a2, 84bb <_Z31validate_supported_samplingratei+0x4f>

000084b4 <_Z31validate_supported_samplingratei+0x48>:
    84b4:	020c           	movi.n	a2, 0
    84b6:	f01d           	retw.n

000084b8 <_Z31validate_supported_samplingratei+0x4c>:
    84b8:	f81237        	beq	a2, a3, 84b4 <_Z31validate_supported_samplingratei+0x48>

000084bb <_Z31validate_supported_samplingratei+0x4f>:
    84bb:	dfa921        	l32r	a2, 360 (ffff88c2 <_end+0xfffe7d0a>)
    84be:	f01d           	retw.n

000084c0 <_Z31validate_supported_samplingratei+0x54>:
    84c0:	dfa941        	l32r	a4, 364 (2b10 <_Z23xa_Copy_PCE_From_HeaderP20AAC_DECODER_INSTANCE+0x54>)
    84c3:	dfa981        	l32r	a8, 368 (2b11 <_Z23xa_Copy_PCE_From_HeaderP20AAC_DECODER_INSTANCE+0x55>)
    84c6:	dfa531        	l32r	a3, 35c (1f40 <_Z20CJointStereo_ApplyISPP22CAacDecoderChannelInfoPKtPciih+0x160>)
    84c9:	eba427        	bge	a4, a2, 84b8 <_Z31validate_supported_samplingratei+0x4c>
    84cc:	e4a827        	bge	a8, a2, 84b4 <_Z31validate_supported_samplingratei+0x48>
    84cf:	dfa791        	l32r	a9, 36c (2ee0 <_Z22CAacDecoder_ParseFrameP20AAC_DECODER_INSTANCEPiciiS1_P21XA_AACDEC_CHANNELMODEcii+0x32c>)
    84d2:	e59297        	bne	a2, a9, 84bb <_Z31validate_supported_samplingratei+0x4f>
    84d5:	fff6c6        	j	84b4 <_Z31validate_supported_samplingratei+0x48>

000084d8 <_Z31validate_supported_samplingratei+0x6c>:
    84d8:	08aa27        	bge	a10, a2, 84e4 <_Z31validate_supported_samplingratei+0x78>
    84db:	dfa6b1        	l32r	a11, 374 (bb80 <_DYNAMIC+0x1cc4>)
    84de:	d2ab27        	bge	a11, a2, 84b4 <_Z31validate_supported_samplingratei+0x48>
    84e1:	fff586        	j	84bb <_Z31validate_supported_samplingratei+0x4f>

000084e4 <_Z31validate_supported_samplingratei+0x78>:
    84e4:	dfa5c1        	l32r	a12, 378 (ac44 <_DYNAMIC+0xd88>)
    84e7:	d092c7        	bne	a2, a12, 84bb <_Z31validate_supported_samplingratei+0x4f>
    84ea:	fff186        	j	84b4 <_Z31validate_supported_samplingratei+0x48>

000084ed <_Z31validate_supported_samplingratei+0x81>:
    84ed:	dfa3d1        	l32r	a13, 37c (5622 <_Z17CJointStereo_ReadPPtP16CJointStereoDataii+0x2a>)
    84f0:	c792d7        	bne	a2, a13, 84bb <_Z31validate_supported_samplingratei+0x4f>
    84f3:	ffef46        	j	84b4 <_Z31validate_supported_samplingratei+0x48>

000084f6 <_Z31validate_supported_samplingratei+0x8a>:
    84f6:	c192e7        	bne	a2, a14, 84bb <_Z31validate_supported_samplingratei+0x4f>
    84f9:	ffedc6        	j	84b4 <_Z31validate_supported_samplingratei+0x48>

000084fc <_Z21xa_aacmch_dec_mem_apiP25_xa_aacmch_dec_api_structiiPv>:
    84fc:	004136        	entry	a1, 32
    84ff:	929c           	beqz.n	a2, 851c <_Z21xa_aacmch_dec_mem_apiP25_xa_aacmch_dec_api_structiiPv+0x20>
    8501:	2922a2        	l32i	a10, a2, 164
    8504:	4a9c           	beqz.n	a10, 851c <_Z21xa_aacmch_dec_mem_apiP25_xa_aacmch_dec_api_structiiPv+0x20>
    8506:	04b496        	bltz	a4, 8555 <_Z21xa_aacmch_dec_mem_apiP25_xa_aacmch_dec_api_structiiPv+0x59>
    8509:	041282        	l16ui	a8, a2, 8
    850c:	5b1c           	movi.n	a11, 21
    850e:	43a487        	bge	a4, a8, 8555 <_Z21xa_aacmch_dec_mem_apiP25_xa_aacmch_dec_api_structiiPv+0x59>
    8511:	0c93b7        	bne	a3, a11, 8521 <_Z21xa_aacmch_dec_mem_apiP25_xa_aacmch_dec_api_structiiPv+0x25>
    8514:	2a2292        	l32i	a9, a2, 168
    8517:	198c           	beqz.n	a9, 851c <_Z21xa_aacmch_dec_mem_apiP25_xa_aacmch_dec_api_structiiPv+0x20>
    8519:	051556        	bnez	a5, 856e <_Z21xa_aacmch_dec_mem_apiP25_xa_aacmch_dec_api_structiiPv+0x72>

0000851c <_Z21xa_aacmch_dec_mem_apiP25_xa_aacmch_dec_api_structiiPv+0x20>:
    851c:	df5921        	l32r	a2, 280 (ffff8000 <_end+0xfffe7448>)
    851f:	f01d           	retw.n

00008521 <_Z21xa_aacmch_dec_mem_apiP25_xa_aacmch_dec_api_structiiPv+0x25>:
    8521:	35b326        	beqi	a3, 16, 855a <_Z21xa_aacmch_dec_mem_apiP25_xa_aacmch_dec_api_structiiPv+0x5e>
    8524:	1c1c           	movi.n	a12, 17
    8526:	3a13c7        	beq	a3, a12, 8564 <_Z21xa_aacmch_dec_mem_apiP25_xa_aacmch_dec_api_structiiPv+0x68>
    8529:	2d1c           	movi.n	a13, 18
    852b:	1913d7        	beq	a3, a13, 8548 <_Z21xa_aacmch_dec_mem_apiP25_xa_aacmch_dec_api_structiiPv+0x4c>
    852e:	3e1c           	movi.n	a14, 19
    8530:	4b13e7        	beq	a3, a14, 857f <_Z21xa_aacmch_dec_mem_apiP25_xa_aacmch_dec_api_structiiPv+0x83>
    8533:	4f1c           	movi.n	a15, 20
    8535:	5b13f7        	beq	a3, a15, 8594 <_Z21xa_aacmch_dec_mem_apiP25_xa_aacmch_dec_api_structiiPv+0x98>
    8538:	781c           	movi.n	a8, 23
    853a:	621387        	beq	a3, a8, 85a0 <_Z21xa_aacmch_dec_mem_apiP25_xa_aacmch_dec_api_structiiPv+0xa4>
    853d:	c093b0        	sub	a9, a3, a11
    8540:	071916        	beqz	a9, 85b5 <_Z21xa_aacmch_dec_mem_apiP25_xa_aacmch_dec_api_structiiPv+0xb9>
    8543:	df6d21        	l32r	a2, 2f8 (ffff8003 <_end+0xfffe744b>)
    8546:	f01d           	retw.n

00008548 <_Z21xa_aacmch_dec_mem_apiP25_xa_aacmch_dec_api_structiiPv+0x4c>:
    8548:	1194b0        	slli	a9, a4, 5
    854b:	9a9a           	add.n	a9, a10, a9
    854d:	2998           	l32i.n	a9, a9, 8

0000854f <_Z21xa_aacmch_dec_mem_apiP25_xa_aacmch_dec_api_structiiPv+0x53>:
    854f:	0599           	s32i.n	a9, a5, 0

00008551 <_Z21xa_aacmch_dec_mem_apiP25_xa_aacmch_dec_api_structiiPv+0x55>:
    8551:	020c           	movi.n	a2, 0
    8553:	f01d           	retw.n

00008555 <_Z21xa_aacmch_dec_mem_apiP25_xa_aacmch_dec_api_structiiPv+0x59>:
    8555:	df6821        	l32r	a2, 2f8 (ffff8003 <_end+0xfffe744b>)
    8558:	f01d           	retw.n

0000855a <_Z21xa_aacmch_dec_mem_apiP25_xa_aacmch_dec_api_structiiPv+0x5e>:
    855a:	1194b0        	slli	a9, a4, 5
    855d:	9a9a           	add.n	a9, a10, a9
    855f:	0998           	l32i.n	a9, a9, 0
    8561:	fffa86        	j	854f <_Z21xa_aacmch_dec_mem_apiP25_xa_aacmch_dec_api_structiiPv+0x53>

00008564 <_Z21xa_aacmch_dec_mem_apiP25_xa_aacmch_dec_api_structiiPv+0x68>:
    8564:	1194b0        	slli	a9, a4, 5
    8567:	9a9a           	add.n	a9, a10, a9
    8569:	1998           	l32i.n	a9, a9, 4
    856b:	fff806        	j	854f <_Z21xa_aacmch_dec_mem_apiP25_xa_aacmch_dec_api_structiiPv+0x53>

0000856e <_Z21xa_aacmch_dec_mem_apiP25_xa_aacmch_dec_api_structiiPv+0x72>:
    856e:	11c4b0        	slli	a12, a4, 5
    8571:	caca           	add.n	a12, a10, a12
    8573:	1cc8           	l32i.n	a12, a12, 4
    8575:	cc0b           	addi.n	a12, a12, -1
    8577:	a60c57        	bnone	a12, a5, 8521 <_Z21xa_aacmch_dec_mem_apiP25_xa_aacmch_dec_api_structiiPv+0x25>
    857a:	df8221        	l32r	a2, 384 (ffff8001 <_end+0xfffe7449>)
    857d:	f01d           	retw.n

0000857f <_Z21xa_aacmch_dec_mem_apiP25_xa_aacmch_dec_api_structiiPv+0x83>:
    857f:	2922d2        	l32i	a13, a2, 164
    8582:	11e4b0        	slli	a14, a4, 5
    8585:	faea           	add.n	a15, a10, a14
    8587:	3ff8           	l32i.n	a15, a15, 12
    8589:	05f9           	s32i.n	a15, a5, 0
    858b:	ddea           	add.n	a13, a13, a14
    858d:	4dd8           	l32i.n	a13, a13, 16
    858f:	15d9           	s32i.n	a13, a5, 4
    8591:	ffef06        	j	8551 <_Z21xa_aacmch_dec_mem_apiP25_xa_aacmch_dec_api_structiiPv+0x55>

00008594 <_Z21xa_aacmch_dec_mem_apiP25_xa_aacmch_dec_api_structiiPv+0x98>:
    8594:	1184b0        	slli	a8, a4, 5
    8597:	8a8a           	add.n	a8, a10, a8
    8599:	5888           	l32i.n	a8, a8, 20
    859b:	0589           	s32i.n	a8, a5, 0
    859d:	ffec06        	j	8551 <_Z21xa_aacmch_dec_mem_apiP25_xa_aacmch_dec_api_structiiPv+0x55>

000085a0 <_Z21xa_aacmch_dec_mem_apiP25_xa_aacmch_dec_api_structiiPv+0xa4>:
    85a0:	2922b2        	l32i	a11, a2, 164
    85a3:	11c4b0        	slli	a12, a4, 5
    85a6:	daca           	add.n	a13, a10, a12
    85a8:	bbca           	add.n	a11, a11, a12
    85aa:	05c8           	l32i.n	a12, a5, 0
    85ac:	6dc9           	s32i.n	a12, a13, 24
    85ae:	1598           	l32i.n	a9, a5, 4
    85b0:	7b99           	s32i.n	a9, a11, 28
    85b2:	ffe6c6        	j	8551 <_Z21xa_aacmch_dec_mem_apiP25_xa_aacmch_dec_api_structiiPv+0x55>

000085b5 <_Z21xa_aacmch_dec_mem_apiP25_xa_aacmch_dec_api_structiiPv+0xb9>:
    85b5:	2a22d2        	l32i	a13, a2, 168
    85b8:	a0d4d0        	addx4	a13, a4, a13
    85bb:	0d59           	s32i.n	a5, a13, 0
    85bd:	f90456        	bnez	a4, 8551 <_Z21xa_aacmch_dec_mem_apiP25_xa_aacmch_dec_api_structiiPv+0x55>
    85c0:	0b0c           	movi.n	a11, 0
    85c2:	2922c2        	l32i	a12, a2, 164
    85c5:	2a22a2        	l32i	a10, a2, 168
    85c8:	decc81        	l32r	a8, f8 (9db0 <__vec_memset>)
    85cb:	0cc8           	l32i.n	a12, a12, 0
    85cd:	a0a4a0        	addx4	a10, a4, a10
    85d0:	0aa8           	l32i.n	a10, a10, 0
    85d2:	0008e0        	callx8	a8
    85d5:	ffde06        	j	8551 <_Z21xa_aacmch_dec_mem_apiP25_xa_aacmch_dec_api_structiiPv+0x55>

000085d8 <_Z25xa_aacmch_postconfig_initP25_xa_aacmch_dec_api_struct>:
    85d8:	008136        	entry	a1, 64
    85db:	0f3216        	beqz	a2, 86d2 <_Z25xa_aacmch_postconfig_initP25_xa_aacmch_dec_api_struct+0xfa>
    85de:	292282        	l32i	a8, a2, 164
    85e1:	0ed816        	beqz	a8, 86d2 <_Z25xa_aacmch_postconfig_initP25_xa_aacmch_dec_api_struct+0xfa>
    85e4:	10c1a2        	addi	a10, a1, 16
    85e7:	01bd           	mov.n	a11, a1
    85e9:	c14b           	addi.n	a12, a1, 4
    85eb:	14c1d2        	addi	a13, a1, 20
    85ee:	df2781        	l32r	a8, 28c (8804 <_Z16aacmch_get_memszPiS_S_S_i>)
    85f1:	b238           	l32i.n	a3, a2, 44
    85f3:	060c           	movi.n	a6, 0
    85f5:	0169           	s32i.n	a6, a1, 0
    85f7:	1169           	s32i.n	a6, a1, 4
    85f9:	03ed           	mov.n	a14, a3
    85fb:	0008e0        	callx8	a8
    85fe:	140c           	movi.n	a4, 1
    8600:	de8481        	l32r	a8, 10 (9b38 <__mulsi3hifi2>)
    8603:	250c           	movi.n	a5, 2
    8605:	90a330        	addx2	a10, a3, a3
    8608:	df60b1        	l32r	a11, 388 (2020 <_Z20CJointStereo_ApplyMSPP22CAacDecoderChannelInfoPKtPcii+0x78>)
    860b:	11aa80        	slli	a10, a10, 8
    860e:	20caa2        	addi	a10, a10, 32
    8611:	53aab0        	max	a10, a10, a11
    8614:	4b0c           	movi.n	a11, 4
    8616:	01daa2        	addmi	a10, a10, 0x100
    8619:	61a9           	s32i.n	a10, a1, 24
    861b:	1c62a2        	s32i	a10, a2, 112
    861e:	8298           	l32i.n	a9, a2, 32
    8620:	03ad           	mov.n	a10, a3
    8622:	830c           	movi.n	a3, 8
    8624:	f0c992        	addi	a9, a9, -16
    8627:	83b590        	moveqz	a11, a5, a9
    862a:	0008e0        	callx8	a8
    862d:	3b0c           	movi.n	a11, 3
    862f:	4188           	l32i.n	a8, a1, 16
    8631:	2922c2        	l32i	a12, a2, 164
    8634:	119a60        	slli	a9, a10, 10
    8637:	7199           	s32i.n	a9, a1, 28
    8639:	1c39           	s32i.n	a3, a12, 4
    863b:	2c69           	s32i.n	a6, a12, 8
    863d:	3c69           	s32i.n	a6, a12, 12
    863f:	4c69           	s32i.n	a6, a12, 16
    8641:	5c69           	s32i.n	a6, a12, 20
    8643:	6c69           	s32i.n	a6, a12, 24
    8645:	7c69           	s32i.n	a6, a12, 28
    8647:	0c89           	s32i.n	a8, a12, 0
    8649:	51f8           	l32i.n	a15, a1, 20
    864b:	9c39           	s32i.n	a3, a12, 36
    864d:	ac49           	s32i.n	a4, a12, 40
    864f:	bc69           	s32i.n	a6, a12, 44
    8651:	cc69           	s32i.n	a6, a12, 48
    8653:	dc69           	s32i.n	a6, a12, 52
    8655:	ec69           	s32i.n	a6, a12, 56
    8657:	fc69           	s32i.n	a6, a12, 60
    8659:	8cf9           	s32i.n	a15, a12, 32
    865b:	61e8           	l32i.n	a14, a1, 24
    865d:	136c62        	s32i	a6, a12, 76
    8660:	146c62        	s32i	a6, a12, 80
    8663:	156c62        	s32i	a6, a12, 84
    8666:	166c62        	s32i	a6, a12, 88
    8669:	176c62        	s32i	a6, a12, 92
    866c:	106ce2        	s32i	a14, a12, 64
    866f:	116c42        	s32i	a4, a12, 68
    8672:	126c52        	s32i	a5, a12, 72
    8675:	71d8           	l32i.n	a13, a1, 28
    8677:	1a6cb2        	s32i	a11, a12, 104
    867a:	196c32        	s32i	a3, a12, 100
    867d:	1b6c62        	s32i	a6, a12, 108
    8680:	1c6c62        	s32i	a6, a12, 112
    8683:	1e6c62        	s32i	a6, a12, 120
    8686:	1f6c62        	s32i	a6, a12, 124
    8689:	1d6c62        	s32i	a6, a12, 116
    868c:	186cd2        	s32i	a13, a12, 96
    868f:	c2e8           	l32i.n	a14, a2, 48
    8691:	0a0c           	movi.n	a10, 0
    8693:	b2d8           	l32i.n	a13, a2, 44
    8695:	0ebd           	mov.n	a11, a14
    8697:	2a0e26        	beqi	a14, -1, 86c5 <_Z25xa_aacmch_postconfig_initP25_xa_aacmch_dec_api_struct+0xed>
    869a:	ff0c           	movi.n	a15, 15
    869c:	0c0c           	movi.n	a12, 0
    869e:	08a082        	movi	a8, 8
    86a1:	18a876        	loopgtz	a8, 86bd <_Z25xa_aacmch_postconfig_initP25_xa_aacmch_dec_api_struct+0xe5>
    86a4:	400a00        	ssr	a10
    86a7:	b190e0        	sra	a9, a14
    86aa:	349090        	extui	a9, a9, 0, 4
    86ad:	0a29d7        	blt	a9, a13, 86bb <_Z25xa_aacmch_postconfig_initP25_xa_aacmch_dec_api_struct+0xe3>
    86b0:	cc1b           	addi.n	a12, a12, 1
    86b2:	401a00        	ssl	a10
    86b5:	a18f00        	sll	a8, a15
    86b8:	20bb80        	or	a11, a11, a8

000086bb <_Z25xa_aacmch_postconfig_initP25_xa_aacmch_dec_api_struct+0xe3>:
    86bb:	aa4b           	addi.n	a10, a10, 4

000086bd <_Z25xa_aacmch_postconfig_initP25_xa_aacmch_dec_api_struct+0xe5>:
    86bd:	c2b9           	s32i.n	a11, a2, 48
    86bf:	c093c0        	sub	a9, a3, a12
    86c2:	0329d7        	blt	a9, a13, 86c9 <_Z25xa_aacmch_postconfig_initP25_xa_aacmch_dec_api_struct+0xf1>
    86c5:	020c           	movi.n	a2, 0
    86c7:	f01d           	retw.n

000086c9 <_Z25xa_aacmch_postconfig_initP25_xa_aacmch_dec_api_struct+0xf1>:
    86c9:	fa7c           	movi.n	a10, -1
    86cb:	c2a9           	s32i.n	a10, a2, 48
    86cd:	deda21        	l32r	a2, 238 (8c2 <_Z10ApplyToolsPP28CAacDecoderStaticChannelInfoPP22CAacDecoderChannelInfoi+0x2>)
    86d0:	f01d           	retw.n

000086d2 <_Z25xa_aacmch_postconfig_initP25_xa_aacmch_dec_api_struct+0xfa>:
    86d2:	deeb21        	l32r	a2, 280 (ffff8000 <_end+0xfffe7448>)
    86d5:	f01d           	retw.n

000086d7 <_Z25xa_aacmch_postconfig_initP25_xa_aacmch_dec_api_struct+0xff>:
	...

000086d8 <_Z24xa_aacmch_preconfig_initP25_xa_aacmch_dec_api_struct>:
    86d8:	004136        	entry	a1, 32
    86db:	42cc           	bnez.n	a2, 86e3 <_Z24xa_aacmch_preconfig_initP25_xa_aacmch_dec_api_struct+0xb>
    86dd:	dee891        	l32r	a9, 280 (ffff8000 <_end+0xfffe7448>)
    86e0:	0020c6        	j	8767 <_Z24xa_aacmch_preconfig_initP25_xa_aacmch_dec_api_struct+0x8f>

000086e3 <_Z24xa_aacmch_preconfig_initP25_xa_aacmch_dec_api_struct+0xb>:
    86e3:	02ad           	mov.n	a10, a2
    86e5:	de8481        	l32r	a8, f8 (9db0 <__vec_memset>)
    86e8:	0b0c           	movi.n	a11, 0
    86ea:	b0a0c2        	movi	a12, 176
    86ed:	0008e0        	callx8	a8
    86f0:	8a0c           	movi.n	a10, 8
    86f2:	f97c           	movi.n	a9, -1
    86f4:	8b1c           	movi.n	a11, 24
    86f6:	df1fc1        	l32r	a12, 374 (bb80 <_DYNAMIC+0x1cc4>)
    86f9:	df1fd1        	l32r	a13, 378 (ac44 <_DYNAMIC+0xd88>)
    86fc:	4e0c           	movi.n	a14, 4
    86fe:	1f0c           	movi.n	a15, 1
    8700:	280c           	movi.n	a8, 2
    8702:	7289           	s32i.n	a8, a2, 28
    8704:	b289           	s32i.n	a8, a2, 44
    8706:	52f9           	s32i.n	a15, a2, 20
    8708:	2762f2        	s32i	a15, a2, 156
    870b:	0452e2        	s16i	a14, a2, 8
    870e:	32d9           	s32i.n	a13, a2, 12
    8710:	62c9           	s32i.n	a12, a2, 24
    8712:	82b9           	s32i.n	a11, a2, 32
    8714:	9299           	s32i.n	a9, a2, 36
    8716:	a299           	s32i.n	a9, a2, 40
    8718:	c299           	s32i.n	a9, a2, 48
    871a:	196292        	s32i	a9, a2, 100
    871d:	1762a2        	s32i	a10, a2, 92
    8720:	090c           	movi.n	a9, 0
    8722:	4299           	s32i.n	a9, a2, 16
    8724:	e299           	s32i.n	a9, a2, 56
    8726:	f299           	s32i.n	a9, a2, 60
    8728:	404292        	s8i	a9, a2, 64
    872b:	414292        	s8i	a9, a2, 65
    872e:	116292        	s32i	a9, a2, 68
    8731:	126292        	s32i	a9, a2, 72
    8734:	136292        	s32i	a9, a2, 76
    8737:	146292        	s32i	a9, a2, 80
    873a:	156292        	s32i	a9, a2, 84
    873d:	166292        	s32i	a9, a2, 88
    8740:	1a6292        	s32i	a9, a2, 104
    8743:	1b6292        	s32i	a9, a2, 108
    8746:	1c6292        	s32i	a9, a2, 112
    8749:	1d6292        	s32i	a9, a2, 116
    874c:	1e6292        	s32i	a9, a2, 120
    874f:	1f6292        	s32i	a9, a2, 124
    8752:	206292        	s32i	a9, a2, 128
    8755:	216292        	s32i	a9, a2, 132
    8758:	226292        	s32i	a9, a2, 136
    875b:	236292        	s32i	a9, a2, 140
    875e:	246292        	s32i	a9, a2, 144
    8761:	256292        	s32i	a9, a2, 148
    8764:	266292        	s32i	a9, a2, 152

00008767 <_Z24xa_aacmch_preconfig_initP25_xa_aacmch_dec_api_struct+0x8f>:
    8767:	092d           	mov.n	a2, a9
    8769:	f01d           	retw.n

0000876b <_Z24xa_aacmch_preconfig_initP25_xa_aacmch_dec_api_struct+0x93>:
	...

0000876c <_Z16CalculateBitrateP23_bitrate_delay_buffer_tiii>:
    876c:	004136        	entry	a1, 32
    876f:	04ad           	mov.n	a10, a4
    8771:	112262        	l32i	a6, a2, 68
    8774:	0c0c           	movi.n	a12, 0
    8776:	10a082        	movi	a8, 16
    8779:	05a876        	loopgtz	a8, 8782 <_Z16CalculateBitrateP23_bitrate_delay_buffer_tiii+0x16>
    877c:	0298           	l32i.n	a9, a2, 0
    877e:	224b           	addi.n	a2, a2, 4
    8780:	cc9a           	add.n	a12, a12, a9

00008782 <_Z16CalculateBitrateP23_bitrate_delay_buffer_tiii+0x16>:
    8782:	df0281        	l32r	a8, 38c (9b40 <__muldi3>)
    8785:	31dfc0        	srai	a13, a12, 31
    8788:	31bfa0        	srai	a11, a10, 31
    878b:	0008e0        	callx8	a8
    878e:	0b4d           	mov.n	a4, a11
    8790:	0a2d           	mov.n	a2, a10
    8792:	de1f81        	l32r	a8, 10 (9b38 <__mulsi3hifi2>)
    8795:	03ad           	mov.n	a10, a3
    8797:	06bd           	mov.n	a11, a6
    8799:	0008e0        	callx8	a8
    879c:	04bd           	mov.n	a11, a4
    879e:	defc81        	l32r	a8, 390 (9b58 <__divdi3>)
    87a1:	0add           	mov.n	a13, a10
    87a3:	0dcd           	mov.n	a12, a13
    87a5:	02ad           	mov.n	a10, a2
    87a7:	31dfd0        	srai	a13, a13, 31
    87aa:	0008e0        	callx8	a8
    87ad:	11aad0        	slli	a10, a10, 3
    87b0:	0a9d           	mov.n	a9, a10
    87b2:	0115a6        	blti	a5, 1, 87b7 <_Z16CalculateBitrateP23_bitrate_delay_buffer_tiii+0x4b>
    87b5:	059d           	mov.n	a9, a5

000087b7 <_Z16CalculateBitrateP23_bitrate_delay_buffer_tiii+0x4b>:
    87b7:	902990        	addx2	a2, a9, a9
    87ba:	2a2a           	add.n	a2, a10, a2
    87bc:	212220        	srai	a2, a2, 2
    87bf:	f01d           	retw.n

000087c1 <_Z16CalculateBitrateP23_bitrate_delay_buffer_tiii+0x55>:
    87c1:	000000                                        ...

000087c4 <_Z26BitrateDelayBufferAddFrameP23_bitrate_delay_buffer_ti>:
    87c4:	004136        	entry	a1, 32
    87c7:	102252        	l32i	a5, a2, 64
    87ca:	551b           	addi.n	a5, a5, 1
    87cc:	345050        	extui	a5, a5, 0, 4
    87cf:	106252        	s32i	a5, a2, 64
    87d2:	a05520        	addx4	a5, a5, a2
    87d5:	0539           	s32i.n	a3, a5, 0
    87d7:	112242        	l32i	a4, a2, 68
    87da:	051c           	movi.n	a5, 16
    87dc:	441b           	addi.n	a4, a4, 1
    87de:	434450        	min	a4, a4, a5
    87e1:	116242        	s32i	a4, a2, 68
    87e4:	f01d           	retw.n

000087e6 <_Z26BitrateDelayBufferAddFrameP23_bitrate_delay_buffer_ti+0x22>:
	...

000087e8 <_Z22BitRateDelayBufferInitP23_bitrate_delay_buffer_t>:
    87e8:	004136        	entry	a1, 32
    87eb:	024d           	mov.n	a4, a2
    87ed:	050c           	movi.n	a5, 0
    87ef:	ffaf82        	movi	a8, -1
    87f2:	10a032        	movi	a3, 16
    87f5:	02a376        	loopgtz	a3, 87fb <_Z22BitRateDelayBufferInitP23_bitrate_delay_buffer_t+0x13>
    87f8:	09e454        	ae_s32ip	a5, a4, 4

000087fb <_Z22BitRateDelayBufferInitP23_bitrate_delay_buffer_t+0x13>:
    87fb:	116252        	s32i	a5, a2, 68
    87fe:	106282        	s32i	a8, a2, 64
    8801:	f01d           	retw.n

00008803 <_Z22BitRateDelayBufferInitP23_bitrate_delay_buffer_t+0x1b>:
	...

00008804 <_Z16aacmch_get_memszPiS_S_S_i>:
    8804:	006136        	entry	a1, 48
    8807:	01ad           	mov.n	a10, a1
    8809:	b14b           	addi.n	a11, a1, 4
    880b:	06cd           	mov.n	a12, a6
    880d:	de9a81        	l32r	a8, 278 (3814 <_Z32CAacDecoderGetRequiredBufferSizePiS_i>)
    8810:	060c           	movi.n	a6, 0
    8812:	0169           	s32i.n	a6, a1, 0
    8814:	1169           	s32i.n	a6, a1, 4
    8816:	0008e0        	callx8	a8
    8819:	b8a4c2        	movi	a12, 0x4b8
    881c:	01b8           	l32i.n	a11, a1, 0
    881e:	1198           	l32i.n	a9, a1, 4
    8820:	8a7c           	movi.n	a10, -8
    8822:	01dbb2        	addmi	a11, a11, 0x100
    8825:	539960        	max	a9, a9, a6
    8828:	1099a0        	and	a9, a9, a10
    882b:	98cbb2        	addi	a11, a11, -104
    882e:	10bba0        	and	a11, a11, a10
    8831:	998b           	addi.n	a9, a9, 8
    8833:	bb8b           	addi.n	a11, a11, 8
    8835:	05dbb2        	addmi	a11, a11, 0x500
    8838:	c0cbd2        	addi	a13, a11, -64
    883b:	b8cbb2        	addi	a11, a11, -72
    883e:	02d9           	s32i.n	a13, a2, 0
    8840:	03c9           	s32i.n	a12, a3, 0
    8842:	04b9           	s32i.n	a11, a4, 0
    8844:	0599           	s32i.n	a9, a5, 0
    8846:	f01d           	retw.n

00008848 <_Z19_aacmch_raw_set_ascP20RAW_DECODER_INSTANCEP27xa_aacmch_dec_config_structP20tAudioSpecificConfig>:
    8848:	004136        	entry	a1, 32
    884b:	448c           	beqz.n	a4, 8853 <_Z19_aacmch_raw_set_ascP20RAW_DECODER_INSTANCEP27xa_aacmch_dec_config_structP20tAudioSpecificConfig+0xb>
    884d:	090482        	l8ui	a8, a4, 9
    8850:	266382        	s32i	a8, a3, 152

00008853 <_Z19_aacmch_raw_set_ascP20RAW_DECODER_INSTANCEP27xa_aacmch_dec_config_structP20tAudioSpecificConfig+0xb>:
    8853:	e2ac           	beqz.n	a2, 8885 <_Z19_aacmch_raw_set_ascP20RAW_DECODER_INSTANCEP27xa_aacmch_dec_config_structP20tAudioSpecificConfig+0x3d>
    8855:	02a8           	l32i.n	a10, a2, 0
    8857:	a4ac           	beqz.n	a4, 8885 <_Z19_aacmch_raw_set_ascP20RAW_DECODER_INSTANCEP27xa_aacmch_dec_config_structP20tAudioSpecificConfig+0x3d>
    8859:	0904b2        	l8ui	a11, a4, 9
    885c:	2663b2        	s32i	a11, a3, 152
    885f:	2aac           	beqz.n	a10, 8885 <_Z19_aacmch_raw_set_ascP20RAW_DECODER_INSTANCEP27xa_aacmch_dec_config_structP20tAudioSpecificConfig+0x3d>
    8861:	2bec           	bnez.n	a11, 8887 <_Z19_aacmch_raw_set_ascP20RAW_DECODER_INSTANCEP27xa_aacmch_dec_config_structP20tAudioSpecificConfig+0x3f>
    8863:	1e04c2        	l8ui	a12, a4, 30
    8866:	dea281        	l32r	a8, 2f0 (2b28 <_Z24CAacDecoderSetPCEpointerP20AAC_DECODER_INSTANCEPvc>)
    8869:	20c4b2        	addi	a11, a4, 32
    886c:	23cc00        	sext	a12, a12, 7
    886f:	0008e0        	callx8	a8
    8872:	f01d           	retw.n

00008874 <_Z19_aacmch_raw_set_ascP20RAW_DECODER_INSTANCEP27xa_aacmch_dec_config_structP20tAudioSpecificConfig+0x2c>:
    8874:	0dbbf6        	bgeui	a11, 16, 8885 <_Z19_aacmch_raw_set_ascP20RAW_DECODER_INSTANCEP27xa_aacmch_dec_config_structP20tAudioSpecificConfig+0x3d>
    8877:	dec7c1        	l32r	a12, 394 (10900 <bit_rev_table_long+0x540>)
    887a:	dec781        	l32r	a8, 398 (2b18 <_Z19CAacDecoderSetSEMapP20AAC_DECODER_INSTANCEi>)
    887d:	a0bbc0        	addx4	a11, a11, a12
    8880:	0bb8           	l32i.n	a11, a11, 0
    8882:	0008e0        	callx8	a8

00008885 <_Z19_aacmch_raw_set_ascP20RAW_DECODER_INSTANCEP27xa_aacmch_dec_config_structP20tAudioSpecificConfig+0x3d>:
    8885:	f01d           	retw.n

00008887 <_Z19_aacmch_raw_set_ascP20RAW_DECODER_INSTANCEP27xa_aacmch_dec_config_structP20tAudioSpecificConfig+0x3f>:
    8887:	2523d2        	l32i	a13, a3, 148
    888a:	fe6d56        	bnez	a13, 8874 <_Z19_aacmch_raw_set_ascP20RAW_DECODER_INSTANCEP27xa_aacmch_dec_config_structP20tAudioSpecificConfig+0x2c>
    888d:	f48bf6        	bgeui	a11, 8, 8885 <_Z19_aacmch_raw_set_ascP20RAW_DECODER_INSTANCEP27xa_aacmch_dec_config_structP20tAudioSpecificConfig+0x3d>
    8890:	dec3c1        	l32r	a12, 39c (108e0 <bit_rev_table_long+0x520>)
    8893:	dec181        	l32r	a8, 398 (2b18 <_Z19CAacDecoderSetSEMapP20AAC_DECODER_INSTANCEi>)
    8896:	a0bbc0        	addx4	a11, a11, a12
    8899:	0bb8           	l32i.n	a11, a11, 0
    889b:	0008e0        	callx8	a8
    889e:	f01d           	retw.n

000088a0 <_Z27_aacmch_raw_set_channel_cfgP20RAW_DECODER_INSTANCEP27xa_aacmch_dec_config_structc>:
    88a0:	004136        	entry	a1, 32
    88a3:	f2ac           	beqz.n	a2, 88d6 <_Z27_aacmch_raw_set_channel_cfgP20RAW_DECODER_INSTANCEP27xa_aacmch_dec_config_structc+0x36>
    88a5:	02a8           	l32i.n	a10, a2, 0
    88a7:	266342        	s32i	a4, a3, 152
    88aa:	2814a6        	blti	a4, 1, 88d6 <_Z27_aacmch_raw_set_channel_cfgP20RAW_DECODER_INSTANCEP27xa_aacmch_dec_config_structc+0x36>
    88ad:	252382        	l32i	a8, a3, 148
    88b0:	18dc           	bnez.n	a8, 88c5 <_Z27_aacmch_raw_set_channel_cfgP20RAW_DECODER_INSTANCEP27xa_aacmch_dec_config_structc+0x25>
    88b2:	2084e6        	bgei	a4, 8, 88d6 <_Z27_aacmch_raw_set_channel_cfgP20RAW_DECODER_INSTANCEP27xa_aacmch_dec_config_structc+0x36>
    88b5:	deb9b1        	l32r	a11, 39c (108e0 <bit_rev_table_long+0x520>)
    88b8:	deb881        	l32r	a8, 398 (2b18 <_Z19CAacDecoderSetSEMapP20AAC_DECODER_INSTANCEi>)
    88bb:	a0b4b0        	addx4	a11, a4, a11
    88be:	0bb8           	l32i.n	a11, a11, 0
    88c0:	0008e0        	callx8	a8
    88c3:	f01d           	retw.n

000088c5 <_Z27_aacmch_raw_set_channel_cfgP20RAW_DECODER_INSTANCEP27xa_aacmch_dec_config_structc+0x25>:
    88c5:	0db4e6        	bgei	a4, 16, 88d6 <_Z27_aacmch_raw_set_channel_cfgP20RAW_DECODER_INSTANCEP27xa_aacmch_dec_config_structc+0x36>
    88c8:	deb3b1        	l32r	a11, 394 (10900 <bit_rev_table_long+0x540>)
    88cb:	deb381        	l32r	a8, 398 (2b18 <_Z19CAacDecoderSetSEMapP20AAC_DECODER_INSTANCEi>)
    88ce:	a0b4b0        	addx4	a11, a4, a11
    88d1:	0bb8           	l32i.n	a11, a11, 0
    88d3:	0008e0        	callx8	a8

000088d6 <_Z27_aacmch_raw_set_channel_cfgP20RAW_DECODER_INSTANCEP27xa_aacmch_dec_config_structc+0x36>:
    88d6:	f01d           	retw.n

000088d8 <_Z18aacmch_rawdec_execP20RAW_DECODER_INSTANCEP27xa_aacmch_dec_config_structP15_tranportInfo_tP5fract>:
    88d8:	004136        	entry	a1, 32
    88db:	026d           	mov.n	a6, a2
    88dd:	de4981        	l32r	a8, 204 (ffff <channelConfig2NCC+0xf9f>)
    88e0:	2322a2        	l32i	a10, a2, 140
    88e3:	0b0c           	movi.n	a11, 0
    88e5:	84b9           	s32i.n	a11, a4, 32
    88e7:	0f1a87        	beq	a10, a8, 88fa <_Z18aacmch_rawdec_execP20RAW_DECODER_INSTANCEP27xa_aacmch_dec_config_structP15_tranportInfo_tP5fract+0x22>
    88ea:	4498           	l32i.n	a9, a4, 16
    88ec:	e4c0a0        	extui	a12, a10, 0, 15
    88ef:	0229c7        	blt	a9, a12, 88f5 <_Z18aacmch_rawdec_execP20RAW_DECODER_INSTANCEP27xa_aacmch_dec_config_structP15_tranportInfo_tP5fract+0x1d>
    88f2:	003006        	j	89b6 <_Z18aacmch_rawdec_execP20RAW_DECODER_INSTANCEP27xa_aacmch_dec_config_structP15_tranportInfo_tP5fract+0xde>
    88f5:	221c           	movi.n	a2, 18
    88f7:	000046        	j	88fc <_Z18aacmch_rawdec_execP20RAW_DECODER_INSTANCEP27xa_aacmch_dec_config_structP15_tranportInfo_tP5fract+0x24>

000088fa <_Z18aacmch_rawdec_execP20RAW_DECODER_INSTANCEP27xa_aacmch_dec_config_structP15_tranportInfo_tP5fract+0x22>:
    88fa:	0b2d           	mov.n	a2, a11

000088fc <_Z18aacmch_rawdec_execP20RAW_DECODER_INSTANCEP27xa_aacmch_dec_config_structP15_tranportInfo_tP5fract+0x24>:
    88fc:	a2dc           	bnez.n	a2, 891a <_Z18aacmch_rawdec_execP20RAW_DECODER_INSTANCEP27xa_aacmch_dec_config_structP15_tranportInfo_tP5fract+0x42>
    88fe:	04bd           	mov.n	a11, a4
    8900:	05cd           	mov.n	a12, a5
    8902:	dea781        	l32r	a8, 3a0 (8c7c <_Z16raw_DecodeNextAUP20RAW_DECODER_INSTANCEP15_tranportInfo_tP5fract>)
    8905:	262392        	l32i	a9, a3, 152
    8908:	2523a2        	l32i	a10, a3, 148
    890b:	2466a2        	s32i	a10, a6, 144
    890e:	256692        	s32i	a9, a6, 148
    8911:	06ad           	mov.n	a10, a6
    8913:	0008e0        	callx8	a8
    8916:	0a2d           	mov.n	a2, a10
    8918:	0b0c           	movi.n	a11, 0

0000891a <_Z18aacmch_rawdec_execP20RAW_DECODER_INSTANCEP27xa_aacmch_dec_config_structP15_tranportInfo_tP5fract+0x42>:
    891a:	64a8           	l32i.n	a10, a4, 24
    891c:	1723c2        	l32i	a12, a3, 92
    891f:	41a3a0        	srli	a10, a10, 3
    8922:	84a9           	s32i.n	a10, a4, 32
    8924:	0baca7        	bge	a12, a10, 8933 <_Z18aacmch_rawdec_execP20RAW_DECODER_INSTANCEP27xa_aacmch_dec_config_structP15_tranportInfo_tP5fract+0x5b>
    8927:	84b9           	s32i.n	a11, a4, 32
    8929:	0a0c           	movi.n	a10, 0
    892b:	1e2392        	l32i	a9, a3, 120
    892e:	221c           	movi.n	a2, 18
    8930:	000306        	j	8940 <_Z18aacmch_rawdec_execP20RAW_DECODER_INSTANCEP27xa_aacmch_dec_config_structP15_tranportInfo_tP5fract+0x68>

00008933 <_Z18aacmch_rawdec_execP20RAW_DECODER_INSTANCEP27xa_aacmch_dec_config_structP15_tranportInfo_tP5fract+0x5b>:
    8933:	1e2392        	l32i	a9, a3, 120
    8936:	6acc           	bnez.n	a10, 8940 <_Z18aacmch_rawdec_execP20RAW_DECODER_INSTANCEP27xa_aacmch_dec_config_structP15_tranportInfo_tP5fract+0x68>
    8938:	399c           	beqz.n	a9, 894f <_Z18aacmch_rawdec_execP20RAW_DECODER_INSTANCEP27xa_aacmch_dec_config_structP15_tranportInfo_tP5fract+0x77>
    893a:	84c9           	s32i.n	a12, a4, 32
    893c:	0cad           	mov.n	a10, a12
    893e:	220c           	movi.n	a2, 2
    8940:	b98c           	beqz.n	a9, 894f <_Z18aacmch_rawdec_execP20RAW_DECODER_INSTANCEP27xa_aacmch_dec_config_structP15_tranportInfo_tP5fract+0x77>
    8942:	1d0c           	movi.n	a13, 1
    8944:	029ac7        	bne	a10, a12, 894a <_Z18aacmch_rawdec_execP20RAW_DECODER_INSTANCEP27xa_aacmch_dec_config_structP15_tranportInfo_tP5fract+0x72>
    8947:	1f63d2        	s32i	a13, a3, 124

0000894a <_Z18aacmch_rawdec_execP20RAW_DECODER_INSTANCEP27xa_aacmch_dec_config_structP15_tranportInfo_tP5fract+0x72>:
    894a:	1acc           	bnez.n	a10, 894f <_Z18aacmch_rawdec_execP20RAW_DECODER_INSTANCEP27xa_aacmch_dec_config_structP15_tranportInfo_tP5fract+0x77>
    894c:	1f63d2        	s32i	a13, a3, 124
    894f:	141c           	movi.n	a4, 17
    8951:	1c63b2        	s32i	a11, a3, 112
    8954:	970c           	movi.n	a7, 9
    8956:	bb0c           	movi.n	a11, 11
    8958:	929c           	beqz.n	a2, 8975 <_Z18aacmch_rawdec_execP20RAW_DECODER_INSTANCEP27xa_aacmch_dec_config_structP15_tranportInfo_tP5fract+0x9d>
    895a:	171247        	beq	a2, a4, 8975 <_Z18aacmch_rawdec_execP20RAW_DECODER_INSTANCEP27xa_aacmch_dec_config_structP15_tranportInfo_tP5fract+0x9d>
    895d:	141226        	beqi	a2, 1, 8975 <_Z18aacmch_rawdec_execP20RAW_DECODER_INSTANCEP27xa_aacmch_dec_config_structP15_tranportInfo_tP5fract+0x9d>
    8960:	115226        	beqi	a2, 5, 8975 <_Z18aacmch_rawdec_execP20RAW_DECODER_INSTANCEP27xa_aacmch_dec_config_structP15_tranportInfo_tP5fract+0x9d>
    8963:	0e6226        	beqi	a2, 6, 8975 <_Z18aacmch_rawdec_execP20RAW_DECODER_INSTANCEP27xa_aacmch_dec_config_structP15_tranportInfo_tP5fract+0x9d>
    8966:	0b7226        	beqi	a2, 7, 8975 <_Z18aacmch_rawdec_execP20RAW_DECODER_INSTANCEP27xa_aacmch_dec_config_structP15_tranportInfo_tP5fract+0x9d>
    8969:	088226        	beqi	a2, 8, 8975 <_Z18aacmch_rawdec_execP20RAW_DECODER_INSTANCEP27xa_aacmch_dec_config_structP15_tranportInfo_tP5fract+0x9d>
    896c:	051277        	beq	a2, a7, 8975 <_Z18aacmch_rawdec_execP20RAW_DECODER_INSTANCEP27xa_aacmch_dec_config_structP15_tranportInfo_tP5fract+0x9d>
    896f:	029226        	beqi	a2, 10, 8975 <_Z18aacmch_rawdec_execP20RAW_DECODER_INSTANCEP27xa_aacmch_dec_config_structP15_tranportInfo_tP5fract+0x9d>
    8972:	2192b7        	bne	a2, a11, 8997 <_Z18aacmch_rawdec_execP20RAW_DECODER_INSTANCEP27xa_aacmch_dec_config_structP15_tranportInfo_tP5fract+0xbf>
    8975:	2226a2        	l32i	a10, a6, 136
    8978:	290c           	movi.n	a9, 2
    897a:	63c8           	l32i.n	a12, a3, 24
    897c:	4b0c           	movi.n	a11, 4
    897e:	dda481        	l32r	a8, 10 (9b38 <__mulsi3hifi2>)
    8981:	f0ccc2        	addi	a12, a12, -16
    8984:	83b9c0        	moveqz	a11, a9, a12
    8987:	0008e0        	callx8	a8
    898a:	dda181        	l32r	a8, 10 (9b38 <__mulsi3hifi2>)
    898d:	93b8           	l32i.n	a11, a3, 36
    898f:	0008e0        	callx8	a8
    8992:	bb0c           	movi.n	a11, 11
    8994:	1c63a2        	s32i	a10, a3, 112

00008997 <_Z18aacmch_rawdec_execP20RAW_DECODER_INSTANCEP27xa_aacmch_dec_config_structP15_tranportInfo_tP5fract+0xbf>:
    8997:	02ac           	beqz.n	a2, 89bb <_Z18aacmch_rawdec_execP20RAW_DECODER_INSTANCEP27xa_aacmch_dec_config_structP15_tranportInfo_tP5fract+0xe3>
    8999:	1e1247        	beq	a2, a4, 89bb <_Z18aacmch_rawdec_execP20RAW_DECODER_INSTANCEP27xa_aacmch_dec_config_structP15_tranportInfo_tP5fract+0xe3>
    899c:	1b1226        	beqi	a2, 1, 89bb <_Z18aacmch_rawdec_execP20RAW_DECODER_INSTANCEP27xa_aacmch_dec_config_structP15_tranportInfo_tP5fract+0xe3>
    899f:	185226        	beqi	a2, 5, 89bb <_Z18aacmch_rawdec_execP20RAW_DECODER_INSTANCEP27xa_aacmch_dec_config_structP15_tranportInfo_tP5fract+0xe3>
    89a2:	156226        	beqi	a2, 6, 89bb <_Z18aacmch_rawdec_execP20RAW_DECODER_INSTANCEP27xa_aacmch_dec_config_structP15_tranportInfo_tP5fract+0xe3>
    89a5:	127226        	beqi	a2, 7, 89bb <_Z18aacmch_rawdec_execP20RAW_DECODER_INSTANCEP27xa_aacmch_dec_config_structP15_tranportInfo_tP5fract+0xe3>
    89a8:	0f8226        	beqi	a2, 8, 89bb <_Z18aacmch_rawdec_execP20RAW_DECODER_INSTANCEP27xa_aacmch_dec_config_structP15_tranportInfo_tP5fract+0xe3>
    89ab:	0c1277        	beq	a2, a7, 89bb <_Z18aacmch_rawdec_execP20RAW_DECODER_INSTANCEP27xa_aacmch_dec_config_structP15_tranportInfo_tP5fract+0xe3>
    89ae:	099226        	beqi	a2, 10, 89bb <_Z18aacmch_rawdec_execP20RAW_DECODER_INSTANCEP27xa_aacmch_dec_config_structP15_tranportInfo_tP5fract+0xe3>
    89b1:	0612b7        	beq	a2, a11, 89bb <_Z18aacmch_rawdec_execP20RAW_DECODER_INSTANCEP27xa_aacmch_dec_config_structP15_tranportInfo_tP5fract+0xe3>

000089b4 <_Z18aacmch_rawdec_execP20RAW_DECODER_INSTANCEP27xa_aacmch_dec_config_structP15_tranportInfo_tP5fract+0xdc>:
    89b4:	f01d           	retw.n

000089b6 <_Z18aacmch_rawdec_execP20RAW_DECODER_INSTANCEP27xa_aacmch_dec_config_structP15_tranportInfo_tP5fract+0xde>:
    89b6:	0b2d           	mov.n	a2, a11
    89b8:	ffd006        	j	88fc <_Z18aacmch_rawdec_execP20RAW_DECODER_INSTANCEP27xa_aacmch_dec_config_structP15_tranportInfo_tP5fract+0x24>

000089bb <_Z18aacmch_rawdec_execP20RAW_DECODER_INSTANCEP27xa_aacmch_dec_config_structP15_tranportInfo_tP5fract+0xe3>:
    89bb:	de7a81        	l32r	a8, 3a4 (8d40 <_Z18GetPCEinRawPayloadP20RAW_DECODER_INSTANCE21xa_aac_dec_pce_status>)
    89be:	06ad           	mov.n	a10, a6
    89c0:	1123b2        	l32i	a11, a3, 68
    89c3:	0008e0        	callx8	a8
    89c6:	1c2392        	l32i	a9, a3, 112
    89c9:	1163a2        	s32i	a10, a3, 68
    89cc:	e419a6        	blti	a9, 1, 89b4 <_Z18aacmch_rawdec_execP20RAW_DECODER_INSTANCEP27xa_aacmch_dec_config_structP15_tranportInfo_tP5fract+0xdc>
    89cf:	f3a8           	l32i.n	a10, a3, 60
    89d1:	3b0c           	movi.n	a11, 3
    89d3:	6c0ba7        	bnone	a11, a10, 8a43 <_Z18aacmch_rawdec_execP20RAW_DECODER_INSTANCEP27xa_aacmch_dec_config_structP15_tranportInfo_tP5fract+0x16b>
    89d6:	93e8           	l32i.n	a14, a3, 36
    89d8:	ed7c           	movi.n	a13, -2
    89da:	53c8           	l32i.n	a12, a3, 20
    89dc:	10dad0        	and	a13, a10, a13
    89df:	f3d9           	s32i.n	a13, a3, 60
    89e1:	5e1ce7        	beq	a12, a14, 8a43 <_Z18aacmch_rawdec_execP20RAW_DECODER_INSTANCEP27xa_aacmch_dec_config_structP15_tranportInfo_tP5fract+0x16b>
    89e4:	ff0c           	movi.n	a15, 15
    89e6:	6388           	l32i.n	a8, a3, 24
    89e8:	222642        	l32i	a4, a6, 136
    89eb:	1926b2        	l32i	a11, a6, 100
    89ee:	29b866        	bnei	a8, 16, 8a1b <_Z18aacmch_rawdec_execP20RAW_DECODER_INSTANCEP27xa_aacmch_dec_config_structP15_tranportInfo_tP5fract+0x143>
    89f1:	4e1ea6        	blti	a14, 1, 8a43 <_Z18aacmch_rawdec_execP20RAW_DECODER_INSTANCEP27xa_aacmch_dec_config_structP15_tranportInfo_tP5fract+0x16b>
    89f4:	00a0d2        	movi	a13, 0
    89f7:	11aef0        	slli	a10, a14, 1
    89fa:	fc2095c5af 	{ sub	a12, a5, a10; ae_zerop48	aep0 }

000089ff <_Z18aacmch_rawdec_execP20RAW_DECODER_INSTANCEP27xa_aacmch_dec_config_structP15_tranportInfo_tP5fract+0x127>:
    89ff:	dd1b           	addi.n	a13, a13, 1
    8a01:	3490b0        	extui	a9, a11, 0, 4
    8a04:	21b4b0        	srai	a11, a11, 4
    8a07:	0899f7        	bne	a9, a15, 8a13 <_Z18aacmch_rawdec_execP20RAW_DECODER_INSTANCEP27xa_aacmch_dec_config_structP15_tranportInfo_tP5fract+0x13b>
    8a0a:	209cc0        	or	a9, a12, a12
    8a0d:	02a476        	loopgtz	a4, 8a13 <_Z18aacmch_rawdec_execP20RAW_DECODER_INSTANCEP27xa_aacmch_dec_config_structP15_tranportInfo_tP5fract+0x13b>
    8a10:	4389a4        	ae_sp16f.l.xu	aep0, a9, a10
    8a13:	cc2b           	addi.n	a12, a12, 2
    8a15:	e69ed7        	bne	a14, a13, 89ff <_Z18aacmch_rawdec_execP20RAW_DECODER_INSTANCEP27xa_aacmch_dec_config_structP15_tranportInfo_tP5fract+0x127>
    8a18:	0009c6        	j	8a43 <_Z18aacmch_rawdec_execP20RAW_DECODER_INSTANCEP27xa_aacmch_dec_config_structP15_tranportInfo_tP5fract+0x16b>

00008a1b <_Z18aacmch_rawdec_execP20RAW_DECODER_INSTANCEP27xa_aacmch_dec_config_structP15_tranportInfo_tP5fract+0x143>:
    8a1b:	241ea6        	blti	a14, 1, 8a43 <_Z18aacmch_rawdec_execP20RAW_DECODER_INSTANCEP27xa_aacmch_dec_config_structP15_tranportInfo_tP5fract+0x16b>
    8a1e:	0d0c           	movi.n	a13, 0
    8a20:	3480b0        	extui	a8, a11, 0, 4
    8a23:	11aee0        	slli	a10, a14, 2
    8a26:	fc2095c5af 	{ sub	a12, a5, a10; ae_zerop48	aep0 }

00008a2b <_Z18aacmch_rawdec_execP20RAW_DECODER_INSTANCEP27xa_aacmch_dec_config_structP15_tranportInfo_tP5fract+0x153>:
    8a2b:	dd1b           	addi.n	a13, a13, 1
    8a2d:	21b4b0        	srai	a11, a11, 4
    8a30:	0798f7        	bne	a8, a15, 8a3b <_Z18aacmch_rawdec_execP20RAW_DECODER_INSTANCEP27xa_aacmch_dec_config_structP15_tranportInfo_tP5fract+0x163>
    8a33:	0c9d           	mov.n	a9, a12
    8a35:	02a476        	loopgtz	a4, 8a3b <_Z18aacmch_rawdec_execP20RAW_DECODER_INSTANCEP27xa_aacmch_dec_config_structP15_tranportInfo_tP5fract+0x163>
    8a38:	5389a4        	ae_sp24f.l.xu	aep0, a9, a10
    8a3b:	cc4b           	addi.n	a12, a12, 4
    8a3d:	3480b0        	extui	a8, a11, 0, 4
    8a40:	e79ed7        	bne	a14, a13, 8a2b <_Z18aacmch_rawdec_execP20RAW_DECODER_INSTANCEP27xa_aacmch_dec_config_structP15_tranportInfo_tP5fract+0x153>
    8a43:	3398           	l32i.n	a9, a3, 12
    8a45:	f6b916        	beqz	a9, 89b4 <_Z18aacmch_rawdec_execP20RAW_DECODER_INSTANCEP27xa_aacmch_dec_config_structP15_tranportInfo_tP5fract+0xdc>
    8a48:	1c26a2        	l32i	a10, a6, 112
    8a4b:	53a9           	s32i.n	a10, a3, 20
    8a4d:	aa0b           	addi.n	a10, a10, -1
    8a4f:	f61a56        	bnez	a10, 89b4 <_Z18aacmch_rawdec_execP20RAW_DECODER_INSTANCEP27xa_aacmch_dec_config_structP15_tranportInfo_tP5fract+0xdc>
    8a52:	9348           	l32i.n	a4, a3, 36
    8a54:	0224e6        	bgei	a4, 2, 8a5a <_Z18aacmch_rawdec_execP20RAW_DECODER_INSTANCEP27xa_aacmch_dec_config_structP15_tranportInfo_tP5fract+0x182>
    8a57:	ffd646        	j	89b4 <_Z18aacmch_rawdec_execP20RAW_DECODER_INSTANCEP27xa_aacmch_dec_config_structP15_tranportInfo_tP5fract+0xdc>
    8a5a:	d688           	l32i.n	a8, a6, 52
    8a5c:	e678           	l32i.n	a7, a6, 56
    8a5e:	2226a2        	l32i	a10, a6, 136
    8a61:	216880        	srai	a6, a8, 8
    8a64:	dd6b81        	l32r	a8, 10 (9b38 <__mulsi3hifi2>)
    8a67:	04bd           	mov.n	a11, a4
    8a69:	217870        	srai	a7, a7, 8
    8a6c:	0008e0        	callx8	a8
    8a6f:	6398           	l32i.n	a9, a3, 24
    8a71:	8b1c           	movi.n	a11, 24
    8a73:	1e99b7        	bne	a9, a11, 8a95 <_Z18aacmch_rawdec_execP20RAW_DECODER_INSTANCEP27xa_aacmch_dec_config_structP15_tranportInfo_tP5fract+0x1bd>
    8a76:	371aa6        	blti	a10, 1, 8ab1 <_Z18aacmch_rawdec_execP20RAW_DECODER_INSTANCEP27xa_aacmch_dec_config_structP15_tranportInfo_tP5fract+0x1d9>
    8a79:	a0b650        	addx4	a11, a6, a5
    8a7c:	a0c750        	addx4	a12, a7, a5
    8a7f:	11d4e0        	slli	a13, a4, 2
    8a82:	aa6a           	add.n	a10, a10, a6
    8a84:	a0aa50        	addx4	a10, a10, a5

00008a87 <_Z18aacmch_rawdec_execP20RAW_DECODER_INSTANCEP27xa_aacmch_dec_config_structP15_tranportInfo_tP5fract+0x1af>:
    8a87:	0be8           	l32i.n	a14, a11, 0
    8a89:	0ce9           	s32i.n	a14, a12, 0
    8a8b:	bbda           	add.n	a11, a11, a13
    8a8d:	ccda           	add.n	a12, a12, a13
    8a8f:	f43ba7        	bltu	a11, a10, 8a87 <_Z18aacmch_rawdec_execP20RAW_DECODER_INSTANCEP27xa_aacmch_dec_config_structP15_tranportInfo_tP5fract+0x1af>
    8a92:	0006c6        	j	8ab1 <_Z18aacmch_rawdec_execP20RAW_DECODER_INSTANCEP27xa_aacmch_dec_config_structP15_tranportInfo_tP5fract+0x1d9>

00008a95 <_Z18aacmch_rawdec_execP20RAW_DECODER_INSTANCEP27xa_aacmch_dec_config_structP15_tranportInfo_tP5fract+0x1bd>:
    8a95:	181aa6        	blti	a10, 1, 8ab1 <_Z18aacmch_rawdec_execP20RAW_DECODER_INSTANCEP27xa_aacmch_dec_config_structP15_tranportInfo_tP5fract+0x1d9>
    8a98:	90d650        	addx2	a13, a6, a5
    8a9b:	90c750        	addx2	a12, a7, a5
    8a9e:	11b4f0        	slli	a11, a4, 1
    8aa1:	aa6a           	add.n	a10, a10, a6
    8aa3:	90aa50        	addx2	a10, a10, a5

00008aa6 <_Z18aacmch_rawdec_execP20RAW_DECODER_INSTANCEP27xa_aacmch_dec_config_structP15_tranportInfo_tP5fract+0x1ce>:
    8aa6:	2ded           	ae_l16si.n	a14, a13, 0
    8aa8:	6ced           	ae_s16i.n	a14, a12, 0
    8aaa:	ddba           	add.n	a13, a13, a11
    8aac:	ccba           	add.n	a12, a12, a11
    8aae:	f43da7        	bltu	a13, a10, 8aa6 <_Z18aacmch_rawdec_execP20RAW_DECODER_INSTANCEP27xa_aacmch_dec_config_structP15_tranportInfo_tP5fract+0x1ce>
    8ab1:	2f0c           	movi.n	a15, 2
    8ab3:	53f9           	s32i.n	a15, a3, 20
    8ab5:	f01d           	retw.n

00008ab7 <_Z18aacmch_rawdec_execP20RAW_DECODER_INSTANCEP27xa_aacmch_dec_config_structP15_tranportInfo_tP5fract+0x1df>:
	...

00008ab8 <_Z17GetConfigInfo_rawP27xa_aacmch_dec_config_structP20RAW_DECODER_INSTANCE>:
    8ab8:	004136        	entry	a1, 32
    8abb:	0a0c           	movi.n	a10, 0
    8abd:	2123b2        	l32i	a11, a3, 132
    8ac0:	1c2342        	l32i	a4, a3, 112
    8ac3:	2023c2        	l32i	a12, a3, 128
    8ac6:	5249           	s32i.n	a4, a2, 20
    8ac8:	081466        	bnei	a4, 1, 8ad4 <_Z17GetConfigInfo_rawP27xa_aacmch_dec_config_structP20RAW_DECODER_INSTANCE+0x1c>
    8acb:	3288           	l32i.n	a8, a2, 12
    8acd:	031866        	bnei	a8, 1, 8ad4 <_Z17GetConfigInfo_rawP27xa_aacmch_dec_config_structP20RAW_DECODER_INSTANCE+0x1c>
    8ad0:	290c           	movi.n	a9, 2
    8ad2:	5299           	s32i.n	a9, a2, 20
    8ad4:	72a9           	s32i.n	a10, a2, 28
    8ad6:	42b9           	s32i.n	a11, a2, 16
    8ad8:	c2c9           	s32i.n	a12, a2, 48
    8ada:	f01d           	retw.n

00008adc <_Z18aacmch_rawdec_initP27xa_aacmch_dec_config_structP15_raw_memtable_tP15_tranportInfo_tP5fractPP20RAW_DECODER_INSTANCE>:
    8adc:	006136        	entry	a1, 48
    8adf:	03a8           	l32i.n	a10, a3, 0
    8ae1:	23b8           	l32i.n	a11, a3, 8
    8ae3:	92c8           	l32i.n	a12, a2, 36
    8ae5:	1159           	s32i.n	a5, a1, 4
    8ae7:	070c           	movi.n	a7, 0
    8ae9:	de2f81        	l32r	a8, 3a8 (79e4 <rawDecOpen>)
    8aec:	0679           	s32i.n	a7, a6, 0
    8aee:	8479           	s32i.n	a7, a4, 32
    8af0:	0008e0        	callx8	a8
    8af3:	0a3d           	mov.n	a3, a10
    8af5:	391c           	movi.n	a9, 19
    8af7:	075d           	mov.n	a5, a7
    8af9:	8359a0        	moveqz	a5, a9, a10
    8afc:	067556        	bnez	a5, 8b67 <_Z18aacmch_rawdec_initP27xa_aacmch_dec_config_structP15_raw_memtable_tP15_tranportInfo_tP5fractPP20RAW_DECODER_INSTANCE+0x8b>
    8aff:	de2b81        	l32r	a8, 3ac (8d14 <_Z15FillChannelInfoP20RAW_DECODER_INSTANCEii>)
    8b02:	92b8           	l32i.n	a11, a2, 36
    8b04:	a2c8           	l32i.n	a12, a2, 40
    8b06:	0008e0        	callx8	a8
    8b09:	03ad           	mov.n	a10, a3
    8b0b:	04b8           	l32i.n	a11, a4, 0
    8b0d:	de2881        	l32r	a8, 3b0 (79c0 <rawDecInit>)
    8b10:	62c8           	l32i.n	a12, a2, 24
    8b12:	3bb8           	l32i.n	a11, a11, 12
    8b14:	0008e0        	callx8	a8
    8b17:	0a5d           	mov.n	a5, a10
    8b19:	04aa56        	bnez	a10, 8b67 <_Z18aacmch_rawdec_initP27xa_aacmch_dec_config_structP15_raw_memtable_tP15_tranportInfo_tP5fractPP20RAW_DECODER_INSTANCE+0x8b>
    8b1c:	1b6372        	s32i	a7, a3, 108
    8b1f:	11c8           	l32i.n	a12, a1, 4
    8b21:	de1f81        	l32r	a8, 3a0 (8c7c <_Z16raw_DecodeNextAUP20RAW_DECODER_INSTANCEP15_tranportInfo_tP5fract>)
    8b24:	ddb8b1        	l32r	a11, 204 (ffff <channelConfig2NCC+0xf9f>)
    8b27:	2522a2        	l32i	a10, a2, 148
    8b2a:	262292        	l32i	a9, a2, 152
    8b2d:	256392        	s32i	a9, a3, 148
    8b30:	2463a2        	s32i	a10, a3, 144
    8b33:	2363b2        	s32i	a11, a3, 140
    8b36:	03ad           	mov.n	a10, a3
    8b38:	04bd           	mov.n	a11, a4
    8b3a:	0008e0        	callx8	a8
    8b3d:	0a5d           	mov.n	a5, a10
    8b3f:	4aec           	bnez.n	a10, 8b67 <_Z18aacmch_rawdec_initP27xa_aacmch_dec_config_structP15_raw_memtable_tP15_tranportInfo_tP5fractPP20RAW_DECODER_INSTANCE+0x8b>
    8b41:	de1c81        	l32r	a8, 3b4 (2a00 <_Z16CAacDecoderResetiP5fract>)
    8b44:	92a8           	l32i.n	a10, a2, 36
    8b46:	a3b8           	l32i.n	a11, a3, 40
    8b48:	0008e0        	callx8	a8
    8b4b:	0a5d           	mov.n	a5, a10
    8b4d:	6adc           	bnez.n	a10, 8b67 <_Z18aacmch_rawdec_initP27xa_aacmch_dec_config_structP15_raw_memtable_tP15_tranportInfo_tP5fractPP20RAW_DECODER_INSTANCE+0x8b>
    8b4f:	9298           	l32i.n	a9, a2, 36
    8b51:	32a8           	l32i.n	a10, a2, 12
    8b53:	481966        	bnei	a9, 1, 8b9f <_Z18aacmch_rawdec_initP27xa_aacmch_dec_config_structP15_raw_memtable_tP15_tranportInfo_tP5fractPP20RAW_DECODER_INSTANCE+0xc3>
    8b56:	451a66        	bnei	a10, 1, 8b9f <_Z18aacmch_rawdec_initP27xa_aacmch_dec_config_structP15_raw_memtable_tP15_tranportInfo_tP5fractPP20RAW_DECODER_INSTANCE+0xc3>
    8b59:	451c           	movi.n	a5, 20
    8b5b:	000186        	j	8b65 <_Z18aacmch_rawdec_initP27xa_aacmch_dec_config_structP15_raw_memtable_tP15_tranportInfo_tP5fractPP20RAW_DECODER_INSTANCE+0x89>

00008b5e <_Z18aacmch_rawdec_initP27xa_aacmch_dec_config_structP15_raw_memtable_tP15_tranportInfo_tP5fractPP20RAW_DECODER_INSTANCE+0x82>:
    8b5e:	f97c           	movi.n	a9, -1

00008b60 <_Z18aacmch_rawdec_initP27xa_aacmch_dec_config_structP15_raw_memtable_tP15_tranportInfo_tP5fractPP20RAW_DECODER_INSTANCE+0x84>:
    8b60:	4a1c           	movi.n	a10, 20
    8b62:	935a90        	movnez	a5, a10, a9
    8b65:	e59c           	beqz.n	a5, 8b87 <_Z18aacmch_rawdec_initP27xa_aacmch_dec_config_structP15_raw_memtable_tP15_tranportInfo_tP5fractPP20RAW_DECODER_INSTANCE+0xab>

00008b67 <_Z18aacmch_rawdec_initP27xa_aacmch_dec_config_structP15_raw_memtable_tP15_tranportInfo_tP5fractPP20RAW_DECODER_INSTANCE+0x8b>:
    8b67:	64b8           	l32i.n	a11, a4, 24
    8b69:	41b3b0        	srli	a11, a11, 3
    8b6c:	84b9           	s32i.n	a11, a4, 32
    8b6e:	3bdc           	bnez.n	a11, 8b85 <_Z18aacmch_rawdec_initP27xa_aacmch_dec_config_structP15_raw_memtable_tP15_tranportInfo_tP5fractPP20RAW_DECODER_INSTANCE+0xa9>
    8b70:	1e22c2        	l32i	a12, a2, 120
    8b73:	1d0c           	movi.n	a13, 1
    8b75:	84d9           	s32i.n	a13, a4, 32
    8b77:	3ccc           	bnez.n	a12, 8b7e <_Z18aacmch_rawdec_initP27xa_aacmch_dec_config_structP15_raw_memtable_tP15_tranportInfo_tP5fractPP20RAW_DECODER_INSTANCE+0xa2>
    8b79:	251c           	movi.n	a5, 18
    8b7b:	000186        	j	8b85 <_Z18aacmch_rawdec_initP27xa_aacmch_dec_config_structP15_raw_memtable_tP15_tranportInfo_tP5fractPP20RAW_DECODER_INSTANCE+0xa9>

00008b7e <_Z18aacmch_rawdec_initP27xa_aacmch_dec_config_structP15_raw_memtable_tP15_tranportInfo_tP5fractPP20RAW_DECODER_INSTANCE+0xa2>:
    8b7e:	250c           	movi.n	a5, 2
    8b80:	1722e2        	l32i	a14, a2, 92
    8b83:	84e9           	s32i.n	a14, a4, 32
    8b85:	05dc           	bnez.n	a5, 8b99 <_Z18aacmch_rawdec_initP27xa_aacmch_dec_config_structP15_raw_memtable_tP15_tranportInfo_tP5fractPP20RAW_DECODER_INSTANCE+0xbd>

00008b87 <_Z18aacmch_rawdec_initP27xa_aacmch_dec_config_structP15_raw_memtable_tP15_tranportInfo_tP5fractPP20RAW_DECODER_INSTANCE+0xab>:
    8b87:	03ad           	mov.n	a10, a3
    8b89:	1122b2        	l32i	a11, a2, 68
    8b8c:	de0681        	l32r	a8, 3a4 (8d40 <_Z18GetPCEinRawPayloadP20RAW_DECODER_INSTANCE21xa_aac_dec_pce_status>)
    8b8f:	8479           	s32i.n	a7, a4, 32
    8b91:	0639           	s32i.n	a3, a6, 0
    8b93:	0008e0        	callx8	a8
    8b96:	1162a2        	s32i	a10, a2, 68

00008b99 <_Z18aacmch_rawdec_initP27xa_aacmch_dec_config_structP15_raw_memtable_tP15_tranportInfo_tP5fractPP20RAW_DECODER_INSTANCE+0xbd>:
    8b99:	052d           	mov.n	a2, a5
    8b9b:	f01d           	retw.n

00008b9d <_Z18aacmch_rawdec_initP27xa_aacmch_dec_config_structP15_raw_memtable_tP15_tranportInfo_tP5fractPP20RAW_DECODER_INSTANCE+0xc1>:
	...

00008b9f <_Z18aacmch_rawdec_initP27xa_aacmch_dec_config_structP15_raw_memtable_tP15_tranportInfo_tP5fractPP20RAW_DECODER_INSTANCE+0xc3>:
    8b9f:	1723f2        	l32i	a15, a3, 92
    8ba2:	1523d2        	l32i	a13, a3, 84
    8ba5:	1b0c           	movi.n	a11, 1
    8ba7:	0c0c           	movi.n	a12, 0
    8ba9:	ed0b           	addi.n	a14, a13, -1
    8bab:	83cbe0        	moveqz	a12, a11, a14
    8bae:	1823e2        	l32i	a14, a3, 96
    8bb1:	109ca0        	and	a9, a12, a10
    8bb4:	939b90        	movnez	a9, a11, a9
    8bb7:	0199           	s32i.n	a9, a1, 0
    8bb9:	1623b2        	l32i	a11, a3, 88
    8bbc:	9e2fd7        	blt	a15, a13, 8b5e <_Z18aacmch_rawdec_initP27xa_aacmch_dec_config_structP15_raw_memtable_tP15_tranportInfo_tP5fractPP20RAW_DECODER_INSTANCE+0x82>
    8bbf:	f9bd96        	bltz	a13, 8b5e <_Z18aacmch_rawdec_initP27xa_aacmch_dec_config_structP15_raw_memtable_tP15_tranportInfo_tP5fractPP20RAW_DECODER_INSTANCE+0x82>
    8bc2:	100e66        	bnei	a14, -1, 8bd6 <_Z18aacmch_rawdec_initP27xa_aacmch_dec_config_structP15_raw_memtable_tP15_tranportInfo_tP5fractPP20RAW_DECODER_INSTANCE+0xfa>
    8bc5:	1963b2        	s32i	a11, a3, 100
    8bc8:	050ca7        	bnone	a12, a10, 8bd1 <_Z18aacmch_rawdec_initP27xa_aacmch_dec_config_structP15_raw_memtable_tP15_tranportInfo_tP5fractPP20RAW_DECODER_INSTANCE+0xf5>
    8bcb:	11fbc0        	slli	a15, a11, 4
    8bce:	1963f2        	s32i	a15, a3, 100

00008bd1 <_Z18aacmch_rawdec_initP27xa_aacmch_dec_config_structP15_raw_memtable_tP15_tranportInfo_tP5fractPP20RAW_DECODER_INSTANCE+0xf5>:
    8bd1:	090c           	movi.n	a9, 0
    8bd3:	ffe246        	j	8b60 <_Z18aacmch_rawdec_initP27xa_aacmch_dec_config_structP15_raw_memtable_tP15_tranportInfo_tP5fractPP20RAW_DECODER_INSTANCE+0x84>

00008bd6 <_Z18aacmch_rawdec_initP27xa_aacmch_dec_config_structP15_raw_memtable_tP15_tranportInfo_tP5fractPP20RAW_DECODER_INSTANCE+0xfa>:
    8bd6:	030ca7        	bnone	a12, a10, 8bdd <_Z18aacmch_rawdec_initP27xa_aacmch_dec_config_structP15_raw_memtable_tP15_tranportInfo_tP5fractPP20RAW_DECODER_INSTANCE+0x101>
    8bd9:	0b2c           	movi.n	a11, 32
    8bdb:	2d0c           	movi.n	a13, 2

00008bdd <_Z18aacmch_rawdec_initP27xa_aacmch_dec_config_structP15_raw_memtable_tP15_tranportInfo_tP5fractPP20RAW_DECODER_INSTANCE+0x101>:
    8bdd:	2e1da6        	blti	a13, 1, 8c0f <_Z18aacmch_rawdec_initP27xa_aacmch_dec_config_structP15_raw_memtable_tP15_tranportInfo_tP5fractPP20RAW_DECODER_INSTANCE+0x133>
    8be0:	0c0c           	movi.n	a12, 0
    8be2:	34c3a2        	addi	a10, a3, 52
    8be5:	22ad76        	loopgtz	a13, 8c0b <_Z18aacmch_rawdec_initP27xa_aacmch_dec_config_structP15_raw_memtable_tP15_tranportInfo_tP5fractPP20RAW_DECODER_INSTANCE+0x12f>
    8be8:	3480b0        	extui	a8, a11, 0, 4
    8beb:	1188e0        	slli	a8, a8, 2
    8bee:	400800        	ssr	a8
    8bf1:	b190e0        	sra	a9, a14
    8bf4:	349090        	extui	a9, a9, 0, 4
    8bf7:	f1c982        	addi	a8, a9, -15
    8bfa:	f60816        	beqz	a8, 8b5e <_Z18aacmch_rawdec_initP27xa_aacmch_dec_config_structP15_raw_memtable_tP15_tranportInfo_tP5fractPP20RAW_DECODER_INSTANCE+0x82>
    8bfd:	21b4b0        	srai	a11, a11, 4
    8c00:	cc1b           	addi.n	a12, a12, 1
    8c02:	118980        	slli	a8, a9, 8
    8c05:	208f80        	or	a8, a15, a8
    8c08:	09ea84        	ae_s32ip	a8, a10, 4

00008c0b <_Z18aacmch_rawdec_initP27xa_aacmch_dec_config_structP15_raw_memtable_tP15_tranportInfo_tP5fractPP20RAW_DECODER_INSTANCE+0x12f>:
    8c0b:	000086        	j	8c11 <_Z18aacmch_rawdec_initP27xa_aacmch_dec_config_structP15_raw_memtable_tP15_tranportInfo_tP5fractPP20RAW_DECODER_INSTANCE+0x135>

00008c0e <_Z18aacmch_rawdec_initP27xa_aacmch_dec_config_structP15_raw_memtable_tP15_tranportInfo_tP5fractPP20RAW_DECODER_INSTANCE+0x132>:
	...

00008c0f <_Z18aacmch_rawdec_initP27xa_aacmch_dec_config_structP15_raw_memtable_tP15_tranportInfo_tP5fractPP20RAW_DECODER_INSTANCE+0x133>:
    8c0f:	0c0c           	movi.n	a12, 0

00008c11 <_Z18aacmch_rawdec_initP27xa_aacmch_dec_config_structP15_raw_memtable_tP15_tranportInfo_tP5fractPP20RAW_DECODER_INSTANCE+0x135>:
    8c11:	0198           	l32i.n	a9, a1, 0
    8c13:	108ce6        	bgei	a12, 8, 8c27 <_Z18aacmch_rawdec_initP27xa_aacmch_dec_config_structP15_raw_memtable_tP15_tranportInfo_tP5fractPP20RAW_DECODER_INSTANCE+0x14b>
    8c16:	8b0c           	movi.n	a11, 8
    8c18:	a0ac30        	addx4	a10, a12, a3
    8c1b:	34caa2        	addi	a10, a10, 52
    8c1e:	c0bbc0        	sub	a11, a11, a12
    8c21:	02ab76        	loopgtz	a11, 8c27 <_Z18aacmch_rawdec_initP27xa_aacmch_dec_config_structP15_raw_memtable_tP15_tranportInfo_tP5fractPP20RAW_DECODER_INSTANCE+0x14b>
    8c24:	09ea74        	ae_s32ip	a7, a10, 4

00008c27 <_Z18aacmch_rawdec_initP27xa_aacmch_dec_config_structP15_raw_memtable_tP15_tranportInfo_tP5fractPP20RAW_DECODER_INSTANCE+0x14b>:
    8c27:	1623b2        	l32i	a11, a3, 88
    8c2a:	0c2c           	movi.n	a12, 32
    8c2c:	93bc90        	movnez	a11, a12, a9
    8c2f:	391da6        	blti	a13, 1, 8c6c <_Z18aacmch_rawdec_initP27xa_aacmch_dec_config_structP15_raw_memtable_tP15_tranportInfo_tP5fractPP20RAW_DECODER_INSTANCE+0x190>
    8c32:	fe0c           	movi.n	a14, 15
    8c34:	03ad           	mov.n	a10, a3
    8c36:	0c0c           	movi.n	a12, 0
    8c38:	ff7c           	movi.n	a15, -1
    8c3a:	2bad76        	loopgtz	a13, 8c69 <_Z18aacmch_rawdec_initP27xa_aacmch_dec_config_structP15_raw_memtable_tP15_tranportInfo_tP5fractPP20RAW_DECODER_INSTANCE+0x18d>
    8c3d:	dad8           	l32i.n	a13, a10, 52
    8c3f:	21d8d0        	srai	a13, a13, 8
    8c42:	11dde0        	slli	a13, a13, 2
    8c45:	400d00        	ssr	a13
    8c48:	b190f0        	sra	a9, a15
    8c4b:	349090        	extui	a9, a9, 0, 4
    8c4e:	2299e7        	bne	a9, a14, 8c74 <_Z18aacmch_rawdec_initP27xa_aacmch_dec_config_structP15_raw_memtable_tP15_tranportInfo_tP5fractPP20RAW_DECODER_INSTANCE+0x198>
    8c51:	cc1b           	addi.n	a12, a12, 1
    8c53:	aa4b           	addi.n	a10, a10, 4
    8c55:	f87c           	movi.n	a8, -1
    8c57:	401d00        	ssl	a13
    8c5a:	308b80        	xor	a8, a11, a8
    8c5d:	21b4b0        	srai	a11, a11, 4
    8c60:	348080        	extui	a8, a8, 0, 4
    8c63:	a18800        	sll	a8, a8
    8c66:	30ff80        	xor	a15, a15, a8

00008c69 <_Z18aacmch_rawdec_initP27xa_aacmch_dec_config_structP15_raw_memtable_tP15_tranportInfo_tP5fractPP20RAW_DECODER_INSTANCE+0x18d>:
    8c69:	000046        	j	8c6e <_Z18aacmch_rawdec_initP27xa_aacmch_dec_config_structP15_raw_memtable_tP15_tranportInfo_tP5fractPP20RAW_DECODER_INSTANCE+0x192>

00008c6c <_Z18aacmch_rawdec_initP27xa_aacmch_dec_config_structP15_raw_memtable_tP15_tranportInfo_tP5fractPP20RAW_DECODER_INSTANCE+0x190>:
    8c6c:	ff7c           	movi.n	a15, -1

00008c6e <_Z18aacmch_rawdec_initP27xa_aacmch_dec_config_structP15_raw_memtable_tP15_tranportInfo_tP5fractPP20RAW_DECODER_INSTANCE+0x192>:
    8c6e:	1963f2        	s32i	a15, a3, 100
    8c71:	ffd706        	j	8bd1 <_Z18aacmch_rawdec_initP27xa_aacmch_dec_config_structP15_raw_memtable_tP15_tranportInfo_tP5fractPP20RAW_DECODER_INSTANCE+0xf5>

00008c74 <_Z18aacmch_rawdec_initP27xa_aacmch_dec_config_structP15_raw_memtable_tP15_tranportInfo_tP5fractPP20RAW_DECODER_INSTANCE+0x198>:
    8c74:	e97c           	movi.n	a9, -2
    8c76:	ffb986        	j	8b60 <_Z18aacmch_rawdec_initP27xa_aacmch_dec_config_structP15_raw_memtable_tP15_tranportInfo_tP5fractPP20RAW_DECODER_INSTANCE+0x84>

00008c79 <_Z18aacmch_rawdec_initP27xa_aacmch_dec_config_structP15_raw_memtable_tP15_tranportInfo_tP5fractPP20RAW_DECODER_INSTANCE+0x19d>:
    8c79:	000000                                        ...

00008c7c <_Z16raw_DecodeNextAUP20RAW_DECODER_INSTANCEP15_tranportInfo_tP5fract>:
    8c7c:	00a136        	entry	a1, 80
    8c7f:	2322c2        	l32i	a12, a2, 140
    8c82:	dd6051        	l32r	a5, 204 (ffff <channelConfig2NCC+0xf9f>)
    8c85:	43d8           	l32i.n	a13, a3, 16
    8c87:	e480c0        	extui	a8, a12, 0, 15
    8c8a:	061c57        	beq	a12, a5, 8c94 <_Z16raw_DecodeNextAUP20RAW_DECODER_INSTANCEP15_tranportInfo_tP5fract+0x18>
    8c8d:	03ad87        	bge	a13, a8, 8c94 <_Z16raw_DecodeNextAUP20RAW_DECODER_INSTANCEP15_tranportInfo_tP5fract+0x18>
    8c90:	221c           	movi.n	a2, 18
    8c92:	f01d           	retw.n

00008c94 <_Z16raw_DecodeNextAUP20RAW_DECODER_INSTANCEP15_tranportInfo_tP5fract+0x18>:
    8c94:	53e8           	l32i.n	a14, a3, 20
    8c96:	33c8           	l32i.n	a12, a3, 12
    8c98:	031362        	l16ui	a6, a3, 6
    8c9b:	0403f2        	l8ui	a15, a3, 4
    8c9e:	01d282        	addmi	a8, a2, 0x100
    8ca1:	88c8a2        	addi	a10, a8, -120
    8ca4:	84c892        	addi	a9, a8, -124
    8ca7:	23ff00        	sext	a15, a15, 7
    8caa:	80c882        	addi	a8, a8, -128
    8cad:	0169           	s32i.n	a6, a1, 0
    8caf:	0413b2        	l16ui	a11, a3, 8
    8cb2:	11b9           	s32i.n	a11, a1, 4
    8cb4:	04bd           	mov.n	a11, a4
    8cb6:	1c0362        	l8ui	a6, a3, 28
    8cb9:	8199           	s32i.n	a9, a1, 32
    8cbb:	7189           	s32i.n	a8, a1, 28
    8cbd:	91a9           	s32i.n	a10, a1, 36
    8cbf:	70c282        	addi	a8, a2, 112
    8cc2:	78c2a2        	addi	a10, a2, 120
    8cc5:	74c292        	addi	a9, a2, 116
    8cc8:	5199           	s32i.n	a9, a1, 20
    8cca:	61a9           	s32i.n	a10, a1, 24
    8ccc:	4189           	s32i.n	a8, a1, 16
    8cce:	236600        	sext	a6, a6, 7
    8cd1:	2169           	s32i.n	a6, a1, 8
    8cd3:	ddb981        	l32r	a8, 3b8 (789c <rawDecodeFrame>)
    8cd6:	18c362        	addi	a6, a3, 24
    8cd9:	3169           	s32i.n	a6, a1, 12
    8cdb:	2422a2        	l32i	a10, a2, 144
    8cde:	a1a9           	s32i.n	a10, a1, 40
    8ce0:	02ad           	mov.n	a10, a2
    8ce2:	252292        	l32i	a9, a2, 148
    8ce5:	b199           	s32i.n	a9, a1, 44
    8ce7:	0008e0        	callx8	a8
    8cea:	2322c2        	l32i	a12, a2, 140
    8ced:	0a2d           	mov.n	a2, a10
    8cef:	1f1c57        	beq	a12, a5, 8d12 <_Z16raw_DecodeNextAUP20RAW_DECODER_INSTANCEP15_tranportInfo_tP5fract+0x96>
    8cf2:	53d8           	l32i.n	a13, a3, 20
    8cf4:	6388           	l32i.n	a8, a3, 24
    8cf6:	e4b0c0        	extui	a11, a12, 0, 15
    8cf9:	11bbd0        	slli	a11, a11, 3
    8cfc:	c0c8d0        	sub	a12, a8, a13
    8cff:	06abc7        	bge	a11, a12, 8d09 <_Z16raw_DecodeNextAUP20RAW_DECODER_INSTANCEP15_tranportInfo_tP5fract+0x8d>
    8d02:	ce0c           	movi.n	a14, 12
    8d04:	83aea0        	moveqz	a10, a14, a10
    8d07:	0a2d           	mov.n	a2, a10

00008d09 <_Z16raw_DecodeNextAUP20RAW_DECODER_INSTANCEP15_tranportInfo_tP5fract+0x8d>:
    8d09:	051bc7        	beq	a11, a12, 8d12 <_Z16raw_DecodeNextAUP20RAW_DECODER_INSTANCEP15_tranportInfo_tP5fract+0x96>
    8d0c:	fbda           	add.n	a15, a11, a13
    8d0e:	63f9           	s32i.n	a15, a3, 24
    8d10:	f01d           	retw.n

00008d12 <_Z16raw_DecodeNextAUP20RAW_DECODER_INSTANCEP15_tranportInfo_tP5fract+0x96>:
    8d12:	f01d           	retw.n

00008d14 <_Z15FillChannelInfoP20RAW_DECODER_INSTANCEii>:
    8d14:	004136        	entry	a1, 32
    8d17:	060c           	movi.n	a6, 0
    8d19:	34c272        	addi	a7, a2, 52
    8d1c:	f97c           	movi.n	a9, -1
    8d1e:	08a052        	movi	a5, 8
    8d21:	0aa576        	loopgtz	a5, 8d2f <_Z15FillChannelInfoP20RAW_DECODER_INSTANCEii+0x1b>
    8d24:	118680        	slli	a8, a6, 8
    8d27:	661b           	addi.n	a6, a6, 1
    8d29:	208380        	or	a8, a3, a8
    8d2c:	09e784        	ae_s32ip	a8, a7, 4

00008d2f <_Z15FillChannelInfoP20RAW_DECODER_INSTANCEii+0x1b>:
    8d2f:	176232        	s32i	a3, a2, 92
    8d32:	186242        	s32i	a4, a2, 96
    8d35:	156292        	s32i	a9, a2, 84
    8d38:	166292        	s32i	a9, a2, 88
    8d3b:	196292        	s32i	a9, a2, 100
    8d3e:	f01d           	retw.n

00008d40 <_Z18GetPCEinRawPayloadP20RAW_DECODER_INSTANCE21xa_aac_dec_pce_status>:
    8d40:	004136        	entry	a1, 32
    8d43:	020c           	movi.n	a2, 0
    8d45:	f01d           	retw.n

00008d47 <_Z18GetPCEinRawPayloadP20RAW_DECODER_INSTANCE21xa_aac_dec_pce_status+0x7>:
	...

00008d48 <_Z15xa_aac_dec_coreP15xa_codec_opaqueiiPv>:
    8d48:	004136        	entry	a1, 32
    8d4b:	00a2a2        	movi	a10, 0x200
    8d4e:	00a3c2        	movi	a12, 0x300
    8d51:	341326        	beqi	a3, 1, 8d89 <_Z15xa_aac_dec_coreP15xa_codec_opaqueiiPv+0x41>
    8d54:	432326        	beqi	a3, 2, 8d9b <_Z15xa_aac_dec_coreP15xa_codec_opaqueiiPv+0x53>
    8d57:	32cc           	bnez.n	a2, 8d5e <_Z15xa_aac_dec_coreP15xa_codec_opaqueiiPv+0x16>
    8d59:	dd4921        	l32r	a2, 280 (ffff8000 <_end+0xfffe7448>)
    8d5c:	f01d           	retw.n

00008d5e <_Z15xa_aac_dec_coreP15xa_codec_opaqueiiPv+0x16>:
    8d5e:	1b0c           	movi.n	a11, 1
    8d60:	881c           	movi.n	a8, 24
    8d62:	0fb387        	bgeu	a3, a8, 8d75 <_Z15xa_aac_dec_coreP15xa_codec_opaqueiiPv+0x2d>
    8d65:	dd9591        	l32r	a9, 3bc (10940 <bit_rev_table_long+0x580>)
    8d68:	dd96d1        	l32r	a13, 3c0 (8d48 <_Z15xa_aac_dec_coreP15xa_codec_opaqueiiPv>)
    8d6b:	a09390        	addx4	a9, a3, a9
    8d6e:	0998           	l32i.n	a9, a9, 0
    8d70:	99da           	add.n	a9, a9, a13
    8d72:	0009a0        	jx	a9

00008d75 <_Z15xa_aac_dec_coreP15xa_codec_opaqueiiPv+0x2d>:
    8d75:	dd3521        	l32r	a2, 24c (ffff8002 <_end+0xfffe744a>)
    8d78:	f01d           	retw.n

00008d7a <_Z15xa_aac_dec_coreP15xa_codec_opaqueiiPv+0x32>:
    8d7a:	0412a2        	l16ui	a10, a2, 8
    8d7d:	b0aaa0        	addx8	a10, a10, a10
    8d80:	11aae0        	slli	a10, a10, 2
    8d83:	05a9           	s32i.n	a10, a5, 0

00008d85 <_Z15xa_aac_dec_coreP15xa_codec_opaqueiiPv+0x3d>:
    8d85:	020c           	movi.n	a2, 0
    8d87:	f01d           	retw.n

00008d89 <_Z15xa_aac_dec_coreP15xa_codec_opaqueiiPv+0x41>:
    8d89:	34f426        	beqi	a4, 0x100, 8dc1 <_Z15xa_aac_dec_coreP15xa_codec_opaqueiiPv+0x79>
    8d8c:	fed4b2        	addmi	a11, a4, 0xfffffe00
    8d8f:	0c4b16        	beqz	a11, 8e57 <_Z15xa_aac_dec_coreP15xa_codec_opaqueiiPv+0x10f>
    8d92:	2694c7        	bne	a4, a12, 8dbc <_Z15xa_aac_dec_coreP15xa_codec_opaqueiiPv+0x74>
    8d95:	dd8b91        	l32r	a9, 3c4 (10ba8 <trigData+0x38>)
    8d98:	000a06        	j	8dc4 <_Z15xa_aac_dec_coreP15xa_codec_opaqueiiPv+0x7c>

00008d9b <_Z15xa_aac_dec_coreP15xa_codec_opaqueiiPv+0x53>:
    8d9b:	b0a0c2        	movi	a12, 176
    8d9e:	05c9           	s32i.n	a12, a5, 0

00008da0 <_Z15xa_aac_dec_coreP15xa_codec_opaqueiiPv+0x58>:
    8da0:	020c           	movi.n	a2, 0
    8da2:	f01d           	retw.n

00008da4 <_Z15xa_aac_dec_coreP15xa_codec_opaqueiiPv+0x5c>:
    8da4:	ffd4d2        	addmi	a13, a4, 0xffffff00
    8da7:	0cfd16        	beqz	a13, 8e7a <_Z15xa_aac_dec_coreP15xa_codec_opaqueiiPv+0x132>
    8daa:	fed4e2        	addmi	a14, a4, 0xfffffe00
    8dad:	0e3e16        	beqz	a14, 8e94 <_Z15xa_aac_dec_coreP15xa_codec_opaqueiiPv+0x14c>
    8db0:	fdd4f2        	addmi	a15, a4, 0xfffffd00
    8db3:	0e9f16        	beqz	a15, 8ea0 <_Z15xa_aac_dec_coreP15xa_codec_opaqueiiPv+0x158>
    8db6:	fcd482        	addmi	a8, a4, 0xfffffc00
    8db9:	0a0816        	beqz	a8, 8e5d <_Z15xa_aac_dec_coreP15xa_codec_opaqueiiPv+0x115>

00008dbc <_Z15xa_aac_dec_coreP15xa_codec_opaqueiiPv+0x74>:
    8dbc:	dd4f21        	l32r	a2, 2f8 (ffff8003 <_end+0xfffe744b>)
    8dbf:	f01d           	retw.n

00008dc1 <_Z15xa_aac_dec_coreP15xa_codec_opaqueiiPv+0x79>:
    8dc1:	dd8191        	l32r	a9, 3c8 (10b80 <trigData+0x10>)

00008dc4 <_Z15xa_aac_dec_coreP15xa_codec_opaqueiiPv+0x7c>:
    8dc4:	80c9a2        	addi	a10, a9, -128
    8dc7:	9dc9b2        	addi	a11, a9, -99

00008dca <_Z15xa_aac_dec_coreP15xa_codec_opaqueiiPv+0x82>:
    8dca:	800a92        	l8ui	a9, a10, 128
    8dcd:	004592        	s8i	a9, a5, 0
    8dd0:	aa1b           	addi.n	a10, a10, 1
    8dd2:	551b           	addi.n	a5, a5, 1
    8dd4:	c82ba7        	blt	a11, a10, 8da0 <_Z15xa_aac_dec_coreP15xa_codec_opaqueiiPv+0x58>
    8dd7:	7f0ac2        	l8ui	a12, a10, 127
    8dda:	fecc56        	bnez	a12, 8dca <_Z15xa_aac_dec_coreP15xa_codec_opaqueiiPv+0x82>
    8ddd:	ffefc6        	j	8da0 <_Z15xa_aac_dec_coreP15xa_codec_opaqueiiPv+0x58>

00008de0 <_Z15xa_aac_dec_coreP15xa_codec_opaqueiiPv+0x98>:
    8de0:	02ad           	mov.n	a10, a2
    8de2:	03bd           	mov.n	a11, a3
    8de4:	dd7a81        	l32r	a8, 3cc (84fc <_Z21xa_aacmch_dec_mem_apiP25_xa_aacmch_dec_api_structiiPv>)
    8de7:	04cd           	mov.n	a12, a4
    8de9:	05dd           	mov.n	a13, a5
    8deb:	0008e0        	callx8	a8
    8dee:	0a2d           	mov.n	a2, a10
    8df0:	f01d           	retw.n

00008df2 <_Z15xa_aac_dec_coreP15xa_codec_opaqueiiPv+0xaa>:
    8df2:	2062b2        	s32i	a11, a2, 128
    8df5:	ffe306        	j	8d85 <_Z15xa_aac_dec_coreP15xa_codec_opaqueiiPv+0x3d>

00008df8 <_Z15xa_aac_dec_coreP15xa_codec_opaqueiiPv+0xb0>:
    8df8:	1e2292        	l32i	a9, a2, 120
    8dfb:	0599           	s32i.n	a9, a5, 0
    8dfd:	ffe106        	j	8d85 <_Z15xa_aac_dec_coreP15xa_codec_opaqueiiPv+0x3d>

00008e00 <_Z15xa_aac_dec_coreP15xa_codec_opaqueiiPv+0xb8>:
    8e00:	05a8           	l32i.n	a10, a5, 0
    8e02:	1962a2        	s32i	a10, a2, 100
    8e05:	ffdf06        	j	8d85 <_Z15xa_aac_dec_coreP15xa_codec_opaqueiiPv+0x3d>

00008e08 <_Z15xa_aac_dec_coreP15xa_codec_opaqueiiPv+0xc0>:
    8e08:	1d22b2        	l32i	a11, a2, 116
    8e0b:	05b9           	s32i.n	a11, a5, 0
    8e0d:	ffdd06        	j	8d85 <_Z15xa_aac_dec_coreP15xa_codec_opaqueiiPv+0x3d>

00008e10 <_Z15xa_aac_dec_coreP15xa_codec_opaqueiiPv+0xc8>:
    8e10:	5a14c7        	beq	a4, a12, 8e6e <_Z15xa_aac_dec_coreP15xa_codec_opaqueiiPv+0x126>
    8e13:	6ff426        	beqi	a4, 0x100, 8e86 <_Z15xa_aac_dec_coreP15xa_codec_opaqueiiPv+0x13e>
    8e16:	4b14a7        	beq	a4, a10, 8e65 <_Z15xa_aac_dec_coreP15xa_codec_opaqueiiPv+0x11d>
    8e19:	dd3721        	l32r	a2, 2f8 (ffff8003 <_end+0xfffe744b>)
    8e1c:	f01d           	retw.n

00008e1e <_Z15xa_aac_dec_coreP15xa_codec_opaqueiiPv+0xd6>:
    8e1e:	0412b2        	l16ui	a11, a2, 8
    8e21:	05b9           	s32i.n	a11, a5, 0
    8e23:	ffd786        	j	8d85 <_Z15xa_aac_dec_coreP15xa_codec_opaqueiiPv+0x3d>

00008e26 <_Z15xa_aac_dec_coreP15xa_codec_opaqueiiPv+0xde>:
    8e26:	0412c2        	l16ui	a12, a2, 8
    8e29:	296252        	s32i	a5, a2, 164
    8e2c:	11ccb0        	slli	a12, a12, 5
    8e2f:	c5ca           	add.n	a12, a5, a12
    8e31:	2a62c2        	s32i	a12, a2, 168
    8e34:	ffd346        	j	8d85 <_Z15xa_aac_dec_coreP15xa_codec_opaqueiiPv+0x3d>

00008e37 <_Z15xa_aac_dec_coreP15xa_codec_opaqueiiPv+0xef>:
    8e37:	02ad           	mov.n	a10, a2
    8e39:	dd6581        	l32r	a8, 3d0 (8078 <_Z19xa_aacmch_getconfigP25_xa_aacmch_dec_api_structiPv>)
    8e3c:	04bd           	mov.n	a11, a4
    8e3e:	05cd           	mov.n	a12, a5
    8e40:	0008e0        	callx8	a8
    8e43:	0a2d           	mov.n	a2, a10
    8e45:	f01d           	retw.n

00008e47 <_Z15xa_aac_dec_coreP15xa_codec_opaqueiiPv+0xff>:
    8e47:	02ad           	mov.n	a10, a2
    8e49:	dd6281        	l32r	a8, 3d4 (82fc <_Z19xa_aacmch_setconfigP25_xa_aacmch_dec_api_structiPv>)
    8e4c:	04bd           	mov.n	a11, a4
    8e4e:	05cd           	mov.n	a12, a5
    8e50:	0008e0        	callx8	a8
    8e53:	0a2d           	mov.n	a2, a10
    8e55:	f01d           	retw.n

00008e57 <_Z15xa_aac_dec_coreP15xa_codec_opaqueiiPv+0x10f>:
    8e57:	dd6091        	l32r	a9, 3d8 (10ba0 <trigData+0x30>)
    8e5a:	ffd986        	j	8dc4 <_Z15xa_aac_dec_coreP15xa_codec_opaqueiiPv+0x7c>

00008e5d <_Z15xa_aac_dec_coreP15xa_codec_opaqueiiPv+0x115>:
    8e5d:	1f2292        	l32i	a9, a2, 124
    8e60:	0599           	s32i.n	a9, a5, 0
    8e62:	ffc7c6        	j	8d85 <_Z15xa_aac_dec_coreP15xa_codec_opaqueiiPv+0x3d>

00008e65 <_Z15xa_aac_dec_coreP15xa_codec_opaqueiiPv+0x11d>:
    8e65:	2122a2        	l32i	a10, a2, 132
    8e68:	05a9           	s32i.n	a10, a5, 0
    8e6a:	020c           	movi.n	a2, 0
    8e6c:	f01d           	retw.n

00008e6e <_Z15xa_aac_dec_coreP15xa_codec_opaqueiiPv+0x126>:
    8e6e:	dd5b81        	l32r	a8, 3dc (8054 <_Z22xa_aacmch_runtime_initP25_xa_aacmch_dec_api_struct>)
    8e71:	02ad           	mov.n	a10, a2
    8e73:	0008e0        	callx8	a8
    8e76:	0a2d           	mov.n	a2, a10
    8e78:	f01d           	retw.n

00008e7a <_Z15xa_aac_dec_coreP15xa_codec_opaqueiiPv+0x132>:
    8e7a:	dd5981        	l32r	a8, 3e0 (86d8 <_Z24xa_aacmch_preconfig_initP25_xa_aacmch_dec_api_struct>)
    8e7d:	02ad           	mov.n	a10, a2
    8e7f:	0008e0        	callx8	a8
    8e82:	0a2d           	mov.n	a2, a10
    8e84:	f01d           	retw.n

00008e86 <_Z15xa_aac_dec_coreP15xa_codec_opaqueiiPv+0x13e>:
    8e86:	dd5781        	l32r	a8, 3e4 (7a30 <_Z17xa_aacmch_processP25_xa_aacmch_dec_api_structi>)
    8e89:	02ad           	mov.n	a10, a2
    8e8b:	0b0c           	movi.n	a11, 0
    8e8d:	0008e0        	callx8	a8
    8e90:	0a2d           	mov.n	a2, a10
    8e92:	f01d           	retw.n

00008e94 <_Z15xa_aac_dec_coreP15xa_codec_opaqueiiPv+0x14c>:
    8e94:	dd5581        	l32r	a8, 3e8 (85d8 <_Z25xa_aacmch_postconfig_initP25_xa_aacmch_dec_api_struct>)
    8e97:	02ad           	mov.n	a10, a2
    8e99:	0008e0        	callx8	a8
    8e9c:	0a2d           	mov.n	a2, a10
    8e9e:	f01d           	retw.n

00008ea0 <_Z15xa_aac_dec_coreP15xa_codec_opaqueiiPv+0x158>:
    8ea0:	dd5181        	l32r	a8, 3e4 (7a30 <_Z17xa_aacmch_processP25_xa_aacmch_dec_api_structi>)
    8ea3:	02ad           	mov.n	a10, a2
    8ea5:	0008e0        	callx8	a8
    8ea8:	0a2d           	mov.n	a2, a10
    8eaa:	f01d           	retw.n

00008eac <xa_aac_dec>:
    8eac:	004136        	entry	a1, 32
    8eaf:	132326        	beqi	a3, 2, 8ec6 <xa_aac_dec+0x1a>
    8eb2:	101326        	beqi	a3, 1, 8ec6 <xa_aac_dec+0x1a>
    8eb5:	32cc           	bnez.n	a2, 8ebc <xa_aac_dec+0x10>
    8eb7:	dcf221        	l32r	a2, 280 (ffff8000 <_end+0xfffe7448>)
    8eba:	f01d           	retw.n

00008ebc <xa_aac_dec+0x10>:
    8ebc:	380c           	movi.n	a8, 3
    8ebe:	040827        	bnone	a8, a2, 8ec6 <xa_aac_dec+0x1a>
    8ec1:	dd3021        	l32r	a2, 384 (ffff8001 <_end+0xfffe7449>)
    8ec4:	f01d           	retw.n

00008ec6 <xa_aac_dec+0x1a>:
    8ec6:	32cc           	bnez.n	a2, 8ecd <xa_aac_dec+0x21>
    8ec8:	0a1c           	movi.n	a10, 16
    8eca:	000086        	j	8ed0 <xa_aac_dec+0x24>

00008ecd <xa_aac_dec+0x21>:
    8ecd:	2b22a2        	l32i	a10, a2, 172

00008ed0 <xa_aac_dec+0x24>:
    8ed0:	dd4781        	l32r	a8, 3ec (6d20 <codec_state_validate>)
    8ed3:	03bd           	mov.n	a11, a3
    8ed5:	04cd           	mov.n	a12, a4
    8ed7:	0008e0        	callx8	a8
    8eda:	fadc           	bnez.n	a10, 8efd <xa_aac_dec+0x51>
    8edc:	05dd           	mov.n	a13, a5
    8ede:	02ad           	mov.n	a10, a2
    8ee0:	dd4481        	l32r	a8, 3f0 (8d48 <_Z15xa_aac_dec_coreP15xa_codec_opaqueiiPv>)
    8ee3:	03bd           	mov.n	a11, a3
    8ee5:	04cd           	mov.n	a12, a4
    8ee7:	0008e0        	callx8	a8
    8eea:	04cd           	mov.n	a12, a4
    8eec:	03bd           	mov.n	a11, a3
    8eee:	dd4181        	l32r	a8, 3f4 (6c4c <codec_state_update>)
    8ef1:	0a3d           	mov.n	a3, a10
    8ef3:	02ad           	mov.n	a10, a2
    8ef5:	03dd           	mov.n	a13, a3
    8ef7:	0008e0        	callx8	a8
    8efa:	0001c6        	j	8f05 <xa_aac_dec+0x59>

00008efd <xa_aac_dec+0x51>:
    8efd:	dce091        	l32r	a9, 280 (ffff8000 <_end+0xfffe7448>)
    8f00:	83a920        	moveqz	a10, a9, a2
    8f03:	0a3d           	mov.n	a3, a10

00008f05 <xa_aac_dec+0x59>:
    8f05:	032d           	mov.n	a2, a3
    8f07:	f01d           	retw.n

00008f09 <xa_aac_dec+0x5d>:
    8f09:	000000                                        ...

00008f0c <xa_aac_dec+0x60>:
    8f0c:	004136        	entry	a1, 32
    8f0f:	f01d           	retw.n

00008f11 <xa_aac_dec+0x65>:
    8f11:	000000                                        ...

00008f14 <_Z8LATM2RAWP12_streambuf_tP12_tLATMHeaderi>:
    8f14:	034136        	entry	a1, 0x1a0
    8f17:	026d           	mov.n	a6, a2
    8f19:	dcb081        	l32r	a8, 1dc (6ae4 <InitBitParser>)
    8f1c:	042d           	mov.n	a2, a4
    8f1e:	06a8           	l32i.n	a10, a6, 0
    8f20:	16b8           	l32i.n	a11, a6, 4
    8f22:	0008e0        	callx8	a8
    8f25:	850c           	movi.n	a5, 8
    8f27:	b4a042        	movi	a4, 180
    8f2a:	01a9           	s32i.n	a10, a1, 0
    8f2c:	170c           	movi.n	a7, 1
    8f2e:	039774        	ae_lb	a9, a7
    8f31:	1c1a74        	ae_db	a10, a7
    8f34:	01a9           	s32i.n	a10, a1, 0
    8f36:	999d           	ae_zext16	a9, a9
    8f38:	0399           	s32i.n	a9, a3, 0
    8f3a:	085956        	bnez	a9, 8fc3 <_Z8LATM2RAWP12_streambuf_tP12_tLATMHeaderi+0xaf>
    8f3d:	a14b           	addi.n	a10, a1, 4
    8f3f:	24a1c2        	movi	a12, 0x124
    8f42:	556122        	s32i	a2, a1, 0x154
    8f45:	dc6881        	l32r	a8, e8 (418 <memcpy>)
    8f48:	b3cb           	addi.n	a11, a3, 12
    8f4a:	5661b2        	s32i	a11, a1, 0x158
    8f4d:	0008e0        	callx8	a8
    8f50:	034774        	ae_lb	a4, a7
    8f53:	01a8           	l32i.n	a10, a1, 0
    8f55:	944d           	ae_zext16	a4, a4
    8f57:	1c1a74        	ae_db	a10, a7
    8f5a:	01a9           	s32i.n	a10, a1, 0
    8f5c:	940b           	addi.n	a9, a4, -1
    8f5e:	168956        	bnez	a9, 90ca <_Z8LATM2RAWP12_streambuf_tP12_tLATMHeaderi+0x1b6>
    8f61:	038774        	ae_lb	a8, a7
    8f64:	586182        	s32i	a8, a1, 0x160
    8f67:	1c1a74        	ae_db	a10, a7
    8f6a:	01a9           	s32i.n	a10, a1, 0
    8f6c:	0057c6        	j	90cf <_Z8LATM2RAWP12_streambuf_tP12_tLATMHeaderi+0x1bb>

00008f6f <_Z8LATM2RAWP12_streambuf_tP12_tLATMHeaderi+0x5b>:
    8f6f:	040c           	movi.n	a4, 0

00008f71 <_Z8LATM2RAWP12_streambuf_tP12_tLATMHeaderi+0x5d>:
    8f71:	5b6142        	s32i	a4, a1, 0x16c
    8f74:	039774        	ae_lb	a9, a7
    8f77:	1c1a74        	ae_db	a10, a7
    8f7a:	01a9           	s32i.n	a10, a1, 0
    8f7c:	999d           	ae_zext16	a9, a9
    8f7e:	b98c           	beqz.n	a9, 8f8d <_Z8LATM2RAWP12_streambuf_tP12_tLATMHeaderi+0x79>
    8f80:	dcaa81        	l32r	a8, 228 (6ad8 <SkipBits>)
    8f83:	01ad           	mov.n	a10, a1
    8f85:	8b0c           	movi.n	a11, 8
    8f87:	0008e0        	callx8	a8
    8f8a:	5b6142        	s32i	a4, a1, 0x16c

00008f8d <_Z8LATM2RAWP12_streambuf_tP12_tLATMHeaderi+0x79>:
    8f8d:	b4a042        	movi	a4, 180
    8f90:	dc5681        	l32r	a8, e8 (418 <memcpy>)
    8f93:	5b21a2        	l32i	a10, a1, 0x16c
    8f96:	5021c2        	l32i	a12, a1, 0x140
    8f99:	5421b2        	l32i	a11, a1, 0x150
    8f9c:	4f21d2        	l32i	a13, a1, 0x13c
    8f9f:	5821e2        	l32i	a14, a1, 0x160
    8fa2:	01d392        	addmi	a9, a3, 0x100
    8fa5:	b4c992        	addi	a9, a9, -76
    8fa8:	8149e2        	s8i	a14, a9, 129
    8fab:	23d9           	s32i.n	a13, a3, 8
    8fad:	4c63b2        	s32i	a11, a3, 0x130
    8fb0:	13c9           	s32i.n	a12, a3, 4
    8fb2:	b14b           	addi.n	a11, a1, 4
    8fb4:	24a1c2        	movi	a12, 0x124
    8fb7:	8049a2        	s8i	a10, a9, 128
    8fba:	824922        	s8i	a2, a9, 130
    8fbd:	5621a2        	l32i	a10, a1, 0x158
    8fc0:	0008e0        	callx8	a8

00008fc3 <_Z8LATM2RAWP12_streambuf_tP12_tLATMHeaderi+0xaf>:
    8fc3:	2398           	l32i.n	a9, a3, 8
    8fc5:	02d9b6        	bltui	a9, 64, 8fcb <_Z8LATM2RAWP12_streambuf_tP12_tLATMHeaderi+0xb7>
    8fc8:	003e86        	j	90c6 <_Z8LATM2RAWP12_streambuf_tP12_tLATMHeaderi+0x1b2>
    8fcb:	5f6162        	s32i	a6, a1, 0x17c
    8fce:	f91b           	addi.n	a15, a9, 1
    8fd0:	834a           	add.n	a8, a3, a4
    8fd2:	5e6182        	s32i	a8, a1, 0x178
    8fd5:	2168f2        	s32i	a15, a8, 132
    8fd8:	054996        	bltz	a9, 9030 <_Z8LATM2RAWP12_streambuf_tP12_tLATMHeaderi+0x11c>
    8fdb:	032d           	mov.n	a2, a3
    8fdd:	01a8           	l32i.n	a10, a1, 0
    8fdf:	ffa062        	movi	a6, 255
    8fe2:	01d372        	addmi	a7, a3, 0x100
    8fe5:	080c           	movi.n	a8, 0
    8fe7:	5a6182        	s32i	a8, a1, 0x168
    8fea:	48c772        	addi	a7, a7, 72

00008fed <_Z8LATM2RAWP12_streambuf_tP12_tLATMHeaderi+0xd9>:
    8fed:	040c           	movi.n	a4, 0

00008fef <_Z8LATM2RAWP12_streambuf_tP12_tLATMHeaderi+0xdb>:
    8fef:	039754        	ae_lb	a9, a5
    8ff2:	1c1a54        	ae_db	a10, a5
    8ff5:	01a9           	s32i.n	a10, a1, 0
    8ff7:	999d           	ae_zext16	a9, a9
    8ff9:	449a           	add.n	a4, a4, a9
    8ffb:	f01967        	beq	a9, a6, 8fef <_Z8LATM2RAWP12_streambuf_tP12_tLATMHeaderi+0xdb>
    8ffe:	dc7a81        	l32r	a8, 1e8 (6a98 <TerminateBitParser>)
    9001:	07bd           	mov.n	a11, a7
    9003:	0008e0        	callx8	a8
    9006:	5222b2        	l32i	a11, a2, 0x148
    9009:	dc7481        	l32r	a8, 1dc (6ae4 <InitBitParser>)
    900c:	1194d0        	slli	a9, a4, 3
    900f:	5162a2        	s32i	a10, a2, 0x144
    9012:	536292        	s32i	a9, a2, 0x14c
    9015:	219390        	srai	a9, a9, 3
    9018:	aa9a           	add.n	a10, a10, a9
    901a:	0008e0        	callx8	a8
    901d:	22cb           	addi.n	a2, a2, 12
    901f:	77cb           	addi.n	a7, a7, 12
    9021:	5a21c2        	l32i	a12, a1, 0x168
    9024:	01a9           	s32i.n	a10, a1, 0
    9026:	23b8           	l32i.n	a11, a3, 8
    9028:	cc1b           	addi.n	a12, a12, 1
    902a:	5a61c2        	s32i	a12, a1, 0x168
    902d:	bcabc7        	bge	a11, a12, 8fed <_Z8LATM2RAWP12_streambuf_tP12_tLATMHeaderi+0xd9>

00009030 <_Z8LATM2RAWP12_streambuf_tP12_tLATMHeaderi+0x11c>:
    9030:	5e2122        	l32i	a2, a1, 0x178
    9033:	800222        	l8ui	a2, a2, 128
    9036:	5f2162        	l32i	a6, a1, 0x17c
    9039:	0d1c           	movi.n	a13, 16
    903b:	14bd27        	bgeu	a13, a2, 9053 <_Z8LATM2RAWP12_streambuf_tP12_tLATMHeaderi+0x13f>

0000903e <_Z8LATM2RAWP12_streambuf_tP12_tLATMHeaderi+0x12a>:
    903e:	dc7a81        	l32r	a8, 228 (6ad8 <SkipBits>)
    9041:	01ad           	mov.n	a10, a1
    9043:	0b1c           	movi.n	a11, 16
    9045:	0008e0        	callx8	a8
    9048:	091c           	movi.n	a9, 16
    904a:	f0c222        	addi	a2, a2, -16
    904d:	742020        	extui	a2, a2, 0, 8
    9050:	ea3927        	bltu	a9, a2, 903e <_Z8LATM2RAWP12_streambuf_tP12_tLATMHeaderi+0x12a>

00009053 <_Z8LATM2RAWP12_streambuf_tP12_tLATMHeaderi+0x13f>:
    9053:	dc7581        	l32r	a8, 228 (6ad8 <SkipBits>)
    9056:	02bd           	mov.n	a11, a2
    9058:	01ad           	mov.n	a10, a1
    905a:	0008e0        	callx8	a8
    905d:	01a8           	l32i.n	a10, a1, 0
    905f:	dc6281        	l32r	a8, 1e8 (6a98 <TerminateBitParser>)
    9062:	01d1b2        	addmi	a11, a1, 0x100
    9065:	30cbb2        	addi	a11, a11, 48
    9068:	0008e0        	callx8	a8
    906b:	26b8           	l32i.n	a11, a6, 8
    906d:	16c8           	l32i.n	a12, a6, 4
    906f:	4c21f2        	l32i	a15, a1, 0x130
    9072:	06d8           	l32i.n	a13, a6, 0
    9074:	ea1b           	addi.n	a14, a10, 1
    9076:	93aef0        	movnez	a10, a14, a15
    9079:	c0aad0        	sub	a10, a10, a13
    907c:	f0aac0        	subx8	a10, a10, a12
    907f:	13aba7        	bge	a11, a10, 9096 <_Z8LATM2RAWP12_streambuf_tP12_tLATMHeaderi+0x182>
    9082:	0b0c           	movi.n	a11, 0
    9084:	0ca3c2        	movi	a12, 0x30c
    9087:	dc1c81        	l32r	a8, f8 (9db0 <__vec_memset>)
    908a:	01d3a2        	addmi	a10, a3, 0x100
    908d:	38caa2        	addi	a10, a10, 56
    9090:	0008e0        	callx8	a8
    9093:	000bc6        	j	90c6 <_Z8LATM2RAWP12_streambuf_tP12_tLATMHeaderi+0x1b2>

00009096 <_Z8LATM2RAWP12_streambuf_tP12_tLATMHeaderi+0x182>:
    9096:	01aab7        	bge	a10, a11, 909b <_Z8LATM2RAWP12_streambuf_tP12_tLATMHeaderi+0x187>
    9099:	26a9           	s32i.n	a10, a6, 8

0000909b <_Z8LATM2RAWP12_streambuf_tP12_tLATMHeaderi+0x187>:
    909b:	020c           	movi.n	a2, 0

0000909d <_Z8LATM2RAWP12_streambuf_tP12_tLATMHeaderi+0x189>:
    909d:	f01d           	retw.n

0000909f <_Z8LATM2RAWP12_streambuf_tP12_tLATMHeaderi+0x18b>:
    909f:	fec9b2        	addi	a11, a9, -2
    90a2:	2c5b56        	bnez	a11, 936b <_Z8LATM2RAWP12_streambuf_tP12_tLATMHeaderi+0x457>
    90a5:	039754        	ae_lb	a9, a5
    90a8:	0d1c           	movi.n	a13, 16
    90aa:	1c1a54        	ae_db	a10, a5
    90ad:	01a9           	s32i.n	a10, a1, 0
    90af:	03c7d4        	ae_lb	a12, a13
    90b2:	999d           	ae_zext16	a9, a9
    90b4:	1c1ad4        	ae_db	a10, a13

000090b7 <_Z8LATM2RAWP12_streambuf_tP12_tLATMHeaderi+0x1a3>:
    90b7:	01a9           	s32i.n	a10, a1, 0
    90b9:	112c00        	slli	a2, a12, 16
    90bc:	292a           	add.n	a2, a9, a2

000090be <_Z8LATM2RAWP12_streambuf_tP12_tLATMHeaderi+0x1aa>:
    90be:	2688           	l32i.n	a8, a6, 8
    90c0:	023827        	bltu	a8, a2, 90c6 <_Z8LATM2RAWP12_streambuf_tP12_tLATMHeaderi+0x1b2>
    90c3:	003cc6        	j	91ba <_Z8LATM2RAWP12_streambuf_tP12_tLATMHeaderi+0x2a6>

000090c6 <_Z8LATM2RAWP12_streambuf_tP12_tLATMHeaderi+0x1b2>:
    90c6:	420c           	movi.n	a2, 4
    90c8:	f01d           	retw.n

000090ca <_Z8LATM2RAWP12_streambuf_tP12_tLATMHeaderi+0x1b6>:
    90ca:	090c           	movi.n	a9, 0
    90cc:	586192        	s32i	a9, a1, 0x160

000090cf <_Z8LATM2RAWP12_streambuf_tP12_tLATMHeaderi+0x1bb>:
    90cf:	5821b2        	l32i	a11, a1, 0x160
    90d2:	74b0b0        	extui	a11, a11, 0, 8
    90d5:	0dbb56        	bnez	a11, 91b4 <_Z8LATM2RAWP12_streambuf_tP12_tLATMHeaderi+0x2a0>
    90d8:	2e0c           	movi.n	a14, 2
    90da:	421466        	bnei	a4, 1, 9120 <_Z8LATM2RAWP12_streambuf_tP12_tLATMHeaderi+0x20c>
    90dd:	280c           	movi.n	a8, 2
    90df:	8b0c           	movi.n	a11, 8
    90e1:	032784        	ae_lb	a2, a8
    90e4:	1c1a84        	ae_db	a10, a8
    90e7:	01a9           	s32i.n	a10, a1, 0
    90e9:	dc4f81        	l32r	a8, 228 (6ad8 <SkipBits>)
    90ec:	01ad           	mov.n	a10, a1
    90ee:	922d           	ae_zext16	a2, a2
    90f0:	1192d0        	slli	a9, a2, 3
    90f3:	4d6192        	s32i	a9, a1, 0x134
    90f6:	0008e0        	callx8	a8
    90f9:	123266        	bnei	a2, 3, 910f <_Z8LATM2RAWP12_streambuf_tP12_tLATMHeaderi+0x1fb>
    90fc:	dc4b81        	l32r	a8, 228 (6ad8 <SkipBits>)
    90ff:	01ad           	mov.n	a10, a1
    9101:	8b0c           	movi.n	a11, 8
    9103:	0008e0        	callx8	a8
    9106:	4d2192        	l32i	a9, a1, 0x134
    9109:	f8c992        	addi	a9, a9, -8
    910c:	4d6192        	s32i	a9, a1, 0x134

0000910f <_Z8LATM2RAWP12_streambuf_tP12_tLATMHeaderi+0x1fb>:
    910f:	4d21b2        	l32i	a11, a1, 0x134
    9112:	dc4581        	l32r	a8, 228 (6ad8 <SkipBits>)
    9115:	01ad           	mov.n	a10, a1
    9117:	8bbd           	ae_sext16	a11, a11
    9119:	0008e0        	callx8	a8
    911c:	2e0c           	movi.n	a14, 2
    911e:	01a8           	l32i.n	a10, a1, 0

00009120 <_Z8LATM2RAWP12_streambuf_tP12_tLATMHeaderi+0x20c>:
    9120:	320c           	movi.n	a2, 3
    9122:	4b0c           	movi.n	a11, 4
    9124:	039774        	ae_lb	a9, a7
    9127:	6c0c           	movi.n	a12, 6
    9129:	1c1a74        	ae_db	a10, a7
    912c:	749090        	extui	a9, a9, 0, 8
    912f:	03f7c4        	ae_lb	a15, a12
    9132:	01a9           	s32i.n	a10, a1, 0
    9134:	1c1ac4        	ae_db	a10, a12
    9137:	9ffd           	ae_zext16	a15, a15
    9139:	03d7b4        	ae_lb	a13, a11
    913c:	01a9           	s32i.n	a10, a1, 0
    913e:	1c1ab4        	ae_db	a10, a11
    9141:	01a9           	s32i.n	a10, a1, 0
    9143:	03c724        	ae_lb	a12, a2
    9146:	9ddd           	ae_zext16	a13, a13
    9148:	dd1b           	addi.n	a13, a13, 1
    914a:	1c1a24        	ae_db	a10, a2
    914d:	01a9           	s32i.n	a10, a1, 0
    914f:	022db6        	bltui	a13, 2, 9155 <_Z8LATM2RAWP12_streambuf_tP12_tLATMHeaderi+0x241>
    9152:	ffd1c6        	j	909d <_Z8LATM2RAWP12_streambuf_tP12_tLATMHeaderi+0x189>
    9155:	9cdd           	ae_zext16	a13, a12
    9157:	dd1b           	addi.n	a13, a13, 1
    9159:	022db6        	bltui	a13, 2, 915f <_Z8LATM2RAWP12_streambuf_tP12_tLATMHeaderi+0x24b>
    915c:	ffcf46        	j	909d <_Z8LATM2RAWP12_streambuf_tP12_tLATMHeaderi+0x189>
    915f:	4f61f2        	s32i	a15, a1, 0x13c
    9162:	506192        	s32i	a9, a1, 0x140
    9165:	4f1466        	bnei	a4, 1, 91b8 <_Z8LATM2RAWP12_streambuf_tP12_tLATMHeaderi+0x2a4>
    9168:	0397e4        	ae_lb	a9, a14
    916b:	1c1ae4        	ae_db	a10, a14
    916e:	01a9           	s32i.n	a10, a1, 0
    9170:	999d           	ae_zext16	a9, a9
    9172:	f91b           	addi.n	a15, a9, 1
    9174:	023fb6        	bltui	a15, 3, 917a <_Z8LATM2RAWP12_streambuf_tP12_tLATMHeaderi+0x266>
    9177:	ffc906        	j	909f <_Z8LATM2RAWP12_streambuf_tP12_tLATMHeaderi+0x18b>
    917a:	880c           	movi.n	a8, 8
    917c:	b08980        	addx8	a8, a9, a8
    917f:	032784        	ae_lb	a2, a8
    9182:	1c1a84        	ae_db	a10, a8
    9185:	01a9           	s32i.n	a10, a1, 0
    9187:	922d           	ae_zext16	a2, a2
    9189:	ffcc46        	j	90be <_Z8LATM2RAWP12_streambuf_tP12_tLATMHeaderi+0x1aa>

0000918c <_Z8LATM2RAWP12_streambuf_tP12_tLATMHeaderi+0x278>:
    918c:	190c           	movi.n	a9, 1

0000918e <_Z8LATM2RAWP12_streambuf_tP12_tLATMHeaderi+0x27a>:
    918e:	932790        	movnez	a2, a7, a9

00009191 <_Z8LATM2RAWP12_streambuf_tP12_tLATMHeaderi+0x27d>:
    9191:	01a8           	l32i.n	a10, a1, 0
    9193:	3b0c           	movi.n	a11, 3
    9195:	0397b4        	ae_lb	a9, a11
    9198:	1c1ab4        	ae_db	a10, a11
    919b:	01a9           	s32i.n	a10, a1, 0
    919d:	999d           	ae_zext16	a9, a9
    919f:	546192        	s32i	a9, a1, 0x150
    91a2:	e9cc           	bnez.n	a9, 91b4 <_Z8LATM2RAWP12_streambuf_tP12_tLATMHeaderi+0x2a0>
    91a4:	dc2181        	l32r	a8, 228 (6ad8 <SkipBits>)
    91a7:	01ad           	mov.n	a10, a1
    91a9:	8b0c           	movi.n	a11, 8
    91ab:	0008e0        	callx8	a8
    91ae:	502192        	l32i	a9, a1, 0x140
    91b1:	1cb956        	bnez	a9, 9380 <_Z8LATM2RAWP12_streambuf_tP12_tLATMHeaderi+0x46c>

000091b4 <_Z8LATM2RAWP12_streambuf_tP12_tLATMHeaderi+0x2a0>:
    91b4:	320c           	movi.n	a2, 3
    91b6:	f01d           	retw.n

000091b8 <_Z8LATM2RAWP12_streambuf_tP12_tLATMHeaderi+0x2a4>:
    91b8:	020c           	movi.n	a2, 0

000091ba <_Z8LATM2RAWP12_streambuf_tP12_tLATMHeaderi+0x2a6>:
    91ba:	dc0b81        	l32r	a8, 1e8 (6a98 <TerminateBitParser>)
    91bd:	01d1b2        	addmi	a11, a1, 0x100
    91c0:	28cbb2        	addi	a11, a11, 40
    91c3:	0008e0        	callx8	a8
    91c6:	dc0581        	l32r	a8, 1dc (6ae4 <InitBitParser>)
    91c9:	5761a2        	s32i	a10, a1, 0x15c
    91cc:	4a21b2        	l32i	a11, a1, 0x128
    91cf:	0008e0        	callx8	a8
    91d2:	596122        	s32i	a2, a1, 0x164
    91d5:	02bd           	mov.n	a11, a2
    91d7:	c14b           	addi.n	a12, a1, 4
    91d9:	01a9           	s32i.n	a10, a1, 0
    91db:	5521d2        	l32i	a13, a1, 0x154
    91de:	01ad           	mov.n	a10, a1
    91e0:	002de5        	call8	94c0 <_Z23compareElementSelectionP14tElementSelectS0_hh+0x28>
    91e3:	5d61a2        	s32i	a10, a1, 0x174
    91e6:	01d1b2        	addmi	a11, a1, 0x100
    91e9:	dbff81        	l32r	a8, 1e8 (6a98 <TerminateBitParser>)
    91ec:	2ccbb2        	addi	a11, a11, 44
    91ef:	01a8           	l32i.n	a10, a1, 0
    91f1:	0008e0        	callx8	a8
    91f4:	5d21c2        	l32i	a12, a1, 0x174
    91f7:	2c8c           	beqz.n	a12, 91fd <_Z8LATM2RAWP12_streambuf_tP12_tLATMHeaderi+0x2e9>
    91f9:	0c2d           	mov.n	a2, a12
    91fb:	f01d           	retw.n

000091fd <_Z8LATM2RAWP12_streambuf_tP12_tLATMHeaderi+0x2e9>:
    91fd:	5161a2        	s32i	a10, a1, 0x144
    9200:	4b1466        	bnei	a4, 1, 924f <_Z8LATM2RAWP12_streambuf_tP12_tLATMHeaderi+0x33b>
    9203:	dbf681        	l32r	a8, 1dc (6ae4 <InitBitParser>)
    9206:	5721a2        	l32i	a10, a1, 0x15c
    9209:	4a21b2        	l32i	a11, a1, 0x128
    920c:	0008e0        	callx8	a8
    920f:	592192        	l32i	a9, a1, 0x164
    9212:	01a9           	s32i.n	a10, a1, 0
    9214:	09c916        	beqz	a9, 92b4 <_Z8LATM2RAWP12_streambuf_tP12_tLATMHeaderi+0x3a0>
    9217:	0a1c           	movi.n	a10, 16
    9219:	25ba97        	bgeu	a10, a9, 9242 <_Z8LATM2RAWP12_streambuf_tP12_tLATMHeaderi+0x32e>
    921c:	c90b           	addi.n	a12, a9, -1
    921e:	41c4c0        	srli	a12, a12, 4
    9221:	5261c2        	s32i	a12, a1, 0x148

00009224 <_Z8LATM2RAWP12_streambuf_tP12_tLATMHeaderi+0x310>:
    9224:	dc0181        	l32r	a8, 228 (6ad8 <SkipBits>)
    9227:	01ad           	mov.n	a10, a1
    9229:	0b1c           	movi.n	a11, 16
    922b:	0008e0        	callx8	a8
    922e:	f0c222        	addi	a2, a2, -16
    9231:	091c           	movi.n	a9, 16
    9233:	ed3927        	bltu	a9, a2, 9224 <_Z8LATM2RAWP12_streambuf_tP12_tLATMHeaderi+0x310>
    9236:	522182        	l32i	a8, a1, 0x148
    9239:	592122        	l32i	a2, a1, 0x164
    923c:	1188c0        	slli	a8, a8, 4
    923f:	c02280        	sub	a2, a2, a8

00009242 <_Z8LATM2RAWP12_streambuf_tP12_tLATMHeaderi+0x32e>:
    9242:	dbf981        	l32r	a8, 228 (6ad8 <SkipBits>)
    9245:	82bd           	ae_sext16	a11, a2
    9247:	01ad           	mov.n	a10, a1
    9249:	0008e0        	callx8	a8
    924c:	001906        	j	92b4 <_Z8LATM2RAWP12_streambuf_tP12_tLATMHeaderi+0x3a0>

0000924f <_Z8LATM2RAWP12_streambuf_tP12_tLATMHeaderi+0x33b>:
    924f:	dbe381        	l32r	a8, 1dc (6ae4 <InitBitParser>)
    9252:	4b21b2        	l32i	a11, a1, 0x12c
    9255:	0008e0        	callx8	a8
    9258:	592192        	l32i	a9, a1, 0x164
    925b:	01a9           	s32i.n	a10, a1, 0
    925d:	053916        	beqz	a9, 92b4 <_Z8LATM2RAWP12_streambuf_tP12_tLATMHeaderi+0x3a0>
    9260:	0a1c           	movi.n	a10, 16
    9262:	572122        	l32i	a2, a1, 0x15c
    9265:	5121f2        	l32i	a15, a1, 0x144
    9268:	4a21c2        	l32i	a12, a1, 0x128
    926b:	4b21e2        	l32i	a14, a1, 0x12c
    926e:	c0ff20        	sub	a15, a15, a2
    9271:	11ffd0        	slli	a15, a15, 3
    9274:	c0d9f0        	sub	a13, a9, a15
    9277:	c0dde0        	sub	a13, a13, a14
    927a:	ccda           	add.n	a12, a12, a13
    927c:	0c2d           	mov.n	a2, a12
    927e:	28bac7        	bgeu	a10, a12, 92aa <_Z8LATM2RAWP12_streambuf_tP12_tLATMHeaderi+0x396>
    9281:	4e61c2        	s32i	a12, a1, 0x138
    9284:	8c0b           	addi.n	a8, a12, -1
    9286:	418480        	srli	a8, a8, 4
    9289:	536182        	s32i	a8, a1, 0x14c

0000928c <_Z8LATM2RAWP12_streambuf_tP12_tLATMHeaderi+0x378>:
    928c:	dbe781        	l32r	a8, 228 (6ad8 <SkipBits>)
    928f:	01ad           	mov.n	a10, a1
    9291:	0b1c           	movi.n	a11, 16
    9293:	0008e0        	callx8	a8
    9296:	f0c222        	addi	a2, a2, -16
    9299:	091c           	movi.n	a9, 16
    929b:	ed3927        	bltu	a9, a2, 928c <_Z8LATM2RAWP12_streambuf_tP12_tLATMHeaderi+0x378>
    929e:	532182        	l32i	a8, a1, 0x14c
    92a1:	4e2122        	l32i	a2, a1, 0x138
    92a4:	1188c0        	slli	a8, a8, 4
    92a7:	c02280        	sub	a2, a2, a8

000092aa <_Z8LATM2RAWP12_streambuf_tP12_tLATMHeaderi+0x396>:
    92aa:	dbdf81        	l32r	a8, 228 (6ad8 <SkipBits>)
    92ad:	82bd           	ae_sext16	a11, a2
    92af:	01ad           	mov.n	a10, a1
    92b1:	0008e0        	callx8	a8
    92b4:	21a8           	l32i.n	a10, a1, 8
    92b6:	4398           	l32i.n	a9, a3, 16
    92b8:	1f99a7        	bne	a9, a10, 92db <_Z8LATM2RAWP12_streambuf_tP12_tLATMHeaderi+0x3c7>
    92bb:	41c8           	l32i.n	a12, a1, 16
    92bd:	63b8           	l32i.n	a11, a3, 24
    92bf:	189bc7        	bne	a11, a12, 92db <_Z8LATM2RAWP12_streambuf_tP12_tLATMHeaderi+0x3c7>
    92c2:	0c01e2        	l8ui	a14, a1, 12
    92c5:	1403d2        	l8ui	a13, a3, 20
    92c8:	0f9de7        	bne	a13, a14, 92db <_Z8LATM2RAWP12_streambuf_tP12_tLATMHeaderi+0x3c7>
    92cb:	0d0182        	l8ui	a8, a1, 13
    92ce:	1503f2        	l8ui	a15, a3, 21
    92d1:	069f87        	bne	a15, a8, 92db <_Z8LATM2RAWP12_streambuf_tP12_tLATMHeaderi+0x3c7>
    92d4:	51a8           	l32i.n	a10, a1, 20
    92d6:	7398           	l32i.n	a9, a3, 28
    92d8:	0419a7        	beq	a9, a10, 92e0 <_Z8LATM2RAWP12_streambuf_tP12_tLATMHeaderi+0x3cc>
    92db:	120c           	movi.n	a2, 1
    92dd:	000046        	j	92e2 <_Z8LATM2RAWP12_streambuf_tP12_tLATMHeaderi+0x3ce>

000092e0 <_Z8LATM2RAWP12_streambuf_tP12_tLATMHeaderi+0x3cc>:
    92e0:	020c           	movi.n	a2, 0

000092e2 <_Z8LATM2RAWP12_streambuf_tP12_tLATMHeaderi+0x3ce>:
    92e2:	2a03b2        	l8ui	a11, a3, 42
    92e5:	ea8b16        	beqz	a11, 9191 <_Z8LATM2RAWP12_streambuf_tP12_tLATMHeaderi+0x27d>
    92e8:	2201c2        	l8ui	a12, a1, 34
    92eb:	ea2c16        	beqz	a12, 9191 <_Z8LATM2RAWP12_streambuf_tP12_tLATMHeaderi+0x27d>
    92ee:	38c1a2        	addi	a10, a1, 56
    92f1:	40c3b2        	addi	a11, a3, 64
    92f4:	2f03d2        	l8ui	a13, a3, 47
    92f7:	dc4081        	l32r	a8, 3f8 (9498 <_Z23compareElementSelectionP14tElementSelectS0_hh>)
    92fa:	c14b           	addi.n	a12, a1, 4
    92fc:	230cc2        	l8ui	a12, a12, 35
    92ff:	0008e0        	callx8	a8
    9302:	9adc           	bnez.n	a10, 931f <_Z8LATM2RAWP12_streambuf_tP12_tLATMHeaderi+0x40b>
    9304:	68c1a2        	addi	a10, a1, 104
    9307:	70c3b2        	addi	a11, a3, 112
    930a:	3003d2        	l8ui	a13, a3, 48
    930d:	dc3a81        	l32r	a8, 3f8 (9498 <_Z23compareElementSelectionP14tElementSelectS0_hh>)
    9310:	c14b           	addi.n	a12, a1, 4
    9312:	240cc2        	l8ui	a12, a12, 36
    9315:	0008e0        	callx8	a8
    9318:	3acc           	bnez.n	a10, 931f <_Z8LATM2RAWP12_streambuf_tP12_tLATMHeaderi+0x40b>
    931a:	090c           	movi.n	a9, 0
    931c:	000046        	j	9321 <_Z8LATM2RAWP12_streambuf_tP12_tLATMHeaderi+0x40d>

0000931f <_Z8LATM2RAWP12_streambuf_tP12_tLATMHeaderi+0x40b>:
    931f:	190c           	movi.n	a9, 1

00009321 <_Z8LATM2RAWP12_streambuf_tP12_tLATMHeaderi+0x40d>:
    9321:	f9dc           	bnez.n	a9, 9344 <_Z8LATM2RAWP12_streambuf_tP12_tLATMHeaderi+0x430>
    9323:	3103d2        	l8ui	a13, a3, 49
    9326:	dc3481        	l32r	a8, 3f8 (9498 <_Z23compareElementSelectionP14tElementSelectS0_hh>)
    9329:	c14b           	addi.n	a12, a1, 4
    932b:	01d3b2        	addmi	a11, a3, 0x100
    932e:	7fc1a2        	addi	a10, a1, 127
    9331:	19caa2        	addi	a10, a10, 25
    9334:	a0cbb2        	addi	a11, a11, -96
    9337:	250cc2        	l8ui	a12, a12, 37
    933a:	0008e0        	callx8	a8
    933d:	3acc           	bnez.n	a10, 9344 <_Z8LATM2RAWP12_streambuf_tP12_tLATMHeaderi+0x430>
    933f:	090c           	movi.n	a9, 0
    9341:	000046        	j	9346 <_Z8LATM2RAWP12_streambuf_tP12_tLATMHeaderi+0x432>

00009344 <_Z8LATM2RAWP12_streambuf_tP12_tLATMHeaderi+0x430>:
    9344:	190c           	movi.n	a9, 1

00009346 <_Z8LATM2RAWP12_streambuf_tP12_tLATMHeaderi+0x432>:
    9346:	e42956        	bnez	a9, 918c <_Z8LATM2RAWP12_streambuf_tP12_tLATMHeaderi+0x278>
    9349:	3203d2        	l8ui	a13, a3, 50
    934c:	dc2b81        	l32r	a8, 3f8 (9498 <_Z23compareElementSelectionP14tElementSelectS0_hh>)
    934f:	c14b           	addi.n	a12, a1, 4
    9351:	01d3b2        	addmi	a11, a3, 0x100
    9354:	7fc1a2        	addi	a10, a1, 127
    9357:	49caa2        	addi	a10, a10, 73
    935a:	d0cbb2        	addi	a11, a11, -48
    935d:	260cc2        	l8ui	a12, a12, 38
    9360:	0008e0        	callx8	a8
    9363:	e25a56        	bnez	a10, 918c <_Z8LATM2RAWP12_streambuf_tP12_tLATMHeaderi+0x278>
    9366:	090c           	movi.n	a9, 0
    9368:	ff8886        	j	918e <_Z8LATM2RAWP12_streambuf_tP12_tLATMHeaderi+0x27a>

0000936b <_Z8LATM2RAWP12_streambuf_tP12_tLATMHeaderi+0x457>:
    936b:	0b1c           	movi.n	a11, 16
    936d:	0397b4        	ae_lb	a9, a11
    9370:	1c1ab4        	ae_db	a10, a11
    9373:	01a9           	s32i.n	a10, a1, 0
    9375:	03c7b4        	ae_lb	a12, a11
    9378:	999d           	ae_zext16	a9, a9
    937a:	1c1ab4        	ae_db	a10, a11
    937d:	ff4d86        	j	90b7 <_Z8LATM2RAWP12_streambuf_tP12_tLATMHeaderi+0x1a3>

00009380 <_Z8LATM2RAWP12_streambuf_tP12_tLATMHeaderi+0x46c>:
    9380:	03b774        	ae_lb	a11, a7
    9383:	01a8           	l32i.n	a10, a1, 0
    9385:	9bbd           	ae_zext16	a11, a11
    9387:	1c1a74        	ae_db	a10, a7
    938a:	01a9           	s32i.n	a10, a1, 0
    938c:	bdfb16        	beqz	a11, 8f6f <_Z8LATM2RAWP12_streambuf_tP12_tLATMHeaderi+0x5b>
    938f:	5c6122        	s32i	a2, a1, 0x170
    9392:	231466        	bnei	a4, 1, 93b9 <_Z8LATM2RAWP12_streambuf_tP12_tLATMHeaderi+0x4a5>
    9395:	280c           	movi.n	a8, 2
    9397:	032784        	ae_lb	a2, a8
    939a:	1c1a84        	ae_db	a10, a8
    939d:	01a9           	s32i.n	a10, a1, 0
    939f:	922d           	ae_zext16	a2, a2
    93a1:	c21b           	addi.n	a12, a2, 1
    93a3:	2a3cf6        	bgeui	a12, 3, 93d1 <_Z8LATM2RAWP12_streambuf_tP12_tLATMHeaderi+0x4bd>
    93a6:	890c           	movi.n	a9, 8
    93a8:	b09290        	addx8	a9, a2, a9
    93ab:	034794        	ae_lb	a4, a9
    93ae:	1c1a94        	ae_db	a10, a9

000093b1 <_Z8LATM2RAWP12_streambuf_tP12_tLATMHeaderi+0x49d>:
    93b1:	5c2122        	l32i	a2, a1, 0x170
    93b4:	01a9           	s32i.n	a10, a1, 0
    93b6:	feedc6        	j	8f71 <_Z8LATM2RAWP12_streambuf_tP12_tLATMHeaderi+0x5d>

000093b9 <_Z8LATM2RAWP12_streambuf_tP12_tLATMHeaderi+0x4a5>:
    93b9:	03b774        	ae_lb	a11, a7
    93bc:	1c1a74        	ae_db	a10, a7
    93bf:	01a9           	s32i.n	a10, a1, 0
    93c1:	034754        	ae_lb	a4, a5
    93c4:	9bbd           	ae_zext16	a11, a11
    93c6:	1c1a54        	ae_db	a10, a5
    93c9:	01a9           	s32i.n	a10, a1, 0
    93cb:	feab56        	bnez	a11, 93b9 <_Z8LATM2RAWP12_streambuf_tP12_tLATMHeaderi+0x4a5>
    93ce:	fee7c6        	j	8f71 <_Z8LATM2RAWP12_streambuf_tP12_tLATMHeaderi+0x5d>

000093d1 <_Z8LATM2RAWP12_streambuf_tP12_tLATMHeaderi+0x4bd>:
    93d1:	0f2266        	bnei	a2, 2, 93e4 <_Z8LATM2RAWP12_streambuf_tP12_tLATMHeaderi+0x4d0>
    93d4:	034754        	ae_lb	a4, a5
    93d7:	1c1a54        	ae_db	a10, a5
    93da:	0c1c           	movi.n	a12, 16
    93dc:	01a9           	s32i.n	a10, a1, 0
    93de:	1c1ac4        	ae_db	a10, a12
    93e1:	fff306        	j	93b1 <_Z8LATM2RAWP12_streambuf_tP12_tLATMHeaderi+0x49d>

000093e4 <_Z8LATM2RAWP12_streambuf_tP12_tLATMHeaderi+0x4d0>:
    93e4:	0d1c           	movi.n	a13, 16
    93e6:	0347d4        	ae_lb	a4, a13
    93e9:	1c1ad4        	ae_db	a10, a13
    93ec:	01a9           	s32i.n	a10, a1, 0
    93ee:	1c1ad4        	ae_db	a10, a13
    93f1:	ffef06        	j	93b1 <_Z8LATM2RAWP12_streambuf_tP12_tLATMHeaderi+0x49d>

000093f4 <_Z9LOAS2LATMP12_streambuf_tS0_i>:
    93f4:	006136        	entry	a1, 48
    93f7:	80a082        	movi	a8, 128
    93fa:	050c           	movi.n	a5, 0
    93fc:	0159           	s32i.n	a5, a1, 0
    93fe:	2359           	s32i.n	a5, a3, 8
    9400:	2298           	l32i.n	a9, a2, 8
    9402:	0359           	s32i.n	a5, a3, 0
    9404:	1359           	s32i.n	a5, a3, 4
    9406:	52a897        	bge	a8, a9, 945c <_Z9LOAS2LATMP12_streambuf_tS0_i+0x68>
    9409:	db7481        	l32r	a8, 1dc (6ae4 <InitBitParser>)
    940c:	02a8           	l32i.n	a10, a2, 0
    940e:	12b8           	l32i.n	a11, a2, 4
    9410:	0008e0        	callx8	a8
    9413:	bb0c           	movi.n	a11, 11
    9415:	0397b4        	ae_lb	a9, a11
    9418:	b7a272        	movi	a7, 0x2b7
    941b:	1c1ab4        	ae_db	a10, a11
    941e:	999d           	ae_zext16	a9, a9
    9420:	1d9977        	bne	a9, a7, 9441 <_Z9LOAS2LATMP12_streambuf_tS0_i+0x4d>
    9423:	d80c           	movi.n	a8, 13
    9425:	036784        	ae_lb	a6, a8
    9428:	1c1a84        	ae_db	a10, a8
    942b:	db6f81        	l32r	a8, 1e8 (6a98 <TerminateBitParser>)
    942e:	01bd           	mov.n	a11, a1
    9430:	966d           	ae_zext16	a6, a6
    9432:	0008e0        	callx8	a8
    9435:	03a9           	s32i.n	a10, a3, 0
    9437:	dbf191        	l32r	a9, 3fc (2000 <_Z20CJointStereo_ApplyMSPP22CAacDecoderChannelInfoPKtPcii+0x58>)
    943a:	01b8           	l32i.n	a11, a1, 0
    943c:	13b9           	s32i.n	a11, a3, 4
    943e:	03a967        	bge	a9, a6, 9445 <_Z9LOAS2LATMP12_streambuf_tS0_i+0x51>

00009441 <_Z9LOAS2LATMP12_streambuf_tS0_i+0x4d>:
    9441:	220c           	movi.n	a2, 2
    9443:	f01d           	retw.n

00009445 <_Z9LOAS2LATMP12_streambuf_tS0_i+0x51>:
    9445:	22b8           	l32i.n	a11, a2, 8
    9447:	c63b           	addi.n	a12, a6, 3
    9449:	11ccd0        	slli	a12, a12, 3
    944c:	0c2bc7        	blt	a11, a12, 945c <_Z9LOAS2LATMP12_streambuf_tS0_i+0x68>
    944f:	d48c           	beqz.n	a4, 9460 <_Z9LOAS2LATMP12_streambuf_tS0_i+0x6c>
    9451:	371bc7        	beq	a11, a12, 948c <_Z9LOAS2LATMP12_streambuf_tS0_i+0x98>
    9454:	d65b           	addi.n	a13, a6, 5
    9456:	11ddd0        	slli	a13, a13, 3
    9459:	0cabd7        	bge	a11, a13, 9469 <_Z9LOAS2LATMP12_streambuf_tS0_i+0x75>

0000945c <_Z9LOAS2LATMP12_streambuf_tS0_i+0x68>:
    945c:	120c           	movi.n	a2, 1
    945e:	f01d           	retw.n

00009460 <_Z9LOAS2LATMP12_streambuf_tS0_i+0x6c>:
    9460:	020c           	movi.n	a2, 0
    9462:	11e6d0        	slli	a14, a6, 3
    9465:	23e9           	s32i.n	a14, a3, 8
    9467:	f01d           	retw.n

00009469 <_Z9LOAS2LATMP12_streambuf_tS0_i+0x75>:
    9469:	db5c81        	l32r	a8, 1dc (6ae4 <InitBitParser>)
    946c:	aa6a           	add.n	a10, a10, a6
    946e:	01b8           	l32i.n	a11, a1, 0
    9470:	0008e0        	callx8	a8
    9473:	01bd           	mov.n	a11, a1
    9475:	b90c           	movi.n	a9, 11
    9477:	db5c81        	l32r	a8, 1e8 (6a98 <TerminateBitParser>)
    947a:	034794        	ae_lb	a4, a9
    947d:	1c1a94        	ae_db	a10, a9
    9480:	0008e0        	callx8	a8
    9483:	94ad           	ae_zext16	a10, a4
    9485:	d71a77        	beq	a10, a7, 9460 <_Z9LOAS2LATMP12_streambuf_tS0_i+0x6c>
    9488:	1359           	s32i.n	a5, a3, 4
    948a:	22b8           	l32i.n	a11, a2, 8

0000948c <_Z9LOAS2LATMP12_streambuf_tS0_i+0x98>:
    948c:	f27c           	movi.n	a2, -1
    948e:	e8cbc2        	addi	a12, a11, -24
    9491:	23c9           	s32i.n	a12, a3, 8
    9493:	f01d           	retw.n

00009495 <_Z9LOAS2LATMP12_streambuf_tS0_i+0xa1>:
    9495:	000000                                        ...

00009498 <_Z23compareElementSelectionP14tElementSelectS0_hh>:
    9498:	004136        	entry	a1, 32
    949b:	1c9457        	bne	a4, a5, 94bb <_Z23compareElementSelectionP14tElementSelectS0_hh+0x23>
    949e:	159476        	loopnez	a4, 94b7 <_Z23compareElementSelectionP14tElementSelectS0_hh+0x1f>
    94a1:	020392        	l8ui	a9, a3, 2
    94a4:	000372        	l8ui	a7, a3, 0
    94a7:	000262        	l8ui	a6, a2, 0
    94aa:	020282        	l8ui	a8, a2, 2
    94ad:	0a9677        	bne	a6, a7, 94bb <_Z23compareElementSelectionP14tElementSelectS0_hh+0x23>
    94b0:	079897        	bne	a8, a9, 94bb <_Z23compareElementSelectionP14tElementSelectS0_hh+0x23>
    94b3:	223b           	addi.n	a2, a2, 3
    94b5:	333b           	addi.n	a3, a3, 3

000094b7 <_Z23compareElementSelectionP14tElementSelectS0_hh+0x1f>:
    94b7:	020c           	movi.n	a2, 0
    94b9:	f01d           	retw.n

000094bb <_Z23compareElementSelectionP14tElementSelectS0_hh+0x23>:
    94bb:	120c           	movi.n	a2, 1
    94bd:	f01d           	retw.n

000094bf <_Z23compareElementSelectionP14tElementSelectS0_hh+0x27>:
	...

000094c0 <_Z23compareElementSelectionP14tElementSelectS0_hh+0x28>:
    94c0:	006136        	entry	a1, 48
    94c3:	04ad           	mov.n	a10, a4
    94c5:	0b0c           	movi.n	a11, 0
    94c7:	24a1c2        	movi	a12, 0x124
    94ca:	db0b81        	l32r	a8, f8 (9db0 <__vec_memset>)
    94cd:	2139           	s32i.n	a3, a1, 8
    94cf:	1159           	s32i.n	a5, a1, 4
    94d1:	0008e0        	callx8	a8
    94d4:	0e1c           	movi.n	a14, 16
    94d6:	8d0c           	movi.n	a13, 8
    94d8:	f70c           	movi.n	a7, 15
    94da:	fb1c           	movi.n	a11, 31
    94dc:	02a8           	l32i.n	a10, a2, 0
    94de:	530c           	movi.n	a3, 5
    94e0:	039734        	ae_lb	a9, a3
    94e3:	1c1a34        	ae_db	a10, a3
    94e6:	02a9           	s32i.n	a10, a2, 0
    94e8:	999d           	ae_zext16	a9, a9
    94ea:	0499           	s32i.n	a9, a4, 0
    94ec:	1599b7        	bne	a9, a11, 9505 <_Z23compareElementSelectionP14tElementSelectS0_hh+0x6d>
    94ef:	b60c           	movi.n	a6, 11
    94f1:	6c0c           	movi.n	a12, 6
    94f3:	03b7c4        	ae_lb	a11, a12
    94f6:	1c1ac4        	ae_db	a10, a12
    94f9:	02a9           	s32i.n	a10, a2, 0
    94fb:	9bbd           	ae_zext16	a11, a11
    94fd:	20cbb2        	addi	a11, a11, 32
    9500:	04b9           	s32i.n	a11, a4, 0
    9502:	000046        	j	9507 <_Z23compareElementSelectionP14tElementSelectS0_hh+0x6f>

00009505 <_Z23compareElementSelectionP14tElementSelectS0_hh+0x6d>:
    9505:	036d           	mov.n	a6, a3

00009507 <_Z23compareElementSelectionP14tElementSelectS0_hh+0x6f>:
    9507:	664b           	addi.n	a6, a6, 4
    9509:	02b8           	l32i.n	a11, a2, 0
    950b:	4c0c           	movi.n	a12, 4
    950d:	0357c4        	ae_lb	a5, a12
    9510:	1c1bc4        	ae_db	a11, a12
    9513:	02b9           	s32i.n	a11, a2, 0
    9515:	955d           	ae_zext16	a5, a5
    9517:	1b9577        	bne	a5, a7, 9536 <_Z23compareElementSelectionP14tElementSelectS0_hh+0x9e>
    951a:	03a7d4        	ae_lb	a10, a13
    951d:	1c1bd4        	ae_db	a11, a13
    9520:	02b9           	s32i.n	a11, a2, 0
    9522:	03f7e4        	ae_lb	a15, a14
    9525:	9aad           	ae_zext16	a10, a10
    9527:	1c1be4        	ae_db	a11, a14
    952a:	02b9           	s32i.n	a11, a2, 0
    952c:	9ffd           	ae_zext16	a15, a15
    952e:	11ff80        	slli	a15, a15, 8
    9531:	aafa           	add.n	a10, a10, a15
    9533:	000246        	j	9540 <_Z23compareElementSelectionP14tElementSelectS0_hh+0xa8>

00009536 <_Z23compareElementSelectionP14tElementSelectS0_hh+0x9e>:
    9536:	db3b81        	l32r	a8, 224 (67bc <tIndexToFrequency>)
    9539:	05ad           	mov.n	a10, a5
    953b:	0008e0        	callx8	a8
    953e:	4c0c           	movi.n	a12, 4

00009540 <_Z23compareElementSelectionP14tElementSelectS0_hh+0xa8>:
    9540:	34a9           	s32i.n	a10, a4, 12
    9542:	029577        	bne	a5, a7, 9548 <_Z23compareElementSelectionP14tElementSelectS0_hh+0xb0>
    9545:	18c662        	addi	a6, a6, 24

00009548 <_Z23compareElementSelectionP14tElementSelectS0_hh+0xb0>:
    9548:	112a16        	beqz	a10, 965e <_Z23compareElementSelectionP14tElementSelectS0_hh+0x1c6>
    954b:	664b           	addi.n	a6, a6, 4
    954d:	02b8           	l32i.n	a11, a2, 0
    954f:	03a7c4        	ae_lb	a10, a12
    9552:	1198           	l32i.n	a9, a1, 4
    9554:	1c1bc4        	ae_db	a11, a12
    9557:	02b9           	s32i.n	a11, a2, 0
    9559:	0944a2        	s8i	a10, a4, 9
    955c:	74a0a0        	extui	a10, a10, 0, 8
    955f:	49cc           	bnez.n	a9, 9567 <_Z23compareElementSelectionP14tElementSelectS0_hh+0xcf>
    9561:	198ab6        	bltui	a10, 8, 957e <_Z23compareElementSelectionP14tElementSelectS0_hh+0xe6>
    9564:	003d86        	j	965e <_Z23compareElementSelectionP14tElementSelectS0_hh+0x1c6>

00009567 <_Z23compareElementSelectionP14tElementSelectS0_hh+0xcf>:
    9567:	078ab6        	bltui	a10, 8, 9572 <_Z23compareElementSelectionP14tElementSelectS0_hh+0xda>
    956a:	ad0c           	movi.n	a13, 10
    956c:	023da7        	bltu	a13, a10, 9572 <_Z23compareElementSelectionP14tElementSelectS0_hh+0xda>
    956f:	003ac6        	j	965e <_Z23compareElementSelectionP14tElementSelectS0_hh+0x1c6>

00009572 <_Z23compareElementSelectionP14tElementSelectS0_hh+0xda>:
    9572:	c0ea70        	sub	a14, a10, a7
    9575:	0e5e16        	beqz	a14, 965e <_Z23compareElementSelectionP14tElementSelectS0_hh+0x1c6>
    9578:	f3caf2        	addi	a15, a10, -13
    957b:	0dff16        	beqz	a15, 965e <_Z23compareElementSelectionP14tElementSelectS0_hh+0x1c6>

0000957e <_Z23compareElementSelectionP14tElementSelectS0_hh+0xe6>:
    957e:	0458           	l32i.n	a5, a4, 0
    9580:	130c           	movi.n	a3, 1
    9582:	5f0c           	movi.n	a15, 5
    9584:	e3c582        	addi	a8, a5, -29
    9587:	1d4816        	beqz	a8, 975f <_Z23compareElementSelectionP14tElementSelectS0_hh+0x2c7>
    958a:	fbc592        	addi	a9, a5, -5
    958d:	1ce916        	beqz	a9, 975f <_Z23compareElementSelectionP14tElementSelectS0_hh+0x2c7>
    9590:	080492        	l8ui	a9, a4, 8

00009593 <_Z23compareElementSelectionP14tElementSelectS0_hh+0xfb>:
    9593:	057916        	beqz	a9, 95ee <_Z23compareElementSelectionP14tElementSelectS0_hh+0x156>
    9596:	664b           	addi.n	a6, a6, 4
    9598:	0357c4        	ae_lb	a5, a12
    959b:	02b8           	l32i.n	a11, a2, 0
    959d:	14f9           	s32i.n	a15, a4, 4
    959f:	955d           	ae_zext16	a5, a5
    95a1:	1c1bc4        	ae_db	a11, a12
    95a4:	02b9           	s32i.n	a11, a2, 0
    95a6:	1f9577        	bne	a5, a7, 95c9 <_Z23compareElementSelectionP14tElementSelectS0_hh+0x131>
    95a9:	0e1c           	movi.n	a14, 16
    95ab:	8d0c           	movi.n	a13, 8
    95ad:	03a7d4        	ae_lb	a10, a13
    95b0:	1c1bd4        	ae_db	a11, a13
    95b3:	02b9           	s32i.n	a11, a2, 0
    95b5:	9aad           	ae_zext16	a10, a10
    95b7:	03d7e4        	ae_lb	a13, a14
    95ba:	1c1be4        	ae_db	a11, a14
    95bd:	02b9           	s32i.n	a11, a2, 0
    95bf:	9ddd           	ae_zext16	a13, a13
    95c1:	11dd80        	slli	a13, a13, 8
    95c4:	aada           	add.n	a10, a10, a13
    95c6:	000246        	j	95d3 <_Z23compareElementSelectionP14tElementSelectS0_hh+0x13b>

000095c9 <_Z23compareElementSelectionP14tElementSelectS0_hh+0x131>:
    95c9:	db1681        	l32r	a8, 224 (67bc <tIndexToFrequency>)
    95cc:	05ad           	mov.n	a10, a5
    95ce:	0008e0        	callx8	a8
    95d1:	5f0c           	movi.n	a15, 5

000095d3 <_Z23compareElementSelectionP14tElementSelectS0_hh+0x13b>:
    95d3:	44a9           	s32i.n	a10, a4, 16
    95d5:	029577        	bne	a5, a7, 95db <_Z23compareElementSelectionP14tElementSelectS0_hh+0x143>
    95d8:	18c662        	addi	a6, a6, 24

000095db <_Z23compareElementSelectionP14tElementSelectS0_hh+0x143>:
    95db:	07fa16        	beqz	a10, 965e <_Z23compareElementSelectionP14tElementSelectS0_hh+0x1c6>
    95de:	0357f4        	ae_lb	a5, a15
    95e1:	0288           	l32i.n	a8, a2, 0
    95e3:	665b           	addi.n	a6, a6, 5
    95e5:	955d           	ae_zext16	a5, a5
    95e7:	1c18f4        	ae_db	a8, a15
    95ea:	0289           	s32i.n	a8, a2, 0
    95ec:	0459           	s32i.n	a5, a4, 0

000095ee <_Z23compareElementSelectionP14tElementSelectS0_hh+0x156>:
    95ee:	7a1c           	movi.n	a10, 23
    95f0:	4b1c           	movi.n	a11, 20
    95f2:	3e1c           	movi.n	a14, 19
    95f4:	1d1c           	movi.n	a13, 17
    95f6:	1f1526        	beqi	a5, 1, 9619 <_Z23compareElementSelectionP14tElementSelectS0_hh+0x181>
    95f9:	1c2526        	beqi	a5, 2, 9619 <_Z23compareElementSelectionP14tElementSelectS0_hh+0x181>
    95fc:	193526        	beqi	a5, 3, 9619 <_Z23compareElementSelectionP14tElementSelectS0_hh+0x181>
    95ff:	164526        	beqi	a5, 4, 9619 <_Z23compareElementSelectionP14tElementSelectS0_hh+0x181>
    9602:	136526        	beqi	a5, 6, 9619 <_Z23compareElementSelectionP14tElementSelectS0_hh+0x181>
    9605:	107526        	beqi	a5, 7, 9619 <_Z23compareElementSelectionP14tElementSelectS0_hh+0x181>
    9608:	0d15d7        	beq	a5, a13, 9619 <_Z23compareElementSelectionP14tElementSelectS0_hh+0x181>
    960b:	0a15e7        	beq	a5, a14, 9619 <_Z23compareElementSelectionP14tElementSelectS0_hh+0x181>
    960e:	0715b7        	beq	a5, a11, 9619 <_Z23compareElementSelectionP14tElementSelectS0_hh+0x181>
    9611:	591c           	movi.n	a9, 21
    9613:	021597        	beq	a5, a9, 9619 <_Z23compareElementSelectionP14tElementSelectS0_hh+0x181>
    9616:	6e95a7        	bne	a5, a10, 9688 <_Z23compareElementSelectionP14tElementSelectS0_hh+0x1f0>
    9619:	14c4a2        	addi	a10, a4, 20
    961c:	0b0c           	movi.n	a11, 0
    961e:	10a1c2        	movi	a12, 0x110
    9621:	dab581        	l32r	a8, f8 (9db0 <__vec_memset>)
    9624:	090492        	l8ui	a9, a4, 9
    9627:	0199           	s32i.n	a9, a1, 0
    9629:	0008e0        	callx8	a8
    962c:	7c1c           	movi.n	a12, 23
    962e:	1d1c           	movi.n	a13, 17
    9630:	3e1c           	movi.n	a14, 19
    9632:	039734        	ae_lb	a9, a3
    9635:	02a8           	l32i.n	a10, a2, 0
    9637:	4f1c           	movi.n	a15, 20
    9639:	999d           	ae_zext16	a9, a9
    963b:	1c1a34        	ae_db	a10, a3
    963e:	02a9           	s32i.n	a10, a2, 0
    9640:	4d3566        	bnei	a5, 3, 9691 <_Z23compareElementSelectionP14tElementSelectS0_hh+0x1f9>
    9643:	045916        	beqz	a9, 968c <_Z23compareElementSelectionP14tElementSelectS0_hh+0x1f4>

00009646 <_Z23compareElementSelectionP14tElementSelectS0_hh+0x1ae>:
    9646:	3a0c           	movi.n	a10, 3
    9648:	004106        	j	9750 <_Z23compareElementSelectionP14tElementSelectS0_hh+0x2b8>

0000964b <_Z23compareElementSelectionP14tElementSelectS0_hh+0x1b3>:
    964b:	daf681        	l32r	a8, 224 (67bc <tIndexToFrequency>)
    964e:	05ad           	mov.n	a10, a5
    9650:	0008e0        	callx8	a8

00009653 <_Z23compareElementSelectionP14tElementSelectS0_hh+0x1bb>:
    9653:	44a9           	s32i.n	a10, a4, 16
    9655:	029577        	bne	a5, a7, 965b <_Z23compareElementSelectionP14tElementSelectS0_hh+0x1c3>
    9658:	18c662        	addi	a6, a6, 24

0000965b <_Z23compareElementSelectionP14tElementSelectS0_hh+0x1c3>:
    965b:	1d0a56        	bnez	a10, 982f <_Z23compareElementSelectionP14tElementSelectS0_hh+0x397>

0000965e <_Z23compareElementSelectionP14tElementSelectS0_hh+0x1c6>:
    965e:	420c           	movi.n	a2, 4
    9660:	f01d           	retw.n

00009662 <_Z23compareElementSelectionP14tElementSelectS0_hh+0x1ca>:
    9662:	080492        	l8ui	a9, a4, 8

00009665 <_Z23compareElementSelectionP14tElementSelectS0_hh+0x1cd>:
    9665:	29cc           	bnez.n	a9, 966b <_Z23compareElementSelectionP14tElementSelectS0_hh+0x1d3>

00009667 <_Z23compareElementSelectionP14tElementSelectS0_hh+0x1cf>:
    9667:	3498           	l32i.n	a9, a4, 12
    9669:	4499           	s32i.n	a9, a4, 16

0000966b <_Z23compareElementSelectionP14tElementSelectS0_hh+0x1d3>:
    966b:	020c           	movi.n	a2, 0
    966d:	f01d           	retw.n

0000966f <_Z23compareElementSelectionP14tElementSelectS0_hh+0x1d7>:
    966f:	662b           	addi.n	a6, a6, 2
    9671:	02a8           	l32i.n	a10, a2, 0
    9673:	2b0c           	movi.n	a11, 2
    9675:	0397b4        	ae_lb	a9, a11
    9678:	1c1ab4        	ae_db	a10, a11
    967b:	02a9           	s32i.n	a10, a2, 0
    967d:	999d           	ae_zext16	a9, a9
    967f:	052926        	beqi	a9, 2, 9688 <_Z23compareElementSelectionP14tElementSelectS0_hh+0x1f0>
    9682:	fdc9c2        	addi	a12, a9, -3
    9685:	0fec56        	bnez	a12, 9787 <_Z23compareElementSelectionP14tElementSelectS0_hh+0x2ef>

00009688 <_Z23compareElementSelectionP14tElementSelectS0_hh+0x1f0>:
    9688:	320c           	movi.n	a2, 3
    968a:	f01d           	retw.n

0000968c <_Z23compareElementSelectionP14tElementSelectS0_hh+0x1f4>:
    968c:	00a182        	movi	a8, 0x100
    968f:	5489           	s32i.n	a8, a4, 20

00009691 <_Z23compareElementSelectionP14tElementSelectS0_hh+0x1f9>:
    9691:	c0a5c0        	sub	a10, a5, a12
    9694:	180c           	movi.n	a8, 1
    9696:	09bd           	mov.n	a11, a9
    9698:	93b890        	movnez	a11, a8, a9
    969b:	0b7a56        	bnez	a10, 9756 <_Z23compareElementSelectionP14tElementSelectS0_hh+0x2be>
    969e:	e0a192        	movi	a9, 0x1e0
    96a1:	00a2a2        	movi	a10, 0x200

000096a4 <_Z23compareElementSelectionP14tElementSelectS0_hh+0x20c>:
    96a4:	939ab0        	movnez	a9, a10, a11
    96a7:	5499           	s32i.n	a9, a4, 20
    96a9:	0298           	l32i.n	a9, a2, 0
    96ab:	038734        	ae_lb	a8, a3
    96ae:	1c1934        	ae_db	a9, a3
    96b1:	0299           	s32i.n	a9, a2, 0
    96b3:	1c4482        	s8i	a8, a4, 28
    96b6:	748080        	extui	a8, a8, 0, 8
    96b9:	38cc           	bnez.n	a8, 96c0 <_Z23compareElementSelectionP14tElementSelectS0_hh+0x228>
    96bb:	090c           	movi.n	a9, 0
    96bd:	000346        	j	96ce <_Z23compareElementSelectionP14tElementSelectS0_hh+0x236>

000096c0 <_Z23compareElementSelectionP14tElementSelectS0_hh+0x228>:
    96c0:	02a8           	l32i.n	a10, a2, 0
    96c2:	eb0c           	movi.n	a11, 14
    96c4:	0397b4        	ae_lb	a9, a11
    96c7:	1c1ab4        	ae_db	a10, a11
    96ca:	02a9           	s32i.n	a10, a2, 0
    96cc:	999d           	ae_zext16	a9, a9

000096ce <_Z23compareElementSelectionP14tElementSelectS0_hh+0x236>:
    96ce:	0188           	l32i.n	a8, a1, 0
    96d0:	02b8           	l32i.n	a11, a2, 0
    96d2:	03a734        	ae_lb	a10, a3
    96d5:	6499           	s32i.n	a9, a4, 24
    96d7:	1c1b34        	ae_db	a11, a3
    96da:	02b9           	s32i.n	a11, a2, 0
    96dc:	1d44a2        	s8i	a10, a4, 29
    96df:	78dc           	bnez.n	a8, 96fa <_Z23compareElementSelectionP14tElementSelectS0_hh+0x262>
    96e1:	1e4432        	s8i	a3, a4, 30
    96e4:	dabf81        	l32r	a8, 1e0 (6854 <tScanPCEFromBitstream>)
    96e7:	02ad           	mov.n	a10, a2
    96e9:	20c4b2        	addi	a11, a4, 32
    96ec:	0008e0        	callx8	a8
    96ef:	7c1c           	movi.n	a12, 23
    96f1:	1d1c           	movi.n	a13, 17
    96f3:	3e1c           	movi.n	a14, 19
    96f5:	4f1c           	movi.n	a15, 20
    96f7:	055a56        	bnez	a10, 9750 <_Z23compareElementSelectionP14tElementSelectS0_hh+0x2b8>
    96fa:	026526        	beqi	a5, 6, 9700 <_Z23compareElementSelectionP14tElementSelectS0_hh+0x268>
    96fd:	0895f7        	bne	a5, a15, 9709 <_Z23compareElementSelectionP14tElementSelectS0_hh+0x271>

00009700 <_Z23compareElementSelectionP14tElementSelectS0_hh+0x268>:
    9700:	0298           	l32i.n	a9, a2, 0
    9702:	3a0c           	movi.n	a10, 3
    9704:	1c19a4        	ae_db	a9, a10
    9707:	0299           	s32i.n	a9, a2, 0

00009709 <_Z23compareElementSelectionP14tElementSelectS0_hh+0x271>:
    9709:	1d04b2        	l8ui	a11, a4, 29
    970c:	db9c           	beqz.n	a11, 972d <_Z23compareElementSelectionP14tElementSelectS0_hh+0x295>
    970e:	c085d0        	sub	a8, a5, a13
    9711:	0fa816        	beqz	a8, 980f <_Z23compareElementSelectionP14tElementSelectS0_hh+0x377>
    9714:	c095e0        	sub	a9, a5, a14
    9717:	0f4916        	beqz	a9, 980f <_Z23compareElementSelectionP14tElementSelectS0_hh+0x377>
    971a:	c0a5c0        	sub	a10, a5, a12
    971d:	0eea16        	beqz	a10, 980f <_Z23compareElementSelectionP14tElementSelectS0_hh+0x377>
    9720:	c0b5f0        	sub	a11, a5, a15
    9723:	0e8b16        	beqz	a11, 980f <_Z23compareElementSelectionP14tElementSelectS0_hh+0x377>
    9726:	02b8           	l32i.n	a11, a2, 0

00009728 <_Z23compareElementSelectionP14tElementSelectS0_hh+0x290>:
    9728:	1c1b34        	ae_db	a11, a3
    972b:	02b9           	s32i.n	a11, a2, 0

0000972d <_Z23compareElementSelectionP14tElementSelectS0_hh+0x295>:
    972d:	1d1526        	beqi	a5, 1, 974e <_Z23compareElementSelectionP14tElementSelectS0_hh+0x2b6>
    9730:	1a2526        	beqi	a5, 2, 974e <_Z23compareElementSelectionP14tElementSelectS0_hh+0x2b6>
    9733:	173526        	beqi	a5, 3, 974e <_Z23compareElementSelectionP14tElementSelectS0_hh+0x2b6>
    9736:	144526        	beqi	a5, 4, 974e <_Z23compareElementSelectionP14tElementSelectS0_hh+0x2b6>
    9739:	116526        	beqi	a5, 6, 974e <_Z23compareElementSelectionP14tElementSelectS0_hh+0x2b6>
    973c:	0e7526        	beqi	a5, 7, 974e <_Z23compareElementSelectionP14tElementSelectS0_hh+0x2b6>
    973f:	0b15d7        	beq	a5, a13, 974e <_Z23compareElementSelectionP14tElementSelectS0_hh+0x2b6>
    9742:	0815e7        	beq	a5, a14, 974e <_Z23compareElementSelectionP14tElementSelectS0_hh+0x2b6>
    9745:	0515c7        	beq	a5, a12, 974e <_Z23compareElementSelectionP14tElementSelectS0_hh+0x2b6>
    9748:	c085f0        	sub	a8, a5, a15
    974b:	ef7856        	bnez	a8, 9646 <_Z23compareElementSelectionP14tElementSelectS0_hh+0x1ae>
    974e:	0a0c           	movi.n	a10, 0

00009750 <_Z23compareElementSelectionP14tElementSelectS0_hh+0x2b8>:
    9750:	3a9c           	beqz.n	a10, 9767 <_Z23compareElementSelectionP14tElementSelectS0_hh+0x2cf>
    9752:	0a2d           	mov.n	a2, a10
    9754:	f01d           	retw.n

00009756 <_Z23compareElementSelectionP14tElementSelectS0_hh+0x2be>:
    9756:	00a492        	movi	a9, 0x400
    9759:	c0a3a2        	movi	a10, 0x3c0
    975c:	ffd106        	j	96a4 <_Z23compareElementSelectionP14tElementSelectS0_hh+0x20c>

0000975f <_Z23compareElementSelectionP14tElementSelectS0_hh+0x2c7>:
    975f:	084432        	s8i	a3, a4, 8
    9762:	039d           	mov.n	a9, a3
    9764:	ff8ac6        	j	9593 <_Z23compareElementSelectionP14tElementSelectS0_hh+0xfb>

00009767 <_Z23compareElementSelectionP14tElementSelectS0_hh+0x2cf>:
    9767:	0498           	l32i.n	a9, a4, 0
    9769:	c0a9d0        	sub	a10, a9, a13
    976c:	effa16        	beqz	a10, 966f <_Z23compareElementSelectionP14tElementSelectS0_hh+0x1d7>
    976f:	c0b9e0        	sub	a11, a9, a14
    9772:	ef9b16        	beqz	a11, 966f <_Z23compareElementSelectionP14tElementSelectS0_hh+0x1d7>
    9775:	c0d9f0        	sub	a13, a9, a15
    9778:	ef3d16        	beqz	a13, 966f <_Z23compareElementSelectionP14tElementSelectS0_hh+0x1d7>
    977b:	ebc9e2        	addi	a14, a9, -21
    977e:	eede16        	beqz	a14, 966f <_Z23compareElementSelectionP14tElementSelectS0_hh+0x1d7>
    9781:	c0f9c0        	sub	a15, a9, a12
    9784:	ee7f16        	beqz	a15, 966f <_Z23compareElementSelectionP14tElementSelectS0_hh+0x1d7>

00009787 <_Z23compareElementSelectionP14tElementSelectS0_hh+0x2ef>:
    9787:	1488           	l32i.n	a8, a4, 4
    9789:	fbc882        	addi	a8, a8, -5
    978c:	ed2816        	beqz	a8, 9662 <_Z23compareElementSelectionP14tElementSelectS0_hh+0x1ca>
    978f:	2198           	l32i.n	a9, a1, 8
    9791:	c09960        	sub	a9, a9, a6
    9794:	02b9e6        	bgei	a9, 16, 979a <_Z23compareElementSelectionP14tElementSelectS0_hh+0x302>
    9797:	ffb1c6        	j	9662 <_Z23compareElementSelectionP14tElementSelectS0_hh+0x1ca>
    979a:	db1981        	l32r	a8, 400 (6ab4 <ShowBitsHW>)
    979d:	02ad           	mov.n	a10, a2
    979f:	bb0c           	movi.n	a11, 11
    97a1:	0008e0        	callx8	a8
    97a4:	b7a292        	movi	a9, 0x2b7
    97a7:	789a97        	bne	a10, a9, 9823 <_Z23compareElementSelectionP14tElementSelectS0_hh+0x38b>
    97aa:	da9f81        	l32r	a8, 228 (6ad8 <SkipBits>)
    97ad:	02ad           	mov.n	a10, a2
    97af:	bb0c           	movi.n	a11, 11
    97b1:	0008e0        	callx8	a8
    97b4:	0298           	l32i.n	a9, a2, 0
    97b6:	5b0c           	movi.n	a11, 5
    97b8:	03a7b4        	ae_lb	a10, a11
    97bb:	1c19b4        	ae_db	a9, a11
    97be:	0299           	s32i.n	a9, a2, 0
    97c0:	9aad           	ae_zext16	a10, a10
    97c2:	14a9           	s32i.n	a10, a4, 4
    97c4:	615a66        	bnei	a10, 5, 9829 <_Z23compareElementSelectionP14tElementSelectS0_hh+0x391>
    97c7:	03b734        	ae_lb	a11, a3
    97ca:	1c1934        	ae_db	a9, a3
    97cd:	0299           	s32i.n	a9, a2, 0
    97cf:	74b0b0        	extui	a11, a11, 0, 8
    97d2:	0844b2        	s8i	a11, a4, 8
    97d5:	e8eb16        	beqz	a11, 9667 <_Z23compareElementSelectionP14tElementSelectS0_hh+0x1cf>
    97d8:	15c662        	addi	a6, a6, 21
    97db:	02b8           	l32i.n	a11, a2, 0
    97dd:	4d0c           	movi.n	a13, 4
    97df:	0357d4        	ae_lb	a5, a13
    97e2:	1c1bd4        	ae_db	a11, a13
    97e5:	02b9           	s32i.n	a11, a2, 0
    97e7:	955d           	ae_zext16	a5, a5
    97e9:	c0c570        	sub	a12, a5, a7
    97ec:	e5bc56        	bnez	a12, 964b <_Z23compareElementSelectionP14tElementSelectS0_hh+0x1b3>
    97ef:	8e0c           	movi.n	a14, 8
    97f1:	0d1c           	movi.n	a13, 16
    97f3:	03a7e4        	ae_lb	a10, a14
    97f6:	1c1be4        	ae_db	a11, a14
    97f9:	02b9           	s32i.n	a11, a2, 0
    97fb:	03c7d4        	ae_lb	a12, a13
    97fe:	9aad           	ae_zext16	a10, a10
    9800:	1c1bd4        	ae_db	a11, a13
    9803:	02b9           	s32i.n	a11, a2, 0
    9805:	9ccd           	ae_zext16	a12, a12
    9807:	11cc80        	slli	a12, a12, 8
    980a:	aaca           	add.n	a10, a10, a12
    980c:	ff90c6        	j	9653 <_Z23compareElementSelectionP14tElementSelectS0_hh+0x1bb>

0000980f <_Z23compareElementSelectionP14tElementSelectS0_hh+0x377>:
    980f:	02b8           	l32i.n	a11, a2, 0
    9811:	1c1b34        	ae_db	a11, a3
    9814:	02b9           	s32i.n	a11, a2, 0
    9816:	1c1b34        	ae_db	a11, a3
    9819:	02b9           	s32i.n	a11, a2, 0
    981b:	1c1b34        	ae_db	a11, a3
    981e:	02b9           	s32i.n	a11, a2, 0
    9820:	ffc106        	j	9728 <_Z23compareElementSelectionP14tElementSelectS0_hh+0x290>

00009823 <_Z23compareElementSelectionP14tElementSelectS0_hh+0x38b>:
    9823:	080492        	l8ui	a9, a4, 8
    9826:	ff8ec6        	j	9665 <_Z23compareElementSelectionP14tElementSelectS0_hh+0x1cd>

00009829 <_Z23compareElementSelectionP14tElementSelectS0_hh+0x391>:
    9829:	080492        	l8ui	a9, a4, 8
    982c:	ff8d46        	j	9665 <_Z23compareElementSelectionP14tElementSelectS0_hh+0x1cd>

0000982f <_Z23compareElementSelectionP14tElementSelectS0_hh+0x397>:
    982f:	21f8           	l32i.n	a15, a1, 8
    9831:	c0ff60        	sub	a15, a15, a6
    9834:	1cafa6        	blti	a15, 12, 9854 <_Z23compareElementSelectionP14tElementSelectS0_hh+0x3bc>
    9837:	daf281        	l32r	a8, 400 (6ab4 <ShowBitsHW>)
    983a:	02ad           	mov.n	a10, a2
    983c:	cb0c           	movi.n	a11, 12
    983e:	0008e0        	callx8	a8
    9841:	4191a0        	srli	a9, a10, 1
    9844:	48a5a2        	movi	a10, 0x548
    9847:	0999a7        	bne	a9, a10, 9854 <_Z23compareElementSelectionP14tElementSelectS0_hh+0x3bc>
    984a:	da7781        	l32r	a8, 228 (6ad8 <SkipBits>)
    984d:	02ad           	mov.n	a10, a2
    984f:	cb0c           	movi.n	a11, 12
    9851:	0008e0        	callx8	a8
    9854:	080492        	l8ui	a9, a4, 8
    9857:	ff8286        	j	9665 <_Z23compareElementSelectionP14tElementSelectS0_hh+0x1cd>

0000985a <_Z23compareElementSelectionP14tElementSelectS0_hh+0x3c2>:
	...

0000985c <tParseLATM>:
    985c:	008136        	entry	a1, 64
    985f:	b8a0b2        	movi	a11, 184
    9862:	029d           	mov.n	a9, a2
    9864:	4199           	s32i.n	a9, a1, 16
    9866:	020c           	movi.n	a2, 0
    9868:	3629           	s32i.n	a2, a6, 12
    986a:	4629           	s32i.n	a2, a6, 16
    986c:	5629           	s32i.n	a2, a6, 20
    986e:	6629           	s32i.n	a2, a6, 24
    9870:	33cc           	bnez.n	a3, 9877 <tParseLATM+0x1b>
    9872:	1a0c           	movi.n	a10, 1
    9874:	000406        	j	9888 <tParseLATM+0x2c>

00009877 <tParseLATM+0x1b>:
    9877:	4f2792        	l32i	a9, a7, 0x13c
    987a:	4e2782        	l32i	a8, a7, 0x138
    987d:	c08890        	sub	a8, a8, a9
    9880:	0a4816        	beqz	a8, 9928 <tParseLATM+0xcc>
    9883:	0a1556        	bnez	a5, 9928 <tParseLATM+0xcc>
    9886:	02ad           	mov.n	a10, a2

00009888 <tParseLATM+0x2c>:
    9888:	05da56        	bnez	a10, 98e9 <tParseLATM+0x8d>
    988b:	4f27d2        	l32i	a13, a7, 0x13c
    988e:	41f8           	l32i.n	a15, a1, 16
    9890:	90cdd0        	addx2	a12, a13, a13
    9893:	a0cc70        	addx4	a12, a12, a7
    9896:	01dcc2        	addmi	a12, a12, 0x100
    9899:	44ccc2        	addi	a12, a12, 68
    989c:	1c88           	l32i.n	a8, a12, 4
    989e:	0ce8           	l32i.n	a14, a12, 0
    98a0:	2cc8           	l32i.n	a12, a12, 8
    98a2:	35cc           	bnez.n	a5, 98a9 <tParseLATM+0x4d>
    98a4:	dd1b           	addi.n	a13, a13, 1
    98a6:	4f67d2        	s32i	a13, a7, 0x13c

000098a9 <tParseLATM+0x4d>:
    98a9:	5689           	s32i.n	a8, a6, 20
    98ab:	36e9           	s32i.n	a14, a6, 12
    98ad:	21c3c0        	srai	a12, a12, 3
    98b0:	46c9           	s32i.n	a12, a6, 16
    98b2:	c0eef0        	sub	a14, a14, a15
    98b5:	4e27f2        	l32i	a15, a7, 0x138
    98b8:	ccea           	add.n	a12, a12, a14
    98ba:	5027e2        	l32i	a14, a7, 0x140
    98bd:	069fd7        	bne	a15, a13, 98c7 <tParseLATM+0x6b>
    98c0:	31e9           	s32i.n	a14, a1, 12
    98c2:	0ecd           	mov.n	a12, a14
    98c4:	000046        	j	98c9 <tParseLATM+0x6d>

000098c7 <tParseLATM+0x6b>:
    98c7:	31c9           	s32i.n	a12, a1, 12

000098c9 <tParseLATM+0x6d>:
    98c9:	c09ec0        	sub	a9, a14, a12
    98cc:	506792        	s32i	a9, a7, 0x140
    98cf:	161fa6        	blti	a15, 1, 98e9 <tParseLATM+0x8d>
    98d2:	0d0c           	movi.n	a13, 0
    98d4:	07ed           	mov.n	a14, a7
    98d6:	4e27f2        	l32i	a15, a7, 0x138

000098d9 <tParseLATM+0x7d>:
    98d9:	512e82        	l32i	a8, a14, 0x144
    98dc:	dd1b           	addi.n	a13, a13, 1
    98de:	eecb           	addi.n	a14, a14, 12
    98e0:	c088c0        	sub	a8, a8, a12
    98e3:	4e6e82        	s32i	a8, a14, 0x138
    98e6:	ef2df7        	blt	a13, a15, 98d9 <tParseLATM+0x7d>

000098e9 <tParseLATM+0x8d>:
    98e9:	190c           	movi.n	a9, 1
    98eb:	304a26        	beqi	a10, 4, 991f <tParseLATM+0xc3>
    98ee:	2d3a26        	beqi	a10, 3, 991f <tParseLATM+0xc3>
    98f1:	ca0b           	addi.n	a12, a10, -1
    98f3:	071c16        	beqz	a12, 9968 <tParseLATM+0x10c>
    98f6:	fbcad2        	addi	a13, a10, -5
    98f9:	087d16        	beqz	a13, 9984 <tParseLATM+0x128>
    98fc:	fadc           	bnez.n	a10, 991f <tParseLATM+0xc3>
    98fe:	a7ba           	add.n	a10, a7, a11
    9900:	e7cb           	addi.n	a14, a7, 12
    9902:	7e4a22        	s8i	a2, a10, 126
    9905:	31a8           	l32i.n	a10, a1, 12
    9907:	02fd           	mov.n	a15, a2
    9909:	102182        	l32i	a8, a1, 64
    990c:	83fa50        	moveqz	a15, a10, a5
    990f:	0a0c           	movi.n	a10, 0
    9911:	08f9           	s32i.n	a15, a8, 0
    9913:	06e9           	s32i.n	a14, a6, 0
    9915:	7699           	s32i.n	a9, a6, 28
    9917:	025622        	s16i	a2, a6, 4
    991a:	8629           	s32i.n	a2, a6, 32
    991c:	000106        	j	9924 <tParseLATM+0xc8>

0000991f <tParseLATM+0xc3>:
    991f:	1021b2        	l32i	a11, a1, 64
    9922:	0b99           	s32i.n	a9, a11, 0

00009924 <tParseLATM+0xc8>:
    9924:	0a2d           	mov.n	a2, a10
    9926:	f01d           	retw.n

00009928 <tParseLATM+0xcc>:
    9928:	1121c2        	l32i	a12, a1, 68
    992b:	01ad           	mov.n	a10, a1
    992d:	07bd           	mov.n	a11, a7
    992f:	dab581        	l32r	a8, 404 (8f14 <_Z8LATM2RAWP12_streambuf_tP12_tLATMHeaderi>)
    9932:	1129           	s32i.n	a2, a1, 4
    9934:	11d3d0        	slli	a13, a3, 3
    9937:	41e8           	l32i.n	a14, a1, 16
    9939:	01e9           	s32i.n	a14, a1, 0
    993b:	21d9           	s32i.n	a13, a1, 8
    993d:	4f6722        	s32i	a2, a7, 0x13c
    9940:	4e6722        	s32i	a2, a7, 0x138
    9943:	506722        	s32i	a2, a7, 0x140
    9946:	0008e0        	callx8	a8
    9949:	b8a0b2        	movi	a11, 184
    994c:	f99a56        	bnez	a10, 98e9 <tParseLATM+0x8d>
    994f:	21f8           	l32i.n	a15, a1, 8
    9951:	21f3f0        	srai	a15, a15, 3
    9954:	5067f2        	s32i	a15, a7, 0x140
    9957:	c59c           	beqz.n	a5, 9977 <tParseLATM+0x11b>
    9959:	4e6722        	s32i	a2, a7, 0x138
    995c:	759c           	beqz.n	a5, 9977 <tParseLATM+0x11b>
    995e:	0788           	l32i.n	a8, a7, 0
    9960:	101866        	bnei	a8, 1, 9974 <tParseLATM+0x118>
    9963:	4a0c           	movi.n	a10, 4
    9965:	ffc7c6        	j	9888 <tParseLATM+0x2c>

00009968 <tParseLATM+0x10c>:
    9968:	1021a2        	l32i	a10, a1, 64
    996b:	f49c           	beqz.n	a4, 998e <tParseLATM+0x132>
    996d:	0a39           	s32i.n	a3, a10, 0
    996f:	6a0c           	movi.n	a10, 6
    9971:	ffebc6        	j	9924 <tParseLATM+0xc8>

00009974 <tParseLATM+0x118>:
    9974:	f10556        	bnez	a5, 9888 <tParseLATM+0x2c>

00009977 <tParseLATM+0x11b>:
    9977:	d7ba           	add.n	a13, a7, a11
    9979:	7e0dd2        	l8ui	a13, a13, 126
    997c:	5c0c           	movi.n	a12, 5
    997e:	93acd0        	movnez	a10, a12, a13
    9981:	ffc0c6        	j	9888 <tParseLATM+0x2c>

00009984 <tParseLATM+0x128>:
    9984:	1021e2        	l32i	a14, a1, 64
    9987:	5a0c           	movi.n	a10, 5
    9989:	0e29           	s32i.n	a2, a14, 0
    998b:	ffe546        	j	9924 <tParseLATM+0xc8>

0000998e <tParseLATM+0x132>:
    998e:	0a29           	s32i.n	a2, a10, 0
    9990:	09ad           	mov.n	a10, a9
    9992:	ffe386        	j	9924 <tParseLATM+0xc8>

00009995 <tParseLATM+0x139>:
    9995:	000000                                        ...

00009998 <tParseLOAS>:
    9998:	00a136        	entry	a1, 80
    999b:	02cd           	mov.n	a12, a2
    999d:	049d           	mov.n	a9, a4
    999f:	0b0c           	movi.n	a11, 0
    99a1:	054d           	mov.n	a4, a5
    99a3:	37b9           	s32i.n	a11, a7, 12
    99a5:	47b9           	s32i.n	a11, a7, 16
    99a7:	57b9           	s32i.n	a11, a7, 20
    99a9:	67b9           	s32i.n	a11, a7, 24
    99ab:	7199           	s32i.n	a9, a1, 28
    99ad:	4613e6        	bgei	a3, 1, 99f7 <tParseLOAS+0x5f>
    99b0:	0b5d           	mov.n	a5, a11
    99b2:	1a0c           	movi.n	a10, 1

000099b4 <tParseLOAS+0x1c>:
    99b4:	0f7a56        	bnez	a10, 9aaf <tParseLOAS+0x117>
    99b7:	142122        	l32i	a2, a1, 80
    99ba:	4f2292        	l32i	a9, a2, 0x13c
    99bd:	90b990        	addx2	a11, a9, a9
    99c0:	a0bb20        	addx4	a11, a11, a2
    99c3:	01dbb2        	addmi	a11, a11, 0x100
    99c6:	44cbb2        	addi	a11, a11, 68
    99c9:	34cc           	bnez.n	a4, 99d0 <tParseLOAS+0x38>
    99cb:	991b           	addi.n	a9, a9, 1
    99cd:	4f6292        	s32i	a9, a2, 0x13c

000099d0 <tParseLOAS+0x38>:
    99d0:	0bd8           	l32i.n	a13, a11, 0
    99d2:	1be8           	l32i.n	a14, a11, 4
    99d4:	57e9           	s32i.n	a14, a7, 20
    99d6:	37d9           	s32i.n	a13, a7, 12
    99d8:	2bb8           	l32i.n	a11, a11, 8
    99da:	c0ddc0        	sub	a13, a13, a12
    99dd:	4e22c2        	l32i	a12, a2, 0x138
    99e0:	21b3b0        	srai	a11, a11, 3
    99e3:	47b9           	s32i.n	a11, a7, 16
    99e5:	bbda           	add.n	a11, a11, a13
    99e7:	c08c90        	sub	a8, a12, a9
    99ea:	502292        	l32i	a9, a2, 0x140
    99ed:	09e856        	bnez	a8, 9a8f <tParseLOAS+0xf7>
    99f0:	6199           	s32i.n	a9, a1, 24
    99f2:	09bd           	mov.n	a11, a9
    99f4:	002646        	j	9a91 <tParseLOAS+0xf9>

000099f7 <tParseLOAS+0x5f>:
    99f7:	142122        	l32i	a2, a1, 80
    99fa:	4f2282        	l32i	a8, a2, 0x13c
    99fd:	4e22f2        	l32i	a15, a2, 0x138
    9a00:	021f87        	beq	a15, a8, 9a06 <tParseLOAS+0x6e>
    9a03:	0fc516        	beqz	a5, 9b03 <tParseLOAS+0x16b>

00009a06 <tParseLOAS+0x6e>:
    9a06:	81c9           	s32i.n	a12, a1, 32
    9a08:	050c           	movi.n	a5, 0
    9a0a:	01c9           	s32i.n	a12, a1, 0
    9a0c:	11b9           	s32i.n	a11, a1, 4
    9a0e:	1183d0        	slli	a8, a3, 3
    9a11:	2189           	s32i.n	a8, a1, 8
    9a13:	4f62b2        	s32i	a11, a2, 0x13c
    9a16:	4e62b2        	s32i	a11, a2, 0x138
    9a19:	5062b2        	s32i	a11, a2, 0x140

00009a1c <tParseLOAS+0x84>:
    9a1c:	06cd           	mov.n	a12, a6
    9a1e:	da7a81        	l32r	a8, 408 (93f4 <_Z9LOAS2LATMP12_streambuf_tS0_i>)
    9a21:	01ad           	mov.n	a10, a1
    9a23:	b1cb           	addi.n	a11, a1, 12
    9a25:	0008e0        	callx8	a8
    9a28:	112a66        	bnei	a10, 2, 9a3d <tParseLOAS+0xa5>
    9a2b:	2198           	l32i.n	a9, a1, 8
    9a2d:	01b8           	l32i.n	a11, a1, 0
    9a2f:	551b           	addi.n	a5, a5, 1
    9a31:	f8c992        	addi	a9, a9, -8
    9a34:	bb1b           	addi.n	a11, a11, 1
    9a36:	01b9           	s32i.n	a11, a1, 0
    9a38:	2199           	s32i.n	a9, a1, 8
    9a3a:	de9357        	bne	a3, a5, 9a1c <tParseLOAS+0x84>

00009a3d <tParseLOAS+0xa5>:
    9a3d:	0115a6        	blti	a5, 1, 9a42 <tParseLOAS+0xaa>
    9a40:	2a0c           	movi.n	a10, 2

00009a42 <tParseLOAS+0xaa>:
    9a42:	080a66        	bnei	a10, -1, 9a4e <tParseLOAS+0xb6>
    9a45:	71c8           	l32i.n	a12, a1, 28
    9a47:	0b0c           	movi.n	a11, 0
    9a49:	1a0c           	movi.n	a10, 1
    9a4b:	93abc0        	movnez	a10, a11, a12
    9a4e:	05da56        	bnez	a10, 9aaf <tParseLOAS+0x117>
    9a51:	a1cb           	addi.n	a10, a1, 12
    9a53:	02bd           	mov.n	a11, a2
    9a55:	1621c2        	l32i	a12, a1, 88
    9a58:	da6b81        	l32r	a8, 404 (8f14 <_Z8LATM2RAWP12_streambuf_tP12_tLATMHeaderi>)
    9a5b:	5198           	l32i.n	a9, a1, 20
    9a5d:	01d262        	addmi	a6, a2, 0x100
    9a60:	c0c662        	addi	a6, a6, -64
    9a63:	219390        	srai	a9, a9, 3
    9a66:	e16692        	s32i	a9, a6, 0x384
    9a69:	0008e0        	callx8	a8
    9a6c:	81c8           	l32i.n	a12, a1, 32
    9a6e:	dafc           	bnez.n	a10, 9aaf <tParseLOAS+0x117>
    9a70:	e12682        	l32i	a8, a6, 0x384
    9a73:	883b           	addi.n	a8, a8, 3
    9a75:	506282        	s32i	a8, a2, 0x140
    9a78:	0ae416        	beqz	a4, 9b2a <tParseLOAS+0x192>
    9a7b:	090c           	movi.n	a9, 0
    9a7d:	4e6292        	s32i	a9, a2, 0x138
    9a80:	0a6416        	beqz	a4, 9b2a <tParseLOAS+0x192>
    9a83:	02b8           	l32i.n	a11, a2, 0
    9a85:	bb0b           	addi.n	a11, a11, -1
    9a87:	09cb56        	bnez	a11, 9b27 <tParseLOAS+0x18f>
    9a8a:	4a0c           	movi.n	a10, 4
    9a8c:	ffc906        	j	99b4 <tParseLOAS+0x1c>

00009a8f <tParseLOAS+0xf7>:
    9a8f:	61b9           	s32i.n	a11, a1, 24

00009a91 <tParseLOAS+0xf9>:
    9a91:	c0d9b0        	sub	a13, a9, a11
    9a94:	5062d2        	s32i	a13, a2, 0x140
    9a97:	141ca6        	blti	a12, 1, 9aaf <tParseLOAS+0x117>
    9a9a:	0c0c           	movi.n	a12, 0
    9a9c:	4e22d2        	l32i	a13, a2, 0x138

00009a9f <tParseLOAS+0x107>:
    9a9f:	5122e2        	l32i	a14, a2, 0x144
    9aa2:	cc1b           	addi.n	a12, a12, 1
    9aa4:	22cb           	addi.n	a2, a2, 12
    9aa6:	c0eeb0        	sub	a14, a14, a11
    9aa9:	4e62e2        	s32i	a14, a2, 0x138
    9aac:	ef2cd7        	blt	a12, a13, 9a9f <tParseLOAS+0x107>
    9aaf:	572a26        	beqi	a10, 2, 9b0a <tParseLOAS+0x172>
    9ab2:	190c           	movi.n	a9, 1
    9ab4:	344a26        	beqi	a10, 4, 9aec <tParseLOAS+0x154>
    9ab7:	313a26        	beqi	a10, 3, 9aec <tParseLOAS+0x154>
    9aba:	371a26        	beqi	a10, 1, 9af5 <tParseLOAS+0x15d>
    9abd:	515a26        	beqi	a10, 5, 9b12 <tParseLOAS+0x17a>
    9ac0:	8aec           	bnez.n	a10, 9aec <tParseLOAS+0x154>
    9ac2:	61b8           	l32i.n	a11, a1, 24
    9ac4:	142182        	l32i	a8, a1, 80
    9ac7:	0f0c           	movi.n	a15, 0
    9ac9:	0fad           	mov.n	a10, a15
    9acb:	01d8c2        	addmi	a12, a8, 0x100
    9ace:	83ab40        	moveqz	a10, a11, a4
    9ad1:	88cb           	addi.n	a8, a8, 12
    9ad3:	1521b2        	l32i	a11, a1, 84
    9ad6:	c0ccc2        	addi	a12, a12, -64
    9ad9:	764cf2        	s8i	a15, a12, 118
    9adc:	0ba9           	s32i.n	a10, a11, 0
    9ade:	0789           	s32i.n	a8, a7, 0
    9ae0:	7799           	s32i.n	a9, a7, 28
    9ae2:	0257f2        	s16i	a15, a7, 4
    9ae5:	87f9           	s32i.n	a15, a7, 32
    9ae7:	0a0c           	movi.n	a10, 0
    9ae9:	000106        	j	9af1 <tParseLOAS+0x159>

00009aec <tParseLOAS+0x154>:
    9aec:	1521c2        	l32i	a12, a1, 84
    9aef:	0c99           	s32i.n	a9, a12, 0

00009af1 <tParseLOAS+0x159>:
    9af1:	0a2d           	mov.n	a2, a10
    9af3:	f01d           	retw.n

00009af5 <tParseLOAS+0x15d>:
    9af5:	71d8           	l32i.n	a13, a1, 28
    9af7:	1521a2        	l32i	a10, a1, 84
    9afa:	0dac           	beqz.n	a13, 9b1e <tParseLOAS+0x186>
    9afc:	0a39           	s32i.n	a3, a10, 0
    9afe:	6a0c           	movi.n	a10, 6
    9b00:	fffb46        	j	9af1 <tParseLOAS+0x159>

00009b03 <tParseLOAS+0x16b>:
    9b03:	0a0c           	movi.n	a10, 0
    9b05:	050c           	movi.n	a5, 0
    9b07:	ffaa46        	j	99b4 <tParseLOAS+0x1c>

00009b0a <tParseLOAS+0x172>:
    9b0a:	1521b2        	l32i	a11, a1, 84
    9b0d:	0b59           	s32i.n	a5, a11, 0
    9b0f:	fff786        	j	9af1 <tParseLOAS+0x159>

00009b12 <tParseLOAS+0x17a>:
    9b12:	1521d2        	l32i	a13, a1, 84
    9b15:	5a0c           	movi.n	a10, 5
    9b17:	0c0c           	movi.n	a12, 0
    9b19:	0dc9           	s32i.n	a12, a13, 0
    9b1b:	fff486        	j	9af1 <tParseLOAS+0x159>

00009b1e <tParseLOAS+0x186>:
    9b1e:	0e0c           	movi.n	a14, 0
    9b20:	0ae9           	s32i.n	a14, a10, 0
    9b22:	09ad           	mov.n	a10, a9
    9b24:	fff246        	j	9af1 <tParseLOAS+0x159>

00009b27 <tParseLOAS+0x18f>:
    9b27:	e89456        	bnez	a4, 99b4 <tParseLOAS+0x1c>

00009b2a <tParseLOAS+0x192>:
    9b2a:	760682        	l8ui	a8, a6, 118
    9b2d:	5f0c           	movi.n	a15, 5
    9b2f:	93af80        	movnez	a10, a15, a8
    9b32:	ff9f86        	j	99b4 <tParseLOAS+0x1c>

00009b35 <tParseLOAS+0x19d>:
    9b35:	000000                                        ...

00009b38 <__mulsi3hifi2>:
    9b38:	002136        	entry	a1, 16
    9b3b:	822230        	mull	a2, a2, a3
    9b3e:	f01d           	retw.n

00009b40 <__muldi3>:
    9b40:	008136        	entry	a1, 64
    9b43:	826340        	mull	a6, a3, a4
    9b46:	027d           	mov.n	a7, a2
    9b48:	828520        	mull	a8, a5, a2
    9b4b:	822240        	mull	a2, a2, a4
    9b4e:	a23740        	muluh	a3, a7, a4
    9b51:	668a           	add.n	a6, a6, a8
    9b53:	336a           	add.n	a3, a3, a6
    9b55:	f01d           	retw.n

00009b57 <__muldi3+0x17>:
	...

00009b58 <__divdi3>:
    9b58:	00c136        	entry	a1, 96
    9b5b:	05ad           	mov.n	a10, a5
    9b5d:	039d           	mov.n	a9, a3
    9b5f:	047d           	mov.n	a7, a4
    9b61:	2149           	s32i.n	a4, a1, 8
    9b63:	02bd           	mov.n	a11, a2
    9b65:	3159           	s32i.n	a5, a1, 12
    9b67:	042d           	mov.n	a2, a4
    9b69:	3168           	l32i.n	a6, a1, 12
    9b6b:	0b4d           	mov.n	a4, a11
    9b6d:	0cf396        	bltz	a3, 9c40 <__divdi3+0xe8>
    9b70:	00a082        	movi	a8, 0

00009b73 <__divdi3+0x1b>:
    9b73:	0d2c           	movi.n	a13, 32
    9b75:	04cd           	mov.n	a12, a4
    9b77:	00f6d6        	bgez	a6, 9b8a <__divdi3+0x32>
    9b7a:	602070        	neg	a2, a7
    9b7d:	f57c           	movi.n	a5, -1
    9b7f:	308850        	xor	a8, a8, a5
    9b82:	305a50        	xor	a5, a10, a5
    9b85:	b51b           	addi.n	a11, a5, 1
    9b87:	835b70        	moveqz	a5, a11, a7

00009b8a <__divdi3+0x32>:
    9b8a:	02ad           	mov.n	a10, a2
    9b8c:	09bd           	mov.n	a11, a9
    9b8e:	0bf516        	beqz	a5, 9c51 <__divdi3+0xf9>
    9b91:	16b957        	bgeu	a9, a5, 9bab <__divdi3+0x53>
    9b94:	020c           	movi.n	a2, 0

00009b96 <__divdi3+0x3e>:
    9b96:	030c           	movi.n	a3, 0

00009b98 <__divdi3+0x40>:
    9b98:	1f1816        	beqz	a8, 9d8d <__divdi3+0x235>

00009b9b <__divdi3+0x43>:
    9b9b:	f87c           	movi.n	a8, -1
    9b9d:	303380        	xor	a3, a3, a8
    9ba0:	631b           	addi.n	a6, a3, 1
    9ba2:	833620        	moveqz	a3, a6, a2
    9ba5:	602020        	neg	a2, a2
    9ba8:	f01d           	retw.n

00009baa <__divdi3+0x52>:
	...

00009bab <__divdi3+0x53>:
    9bab:	40f530        	nsau	a3, a5
    9bae:	1de316        	beqz	a3, 9d90 <__divdi3+0x238>
    9bb1:	c07d30        	sub	a7, a13, a3
    9bb4:	400700        	ssr	a7
    9bb7:	916090        	srl	a6, a9
    9bba:	401300        	ssl	a3
    9bbd:	81d940        	src	a13, a9, a4
    9bc0:	81b520        	src	a11, a5, a2
    9bc3:	9bcd           	ae_zext16	a12, a11
    9bc5:	f5e0b0        	extui	a14, a11, 16, 16
    9bc8:	404010        	ssai	16
    9bcb:	c2f6e0        	quou	a15, a6, a14
    9bce:	0f9d           	mov.n	a9, a15
    9bd0:	82acf0        	mull	a10, a12, a15
    9bd3:	e266e0        	remu	a6, a6, a14
    9bd6:	8166d0        	src	a6, a6, a13
    9bd9:	065d           	mov.n	a5, a6
    9bdb:	0eb6a7        	bgeu	a6, a10, 9bed <__divdi3+0x95>
    9bde:	9f0b           	addi.n	a9, a15, -1
    9be0:	5b6a           	add.n	a5, a11, a6
    9be2:	0735b7        	bltu	a5, a11, 9bed <__divdi3+0x95>
    9be5:	04b5a7        	bgeu	a5, a10, 9bed <__divdi3+0x95>
    9be8:	5b5a           	add.n	a5, a11, a5
    9bea:	fecf92        	addi	a9, a15, -2
    9bed:	119900        	slli	a9, a9, 16
    9bf0:	401300        	ssl	a3
    9bf3:	c065a0        	sub	a6, a5, a10
    9bf6:	c2f6e0        	quou	a15, a6, a14
    9bf9:	0fad           	mov.n	a10, a15
    9bfb:	82ccf0        	mull	a12, a12, a15
    9bfe:	e266e0        	remu	a6, a6, a14
    9c01:	0bf6d0        	depbits	a13, a6, 16, 16
    9c04:	0d5d           	mov.n	a5, a13
    9c06:	0ebdc7        	bgeu	a13, a12, 9c18 <__divdi3+0xc0>
    9c09:	af0b           	addi.n	a10, a15, -1
    9c0b:	5bda           	add.n	a5, a11, a13
    9c0d:	0735b7        	bltu	a5, a11, 9c18 <__divdi3+0xc0>
    9c10:	04b5c7        	bgeu	a5, a12, 9c18 <__divdi3+0xc0>
    9c13:	5b5a           	add.n	a5, a11, a5
    9c15:	fecfa2        	addi	a10, a15, -2
    9c18:	209a90        	or	a9, a10, a9
    9c1b:	c055c0        	sub	a5, a5, a12
    9c1e:	a1a200        	sll	a10, a2
    9c21:	82b9a0        	mull	a11, a9, a10
    9c24:	a2a9a0        	muluh	a10, a9, a10
    9c27:	092d           	mov.n	a2, a9
    9c29:	0e35a7        	bltu	a5, a10, 9c3b <__divdi3+0xe3>
    9c2c:	c0c5a0        	sub	a12, a5, a10
    9c2f:	f63c56        	bnez	a12, 9b96 <__divdi3+0x3e>
    9c32:	a1d400        	sll	a13, a4
    9c35:	023db7        	bltu	a13, a11, 9c3b <__divdi3+0xe3>
    9c38:	ffd686        	j	9b96 <__divdi3+0x3e>

00009c3b <__divdi3+0xe3>:
    9c3b:	290b           	addi.n	a2, a9, -1
    9c3d:	ffd546        	j	9b96 <__divdi3+0x3e>

00009c40 <__divdi3+0xe8>:
    9c40:	6040b0        	neg	a4, a11
    9c43:	f87c           	movi.n	a8, -1
    9c45:	309380        	xor	a9, a3, a8
    9c48:	e91b           	addi.n	a14, a9, 1
    9c4a:	839eb0        	moveqz	a9, a14, a11
    9c4d:	ffc886        	j	9b73 <__divdi3+0x1b>

00009c50 <__divdi3+0xf8>:
	...

00009c51 <__divdi3+0xf9>:
    9c51:	69b927        	bgeu	a9, a2, 9cbe <__divdi3+0x166>
    9c54:	40f230        	nsau	a3, a2
    9c57:	a38c           	beqz.n	a3, 9c65 <__divdi3+0x10d>
    9c59:	401300        	ssl	a3
    9c5c:	a1a200        	sll	a10, a2
    9c5f:	81b940        	src	a11, a9, a4
    9c62:	a1c400        	sll	a12, a4

00009c65 <__divdi3+0x10d>:
    9c65:	404010        	ssai	16
    9c68:	9a2d           	ae_zext16	a2, a10
    9c6a:	f540a0        	extui	a4, a10, 16, 16
    9c6d:	c2db40        	quou	a13, a11, a4
    9c70:	0d9d           	mov.n	a9, a13
    9c72:	8252d0        	mull	a5, a2, a13
    9c75:	e2bb40        	remu	a11, a11, a4
    9c78:	81bbc0        	src	a11, a11, a12
    9c7b:	0b3d           	mov.n	a3, a11
    9c7d:	0fbb57        	bgeu	a11, a5, 9c90 <__divdi3+0x138>
    9c80:	9d0b           	addi.n	a9, a13, -1
    9c82:	3baa           	add.n	a3, a11, a10
    9c84:	0833a7        	bltu	a3, a10, 9c90 <__divdi3+0x138>
    9c87:	05b357        	bgeu	a3, a5, 9c90 <__divdi3+0x138>
    9c8a:	803a30        	add	a3, a10, a3
    9c8d:	fecd92        	addi	a9, a13, -2
    9c90:	c0d350        	sub	a13, a3, a5
    9c93:	c23d40        	quou	a3, a13, a4
    9c96:	e2dd40        	remu	a13, a13, a4
    9c99:	0bfdc0        	depbits	a12, a13, 16, 16
    9c9c:	824230        	mull	a4, a2, a3
    9c9f:	032d           	mov.n	a2, a3
    9ca1:	0cbc47        	bgeu	a12, a4, 9cb1 <__divdi3+0x159>
    9ca4:	230b           	addi.n	a2, a3, -1
    9ca6:	5caa           	add.n	a5, a12, a10
    9ca8:	0535a7        	bltu	a5, a10, 9cb1 <__divdi3+0x159>
    9cab:	02b547        	bgeu	a5, a4, 9cb1 <__divdi3+0x159>
    9cae:	fec322        	addi	a2, a3, -2
    9cb1:	030c           	movi.n	a3, 0
    9cb3:	11e900        	slli	a14, a9, 16
    9cb6:	2022e0        	or	a2, a2, a14
    9cb9:	ffb6c6        	j	9b98 <__divdi3+0x40>

00009cbc <__divdi3+0x164>:
	...

00009cbe <__divdi3+0x166>:
    9cbe:	130c           	movi.n	a3, 1
    9cc0:	c2f320        	quou	a15, a3, a2
    9cc3:	832f20        	moveqz	a2, a15, a2
    9cc6:	02ad           	mov.n	a10, a2
    9cc8:	40f250        	nsau	a5, a2
    9ccb:	0d1516        	beqz	a5, 9da0 <__divdi3+0x248>
    9cce:	c0fd50        	sub	a15, a13, a5
    9cd1:	401500        	ssl	a5
    9cd4:	a1a200        	sll	a10, a2
    9cd7:	9a2d           	ae_zext16	a2, a10
    9cd9:	400f00        	ssr	a15
    9cdc:	91e090        	srl	a14, a9
    9cdf:	401500        	ssl	a5
    9ce2:	81b940        	src	a11, a9, a4
    9ce5:	a1c400        	sll	a12, a4
    9ce8:	404010        	ssai	16
    9ceb:	f540a0        	extui	a4, a10, 16, 16
    9cee:	c2de40        	quou	a13, a14, a4
    9cf1:	0d9d           	mov.n	a9, a13
    9cf3:	8252d0        	mull	a5, a2, a13
    9cf6:	e2ee40        	remu	a14, a14, a4
    9cf9:	81eeb0        	src	a14, a14, a11
    9cfc:	0e3d           	mov.n	a3, a14
    9cfe:	0ebe57        	bgeu	a14, a5, 9d10 <__divdi3+0x1b8>
    9d01:	9d0b           	addi.n	a9, a13, -1
    9d03:	3eaa           	add.n	a3, a14, a10
    9d05:	0733a7        	bltu	a3, a10, 9d10 <__divdi3+0x1b8>
    9d08:	04b357        	bgeu	a3, a5, 9d10 <__divdi3+0x1b8>
    9d0b:	3a3a           	add.n	a3, a10, a3
    9d0d:	fecd92        	addi	a9, a13, -2
    9d10:	c0e350        	sub	a14, a3, a5
    9d13:	e2fe40        	remu	a15, a14, a4
    9d16:	0bffb0        	depbits	a11, a15, 16, 16
    9d19:	c2ee40        	quou	a14, a14, a4
    9d1c:	0e5d           	mov.n	a5, a14
    9d1e:	82d2e0        	mull	a13, a2, a14
    9d21:	0b3d           	mov.n	a3, a11
    9d23:	0ebbd7        	bgeu	a11, a13, 9d35 <__divdi3+0x1dd>
    9d26:	5e0b           	addi.n	a5, a14, -1
    9d28:	3baa           	add.n	a3, a11, a10
    9d2a:	0733a7        	bltu	a3, a10, 9d35 <__divdi3+0x1dd>
    9d2d:	04b3d7        	bgeu	a3, a13, 9d35 <__divdi3+0x1dd>
    9d30:	3a3a           	add.n	a3, a10, a3
    9d32:	fece52        	addi	a5, a14, -2
    9d35:	c0b3d0        	sub	a11, a3, a13
    9d38:	113900        	slli	a3, a9, 16
    9d3b:	203530        	or	a3, a5, a3

00009d3e <__divdi3+0x1e6>:
    9d3e:	404010        	ssai	16
    9d41:	e2eb40        	remu	a14, a11, a4
    9d44:	c2db40        	quou	a13, a11, a4
    9d47:	8252d0        	mull	a5, a2, a13
    9d4a:	0dbd           	mov.n	a11, a13
    9d4c:	81eec0        	src	a14, a14, a12
    9d4f:	0e9d           	mov.n	a9, a14
    9d51:	0ebe57        	bgeu	a14, a5, 9d63 <__divdi3+0x20b>
    9d54:	bd0b           	addi.n	a11, a13, -1
    9d56:	9eaa           	add.n	a9, a14, a10
    9d58:	0739a7        	bltu	a9, a10, 9d63 <__divdi3+0x20b>
    9d5b:	04b957        	bgeu	a9, a5, 9d63 <__divdi3+0x20b>
    9d5e:	9a9a           	add.n	a9, a10, a9
    9d60:	fecdb2        	addi	a11, a13, -2
    9d63:	c0f950        	sub	a15, a9, a5
    9d66:	c25f40        	quou	a5, a15, a4
    9d69:	e2ff40        	remu	a15, a15, a4
    9d6c:	0bffc0        	depbits	a12, a15, 16, 16
    9d6f:	824250        	mull	a4, a2, a5
    9d72:	052d           	mov.n	a2, a5
    9d74:	0cbc47        	bgeu	a12, a4, 9d84 <__divdi3+0x22c>
    9d77:	250b           	addi.n	a2, a5, -1
    9d79:	9caa           	add.n	a9, a12, a10
    9d7b:	0539a7        	bltu	a9, a10, 9d84 <__divdi3+0x22c>
    9d7e:	02b947        	bgeu	a9, a4, 9d84 <__divdi3+0x22c>
    9d81:	fec522        	addi	a2, a5, -2
    9d84:	116b00        	slli	a6, a11, 16
    9d87:	202260        	or	a2, a2, a6
    9d8a:	e0d856        	bnez	a8, 9b9b <__divdi3+0x43>

00009d8d <__divdi3+0x235>:
    9d8d:	f01d           	retw.n

00009d8f <__divdi3+0x237>:
	...

00009d90 <__divdi3+0x238>:
    9d90:	023597        	bltu	a5, a9, 9d96 <__divdi3+0x23e>
    9d93:	043427        	bltu	a4, a2, 9d9b <__divdi3+0x243>

00009d96 <__divdi3+0x23e>:
    9d96:	120c           	movi.n	a2, 1
    9d98:	ff7e86        	j	9b96 <__divdi3+0x3e>

00009d9b <__divdi3+0x243>:
    9d9b:	020c           	movi.n	a2, 0
    9d9d:	ff7d46        	j	9b96 <__divdi3+0x3e>

00009da0 <__divdi3+0x248>:
    9da0:	c0b920        	sub	a11, a9, a2
    9da3:	f54020        	extui	a4, a2, 16, 16
    9da6:	922d           	ae_zext16	a2, a2
    9da8:	ffe486        	j	9d3e <__divdi3+0x1e6>

00009dab <__divdi3+0x253>:
    9dab:	00000000 00613600                                .....

00009db0 <__vec_memset>:
    9db0:	006136        	entry	a1, 48
    9db3:	02ad           	mov.n	a10, a2
    9db5:	038d           	mov.n	a8, a3
    9db7:	207220        	or	a7, a2, a2
    9dba:	078316        	beqz	a3, 9e36 <__vec_memset+0x86>
    9dbd:	849c           	beqz.n	a4, 9dd9 <__vec_memset+0x29>
    9dbf:	03a052        	movi	a5, 3
    9dc2:	130527        	bnone	a5, a2, 9dd9 <__vec_memset+0x29>
    9dc5:	0d8076        	loop	a0, 9dd6 <__vec_memset+0x26>
    9dc8:	004782        	s8i	a8, a7, 0
    9dcb:	440b           	addi.n	a4, a4, -1
    9dcd:	771b           	addi.n	a7, a7, 1
    9dcf:	648c           	beqz.n	a4, 9dd9 <__vec_memset+0x29>
    9dd1:	149070        	extui	a9, a7, 0, 2
    9dd4:	198c           	beqz.n	a9, 9dd9 <__vec_memset+0x29>

00009dd6 <__vec_memset+0x26>:
    9dd6:	fffac6        	j	9dc5 <__vec_memset+0x15>

00009dd9 <__vec_memset+0x29>:
    9dd9:	419240        	srli	a9, a4, 2
    9ddc:	74b080        	extui	a11, a8, 0, 8
    9ddf:	11cb00        	slli	a12, a11, 16
    9de2:	8b78c0        	depbits	a12, a8, 24, 8
    9de5:	8a78b0        	depbits	a11, a8, 8, 8
    9de8:	20bbc0        	or	a11, a11, a12
    9deb:	01b9           	s32i.n	a11, a1, 0
    9ded:	0af916        	beqz	a9, 9ea0 <__vec_memset+0xf0>
    9df0:	fcc722        	addi	a2, a7, -4
    9df3:	600104        	ae_lq32f.i	aeq0, a1, 0
    9df6:	029976        	loopnez	a9, 9dfc <__vec_memset+0x4c>
    9df9:	624214        	ae_sq32f.iu	aeq0, a2, 4

00009dfc <__vec_memset+0x4c>:
    9dfc:	1199e0        	slli	a9, a9, 2
    9dff:	2fb947        	bgeu	a9, a4, 9e32 <__vec_memset+0x82>
    9e02:	297a           	add.n	a2, a9, a7
    9e04:	c03490        	sub	a3, a4, a9
    9e07:	24d030        	extui	a13, a3, 0, 3
    9e0a:	049d76        	loopnez	a13, 9e12 <__vec_memset+0x62>
    9e0d:	004282        	s8i	a8, a2, 0
    9e10:	221b           	addi.n	a2, a2, 1

00009e12 <__vec_memset+0x62>:
    9e12:	414330        	srli	a4, a3, 3
    9e15:	199476        	loopnez	a4, 9e32 <__vec_memset+0x82>
    9e18:	004282        	s8i	a8, a2, 0
    9e1b:	014282        	s8i	a8, a2, 1
    9e1e:	024282        	s8i	a8, a2, 2
    9e21:	034282        	s8i	a8, a2, 3
    9e24:	044282        	s8i	a8, a2, 4
    9e27:	054282        	s8i	a8, a2, 5
    9e2a:	064282        	s8i	a8, a2, 6
    9e2d:	074282        	s8i	a8, a2, 7
    9e30:	228b           	addi.n	a2, a2, 8

00009e32 <__vec_memset+0x82>:
    9e32:	0a2d           	mov.n	a2, a10
    9e34:	f01d           	retw.n

00009e36 <__vec_memset+0x86>:
    9e36:	080c           	movi.n	a8, 0
    9e38:	649c           	beqz.n	a4, 9e52 <__vec_memset+0xa2>
    9e3a:	07a0e2        	movi	a14, 7
    9e3d:	110e27        	bnone	a14, a2, 9e52 <__vec_memset+0xa2>

00009e40 <__vec_memset+0x90>:
    9e40:	004782        	s8i	a8, a7, 0
    9e43:	ffc442        	addi	a4, a4, -1
    9e46:	01c772        	addi	a7, a7, 1
    9e49:	005416        	beqz	a4, 9e52 <__vec_memset+0xa2>
    9e4c:	24f070        	extui	a15, a7, 0, 3
    9e4f:	fedf56        	bnez	a15, 9e40 <__vec_memset+0x90>
    9e52:	419340        	srli	a9, a4, 3
    9e55:	04c916        	beqz	a9, 9ea5 <__vec_memset+0xf5>
    9e58:	fc208f872e 	{ addi	a2, a7, -8; ae_zerop48	aep0 }
    9e5d:	029976        	loopnez	a9, 9e63 <__vec_memset+0xb3>
    9e60:	568214        	ae_sp24x2s.iu	aep0, a2, 8

00009e63 <__vec_memset+0xb3>:
    9e63:	1199d0        	slli	a9, a9, 3
    9e66:	c8b947        	bgeu	a9, a4, 9e32 <__vec_memset+0x82>
    9e69:	297a           	add.n	a2, a9, a7
    9e6b:	c03490        	sub	a3, a4, a9
    9e6e:	245030        	extui	a5, a3, 0, 3
    9e71:	049576        	loopnez	a5, 9e79 <__vec_memset+0xc9>
    9e74:	004282        	s8i	a8, a2, 0
    9e77:	221b           	addi.n	a2, a2, 1

00009e79 <__vec_memset+0xc9>:
    9e79:	414330        	srli	a4, a3, 3
    9e7c:	083d           	mov.n	a3, a8
    9e7e:	199476        	loopnez	a4, 9e9b <__vec_memset+0xeb>
    9e81:	004232        	s8i	a3, a2, 0
    9e84:	014232        	s8i	a3, a2, 1
    9e87:	024232        	s8i	a3, a2, 2
    9e8a:	034232        	s8i	a3, a2, 3
    9e8d:	044232        	s8i	a3, a2, 4
    9e90:	054232        	s8i	a3, a2, 5
    9e93:	064232        	s8i	a3, a2, 6
    9e96:	074232        	s8i	a3, a2, 7
    9e99:	228b           	addi.n	a2, a2, 8
    9e9b:	0a2d           	mov.n	a2, a10
    9e9d:	f01d           	retw.n

00009e9f <__vec_memset+0xef>:
	...

00009ea0 <__vec_memset+0xf0>:
    9ea0:	090c           	movi.n	a9, 0
    9ea2:	ffd586        	j	9dfc <__vec_memset+0x4c>

00009ea5 <__vec_memset+0xf5>:
    9ea5:	090c           	movi.n	a9, 0
    9ea7:	ffee06        	j	9e63 <__vec_memset+0xb3>

00009eaa <__vec_memset+0xfa>:
	...

00009eac <_fini>:
    9eac:	008136        	entry	a1, 64

00009eaf <_fini+0x3>:
    9eaf:	f01d           	retw.n
