
Build/lib/pisplit_xa_aac_dec_position_independent.splitload.lib:     file format elf32-xtensa-le


Disassembly of section .text:

00000000 <_init-0x40c>:
       0:	00010bb0 00010bb4 0000ab40 000109c0     ........@.......
      10:	00009b38 00001260 000021b8 000109e0     8...`....!......
      20:	000009d4 00010b70 0000720c 000008e0     ....p....r......
      30:	000109e4 00000b14 00003ab8 00000778     .........:..x...
      40:	00000e70 00000da4 00000c84 00000e20     p........... ...
      50:	00003898 00000b78 00000dd8 00000618     .8..x...........
      60:	000109f0 000d7450 000b504f 0009837f     ....Pt..OP......
      70:	00080000 0000160c 00001590 00001548     ............H...
      80:	000077d0 00003a7f 007fffff 00800000     .w...:..........
      90:	ff800000 00400000 00004000 000074dc     ......@..@...t..
      a0:	00000ab0 00000450 00003ce8 000109e8     ....P....<......
      b0:	00002728 000029b8 000029f4 0000dc80     ('...)...)......
      c0:	00002898 0000ab70 0000ab74 000109d4     .(..p...t.......
      d0:	000109d0 000109d8 000109dc 00006f60     ............`o..
      e0:	00006f38 00005e20 00000418 00005900     8o.. ^.......Y..
      f0:	00005a34 00001000 00009db0 00000eac     4Z..............
     100:	000017b8 000015b0 00002b44 00002a78     ........D+..x*..
     110:	00005810 00005bc4 000057f4 00005890     .X...[...W...X..
     120:	00004304 00005b54 00004184 00005710     .C..T[...A...W..
     130:	000041b4 000015e4 000040b8 00006fb8     .A.......@...o..
     140:	00005870 00003ff0 00000830 00001010     pX...?..0.......
     150:	00003f4c 00001568 00004010 00001fa8     L?..h....@......
     160:	00001de0 000011b4 000008c0 00001c24     ............$...
     170:	00004498 000055f8 00004348 00004420     .D...U..HC.. D..
     180:	00001d78 000043a8 00005340 0000544c     x....C..@S..LT..
     190:	00005ed8 000025a4 00004c68 00004af4     .^...%..hL...J..
     1a0:	00004ba4 00004590 0000ebc0 00010b30     .K...E......0...
     1b0:	7fffffff 00005f8c 000109ec 0000dc40     ....._......@...
     1c0:	0000ec20 00005560 000056f4 000056b8      ...`U...V...V..
     1d0:	00007104 0000ec30 00005e30 00006ae4     .q..0...0^...j..
     1e0:	00006854 00006ac0 00006a98 0000680c     Th...j...j...h..
     1f0:	000067d0 00000fff 0000f060 000067b0     .g......`....g..
     200:	000067a0 0000ffff 000066c8 80000000     .g.......f......
     210:	0000ee30 000071e8 00006fec 00008005     0....q...o......
     220:	0000f030 000067bc 00006ad8 00005fd8     0....g...j..._..
     230:	000061c4 00009998 000008c2 000010cd     .a..............
     240:	0000f110 00006d20 0000f070 ffff8002     .... m..p.......
     250:	ffff80c4 00007118 00010340 000103c0     .....q..@.......
     260:	00010b68 000035c0 000035a0 00002bb4     h....5...5...+..
     270:	00002b58 000035e8 00003814 0000365c     X+...5...8..\6..
     280:	ffff8000 ffff90c5 000010cb 00008804     ................
     290:	000010cc 000010ca 000107c0 000108b0     ................
     2a0:	00006b0c ffff90c8 ffff90c3 000010c0     .k..............
     2b0:	00007fdc 000088d8 00010800 000010c2     ................
     2c0:	0000985c ffff90c1 00008adc 00002abc     \............*..
     2d0:	00008ab8 000087e8 000010c9 000010c1     ................
     2e0:	ffff88c7 000087c4 0000876c 00008848     ........l...H...
     2f0:	00002b28 000088a0 ffff8003 000008c0     (+..............
     300:	00002b50 000035b0 000008c3 000008c4     P+...5..........
     310:	000008c1 ffff88c3 0000846c ffff88c8     ........l.......
     320:	ffff88c4 ffff88c5 ffff88c9 000008c7     ................
     330:	ffff88cc 00007cff 00007d00 0000f9ff     .....|...}......
     340:	0000fa00 000176ff 00017700 00003e7f     .....v...w...>..
     350:	00003e80 00005dbf 00005dc0 00001f40     .>...]...]..@...
     360:	ffff88c2 00002b10 00002b11 00002ee0     .....+...+......
     370:	0000bb7f 0000bb80 0000ac44 00005622     ........D..."V..
     380:	00015888 ffff8001 00002020 00009b40     .X......  ..@...
     390:	00009b58 00010900 00002b18 000108e0     X........+......
     3a0:	00008c7c 00008d40 000079e4 00008d14     |...@....y......
     3b0:	000079c0 00002a00 0000789c 00010940     .y...*...x..@...
     3c0:	00008d48 00010ba8 00010b80 000084fc     H...............
     3d0:	00008078 000082fc 00010ba0 00008054     x...........T...
     3e0:	000086d8 00007a30 000085d8 00006d20     ....0z...... m..
     3f0:	00008d48 00006c4c 00009498 00002000     H...Ll....... ..
     400:	00006ab4 00008f14 000093f4              .j..........

0000040c <_init>:
     40c:	008136        	entry	a1, 64
     40f:	f01d           	retw.n

00000411 <_init+0x5>:
     411:	00000000 36000000                                .......

00000418 <memcpy>:
     418:	004136        	entry	a1, 32
     41b:	fef981        	l32r	a8, 0 (10bb0 <memcpy_ptr>)
     41e:	04cd           	mov.n	a12, a4
     420:	0888           	l32i.n	a8, a8, 0
     422:	03bd           	mov.n	a11, a3
     424:	02ad           	mov.n	a10, a2
     426:	0008e0        	callx8	a8
     429:	f01d           	retw.n

0000042b <memcpy+0x13>:
	...

0000042c <_start>:
     42c:	004136        	entry	a1, 32
     42f:	0288           	l32i.n	a8, a2, 0
     431:	fef4a1        	l32r	a10, 4 (10bb4 <printf_ptr>)
     434:	fef391        	l32r	a9, 0 (10bb0 <memcpy_ptr>)
     437:	08bd           	mov.n	a11, a8
     439:	0a89           	s32i.n	a8, a10, 0
     43b:	fef3a1        	l32r	a10, 8 (ab40 <_DYNAMIC+0xc84>)
     43e:	12c8           	l32i.n	a12, a2, 4
     440:	09c9           	s32i.n	a12, a9, 0
     442:	0008e0        	callx8	a8
     445:	fef121        	l32r	a2, c (109c0 <export_parameter_array>)
     448:	f01d           	retw.n

0000044a <_start+0x1e>:
     44a:	00000000 a1360000                                ......

00000450 <_Z4Lap2P5fractS0_S0_PKjii>:
     450:	00a136        	entry	a1, 80
     453:	7129           	s32i.n	a2, a1, 28
     455:	8139           	s32i.n	a3, a1, 32
     457:	0216e6        	bgei	a6, 1, 45d <_Z4Lap2P5fractS0_S0_PKjii+0xd>
     45a:	006dc6        	j	615 <_Z4Lap2P5fractS0_S0_PKjii+0x1c5>
     45d:	f8c582        	addi	a8, a5, -8
     460:	a0d740        	addx4	a13, a7, a4
     463:	11b6f0        	slli	a11, a6, 1
     466:	1196e0        	slli	a9, a6, 2
     469:	03ad           	mov.n	a10, a3
     46b:	f61b           	addi.n	a15, a6, 1
     46d:	01f9           	s32i.n	a15, a1, 0
     46f:	a0a6a0        	addx4	a10, a6, a10
     472:	1137f0        	slli	a3, a7, 1
     475:	21e1f0        	srai	a14, a15, 1
     478:	1199           	s32i.n	a9, a1, 4
     47a:	11cbe0        	slli	a12, a11, 2
     47d:	a09620        	addx4	a9, a6, a2
     480:	a0bb50        	addx4	a11, a11, a5
     483:	21c9           	s32i.n	a12, a1, 8
     485:	31e9           	s32i.n	a14, a1, 12
     487:	1133e0        	slli	a3, a3, 2
     48a:	c0dd30        	sub	a13, a13, a3
     48d:	21e1e0        	srai	a14, a14, 1
     490:	c0c430        	sub	a12, a4, a3
     493:	226f17        	bbci	a15, 1, 4b9 <_Z4Lap2P5fractS0_S0_PKjii+0x69>
     496:	54d814        	ae_lp24x2.iu	aep5, a8, 8
     499:	544904        	ae_lp24x2.i	aep4, a9, 0
     49c:	eab1b0baff 	{ ae_lp24x2.iu	aep3, a10, -8; ae_mulfp24s.ll	aeq0, aep4, aep5 }
     4a1:	e8b0f0abff 	{ ae_lp24x2.iu	aep2, a11, -8; ae_mulfp24s.hh	aeq1, aep4, aep5 }
     4a6:	012bb4        	ae_mulsfp24s.ll	aeq1, aep2, aep3
     4a9:	012384        	ae_mulsfp24s.hh	aeq0, aep2, aep3
     4ac:	f8efc0899e 	{ addi	a9, a9, 8; ae_roundsp24q48sym	aep1, aeq1 }
     4b1:	f8e7a81c3f 	{ ae_sp24s.l.xu	aep1, a12, a3; ae_roundsp24q48sym	aep0, aeq0 }
     4b6:	4f8d34        	ae_sp24s.l.xu	aep0, a13, a3

000004b9 <_Z4Lap2P5fractS0_S0_PKjii+0x69>:
     4b9:	085e16        	beqz	a14, 542 <_Z4Lap2P5fractS0_S0_PKjii+0xf2>
     4bc:	543814        	ae_lp24x2.i	aep3, a8, 8
     4bf:	546914        	ae_lp24x2.i	aep6, a9, 8
     4c2:	54f824        	ae_lp24x2.iu	aep7, a8, 16
     4c5:	ebf9b0290f 	{ ae_lp24x2.i	aep2, a9, 0; ae_mulfp24s.ll	aeq2, aep6, aep7 }
     4ca:	ea69b01aff 	{ ae_lp24x2.i	aep1, a10, -8; ae_mulfp24s.ll	aeq0, aep2, aep3 }
     4cf:	e868f00bff 	{ ae_lp24x2.i	aep0, a11, -8; ae_mulfp24s.hh	aeq1, aep2, aep3 }
     4d4:	ee21cffefe 	{ addi	a15, a14, -1; ae_mulsfp24s.ll	aeq1, aep0, aep1 }
     4d9:	ec20b08aef 	{ ae_lp24x2.iu	aep0, a10, -16; ae_mulsfp24s.hh	aeq0, aep0, aep1 }
     4de:	e9f8f09bef 	{ ae_lp24x2.iu	aep1, a11, -16; ae_mulfp24s.hh	aeq3, aep6, aep7 }
     4e3:	ef05c1099e 	{ addi	a9, a9, 16; ae_mulsfp24s.ll	aeq3, aep1, aep0 }
     4e8:	3eaf76        	loopgtz	a15, 52a <_Z4Lap2P5fractS0_S0_PKjii+0xda>
     4eb:	f9eff02aff 	{ ae_lp24x2.i	aep2, a10, -8; ae_roundsp24q48sym	aep3, aeq1 }
     4f0:	ed04b0190f 	{ ae_lp24x2.i	aep1, a9, 0; ae_mulsfp24s.hh	aeq2, aep1, aep0 }
     4f5:	fae7b0081f 	{ ae_lp24x2.i	aep0, a8, 8; ae_roundsp24q48sym	aep4, aeq0 }
     4fa:	f9ffe83c3f 	{ ae_sp24s.l.xu	aep3, a12, a3; ae_roundsp24q48sym	aep3, aeq3 }
     4ff:	e804f0591f 	{ ae_lp24x2.i	aep5, a9, 8; ae_mulfp24s.hh	aeq1, aep1, aep0 }
     504:	faf7a84d3f 	{ ae_sp24s.l.xu	aep4, a13, a3; ae_roundsp24q48sym	aep4, aeq2 }
     509:	ea05b0982f 	{ ae_lp24x2.iu	aep1, a8, 16; ae_mulfp24s.ll	aeq0, aep1, aep0 }
     50e:	eb35a83c3f 	{ ae_sp24s.l.xu	aep3, a12, a3; ae_mulfp24s.ll	aeq2, aep5, aep1 }
     513:	e934f03bff 	{ ae_lp24x2.i	aep3, a11, -8; ae_mulfp24s.hh	aeq3, aep5, aep1 }
     518:	4fcd34        	ae_sp24s.l.xu	aep4, a13, a3
     51b:	ec4cb09bef 	{ ae_lp24x2.iu	aep1, a11, -16; ae_mulsfp24s.hh	aeq0, aep3, aep2 }
     520:	ee4df08aef 	{ ae_lp24x2.iu	aep0, a10, -16; ae_mulsfp24s.ll	aeq1, aep3, aep2 }
     525:	ef05c1099e 	{ addi	a9, a9, 16; ae_mulsfp24s.ll	aeq3, aep1, aep0 }

0000052a <_Z4Lap2P5fractS0_S0_PKjii+0xda>:
     52a:	019084        	ae_mulsfp24s.hh	aeq2, aep1, aep0
     52d:	1b9c74        	ae_roundsp24q48sym	aep7, aeq1
     530:	fbe7a87c3f 	{ ae_sp24s.l.xu	aep7, a12, a3; ae_roundsp24q48sym	aep6, aeq0 }
     535:	faffe86d3f 	{ ae_sp24s.l.xu	aep6, a13, a3; ae_roundsp24q48sym	aep5, aeq3 }
     53a:	faf7a85c3f 	{ ae_sp24s.l.xu	aep5, a12, a3; ae_roundsp24q48sym	aep4, aeq2 }
     53f:	4fcd34        	ae_sp24s.l.xu	aep4, a13, a3

00000542 <_Z4Lap2P5fractS0_S0_PKjii+0xf2>:
     542:	07bd           	mov.n	a11, a7
     544:	81a8           	l32i.n	a10, a1, 32
     546:	1198           	l32i.n	a9, a1, 4
     548:	feb281        	l32r	a8, 10 (9b38 <__mulsi3hifi2>)
     54b:	f8caa2        	addi	a10, a10, -8
     54e:	995a           	add.n	a9, a9, a5
     550:	6199           	s32i.n	a9, a1, 24
     552:	51a9           	s32i.n	a10, a1, 20
     554:	046192        	s32i	a9, a1, 16
     557:	20a660        	or	a10, a6, a6
     55a:	0008e0        	callx8	a8
     55d:	7168           	l32i.n	a6, a1, 28
     55f:	2158           	l32i.n	a5, a1, 8
     561:	01b8           	l32i.n	a11, a1, 0
     563:	feab81        	l32r	a8, 10 (9b38 <__mulsi3hifi2>)
     566:	556a           	add.n	a5, a5, a6
     568:	a06a40        	addx4	a6, a10, a4
     56b:	07ad           	mov.n	a10, a7
     56d:	0008e0        	callx8	a8
     570:	c06630        	sub	a6, a6, a3
     573:	a0da40        	addx4	a13, a10, a4
     576:	54d5f4        	ae_lp24x2.iu	aep5, a5, -8
     579:	41f8           	l32i.n	a15, a1, 16
     57b:	5198           	l32i.n	a9, a1, 20
     57d:	6188           	l32i.n	a8, a1, 24
     57f:	546f04        	ae_lp24x2.i	aep6, a15, 0
     582:	e9d5b0c91f 	{ ae_lp24x2.iu	aep4, a9, 8; ae_mulfp24s.lh	aeq2, aep5, aep6 }
     587:	ebd4f0b8ff 	{ ae_lp24x2.iu	aep3, a8, -8; ae_mulfp24s.hl	aeq3, aep5, aep6 }
     58c:	e38f55dd3f 	{ sub	a13, a13, a3; ae_mulafp24s.hl	aeq3, aep3, aep4 }
     591:	e38e808ffe 	{ addi	a15, a15, 8; ae_mulafp24s.lh	aeq2, aep3, aep4 }
     596:	f8ffd4618f 	{ s32i.n	a8, a1, 24; ae_roundsp24q48sym	aep1, aeq3 }
     59b:	f9f7b0318e 	{ l32i	a8, a1, 12; ae_roundsp24q48sym	aep2, aeq2 }
     5a0:	fc581441ff 	{ s32i.n	a15, a1, 16; ae_negsp24s	aep0, aep2 }
     5a5:	fe3828063f 	{ ae_sp24s.l.xu	aep0, a6, a3; ae_negsp24s	aep4, aep1 }
     5aa:	6228a6        	blti	a8, 2, 610 <_Z4Lap2P5fractS0_S0_PKjii+0x1c0>
     5ad:	5495f4        	ae_lp24x2.iu	aep1, a5, -8
     5b0:	61b8           	l32i.n	a11, a1, 24
     5b2:	41a8           	l32i.n	a10, a1, 16
     5b4:	fec8f2        	addi	a15, a8, -2
     5b7:	54bbf4        	ae_lp24x2.iu	aep3, a11, -8
     5ba:	540a04        	ae_lp24x2.i	aep0, a10, 0
     5bd:	8a8b           	addi.n	a8, a10, 8
     5bf:	09ad           	mov.n	a10, a9
     5c1:	e805b0aa1f 	{ ae_lp24x2.iu	aep2, a10, 8; ae_mulfp24s.lh	aeq0, aep1, aep0 }
     5c6:	25af76        	loopgtz	a15, 5ef <_Z4Lap2P5fractS0_S0_PKjii+0x19f>
     5c9:	e24e80888e 	{ addi	a8, a8, 8; ae_mulafp24s.lh	aeq0, aep3, aep2 }
     5ce:	ea04e84d3f 	{ ae_sp24s.l.xu	aep4, a13, a3; ae_mulfp24s.hl	aeq1, aep1, aep0 }
     5d3:	e24f7095ff 	{ ae_lp24x2.iu	aep1, a5, -8; ae_mulafp24s.hl	aeq1, aep3, aep2 }
     5d8:	f9e7f008ff 	{ ae_lp24x2.i	aep0, a8, -8; ae_roundsp24q48sym	aep3, aeq0 }
     5dd:	fe7830bbff 	{ ae_lp24x2.iu	aep3, a11, -8; ae_negsp24s	aep4, aep3 }
     5e2:	faefa8463f 	{ ae_sp24s.l.xu	aep4, a6, a3; ae_roundsp24q48sym	aep4, aeq1 }
     5e7:	e805b0aa1f 	{ ae_lp24x2.iu	aep2, a10, 8; ae_mulfp24s.lh	aeq0, aep1, aep0 }
     5ec:	078c44        	ae_negsp24s	aep4, aep4

000005ef <_Z4Lap2P5fractS0_S0_PKjii+0x19f>:
     5ef:	011854        	ae_mulfp24s.hl	aeq1, aep1, aep0
     5f2:	013a14        	ae_mulafp24s.hl	aeq1, aep3, aep2
     5f5:	013224        	ae_mulafp24s.lh	aeq0, aep3, aep2
     5f8:	1b9c74        	ae_roundsp24q48sym	aep7, aeq1
     5fb:	f8e7e84d3f 	{ ae_sp24s.l.xu	aep4, a13, a3; ae_roundsp24q48sym	aep1, aeq0 }
     600:	fc3813c66f 	{ or	a12, a6, a6; ae_negsp24s	aep0, aep1 }
     605:	fef8280c3f 	{ ae_sp24s.l.xu	aep0, a12, a3; ae_negsp24s	aep4, aep7 }
     60a:	4fcd34        	ae_sp24s.l.xu	aep4, a13, a3
     60d:	f01d           	retw.n

0000060f <_Z4Lap2P5fractS0_S0_PKjii+0x1bf>:
	...

00000610 <_Z4Lap2P5fractS0_S0_PKjii+0x1c0>:
     610:	4fcd34        	ae_sp24s.l.xu	aep4, a13, a3
     613:	f01d           	retw.n

00000615 <_Z4Lap2P5fractS0_S0_PKjii+0x1c5>:
     615:	f01d           	retw.n

00000617 <_Z4Lap2P5fractS0_S0_PKjii+0x1c7>:
	...

00000618 <_Z4Lap1P5fractS0_S0_PKjii>:
     618:	00a136        	entry	a1, 80
     61b:	7129           	s32i.n	a2, a1, 28
     61d:	0216e6        	bgei	a6, 1, 623 <_Z4Lap1P5fractS0_S0_PKjii+0xb>
     620:	005406        	j	774 <_Z4Lap1P5fractS0_S0_PKjii+0x15c>
     623:	a0a630        	addx4	a10, a6, a3
     626:	f61b           	addi.n	a15, a6, 1
     628:	11d6e0        	slli	a13, a6, 2
     62b:	11b6f0        	slli	a11, a6, 1
     62e:	a09620        	addx4	a9, a6, a2
     631:	f8c582        	addi	a8, a5, -8
     634:	11e7f0        	slli	a14, a7, 1
     637:	11eee0        	slli	a14, a14, 2
     63a:	54e814        	ae_lp24x2.iu	aep6, a8, 8
     63d:	545904        	ae_lp24x2.i	aep5, a9, 0
     640:	11cbe0        	slli	a12, a11, 2
     643:	11d9           	s32i.n	a13, a1, 4
     645:	01f9           	s32i.n	a15, a1, 0
     647:	a0d740        	addx4	a13, a7, a4
     64a:	21f1f0        	srai	a15, a15, 1
     64d:	a0bb50        	addx4	a11, a11, a5
     650:	e8d4f0caff 	{ ae_lp24x2.iu	aep4, a10, -8; ae_mulfp24s.hh	aeq1, aep5, aep6 }
     655:	ead5b0bbff 	{ ae_lp24x2.iu	aep3, a11, -8; ae_mulfp24s.ll	aeq0, aep5, aep6 }
     65a:	013484        	ae_mulsfp24s.hh	aeq0, aep3, aep4
     65d:	ee8dd421cf 	{ s32i.n	a12, a1, 8; ae_mulsfp24s.ll	aeq1, aep3, aep4 }
     662:	f8e79431ff 	{ s32i.n	a15, a1, 12; ae_roundsp24q48sym	aep0, aeq0 }
     667:	f9ef95ddef 	{ sub	a13, a13, a14; ae_roundsp24q48sym	aep2, aeq1 }
     66c:	c80ad5c4ef 	{ sub	a12, a4, a14; ae_sllisp24s	aep1, aep2, 1 }
     671:	ca02a69cef 	{ ae_sp24f.l.xu	aep1, a12, a14; ae_sllisp24s	aep4, aep0, 1 }
     676:	552fa6        	blti	a15, 2, 6cf <_Z4Lap1P5fractS0_S0_PKjii+0xb7>
     679:	54aaf4        	ae_lp24x2.iu	aep2, a10, -8
     67c:	54bbf4        	ae_lp24x2.iu	aep3, a11, -8
     67f:	fecff2        	addi	a15, a15, -2
     682:	548814        	ae_lp24x2.iu	aep0, a8, 8
     685:	541914        	ae_lp24x2.i	aep1, a9, 8
     688:	e80481099e 	{ addi	a9, a9, 16; ae_mulfp24s.hh	aeq0, aep1, aep0 }
     68d:	25af76        	loopgtz	a15, 6b6 <_Z4Lap1P5fractS0_S0_PKjii+0x9e>
     690:	ee4d80899e 	{ addi	a9, a9, 8; ae_mulsfp24s.ll	aeq0, aep3, aep2 }
     695:	ea05e6cdef 	{ ae_sp24f.l.xu	aep4, a13, a14; ae_mulfp24s.ll	aeq1, aep1, aep0 }
     69a:	ec4cf019ff 	{ ae_lp24x2.i	aep1, a9, -8; ae_mulsfp24s.hh	aeq1, aep3, aep2 }
     69f:	f9e7f0881f 	{ ae_lp24x2.iu	aep0, a8, 8; ae_roundsp24q48sym	aep3, aeq0 }
     6a4:	ca0eb0bbff 	{ ae_lp24x2.iu	aep3, a11, -8; ae_sllisp24s	aep4, aep3, 1 }
     6a9:	faefa6ccef 	{ ae_sp24f.l.xu	aep4, a12, a14; ae_roundsp24q48sym	aep4, aeq1 }
     6ae:	e804b0aaff 	{ ae_lp24x2.iu	aep2, a10, -8; ae_mulfp24s.hh	aeq0, aep1, aep0 }
     6b3:	0bc0c4        	ae_sllisp24s	aep4, aep4, 1

000006b6 <_Z4Lap1P5fractS0_S0_PKjii+0x9e>:
     6b6:	019074        	ae_mulfp24s.ll	aeq2, aep1, aep0
     6b9:	01b284        	ae_mulsfp24s.hh	aeq2, aep3, aep2
     6bc:	0132b4        	ae_mulsfp24s.ll	aeq0, aep3, aep2
     6bf:	1bac74        	ae_roundsp24q48sym	aep7, aeq2
     6c2:	1b8c14        	ae_roundsp24q48sym	aep1, aeq0
     6c5:	c806a6cdef 	{ ae_sp24f.l.xu	aep4, a13, a14; ae_sllisp24s	aep0, aep1, 1 }
     6ca:	ca1ea68cef 	{ ae_sp24f.l.xu	aep0, a12, a14; ae_sllisp24s	aep4, aep7, 1 }

000006cf <_Z4Lap1P5fractS0_S0_PKjii+0xb7>:
     6cf:	81e9           	s32i.n	a14, a1, 32
     6d1:	53cde4        	ae_sp24f.l.xu	aep4, a13, a14
     6d4:	07bd           	mov.n	a11, a7
     6d6:	fe4e81        	l32r	a8, 10 (9b38 <__mulsi3hifi2>)
     6d9:	f8c3a2        	addi	a10, a3, -8
     6dc:	1198           	l32i.n	a9, a1, 4
     6de:	51a9           	s32i.n	a10, a1, 20
     6e0:	06ad           	mov.n	a10, a6
     6e2:	809950        	add	a9, a9, a5
     6e5:	066192        	s32i	a9, a1, 24
     6e8:	046192        	s32i	a9, a1, 16
     6eb:	0008e0        	callx8	a8
     6ee:	8138           	l32i.n	a3, a1, 32
     6f0:	7168           	l32i.n	a6, a1, 28
     6f2:	2158           	l32i.n	a5, a1, 8
     6f4:	01b8           	l32i.n	a11, a1, 0
     6f6:	fe4681        	l32r	a8, 10 (9b38 <__mulsi3hifi2>)
     6f9:	556a           	add.n	a5, a5, a6
     6fb:	a06a40        	addx4	a6, a10, a4
     6fe:	07ad           	mov.n	a10, a7
     700:	0008e0        	callx8	a8
     703:	54e5f4        	ae_lp24x2.iu	aep6, a5, -8
     706:	4188           	l32i.n	a8, a1, 16
     708:	a0da40        	addx4	a13, a10, a4
     70b:	61b8           	l32i.n	a11, a1, 24
     70d:	51a8           	l32i.n	a10, a1, 20
     70f:	547804        	ae_lp24x2.i	aep7, a8, 0
     712:	ebf8f0cbff 	{ ae_lp24x2.iu	aep4, a11, -8; ae_mulfp24s.hl	aeq3, aep6, aep7 }
     717:	e8f9b0da1f 	{ ae_lp24x2.iu	aep5, a10, 8; ae_mulfp24s.lh	aeq0, aep6, aep7 }
     71c:	e2b2b031fe 	{ l32i	a15, a1, 12; ae_mulafp24s.lh	aeq0, aep4, aep5 }
     721:	e3b355c63f 	{ sub	a12, a6, a3; ae_mulafp24s.hl	aeq3, aep4, aep5 }
     726:	f9e795dd3f 	{ sub	a13, a13, a3; ae_roundsp24q48sym	aep2, aeq0 }
     72b:	f9ffcffffe 	{ addi	a15, a15, -1; ae_roundsp24q48sym	aep3, aeq3 }
     730:	fc7840888e 	{ addi	a8, a8, 8; ae_negsp24s	aep1, aep3 }
     735:	2baf76        	loopgtz	a15, 764 <_Z4Lap1P5fractS0_S0_PKjii+0x14c>
     738:	fd5830080f 	{ ae_lp24x2.i	aep0, a8, 0; ae_negsp24s	aep2, aep2 }
     73d:	ca06f095ff 	{ ae_lp24x2.iu	aep1, a5, -8; ae_sllisp24s	aep5, aep1, 1 }
     742:	ca0ab0aa1f 	{ ae_lp24x2.iu	aep2, a10, 8; ae_sllisp24s	aep4, aep2, 1 }
     747:	e805f0bbff 	{ ae_lp24x2.iu	aep3, a11, -8; ae_mulfp24s.lh	aeq1, aep1, aep0 }
     74c:	ea04a6cc3f 	{ ae_sp24f.l.xu	aep4, a12, a3; ae_mulfp24s.hl	aeq0, aep1, aep0 }
     751:	e24f00888e 	{ addi	a8, a8, 8; ae_mulafp24s.hl	aeq0, aep3, aep2 }
     756:	e24ee6dd3f 	{ ae_sp24f.l.xu	aep5, a13, a3; ae_mulafp24s.lh	aeq1, aep3, aep2 }
     75b:	1b8c04        	ae_roundsp24q48sym	aep0, aeq0
     75e:	1b9c24        	ae_roundsp24q48sym	aep2, aeq1
     761:	078814        	ae_negsp24s	aep1, aep0

00000764 <_Z4Lap1P5fractS0_S0_PKjii+0x14c>:
     764:	078a34        	ae_negsp24s	aep3, aep2
     767:	0bb0a4        	ae_sllisp24s	aep2, aep3, 1
     76a:	c806a6ac3f 	{ ae_sp24f.l.xu	aep2, a12, a3; ae_sllisp24s	aep0, aep1, 1 }
     76f:	538d34        	ae_sp24f.l.xu	aep0, a13, a3
     772:	f01d           	retw.n

00000774 <_Z4Lap1P5fractS0_S0_PKjii+0x15c>:
     774:	f01d           	retw.n

00000776 <_Z4Lap1P5fractS0_S0_PKjii+0x15e>:
	...

00000778 <_Z10Lap1_shortP5fractS0_PsPKjii>:
     778:	008136        	entry	a1, 64
     77b:	7129           	s32i.n	a2, a1, 28
     77d:	0216e6        	bgei	a6, 1, 783 <_Z10Lap1_shortP5fractS0_PsPKjii+0xb>
     780:	004dc6        	j	8bb <_Z10Lap1_shortP5fractS0_PsPKjii+0x143>
     783:	f61b           	addi.n	a15, a6, 1
     785:	11b6f0        	slli	a11, a6, 1
     788:	f8c582        	addi	a8, a5, -8
     78b:	a0a630        	addx4	a10, a6, a3
     78e:	a0d620        	addx4	a13, a6, a2
     791:	11e7f0        	slli	a14, a7, 1
     794:	11eef0        	slli	a14, a14, 1
     797:	9d8b           	addi.n	a9, a13, 8
     799:	54aaf4        	ae_lp24x2.iu	aep2, a10, -8
     79c:	54c814        	ae_lp24x2.iu	aep4, a8, 8
     79f:	543d04        	ae_lp24x2.i	aep3, a13, 0
     7a2:	11cbe0        	slli	a12, a11, 2
     7a5:	11f9           	s32i.n	a15, a1, 4
     7a7:	1126e0        	slli	a2, a6, 2
     7aa:	0129           	s32i.n	a2, a1, 0
     7ac:	21f1f0        	srai	a15, a15, 1
     7af:	a0bb50        	addx4	a11, a11, a5
     7b2:	ea8d9431cf 	{ s32i.n	a12, a1, 12; ae_mulfp24s.ll	aeq0, aep3, aep4 }
     7b7:	e88cf09bff 	{ ae_lp24x2.iu	aep1, a11, -8; ae_mulfp24s.hh	aeq1, aep3, aep4 }
     7bc:	ee45d441ff 	{ s32i.n	a15, a1, 16; ae_mulsfp24s.ll	aeq1, aep1, aep2 }
     7c1:	ec4491d74f 	{ addx2	a13, a7, a4; ae_mulsfp24s.hh	aeq0, aep1, aep2 }
     7c6:	f9ef95c4ef 	{ sub	a12, a4, a14; ae_roundsp24q48sym	aep2, aeq1 }
     7cb:	f8e795ddef 	{ sub	a13, a13, a14; ae_roundsp24q48sym	aep0, aeq0 }
     7d0:	c802cffffe 	{ addi	a15, a15, -1; ae_sllisp24s	aep1, aep0, 1 }
     7d5:	2baf76        	loopgtz	a15, 804 <_Z10Lap1_shortP5fractS0_PsPKjii+0x8c>
     7d8:	c90ab0881f 	{ ae_lp24x2.iu	aep0, a8, 8; ae_sllisp24s	aep2, aep2, 1 }
     7dd:	fa07f0190f 	{ ae_lp24x2.i	aep1, a9, 0; ae_roundsp16sym	aep5, aep1 }
     7e2:	fa0bb0aaff 	{ ae_lp24x2.iu	aep2, a10, -8; ae_roundsp16sym	aep4, aep2 }
     7e7:	e804f0bbff 	{ ae_lp24x2.iu	aep3, a11, -8; ae_mulfp24s.hh	aeq1, aep1, aep0 }
     7ec:	ea05a3ccef 	{ ae_sp16f.l.xu	aep4, a12, a14; ae_mulfp24s.ll	aeq0, aep1, aep0 }
     7f1:	ec4c80899e 	{ addi	a9, a9, 8; ae_mulsfp24s.hh	aeq0, aep3, aep2 }
     7f6:	ee4de3ddef 	{ ae_sp16f.l.xu	aep5, a13, a14; ae_mulsfp24s.ll	aeq1, aep3, aep2 }
     7fb:	1b8c04        	ae_roundsp24q48sym	aep0, aeq0
     7fe:	1b9c24        	ae_roundsp24q48sym	aep2, aeq1
     801:	0b8094        	ae_sllisp24s	aep1, aep0, 1

00000804 <_Z10Lap1_shortP5fractS0_PsPKjii+0x8c>:
     804:	21e9           	s32i.n	a14, a1, 8
     806:	07bd           	mov.n	a11, a7
     808:	fe0281        	l32r	a8, 10 (9b38 <__mulsi3hifi2>)
     80b:	0198           	l32i.n	a9, a1, 0
     80d:	f8c3a2        	addi	a10, a3, -8
     810:	51a9           	s32i.n	a10, a1, 20
     812:	cb0ad3a66f 	{ or	a10, a6, a6; ae_sllisp24s	aep7, aep2, 1 }
     817:	fb1f90995f 	{ add	a9, a9, a5; ae_roundsp16sym	aep6, aep7 }
     81c:	fa07e3ecef 	{ ae_sp16f.l.xu	aep6, a12, a14; ae_roundsp16sym	aep5, aep1 }
     821:	43dde4        	ae_sp16f.l.xu	aep5, a13, a14
     824:	6199           	s32i.n	a9, a1, 24
     826:	096d           	mov.n	a6, a9
     828:	0008e0        	callx8	a8
     82b:	7158           	l32i.n	a5, a1, 28
     82d:	3138           	l32i.n	a3, a1, 12
     82f:	11b8           	l32i.n	a11, a1, 4
     831:	fdf781        	l32r	a8, 10 (9b38 <__mulsi3hifi2>)
     834:	335a           	add.n	a3, a3, a5
     836:	905a40        	addx2	a5, a10, a4
     839:	07ad           	mov.n	a10, a7
     83b:	0008e0        	callx8	a8
     83e:	41f8           	l32i.n	a15, a1, 16
     840:	21e8           	l32i.n	a14, a1, 8
     842:	61b8           	l32i.n	a11, a1, 24
     844:	90da40        	addx2	a13, a10, a4
     847:	543604        	ae_lp24x2.i	aep3, a6, 0
     84a:	51a8           	l32i.n	a10, a1, 20
     84c:	54a3f4        	ae_lp24x2.iu	aep2, a3, -8
     84f:	e969b08bff 	{ ae_lp24x2.iu	aep0, a11, -8; ae_mulfp24s.lh	aeq2, aep2, aep3 }
     854:	eb68f09a1f 	{ ae_lp24x2.iu	aep1, a10, 8; ae_mulfp24s.hl	aeq3, aep2, aep3 }
     859:	e32340868e 	{ addi	a8, a6, 8; ae_mulafp24s.hl	aeq3, aep0, aep1 }
     85e:	e32295c5ef 	{ sub	a12, a5, a14; ae_mulafp24s.lh	aeq2, aep0, aep1 }
     863:	f9ffcffffe 	{ addi	a15, a15, -1; ae_roundsp24q48sym	aep3, aeq3 }
     868:	f8f795ddef 	{ sub	a13, a13, a14; ae_roundsp24q48sym	aep0, aeq2 }
     86d:	31af76        	loopgtz	a15, 8a2 <_Z10Lap1_shortP5fractS0_PsPKjii+0x12a>

00000870 <_Z10Lap1_shortP5fractS0_PsPKjii+0xf8>:
     870:	fc1870080f 	{ ae_lp24x2.i	aep0, a8, 0; ae_negsp24s	aep1, aep0 }
     875:	078b34        	ae_negsp24s	aep3, aep3
     878:	ca06b093ff 	{ ae_lp24x2.iu	aep1, a3, -8; ae_sllisp24s	aep4, aep1, 1 }
     87d:	ea04f0abff 	{ ae_lp24x2.iu	aep2, a11, -8; ae_mulfp24s.hl	aeq1, aep1, aep0 }
     882:	0940c4        	ae_roundsp16sym	aep4, aep4
     885:	e805b08a1f 	{ ae_lp24x2.iu	aep0, a10, 8; ae_mulfp24s.lh	aeq0, aep1, aep0 }
     88a:	c80ee3ccef 	{ ae_sp16f.l.xu	aep4, a12, a14; ae_sllisp24s	aep1, aep3, 1 }
     88f:	e20a80888e 	{ addi	a8, a8, 8; ae_mulafp24s.lh	aeq0, aep2, aep0 }
     894:	091094        	ae_roundsp16sym	aep1, aep1
     897:	e20b639def 	{ ae_sp16f.l.xu	aep1, a13, a14; ae_mulafp24s.hl	aeq1, aep2, aep0 }
     89c:	1b8c04        	ae_roundsp24q48sym	aep0, aeq0
     89f:	1b9c34        	ae_roundsp24q48sym	aep3, aeq1

000008a2 <_Z10Lap1_shortP5fractS0_PsPKjii+0x12a>:
     8a2:	078804        	ae_negsp24s	aep0, aep0
     8a5:	078b14        	ae_negsp24s	aep1, aep3
     8a8:	0b90d4        	ae_sllisp24s	aep5, aep1, 1
     8ab:	0b80f4        	ae_sllisp24s	aep7, aep0, 1
     8ae:	0970e4        	ae_roundsp16sym	aep6, aep7
     8b1:	fa17a3ecef 	{ ae_sp16f.l.xu	aep6, a12, a14; ae_roundsp16sym	aep4, aep5 }
     8b6:	43cde4        	ae_sp16f.l.xu	aep4, a13, a14
     8b9:	f01d           	retw.n

000008bb <_Z10Lap1_shortP5fractS0_PsPKjii+0x143>:
     8bb:	f01d           	retw.n

000008bd <_Z10Lap1_shortP5fractS0_PsPKjii+0x145>:
     8bd:	000000                                        ...

000008c0 <_Z10ApplyToolsPP28CAacDecoderStaticChannelInfoPP22CAacDecoderChannelInfoi>:
     8c0:	004136        	entry	a1, 32
     8c3:	02ad           	mov.n	a10, a2
     8c5:	fdd381        	l32r	a8, 14 (1260 <_Z10CPns_ApplyPP28CAacDecoderStaticChannelInfoPP22CAacDecoderChannelInfoi>)
     8c8:	03bd           	mov.n	a11, a3
     8ca:	20c440        	or	a12, a4, a4
     8cd:	0008e0        	callx8	a8
     8d0:	fdd281        	l32r	a8, 18 (21b8 <_Z10CTns_ApplyP22CAacDecoderChannelInfo>)
     8d3:	a0a430        	addx4	a10, a4, a3
     8d6:	0aa8           	l32i.n	a10, a10, 0
     8d8:	0008e0        	callx8	a8
     8db:	f01d           	retw.n

000008dd <_Z10ApplyToolsPP28CAacDecoderStaticChannelInfoPP22CAacDecoderChannelInfoi+0x1d>:
     8dd:	000000                                        ...

000008e0 <_Z14postModulationP5fractiPKS_iiPiS3_>:
     8e0:	004136        	entry	a1, 32
     8e3:	81f8           	l32i.n	a15, a1, 32
     8e5:	4c3404        	ae_lp24.i	aep3, a4, 0
     8e8:	07ad           	mov.n	a10, a7
     8ea:	a0b640        	addx4	a11, a6, a4
     8ed:	933b           	addi.n	a9, a3, 3
     8ef:	002782        	l32i	a8, a7, 0
     8f2:	031684        	wur.ae_sar	a8
     8f5:	b39330        	movgez	a9, a3, a3
     8f8:	4c2b04        	ae_lp24.i	aep2, a11, 0
     8fb:	dd6a300aee 	{ l32i	a14, a10, 0; ae_selp24.ll	aep2, aep2, aep3 }
     900:	216290        	srai	a6, a9, 2
     903:	0216e6        	bgei	a6, 1, 909 <_Z14postModulationP5fractiPKS_iiPiS3_+0x29>
     906:	003086        	j	9cc <_Z14postModulationP5fractiPKS_iiPiS3_+0xec>
     909:	20c660        	or	a12, a6, a6
     90c:	a03320        	addx4	a3, a3, a2
     90f:	1165e0        	slli	a6, a5, 2
     912:	2181c0        	srai	a8, a12, 1
     915:	f8c252        	addi	a5, a2, -8
     918:	607060        	neg	a7, a6
     91b:	366927        	bbci	a9, 2, 955 <_Z14postModulationP5fractiPKS_iiPiS3_+0x75>
     91e:	544204        	ae_lp24x2.i	aep4, a2, 0
     921:	f65061b46f 	{ ae_lp24.xu	aep3, a4, a6; ae_mulzasfp24s.hl.lh	aeq1, aep4, aep2 }
     926:	f152e1ab7f 	{ ae_lp24.xu	aep2, a11, a7; ae_mulzaafp24s.hh.ll	aeq3, aep4, aep2 }
     92b:	dd6a3073ff 	{ ae_lp24x2.i	aep7, a3, -8; ae_selp24.ll	aep2, aep2, aep3 }
     930:	047214        	ae_mulzaafp24s.hl.lh	aeq0, aep7, aep2
     933:	f55c3f79ff 	{ ae_srasq56	aeq3, aeq3; ae_mulzasfp24s.hh.ll	aeq2, aep7, aep2 }
     938:	faffff493f 	{ ae_srasq56	aeq0, aeq0; ae_roundsp24q48sym	aep5, aeq3 }
     93d:	fae7bf69bf 	{ ae_srasq56	aeq2, aeq2; ae_roundsp24q48sym	aep4, aeq0 }
     942:	1bac64        	ae_roundsp24q48sym	aep6, aeq2
     945:	ded67f597f 	{ ae_srasq56	aeq1, aeq1; ae_selp24.ll	aep5, aep5, aep6 }
     94a:	1b9c64        	ae_roundsp24q48sym	aep6, aeq1
     94d:	ded237d51f 	{ ae_sp24x2s.iu	aep5, a5, 8; ae_selp24.ll	aep4, aep4, aep6 }
     952:	56c3f4        	ae_sp24x2s.iu	aep4, a3, -8

00000955 <_Z14postModulationP5fractiPKS_iiPiS3_+0x75>:
     955:	03dd           	mov.n	a13, a3
     957:	052d           	mov.n	a2, a5
     959:	043d           	mov.n	a3, a4
     95b:	0d5d           	mov.n	a5, a13
     95d:	6ba876        	loopgtz	a8, 9cc <_Z14postModulationP5fractiPKS_iiPiS3_+0xec>
     960:	540214        	ae_lp24x2.i	aep0, a2, 8
     963:	f64021936f 	{ ae_lp24.xu	aep1, a3, a6; ae_mulzasfp24s.hl.lh	aeq0, aep0, aep2 }
     968:	f042e18b7f 	{ ae_lp24.xu	aep0, a11, a7; ae_mulzaafp24s.hh.ll	aeq1, aep0, aep2 }
     96d:	dc227005ff 	{ ae_lp24x2.i	aep0, a5, -8; ae_selp24.ll	aep1, aep0, aep1 }
     972:	f52021a36f 	{ ae_lp24.xu	aep2, a3, a6; ae_mulzasfp24s.hh.ll	aeq2, aep0, aep1 }
     977:	f322e18b7f 	{ ae_lp24.xu	aep0, a11, a7; ae_mulzaafp24s.hl.lh	aeq3, aep0, aep1 }
     97c:	dd423f597f 	{ ae_srasq56	aeq1, aeq1; ae_selp24.ll	aep2, aep0, aep2 }
     981:	f8efbf493f 	{ ae_srasq56	aeq0, aeq0; ae_roundsp24q48sym	aep0, aeq1 }
     986:	fae7bf693f 	{ ae_srasq56	aeq0, aeq2; ae_roundsp24q48sym	aep4, aeq0 }
     98b:	f9e7ff793f 	{ ae_srasq56	aeq0, aeq3; ae_roundsp24q48sym	aep3, aeq0 }
     990:	1a8304        	ae_selp24.ll	aep0, aep0, aep3
     993:	f8e7b7021f 	{ ae_sp24x2s.i	aep0, a2, 8; ae_roundsp24q48sym	aep0, aeq0 }
     998:	de823005ef 	{ ae_lp24x2.i	aep0, a5, -16; ae_selp24.ll	aep4, aep0, aep4 }
     99d:	f4403745ff 	{ ae_sp24x2s.i	aep4, a5, -8; ae_mulzasfp24s.hh.ll	aeq0, aep0, aep2 }
     9a2:	f242f0022f 	{ ae_lp24x2.i	aep0, a2, 16; ae_mulzaafp24s.hl.lh	aeq1, aep0, aep2 }
     9a7:	f7203f493f 	{ ae_srasq56	aeq0, aeq0; ae_mulzasfp24s.hl.lh	aeq2, aep0, aep1 }
     9ac:	f122ff597f 	{ ae_srasq56	aeq1, aeq1; ae_mulzaafp24s.hh.ll	aeq3, aep0, aep1 }
     9b1:	f8e7bf693f 	{ ae_srasq56	aeq0, aeq2; ae_roundsp24q48sym	aep0, aeq0 }
     9b6:	f8efff797f 	{ ae_srasq56	aeq1, aeq3; ae_roundsp24q48sym	aep1, aeq1 }
     9bb:	1b9c44        	ae_roundsp24q48sym	aep4, aeq1
     9be:	1b8c34        	ae_roundsp24q48sym	aep3, aeq0
     9c1:	1ac004        	ae_selp24.ll	aep0, aep4, aep0
     9c4:	dc6637822f 	{ ae_sp24x2s.iu	aep0, a2, 16; ae_selp24.ll	aep0, aep1, aep3 }
     9c9:	5685e4        	ae_sp24x2s.iu	aep0, a5, -16

000009cc <_Z14postModulationP5fractiPKS_iiPiS3_+0xec>:
     9cc:	0f28           	l32i.n	a2, a15, 0
     9ce:	ee2a           	add.n	a14, a14, a2
     9d0:	0fe9           	s32i.n	a14, a15, 0
     9d2:	f01d           	retw.n

000009d4 <_Z13preModulationP5fractiPKjPiS3_>:
     9d4:	004136        	entry	a1, 32
     9d7:	069d           	mov.n	a9, a6
     9d9:	058d           	mov.n	a8, a5
     9db:	fe20c0335e 	{ addi	a5, a3, 3; ae_zerop48	aep5 }
     9e0:	b35330        	movgez	a5, a3, a3
     9e3:	215250        	srai	a5, a5, 2
     9e6:	0215e6        	bgei	a5, 1, 9ec <_Z13preModulationP5fractiPKjPiS3_+0x18>
     9e9:	002746        	j	a8a <_Z13preModulationP5fractiPKjPiS3_+0xb6>
     9ec:	f8c472        	addi	a7, a4, -8
     9ef:	a0a340        	addx4	a10, a3, a4
     9f2:	547204        	ae_lp24x2.i	aep7, a2, 0
     9f5:	a04320        	addx4	a4, a3, a2
     9f8:	5444f4        	ae_lp24x2.i	aep4, a4, -8
     9fb:	dd9cb0e71f 	{ ae_lp24x2.iu	aep6, a7, 8; ae_selp24.hl	aep2, aep7, aep4 }
     a00:	def0b0faff 	{ ae_lp24x2.iu	aep7, a10, -8; ae_selp24.hl	aep4, aep4, aep7 }
     a05:	1af6b4        	ae_selp24.lh	aep3, aep7, aep6
     a08:	04a324        	ae_mulzaap24s.hh.ll	aeq2, aep2, aep3
     a0b:	04abb4        	ae_mulzsap24s.hl.lh	aeq3, aep2, aep3
     a0e:	1ae7e4        	ae_selp24.lh	aep6, aep6, aep7
     a11:	044624        	ae_mulzaap24s.hh.ll	aeq0, aep4, aep6
     a14:	044eb4        	ae_mulzsap24s.hl.lh	aeq1, aep4, aep6
     a17:	1bbc14        	ae_roundsp24q48sym	aep1, aeq3
     a1a:	f8f78ff56e 	{ addi	a6, a5, -1; ae_roundsp24q48sym	aep0, aeq2 }
     a1f:	f9ef8f82be 	{ addi	a11, a2, -8; ae_roundsp24q48sym	aep2, aeq1 }
     a24:	dc2213277f 	{ or	a2, a7, a7; ae_selp24.ll	aep0, aep0, aep1 }
     a29:	fc00378b1f 	{ ae_sp24x2s.iu	aep0, a11, 8; ae_absp24	aep0, aep0 }
     a2e:	f8e7d33aaf 	{ or	a3, a10, a10; ae_roundsp24q48sym	aep1, aeq0 }
     a33:	dc46535bbf 	{ or	a5, a11, a11; ae_selp24.ll	aep1, aep1, aep2 }
     a38:	fc207794ff 	{ ae_sp24x2s.iu	aep1, a4, -8; ae_absp24	aep1, aep1 }
     a3d:	41a676        	loopgtz	a6, a82 <_Z13preModulationP5fractiPKjPiS3_+0xae>
     a40:	dc2070821f 	{ ae_lp24x2.iu	aep0, a2, 8; ae_orp48	aep1, aep0, aep1 }
     a45:	dea47093ff 	{ ae_lp24x2.iu	aep1, a3, -8; ae_orp48	aep5, aep1, aep5 }
     a4a:	dd05f024ff 	{ ae_lp24x2.i	aep2, a4, -8; ae_selp24.lh	aep3, aep1, aep0 }
     a4f:	dc21f0051f 	{ ae_lp24x2.i	aep0, a5, 8; ae_selp24.lh	aep1, aep0, aep1 }
     a54:	1a8a44        	ae_selp24.hl	aep4, aep0, aep2
     a57:	1aa804        	ae_selp24.hl	aep0, aep2, aep0
     a5a:	040124        	ae_mulzaap24s.hh.ll	aeq0, aep0, aep1
     a5d:	0409b4        	ae_mulzsap24s.hl.lh	aeq1, aep0, aep1
     a60:	04c3b4        	ae_mulzsap24s.hl.lh	aeq2, aep4, aep3
     a63:	04cb24        	ae_mulzaap24s.hh.ll	aeq3, aep4, aep3
     a66:	1bac04        	ae_roundsp24q48sym	aep0, aeq2
     a69:	1bbc14        	ae_roundsp24q48sym	aep1, aeq3
     a6c:	1b9c24        	ae_roundsp24q48sym	aep2, aeq1
     a6f:	1b8c34        	ae_roundsp24q48sym	aep3, aeq0
     a72:	1a9004        	ae_selp24.ll	aep0, aep1, aep0
     a75:	dc4e77851f 	{ ae_sp24x2s.iu	aep0, a5, 8; ae_selp24.ll	aep1, aep3, aep2 }
     a7a:	fc207794ff 	{ ae_sp24x2s.iu	aep1, a4, -8; ae_absp24	aep1, aep1 }
     a7f:	07b804        	ae_absp24	aep0, aep0

00000a82 <_Z13preModulationP5fractiPKjPiS3_+0xae>:
     a82:	de207f58bf 	{ ae_movp48	aep6, aep5; ae_orp48	aep5, aep0, aep1 }

00000a87 <_Z13preModulationP5fractiPKjPiS3_+0xb3>:
     a87:	0fde54        	ae_orp48	aep5, aep5, aep6

00000a8a <_Z13preModulationP5fractiPKjPiS3_+0xb6>:
     a8a:	dcb53009ee 	{ l32i	a14, a9, 0; ae_selp24.hh	aep0, aep5, aep5 }
     a8f:	dfb64001ff 	{ movi	a15, 1; ae_selp24.ll	aep7, aep5, aep5 }
     a94:	df1c4000df 	{ movi	a13, 0; ae_orp48	aep7, aep7, aep0 }
     a99:	fcec001eee 	{ addi	a14, a14, 1; ae_cvtq48p24s.l	aeq0, aep7 }
     a9e:	364c04        	ae_nsaq56s	a12, aeq0
     aa1:	09e9           	s32i.n	a14, a9, 0
     aa3:	08d9           	s32i.n	a13, a8, 0
     aa5:	018c26        	beqi	a12, 8, aaa <_Z13preModulationP5fractiPKjPiS3_+0xd6>
     aa8:	f01d           	retw.n

00000aaa <_Z13preModulationP5fractiPKjPiS3_+0xd6>:
     aaa:	08f9           	s32i.n	a15, a8, 0
     aac:	f01d           	retw.n

00000aae <_Z13preModulationP5fractiPKjPiS3_+0xda>:
	...

00000ab0 <_Z28CShortBlock_InverseTransformP5fractPiS0_>:
     ab0:	008136        	entry	a1, 64
     ab3:	02ad           	mov.n	a10, a2
     ab5:	80a0b2        	movi	a11, 128
     ab8:	03ed           	mov.n	a14, a3
     aba:	fd5981        	l32r	a8, 20 (9d4 <_Z13preModulationP5fractiPKjPiS3_>)
     abd:	fd57c1        	l32r	a12, 1c (109e0 <OnlyShortWindowSine>)
     ac0:	060c           	movi.n	a6, 0
     ac2:	1d0c           	movi.n	a13, 1
     ac4:	41d9           	s32i.n	a13, a1, 16
     ac6:	0369           	s32i.n	a6, a3, 0
     ac8:	10c1d2        	addi	a13, a1, 16
     acb:	0cc8           	l32i.n	a12, a12, 0
     acd:	0008e0        	callx8	a8
     ad0:	02ad           	mov.n	a10, a2
     ad2:	6b0c           	movi.n	a11, 6
     ad4:	00a2d2        	movi	a13, 0x200
     ad7:	10c1e2        	addi	a14, a1, 16
     ada:	14c1f2        	addi	a15, a1, 20
     add:	fd5151        	l32r	a5, 24 (10b70 <trigData>)
     ae0:	fd5281        	l32r	a8, 28 (720c <_Z12fft_rad2_ditP5fractiPKS_iPiS3_iiS0_>)
     ae3:	190c           	movi.n	a9, 1
     ae5:	05c8           	l32i.n	a12, a5, 0
     ae7:	0199           	s32i.n	a9, a1, 0
     ae9:	1199           	s32i.n	a9, a1, 4
     aeb:	2149           	s32i.n	a4, a1, 8
     aed:	0008e0        	callx8	a8
     af0:	02ad           	mov.n	a10, a2
     af2:	80a0b2        	movi	a11, 128
     af5:	8d0c           	movi.n	a13, 8
     af7:	00a2e2        	movi	a14, 0x200
     afa:	10c1f2        	addi	a15, a1, 16
     afd:	4169           	s32i.n	a6, a1, 16
     aff:	fd4b81        	l32r	a8, 2c (8e0 <_Z14postModulationP5fractiPKS_iiPiS3_>)
     b02:	05c8           	l32i.n	a12, a5, 0
     b04:	0139           	s32i.n	a3, a1, 0
     b06:	0008e0        	callx8	a8
     b09:	51a8           	l32i.n	a10, a1, 20
     b0b:	0398           	l32i.n	a9, a3, 0
     b0d:	99aa           	add.n	a9, a9, a10
     b0f:	0399           	s32i.n	a9, a3, 0
     b11:	f01d           	retw.n

00000b13 <_Z28CShortBlock_InverseTransformP5fractPiS0_+0x63>:
	...

00000b14 <_Z27CLongBlock_InverseTransformP5fractPiS0_>:
     b14:	008136        	entry	a1, 64
     b17:	02ad           	mov.n	a10, a2
     b19:	00a4b2        	movi	a11, 0x400
     b1c:	03ed           	mov.n	a14, a3
     b1e:	fd4081        	l32r	a8, 20 (9d4 <_Z13preModulationP5fractiPKjPiS3_>)
     b21:	fd43c1        	l32r	a12, 30 (109e4 <OnlyLongWindowSine>)
     b24:	060c           	movi.n	a6, 0
     b26:	1d0c           	movi.n	a13, 1
     b28:	41d9           	s32i.n	a13, a1, 16
     b2a:	0369           	s32i.n	a6, a3, 0
     b2c:	10c1d2        	addi	a13, a1, 16
     b2f:	0cc8           	l32i.n	a12, a12, 0
     b31:	0008e0        	callx8	a8
     b34:	02ad           	mov.n	a10, a2
     b36:	9b0c           	movi.n	a11, 9
     b38:	00a2d2        	movi	a13, 0x200
     b3b:	10c1e2        	addi	a14, a1, 16
     b3e:	14c1f2        	addi	a15, a1, 20
     b41:	fd3851        	l32r	a5, 24 (10b70 <trigData>)
     b44:	fd3981        	l32r	a8, 28 (720c <_Z12fft_rad2_ditP5fractiPKS_iPiS3_iiS0_>)
     b47:	190c           	movi.n	a9, 1
     b49:	05c8           	l32i.n	a12, a5, 0
     b4b:	0199           	s32i.n	a9, a1, 0
     b4d:	1199           	s32i.n	a9, a1, 4
     b4f:	2149           	s32i.n	a4, a1, 8
     b51:	0008e0        	callx8	a8
     b54:	02ad           	mov.n	a10, a2
     b56:	00a4b2        	movi	a11, 0x400
     b59:	1d0c           	movi.n	a13, 1
     b5b:	00a2e2        	movi	a14, 0x200
     b5e:	10c1f2        	addi	a15, a1, 16
     b61:	4169           	s32i.n	a6, a1, 16
     b63:	fd3281        	l32r	a8, 2c (8e0 <_Z14postModulationP5fractiPKS_iiPiS3_>)
     b66:	05c8           	l32i.n	a12, a5, 0
     b68:	0139           	s32i.n	a3, a1, 0
     b6a:	0008e0        	callx8	a8
     b6d:	51a8           	l32i.n	a10, a1, 20
     b6f:	0398           	l32i.n	a9, a3, 0
     b71:	99aa           	add.n	a9, a9, a10
     b73:	0399           	s32i.n	a9, a3, 0
     b75:	f01d           	retw.n

00000b77 <_Z27CLongBlock_InverseTransformP5fractPiS0_+0x63>:
	...

00000b78 <_Z7StopLapP5fractS0_S0_PKji>:
     b78:	004136        	entry	a1, 32
     b7b:	f91c           	movi.n	a9, 31
     b7d:	04dd           	mov.n	a13, a4
     b7f:	02fd           	mov.n	a15, a2
     b81:	05cd           	mov.n	a12, a5
     b83:	03ed           	mov.n	a14, a3
     b85:	06bd           	mov.n	a11, a6
     b87:	118bd0        	slli	a8, a11, 3
     b8a:	0fd232        	addmi	a3, a2, 0xf00
     b8d:	f06660        	subx8	a6, a6, a6
     b90:	02d552        	addmi	a5, a5, 0x200
     b93:	54b5f4        	ae_lp24x2.iu	aep3, a5, -8
     b96:	1176a0        	slli	a7, a6, 6
     b99:	f8c332        	addi	a3, a3, -8
     b9c:	548314        	ae_lp24x2.iu	aep0, a3, 8
     b9f:	116680        	slli	a6, a6, 8
     ba2:	f8cc22        	addi	a2, a12, -8
     ba5:	7b7a           	add.n	a7, a11, a7
     ba7:	a07740        	addx4	a7, a7, a4
     baa:	549214        	ae_lp24x2.iu	aep1, a2, 8
     bad:	806460        	add	a6, a4, a6
     bb0:	ea21d5a68f 	{ sub	a10, a6, a8; ae_mulfp24s.ll	aeq1, aep0, aep1 }
     bb5:	116b50        	slli	a6, a11, 11
     bb8:	08de42        	addmi	a4, a14, 0x800
     bbb:	e820b0a4ff 	{ ae_lp24x2.iu	aep2, a4, -8; ae_mulfp24s.hh	aeq0, aep0, aep1 }
     bc0:	ee4d95778f 	{ sub	a7, a7, a8; ae_mulsfp24s.ll	aeq0, aep3, aep2 }
     bc5:	238976        	loop	a9, bec <_Z7StopLapP5fractS0_S0_PKji+0x74>
     bc8:	ec4cf0931f 	{ ae_lp24x2.iu	aep1, a3, 8; ae_mulsfp24s.hh	aeq1, aep3, aep2 }
     bcd:	f9e7f0821f 	{ ae_lp24x2.iu	aep0, a2, 8; ae_roundsp24q48sym	aep3, aeq0 }
     bd2:	ca0eb0b5ff 	{ ae_lp24x2.iu	aep3, a5, -8; ae_sllisp24s	aep4, aep3, 1 }
     bd7:	faefa6ca8f 	{ ae_sp24f.l.xu	aep4, a10, a8; ae_roundsp24q48sym	aep4, aeq1 }
     bdc:	e804b0a4ff 	{ ae_lp24x2.iu	aep2, a4, -8; ae_mulfp24s.hh	aeq0, aep1, aep0 }
     be1:	0bc0c4        	ae_sllisp24s	aep4, aep4, 1
     be4:	ee4da6c78f 	{ ae_sp24f.l.xu	aep4, a7, a8; ae_mulsfp24s.ll	aeq0, aep3, aep2 }
     be9:	011874        	ae_mulfp24s.ll	aeq1, aep1, aep0

00000bec <_Z7StopLapP5fractS0_S0_PKji+0x74>:
     bec:	01dc22        	addmi	a2, a12, 0x100
     bef:	07de42        	addmi	a4, a14, 0x700
     bf2:	10df32        	addmi	a3, a15, 0x1000
     bf5:	079d           	mov.n	a9, a7
     bf7:	54c3f4        	ae_lp24x2.iu	aep4, a3, -8
     bfa:	f8c442        	addi	a4, a4, -8
     bfd:	025d           	mov.n	a5, a2
     bff:	117b70        	slli	a7, a11, 9
     c02:	ec4ccf822e 	{ addi	a2, a2, -8; ae_mulsfp24s.hh	aeq1, aep3, aep2 }
     c07:	fbe7f0d21f 	{ ae_lp24x2.iu	aep5, a2, 8; ae_roundsp24q48sym	aep7, aeq0 }
     c0c:	cb1e907b7f 	{ add	a7, a11, a7; ae_sllisp24s	aep6, aep7, 1 }
     c11:	a077d0        	addx4	a7, a7, a13
     c14:	e9b1f0941f 	{ ae_lp24x2.iu	aep1, a4, 8; ae_mulfp24s.lh	aeq3, aep4, aep5 }
     c19:	ebb0b085ff 	{ ae_lp24x2.iu	aep0, a5, -8; ae_mulfp24s.hl	aeq2, aep4, aep5 }
     c1e:	e323106d6f 	{ add	a6, a13, a6; ae_mulafp24s.hl	aeq2, aep0, aep1 }
     c23:	e322d5668f 	{ sub	a6, a6, a8; ae_mulafp24s.lh	aeq3, aep0, aep1 }
     c28:	faefe6ea8f 	{ ae_sp24f.l.xu	aep6, a10, a8; ae_roundsp24q48sym	aep5, aeq1 }
     c2d:	f9ff93a66f 	{ or	a10, a6, a6; ae_roundsp24q48sym	aep2, aeq3 }
     c32:	ca1695778f 	{ sub	a7, a7, a8; ae_sllisp24s	aep4, aep5, 1 }
     c37:	f9f7e6c98f 	{ ae_sp24f.l.xu	aep4, a9, a8; ae_roundsp24q48sym	aep3, aeq2 }
     c3c:	fc78401f9f 	{ movi	a9, 31; ae_negsp24s	aep1, aep3 }
     c41:	f03d           	nop.n
     c43:	f03d           	nop.n
     c45:	298976        	loop	a9, c72 <_Z7StopLapP5fractS0_S0_PKji+0xfa>
     c48:	fd5830821f 	{ ae_lp24x2.iu	aep0, a2, 8; ae_negsp24s	aep2, aep2 }

00000c4d <_Z7StopLapP5fractS0_S0_PKji+0xd5>:
     c4d:	ca06f093ff 	{ ae_lp24x2.iu	aep1, a3, -8; ae_sllisp24s	aep5, aep1, 1 }
     c52:	ca0ab0a41f 	{ ae_lp24x2.iu	aep2, a4, 8; ae_sllisp24s	aep4, aep2, 1 }
     c57:	e805f0b5ff 	{ ae_lp24x2.iu	aep3, a5, -8; ae_mulfp24s.lh	aeq1, aep1, aep0 }
     c5c:	ea04a6ca8f 	{ ae_sp24f.l.xu	aep4, a10, a8; ae_mulfp24s.hl	aeq0, aep1, aep0 }
     c61:	e24f26d78f 	{ ae_sp24f.l.xu	aep5, a7, a8; ae_mulafp24s.hl	aeq0, aep3, aep2 }
     c66:	013a24        	ae_mulafp24s.lh	aeq1, aep3, aep2
     c69:	1b8c04        	ae_roundsp24q48sym	aep0, aeq0
     c6c:	1b9c24        	ae_roundsp24q48sym	aep2, aeq1
     c6f:	078814        	ae_negsp24s	aep1, aep0

00000c72 <_Z7StopLapP5fractS0_S0_PKji+0xfa>:
     c72:	078a04        	ae_negsp24s	aep0, aep2
     c75:	cb02d3977f 	{ or	a9, a7, a7; ae_sllisp24s	aep7, aep0, 1 }
     c7a:	cb06a6fa8f 	{ ae_sp24f.l.xu	aep7, a10, a8; ae_sllisp24s	aep6, aep1, 1 }
     c7f:	53e984        	ae_sp24f.l.xu	aep6, a9, a8
     c82:	f01d           	retw.n

00000c84 <_Z13StopLap_shortP5fractS0_PsPKji>:
     c84:	004136        	entry	a1, 32
     c87:	04dd           	mov.n	a13, a4
     c89:	02fd           	mov.n	a15, a2
     c8b:	05cd           	mov.n	a12, a5
     c8d:	03ed           	mov.n	a14, a3
     c8f:	06bd           	mov.n	a11, a6
     c91:	118be0        	slli	a8, a11, 2
     c94:	0fd232        	addmi	a3, a2, 0xf00
     c97:	f06660        	subx8	a6, a6, a6
     c9a:	02d552        	addmi	a5, a5, 0x200
     c9d:	5495f4        	ae_lp24x2.iu	aep1, a5, -8
     ca0:	1176a0        	slli	a7, a6, 6
     ca3:	f8c332        	addi	a3, a3, -8
     ca6:	54b314        	ae_lp24x2.iu	aep3, a3, 8
     ca9:	116690        	slli	a6, a6, 7
     cac:	f8cc22        	addi	a2, a12, -8
     caf:	54c214        	ae_lp24x2.iu	aep4, a2, 8
     cb2:	ea8d90646f 	{ add	a6, a4, a6; ae_mulfp24s.ll	aeq0, aep3, aep4 }
     cb7:	08de42        	addmi	a4, a14, 0x800
     cba:	e88cf0a4ff 	{ ae_lp24x2.iu	aep2, a4, -8; ae_mulfp24s.hh	aeq1, aep3, aep4 }
     cbf:	ee45c01f9f 	{ movi	a9, 31; ae_mulsfp24s.ll	aeq1, aep1, aep2 }
     cc4:	ec44907b7f 	{ add	a7, a11, a7; ae_mulsfp24s.hh	aeq0, aep1, aep2 }
     cc9:	f9ef9177df 	{ addx2	a7, a7, a13; ae_roundsp24q48sym	aep2, aeq1 }
     cce:	f8e795a68f 	{ sub	a10, a6, a8; ae_roundsp24q48sym	aep0, aeq0 }
     cd3:	c802d5778f 	{ sub	a7, a7, a8; ae_sllisp24s	aep1, aep0, 1 }
     cd8:	298976        	loop	a9, d05 <_Z13StopLap_shortP5fractS0_PsPKji+0x81>
     cdb:	c90ab0821f 	{ ae_lp24x2.iu	aep0, a2, 8; ae_sllisp24s	aep2, aep2, 1 }
     ce0:	fa07f0931f 	{ ae_lp24x2.iu	aep1, a3, 8; ae_roundsp16sym	aep5, aep1 }
     ce5:	fa0bb0a4ff 	{ ae_lp24x2.iu	aep2, a4, -8; ae_roundsp16sym	aep4, aep2 }
     cea:	e804f0b5ff 	{ ae_lp24x2.iu	aep3, a5, -8; ae_mulfp24s.hh	aeq1, aep1, aep0 }
     cef:	ea05a3ca8f 	{ ae_sp16f.l.xu	aep4, a10, a8; ae_mulfp24s.ll	aeq0, aep1, aep0 }
     cf4:	ec4ca3d78f 	{ ae_sp16f.l.xu	aep5, a7, a8; ae_mulsfp24s.hh	aeq0, aep3, aep2 }
     cf9:	013ab4        	ae_mulsfp24s.ll	aeq1, aep3, aep2
     cfc:	1b8c04        	ae_roundsp24q48sym	aep0, aeq0
     cff:	1b9c24        	ae_roundsp24q48sym	aep2, aeq1
     d02:	0b8094        	ae_sllisp24s	aep1, aep0, 1

00000d05 <_Z13StopLap_shortP5fractS0_PsPKji+0x81>:
     d05:	07de42        	addmi	a4, a14, 0x700
     d08:	01dc22        	addmi	a2, a12, 0x100
     d0b:	116b60        	slli	a6, a11, 10
     d0e:	10df32        	addmi	a3, a15, 0x1000
     d11:	079d           	mov.n	a9, a7
     d13:	54c3f4        	ae_lp24x2.iu	aep4, a3, -8
     d16:	6d6a           	add.n	a6, a13, a6
     d18:	025d           	mov.n	a5, a2
     d1a:	f8c442        	addi	a4, a4, -8
     d1d:	54b414        	ae_lp24x2.iu	aep3, a4, 8
     d20:	5485f4        	ae_lp24x2.iu	aep0, a5, -8
     d23:	c06680        	sub	a6, a6, a8
     d26:	117b70        	slli	a7, a11, 9
     d29:	cb0acf822e 	{ addi	a2, a2, -8; ae_sllisp24s	aep7, aep2, 1 }
     d2e:	fb1fb0d21f 	{ ae_lp24x2.iu	aep5, a2, 8; ae_roundsp16sym	aep6, aep7 }
     d33:	ebb0d07b7f 	{ add	a7, a11, a7; ae_mulfp24s.hl	aeq3, aep4, aep5 }
     d38:	e9b1a3ea8f 	{ ae_sp16f.l.xu	aep6, a10, a8; ae_mulfp24s.lh	aeq2, aep4, aep5 }
     d3d:	e36293a66f 	{ or	a10, a6, a6; ae_mulafp24s.lh	aeq2, aep0, aep3 }
     d42:	e3635177df 	{ addx2	a7, a7, a13; ae_mulafp24s.hl	aeq3, aep0, aep3 }
     d47:	fa07d5778f 	{ sub	a7, a7, a8; ae_roundsp16sym	aep5, aep1 }
     d4c:	f9ffe3d98f 	{ ae_sp16f.l.xu	aep5, a9, a8; ae_roundsp24q48sym	aep3, aeq3 }
     d51:	f8f7801f9f 	{ movi	a9, 31; ae_roundsp24q48sym	aep0, aeq2 }
     d56:	2f8976        	loop	a9, d89 <_Z13StopLap_shortP5fractS0_PsPKji+0x105>

00000d59 <_Z13StopLap_shortP5fractS0_PsPKji+0xd5>:
     d59:	fc1870821f 	{ ae_lp24x2.iu	aep0, a2, 8; ae_negsp24s	aep1, aep0 }
     d5e:	078b34        	ae_negsp24s	aep3, aep3
     d61:	ca06b093ff 	{ ae_lp24x2.iu	aep1, a3, -8; ae_sllisp24s	aep4, aep1, 1 }
     d66:	ea04f0a5ff 	{ ae_lp24x2.iu	aep2, a5, -8; ae_mulfp24s.hl	aeq1, aep1, aep0 }
     d6b:	0940c4        	ae_roundsp16sym	aep4, aep4
     d6e:	e805b0841f 	{ ae_lp24x2.iu	aep0, a4, 8; ae_mulfp24s.lh	aeq0, aep1, aep0 }
     d73:	c80ee3ca8f 	{ ae_sp16f.l.xu	aep4, a10, a8; ae_sllisp24s	aep1, aep3, 1 }
     d78:	012024        	ae_mulafp24s.lh	aeq0, aep2, aep0
     d7b:	091094        	ae_roundsp16sym	aep1, aep1
     d7e:	e20b63978f 	{ ae_sp16f.l.xu	aep1, a7, a8; ae_mulafp24s.hl	aeq1, aep2, aep0 }
     d83:	1b8c04        	ae_roundsp24q48sym	aep0, aeq0
     d86:	1b9c34        	ae_roundsp24q48sym	aep3, aeq1

00000d89 <_Z13StopLap_shortP5fractS0_PsPKji+0x105>:
     d89:	078824        	ae_negsp24s	aep2, aep0
     d8c:	078b34        	ae_negsp24s	aep3, aep3
     d8f:	0bb0f4        	ae_sllisp24s	aep7, aep3, 1
     d92:	0ba094        	ae_sllisp24s	aep1, aep2, 1
     d95:	f80793977f 	{ or	a9, a7, a7; ae_roundsp16sym	aep0, aep1 }
     d9a:	fb1fa38a8f 	{ ae_sp16f.l.xu	aep0, a10, a8; ae_roundsp16sym	aep6, aep7 }
     d9f:	43e984        	ae_sp16f.l.xu	aep6, a9, a8
     da2:	f01d           	retw.n

00000da4 <_Z8StartLapP5fractS0_i>:
     da4:	004136        	entry	a1, 32
     da7:	f8c222        	addi	a2, a2, -8
     daa:	061c           	movi.n	a6, 16
     dac:	a09430        	addx4	a9, a4, a3
     daf:	1154f0        	slli	a5, a4, 1
     db2:	1155e0        	slli	a5, a5, 2
     db5:	c09950        	sub	a9, a9, a5
     db8:	c03350        	sub	a3, a3, a5
     dbb:	f03d           	nop.n
     dbd:	158676        	loop	a6, dd6 <_Z8StartLapP5fractS0_i+0x32>
     dc0:	540214        	ae_lp24x2.i	aep0, a2, 8
     dc3:	dc0170a22f 	{ ae_lp24x2.iu	aep2, a2, 16; ae_selp24.hh	aep1, aep0, aep0 }
     dc8:	dc4968135f 	{ ae_sp24s.l.xu	aep1, a3, a5; ae_selp24.hh	aep1, aep2, aep2 }
     dcd:	4f8954        	ae_sp24s.l.xu	aep0, a9, a5
     dd0:	4f9354        	ae_sp24s.l.xu	aep1, a3, a5
     dd3:	4fa954        	ae_sp24s.l.xu	aep2, a9, a5

00000dd6 <_Z8StartLapP5fractS0_i+0x32>:
     dd6:	f01d           	retw.n

00000dd8 <_Z6NoLap2P5fractS0_i>:
     dd8:	004136        	entry	a1, 32
     ddb:	dfa062        	movi	a6, 223
     dde:	a09430        	addx4	a9, a4, a3
     de1:	07d272        	addmi	a7, a2, 0x700
     de4:	1154f0        	slli	a5, a4, 1
     de7:	1155e0        	slli	a5, a5, 2
     dea:	5497f4        	ae_lp24x2.iu	aep1, a7, -8
     ded:	fc3813277f 	{ or	a2, a7, a7; ae_negsp24s	aep0, aep1 }
     df2:	dc0155995f 	{ sub	a9, a9, a5; ae_selp24.hh	aep1, aep0, aep0 }
     df7:	c90295335f 	{ sub	a3, a3, a5; ae_sllisp24s	aep2, aep0, 1 }
     dfc:	f03d           	nop.n
     dfe:	118676        	loop	a6, e13 <_Z6NoLap2P5fractS0_i+0x3b>
     e01:	c806f082ff 	{ ae_lp24x2.iu	aep0, a2, -8; ae_sllisp24s	aep1, aep1, 1 }
     e06:	fc1826a35f 	{ ae_sp24f.l.xu	aep2, a3, a5; ae_negsp24s	aep0, aep0 }
     e0b:	dc0166995f 	{ ae_sp24f.l.xu	aep1, a9, a5; ae_selp24.hh	aep1, aep0, aep0 }
     e10:	0b80a4        	ae_sllisp24s	aep2, aep0, 1

00000e13 <_Z6NoLap2P5fractS0_i+0x3b>:
     e13:	53a354        	ae_sp24f.l.xu	aep2, a3, a5
     e16:	c90693699f 	{ or	a6, a9, a9; ae_sllisp24s	aep2, aep1, 1 }
     e1b:	53a654        	ae_sp24f.l.xu	aep2, a6, a5
     e1e:	f01d           	retw.n

00000e20 <_Z12NoLap2_shortP5fractPsi>:
     e20:	004136        	entry	a1, 32
     e23:	07d272        	addmi	a7, a2, 0x700
     e26:	1154f0        	slli	a5, a4, 1
     e29:	1155f0        	slli	a5, a5, 1
     e2c:	54b7f4        	ae_lp24x2.iu	aep3, a7, -8
     e2f:	fd7800df6f 	{ movi	a6, 223; ae_negsp24s	aep2, aep3 }
     e34:	c80a91943f 	{ addx2	a9, a4, a3; ae_sllisp24s	aep0, aep2, 1 }
     e39:	dc4953277f 	{ or	a2, a7, a7; ae_selp24.hh	aep1, aep2, aep2 }
     e3e:	c806d5995f 	{ sub	a9, a9, a5; ae_sllisp24s	aep1, aep1, 1 }
     e43:	f90395335f 	{ sub	a3, a3, a5; ae_roundsp16sym	aep2, aep0 }
     e48:	178676        	loop	a6, e63 <_Z12NoLap2_shortP5fractPsi+0x43>
     e4b:	f807f082ff 	{ ae_lp24x2.iu	aep0, a2, -8; ae_roundsp16sym	aep1, aep1 }
     e50:	fc1823a35f 	{ ae_sp16f.l.xu	aep2, a3, a5; ae_negsp24s	aep0, aep0 }
     e55:	dc0163995f 	{ ae_sp16f.l.xu	aep1, a9, a5; ae_selp24.hh	aep1, aep0, aep0 }
     e5a:	0b8084        	ae_sllisp24s	aep0, aep0, 1
     e5d:	0b9094        	ae_sllisp24s	aep1, aep1, 1
     e60:	0900a4        	ae_roundsp16sym	aep2, aep0

00000e63 <_Z12NoLap2_shortP5fractPsi+0x43>:
     e63:	43a354        	ae_sp16f.l.xu	aep2, a3, a5
     e66:	fa0793699f 	{ or	a6, a9, a9; ae_roundsp16sym	aep4, aep1 }
     e6b:	43c654        	ae_sp16f.l.xu	aep4, a6, a5
     e6e:	f01d           	retw.n

00000e70 <_Z6NoLap1P5fractS0_i>:
     e70:	004136        	entry	a1, 32
     e73:	07d222        	addmi	a2, a2, 0x700
     e76:	70a062        	movi	a6, 112
     e79:	a09430        	addx4	a9, a4, a3
     e7c:	1154f0        	slli	a5, a4, 1
     e7f:	1155e0        	slli	a5, a5, 2
     e82:	c09950        	sub	a9, a9, a5
     e85:	c03350        	sub	a3, a3, a5
     e88:	f03d           	nop.n
     e8a:	198676        	loop	a6, ea7 <_Z6NoLap1P5fractS0_i+0x37>
     e8d:	5402f4        	ae_lp24x2.i	aep0, a2, -8
     e90:	fc187082ef 	{ ae_lp24x2.iu	aep0, a2, -16; ae_negsp24s	aep1, aep0 }
     e95:	dc2568135f 	{ ae_sp24s.l.xu	aep1, a3, a5; ae_selp24.hh	aep1, aep1, aep1 }
     e9a:	fc1828195f 	{ ae_sp24s.l.xu	aep1, a9, a5; ae_negsp24s	aep0, aep0 }
     e9f:	dc0128035f 	{ ae_sp24s.l.xu	aep0, a3, a5; ae_selp24.hh	aep0, aep0, aep0 }
     ea4:	4f8954        	ae_sp24s.l.xu	aep0, a9, a5

00000ea7 <_Z6NoLap1P5fractS0_i+0x37>:
     ea7:	f01d           	retw.n

00000ea9 <_Z6NoLap1P5fractS0_i+0x39>:
     ea9:	000000                                        ...

00000eac <_Z26CLongBlock_FrequencyToTimeP28CAacDecoderStaticChannelInfoP22CAacDecoderChannelInfoP5fractiiiS4_>:
     eac:	00a136        	entry	a1, 80
     eaf:	100282        	l8ui	a8, a2, 16
     eb2:	05fd           	mov.n	a15, a5
     eb4:	06ed           	mov.n	a14, a6
     eb6:	7358           	l32i.n	a5, a3, 28
     eb8:	8368           	l32i.n	a6, a3, 32
     eba:	23a800        	sext	a10, a8, 7
     ebd:	048780        	extui	a8, a8, 7, 1
     ec0:	0ac856        	bnez	a8, f70 <_Z26CLongBlock_FrequencyToTimeP28CAacDecoderStaticChannelInfoP22CAacDecoderChannelInfoP5fractiiiS4_+0xc4>
     ec3:	b1e9           	s32i.n	a14, a1, 44
     ec5:	a1f9           	s32i.n	a15, a1, 40
     ec7:	022aa6        	blti	a10, 2, ecd <_Z26CLongBlock_FrequencyToTimeP28CAacDecoderStaticChannelInfoP22CAacDecoderChannelInfoP5fractiiiS4_+0x21>
     eca:	002886        	j	f70 <_Z26CLongBlock_FrequencyToTimeP28CAacDecoderStaticChannelInfoP22CAacDecoderChannelInfoP5fractiiiS4_+0xc4>
     ecd:	1421c2        	l32i	a12, a1, 80
     ed0:	10c1b2        	addi	a11, a1, 16
     ed3:	a0da20        	addx4	a13, a10, a2
     ed6:	fc5781        	l32r	a8, 34 (b14 <_Z27CLongBlock_InverseTransformP5fractPiS0_>)
     ed9:	05ad           	mov.n	a10, a5
     edb:	0de8           	l32i.n	a14, a13, 0
     edd:	91e9           	s32i.n	a14, a1, 36
     edf:	2dd8           	l32i.n	a13, a13, 8
     ee1:	81d9           	s32i.n	a13, a1, 32
     ee3:	0008e0        	callx8	a8
     ee6:	41c8           	l32i.n	a12, a1, 16
     ee8:	26bd           	ae_l16si.n	a11, a6, 0
     eea:	a1d8           	l32i.n	a13, a1, 40
     eec:	5268           	l32i.n	a6, a2, 20
     eee:	bbca           	add.n	a11, a11, a12
     ef0:	e6cbb2        	addi	a11, a11, -26
     ef3:	021be6        	bgei	a11, 1, ef9 <_Z26CLongBlock_FrequencyToTimeP28CAacDecoderStaticChannelInfoP22CAacDecoderChannelInfoP5fractiiiS4_+0x4d>
     ef6:	004ec6        	j	1035 <_Z26CLongBlock_FrequencyToTimeP28CAacDecoderStaticChannelInfoP22CAacDecoderChannelInfoP5fractiiiS4_+0x189>
     ef9:	f8c582        	addi	a8, a5, -8
     efc:	0316b4        	wur.ae_sar	a11
     eff:	00a192        	movi	a9, 0x100
     f02:	0f8976        	loop	a9, f15 <_Z26CLongBlock_FrequencyToTimeP28CAacDecoderStaticChannelInfoP22CAacDecoderChannelInfoP5fractiiiS4_+0x69>
     f05:	540814        	ae_lp24x2.i	aep0, a8, 8
     f08:	f823f0082f 	{ ae_lp24x2.i	aep0, a8, 16; ae_sllssp24s	aep1, aep0 }
     f0d:	f823b7181f 	{ ae_sp24x2s.i	aep1, a8, 8; ae_sllssp24s	aep0, aep0 }
     f12:	568824        	ae_sp24x2s.iu	aep0, a8, 16

00000f15 <_Z26CLongBlock_FrequencyToTimeP28CAacDecoderStaticChannelInfoP22CAacDecoderChannelInfoP5fractiiiS4_+0x69>:
     f15:	03c8           	l32i.n	a12, a3, 0
     f17:	062d16        	beqz	a13, f7d <_Z26CLongBlock_FrequencyToTimeP28CAacDecoderStaticChannelInfoP22CAacDecoderChannelInfoP5fractiiiS4_+0xd1>
     f1a:	b1e8           	l32i.n	a14, a1, 44
     f1c:	90ee40        	addx2	a14, a14, a4
     f1f:	51e9           	s32i.n	a14, a1, 20

00000f21 <_Z26CLongBlock_FrequencyToTimeP28CAacDecoderStaticChannelInfoP22CAacDecoderChannelInfoP5fractiiiS4_+0x75>:
     f21:	030ca2        	l8ui	a10, a12, 3
     f24:	239a00        	sext	a9, a10, 7
     f27:	05aa16        	beqz	a10, f85 <_Z26CLongBlock_FrequencyToTimeP28CAacDecoderStaticChannelInfoP22CAacDecoderChannelInfoP5fractiiiS4_+0xd9>
     f2a:	f90b           	addi.n	a15, a9, -1
     f2c:	0c1f16        	beqz	a15, ff1 <_Z26CLongBlock_FrequencyToTimeP28CAacDecoderStaticChannelInfoP22CAacDecoderChannelInfoP5fractiiiS4_+0x145>
     f2f:	3f3966        	bnei	a9, 3, f72 <_Z26CLongBlock_FrequencyToTimeP28CAacDecoderStaticChannelInfoP22CAacDecoderChannelInfoP5fractiiiS4_+0xc6>
     f32:	1102a2        	l8ui	a10, a2, 17
     f35:	239a00        	sext	a9, a10, 7
     f38:	fec982        	addi	a8, a9, -2
     f3b:	11e816        	beqz	a8, 105d <_Z26CLongBlock_FrequencyToTimeP28CAacDecoderStaticChannelInfoP22CAacDecoderChannelInfoP5fractiiiS4_+0x1b1>
     f3e:	b90b           	addi.n	a11, a9, -1
     f40:	119b16        	beqz	a11, 105d <_Z26CLongBlock_FrequencyToTimeP28CAacDecoderStaticChannelInfoP22CAacDecoderChannelInfoP5fractiiiS4_+0x1b1>
     f43:	1aca16        	beqz	a10, 10f3 <_Z26CLongBlock_FrequencyToTimeP28CAacDecoderStaticChannelInfoP22CAacDecoderChannelInfoP5fractiiiS4_+0x247>
     f46:	fdc9d2        	addi	a13, a9, -3
     f49:	1a6d16        	beqz	a13, 10f3 <_Z26CLongBlock_FrequencyToTimeP28CAacDecoderStaticChannelInfoP22CAacDecoderChannelInfoP5fractiiiS4_+0x247>
     f4c:	f8c6e2        	addi	a14, a6, -8
     f4f:	71e9           	s32i.n	a14, a1, 28

00000f51 <_Z26CLongBlock_FrequencyToTimeP28CAacDecoderStaticChannelInfoP22CAacDecoderChannelInfoP5fractiiiS4_+0xa5>:
     f51:	f8c582        	addi	a8, a5, -8
     f54:	7198           	l32i.n	a9, a1, 28
     f56:	00a1a2        	movi	a10, 0x100
     f59:	058a76        	loop	a10, f62 <_Z26CLongBlock_FrequencyToTimeP28CAacDecoderStaticChannelInfoP22CAacDecoderChannelInfoP5fractiiiS4_+0xb6>
     f5c:	548814        	ae_lp24x2.iu	aep0, a8, 8
     f5f:	568914        	ae_sp24x2s.iu	aep0, a9, 8

00000f62 <_Z26CLongBlock_FrequencyToTimeP28CAacDecoderStaticChannelInfoP22CAacDecoderChannelInfoP5fractiiiS4_+0xb6>:
     f62:	030cf2        	l8ui	a15, a12, 3
     f65:	020c82        	l8ui	a8, a12, 2
     f68:	104282        	s8i	a8, a2, 16
     f6b:	1142f2        	s8i	a15, a2, 17
     f6e:	f01d           	retw.n

00000f70 <_Z26CLongBlock_FrequencyToTimeP28CAacDecoderStaticChannelInfoP22CAacDecoderChannelInfoP5fractiiiS4_+0xc4>:
     f70:	f01d           	retw.n

00000f72 <_Z26CLongBlock_FrequencyToTimeP28CAacDecoderStaticChannelInfoP22CAacDecoderChannelInfoP5fractiiiS4_+0xc6>:
     f72:	020c92        	l8ui	a9, a12, 2
     f75:	104292        	s8i	a9, a2, 16
     f78:	1142a2        	s8i	a10, a2, 17
     f7b:	f01d           	retw.n

00000f7d <_Z26CLongBlock_FrequencyToTimeP28CAacDecoderStaticChannelInfoP22CAacDecoderChannelInfoP5fractiiiS4_+0xd1>:
     f7d:	b1a8           	l32i.n	a10, a1, 44
     f7f:	a04a40        	addx4	a4, a10, a4
     f82:	ffe6c6        	j	f21 <_Z26CLongBlock_FrequencyToTimeP28CAacDecoderStaticChannelInfoP22CAacDecoderChannelInfoP5fractiiiS4_+0x75>

00000f85 <_Z26CLongBlock_FrequencyToTimeP28CAacDecoderStaticChannelInfoP22CAacDecoderChannelInfoP5fractiiiS4_+0xd9>:
     f85:	1102b2        	l8ui	a11, a2, 17
     f88:	239b00        	sext	a9, a11, 7
     f8b:	7bac           	beqz.n	a11, fb6 <_Z26CLongBlock_FrequencyToTimeP28CAacDecoderStaticChannelInfoP22CAacDecoderChannelInfoP5fractiiiS4_+0x10a>
     f8d:	253926        	beqi	a9, 3, fb6 <_Z26CLongBlock_FrequencyToTimeP28CAacDecoderStaticChannelInfoP22CAacDecoderChannelInfoP5fractiiiS4_+0x10a>
     f90:	021926        	beqi	a9, 1, f96 <_Z26CLongBlock_FrequencyToTimeP28CAacDecoderStaticChannelInfoP22CAacDecoderChannelInfoP5fractiiiS4_+0xea>
     f93:	392966        	bnei	a9, 2, fd0 <_Z26CLongBlock_FrequencyToTimeP28CAacDecoderStaticChannelInfoP22CAacDecoderChannelInfoP5fractiiiS4_+0x124>
     f96:	91d8           	l32i.n	a13, a1, 36
     f98:	81e8           	l32i.n	a14, a1, 32
     f9a:	07fd           	mov.n	a15, a7
     f9c:	05ad           	mov.n	a10, a5
     f9e:	06bd           	mov.n	a11, a6
     fa0:	5198           	l32i.n	a9, a1, 20
     fa2:	a1c8           	l32i.n	a12, a1, 40
     fa4:	fc2581        	l32r	a8, 38 (3ab8 <_Z19ShortLongLapIllegalP5fractS0_S0_PKjS2_ii>)
     fa7:	01c9           	s32i.n	a12, a1, 0
     fa9:	9349c0        	movnez	a4, a9, a12
     fac:	04cd           	mov.n	a12, a4
     fae:	0008e0        	callx8	a8
     fb1:	000646        	j	fce <_Z26CLongBlock_FrequencyToTimeP28CAacDecoderStaticChannelInfoP22CAacDecoderChannelInfoP5fractiiiS4_+0x122>

00000fb4 <_Z26CLongBlock_FrequencyToTimeP28CAacDecoderStaticChannelInfoP22CAacDecoderChannelInfoP5fractiiiS4_+0x108>:
	...

00000fb6 <_Z26CLongBlock_FrequencyToTimeP28CAacDecoderStaticChannelInfoP22CAacDecoderChannelInfoP5fractiiiS4_+0x10a>:
     fb6:	a1d8           	l32i.n	a13, a1, 40
     fb8:	1c9d16        	beqz	a13, 1185 <_Z26CLongBlock_FrequencyToTimeP28CAacDecoderStaticChannelInfoP22CAacDecoderChannelInfoP5fractiiiS4_+0x2d9>
     fbb:	91d8           	l32i.n	a13, a1, 36
     fbd:	07fd           	mov.n	a15, a7
     fbf:	05ad           	mov.n	a10, a5
     fc1:	06bd           	mov.n	a11, a6
     fc3:	fc1e81        	l32r	a8, 3c (778 <_Z10Lap1_shortP5fractS0_PsPKjii>)
     fc6:	51c8           	l32i.n	a12, a1, 20
     fc8:	00a2e2        	movi	a14, 0x200
     fcb:	0008e0        	callx8	a8

00000fce <_Z26CLongBlock_FrequencyToTimeP28CAacDecoderStaticChannelInfoP22CAacDecoderChannelInfoP5fractiiiS4_+0x122>:
     fce:	03c8           	l32i.n	a12, a3, 0

00000fd0 <_Z26CLongBlock_FrequencyToTimeP28CAacDecoderStaticChannelInfoP22CAacDecoderChannelInfoP5fractiiiS4_+0x124>:
     fd0:	f8c582        	addi	a8, a5, -8
     fd3:	f8c692        	addi	a9, a6, -8
     fd6:	00a1a2        	movi	a10, 0x100
     fd9:	058a76        	loop	a10, fe2 <_Z26CLongBlock_FrequencyToTimeP28CAacDecoderStaticChannelInfoP22CAacDecoderChannelInfoP5fractiiiS4_+0x136>
     fdc:	548814        	ae_lp24x2.iu	aep0, a8, 8
     fdf:	568914        	ae_sp24x2s.iu	aep0, a9, 8

00000fe2 <_Z26CLongBlock_FrequencyToTimeP28CAacDecoderStaticChannelInfoP22CAacDecoderChannelInfoP5fractiiiS4_+0x136>:
     fe2:	030cf2        	l8ui	a15, a12, 3
     fe5:	020c82        	l8ui	a8, a12, 2
     fe8:	104282        	s8i	a8, a2, 16
     feb:	1142f2        	s8i	a15, a2, 17
     fee:	f01d           	retw.n

00000ff0 <_Z26CLongBlock_FrequencyToTimeP28CAacDecoderStaticChannelInfoP22CAacDecoderChannelInfoP5fractiiiS4_+0x144>:
	...

00000ff1 <_Z26CLongBlock_FrequencyToTimeP28CAacDecoderStaticChannelInfoP22CAacDecoderChannelInfoP5fractiiiS4_+0x145>:
     ff1:	1102a2        	l8ui	a10, a2, 17
     ff4:	239a00        	sext	a9, a10, 7
     ff7:	0dda16        	beqz	a10, 10d8 <_Z26CLongBlock_FrequencyToTimeP28CAacDecoderStaticChannelInfoP22CAacDecoderChannelInfoP5fractiiiS4_+0x22c>
     ffa:	fdc9b2        	addi	a11, a9, -3
     ffd:	0d7b16        	beqz	a11, 10d8 <_Z26CLongBlock_FrequencyToTimeP28CAacDecoderStaticChannelInfoP22CAacDecoderChannelInfoP5fractiiiS4_+0x22c>
    1000:	c90b           	addi.n	a12, a9, -1
    1002:	15fc16        	beqz	a12, 1165 <_Z26CLongBlock_FrequencyToTimeP28CAacDecoderStaticChannelInfoP22CAacDecoderChannelInfoP5fractiiiS4_+0x2b9>
    1005:	fec9d2        	addi	a13, a9, -2
    1008:	159d16        	beqz	a13, 1165 <_Z26CLongBlock_FrequencyToTimeP28CAacDecoderStaticChannelInfoP22CAacDecoderChannelInfoP5fractiiiS4_+0x2b9>

0000100b <_Z26CLongBlock_FrequencyToTimeP28CAacDecoderStaticChannelInfoP22CAacDecoderChannelInfoP5fractiiiS4_+0x15f>:
    100b:	01d5a2        	addmi	a10, a5, 0x100
    100e:	fc0c81        	l32r	a8, 40 (e70 <_Z6NoLap1P5fractS0_i>)
    1011:	06bd           	mov.n	a11, a6
    1013:	1c0c           	movi.n	a12, 1
    1015:	0008e0        	callx8	a8
    1018:	05ad           	mov.n	a10, a5
    101a:	fc0a81        	l32r	a8, 44 (da4 <_Z8StartLapP5fractS0_i>)
    101d:	07d6b2        	addmi	a11, a6, 0x700
    1020:	1c0c           	movi.n	a12, 1
    1022:	0008e0        	callx8	a8
    1025:	0398           	l32i.n	a9, a3, 0
    1027:	0209a2        	l8ui	a10, a9, 2
    102a:	1042a2        	s8i	a10, a2, 16
    102d:	030992        	l8ui	a9, a9, 3
    1030:	114292        	s8i	a9, a2, 17
    1033:	f01d           	retw.n

00001035 <_Z26CLongBlock_FrequencyToTimeP28CAacDecoderStaticChannelInfoP22CAacDecoderChannelInfoP5fractiiiS4_+0x189>:
    1035:	edcb16        	beqz	a11, f15 <_Z26CLongBlock_FrequencyToTimeP28CAacDecoderStaticChannelInfoP22CAacDecoderChannelInfoP5fractiiiS4_+0x69>
    1038:	f8c582        	addi	a8, a5, -8
    103b:	00a192        	movi	a9, 0x100
    103e:	60c0b0        	neg	a12, a11
    1041:	0316c4        	wur.ae_sar	a12
    1044:	f03d           	nop.n
    1046:	0f8976        	loop	a9, 1059 <_Z26CLongBlock_FrequencyToTimeP28CAacDecoderStaticChannelInfoP22CAacDecoderChannelInfoP5fractiiiS4_+0x1ad>
    1049:	540814        	ae_lp24x2.i	aep0, a8, 8
    104c:	f8a3f0082f 	{ ae_lp24x2.i	aep0, a8, 16; ae_srasp24	aep1, aep0 }
    1051:	f8a3b7181f 	{ ae_sp24x2s.i	aep1, a8, 8; ae_srasp24	aep0, aep0 }
    1056:	568824        	ae_sp24x2s.iu	aep0, a8, 16

00001059 <_Z26CLongBlock_FrequencyToTimeP28CAacDecoderStaticChannelInfoP22CAacDecoderChannelInfoP5fractiiiS4_+0x1ad>:
    1059:	ffae06        	j	f15 <_Z26CLongBlock_FrequencyToTimeP28CAacDecoderStaticChannelInfoP22CAacDecoderChannelInfoP5fractiiiS4_+0x69>

0000105c <_Z26CLongBlock_FrequencyToTimeP28CAacDecoderStaticChannelInfoP22CAacDecoderChannelInfoP5fractiiiS4_+0x1b0>:
	...

0000105d <_Z26CLongBlock_FrequencyToTimeP28CAacDecoderStaticChannelInfoP22CAacDecoderChannelInfoP5fractiiiS4_+0x1b1>:
    105d:	11b7f0        	slli	a11, a7, 1
    1060:	f8c6e2        	addi	a14, a6, -8
    1063:	08d5f2        	addmi	a15, a5, 0x800
    1066:	a1d8           	l32i.n	a13, a1, 40
    1068:	61f9           	s32i.n	a15, a1, 24
    106a:	71e9           	s32i.n	a14, a1, 28
    106c:	0a8d16        	beqz	a13, 1118 <_Z26CLongBlock_FrequencyToTimeP28CAacDecoderStaticChannelInfoP22CAacDecoderChannelInfoP5fractiiiS4_+0x26c>
    106f:	11bbf0        	slli	a11, a11, 1
    1072:	5148           	l32i.n	a4, a1, 20
    1074:	0e8d           	mov.n	a8, a14
    1076:	54b814        	ae_lp24x2.iu	aep3, a8, 8
    1079:	c80e80dfcf 	{ movi	a12, 223; ae_sllisp24s	aep0, aep3, 1 }
    107e:	dd6d11a74f 	{ addx2	a10, a7, a4; ae_selp24.hh	aep2, aep3, aep3 }
    1083:	c80ad5aabf 	{ sub	a10, a10, a11; ae_sllisp24s	aep1, aep2, 1 }
    1088:	f807d594bf 	{ sub	a9, a4, a11; ae_roundsp16sym	aep1, aep1 }
    108d:	148c76        	loop	a12, 10a5 <_Z26CLongBlock_FrequencyToTimeP28CAacDecoderStaticChannelInfoP22CAacDecoderChannelInfoP5fractiiiS4_+0x1f9>
    1090:	f903b0881f 	{ ae_lp24x2.iu	aep0, a8, 8; ae_roundsp16sym	aep2, aep0 }
    1095:	dc016399bf 	{ ae_sp16f.l.xu	aep1, a9, a11; ae_selp24.hh	aep1, aep0, aep0 }
    109a:	c802a3aabf 	{ ae_sp16f.l.xu	aep2, a10, a11; ae_sllisp24s	aep0, aep0, 1 }
    109f:	0b90a4        	ae_sllisp24s	aep2, aep1, 1
    10a2:	092094        	ae_roundsp16sym	aep1, aep2

000010a5 <_Z26CLongBlock_FrequencyToTimeP28CAacDecoderStaticChannelInfoP22CAacDecoderChannelInfoP5fractiiiS4_+0x1f9>:
    10a5:	81d8           	l32i.n	a13, a1, 32
    10a7:	07ed           	mov.n	a14, a7
    10a9:	0bcd           	mov.n	a12, a11
    10ab:	fbe781        	l32r	a8, 48 (c84 <_Z13StopLap_shortP5fractS0_PsPKji>)
    10ae:	06bd           	mov.n	a11, a6
    10b0:	fa03a399cf 	{ ae_sp16f.l.xu	aep1, a9, a12; ae_roundsp16sym	aep4, aep0 }
    10b5:	43cac4        	ae_sp16f.l.xu	aep4, a10, a12
    10b8:	05ad           	mov.n	a10, a5
    10ba:	20c440        	or	a12, a4, a4
    10bd:	0008e0        	callx8	a8
    10c0:	61a8           	l32i.n	a10, a1, 24
    10c2:	07cd           	mov.n	a12, a7
    10c4:	b0b770        	addx8	a11, a7, a7
    10c7:	fbe181        	l32r	a8, 4c (e20 <_Z12NoLap2_shortP5fractPsi>)
    10ca:	11bb90        	slli	a11, a11, 7
    10cd:	b4ba           	add.n	a11, a4, a11
    10cf:	0008e0        	callx8	a8

000010d2 <_Z26CLongBlock_FrequencyToTimeP28CAacDecoderStaticChannelInfoP22CAacDecoderChannelInfoP5fractiiiS4_+0x226>:
    10d2:	03c8           	l32i.n	a12, a3, 0
    10d4:	ff9e46        	j	f51 <_Z26CLongBlock_FrequencyToTimeP28CAacDecoderStaticChannelInfoP22CAacDecoderChannelInfoP5fractiiiS4_+0xa5>

000010d7 <_Z26CLongBlock_FrequencyToTimeP28CAacDecoderStaticChannelInfoP22CAacDecoderChannelInfoP5fractiiiS4_+0x22b>:
	...

000010d8 <_Z26CLongBlock_FrequencyToTimeP28CAacDecoderStaticChannelInfoP22CAacDecoderChannelInfoP5fractiiiS4_+0x22c>:
    10d8:	a1c8           	l32i.n	a12, a1, 40
    10da:	0bfc16        	beqz	a12, 119d <_Z26CLongBlock_FrequencyToTimeP28CAacDecoderStaticChannelInfoP22CAacDecoderChannelInfoP5fractiiiS4_+0x2f1>
    10dd:	07fd           	mov.n	a15, a7
    10df:	91d8           	l32i.n	a13, a1, 36
    10e1:	05ad           	mov.n	a10, a5
    10e3:	06bd           	mov.n	a11, a6
    10e5:	fbd581        	l32r	a8, 3c (778 <_Z10Lap1_shortP5fractS0_PsPKjii>)
    10e8:	51c8           	l32i.n	a12, a1, 20
    10ea:	00a2e2        	movi	a14, 0x200
    10ed:	0008e0        	callx8	a8
    10f0:	ffc5c6        	j	100b <_Z26CLongBlock_FrequencyToTimeP28CAacDecoderStaticChannelInfoP22CAacDecoderChannelInfoP5fractiiiS4_+0x15f>

000010f3 <_Z26CLongBlock_FrequencyToTimeP28CAacDecoderStaticChannelInfoP22CAacDecoderChannelInfoP5fractiiiS4_+0x247>:
    10f3:	91d8           	l32i.n	a13, a1, 36
    10f5:	81e8           	l32i.n	a14, a1, 32
    10f7:	07fd           	mov.n	a15, a7
    10f9:	05ad           	mov.n	a10, a5
    10fb:	06bd           	mov.n	a11, a6
    10fd:	5198           	l32i.n	a9, a1, 20
    10ff:	a1c8           	l32i.n	a12, a1, 40
    1101:	fbd381        	l32r	a8, 50 (3898 <_Z19LongShortLapIllegalP5fractS0_S0_PKjS2_ii>)
    1104:	01c9           	s32i.n	a12, a1, 0
    1106:	9349c0        	movnez	a4, a9, a12
    1109:	04cd           	mov.n	a12, a4
    110b:	0008e0        	callx8	a8
    110e:	03c8           	l32i.n	a12, a3, 0
    1110:	f8c6d2        	addi	a13, a6, -8
    1113:	71d9           	s32i.n	a13, a1, 28
    1115:	ff8e06        	j	f51 <_Z26CLongBlock_FrequencyToTimeP28CAacDecoderStaticChannelInfoP22CAacDecoderChannelInfoP5fractiiiS4_+0xa5>

00001118 <_Z26CLongBlock_FrequencyToTimeP28CAacDecoderStaticChannelInfoP22CAacDecoderChannelInfoP5fractiiiS4_+0x26c>:
    1118:	0e8d           	mov.n	a8, a14
    111a:	e0a0c2        	movi	a12, 224
    111d:	a0a740        	addx4	a10, a7, a4
    1120:	11bbe0        	slli	a11, a11, 2
    1123:	c094b0        	sub	a9, a4, a11
    1126:	c0aab0        	sub	a10, a10, a11
    1129:	108c76        	loop	a12, 113d <_Z26CLongBlock_FrequencyToTimeP28CAacDecoderStaticChannelInfoP22CAacDecoderChannelInfoP5fractiiiS4_+0x291>
    112c:	548814        	ae_lp24x2.iu	aep0, a8, 8
    112f:	1a8894        	ae_selp24.hh	aep1, aep0, aep0
    1132:	0b9094        	ae_sllisp24s	aep1, aep1, 1
    1135:	c802a699bf 	{ ae_sp24f.l.xu	aep1, a9, a11; ae_sllisp24s	aep0, aep0, 1 }
    113a:	538ab4        	ae_sp24f.l.xu	aep0, a10, a11

0000113d <_Z26CLongBlock_FrequencyToTimeP28CAacDecoderStaticChannelInfoP22CAacDecoderChannelInfoP5fractiiiS4_+0x291>:
    113d:	06bd           	mov.n	a11, a6
    113f:	81d8           	l32i.n	a13, a1, 32
    1141:	05ad           	mov.n	a10, a5
    1143:	fbc481        	l32r	a8, 54 (b78 <_Z7StopLapP5fractS0_S0_PKji>)
    1146:	04cd           	mov.n	a12, a4
    1148:	20e770        	or	a14, a7, a7
    114b:	0008e0        	callx8	a8
    114e:	61a8           	l32i.n	a10, a1, 24
    1150:	07cd           	mov.n	a12, a7
    1152:	b0b770        	addx8	a11, a7, a7
    1155:	fbc081        	l32r	a8, 58 (dd8 <_Z6NoLap2P5fractS0_i>)
    1158:	11bb80        	slli	a11, a11, 8
    115b:	b4ba           	add.n	a11, a4, a11
    115d:	0008e0        	callx8	a8
    1160:	ffdb86        	j	10d2 <_Z26CLongBlock_FrequencyToTimeP28CAacDecoderStaticChannelInfoP22CAacDecoderChannelInfoP5fractiiiS4_+0x226>

00001163 <_Z26CLongBlock_FrequencyToTimeP28CAacDecoderStaticChannelInfoP22CAacDecoderChannelInfoP5fractiiiS4_+0x2b7>:
	...

00001165 <_Z26CLongBlock_FrequencyToTimeP28CAacDecoderStaticChannelInfoP22CAacDecoderChannelInfoP5fractiiiS4_+0x2b9>:
    1165:	07fd           	mov.n	a15, a7
    1167:	91d8           	l32i.n	a13, a1, 36
    1169:	81e8           	l32i.n	a14, a1, 32
    116b:	05ad           	mov.n	a10, a5
    116d:	06bd           	mov.n	a11, a6
    116f:	5198           	l32i.n	a9, a1, 20
    1171:	a1c8           	l32i.n	a12, a1, 40
    1173:	fbb181        	l32r	a8, 38 (3ab8 <_Z19ShortLongLapIllegalP5fractS0_S0_PKjS2_ii>)
    1176:	01c9           	s32i.n	a12, a1, 0
    1178:	9349c0        	movnez	a4, a9, a12
    117b:	04cd           	mov.n	a12, a4
    117d:	0008e0        	callx8	a8
    1180:	ffa1c6        	j	100b <_Z26CLongBlock_FrequencyToTimeP28CAacDecoderStaticChannelInfoP22CAacDecoderChannelInfoP5fractiiiS4_+0x15f>

00001183 <_Z26CLongBlock_FrequencyToTimeP28CAacDecoderStaticChannelInfoP22CAacDecoderChannelInfoP5fractiiiS4_+0x2d7>:
	...

00001185 <_Z26CLongBlock_FrequencyToTimeP28CAacDecoderStaticChannelInfoP22CAacDecoderChannelInfoP5fractiiiS4_+0x2d9>:
    1185:	04cd           	mov.n	a12, a4
    1187:	91d8           	l32i.n	a13, a1, 36
    1189:	07fd           	mov.n	a15, a7
    118b:	05ad           	mov.n	a10, a5
    118d:	fbb381        	l32r	a8, 5c (618 <_Z4Lap1P5fractS0_S0_PKjii>)
    1190:	06bd           	mov.n	a11, a6
    1192:	00a2e2        	movi	a14, 0x200
    1195:	0008e0        	callx8	a8
    1198:	ff8c86        	j	fce <_Z26CLongBlock_FrequencyToTimeP28CAacDecoderStaticChannelInfoP22CAacDecoderChannelInfoP5fractiiiS4_+0x122>

0000119b <_Z26CLongBlock_FrequencyToTimeP28CAacDecoderStaticChannelInfoP22CAacDecoderChannelInfoP5fractiiiS4_+0x2ef>:
	...

0000119d <_Z26CLongBlock_FrequencyToTimeP28CAacDecoderStaticChannelInfoP22CAacDecoderChannelInfoP5fractiiiS4_+0x2f1>:
    119d:	07fd           	mov.n	a15, a7
    119f:	04cd           	mov.n	a12, a4
    11a1:	91d8           	l32i.n	a13, a1, 36
    11a3:	05ad           	mov.n	a10, a5
    11a5:	fbad81        	l32r	a8, 5c (618 <_Z4Lap1P5fractS0_S0_PKjii>)
    11a8:	06bd           	mov.n	a11, a6
    11aa:	00a2e2        	movi	a14, 0x200
    11ad:	0008e0        	callx8	a8
    11b0:	ff95c6        	j	100b <_Z26CLongBlock_FrequencyToTimeP28CAacDecoderStaticChannelInfoP22CAacDecoderChannelInfoP5fractiiiS4_+0x15f>

000011b3 <_Z26CLongBlock_FrequencyToTimeP28CAacDecoderStaticChannelInfoP22CAacDecoderChannelInfoP5fractiiiS4_+0x307>:
	...

000011b4 <_Z28CLongBlock_ScaleSpectralDataP22CAacDecoderChannelInfo>:
    11b4:	004136        	entry	a1, 32
    11b7:	0258           	l32i.n	a5, a2, 0
    11b9:	02bd           	mov.n	a11, a2
    11bb:	9298           	l32i.n	a9, a2, 36
    11bd:	070522        	l8ui	a2, a5, 7
    11c0:	8b68           	l32i.n	a6, a11, 32
    11c2:	7bc8           	l32i.n	a12, a11, 28
    11c4:	232200        	sext	a2, a2, 7
    11c7:	02b2a6        	blti	a2, 16, 11cd <_Z28CLongBlock_ScaleSpectralDataP22CAacDecoderChannelInfo+0x19>
    11ca:	0023c6        	j	125d <_Z28CLongBlock_ScaleSpectralDataP22CAacDecoderChannelInfo+0xa9>
    11cd:	401604        	ae_lp16f.i	aep1, a6, 0
    11d0:	fba4a1        	l32r	a10, 60 (109f0 <SamplingRateInfoTable>)
    11d3:	a08220        	addx4	a8, a2, a2
    11d6:	030542        	l8ui	a4, a5, 3
    11d9:	060522        	l8ui	a2, a5, 6
    11dc:	a088a0        	addx4	a8, a8, a10
    11df:	2838           	l32i.n	a3, a8, 8
    11e1:	4888           	l32i.n	a8, a8, 16
    11e3:	fec442        	addi	a4, a4, -2
    11e6:	232200        	sext	a2, a2, 7
    11e9:	938340        	movnez	a8, a3, a4
    11ec:	1212a6        	blti	a2, 1, 1202 <_Z28CLongBlock_ScaleSpectralDataP22CAacDecoderChannelInfo+0x4e>
    11ef:	320b           	addi.n	a3, a2, -1
    11f1:	fec922        	addi	a2, a9, -2
    11f4:	408214        	ae_lp16f.iu	aep0, a2, 2
    11f7:	04a376        	loopgtz	a3, 11ff <_Z28CLongBlock_ScaleSpectralDataP22CAacDecoderChannelInfo+0x4b>
    11fa:	d8066c821f 	{ ae_lp16f.iu	aep0, a2, 2; ae_maxp24s	aep1, aep1, aep0 }

000011ff <_Z28CLongBlock_ScaleSpectralDataP22CAacDecoderChannelInfo+0x4b>:
    11ff:	071814        	ae_maxp24s	aep1, aep1, aep0

00001202 <_Z28CLongBlock_ScaleSpectralDataP22CAacDecoderChannelInfo+0x4e>:
    1202:	1bf8           	l32i.n	a15, a11, 4
    1204:	361224        	ae_trunca16p24s.l	a2, aep1
    1207:	000ff2        	l8ui	a15, a15, 0
    120a:	e22b           	addi.n	a14, a2, 2
    120c:	932ef0        	movnez	a2, a14, a15
    120f:	662d           	ae_s16i.n	a2, a6, 0
    1211:	0605d2        	l8ui	a13, a5, 6
    1214:	23dd00        	sext	a13, a13, 7
    1217:	421da6        	blti	a13, 1, 125d <_Z28CLongBlock_ScaleSpectralDataP22CAacDecoderChannelInfo+0xa9>
    121a:	0a0c           	movi.n	a10, 0
    121c:	000506        	j	1234 <_Z28CLongBlock_ScaleSpectralDataP22CAacDecoderChannelInfo+0x80>

0000121f <_Z28CLongBlock_ScaleSpectralDataP22CAacDecoderChannelInfo+0x6b>:
    121f:	00000000                                ....

00001223 <_Z28CLongBlock_ScaleSpectralDataP22CAacDecoderChannelInfo+0x6f>:
    1223:	0b38           	l32i.n	a3, a11, 0
    1225:	882b           	addi.n	a8, a8, 2
    1227:	060332        	l8ui	a3, a3, 6
    122a:	992b           	addi.n	a9, a9, 2
    122c:	aa1b           	addi.n	a10, a10, 1
    122e:	233300        	sext	a3, a3, 7
    1231:	28aa37        	bge	a10, a3, 125d <_Z28CLongBlock_ScaleSpectralDataP22CAacDecoderChannelInfo+0xa9>

00001234 <_Z28CLongBlock_ScaleSpectralDataP22CAacDecoderChannelInfo+0x80>:
    1234:	294d           	ae_l16si.n	a4, a9, 0
    1236:	587d           	ae_l16ui.n	a7, a8, 2
    1238:	485d           	ae_l16ui.n	a5, a8, 0
    123a:	c04240        	sub	a4, a2, a4
    123d:	031644        	wur.ae_sar	a4
    1240:	dfa577        	bge	a5, a7, 1223 <_Z28CLongBlock_ScaleSpectralDataP22CAacDecoderChannelInfo+0x6f>
    1243:	a065c0        	addx4	a6, a5, a12
    1246:	f8c662        	addi	a6, a6, -8
    1249:	0d8076        	loop	a0, 125a <_Z28CLongBlock_ScaleSpectralDataP22CAacDecoderChannelInfo+0xa6>
    124c:	540614        	ae_lp24x2.i	aep0, a6, 8
    124f:	f8a380255e 	{ addi	a5, a5, 2; ae_srasp24	aep0, aep0 }
    1254:	568614        	ae_sp24x2s.iu	aep0, a6, 8
    1257:	c8a577        	bge	a5, a7, 1223 <_Z28CLongBlock_ScaleSpectralDataP22CAacDecoderChannelInfo+0x6f>

0000125a <_Z28CLongBlock_ScaleSpectralDataP22CAacDecoderChannelInfo+0xa6>:
    125a:	fffac6        	j	1249 <_Z28CLongBlock_ScaleSpectralDataP22CAacDecoderChannelInfo+0x95>

0000125d <_Z28CLongBlock_ScaleSpectralDataP22CAacDecoderChannelInfo+0xa9>:
    125d:	f01d           	retw.n

0000125f <_Z28CLongBlock_ScaleSpectralDataP22CAacDecoderChannelInfo+0xab>:
	...

00001260 <_Z10CPns_ApplyPP28CAacDecoderStaticChannelInfoPP22CAacDecoderChannelInfoi>:
    1260:	012136        	entry	a1, 144
    1263:	b129           	s32i.n	a2, a1, 44
    1265:	156132        	s32i	a3, a1, 84
    1268:	126142        	s32i	a4, a1, 72
    126b:	fb7fb1        	l32r	a11, 68 (b504f <_end+0xa4497>)
    126e:	a08430        	addx4	a8, a4, a3
    1271:	fb7ec1        	l32r	a12, 6c (9837f <_end+0x877c7>)
    1274:	fb7ca1        	l32r	a10, 64 (d7450 <_end+0xc6898>)
    1277:	fb7ed1        	l32r	a13, 70 (80000 <_end+0x6f448>)
    127a:	360d34        	ae_cvtq48a32s	aeq0, a13
    127d:	36ca34        	ae_cvtq48a32s	aeq3, a10
    1280:	364c34        	ae_cvtq48a32s	aeq1, a12
    1283:	186182        	s32i	a8, a1, 96
    1286:	368b34        	ae_cvtq48a32s	aeq2, a11
    1289:	0888           	l32i.n	a8, a8, 0
    128b:	35a214        	ae_slliq56	aeq2, aeq2, 8
    128e:	355214        	ae_slliq56	aeq1, aeq1, 8
    1291:	35f214        	ae_slliq56	aeq3, aeq3, 8
    1294:	ff84fa820f 	{ ae_slliq56	aeq0, aeq0, 8; ae_satq48s	aeq3, aeq3 }
    1299:	fc00fb32cf 	{ ae_sraiq56	aeq3, aeq3, 8; ae_satq48s	aeq0, aeq0 }
    129e:	fd04fb020f 	{ ae_sraiq56	aeq0, aeq0, 8; ae_satq48s	aeq1, aeq1 }
    12a3:	fe80fb124f 	{ ae_sraiq56	aeq1, aeq1, 8; ae_satq48s	aeq2, aeq2 }
    12a8:	35a234        	ae_sraiq56	aeq2, aeq2, 8
    12ab:	36aa04        	ae_trunca32q48	a10, aeq2
    12ae:	0898           	l32i.n	a9, a8, 0
    12b0:	369b04        	ae_trunca32q48	a11, aeq1
    12b3:	368c04        	ae_trunca32q48	a12, aeq0
    12b6:	01c9           	s32i.n	a12, a1, 0
    12b8:	11b9           	s32i.n	a11, a1, 4
    12ba:	5888           	l32i.n	a8, a8, 20
    12bc:	21a9           	s32i.n	a10, a1, 8
    12be:	166192        	s32i	a9, a1, 88
    12c1:	140882        	l8ui	a8, a8, 20
    12c4:	36b904        	ae_trunca32q48	a9, aeq3
    12c7:	3199           	s32i.n	a9, a1, 12
    12c9:	254816        	beqz	a8, 1521 <_Z10CPns_ApplyPP28CAacDecoderStaticChannelInfoPP22CAacDecoderChannelInfoi+0x2c1>
    12cc:	1621a2        	l32i	a10, a1, 88
    12cf:	fb64e1        	l32r	a14, 60 (109f0 <SamplingRateInfoTable>)
    12d2:	070ad2        	l8ui	a13, a10, 7
    12d5:	030af2        	l8ui	a15, a10, 3
    12d8:	090aa2        	l8ui	a10, a10, 9
    12db:	23dd00        	sext	a13, a13, 7
    12de:	a0ddd0        	addx4	a13, a13, a13
    12e1:	a0dde0        	addx4	a13, a13, a14
    12e4:	2de8           	l32i.n	a14, a13, 8
    12e6:	4dd8           	l32i.n	a13, a13, 16
    12e8:	fecff2        	addi	a15, a15, -2
    12eb:	23aa00        	sext	a10, a10, 7
    12ee:	93def0        	movnez	a13, a14, a15
    12f1:	e1d9           	s32i.n	a13, a1, 56
    12f3:	021ae6        	bgei	a10, 1, 12f9 <_Z10CPns_ApplyPP28CAacDecoderStaticChannelInfoPP22CAacDecoderChannelInfoi+0x99>
    12f6:	008d86        	j	1530 <_Z10CPns_ApplyPP28CAacDecoderStaticChannelInfoPP22CAacDecoderChannelInfoi+0x2d0>
    12f9:	0c0c           	movi.n	a12, 0
    12fb:	0d0c           	movi.n	a13, 0
    12fd:	0e0c           	movi.n	a14, 0
    12ff:	a0f420        	addx4	a15, a4, a2
    1302:	a1f9           	s32i.n	a15, a1, 40
    1304:	d1e9           	s32i.n	a14, a1, 52
    1306:	1761d2        	s32i	a13, a1, 92
    1309:	1061c2        	s32i	a12, a1, 64
    130c:	000806        	j	1330 <_Z10CPns_ApplyPP28CAacDecoderStaticChannelInfoPP22CAacDecoderChannelInfoi+0xd0>

0000130f <_Z10CPns_ApplyPP28CAacDecoderStaticChannelInfoPP22CAacDecoderChannelInfoi+0xaf>:
    130f:	000000                                        ...

00001312 <_Z10CPns_ApplyPP28CAacDecoderStaticChannelInfoPP22CAacDecoderChannelInfoi+0xb2>:
    1312:	1621a2        	l32i	a10, a1, 88
    1315:	090aa2        	l8ui	a10, a10, 9
    1318:	23aa00        	sext	a10, a10, 7

0000131b <_Z10CPns_ApplyPP28CAacDecoderStaticChannelInfoPP22CAacDecoderChannelInfoi+0xbb>:
    131b:	1721b2        	l32i	a11, a1, 92
    131e:	d1c8           	l32i.n	a12, a1, 52
    1320:	bb1b           	addi.n	a11, a11, 1
    1322:	20ccc2        	addi	a12, a12, 32
    1325:	d1c9           	s32i.n	a12, a1, 52
    1327:	1761b2        	s32i	a11, a1, 92
    132a:	022ba7        	blt	a11, a10, 1330 <_Z10CPns_ApplyPP28CAacDecoderStaticChannelInfoPP22CAacDecoderChannelInfoi+0xd0>
    132d:	007686        	j	150b <_Z10CPns_ApplyPP28CAacDecoderStaticChannelInfoPP22CAacDecoderChannelInfoi+0x2ab>

00001330 <_Z10CPns_ApplyPP28CAacDecoderStaticChannelInfoPP22CAacDecoderChannelInfoi+0xd0>:
    1330:	1621e2        	l32i	a14, a1, 88
    1333:	1721d2        	l32i	a13, a1, 92
    1336:	ddea           	add.n	a13, a13, a14
    1338:	c1d9           	s32i.n	a13, a1, 48
    133a:	0a0dd2        	l8ui	a13, a13, 10
    133d:	23dd00        	sext	a13, a13, 7
    1340:	d71da6        	blti	a13, 1, 131b <_Z10CPns_ApplyPP28CAacDecoderStaticChannelInfoPP22CAacDecoderChannelInfoi+0xbb>
    1343:	040ea2        	l8ui	a10, a14, 4
    1346:	1021c2        	l32i	a12, a1, 64
    1349:	23aa00        	sext	a10, a10, 7
    134c:	11bc70        	slli	a11, a12, 9
    134f:	1161b2        	s32i	a11, a1, 68
    1352:	11ccf0        	slli	a12, a12, 1
    1355:	1361c2        	s32i	a12, a1, 76
    1358:	0b0c           	movi.n	a11, 0
    135a:	f1b9           	s32i.n	a11, a1, 60
    135c:	000a86        	j	138a <_Z10CPns_ApplyPP28CAacDecoderStaticChannelInfoPP22CAacDecoderChannelInfoi+0x12a>

0000135f <_Z10CPns_ApplyPP28CAacDecoderStaticChannelInfoPP22CAacDecoderChannelInfoi+0xff>:
	...

00001360 <_Z10CPns_ApplyPP28CAacDecoderStaticChannelInfoPP22CAacDecoderChannelInfoi+0x100>:
    1360:	c1d8           	l32i.n	a13, a1, 48
    1362:	0a0dd2        	l8ui	a13, a13, 10
    1365:	23dd00        	sext	a13, a13, 7

00001368 <_Z10CPns_ApplyPP28CAacDecoderStaticChannelInfoPP22CAacDecoderChannelInfoi+0x108>:
    1368:	102192        	l32i	a9, a1, 64
    136b:	f1e8           	l32i.n	a14, a1, 60
    136d:	1121f2        	l32i	a15, a1, 68
    1370:	132182        	l32i	a8, a1, 76
    1373:	ee1b           	addi.n	a14, a14, 1
    1375:	02dff2        	addmi	a15, a15, 0x200
    1378:	882b           	addi.n	a8, a8, 2
    137a:	991b           	addi.n	a9, a9, 1
    137c:	106192        	s32i	a9, a1, 64
    137f:	136182        	s32i	a8, a1, 76
    1382:	1161f2        	s32i	a15, a1, 68
    1385:	f1e9           	s32i.n	a14, a1, 60
    1387:	87aed7        	bge	a14, a13, 1312 <_Z10CPns_ApplyPP28CAacDecoderStaticChannelInfoPP22CAacDecoderChannelInfoi+0xb2>

0000138a <_Z10CPns_ApplyPP28CAacDecoderStaticChannelInfoPP22CAacDecoderChannelInfoi+0x12a>:
    138a:	1821c2        	l32i	a12, a1, 96
    138d:	0cc8           	l32i.n	a12, a12, 0
    138f:	1121b2        	l32i	a11, a1, 68
    1392:	7cc8           	l32i.n	a12, a12, 28
    1394:	bbca           	add.n	a11, a11, a12
    1396:	1461b2        	s32i	a11, a1, 80
    1399:	cb1aa6        	blti	a10, 1, 1368 <_Z10CPns_ApplyPP28CAacDecoderStaticChannelInfoPP22CAacDecoderChannelInfoi+0x108>
    139c:	d138           	l32i.n	a3, a1, 52
    139e:	040c           	movi.n	a4, 0
    13a0:	e1d8           	l32i.n	a13, a1, 56
    13a2:	1a61d2        	s32i	a13, a1, 104
    13a5:	000fc6        	j	13e8 <_Z10CPns_ApplyPP28CAacDecoderStaticChannelInfoPP22CAacDecoderChannelInfoi+0x188>

000013a8 <_Z10CPns_ApplyPP28CAacDecoderStaticChannelInfoPP22CAacDecoderChannelInfoi+0x148>:
	...

000013aa <_Z10CPns_ApplyPP28CAacDecoderStaticChannelInfoPP22CAacDecoderChannelInfoi+0x14a>:
    13aa:	6169           	s32i.n	a6, a1, 24
    13ac:	05bd           	mov.n	a11, a5
    13ae:	1521f2        	l32i	a15, a1, 84
    13b1:	18c1a2        	addi	a10, a1, 24
    13b4:	1421c2        	l32i	a12, a1, 80
    13b7:	0ff8           	l32i.n	a15, a15, 0
    13b9:	1a21e2        	l32i	a14, a1, 104
    13bc:	fb2e81        	l32r	a8, 74 (160c <_Z20GenerateRandomVector5fractiPS_iiPs>)
    13bf:	6ff8           	l32i.n	a15, a15, 24
    13c1:	4edd           	ae_l16ui.n	a13, a14, 0
    13c3:	5eed           	ae_l16ui.n	a14, a14, 2
    13c5:	ff3a           	add.n	a15, a15, a3
    13c7:	10cff2        	addi	a15, a15, 16
    13ca:	0008e0        	callx8	a8

000013cd <_Z10CPns_ApplyPP28CAacDecoderStaticChannelInfoPP22CAacDecoderChannelInfoi+0x16d>:
    13cd:	332b           	addi.n	a3, a3, 2
    13cf:	1621a2        	l32i	a10, a1, 88
    13d2:	1a21b2        	l32i	a11, a1, 104
    13d5:	441b           	addi.n	a4, a4, 1
    13d7:	040aa2        	l8ui	a10, a10, 4
    13da:	bb2b           	addi.n	a11, a11, 2
    13dc:	1a61b2        	s32i	a11, a1, 104
    13df:	23aa00        	sext	a10, a10, 7
    13e2:	0224a7        	blt	a4, a10, 13e8 <_Z10CPns_ApplyPP28CAacDecoderStaticChannelInfoPP22CAacDecoderChannelInfoi+0x188>
    13e5:	ffddc6        	j	1360 <_Z10CPns_ApplyPP28CAacDecoderStaticChannelInfoPP22CAacDecoderChannelInfoi+0x100>

000013e8 <_Z10CPns_ApplyPP28CAacDecoderStaticChannelInfoPP22CAacDecoderChannelInfoi+0x188>:
    13e8:	1721b2        	l32i	a11, a1, 92
    13eb:	1821a2        	l32i	a10, a1, 96
    13ee:	fb2281        	l32r	a8, 78 (1590 <_Z14CPns_IsPnsUsedP22CAacDecoderChannelInfoii>)
    13f1:	04cd           	mov.n	a12, a4
    13f3:	0aa8           	l32i.n	a10, a10, 0
    13f5:	0008e0        	callx8	a8
    13f8:	fd1a16        	beqz	a10, 13cd <_Z10CPns_ApplyPP28CAacDecoderStaticChannelInfoPP22CAacDecoderChannelInfoi+0x16d>
    13fb:	1821e2        	l32i	a14, a1, 96
    13fe:	0ee8           	l32i.n	a14, a14, 0
    1400:	ae58           	l32i.n	a5, a14, 40
    1402:	1321d2        	l32i	a13, a1, 76
    1405:	8ee8           	l32i.n	a14, a14, 32
    1407:	535a           	add.n	a5, a3, a5
    1409:	255d           	ae_l16si.n	a5, a5, 0
    140b:	ddea           	add.n	a13, a13, a14
    140d:	2d9d           	ae_l16si.n	a9, a13, 0
    140f:	146050        	extui	a6, a5, 0, 2
    1412:	215250        	srai	a5, a5, 2
    1415:	a06610        	addx4	a6, a6, a1
    1418:	0668           	l32i.n	a6, a6, 0
    141a:	c05950        	sub	a5, a9, a5
    141d:	fcc552        	addi	a5, a5, -4
    1420:	048596        	bltz	a5, 146c <_Z10CPns_ApplyPP28CAacDecoderStaticChannelInfoPP22CAacDecoderChannelInfoi+0x20c>

00001423 <_Z10CPns_ApplyPP28CAacDecoderStaticChannelInfoPP22CAacDecoderChannelInfoi+0x1c3>:
    1423:	1721b2        	l32i	a11, a1, 92
    1426:	1521a2        	l32i	a10, a1, 84
    1429:	fb1481        	l32r	a8, 7c (1548 <_Z17CPns_IsCorrelatedP22CAacDecoderChannelInfoii>)
    142c:	04cd           	mov.n	a12, a4
    142e:	0aa8           	l32i.n	a10, a10, 0
    1430:	0008e0        	callx8	a8
    1433:	0ada16        	beqz	a10, 14e4 <_Z10CPns_ApplyPP28CAacDecoderStaticChannelInfoPP22CAacDecoderChannelInfoi+0x284>
    1436:	1221b2        	l32i	a11, a1, 72
    1439:	f6db56        	bnez	a11, 13aa <_Z10CPns_ApplyPP28CAacDecoderStaticChannelInfoPP22CAacDecoderChannelInfoi+0x14a>
    143c:	05bd           	mov.n	a11, a5
    143e:	14c1a2        	addi	a10, a1, 20
    1441:	1421c2        	l32i	a12, a1, 80
    1444:	1521d2        	l32i	a13, a1, 84
    1447:	b198           	l32i.n	a9, a1, 44
    1449:	fb0a81        	l32r	a8, 74 (160c <_Z20GenerateRandomVector5fractiPS_iiPs>)
    144c:	0dd8           	l32i.n	a13, a13, 0
    144e:	0998           	l32i.n	a9, a9, 0
    1450:	1a21e2        	l32i	a14, a1, 104
    1453:	6dd8           	l32i.n	a13, a13, 24
    1455:	18c9f2        	addi	a15, a9, 24
    1458:	0c9992        	l16si	a9, a9, 24
    145b:	dd3a           	add.n	a13, a13, a3
    145d:	085d92        	s16i	a9, a13, 16
    1460:	4edd           	ae_l16ui.n	a13, a14, 0
    1462:	5169           	s32i.n	a6, a1, 20
    1464:	5eed           	ae_l16ui.n	a14, a14, 2
    1466:	0008e0        	callx8	a8
    1469:	ffd806        	j	13cd <_Z10CPns_ApplyPP28CAacDecoderStaticChannelInfoPP22CAacDecoderChannelInfoi+0x16d>

0000146c <_Z10CPns_ApplyPP28CAacDecoderStaticChannelInfoPP22CAacDecoderChannelInfoi+0x20c>:
    146c:	1621a2        	l32i	a10, a1, 88
    146f:	040aa2        	l8ui	a10, a10, 4
    1472:	23aa00        	sext	a10, a10, 7
    1475:	5f1aa6        	blti	a10, 1, 14d8 <_Z10CPns_ApplyPP28CAacDecoderStaticChannelInfoPP22CAacDecoderChannelInfoi+0x278>
    1478:	9169           	s32i.n	a6, a1, 36
    147a:	8159           	s32i.n	a5, a1, 32
    147c:	e178           	l32i.n	a7, a1, 56
    147e:	602050        	neg	a2, a5
    1481:	0b0c           	movi.n	a11, 0
    1483:	1961b2        	s32i	a11, a1, 100

00001486 <_Z10CPns_ApplyPP28CAacDecoderStaticChannelInfoPP22CAacDecoderChannelInfoi+0x226>:
    1486:	578d           	ae_l16ui.n	a8, a7, 2
    1488:	476d           	ae_l16ui.n	a6, a7, 0
    148a:	142152        	l32i	a5, a1, 80
    148d:	f03d           	nop.n
    148f:	26a687        	bge	a6, a8, 14b9 <_Z10CPns_ApplyPP28CAacDecoderStaticChannelInfoPP22CAacDecoderChannelInfoi+0x259>
    1492:	a05650        	addx4	a5, a6, a5

00001495 <_Z10CPns_ApplyPP28CAacDecoderStaticChannelInfoPP22CAacDecoderChannelInfoi+0x235>:
    1495:	10c1a2        	addi	a10, a1, 16
    1498:	fafa81        	l32r	a8, 80 (77d0 <_ZNK5fractrsEi>)
    149b:	05bd           	mov.n	a11, a5
    149d:	20c220        	or	a12, a2, a2
    14a0:	0008e0        	callx8	a8
    14a3:	661b           	addi.n	a6, a6, 1
    14a5:	41a8           	l32i.n	a10, a1, 16
    14a7:	579d           	ae_l16ui.n	a9, a7, 2
    14a9:	05a9           	s32i.n	a10, a5, 0
    14ab:	554b           	addi.n	a5, a5, 4
    14ad:	e42697        	blt	a6, a9, 1495 <_Z10CPns_ApplyPP28CAacDecoderStaticChannelInfoPP22CAacDecoderChannelInfoi+0x235>
    14b0:	1621a2        	l32i	a10, a1, 88
    14b3:	040aa2        	l8ui	a10, a10, 4
    14b6:	23aa00        	sext	a10, a10, 7

000014b9 <_Z10CPns_ApplyPP28CAacDecoderStaticChannelInfoPP22CAacDecoderChannelInfoi+0x259>:
    14b9:	1921b2        	l32i	a11, a1, 100
    14bc:	772b           	addi.n	a7, a7, 2
    14be:	bb1b           	addi.n	a11, a11, 1
    14c0:	1961b2        	s32i	a11, a1, 100
    14c3:	bf2ba7        	blt	a11, a10, 1486 <_Z10CPns_ApplyPP28CAacDecoderStaticChannelInfoPP22CAacDecoderChannelInfoi+0x226>
    14c6:	1821e2        	l32i	a14, a1, 96
    14c9:	0ee8           	l32i.n	a14, a14, 0
    14cb:	1321d2        	l32i	a13, a1, 76
    14ce:	8ee8           	l32i.n	a14, a14, 32
    14d0:	8158           	l32i.n	a5, a1, 32
    14d2:	9168           	l32i.n	a6, a1, 36
    14d4:	ddea           	add.n	a13, a13, a14
    14d6:	2d9d           	ae_l16si.n	a9, a13, 0

000014d8 <_Z10CPns_ApplyPP28CAacDecoderStaticChannelInfoPP22CAacDecoderChannelInfoi+0x278>:
    14d8:	c0f950        	sub	a15, a9, a5
    14db:	6dfd           	ae_s16i.n	a15, a13, 0
    14dd:	050c           	movi.n	a5, 0
    14df:	ffd006        	j	1423 <_Z10CPns_ApplyPP28CAacDecoderStaticChannelInfoPP22CAacDecoderChannelInfoi+0x1c3>

000014e2 <_Z10CPns_ApplyPP28CAacDecoderStaticChannelInfoPP22CAacDecoderChannelInfoi+0x282>:
	...

000014e4 <_Z10CPns_ApplyPP28CAacDecoderStaticChannelInfoPP22CAacDecoderChannelInfoi+0x284>:
    14e4:	9169           	s32i.n	a6, a1, 36
    14e6:	8159           	s32i.n	a5, a1, 32
    14e8:	05bd           	mov.n	a11, a5
    14ea:	1cc1a2        	addi	a10, a1, 28
    14ed:	1421c2        	l32i	a12, a1, 80
    14f0:	1a21e2        	l32i	a14, a1, 104
    14f3:	a1f8           	l32i.n	a15, a1, 40
    14f5:	068d           	mov.n	a8, a6
    14f7:	7189           	s32i.n	a8, a1, 28
    14f9:	0ff8           	l32i.n	a15, a15, 0
    14fb:	4edd           	ae_l16ui.n	a13, a14, 0
    14fd:	fadd81        	l32r	a8, 74 (160c <_Z20GenerateRandomVector5fractiPS_iiPs>)
    1500:	5eed           	ae_l16ui.n	a14, a14, 2
    1502:	18cff2        	addi	a15, a15, 24
    1505:	0008e0        	callx8	a8
    1508:	ffb046        	j	13cd <_Z10CPns_ApplyPP28CAacDecoderStaticChannelInfoPP22CAacDecoderChannelInfoi+0x16d>

0000150b <_Z10CPns_ApplyPP28CAacDecoderStaticChannelInfoPP22CAacDecoderChannelInfoi+0x2ab>:
    150b:	a198           	l32i.n	a9, a1, 40
    150d:	0998           	l32i.n	a9, a9, 0
    150f:	0d9982        	l16si	a8, a9, 26
    1512:	0c99a2        	l16si	a10, a9, 24
    1515:	aa8a           	add.n	a10, a10, a8
    1517:	0c59a2        	s16i	a10, a9, 24
    151a:	881b           	addi.n	a8, a8, 1
    151c:	0d5982        	s16i	a8, a9, 26
    151f:	f01d           	retw.n

00001521 <_Z10CPns_ApplyPP28CAacDecoderStaticChannelInfoPP22CAacDecoderChannelInfoi+0x2c1>:
    1521:	a0b420        	addx4	a11, a4, a2
    1524:	0bb8           	l32i.n	a11, a11, 0
    1526:	0d9ba2        	l16si	a10, a11, 26
    1529:	aa1b           	addi.n	a10, a10, 1
    152b:	0d5ba2        	s16i	a10, a11, 26
    152e:	f01d           	retw.n

00001530 <_Z10CPns_ApplyPP28CAacDecoderStaticChannelInfoPP22CAacDecoderChannelInfoi+0x2d0>:
    1530:	a0e420        	addx4	a14, a4, a2
    1533:	0ee8           	l32i.n	a14, a14, 0
    1535:	0d9ed2        	l16si	a13, a14, 26
    1538:	0c9ef2        	l16si	a15, a14, 24
    153b:	ffda           	add.n	a15, a15, a13
    153d:	0c5ef2        	s16i	a15, a14, 24
    1540:	dd1b           	addi.n	a13, a13, 1
    1542:	0d5ed2        	s16i	a13, a14, 26
    1545:	f01d           	retw.n

00001547 <_Z10CPns_ApplyPP28CAacDecoderStaticChannelInfoPP22CAacDecoderChannelInfoi+0x2e7>:
	...

00001548 <_Z17CPns_IsCorrelatedP22CAacDecoderChannelInfoii>:
    1548:	004136        	entry	a1, 32
    154b:	6228           	l32i.n	a2, a2, 24
    154d:	1153c0        	slli	a5, a3, 4
    1550:	545a           	add.n	a5, a4, a5
    1552:	416350        	srli	a6, a5, 3
    1555:	245050        	extui	a5, a5, 0, 3
    1558:	226a           	add.n	a2, a2, a6
    155a:	000222        	l8ui	a2, a2, 0
    155d:	400500        	ssr	a5
    1560:	b12020        	sra	a2, a2
    1563:	042020        	extui	a2, a2, 0, 1
    1566:	f01d           	retw.n

00001568 <_Z19CPns_SetCorrelationP22CAacDecoderChannelInfoii>:
    1568:	004136        	entry	a1, 32
    156b:	6268           	l32i.n	a6, a2, 24
    156d:	1183c0        	slli	a8, a3, 4
    1570:	848a           	add.n	a8, a4, a8
    1572:	417380        	srli	a7, a8, 3
    1575:	248080        	extui	a8, a8, 0, 3
    1578:	667a           	add.n	a6, a6, a7
    157a:	000652        	l8ui	a5, a6, 0
    157d:	401800        	ssl	a8
    1580:	170c           	movi.n	a7, 1
    1582:	a17700        	sll	a7, a7
    1585:	205570        	or	a5, a5, a7
    1588:	004652        	s8i	a5, a6, 0
    158b:	f01d           	retw.n

0000158d <_Z19CPns_SetCorrelationP22CAacDecoderChannelInfoii+0x25>:
    158d:	000000                                        ...

00001590 <_Z14CPns_IsPnsUsedP22CAacDecoderChannelInfoii>:
    1590:	004136        	entry	a1, 32
    1593:	5228           	l32i.n	a2, a2, 20
    1595:	1153c0        	slli	a5, a3, 4
    1598:	545a           	add.n	a5, a4, a5
    159a:	416350        	srli	a6, a5, 3
    159d:	245050        	extui	a5, a5, 0, 3
    15a0:	226a           	add.n	a2, a2, a6
    15a2:	000222        	l8ui	a2, a2, 0
    15a5:	400500        	ssr	a5
    15a8:	b12020        	sra	a2, a2
    15ab:	042020        	extui	a2, a2, 0, 1
    15ae:	f01d           	retw.n

000015b0 <_Z12CPns_InitPnsP22CAacDecoderChannelInfo>:
    15b0:	004136        	entry	a1, 32
    15b3:	5268           	l32i.n	a6, a2, 20
    15b5:	030c           	movi.n	a3, 0
    15b7:	02a042        	movi	a4, 2
    15ba:	202660        	or	a2, a6, a6
    15bd:	198476        	loop	a4, 15da <_Z12CPns_InitPnsP22CAacDecoderChannelInfo+0x2a>
    15c0:	004232        	s8i	a3, a2, 0
    15c3:	014232        	s8i	a3, a2, 1
    15c6:	024232        	s8i	a3, a2, 2
    15c9:	034232        	s8i	a3, a2, 3
    15cc:	044232        	s8i	a3, a2, 4
    15cf:	054232        	s8i	a3, a2, 5
    15d2:	064232        	s8i	a3, a2, 6
    15d5:	074232        	s8i	a3, a2, 7
    15d8:	228b           	addi.n	a2, a2, 8

000015da <_Z12CPns_InitPnsP22CAacDecoderChannelInfo+0x2a>:
    15da:	144632        	s8i	a3, a6, 20
    15dd:	4639           	s32i.n	a3, a6, 16
    15df:	f01d           	retw.n

000015e1 <_Z12CPns_InitPnsP22CAacDecoderChannelInfo+0x31>:
    15e1:	000000                                        ...

000015e4 <_Z25CPns_InitInterChannelDataP22CAacDecoderChannelInfo>:
    15e4:	004136        	entry	a1, 32
    15e7:	6228           	l32i.n	a2, a2, 24
    15e9:	030c           	movi.n	a3, 0
    15eb:	240c           	movi.n	a4, 2
    15ed:	198476        	loop	a4, 160a <_Z25CPns_InitInterChannelDataP22CAacDecoderChannelInfo+0x26>
    15f0:	004232        	s8i	a3, a2, 0
    15f3:	014232        	s8i	a3, a2, 1
    15f6:	024232        	s8i	a3, a2, 2
    15f9:	034232        	s8i	a3, a2, 3
    15fc:	044232        	s8i	a3, a2, 4
    15ff:	054232        	s8i	a3, a2, 5
    1602:	064232        	s8i	a3, a2, 6
    1605:	074232        	s8i	a3, a2, 7
    1608:	228b           	addi.n	a2, a2, 8

0000160a <_Z25CPns_InitInterChannelDataP22CAacDecoderChannelInfo+0x26>:
    160a:	f01d           	retw.n

0000160c <_Z20GenerateRandomVector5fractiPS_iiPs>:
    160c:	00a136        	entry	a1, 80
    160f:	7139           	s32i.n	a3, a1, 28
    1611:	02bd           	mov.n	a11, a2
    1613:	31b9           	s32i.n	a11, a1, 12
    1615:	052d           	mov.n	a2, a5
    1617:	fe2493566f 	{ or	a5, a6, a6; ae_zeroq56	aeq2 }
    161c:	a08240        	addx4	a8, a2, a4
    161f:	fc1454418f 	{ s32i.n	a8, a1, 16; ae_movq56	aeq0, aeq2 }
    1624:	4da267        	bge	a2, a6, 1675 <_Z20GenerateRandomVector5fractiPS_iiPs+0x69>
    1627:	0f0c           	movi.n	a15, 0
    1629:	fa9641        	l32r	a4, 84 (3a7f <_Z19LongShortLapIllegalP5fractS0_S0_PKjS2_ii+0x1e7>)
    162c:	8129           	s32i.n	a2, a1, 32
    162e:	27dd           	ae_l16si.n	a13, a7, 0
    1630:	fa9631        	l32r	a3, 88 (7fffff <_end+0x7ef447>)
    1633:	9169           	s32i.n	a6, a1, 36
    1635:	c09620        	sub	a9, a6, a2
    1638:	206330        	or	a6, a3, a3
    163b:	30a976        	loopgtz	a9, 166f <_Z20GenerateRandomVector5fractiPS_iiPs+0x63>
    163e:	0b0c           	movi.n	a11, 0
    1640:	a0edd0        	addx4	a14, a13, a13
    1643:	b0eed0        	addx8	a14, a14, a13
    1646:	a0eed0        	addx4	a14, a14, a13
    1649:	b0ded0        	addx8	a13, a14, a13
    164c:	dd4a           	add.n	a13, a13, a4
    164e:	8ddd           	ae_sext16	a13, a13
    1650:	67dd           	ae_s16i.n	a13, a7, 0
    1652:	11edb0        	slli	a14, a13, 5
    1655:	0e5d           	mov.n	a5, a14
    1657:	31cfe0        	srai	a12, a14, 31
    165a:	042cf7        	blt	a12, a15, 1662 <_Z20GenerateRandomVector5fractiPS_iiPs+0x56>
    165d:	421cf7        	beq	a12, a15, 16a3 <_Z20GenerateRandomVector5fractiPS_iiPs+0x97>

00001660 <_Z20GenerateRandomVector5fractiPS_iiPs+0x54>:
    1660:	1b0c           	movi.n	a11, 1

00001662 <_Z20GenerateRandomVector5fractiPS_iiPs+0x56>:
    1662:	398ee4        	ae_movpa24x2	aep0, a14, a14
    1665:	041b16        	beqz	a11, 16aa <_Z20GenerateRandomVector5fractiPS_iiPs+0x9e>
    1668:	0869           	s32i.n	a6, a8, 0

0000166a <_Z20GenerateRandomVector5fractiPS_iiPs+0x5e>:
    166a:	e20300488e 	{ addi	a8, a8, 4; ae_mulafp24s.hl	aeq0, aep0, aep0 }

0000166f <_Z20GenerateRandomVector5fractiPS_iiPs+0x63>:
    166f:	9158           	l32i.n	a5, a1, 36
    1671:	8128           	l32i.n	a2, a1, 32
    1673:	7138           	l32i.n	a3, a1, 28

00001675 <_Z20GenerateRandomVector5fractiPS_iiPs+0x69>:
    1675:	364b04        	ae_nsaq56s	a11, aeq0
    1678:	8f0c           	movi.n	a15, 8
    167a:	090c           	movi.n	a9, 0
    167c:	fa8781        	l32r	a8, 98 (4000 <_Z15CStreamInfoInitP11CStreamInfo+0x10>)
    167f:	fa85a1        	l32r	a10, 94 (400000 <_end+0x3ef448>)
    1682:	398aa4        	ae_movpa24x2	aep0, a10, a10
    1685:	1189           	s32i.n	a8, a1, 4
    1687:	0199           	s32i.n	a9, a1, 0
    1689:	614104        	ae_lq56.i	aeq1, a1, 0
    168c:	4cafb7        	bge	a15, a11, 16dc <_Z20GenerateRandomVector5fractiPS_iiPs+0xd0>
    168f:	ee7c           	movi.n	a14, -2
    1691:	f8cbd2        	addi	a13, a11, -8
    1694:	10dde0        	and	a13, a13, a14
    1697:	340d94        	ae_sllaq56	aeq0, aeq0, a13
    169a:	21d1d0        	srai	a13, a13, 1
    169d:	c033d0        	sub	a3, a3, a13
    16a0:	000e06        	j	16dc <_Z20GenerateRandomVector5fractiPS_iiPs+0xd0>

000016a3 <_Z20GenerateRandomVector5fractiPS_iiPs+0x97>:
    16a3:	bbb3e7        	bgeu	a3, a14, 1662 <_Z20GenerateRandomVector5fractiPS_iiPs+0x56>
    16a6:	ffed86        	j	1660 <_Z20GenerateRandomVector5fractiPS_iiPs+0x54>

000016a9 <_Z20GenerateRandomVector5fractiPS_iiPs+0x9d>:
	...

000016aa <_Z20GenerateRandomVector5fractiPS_iiPs+0x9e>:
    16aa:	60a050        	neg	a10, a5
    16ad:	fa7891        	l32r	a9, 90 (ff800000 <_end+0xff7ef448>)
    16b0:	f27c           	movi.n	a2, -1
    16b2:	fa76b1        	l32r	a11, 8c (800000 <_end+0x7ef448>)
    16b5:	61b9           	s32i.n	a11, a1, 24
    16b7:	302c20        	xor	a2, a12, a2
    16ba:	0b0c           	movi.n	a11, 0
    16bc:	c21b           	addi.n	a12, a2, 1
    16be:	832c50        	moveqz	a2, a12, a5
    16c1:	003296        	bltz	a2, 16c8 <_Z20GenerateRandomVector5fractiPS_iiPs+0xbc>
    16c4:	828c           	beqz.n	a2, 16d0 <_Z20GenerateRandomVector5fractiPS_iiPs+0xc4>

000016c6 <_Z20GenerateRandomVector5fractiPS_iiPs+0xba>:
    16c6:	1b0c           	movi.n	a11, 1

000016c8 <_Z20GenerateRandomVector5fractiPS_iiPs+0xbc>:
    16c8:	9359b0        	movnez	a5, a9, a11
    16cb:	0859           	s32i.n	a5, a8, 0
    16cd:	ffe646        	j	166a <_Z20GenerateRandomVector5fractiPS_iiPs+0x5e>

000016d0 <_Z20GenerateRandomVector5fractiPS_iiPs+0xc4>:
    16d0:	0acd           	mov.n	a12, a10
    16d2:	61a8           	l32i.n	a10, a1, 24
    16d4:	f0bac7        	bgeu	a10, a12, 16c8 <_Z20GenerateRandomVector5fractiPS_iiPs+0xbc>
    16d7:	fffac6        	j	16c6 <_Z20GenerateRandomVector5fractiPS_iiPs+0xba>

000016da <_Z20GenerateRandomVector5fractiPS_iiPs+0xce>:
	...

000016dc <_Z20GenerateRandomVector5fractiPS_iiPs+0xd0>:
    16dc:	7f1c           	movi.n	a15, 23
    16de:	14af76        	loopgtz	a15, 16f6 <_Z20GenerateRandomVector5fractiPS_iiPs+0xea>
    16e1:	018854        	ae_mulfp24s.hl	aeq3, aep0, aep0
    16e4:	098304        	ae_ltq56s	b0, aeq3, aeq0
    16e7:	355074        	ae_sraiq56	aeq1, aeq1, 1
    16ea:	020076        	bf	b0, 16f0 <_Z20GenerateRandomVector5fractiPS_iiPs+0xe4>
    16ed:	0a8084        	ae_cvtq48p24s.l	aeq2, aep0

000016f0 <_Z20GenerateRandomVector5fractiPS_iiPs+0xe4>:
    16f0:	01e9c4        	ae_addq56	aeq3, aeq2, aeq1
    16f3:	1bbc04        	ae_roundsp24q48sym	aep0, aeq3

000016f6 <_Z20GenerateRandomVector5fractiPS_iiPs+0xea>:
    16f6:	fa6981        	l32r	a8, 9c (74dc <_Z6divideii>)
    16f9:	f8d27031ae 	{ l32i	a10, a1, 12; ae_truncp24q48x2	aep1, aeq2, aeq2 }
    16fe:	4e1124        	ae_sp24s.l.i	aep1, a1, 8
    1701:	21b8           	l32i.n	a11, a1, 8
    1703:	002aa2        	l32i	a10, a10, 0
    1706:	0008e0        	callx8	a8
    1709:	41c8           	l32i.n	a12, a1, 16
    170b:	364a34        	ae_cvtq48a32s	aeq1, a10
    170e:	355214        	ae_slliq56	aeq1, aeq1, 8
    1711:	fc04f031de 	{ l32i	a13, a1, 12; ae_satq48s	aeq0, aeq1 }
    1716:	350234        	ae_sraiq56	aeq0, aeq0, 8
    1719:	368b04        	ae_trunca32q48	a11, aeq0
    171c:	0db9           	s32i.n	a11, a13, 0
    171e:	4c0c04        	ae_lp24.i	aep0, a12, 0
    1721:	047396        	bltz	a3, 176c <_Z20GenerateRandomVector5fractiPS_iiPs+0x160>
    1724:	031634        	wur.ae_sar	a3
    1727:	022257        	blt	a2, a5, 172d <_Z20GenerateRandomVector5fractiPS_iiPs+0x121>
    172a:	002106        	j	17b2 <_Z20GenerateRandomVector5fractiPS_iiPs+0x1a6>
    172d:	39abb4        	ae_movpa24x2	aep2, a11, a11
    1730:	eb4095b52f 	{ sub	a11, a5, a2; ae_mulfp24s.hl	aeq2, aep0, aep2 }
    1735:	2191b0        	srai	a9, a11, 1
    1738:	0f6b07        	bbci	a11, 0, 174b <_Z20GenerateRandomVector5fractiPS_iiPs+0x13f>
    173b:	34a284        	ae_srasq56	aeq2, aeq2
    173e:	f9f7d3eccf 	{ or	a14, a12, a12; ae_roundsp24q48sym	aep3, aeq2 }
    1743:	4e3e04        	ae_sp24s.l.i	aep3, a14, 0
    1746:	4c8e14        	ae_lp24.iu	aep0, a14, 4
    1749:	41e9           	s32i.n	a14, a1, 16

0000174b <_Z20GenerateRandomVector5fractiPS_iiPs+0x13f>:
    174b:	4188           	l32i.n	a8, a1, 16
    174d:	19a976        	loopgtz	a9, 176a <_Z20GenerateRandomVector5fractiPS_iiPs+0x15e>
    1750:	ea40b1081f 	{ ae_lp24.i	aep0, a8, 4; ae_mulfp24s.hl	aeq0, aep0, aep2 }
    1755:	ea40f1882f 	{ ae_lp24.iu	aep0, a8, 8; ae_mulfp24s.hl	aeq1, aep0, aep2 }
    175a:	340284        	ae_srasq56	aeq0, aeq0
    175d:	f8e7ff593f 	{ ae_srasq56	aeq0, aeq1; ae_roundsp24q48sym	aep1, aeq0 }
    1762:	f8e7f518ef 	{ ae_sp24s.l.i	aep1, a8, -8; ae_roundsp24q48sym	aep1, aeq0 }
    1767:	4e18f4        	ae_sp24s.l.i	aep1, a8, -4

0000176a <_Z20GenerateRandomVector5fractiPS_iiPs+0x15e>:
    176a:	f01d           	retw.n

0000176c <_Z20GenerateRandomVector5fractiPS_iiPs+0x160>:
    176c:	60f030        	neg	a15, a3
    176f:	0316f4        	wur.ae_sar	a15
    1772:	3ca257        	bge	a2, a5, 17b2 <_Z20GenerateRandomVector5fractiPS_iiPs+0x1a6>
    1775:	0c8d           	mov.n	a8, a12
    1777:	39abb4        	ae_movpa24x2	aep2, a11, a11
    177a:	eb40d5b52f 	{ sub	a11, a5, a2; ae_mulfp24s.hl	aeq3, aep0, aep2 }
    177f:	2191b0        	srai	a9, a11, 1
    1782:	0d6b07        	bbci	a11, 0, 1793 <_Z20GenerateRandomVector5fractiPS_iiPs+0x187>
    1785:	34f084        	ae_sllsq56	aeq3, aeq3
    1788:	faff938ccf 	{ or	a8, a12, a12; ae_roundsp24q48sym	aep4, aeq3 }
    178d:	4e4c04        	ae_sp24s.l.i	aep4, a12, 0
    1790:	4c8814        	ae_lp24.iu	aep0, a8, 4

00001793 <_Z20GenerateRandomVector5fractiPS_iiPs+0x187>:
    1793:	f03d           	nop.n
    1795:	19a976        	loopgtz	a9, 17b2 <_Z20GenerateRandomVector5fractiPS_iiPs+0x1a6>
    1798:	ea40b1081f 	{ ae_lp24.i	aep0, a8, 4; ae_mulfp24s.hl	aeq0, aep0, aep2 }
    179d:	ea40f1882f 	{ ae_lp24.iu	aep0, a8, 8; ae_mulfp24s.hl	aeq1, aep0, aep2 }
    17a2:	340084        	ae_sllsq56	aeq0, aeq0
    17a5:	f8e7ff193f 	{ ae_sllsq56	aeq0, aeq1; ae_roundsp24q48sym	aep1, aeq0 }
    17aa:	f8e7f518ef 	{ ae_sp24s.l.i	aep1, a8, -8; ae_roundsp24q48sym	aep1, aeq0 }
    17af:	4e18f4        	ae_sp24s.l.i	aep1, a8, -4
    17b2:	f01d           	retw.n

000017b4 <_Z20GenerateRandomVector5fractiPS_iiPs+0x1a8>:
    17b4:	00000000                                ....

000017b8 <_Z27CShortBlock_FrequencyToTimeP28CAacDecoderStaticChannelInfoP22CAacDecoderChannelInfoP5fractiiiS4_>:
    17b8:	012136        	entry	a1, 144
    17bb:	07bd           	mov.n	a11, a7
    17bd:	028d           	mov.n	a8, a2
    17bf:	03ad           	mov.n	a10, a3
    17c1:	0a98           	l32i.n	a9, a10, 0
    17c3:	053d           	mov.n	a3, a5
    17c5:	042d           	mov.n	a2, a4
    17c7:	020992        	l8ui	a9, a9, 2
    17ca:	7a48           	l32i.n	a4, a10, 28
    17cc:	8a78           	l32i.n	a7, a10, 32
    17ce:	23d900        	sext	a13, a9, 7
    17d1:	049790        	extui	a9, a9, 7, 1
    17d4:	0a2956        	bnez	a9, 187a <_Z27CShortBlock_FrequencyToTimeP28CAacDecoderStaticChannelInfoP22CAacDecoderChannelInfoP5fractiiiS4_+0xc2>
    17d7:	022da6        	blti	a13, 2, 17dd <_Z27CShortBlock_FrequencyToTimeP28CAacDecoderStaticChannelInfoP22CAacDecoderChannelInfoP5fractiiiS4_+0x25>
    17da:	002706        	j	187a <_Z27CShortBlock_FrequencyToTimeP28CAacDecoderStaticChannelInfoP22CAacDecoderChannelInfoP5fractiiiS4_+0xc2>
    17dd:	1008c2        	l8ui	a12, a8, 16
    17e0:	23ec00        	sext	a14, a12, 7
    17e3:	04c7c0        	extui	a12, a12, 7, 1
    17e6:	090c56        	bnez	a12, 187a <_Z27CShortBlock_FrequencyToTimeP28CAacDecoderStaticChannelInfoP22CAacDecoderChannelInfoP5fractiiiS4_+0xc2>
    17e9:	f169           	s32i.n	a6, a1, 60
    17eb:	e139           	s32i.n	a3, a1, 56
    17ed:	d129           	s32i.n	a2, a1, 52
    17ef:	022ea6        	blti	a14, 2, 17f5 <_Z27CShortBlock_FrequencyToTimeP28CAacDecoderStaticChannelInfoP22CAacDecoderChannelInfoP5fractiiiS4_+0x3d>
    17f2:	002106        	j	187a <_Z27CShortBlock_FrequencyToTimeP28CAacDecoderStaticChannelInfoP22CAacDecoderChannelInfoP5fractiiiS4_+0xc2>
    17f5:	146182        	s32i	a8, a1, 80
    17f8:	045d           	mov.n	a5, a4
    17fa:	10d432        	addmi	a3, a4, 0x1000
    17fd:	10c122        	addi	a2, a1, 16
    1800:	242162        	l32i	a6, a1, 144
    1803:	1661b2        	s32i	a11, a1, 88
    1806:	1561a2        	s32i	a10, a1, 84
    1809:	a0fd80        	addx4	a15, a13, a8
    180c:	a09e80        	addx4	a9, a14, a8
    180f:	29c8           	l32i.n	a12, a9, 8
    1811:	2ff8           	l32i.n	a15, a15, 8
    1813:	1961f2        	s32i	a15, a1, 100
    1816:	1861c2        	s32i	a12, a1, 96
    1819:	0998           	l32i.n	a9, a9, 0
    181b:	176192        	s32i	a9, a1, 92

0000181e <_Z27CShortBlock_FrequencyToTimeP28CAacDecoderStaticChannelInfoP22CAacDecoderChannelInfoP5fractiiiS4_+0x66>:
    181e:	06cd           	mov.n	a12, a6
    1820:	fa2081        	l32r	a8, a0 (ab0 <_Z28CShortBlock_InverseTransformP5fractPiS0_>)
    1823:	05ad           	mov.n	a10, a5
    1825:	02bd           	mov.n	a11, a2
    1827:	0008e0        	callx8	a8
    182a:	224b           	addi.n	a2, a2, 4
    182c:	02d552        	addmi	a5, a5, 0x200
    182f:	eb9537        	bne	a5, a3, 181e <_Z27CShortBlock_FrequencyToTimeP28CAacDecoderStaticChannelInfoP22CAacDecoderChannelInfoP5fractiiiS4_+0x66>
    1832:	075d           	mov.n	a5, a7
    1834:	a74b           	addi.n	a10, a7, 4
    1836:	390c           	movi.n	a9, 3
    1838:	41e8           	l32i.n	a14, a1, 16
    183a:	37cd           	ae_l16si.n	a12, a7, 2
    183c:	14c182        	addi	a8, a1, 20
    183f:	08f8           	l32i.n	a15, a8, 0
    1841:	27dd           	ae_l16si.n	a13, a7, 0
    1843:	884b           	addi.n	a8, a8, 4
    1845:	ccfa           	add.n	a12, a12, a15
    1847:	ddea           	add.n	a13, a13, a14
    1849:	30c1f2        	addi	a15, a1, 48
    184c:	533cd0        	max	a3, a12, a13
    184f:	158976        	loop	a9, 1868 <_Z27CShortBlock_FrequencyToTimeP28CAacDecoderStaticChannelInfoP22CAacDecoderChannelInfoP5fractiiiS4_+0xb0>
    1852:	0898           	l32i.n	a9, a8, 0
    1854:	2abd           	ae_l16si.n	a11, a10, 0
    1856:	18d8           	l32i.n	a13, a8, 4
    1858:	3aed           	ae_l16si.n	a14, a10, 2
    185a:	9b9a           	add.n	a9, a11, a9
    185c:	aa4b           	addi.n	a10, a10, 4
    185e:	beda           	add.n	a11, a14, a13
    1860:	888b           	addi.n	a8, a8, 8
    1862:	539930        	max	a9, a9, a3
    1865:	533b90        	max	a3, a11, a9

00001868 <_Z27CShortBlock_FrequencyToTimeP28CAacDecoderStaticChannelInfoP22CAacDecoderChannelInfoP5fractiiiS4_+0xb0>:
    1868:	10c122        	addi	a2, a1, 16
    186b:	9d6c           	movi.n	a13, -23
    186d:	0b0c           	movi.n	a11, 0
    186f:	02d4c2        	addmi	a12, a4, 0x200
    1872:	fcccc2        	addi	a12, a12, -4
    1875:	6b4a           	add.n	a6, a11, a4
    1877:	000c06        	j	18ab <_Z27CShortBlock_FrequencyToTimeP28CAacDecoderStaticChannelInfoP22CAacDecoderChannelInfoP5fractiiiS4_+0xf3>

0000187a <_Z27CShortBlock_FrequencyToTimeP28CAacDecoderStaticChannelInfoP22CAacDecoderChannelInfoP5fractiiiS4_+0xc2>:
    187a:	f01d           	retw.n

0000187c <_Z27CShortBlock_FrequencyToTimeP28CAacDecoderStaticChannelInfoP22CAacDecoderChannelInfoP5fractiiiS4_+0xc4>:
	...

0000187e <_Z27CShortBlock_FrequencyToTimeP28CAacDecoderStaticChannelInfoP22CAacDecoderChannelInfoP5fractiiiS4_+0xc6>:
    187e:	092c           	movi.n	a9, 32
    1880:	c083e0        	sub	a8, a3, a14
    1883:	e9c882        	addi	a8, a8, -23
    1886:	031684        	wur.ae_sar	a8
    1889:	0f8976        	loop	a9, 189c <_Z27CShortBlock_FrequencyToTimeP28CAacDecoderStaticChannelInfoP22CAacDecoderChannelInfoP5fractiiiS4_+0xe4>
    188c:	540614        	ae_lp24x2.i	aep0, a6, 8
    188f:	f823f0062f 	{ ae_lp24x2.i	aep0, a6, 16; ae_sllssp24s	aep1, aep0 }
    1894:	f823b7161f 	{ ae_sp24x2s.i	aep1, a6, 8; ae_sllssp24s	aep0, aep0 }
    1899:	568624        	ae_sp24x2s.iu	aep0, a6, 16

0000189c <_Z27CShortBlock_FrequencyToTimeP28CAacDecoderStaticChannelInfoP22CAacDecoderChannelInfoP5fractiiiS4_+0xe4>:
    189c:	552b           	addi.n	a5, a5, 2
    189e:	02dcc2        	addmi	a12, a12, 0x200
    18a1:	224b           	addi.n	a2, a2, 4
    18a3:	02dbb2        	addmi	a11, a11, 0x200
    18a6:	6b4a           	add.n	a6, a11, a4
    18a8:	3112f7        	beq	a2, a15, 18dd <_Z27CShortBlock_FrequencyToTimeP28CAacDecoderStaticChannelInfoP22CAacDecoderChannelInfoP5fractiiiS4_+0x125>

000018ab <_Z27CShortBlock_FrequencyToTimeP28CAacDecoderStaticChannelInfoP22CAacDecoderChannelInfoP5fractiiiS4_+0xf3>:
    18ab:	25ed           	ae_l16si.n	a14, a5, 0
    18ad:	0278           	l32i.n	a7, a2, 0
    18af:	f8c662        	addi	a6, a6, -8
    18b2:	c0e3e0        	sub	a14, a3, a14
    18b5:	c0ee70        	sub	a14, a14, a7
    18b8:	c07e30        	sub	a7, a14, a3
    18bb:	bfad77        	bge	a13, a7, 187e <_Z27CShortBlock_FrequencyToTimeP28CAacDecoderStaticChannelInfoP22CAacDecoderChannelInfoP5fractiiiS4_+0xc6>
    18be:	092c           	movi.n	a9, 32
    18c0:	17c782        	addi	a8, a7, 23
    18c3:	031684        	wur.ae_sar	a8
    18c6:	0f8976        	loop	a9, 18d9 <_Z27CShortBlock_FrequencyToTimeP28CAacDecoderStaticChannelInfoP22CAacDecoderChannelInfoP5fractiiiS4_+0x121>
    18c9:	540614        	ae_lp24x2.i	aep0, a6, 8
    18cc:	f8a3f0062f 	{ ae_lp24x2.i	aep0, a6, 16; ae_srasp24	aep1, aep0 }
    18d1:	f8a3b7161f 	{ ae_sp24x2s.i	aep1, a6, 8; ae_srasp24	aep0, aep0 }
    18d6:	568624        	ae_sp24x2s.iu	aep0, a6, 16

000018d9 <_Z27CShortBlock_FrequencyToTimeP28CAacDecoderStaticChannelInfoP22CAacDecoderChannelInfoP5fractiiiS4_+0x121>:
    18d9:	ffefc6        	j	189c <_Z27CShortBlock_FrequencyToTimeP28CAacDecoderStaticChannelInfoP22CAacDecoderChannelInfoP5fractiiiS4_+0xe4>

000018dc <_Z27CShortBlock_FrequencyToTimeP28CAacDecoderStaticChannelInfoP22CAacDecoderChannelInfoP5fractiiiS4_+0x124>:
	...

000018dd <_Z27CShortBlock_FrequencyToTimeP28CAacDecoderStaticChannelInfoP22CAacDecoderChannelInfoP5fractiiiS4_+0x125>:
    18dd:	142152        	l32i	a5, a1, 80
    18e0:	e198           	l32i.n	a9, a1, 56
    18e2:	5558           	l32i.n	a5, a5, 20
    18e4:	20e916        	beqz	a9, 1af6 <_Z27CShortBlock_FrequencyToTimeP28CAacDecoderStaticChannelInfoP22CAacDecoderChannelInfoP5fractiiiS4_+0x33e>
    18e7:	d198           	l32i.n	a9, a1, 52
    18e9:	0f2182        	l32i	a8, a1, 60
    18ec:	908890        	addx2	a8, a8, a9
    18ef:	0c6182        	s32i	a8, a1, 48

000018f2 <_Z27CShortBlock_FrequencyToTimeP28CAacDecoderStaticChannelInfoP22CAacDecoderChannelInfoP5fractiiiS4_+0x13a>:
    18f2:	1421a2        	l32i	a10, a1, 80
    18f5:	f03d           	nop.n
    18f7:	f03d           	nop.n
    18f9:	110aa2        	l8ui	a10, a10, 17
    18fc:	238a00        	sext	a8, a10, 7
    18ff:	022866        	bnei	a8, 2, 1905 <_Z27CShortBlock_FrequencyToTimeP28CAacDecoderStaticChannelInfoP22CAacDecoderChannelInfoP5fractiiiS4_+0x14d>
    1902:	001fc6        	j	1985 <_Z27CShortBlock_FrequencyToTimeP28CAacDecoderStaticChannelInfoP22CAacDecoderChannelInfoP5fractiiiS4_+0x1cd>
    1905:	7c1826        	beqi	a8, 1, 1985 <_Z27CShortBlock_FrequencyToTimeP28CAacDecoderStaticChannelInfoP22CAacDecoderChannelInfoP5fractiiiS4_+0x1cd>
    1908:	1f6a16        	beqz	a10, 1b02 <_Z27CShortBlock_FrequencyToTimeP28CAacDecoderStaticChannelInfoP22CAacDecoderChannelInfoP5fractiiiS4_+0x34a>
    190b:	fdc8b2        	addi	a11, a8, -3
    190e:	1f0b16        	beqz	a11, 1b02 <_Z27CShortBlock_FrequencyToTimeP28CAacDecoderStaticChannelInfoP22CAacDecoderChannelInfoP5fractiiiS4_+0x34a>
    1911:	08d462        	addmi	a6, a4, 0x800

00001914 <_Z27CShortBlock_FrequencyToTimeP28CAacDecoderStaticChannelInfoP22CAacDecoderChannelInfoP5fractiiiS4_+0x15c>:
    1914:	01d5c2        	addmi	a12, a5, 0x100
    1917:	1921d2        	l32i	a13, a1, 100
    191a:	0e4c           	movi.n	a14, 64
    191c:	1f0c           	movi.n	a15, 1
    191e:	06bd           	mov.n	a11, a6
    1920:	f9e181        	l32r	a8, a4 (450 <_Z4Lap2P5fractS0_S0_PKjii>)
    1923:	0ad462        	addmi	a6, a4, 0xa00
    1926:	20a660        	or	a10, a6, a6
    1929:	0008e0        	callx8	a8
    192c:	03d5c2        	addmi	a12, a5, 0x300
    192f:	1921d2        	l32i	a13, a1, 100
    1932:	0e4c           	movi.n	a14, 64
    1934:	1f0c           	movi.n	a15, 1
    1936:	06bd           	mov.n	a11, a6
    1938:	f9db81        	l32r	a8, a4 (450 <_Z4Lap2P5fractS0_S0_PKjii>)
    193b:	0cd462        	addmi	a6, a4, 0xc00
    193e:	06ad           	mov.n	a10, a6
    1940:	0008e0        	callx8	a8
    1943:	06bd           	mov.n	a11, a6
    1945:	1921d2        	l32i	a13, a1, 100
    1948:	0ed4a2        	addmi	a10, a4, 0xe00
    194b:	05d5c2        	addmi	a12, a5, 0x500
    194e:	f9d581        	l32r	a8, a4 (450 <_Z4Lap2P5fractS0_S0_PKjii>)
    1951:	0e4c           	movi.n	a14, 64
    1953:	1f0c           	movi.n	a15, 1
    1955:	0008e0        	callx8	a8
    1958:	0a2c           	movi.n	a10, 32
    195a:	0ed482        	addmi	a8, a4, 0xe00
    195d:	07d592        	addmi	a9, a5, 0x700
    1960:	f8c992        	addi	a9, a9, -8
    1963:	f8c882        	addi	a8, a8, -8
    1966:	058a76        	loop	a10, 196f <_Z27CShortBlock_FrequencyToTimeP28CAacDecoderStaticChannelInfoP22CAacDecoderChannelInfoP5fractiiiS4_+0x1b7>
    1969:	548814        	ae_lp24x2.iu	aep0, a8, 8
    196c:	568914        	ae_sp24x2s.iu	aep0, a9, 8

0000196f <_Z27CShortBlock_FrequencyToTimeP28CAacDecoderStaticChannelInfoP22CAacDecoderChannelInfoP5fractiiiS4_+0x1b7>:
    196f:	1521a2        	l32i	a10, a1, 84
    1972:	0aa8           	l32i.n	a10, a10, 0
    1974:	1421b2        	l32i	a11, a1, 80
    1977:	020ac2        	l8ui	a12, a10, 2
    197a:	104bc2        	s8i	a12, a11, 16
    197d:	030aa2        	l8ui	a10, a10, 3
    1980:	114ba2        	s8i	a10, a11, 17
    1983:	f01d           	retw.n

00001985 <_Z27CShortBlock_FrequencyToTimeP28CAacDecoderStaticChannelInfoP22CAacDecoderChannelInfoP5fractiiiS4_+0x1cd>:
    1985:	07d5e2        	addmi	a14, a5, 0x700
    1988:	06d472        	addmi	a7, a4, 0x600
    198b:	fcc582        	addi	a8, a5, -4
    198e:	e1b8           	l32i.n	a11, a1, 56
    1990:	f8c5c2        	addi	a12, a5, -8
    1993:	01d562        	addmi	a6, a5, 0x100
    1996:	04d4d2        	addmi	a13, a4, 0x400
    1999:	02d4f2        	addmi	a15, a4, 0x200
    199c:	1261f2        	s32i	a15, a1, 72
    199f:	1361d2        	s32i	a13, a1, 76
    19a2:	08c662        	addi	a6, a6, 8
    19a5:	1061c2        	s32i	a12, a1, 64
    19a8:	116162        	s32i	a6, a1, 68
    19ab:	08d462        	addmi	a6, a4, 0x800
    19ae:	179b16        	beqz	a11, 1b2b <_Z27CShortBlock_FrequencyToTimeP28CAacDecoderStaticChannelInfoP22CAacDecoderChannelInfoP5fractiiiS4_+0x373>
    19b1:	bfa1b2        	movi	a11, 0x1bf
    19b4:	1621a2        	l32i	a10, a1, 88
    19b7:	0c2132        	l32i	a3, a1, 48
    19ba:	4c8814        	ae_lp24.iu	aep0, a8, 4
    19bd:	11aaf0        	slli	a10, a10, 1
    19c0:	c8029593af 	{ sub	a9, a3, a10; ae_sllisp24s	aep0, aep0, 1 }
    19c5:	098b76        	loop	a11, 19d2 <_Z27CShortBlock_FrequencyToTimeP28CAacDecoderStaticChannelInfoP22CAacDecoderChannelInfoP5fractiiiS4_+0x21a>
    19c8:	f803f1881f 	{ ae_lp24.iu	aep0, a8, 4; ae_roundsp16sym	aep1, aep0 }
    19cd:	c802a399af 	{ ae_sp16f.l.xu	aep1, a9, a10; ae_sllisp24s	aep0, aep0, 1 }

000019d2 <_Z27CShortBlock_FrequencyToTimeP28CAacDecoderStaticChannelInfoP22CAacDecoderChannelInfoP5fractiiiS4_+0x21a>:
    19d2:	1821d2        	l32i	a13, a1, 96
    19d5:	f99981        	l32r	a8, 3c (778 <_Z10Lap1_shortP5fractS0_PsPKjii>)
    19d8:	1621f2        	l32i	a15, a1, 88
    19db:	0ebd           	mov.n	a11, a14
    19dd:	f803c040ef 	{ movi	a14, 64; ae_roundsp16sym	aep1, aep0 }
    19e2:	4399a4        	ae_sp16f.l.xu	aep1, a9, a10
    19e5:	04ad           	mov.n	a10, a4
    19e7:	f0cff0        	subx8	a12, a15, a15
    19ea:	11cc90        	slli	a12, a12, 7
    19ed:	c3ca           	add.n	a12, a3, a12
    19ef:	0008e0        	callx8	a8
    19f2:	1221a2        	l32i	a10, a1, 72
    19f5:	04bd           	mov.n	a11, a4
    19f7:	1921d2        	l32i	a13, a1, 100
    19fa:	1621f2        	l32i	a15, a1, 88
    19fd:	0e4c           	movi.n	a14, 64
    19ff:	f98f81        	l32r	a8, 3c (778 <_Z10Lap1_shortP5fractS0_PsPKjii>)
    1a02:	b0cff0        	addx8	a12, a15, a15
    1a05:	11cc90        	slli	a12, a12, 7
    1a08:	c3ca           	add.n	a12, a3, a12
    1a0a:	0008e0        	callx8	a8
    1a0d:	1221b2        	l32i	a11, a1, 72
    1a10:	1321a2        	l32i	a10, a1, 76
    1a13:	1921d2        	l32i	a13, a1, 100
    1a16:	1621f2        	l32i	a15, a1, 88
    1a19:	0e4c           	movi.n	a14, 64
    1a1b:	f98881        	l32r	a8, 3c (778 <_Z10Lap1_shortP5fractS0_PsPKjii>)
    1a1e:	a0cff0        	addx4	a12, a15, a15
    1a21:	90ccf0        	addx2	a12, a12, a15
    1a24:	11cc90        	slli	a12, a12, 7
    1a27:	c3ca           	add.n	a12, a3, a12
    1a29:	0008e0        	callx8	a8
    1a2c:	1321b2        	l32i	a11, a1, 76
    1a2f:	07ad           	mov.n	a10, a7
    1a31:	1921d2        	l32i	a13, a1, 100
    1a34:	1621f2        	l32i	a15, a1, 88
    1a37:	0e4c           	movi.n	a14, 64
    1a39:	f98081        	l32r	a8, 3c (778 <_Z10Lap1_shortP5fractS0_PsPKjii>)
    1a3c:	90cff0        	addx2	a12, a15, a15
    1a3f:	a0ccf0        	addx4	a12, a12, a15
    1a42:	11cc90        	slli	a12, a12, 7
    1a45:	c3ca           	add.n	a12, a3, a12
    1a47:	0008e0        	callx8	a8
    1a4a:	07bd           	mov.n	a11, a7
    1a4c:	06ad           	mov.n	a10, a6
    1a4e:	05cd           	mov.n	a12, a5
    1a50:	1921d2        	l32i	a13, a1, 100
    1a53:	f99481        	l32r	a8, a4 (450 <_Z4Lap2P5fractS0_S0_PKjii>)
    1a56:	0e4c           	movi.n	a14, 64
    1a58:	1f0c           	movi.n	a15, 1
    1a5a:	0008e0        	callx8	a8
    1a5d:	102182        	l32i	a8, a1, 64
    1a60:	1621c2        	l32i	a12, a1, 88
    1a63:	1121b2        	l32i	a11, a1, 68
    1a66:	8d0c           	movi.n	a13, 8
    1a68:	119cc0        	slli	a9, a12, 4
    1a6b:	f0cbb2        	addi	a11, a11, -16
    1a6e:	c099c0        	sub	a9, a9, a12
    1a71:	11a9a0        	slli	a10, a9, 6
    1a74:	119990        	slli	a9, a9, 7
    1a77:	80aca0        	add	a10, a12, a10
    1a7a:	90aa30        	addx2	a10, a10, a3
    1a7d:	11cce0        	slli	a12, a12, 2
    1a80:	809390        	add	a9, a3, a9
    1a83:	c099c0        	sub	a9, a9, a12
    1a86:	c0aac0        	sub	a10, a10, a12
    1a89:	668d76        	loop	a13, 1af3 <_Z27CShortBlock_FrequencyToTimeP28CAacDecoderStaticChannelInfoP22CAacDecoderChannelInfoP5fractiiiS4_+0x33b>
    1a8c:	540814        	ae_lp24x2.i	aep0, a8, 8
    1a8f:	dc0170482f 	{ ae_lp24x2.i	aep4, a8, 16; ae_selp24.hh	aep1, aep0, aep0 }

00001a94 <_Z27CShortBlock_FrequencyToTimeP28CAacDecoderStaticChannelInfoP22CAacDecoderChannelInfoP5fractiiiS4_+0x2dc>:
    1a94:	c902b0083f 	{ ae_lp24x2.i	aep0, a8, 24; ae_sllisp24s	aep2, aep0, 1 }
    1a99:	de91703b1f 	{ ae_lp24x2.i	aep3, a11, 8; ae_selp24.hh	aep5, aep4, aep4 }
    1a9e:	cb12b0484f 	{ ae_lp24x2.i	aep4, a8, 32; ae_sllisp24s	aep6, aep4, 1 }
    1aa3:	1a88f4        	ae_selp24.hh	aep7, aep0, aep0
    1aa6:	0b9094        	ae_sllisp24s	aep1, aep1, 1
    1aa9:	091094        	ae_roundsp16sym	aep1, aep1
    1aac:	f80be399cf 	{ ae_sp16f.l.xu	aep1, a9, a12; ae_roundsp16sym	aep1, aep2 }
    1ab1:	c816e39acf 	{ ae_sp16f.l.xu	aep1, a10, a12; ae_sllisp24s	aep1, aep5, 1 }
    1ab6:	f807f7381f 	{ ae_sp24x2s.i	aep3, a8, 8; ae_roundsp16sym	aep1, aep1 }
    1abb:	c802a399cf 	{ ae_sp16f.l.xu	aep1, a9, a12; ae_sllisp24s	aep0, aep0, 1 }
    1ac0:	f91bb01b2f 	{ ae_lp24x2.i	aep1, a11, 16; ae_roundsp16sym	aep2, aep6 }
    1ac5:	c91ea3aacf 	{ ae_sp16f.l.xu	aep2, a10, a12; ae_sllisp24s	aep2, aep7, 1 }
    1aca:	f80bf7182f 	{ ae_sp24x2s.i	aep1, a8, 16; ae_roundsp16sym	aep1, aep2 }
    1acf:	dc916399cf 	{ ae_sp16f.l.xu	aep1, a9, a12; ae_selp24.hh	aep1, aep4, aep4 }
    1ad4:	f903b00b3f 	{ ae_lp24x2.i	aep0, a11, 24; ae_roundsp16sym	aep2, aep0 }
    1ad9:	c806e3aacf 	{ ae_sp16f.l.xu	aep2, a10, a12; ae_sllisp24s	aep1, aep1, 1 }
    1ade:	f807b7083f 	{ ae_sp24x2s.i	aep0, a8, 24; ae_roundsp16sym	aep0, aep1 }
    1ae3:	c812a389cf 	{ ae_sp16f.l.xu	aep0, a9, a12; ae_sllisp24s	aep0, aep4, 1 }
    1ae8:	fa03b08b4f 	{ ae_lp24x2.iu	aep0, a11, 32; ae_roundsp16sym	aep4, aep0 }
    1aed:	43cac4        	ae_sp16f.l.xu	aep4, a10, a12
    1af0:	568844        	ae_sp24x2s.iu	aep0, a8, 32

00001af3 <_Z27CShortBlock_FrequencyToTimeP28CAacDecoderStaticChannelInfoP22CAacDecoderChannelInfoP5fractiiiS4_+0x33b>:
    1af3:	ff8746        	j	1914 <_Z27CShortBlock_FrequencyToTimeP28CAacDecoderStaticChannelInfoP22CAacDecoderChannelInfoP5fractiiiS4_+0x15c>

00001af6 <_Z27CShortBlock_FrequencyToTimeP28CAacDecoderStaticChannelInfoP22CAacDecoderChannelInfoP5fractiiiS4_+0x33e>:
    1af6:	d1a8           	l32i.n	a10, a1, 52
    1af8:	f1b8           	l32i.n	a11, a1, 60
    1afa:	a0aba0        	addx4	a10, a11, a10
    1afd:	d1a9           	s32i.n	a10, a1, 52
    1aff:	ff7bc6        	j	18f2 <_Z27CShortBlock_FrequencyToTimeP28CAacDecoderStaticChannelInfoP22CAacDecoderChannelInfoP5fractiiiS4_+0x13a>

00001b02 <_Z27CShortBlock_FrequencyToTimeP28CAacDecoderStaticChannelInfoP22CAacDecoderChannelInfoP5fractiiiS4_+0x34a>:
    1b02:	1821e2        	l32i	a14, a1, 96
    1b05:	1721f2        	l32i	a15, a1, 92
    1b08:	1921d2        	l32i	a13, a1, 100
    1b0b:	f96781        	l32r	a8, a8 (3ce8 <_Z19LongShortLapIllegalP5fractS0_S0_PKjS2_S2_ii>)
    1b0e:	d1c8           	l32i.n	a12, a1, 52
    1b10:	e1b8           	l32i.n	a11, a1, 56
    1b12:	c1a8           	l32i.n	a10, a1, 48
    1b14:	162192        	l32i	a9, a1, 88
    1b17:	0199           	s32i.n	a9, a1, 0
    1b19:	11b9           	s32i.n	a11, a1, 4
    1b1b:	93cab0        	movnez	a12, a10, a11
    1b1e:	04ad           	mov.n	a10, a4
    1b20:	05bd           	mov.n	a11, a5
    1b22:	0008e0        	callx8	a8
    1b25:	08d462        	addmi	a6, a4, 0x800
    1b28:	ff7a06        	j	1914 <_Z27CShortBlock_FrequencyToTimeP28CAacDecoderStaticChannelInfoP22CAacDecoderChannelInfoP5fractiiiS4_+0x15c>

00001b2b <_Z27CShortBlock_FrequencyToTimeP28CAacDecoderStaticChannelInfoP22CAacDecoderChannelInfoP5fractiiiS4_+0x373>:
    1b2b:	1621a2        	l32i	a10, a1, 88
    1b2e:	d198           	l32i.n	a9, a1, 52
    1b30:	e0a0b2        	movi	a11, 224
    1b33:	11aae0        	slli	a10, a10, 2
    1b36:	c099a0        	sub	a9, a9, a10
    1b39:	0f8b76        	loop	a11, 1b4c <_Z27CShortBlock_FrequencyToTimeP28CAacDecoderStaticChannelInfoP22CAacDecoderChannelInfoP5fractiiiS4_+0x394>
    1b3c:	4c0814        	ae_lp24.i	aep0, a8, 4
    1b3f:	c802f1882f 	{ ae_lp24.iu	aep0, a8, 8; ae_sllisp24s	aep1, aep0, 1 }
    1b44:	c802a699af 	{ ae_sp24f.l.xu	aep1, a9, a10; ae_sllisp24s	aep0, aep0, 1 }
    1b49:	5389a4        	ae_sp24f.l.xu	aep0, a9, a10

00001b4c <_Z27CShortBlock_FrequencyToTimeP28CAacDecoderStaticChannelInfoP22CAacDecoderChannelInfoP5fractiiiS4_+0x394>:
    1b4c:	1821d2        	l32i	a13, a1, 96
    1b4f:	04ad           	mov.n	a10, a4
    1b51:	f94281        	l32r	a8, 5c (618 <_Z4Lap1P5fractS0_S0_PKjii>)
    1b54:	1621f2        	l32i	a15, a1, 88
    1b57:	0ebd           	mov.n	a11, a14
    1b59:	d1c8           	l32i.n	a12, a1, 52
    1b5b:	f0eff0        	subx8	a14, a15, a15
    1b5e:	11ee80        	slli	a14, a14, 8
    1b61:	ccea           	add.n	a12, a12, a14
    1b63:	0e4c           	movi.n	a14, 64
    1b65:	0008e0        	callx8	a8
    1b68:	1221a2        	l32i	a10, a1, 72
    1b6b:	04bd           	mov.n	a11, a4
    1b6d:	0e4c           	movi.n	a14, 64
    1b6f:	1621f2        	l32i	a15, a1, 88
    1b72:	f93a81        	l32r	a8, 5c (618 <_Z4Lap1P5fractS0_S0_PKjii>)
    1b75:	d1c8           	l32i.n	a12, a1, 52
    1b77:	b0dff0        	addx8	a13, a15, a15
    1b7a:	11dd80        	slli	a13, a13, 8
    1b7d:	ccda           	add.n	a12, a12, a13
    1b7f:	1921d2        	l32i	a13, a1, 100
    1b82:	0008e0        	callx8	a8
    1b85:	1221b2        	l32i	a11, a1, 72
    1b88:	1321a2        	l32i	a10, a1, 76
    1b8b:	0e4c           	movi.n	a14, 64
    1b8d:	1621f2        	l32i	a15, a1, 88
    1b90:	f93381        	l32r	a8, 5c (618 <_Z4Lap1P5fractS0_S0_PKjii>)
    1b93:	0d21c2        	l32i	a12, a1, 52
    1b96:	a0dff0        	addx4	a13, a15, a15
    1b99:	90ddf0        	addx2	a13, a13, a15
    1b9c:	11dd80        	slli	a13, a13, 8
    1b9f:	80ccd0        	add	a12, a12, a13
    1ba2:	1921d2        	l32i	a13, a1, 100
    1ba5:	0008e0        	callx8	a8
    1ba8:	1321b2        	l32i	a11, a1, 76
    1bab:	07ad           	mov.n	a10, a7
    1bad:	0e4c           	movi.n	a14, 64
    1baf:	1621f2        	l32i	a15, a1, 88
    1bb2:	f92a81        	l32r	a8, 5c (618 <_Z4Lap1P5fractS0_S0_PKjii>)
    1bb5:	d1c8           	l32i.n	a12, a1, 52
    1bb7:	90dff0        	addx2	a13, a15, a15
    1bba:	a0ddf0        	addx4	a13, a13, a15
    1bbd:	11dd80        	slli	a13, a13, 8
    1bc0:	ccda           	add.n	a12, a12, a13
    1bc2:	1921d2        	l32i	a13, a1, 100
    1bc5:	0008e0        	callx8	a8
    1bc8:	07bd           	mov.n	a11, a7
    1bca:	06ad           	mov.n	a10, a6
    1bcc:	05cd           	mov.n	a12, a5
    1bce:	1921d2        	l32i	a13, a1, 100
    1bd1:	f93481        	l32r	a8, a4 (450 <_Z4Lap2P5fractS0_S0_PKjii>)
    1bd4:	40a0e2        	movi	a14, 64
    1bd7:	01a0f2        	movi	a15, 1
    1bda:	0008e0        	callx8	a8
    1bdd:	102182        	l32i	a8, a1, 64
    1be0:	1621c2        	l32i	a12, a1, 88
    1be3:	0d2c           	movi.n	a13, 32
    1be5:	d1b8           	l32i.n	a11, a1, 52
    1be7:	119cc0        	slli	a9, a12, 4
    1bea:	c099c0        	sub	a9, a9, a12
    1bed:	11a9a0        	slli	a10, a9, 6
    1bf0:	acaa           	add.n	a10, a12, a10
    1bf2:	119980        	slli	a9, a9, 8
    1bf5:	9b9a           	add.n	a9, a11, a9
    1bf7:	a0aab0        	addx4	a10, a10, a11
    1bfa:	11ccd0        	slli	a12, a12, 3
    1bfd:	1121b2        	l32i	a11, a1, 68
    1c00:	c099c0        	sub	a9, a9, a12
    1c03:	c0aac0        	sub	a10, a10, a12
    1c06:	f0cbb2        	addi	a11, a11, -16
    1c09:	148d76        	loop	a13, 1c21 <_Z27CShortBlock_FrequencyToTimeP28CAacDecoderStaticChannelInfoP22CAacDecoderChannelInfoP5fractiiiS4_+0x469>
    1c0c:	540814        	ae_lp24x2.i	aep0, a8, 8
    1c0f:	dc0170ab1f 	{ ae_lp24x2.iu	aep2, a11, 8; ae_selp24.hh	aep1, aep0, aep0 }

00001c14 <_Z27CShortBlock_FrequencyToTimeP28CAacDecoderStaticChannelInfoP22CAacDecoderChannelInfoP5fractiiiS4_+0x45c>:
    1c14:	c906b7a81f 	{ ae_sp24x2s.iu	aep2, a8, 8; ae_sllisp24s	aep2, aep1, 1 }
    1c19:	c802a6a9cf 	{ ae_sp24f.l.xu	aep2, a9, a12; ae_sllisp24s	aep0, aep0, 1 }
    1c1e:	538ac4        	ae_sp24f.l.xu	aep0, a10, a12

00001c21 <_Z27CShortBlock_FrequencyToTimeP28CAacDecoderStaticChannelInfoP22CAacDecoderChannelInfoP5fractiiiS4_+0x469>:
    1c21:	ff3bc6        	j	1914 <_Z27CShortBlock_FrequencyToTimeP28CAacDecoderStaticChannelInfoP22CAacDecoderChannelInfoP5fractiiiS4_+0x15c>

00001c24 <_Z29CShortBlock_ScaleSpectralDataP22CAacDecoderChannelInfo>:
    1c24:	00a136        	entry	a1, 80
    1c27:	3129           	s32i.n	a2, a1, 12
    1c29:	72b8           	l32i.n	a11, a2, 28
    1c2b:	0248           	l32i.n	a4, a2, 0
    1c2d:	82c8           	l32i.n	a12, a2, 32
    1c2f:	92d8           	l32i.n	a13, a2, 36
    1c31:	070452        	l8ui	a5, a4, 7
    1c34:	81d9           	s32i.n	a13, a1, 32
    1c36:	21c9           	s32i.n	a12, a1, 8
    1c38:	235500        	sext	a5, a5, 7
    1c3b:	02b5a6        	blti	a5, 16, 1c41 <_Z29CShortBlock_ScaleSpectralDataP22CAacDecoderChannelInfo+0x1d>
    1c3e:	004d06        	j	1d76 <_Z29CShortBlock_ScaleSpectralDataP22CAacDecoderChannelInfo+0x152>
    1c41:	090432        	l8ui	a3, a4, 9
    1c44:	f90781        	l32r	a8, 60 (109f0 <SamplingRateInfoTable>)
    1c47:	0604f2        	l8ui	a15, a4, 6
    1c4a:	030492        	l8ui	a9, a4, 3
    1c4d:	a06550        	addx4	a6, a5, a5
    1c50:	23ff00        	sext	a15, a15, 7
    1c53:	fec992        	addi	a9, a9, -2
    1c56:	a06680        	addx4	a6, a6, a8
    1c59:	2688           	l32i.n	a8, a6, 8
    1c5b:	4668           	l32i.n	a6, a6, 16
    1c5d:	233300        	sext	a3, a3, 7
    1c60:	0139           	s32i.n	a3, a1, 0
    1c62:	936890        	movnez	a6, a8, a9
    1c65:	6169           	s32i.n	a6, a1, 24
    1c67:	0213e6        	bgei	a3, 1, 1c6d <_Z29CShortBlock_ScaleSpectralDataP22CAacDecoderChannelInfo+0x49>
    1c6a:	004206        	j	1d76 <_Z29CShortBlock_ScaleSpectralDataP22CAacDecoderChannelInfo+0x152>
    1c6d:	5149           	s32i.n	a4, a1, 20
    1c6f:	0d0c           	movi.n	a13, 0
    1c71:	934a           	add.n	a9, a3, a4
    1c73:	1199           	s32i.n	a9, a1, 4

00001c75 <_Z29CShortBlock_ScaleSpectralDataP22CAacDecoderChannelInfo+0x51>:
    1c75:	51a8           	l32i.n	a10, a1, 20
    1c77:	0a0aa2        	l8ui	a10, a10, 10
    1c7a:	23aa00        	sext	a10, a10, 7
    1c7d:	431aa6        	blti	a10, 1, 1cc4 <_Z29CShortBlock_ScaleSpectralDataP22CAacDecoderChannelInfo+0xa0>
    1c80:	0e0c           	movi.n	a14, 0
    1c82:	3128           	l32i.n	a2, a1, 12
    1c84:	119dc0        	slli	a9, a13, 4
    1c87:	2188           	l32i.n	a8, a1, 8
    1c89:	11c9f0        	slli	a12, a9, 1
    1c8c:	1228           	l32i.n	a2, a2, 4
    1c8e:	908d80        	addx2	a8, a13, a8

00001c91 <_Z29CShortBlock_ScaleSpectralDataP22CAacDecoderChannelInfo+0x6d>:
    1c91:	151fa6        	blti	a15, 1, 1caa <_Z29CShortBlock_ScaleSpectralDataP22CAacDecoderChannelInfo+0x86>
    1c94:	8158           	l32i.n	a5, a1, 32
    1c96:	286d           	ae_l16si.n	a6, a8, 0
    1c98:	5c5a           	add.n	a5, a12, a5
    1c9a:	0caf76        	loopgtz	a15, 1caa <_Z29CShortBlock_ScaleSpectralDataP22CAacDecoderChannelInfo+0x86>
    1c9d:	257d           	ae_l16si.n	a7, a5, 0
    1c9f:	552b           	addi.n	a5, a5, 2
    1ca1:	03a677        	bge	a6, a7, 1ca8 <_Z29CShortBlock_ScaleSpectralDataP22CAacDecoderChannelInfo+0x84>
    1ca4:	076d           	mov.n	a6, a7
    1ca6:	687d           	ae_s16i.n	a7, a8, 0

00001ca8 <_Z29CShortBlock_ScaleSpectralDataP22CAacDecoderChannelInfo+0x84>:
    1ca8:	f03d           	nop.n

00001caa <_Z29CShortBlock_ScaleSpectralDataP22CAacDecoderChannelInfo+0x86>:
    1caa:	000232        	l8ui	a3, a2, 0
    1cad:	438c           	beqz.n	a3, 1cb5 <_Z29CShortBlock_ScaleSpectralDataP22CAacDecoderChannelInfo+0x91>
    1caf:	283d           	ae_l16si.n	a3, a8, 0
    1cb1:	332b           	addi.n	a3, a3, 2
    1cb3:	683d           	ae_s16i.n	a3, a8, 0

00001cb5 <_Z29CShortBlock_ScaleSpectralDataP22CAacDecoderChannelInfo+0x91>:
    1cb5:	dd1b           	addi.n	a13, a13, 1
    1cb7:	10c992        	addi	a9, a9, 16
    1cba:	20ccc2        	addi	a12, a12, 32
    1cbd:	882b           	addi.n	a8, a8, 2
    1cbf:	ee1b           	addi.n	a14, a14, 1
    1cc1:	cc9ae7        	bne	a10, a14, 1c91 <_Z29CShortBlock_ScaleSpectralDataP22CAacDecoderChannelInfo+0x6d>

00001cc4 <_Z29CShortBlock_ScaleSpectralDataP22CAacDecoderChannelInfo+0xa0>:
    1cc4:	5148           	l32i.n	a4, a1, 20
    1cc6:	1188           	l32i.n	a8, a1, 4
    1cc8:	441b           	addi.n	a4, a4, 1
    1cca:	5149           	s32i.n	a4, a1, 20
    1ccc:	a59487        	bne	a4, a8, 1c75 <_Z29CShortBlock_ScaleSpectralDataP22CAacDecoderChannelInfo+0x51>
    1ccf:	0d0c           	movi.n	a13, 0
    1cd1:	6198           	l32i.n	a9, a1, 24
    1cd3:	0c0c           	movi.n	a12, 0
    1cd5:	41c9           	s32i.n	a12, a1, 16
    1cd7:	909f90        	addx2	a9, a15, a9

00001cda <_Z29CShortBlock_ScaleSpectralDataP22CAacDecoderChannelInfo+0xb6>:
    1cda:	31c8           	l32i.n	a12, a1, 12
    1cdc:	41a8           	l32i.n	a10, a1, 16
    1cde:	0cc8           	l32i.n	a12, a12, 0
    1ce0:	aaca           	add.n	a10, a10, a12
    1ce2:	0a0aa2        	l8ui	a10, a10, 10
    1ce5:	23aa00        	sext	a10, a10, 7
    1ce8:	71a9           	s32i.n	a10, a1, 28
    1cea:	7a1aa6        	blti	a10, 1, 1d68 <_Z29CShortBlock_ScaleSpectralDataP22CAacDecoderChannelInfo+0x144>
    1ced:	11ad90        	slli	a10, a13, 7
    1cf0:	0e0c           	movi.n	a14, 0
    1cf2:	2188           	l32i.n	a8, a1, 8
    1cf4:	11cdc0        	slli	a12, a13, 4
    1cf7:	11ccf0        	slli	a12, a12, 1
    1cfa:	908d80        	addx2	a8, a13, a8

00001cfd <_Z29CShortBlock_ScaleSpectralDataP22CAacDecoderChannelInfo+0xd9>:
    1cfd:	521fa6        	blti	a15, 1, 1d53 <_Z29CShortBlock_ScaleSpectralDataP22CAacDecoderChannelInfo+0x12f>
    1d00:	8158           	l32i.n	a5, a1, 32
    1d02:	6168           	l32i.n	a6, a1, 24
    1d04:	5c5a           	add.n	a5, a12, a5

00001d06 <_Z29CShortBlock_ScaleSpectralDataP22CAacDecoderChannelInfo+0xe2>:
    1d06:	283d           	ae_l16si.n	a3, a8, 0
    1d08:	562d           	ae_l16ui.n	a2, a6, 2
    1d0a:	467d           	ae_l16ui.n	a7, a6, 0
    1d0c:	254d           	ae_l16si.n	a4, a5, 0
    1d0e:	552b           	addi.n	a5, a5, 2
    1d10:	662b           	addi.n	a6, a6, 2
    1d12:	c03340        	sub	a3, a3, a4
    1d15:	031634        	wur.ae_sar	a3
    1d18:	34a727        	bge	a7, a2, 1d50 <_Z29CShortBlock_ScaleSpectralDataP22CAacDecoderChannelInfo+0x12c>
    1d1b:	804a70        	add	a4, a10, a7
    1d1e:	c03270        	sub	a3, a2, a7
    1d21:	331b           	addi.n	a3, a3, 1
    1d23:	a044b0        	addx4	a4, a4, a11
    1d26:	f8c422        	addi	a2, a4, -8
    1d29:	217130        	srai	a7, a3, 1
    1d2c:	086317        	bbci	a3, 1, 1d38 <_Z29CShortBlock_ScaleSpectralDataP22CAacDecoderChannelInfo+0x114>
    1d2f:	540404        	ae_lp24x2.i	aep0, a4, 0
    1d32:	0b0384        	ae_srasp24	aep0, aep0
    1d35:	568214        	ae_sp24x2s.iu	aep0, a2, 8

00001d38 <_Z29CShortBlock_ScaleSpectralDataP22CAacDecoderChannelInfo+0x114>:
    1d38:	213170        	srai	a3, a7, 1
    1d3b:	f03d           	nop.n
    1d3d:	0fa376        	loopgtz	a3, 1d50 <_Z29CShortBlock_ScaleSpectralDataP22CAacDecoderChannelInfo+0x12c>
    1d40:	540214        	ae_lp24x2.i	aep0, a2, 8
    1d43:	f8a3f0022f 	{ ae_lp24x2.i	aep0, a2, 16; ae_srasp24	aep1, aep0 }
    1d48:	f8a3b7121f 	{ ae_sp24x2s.i	aep1, a2, 8; ae_srasp24	aep0, aep0 }
    1d4d:	568224        	ae_sp24x2s.iu	aep0, a2, 16

00001d50 <_Z29CShortBlock_ScaleSpectralDataP22CAacDecoderChannelInfo+0x12c>:
    1d50:	b29697        	bne	a6, a9, 1d06 <_Z29CShortBlock_ScaleSpectralDataP22CAacDecoderChannelInfo+0xe2>

00001d53 <_Z29CShortBlock_ScaleSpectralDataP22CAacDecoderChannelInfo+0x12f>:
    1d53:	dd1b           	addi.n	a13, a13, 1
    1d55:	20ccc2        	addi	a12, a12, 32
    1d58:	882b           	addi.n	a8, a8, 2
    1d5a:	01cee2        	addi	a14, a14, 1
    1d5d:	7138           	l32i.n	a3, a1, 28
    1d5f:	01daa2        	addmi	a10, a10, 0x100
    1d62:	80caa2        	addi	a10, a10, -128
    1d65:	9493e7        	bne	a3, a14, 1cfd <_Z29CShortBlock_ScaleSpectralDataP22CAacDecoderChannelInfo+0xd9>

00001d68 <_Z29CShortBlock_ScaleSpectralDataP22CAacDecoderChannelInfo+0x144>:
    1d68:	41a8           	l32i.n	a10, a1, 16
    1d6a:	0188           	l32i.n	a8, a1, 0
    1d6c:	aa1b           	addi.n	a10, a10, 1
    1d6e:	41a9           	s32i.n	a10, a1, 16
    1d70:	c088a0        	sub	a8, a8, a10
    1d73:	f63856        	bnez	a8, 1cda <_Z29CShortBlock_ScaleSpectralDataP22CAacDecoderChannelInfo+0xb6>

00001d76 <_Z29CShortBlock_ScaleSpectralDataP22CAacDecoderChannelInfo+0x152>:
    1d76:	f01d           	retw.n

00001d78 <_Z16CShortBlock_InitP22CAacDecoderChannelInfo>:
    1d78:	004136        	entry	a1, 32
    1d7b:	090c           	movi.n	a9, 0
    1d7d:	040c           	movi.n	a4, 0
    1d7f:	250c           	movi.n	a5, 2
    1d81:	070c           	movi.n	a7, 0
    1d83:	b2c8           	l32i.n	a12, a2, 44
    1d85:	080c           	movi.n	a8, 0
    1d87:	a2b8           	l32i.n	a11, a2, 40
    1d89:	10cca2        	addi	a10, a12, 16
    1d8c:	8028c0        	add	a2, a8, a12
    1d8f:	8037b0        	add	a3, a7, a11

00001d92 <_Z16CShortBlock_InitP22CAacDecoderChannelInfo+0x1a>:
    1d92:	10caa2        	addi	a10, a10, 16
    1d95:	991b           	addi.n	a9, a9, 1
    1d97:	20c772        	addi	a7, a7, 32
    1d9a:	10c882        	addi	a8, a8, 16
    1d9d:	318576        	loop	a5, 1dd2 <_Z16CShortBlock_InitP22CAacDecoderChannelInfo+0x5a>
    1da0:	004242        	s8i	a4, a2, 0
    1da3:	09c344        	ae_s16ip	a4, a3, 2
    1da6:	014242        	s8i	a4, a2, 1
    1da9:	09c344        	ae_s16ip	a4, a3, 2
    1dac:	024242        	s8i	a4, a2, 2
    1daf:	09c344        	ae_s16ip	a4, a3, 2
    1db2:	034242        	s8i	a4, a2, 3
    1db5:	09c344        	ae_s16ip	a4, a3, 2
    1db8:	044242        	s8i	a4, a2, 4
    1dbb:	09c344        	ae_s16ip	a4, a3, 2
    1dbe:	054242        	s8i	a4, a2, 5
    1dc1:	09c344        	ae_s16ip	a4, a3, 2
    1dc4:	064242        	s8i	a4, a2, 6
    1dc7:	09c344        	ae_s16ip	a4, a3, 2
    1dca:	074242        	s8i	a4, a2, 7
    1dcd:	09c344        	ae_s16ip	a4, a3, 2
    1dd0:	228b           	addi.n	a2, a2, 8

00001dd2 <_Z16CShortBlock_InitP22CAacDecoderChannelInfo+0x5a>:
    1dd2:	250c           	movi.n	a5, 2
    1dd4:	37ba           	add.n	a3, a7, a11
    1dd6:	28ca           	add.n	a2, a8, a12
    1dd8:	b68966        	bnei	a9, 8, 1d92 <_Z16CShortBlock_InitP22CAacDecoderChannelInfo+0x1a>
    1ddb:	f01d           	retw.n

00001ddd <_Z16CShortBlock_InitP22CAacDecoderChannelInfo+0x65>:
    1ddd:	000000                                        ...

00001de0 <_Z20CJointStereo_ApplyISPP22CAacDecoderChannelInfoPKtPciih>:
    1de0:	010136        	entry	a1, 128
    1de3:	5139           	s32i.n	a3, a1, 20
    1de5:	2149           	s32i.n	a4, a1, 8
    1de7:	3159           	s32i.n	a5, a1, 12
    1de9:	0298           	l32i.n	a9, a2, 0
    1deb:	136172        	s32i	a7, a1, 76
    1dee:	1199           	s32i.n	a9, a1, 4
    1df0:	4998           	l32i.n	a9, a9, 16
    1df2:	106192        	s32i	a9, a1, 64
    1df5:	0215e6        	bgei	a5, 1, 1dfb <_Z20CJointStereo_ApplyISPP22CAacDecoderChannelInfoPKtPciih+0x1b>
    1df8:	006a46        	j	1fa5 <_Z20CJointStereo_ApplyISPP22CAacDecoderChannelInfoPKtPciih+0x1c5>
    1dfb:	f50c           	movi.n	a5, 15
    1dfd:	f8ab91        	l32r	a9, ac (109e8 <specExpMantTableComb>)
    1e00:	070c           	movi.n	a7, 0
    1e02:	1228           	l32i.n	a2, a2, 4
    1e04:	080c           	movi.n	a8, 0
    1e06:	4189           	s32i.n	a8, a1, 16
    1e08:	0129           	s32i.n	a2, a1, 0
    1e0a:	d179           	s32i.n	a7, a1, 52
    1e0c:	0998           	l32i.n	a9, a9, 0
    1e0e:	e70c           	movi.n	a7, 14
    1e10:	126192        	s32i	a9, a1, 72
    1e13:	b298           	l32i.n	a9, a2, 44
    1e15:	a228           	l32i.n	a2, a2, 40
    1e17:	000546        	j	1e30 <_Z20CJointStereo_ApplyISPP22CAacDecoderChannelInfoPKtPciih+0x50>

00001e1a <_Z20CJointStereo_ApplyISPP22CAacDecoderChannelInfoPKtPciih+0x3a>:
    1e1a:	10cf92        	addi	a9, a15, 16
    1e1d:	9128           	l32i.n	a2, a1, 36
    1e1f:	41b8           	l32i.n	a11, a1, 16
    1e21:	31a8           	l32i.n	a10, a1, 12
    1e23:	20c222        	addi	a2, a2, 32
    1e26:	bb1b           	addi.n	a11, a11, 1
    1e28:	41b9           	s32i.n	a11, a1, 16
    1e2a:	c0aab0        	sub	a10, a10, a11
    1e2d:	174a16        	beqz	a10, 1fa5 <_Z20CJointStereo_ApplyISPP22CAacDecoderChannelInfoPKtPciih+0x1c5>

00001e30 <_Z20CJointStereo_ApplyISPP22CAacDecoderChannelInfoPKtPciih+0x50>:
    1e30:	21a8           	l32i.n	a10, a1, 8
    1e32:	4188           	l32i.n	a8, a1, 16
    1e34:	88aa           	add.n	a8, a8, a10
    1e36:	6189           	s32i.n	a8, a1, 24
    1e38:	000882        	l8ui	a8, a8, 0
    1e3b:	09fd           	mov.n	a15, a9
    1e3d:	9129           	s32i.n	a2, a1, 36
    1e3f:	232800        	sext	a2, a8, 7
    1e42:	d412a6        	blti	a2, 1, 1e1a <_Z20CJointStereo_ApplyISPP22CAacDecoderChannelInfoPKtPciih+0x3a>
    1e45:	01e8           	l32i.n	a14, a1, 0
    1e47:	d198           	l32i.n	a9, a1, 52
    1e49:	1188           	l32i.n	a8, a1, 4
    1e4b:	41b8           	l32i.n	a11, a1, 16
    1e4d:	11c9b0        	slli	a12, a9, 5
    1e50:	98d8           	l32i.n	a13, a8, 36
    1e52:	401b00        	ssl	a11
    1e55:	9ea8           	l32i.n	a10, a14, 36
    1e57:	0b0c           	movi.n	a11, 0
    1e59:	7ee8           	l32i.n	a14, a14, 28
    1e5b:	7888           	l32i.n	a8, a8, 28
    1e5d:	119960        	slli	a9, a9, 10
    1e60:	e199           	s32i.n	a9, a1, 56
    1e62:	7189           	s32i.n	a8, a1, 28
    1e64:	81e9           	s32i.n	a14, a1, 32
    1e66:	dcda           	add.n	a13, a12, a13
    1e68:	c1b9           	s32i.n	a11, a1, 48
    1e6a:	ccaa           	add.n	a12, a12, a10
    1e6c:	1a0c           	movi.n	a10, 1
    1e6e:	a1aa00        	sll	a10, a10
    1e71:	74a0a0        	extui	a10, a10, 0, 8
    1e74:	1161a2        	s32i	a10, a1, 68
    1e77:	000a86        	j	1ea5 <_Z20CJointStereo_ApplyISPP22CAacDecoderChannelInfoPKtPciih+0xc5>

00001e7a <_Z20CJointStereo_ApplyISPP22CAacDecoderChannelInfoPKtPciih+0x9a>:
    1e7a:	6128           	l32i.n	a2, a1, 24
    1e7c:	000222        	l8ui	a2, a2, 0
    1e7f:	232200        	sext	a2, a2, 7

00001e82 <_Z20CJointStereo_ApplyISPP22CAacDecoderChannelInfoPKtPciih+0xa2>:
    1e82:	e198           	l32i.n	a9, a1, 56
    1e84:	b1c8           	l32i.n	a12, a1, 44
    1e86:	c188           	l32i.n	a8, a1, 48
    1e88:	d1d8           	l32i.n	a13, a1, 52
    1e8a:	20ccc2        	addi	a12, a12, 32
    1e8d:	881b           	addi.n	a8, a8, 1
    1e8f:	dd1b           	addi.n	a13, a13, 1
    1e91:	04d992        	addmi	a9, a9, 0x400
    1e94:	d1d9           	s32i.n	a13, a1, 52
    1e96:	a1d8           	l32i.n	a13, a1, 40
    1e98:	e199           	s32i.n	a9, a1, 56
    1e9a:	c189           	s32i.n	a8, a1, 48
    1e9c:	20cdd2        	addi	a13, a13, 32
    1e9f:	022827        	blt	a8, a2, 1ea5 <_Z20CJointStereo_ApplyISPP22CAacDecoderChannelInfoPKtPciih+0xc5>
    1ea2:	ffdd06        	j	1e1a <_Z20CJointStereo_ApplyISPP22CAacDecoderChannelInfoPKtPciih+0x3a>

00001ea5 <_Z20CJointStereo_ApplyISPP22CAacDecoderChannelInfoPKtPciih+0xc5>:
    1ea5:	b1c9           	s32i.n	a12, a1, 44
    1ea7:	e1a8           	l32i.n	a10, a1, 56
    1ea9:	a1d9           	s32i.n	a13, a1, 40
    1eab:	71b8           	l32i.n	a11, a1, 28
    1ead:	9a7b           	addi.n	a9, a10, 7
    1eaf:	b39aa0        	movgez	a9, a10, a10
    1eb2:	81a8           	l32i.n	a10, a1, 32
    1eb4:	219390        	srai	a9, a9, 3
    1eb7:	a0b9b0        	addx4	a11, a9, a11
    1eba:	1461b2        	s32i	a11, a1, 80
    1ebd:	a099a0        	addx4	a9, a9, a10
    1ec0:	f199           	s32i.n	a9, a1, 60
    1ec2:	bc16a6        	blti	a6, 1, 1e82 <_Z20CJointStereo_ApplyISPP22CAacDecoderChannelInfoPKtPciih+0xa2>
    1ec5:	51b8           	l32i.n	a11, a1, 20
    1ec7:	91e8           	l32i.n	a14, a1, 36
    1ec9:	0a0c           	movi.n	a10, 0
    1ecb:	4afa           	add.n	a4, a10, a15
    1ecd:	001dc6        	j	1f48 <_Z20CJointStereo_ApplyISPP22CAacDecoderChannelInfoPKtPciih+0x168>

00001ed0 <_Z20CJointStereo_ApplyISPP22CAacDecoderChannelInfoPKtPciih+0xf0>:
    1ed0:	000492        	l8ui	a9, a4, 0
    1ed3:	180c           	movi.n	a8, 1
    1ed5:	020c           	movi.n	a2, 0
    1ed7:	fc580f299e 	{ addi	a9, a9, -14; ae_negsp24s	aep0, aep2 }
    1edc:	832890        	moveqz	a2, a8, a9
    1edf:	128c           	beqz.n	a2, 1ee4 <_Z20CJointStereo_ApplyISPP22CAacDecoderChannelInfoPKtPciih+0x104>
    1ee1:	0904a4        	ae_movp48	aep2, aep0

00001ee4 <_Z20CJointStereo_ApplyISPP22CAacDecoderChannelInfoPKtPciih+0x104>:
    1ee4:	4b8d           	ae_l16ui.n	a8, a11, 0
    1ee6:	5b2d           	ae_l16ui.n	a2, a11, 2
    1ee8:	156182        	s32i	a8, a1, 84
    1eeb:	a03830        	addx4	a3, a8, a3
    1eee:	540304        	ae_lp24x2.i	aep0, a3, 0
    1ef1:	41a827        	bge	a8, a2, 1f36 <_Z20CJointStereo_ApplyISPP22CAacDecoderChannelInfoPKtPciih+0x156>
    1ef4:	f188           	l32i.n	a8, a1, 60
    1ef6:	152142        	l32i	a4, a1, 84
    1ef9:	010274        	ae_mulfp24s.ll	aeq0, aep0, aep2
    1efc:	ea40f0831f 	{ ae_lp24x2.iu	aep0, a3, 8; ae_mulfp24s.hl	aeq1, aep0, aep2 }
    1f01:	a08480        	addx4	a8, a4, a8
    1f04:	f8efd5424f 	{ sub	a4, a2, a4; ae_roundsp24q48sym	aep1, aeq1 }
    1f09:	4e1804        	ae_sp24s.l.i	aep1, a8, 0
    1f0c:	fcc822        	addi	a2, a8, -4
    1f0f:	441b           	addi.n	a4, a4, 1
    1f11:	180c           	movi.n	a8, 1
    1f13:	214140        	srai	a4, a4, 1
    1f16:	534480        	max	a4, a4, a8
    1f19:	f8e7cff44e 	{ addi	a4, a4, -1; ae_roundsp24q48sym	aep1, aeq0 }
    1f1e:	11a476        	loopgtz	a4, 1f33 <_Z20CJointStereo_ApplyISPP22CAacDecoderChannelInfoPKtPciih+0x153>
    1f21:	ea40b5922f 	{ ae_sp24s.l.iu	aep1, a2, 8; ae_mulfp24s.hl	aeq0, aep0, aep2 }
    1f26:	ea41f0831f 	{ ae_lp24x2.iu	aep0, a3, 8; ae_mulfp24s.ll	aeq1, aep0, aep2 }
    1f2b:	1b8c14        	ae_roundsp24q48sym	aep1, aeq0
    1f2e:	f8eff5121f 	{ ae_sp24s.l.i	aep1, a2, 4; ae_roundsp24q48sym	aep1, aeq1 }

00001f33 <_Z20CJointStereo_ApplyISPP22CAacDecoderChannelInfoPKtPciih+0x153>:
    1f33:	4e9224        	ae_sp24s.l.iu	aep1, a2, 8

00001f36 <_Z20CJointStereo_ApplyISPP22CAacDecoderChannelInfoPKtPciih+0x156>:
    1f36:	bb2b           	addi.n	a11, a11, 2
    1f38:	cc2b           	addi.n	a12, a12, 2
    1f3a:	dd2b           	addi.n	a13, a13, 2
    1f3c:	ee2b           	addi.n	a14, a14, 2
    1f3e:	aa1b           	addi.n	a10, a10, 1
    1f40:	4afa           	add.n	a4, a10, a15
    1f42:	c086a0        	sub	a8, a6, a10
    1f45:	f31816        	beqz	a8, 1e7a <_Z20CJointStereo_ApplyISPP22CAacDecoderChannelInfoPKtPciih+0x9a>

00001f48 <_Z20CJointStereo_ApplyISPP22CAacDecoderChannelInfoPKtPciih+0x168>:
    1f48:	000422        	l8ui	a2, a4, 0
    1f4b:	021257        	beq	a2, a5, 1f51 <_Z20CJointStereo_ApplyISPP22CAacDecoderChannelInfoPKtPciih+0x171>
    1f4e:	e49277        	bne	a2, a7, 1f36 <_Z20CJointStereo_ApplyISPP22CAacDecoderChannelInfoPKtPciih+0x156>

00001f51 <_Z20CJointStereo_ApplyISPP22CAacDecoderChannelInfoPKtPciih+0x171>:
    1f51:	2e9d           	ae_l16si.n	a9, a14, 0
    1f53:	142132        	l32i	a3, a1, 80
    1f56:	2d8d           	ae_l16si.n	a8, a13, 0
    1f58:	64c992        	addi	a9, a9, 100
    1f5b:	609090        	neg	a9, a9
    1f5e:	142090        	extui	a2, a9, 0, 2
    1f61:	219290        	srai	a9, a9, 2
    1f64:	889a           	add.n	a8, a8, a9
    1f66:	122192        	l32i	a9, a1, 72
    1f69:	f02220        	subx8	a2, a2, a2
    1f6c:	881b           	addi.n	a8, a8, 1
    1f6e:	b02290        	addx8	a2, a2, a9
    1f71:	132192        	l32i	a9, a1, 76
    1f74:	6c8d           	ae_s16i.n	a8, a12, 0
    1f76:	4c2204        	ae_lp24.i	aep2, a2, 0
    1f79:	f53916        	beqz	a9, 1ed0 <_Z20CJointStereo_ApplyISPP22CAacDecoderChannelInfoPKtPciih+0xf0>
    1f7c:	102192        	l32i	a9, a1, 64
    1f7f:	112182        	l32i	a8, a1, 68
    1f82:	9a9a           	add.n	a9, a10, a9
    1f84:	010992        	l8ui	a9, a9, 1
    1f87:	020c           	movi.n	a2, 0
    1f89:	028897        	bany	a8, a9, 1f8f <_Z20CJointStereo_ApplyISPP22CAacDecoderChannelInfoPKtPciih+0x1af>
    1f8c:	ffd006        	j	1ed0 <_Z20CJointStereo_ApplyISPP22CAacDecoderChannelInfoPKtPciih+0xf0>
    1f8f:	000492        	l8ui	a9, a4, 0
    1f92:	180c           	movi.n	a8, 1
    1f94:	fc580f199e 	{ addi	a9, a9, -15; ae_negsp24s	aep0, aep2 }
    1f99:	832890        	moveqz	a2, a8, a9
    1f9c:	f44216        	beqz	a2, 1ee4 <_Z20CJointStereo_ApplyISPP22CAacDecoderChannelInfoPKtPciih+0x104>
    1f9f:	0904a4        	ae_movp48	aep2, aep0
    1fa2:	ffcf86        	j	1ee4 <_Z20CJointStereo_ApplyISPP22CAacDecoderChannelInfoPKtPciih+0x104>

00001fa5 <_Z20CJointStereo_ApplyISPP22CAacDecoderChannelInfoPKtPciih+0x1c5>:
    1fa5:	f01d           	retw.n

00001fa7 <_Z20CJointStereo_ApplyISPP22CAacDecoderChannelInfoPKtPciih+0x1c7>:
	...

00001fa8 <_Z20CJointStereo_ApplyMSPP22CAacDecoderChannelInfoPKtPcii>:
    1fa8:	00e136        	entry	a1, 112
    1fab:	06dd           	mov.n	a13, a6
    1fad:	3129           	s32i.n	a2, a1, 12
    1faf:	7139           	s32i.n	a3, a1, 28
    1fb1:	4149           	s32i.n	a4, a1, 16
    1fb3:	0288           	l32i.n	a8, a2, 0
    1fb5:	5159           	s32i.n	a5, a1, 20
    1fb7:	2189           	s32i.n	a8, a1, 8
    1fb9:	4888           	l32i.n	a8, a8, 16
    1fbb:	126182        	s32i	a8, a1, 72
    1fbe:	0215e6        	bgei	a5, 1, 1fc4 <_Z20CJointStereo_ApplyMSPP22CAacDecoderChannelInfoPKtPcii+0x1c>
    1fc1:	007b06        	j	21b1 <_Z20CJointStereo_ApplyMSPP22CAacDecoderChannelInfoPKtPcii+0x209>
    1fc4:	070c           	movi.n	a7, 0
    1fc6:	080c           	movi.n	a8, 0
    1fc8:	6189           	s32i.n	a8, a1, 24
    1fca:	e179           	s32i.n	a7, a1, 56
    1fcc:	000386        	j	1fde <_Z20CJointStereo_ApplyMSPP22CAacDecoderChannelInfoPKtPcii+0x36>

00001fcf <_Z20CJointStereo_ApplyMSPP22CAacDecoderChannelInfoPKtPcii+0x27>:
	...

00001fd0 <_Z20CJointStereo_ApplyMSPP22CAacDecoderChannelInfoPKtPcii+0x28>:
    1fd0:	61a8           	l32i.n	a10, a1, 24
    1fd2:	5198           	l32i.n	a9, a1, 20
    1fd4:	aa1b           	addi.n	a10, a10, 1
    1fd6:	61a9           	s32i.n	a10, a1, 24
    1fd8:	c099a0        	sub	a9, a9, a10
    1fdb:	1d2916        	beqz	a9, 21b1 <_Z20CJointStereo_ApplyMSPP22CAacDecoderChannelInfoPKtPcii+0x209>

00001fde <_Z20CJointStereo_ApplyMSPP22CAacDecoderChannelInfoPKtPcii+0x36>:
    1fde:	4178           	l32i.n	a7, a1, 16
    1fe0:	6168           	l32i.n	a6, a1, 24
    1fe2:	667a           	add.n	a6, a6, a7
    1fe4:	8169           	s32i.n	a6, a1, 32
    1fe6:	000662        	l8ui	a6, a6, 0
    1fe9:	236600        	sext	a6, a6, 7
    1fec:	e016a6        	blti	a6, 1, 1fd0 <_Z20CJointStereo_ApplyMSPP22CAacDecoderChannelInfoPKtPcii+0x28>
    1fef:	e1b8           	l32i.n	a11, a1, 56
    1ff1:	21c8           	l32i.n	a12, a1, 8
    1ff3:	6188           	l32i.n	a8, a1, 24
    1ff5:	0e0c           	movi.n	a14, 0
    1ff7:	d1e9           	s32i.n	a14, a1, 52
    1ff9:	401800        	ssl	a8
    1ffc:	7cf8           	l32i.n	a15, a12, 28
    1ffe:	117b60        	slli	a7, a11, 10
    2001:	9cc8           	l32i.n	a12, a12, 36
    2003:	11bbb0        	slli	a11, a11, 5
    2006:	91f9           	s32i.n	a15, a1, 36
    2008:	f179           	s32i.n	a7, a1, 60
    200a:	31f8           	l32i.n	a15, a1, 12
    200c:	170c           	movi.n	a7, 1
    200e:	a17700        	sll	a7, a7
    2011:	cbca           	add.n	a12, a11, a12
    2013:	1ff8           	l32i.n	a15, a15, 4
    2015:	747070        	extui	a7, a7, 0, 8
    2018:	136172        	s32i	a7, a1, 76
    201b:	9fe8           	l32i.n	a14, a15, 36
    201d:	7ff8           	l32i.n	a15, a15, 28
    201f:	a1f9           	s32i.n	a15, a1, 40
    2021:	bbea           	add.n	a11, a11, a14
    2023:	0009c6        	j	204e <_Z20CJointStereo_ApplyMSPP22CAacDecoderChannelInfoPKtPcii+0xa6>

00002026 <_Z20CJointStereo_ApplyMSPP22CAacDecoderChannelInfoPKtPcii+0x7e>:
    2026:	8168           	l32i.n	a6, a1, 32
    2028:	000662        	l8ui	a6, a6, 0
    202b:	236600        	sext	a6, a6, 7

0000202e <_Z20CJointStereo_ApplyMSPP22CAacDecoderChannelInfoPKtPcii+0x86>:
    202e:	f188           	l32i.n	a8, a1, 60
    2030:	c1b8           	l32i.n	a11, a1, 48
    2032:	d178           	l32i.n	a7, a1, 52
    2034:	e1c8           	l32i.n	a12, a1, 56
    2036:	20cbb2        	addi	a11, a11, 32
    2039:	771b           	addi.n	a7, a7, 1
    203b:	cc1b           	addi.n	a12, a12, 1
    203d:	04d882        	addmi	a8, a8, 0x400
    2040:	e1c9           	s32i.n	a12, a1, 56
    2042:	b1c8           	l32i.n	a12, a1, 44
    2044:	f189           	s32i.n	a8, a1, 60
    2046:	d179           	s32i.n	a7, a1, 52
    2048:	20ccc2        	addi	a12, a12, 32
    204b:	81a767        	bge	a7, a6, 1fd0 <_Z20CJointStereo_ApplyMSPP22CAacDecoderChannelInfoPKtPcii+0x28>

0000204e <_Z20CJointStereo_ApplyMSPP22CAacDecoderChannelInfoPKtPcii+0xa6>:
    204e:	c1b9           	s32i.n	a11, a1, 48
    2050:	f188           	l32i.n	a8, a1, 60
    2052:	b1c9           	s32i.n	a12, a1, 44
    2054:	9198           	l32i.n	a9, a1, 36
    2056:	787b           	addi.n	a7, a8, 7
    2058:	b37880        	movgez	a7, a8, a8
    205b:	a188           	l32i.n	a8, a1, 40
    205d:	217370        	srai	a7, a7, 3
    2060:	a09790        	addx4	a9, a7, a9
    2063:	106192        	s32i	a9, a1, 64
    2066:	a07780        	addx4	a7, a7, a8
    2069:	116172        	s32i	a7, a1, 68
    206c:	be1da6        	blti	a13, 1, 202e <_Z20CJointStereo_ApplyMSPP22CAacDecoderChannelInfoPKtPcii+0x86>
    206f:	71a8           	l32i.n	a10, a1, 28
    2071:	090c           	movi.n	a9, 0
    2073:	002146        	j	20fc <_Z20CJointStereo_ApplyMSPP22CAacDecoderChannelInfoPKtPcii+0x154>

00002076 <_Z20CJointStereo_ApplyMSPP22CAacDecoderChannelInfoPKtPcii+0xce>:
	...

00002078 <_Z20CJointStereo_ApplyMSPP22CAacDecoderChannelInfoPKtPcii+0xd0>:
    2078:	540404        	ae_lp24x2.i	aep0, a4, 0
    207b:	600204        	ae_lq32f.i	aeq0, a2, 0
    207e:	6cafe7        	bge	a15, a14, 20ee <_Z20CJointStereo_ApplyMSPP22CAacDecoderChannelInfoPKtPcii+0x146>
    2081:	35c074        	ae_sraiq56	aeq3, aeq0, 1
    2084:	f80471        	l32r	a7, 94 (400000 <_end+0x3ef448>)
    2087:	c05ef0        	sub	a5, a14, a15
    208a:	c08360        	sub	a8, a3, a6
    208d:	400800        	ssr	a8
    2090:	551b           	addi.n	a5, a5, 1
    2092:	215150        	srai	a5, a5, 1
    2095:	b17070        	sra	a7, a7
    2098:	379774        	ae_truncp24a32x2	aep1, a7, a7
    209b:	e3234fc43e 	{ addi	a3, a4, -4; ae_mulafp24s.hl	aeq3, aep0, aep1 }
    20a0:	550b           	addi.n	a5, a5, -1
    20a2:	fe5c7d621f 	{ ae_lq32f.i	aeq3, a2, 4; ae_roundsq32sym	aeq2, aeq3 }
    20a7:	357074        	ae_sraiq56	aeq1, aeq3, 1
    20aa:	e223f9a40f 	{ ae_sq32f.i	aeq2, a4, 0; ae_mulafp24s.ll	aeq1, aep0, aep1 }
    20af:	f832f0841f 	{ ae_lp24x2.iu	aep0, a4, 8; ae_subq56	aeq0, aeq2, aeq0 }
    20b4:	fe4c79820f 	{ ae_sq32f.i	aeq0, a2, 0; ae_roundsq32sym	aeq2, aeq1 }
    20b9:	626324        	ae_sq32f.iu	aeq2, a3, 8
    20bc:	fab6fd122f 	{ ae_lq32f.iu	aeq0, a2, 8; ae_subq56	aeq2, aeq2, aeq3 }
    20c1:	26a576        	loopgtz	a5, 20eb <_Z20CJointStereo_ApplyMSPP22CAacDecoderChannelInfoPKtPcii+0x143>
    20c4:	354074        	ae_sraiq56	aeq1, aeq0, 1
    20c7:	e22379a2ff 	{ ae_sq32f.i	aeq2, a2, -4; ae_mulafp24s.hl	aeq1, aep0, aep1 }
    20cc:	608214        	ae_lq32f.i	aeq2, a2, 4
    20cf:	ff4c7b205f 	{ ae_sraiq56	aeq1, aeq2, 1; ae_roundsq32sym	aeq3, aeq1 }
    20d4:	e223f9b31f 	{ ae_sq32f.i	aeq3, a3, 4; ae_mulafp24s.ll	aeq1, aep0, aep1 }
    20d9:	fb3af0841f 	{ ae_lp24x2.iu	aep0, a4, 8; ae_subq56	aeq3, aeq3, aeq0 }
    20de:	fd4c79b20f 	{ ae_sq32f.i	aeq3, a2, 0; ae_roundsq32sym	aeq1, aeq1 }
    20e3:	faaaf9d32f 	{ ae_sq32f.iu	aeq1, a3, 8; ae_subq56	aeq2, aeq1, aeq2 }
    20e8:	601224        	ae_lq32f.iu	aeq0, a2, 8

000020eb <_Z20CJointStereo_ApplyMSPP22CAacDecoderChannelInfoPKtPcii+0x143>:
    20eb:	6222f4        	ae_sq32f.i	aeq2, a2, -4

000020ee <_Z20CJointStereo_ApplyMSPP22CAacDecoderChannelInfoPKtPcii+0x146>:
    20ee:	aa2b           	addi.n	a10, a10, 2
    20f0:	02cbb2        	addi	a11, a11, 2
    20f3:	02ccc2        	addi	a12, a12, 2
    20f6:	c0fd90        	sub	a15, a13, a9
    20f9:	f29f16        	beqz	a15, 2026 <_Z20CJointStereo_ApplyMSPP22CAacDecoderChannelInfoPKtPcii+0x7e>

000020fc <_Z20CJointStereo_ApplyMSPP22CAacDecoderChannelInfoPKtPcii+0x154>:
    20fc:	122182        	l32i	a8, a1, 72
    20ff:	112122        	l32i	a2, a1, 68
    2102:	132172        	l32i	a7, a1, 76
    2105:	898a           	add.n	a8, a9, a8
    2107:	010882        	l8ui	a8, a8, 1
    210a:	102142        	l32i	a4, a1, 64
    210d:	991b           	addi.n	a9, a9, 1
    210f:	db0787        	bnone	a7, a8, 20ee <_Z20CJointStereo_ApplyMSPP22CAacDecoderChannelInfoPKtPcii+0x146>
    2112:	2b5d           	ae_l16si.n	a5, a11, 0
    2114:	2c6d           	ae_l16si.n	a6, a12, 0
    2116:	533650        	max	a3, a6, a5
    2119:	731b           	addi.n	a7, a3, 1
    211b:	6c7d           	ae_s16i.n	a7, a12, 0
    211d:	6b7d           	ae_s16i.n	a7, a11, 0
    211f:	4afd           	ae_l16ui.n	a15, a10, 0
    2121:	5aed           	ae_l16ui.n	a14, a10, 2
    2123:	c07360        	sub	a7, a3, a6
    2126:	a04f40        	addx4	a4, a15, a4
    2129:	a02f20        	addx4	a2, a15, a2
    212c:	f48756        	bnez	a7, 2078 <_Z20CJointStereo_ApplyMSPP22CAacDecoderChannelInfoPKtPcii+0xd0>
    212f:	600404        	ae_lq32f.i	aeq0, a4, 0
    2132:	540204        	ae_lp24x2.i	aep0, a2, 0
    2135:	b5afe7        	bge	a15, a14, 20ee <_Z20CJointStereo_ApplyMSPP22CAacDecoderChannelInfoPKtPcii+0x146>
    2138:	60c414        	ae_lq32f.i	aeq3, a4, 4
    213b:	358074        	ae_sraiq56	aeq2, aeq0, 1
    213e:	f7d571        	l32r	a7, 94 (400000 <_end+0x3ef448>)
    2141:	c06ef0        	sub	a6, a14, a15
    2144:	c08350        	sub	a8, a3, a5
    2147:	fcc2e2        	addi	a14, a2, -4
    214a:	400800        	ssr	a8
    214d:	661b           	addi.n	a6, a6, 1
    214f:	216160        	srai	a6, a6, 1
    2152:	b17070        	sra	a7, a7
    2155:	379774        	ae_truncp24a32x2	aep1, a7, a7
    2158:	e3230fc43e 	{ addi	a3, a4, -4; ae_mulafp24s.hl	aeq2, aep0, aep1 }
    215d:	660b           	addi.n	a6, a6, -1
    215f:	fd547b309f 	{ ae_sraiq56	aeq2, aeq3, 1; ae_roundsq32sym	aeq1, aeq2 }
    2164:	f826f9940f 	{ ae_sq32f.i	aeq1, a4, 0; ae_subq56	aeq0, aeq0, aeq1 }
    2169:	620204        	ae_sq32f.i	aeq0, a2, 0
    216c:	e323bd142f 	{ ae_lq32f.iu	aeq0, a4, 8; ae_mulafp24s.ll	aeq2, aep0, aep1 }
    2171:	548214        	ae_lp24x2.iu	aep0, a2, 8
    2174:	fd5453522f 	{ or	a5, a2, a2; ae_roundsq32sym	aeq1, aeq2 }
    2179:	625324        	ae_sq32f.iu	aeq1, a3, 8
    217c:	fb3ed3244f 	{ or	a2, a4, a4; ae_subq56	aeq3, aeq3, aeq1 }
    2181:	26a676        	loopgtz	a6, 21ab <_Z20CJointStereo_ApplyMSPP22CAacDecoderChannelInfoPKtPcii+0x203>
    2184:	354074        	ae_sraiq56	aeq1, aeq0, 1
    2187:	e22379fe2f 	{ ae_sq32f.iu	aeq3, a14, 8; ae_mulafp24s.hl	aeq1, aep0, aep1 }
    218c:	60c214        	ae_lq32f.i	aeq3, a2, 4
    218f:	fe4c7b305f 	{ ae_sraiq56	aeq1, aeq3, 1; ae_roundsq32sym	aeq2, aeq1 }
    2194:	e223f9a31f 	{ ae_sq32f.i	aeq2, a3, 4; ae_mulafp24s.ll	aeq1, aep0, aep1 }
    2199:	faa2f0851f 	{ ae_lp24x2.iu	aep0, a5, 8; ae_subq56	aeq2, aeq0, aeq2 }
    219e:	fd4c79ae1f 	{ ae_sq32f.i	aeq2, a14, 4; ae_roundsq32sym	aeq1, aeq1 }
    21a3:	fb3efd122f 	{ ae_lq32f.iu	aeq0, a2, 8; ae_subq56	aeq3, aeq3, aeq1 }
    21a8:	625324        	ae_sq32f.iu	aeq1, a3, 8

000021ab <_Z20CJointStereo_ApplyMSPP22CAacDecoderChannelInfoPKtPcii+0x203>:
    21ab:	627e24        	ae_sq32f.iu	aeq3, a14, 8
    21ae:	ffcf06        	j	20ee <_Z20CJointStereo_ApplyMSPP22CAacDecoderChannelInfoPKtPcii+0x146>

000021b1 <_Z20CJointStereo_ApplyMSPP22CAacDecoderChannelInfoPKtPcii+0x209>:
    21b1:	f01d           	retw.n

000021b3 <_Z20CJointStereo_ApplyMSPP22CAacDecoderChannelInfoPKtPcii+0x20b>:
    21b3:	00000000 01a13600                                .....

000021b8 <_Z10CTns_ApplyP22CAacDecoderChannelInfo>:
    21b8:	01a136        	entry	a1, 208
    21bb:	02b8           	l32i.n	a11, a2, 0
    21bd:	7298           	l32i.n	a9, a2, 28
    21bf:	12a8           	l32i.n	a10, a2, 4
    21c1:	070b82        	l8ui	a8, a11, 7
    21c4:	2261a2        	s32i	a10, a1, 136
    21c7:	296192        	s32i	a9, a1, 164
    21ca:	238800        	sext	a8, a8, 7
    21cd:	02b8a6        	blti	a8, 16, 21d3 <_Z10CTns_ApplyP22CAacDecoderChannelInfo+0x1b>
    21d0:	00f386        	j	25a2 <_Z10CTns_ApplyP22CAacDecoderChannelInfo+0x3ea>
    21d3:	000ac2        	l8ui	a12, a10, 0
    21d6:	3c8c16        	beqz	a12, 25a2 <_Z10CTns_ApplyP22CAacDecoderChannelInfo+0x3ea>
    21d9:	030bf2        	l8ui	a15, a11, 3
    21dc:	8e0c           	movi.n	a14, 8
    21de:	1d0c           	movi.n	a13, 1
    21e0:	fecff2        	addi	a15, a15, -2
    21e3:	83def0        	moveqz	a13, a14, a15
    21e6:	2161d2        	s32i	a13, a1, 132
    21e9:	021de6        	bgei	a13, 1, 21ef <_Z10CTns_ApplyP22CAacDecoderChannelInfo+0x37>
    21ec:	00ec86        	j	25a2 <_Z10CTns_ApplyP22CAacDecoderChannelInfo+0x3ea>
    21ef:	0a0c           	movi.n	a10, 0
    21f1:	0b0c           	movi.n	a11, 0
    21f3:	c14b           	addi.n	a12, a1, 4
    21f5:	0d0c           	movi.n	a13, 0
    21f7:	2361d2        	s32i	a13, a1, 140
    21fa:	2661c2        	s32i	a12, a1, 152
    21fd:	2461b2        	s32i	a11, a1, 144
    2200:	2561a2        	s32i	a10, a1, 148
    2203:	000b06        	j	2233 <_Z10CTns_ApplyP22CAacDecoderChannelInfo+0x7b>

00002206 <_Z10CTns_ApplyP22CAacDecoderChannelInfo+0x4e>:
	...

00002208 <_Z10CTns_ApplyP22CAacDecoderChannelInfo+0x50>:
    2208:	2121e2        	l32i	a14, a1, 132
    220b:	2921a2        	l32i	a10, a1, 164
    220e:	2521f2        	l32i	a15, a1, 148
    2211:	242182        	l32i	a8, a1, 144
    2214:	232192        	l32i	a9, a1, 140
    2217:	ff1b           	addi.n	a15, a15, 1
    2219:	6cc882        	addi	a8, a8, 108
    221c:	993b           	addi.n	a9, a9, 3
    221e:	02daa2        	addmi	a10, a10, 0x200
    2221:	2961a2        	s32i	a10, a1, 164
    2224:	236192        	s32i	a9, a1, 140
    2227:	246182        	s32i	a8, a1, 144
    222a:	2561f2        	s32i	a15, a1, 148
    222d:	c0eef0        	sub	a14, a14, a15
    2230:	36ee16        	beqz	a14, 25a2 <_Z10CTns_ApplyP22CAacDecoderChannelInfo+0x3ea>

00002233 <_Z10CTns_ApplyP22CAacDecoderChannelInfo+0x7b>:
    2233:	222192        	l32i	a9, a1, 136
    2236:	252182        	l32i	a8, a1, 148
    2239:	889a           	add.n	a8, a8, a9
    223b:	010882        	l8ui	a8, a8, 1
    223e:	238800        	sext	a8, a8, 7
    2241:	c318a6        	blti	a8, 1, 2208 <_Z10CTns_ApplyP22CAacDecoderChannelInfo+0x50>
    2244:	232192        	l32i	a9, a1, 140
    2247:	222162        	l32i	a6, a1, 136
    224a:	242132        	l32i	a3, a1, 144
    224d:	989a           	add.n	a9, a8, a9
    224f:	b09990        	addx8	a9, a9, a9
    2252:	336a           	add.n	a3, a3, a6
    2254:	a09960        	addx4	a9, a9, a6
    2257:	639b           	addi.n	a6, a3, 9
    2259:	999b           	addi.n	a9, a9, 9
    225b:	276192        	s32i	a9, a1, 156
    225e:	003a06        	j	234a <_Z10CTns_ApplyP22CAacDecoderChannelInfo+0x192>

00002261 <_Z10CTns_ApplyP22CAacDecoderChannelInfo+0xa9>:
	...

00002263 <_Z10CTns_ApplyP22CAacDecoderChannelInfo+0xab>:
    2263:	c0bed0        	sub	a11, a14, a13
    2266:	bbbb           	addi.n	a11, a11, 11
    2268:	0316b4        	wur.ae_sar	a11
    226b:	2daa77        	bge	a10, a7, 229c <_Z10CTns_ApplyP22CAacDecoderChannelInfo+0xe4>
    226e:	2921e2        	l32i	a14, a1, 164
    2271:	c0d7a0        	sub	a13, a7, a10
    2274:	2191d0        	srai	a9, a13, 1
    2277:	b0bae0        	addx8	a11, a10, a14
    227a:	f8cb82        	addi	a8, a11, -8
    227d:	086d07        	bbci	a13, 0, 2289 <_Z10CTns_ApplyP22CAacDecoderChannelInfo+0xd1>
    2280:	540b04        	ae_lp24x2.i	aep0, a11, 0
    2283:	0b0384        	ae_srasp24	aep0, aep0
    2286:	568814        	ae_sp24x2s.iu	aep0, a8, 8
    2289:	0fa976        	loopgtz	a9, 229c <_Z10CTns_ApplyP22CAacDecoderChannelInfo+0xe4>
    228c:	540814        	ae_lp24x2.i	aep0, a8, 8
    228f:	f8a3f0082f 	{ ae_lp24x2.i	aep0, a8, 16; ae_srasp24	aep1, aep0 }
    2294:	f8a3b7181f 	{ ae_sp24x2s.i	aep1, a8, 8; ae_srasp24	aep0, aep0 }
    2299:	568824        	ae_sp24x2s.iu	aep0, a8, 16

0000229c <_Z10CTns_ApplyP22CAacDecoderChannelInfo+0xe4>:
    229c:	221547        	beq	a5, a4, 22c2 <_Z10CTns_ApplyP22CAacDecoderChannelInfo+0x10a>
    229f:	0d6507        	bbci	a5, 0, 22b0 <_Z10CTns_ApplyP22CAacDecoderChannelInfo+0xf8>
    22a2:	2821f2        	l32i	a15, a1, 160
    22a5:	f03d           	nop.n
    22a7:	4c1f04        	ae_lp24.i	aep1, a15, 0
    22aa:	0b1394        	ae_srasp24	aep1, aep1
    22ad:	4e1f04        	ae_sp24s.l.i	aep1, a15, 0

000022b0 <_Z10CTns_ApplyP22CAacDecoderChannelInfo+0xf8>:
    22b0:	0e6407        	bbci	a4, 0, 22c2 <_Z10CTns_ApplyP22CAacDecoderChannelInfo+0x10a>
    22b3:	292182        	l32i	a8, a1, 164
    22b6:	a08480        	addx4	a8, a4, a8
    22b9:	4c28f4        	ae_lp24.i	aep2, a8, -4
    22bc:	0b23a4        	ae_srasp24	aep2, aep2
    22bf:	4e28f4        	ae_sp24s.l.i	aep2, a8, -4
    22c2:	2821a2        	l32i	a10, a1, 160
    22c5:	40c1b2        	addi	a11, a1, 64
    22c8:	2021f2        	l32i	a15, a1, 128
    22cb:	0b03d2        	l8ui	a13, a3, 11
    22ce:	0d03e2        	l8ui	a14, a3, 13
    22d1:	f77781        	l32r	a8, b0 (2728 <_Z12TnsFilterIIRP5fractS0_icii>)
    22d4:	23dd00        	sext	a13, a13, 7
    22d7:	23ee00        	sext	a14, a14, 7
    22da:	0008e0        	callx8	a8
    22dd:	2a21e2        	l32i	a14, a1, 168
    22e0:	2921d2        	l32i	a13, a1, 164
    22e3:	0020f0        	nop
    22e6:	2aae77        	bge	a14, a7, 2314 <_Z10CTns_ApplyP22CAacDecoderChannelInfo+0x15c>
    22e9:	c0c7e0        	sub	a12, a7, a14
    22ec:	b0bed0        	addx8	a11, a14, a13
    22ef:	2191c0        	srai	a9, a12, 1
    22f2:	f8cb82        	addi	a8, a11, -8
    22f5:	086c07        	bbci	a12, 0, 2301 <_Z10CTns_ApplyP22CAacDecoderChannelInfo+0x149>
    22f8:	544b04        	ae_lp24x2.i	aep4, a11, 0
    22fb:	0b40b4        	ae_sllssp24s	aep3, aep4
    22fe:	56b814        	ae_sp24x2s.iu	aep3, a8, 8
    2301:	0fa976        	loopgtz	a9, 2314 <_Z10CTns_ApplyP22CAacDecoderChannelInfo+0x15c>
    2304:	540814        	ae_lp24x2.i	aep0, a8, 8
    2307:	f823f0082f 	{ ae_lp24x2.i	aep0, a8, 16; ae_sllssp24s	aep1, aep0 }
    230c:	f823b7181f 	{ ae_sp24x2s.i	aep1, a8, 8; ae_sllssp24s	aep0, aep0 }
    2311:	568824        	ae_sp24x2s.iu	aep0, a8, 16

00002314 <_Z10CTns_ApplyP22CAacDecoderChannelInfo+0x15c>:
    2314:	231547        	beq	a5, a4, 233b <_Z10CTns_ApplyP22CAacDecoderChannelInfo+0x183>
    2317:	0e6507        	bbci	a5, 0, 2329 <_Z10CTns_ApplyP22CAacDecoderChannelInfo+0x171>
    231a:	2821e2        	l32i	a14, a1, 160
    231d:	0020f0        	nop
    2320:	4c6e04        	ae_lp24.i	aep6, a14, 0
    2323:	0b60d4        	ae_sllssp24s	aep5, aep6
    2326:	4e5e04        	ae_sp24s.l.i	aep5, a14, 0

00002329 <_Z10CTns_ApplyP22CAacDecoderChannelInfo+0x171>:
    2329:	0e6407        	bbci	a4, 0, 233b <_Z10CTns_ApplyP22CAacDecoderChannelInfo+0x183>
    232c:	2921f2        	l32i	a15, a1, 164
    232f:	a0f4f0        	addx4	a15, a4, a15
    2332:	4c0ff4        	ae_lp24.i	aep0, a15, -4
    2335:	0b00f4        	ae_sllssp24s	aep7, aep0
    2338:	4e7ff4        	ae_sp24s.l.i	aep7, a15, -4

0000233b <_Z10CTns_ApplyP22CAacDecoderChannelInfo+0x183>:
    233b:	272182        	l32i	a8, a1, 156
    233e:	24c332        	addi	a3, a3, 36
    2341:	24c662        	addi	a6, a6, 36
    2344:	c08680        	sub	a8, a6, a8
    2347:	ebd816        	beqz	a8, 2208 <_Z10CTns_ApplyP22CAacDecoderChannelInfo+0x50>

0000234a <_Z10CTns_ApplyP22CAacDecoderChannelInfo+0x192>:
    234a:	f75a81        	l32r	a8, b4 (29b8 <_Z21TnsDecodeCoefficientsP7CFilterP5fract>)
    234d:	06ad           	mov.n	a10, a6
    234f:	01bd           	mov.n	a11, a1
    2351:	0008e0        	callx8	a8
    2354:	f75981        	l32r	a8, b8 (29f4 <_Z7Minimumiii>)
    2357:	f759b1        	l32r	a11, bc (dc80 <tns_max_bands_tbl>)
    235a:	1f0c           	movi.n	a15, 1
    235c:	0903a2        	l8ui	a10, a3, 9
    235f:	0298           	l32i.n	a9, a2, 0
    2361:	0e0c           	movi.n	a14, 0
    2363:	23aa00        	sext	a10, a10, 7
    2366:	0409c2        	l8ui	a12, a9, 4
    2369:	0709d2        	l8ui	a13, a9, 7
    236c:	030992        	l8ui	a9, a9, 3
    236f:	23cc00        	sext	a12, a12, 7
    2372:	23dd00        	sext	a13, a13, 7
    2375:	fec992        	addi	a9, a9, -2
    2378:	83ef90        	moveqz	a14, a15, a9
    237b:	a0dde0        	addx4	a13, a13, a14
    237e:	bbda           	add.n	a11, a11, a13
    2380:	000bb2        	l8ui	a11, a11, 0
    2383:	0008e0        	callx8	a8
    2386:	02b8           	l32i.n	a11, a2, 0
    2388:	0020f0        	nop
    238b:	030bc2        	l8ui	a12, a11, 3
    238e:	070bd2        	l8ui	a13, a11, 7
    2391:	f73391        	l32r	a9, 60 (109f0 <SamplingRateInfoTable>)
    2394:	fecce2        	addi	a14, a12, -2
    2397:	23dd00        	sext	a13, a13, 7
    239a:	a08dd0        	addx4	a8, a13, a13
    239d:	a08890        	addx4	a8, a8, a9
    23a0:	1e9e16        	beqz	a14, 258d <_Z10CTns_ApplyP22CAacDecoderChannelInfo+0x3d5>
    23a3:	2858           	l32i.n	a5, a8, 8
    23a5:	905a50        	addx2	a5, a10, a5
    23a8:	455d           	ae_l16ui.n	a5, a5, 0

000023aa <_Z10CTns_ApplyP22CAacDecoderChannelInfo+0x1f2>:
    23aa:	fecc92        	addi	a9, a12, -2
    23ad:	180c           	movi.n	a8, 1
    23af:	0a03a2        	l8ui	a10, a3, 10
    23b2:	040be2        	l8ui	a14, a11, 4
    23b5:	0f0c           	movi.n	a15, 0
    23b7:	f741b1        	l32r	a11, bc (dc80 <tns_max_bands_tbl>)
    23ba:	23aa00        	sext	a10, a10, 7
    23bd:	83f890        	moveqz	a15, a8, a9
    23c0:	23ce00        	sext	a12, a14, 7
    23c3:	a0ddf0        	addx4	a13, a13, a15
    23c6:	f73c81        	l32r	a8, b8 (29f4 <_Z7Minimumiii>)
    23c9:	bbda           	add.n	a11, a11, a13
    23cb:	000bb2        	l8ui	a11, a11, 0
    23ce:	0008e0        	callx8	a8
    23d1:	0288           	l32i.n	a8, a2, 0
    23d3:	0308b2        	l8ui	a11, a8, 3
    23d6:	070882        	l8ui	a8, a8, 7
    23d9:	f72191        	l32r	a9, 60 (109f0 <SamplingRateInfoTable>)
    23dc:	fecbb2        	addi	a11, a11, -2
    23df:	238800        	sext	a8, a8, 7
    23e2:	a08880        	addx4	a8, a8, a8
    23e5:	a08890        	addx4	a8, a8, a9
    23e8:	1acb16        	beqz	a11, 2598 <_Z10CTns_ApplyP22CAacDecoderChannelInfo+0x3e0>
    23eb:	2848           	l32i.n	a4, a8, 8
    23ed:	904a40        	addx2	a4, a10, a4
    23f0:	444d           	ae_l16ui.n	a4, a4, 0

000023f2 <_Z10CTns_ApplyP22CAacDecoderChannelInfo+0x23a>:
    23f2:	c0e450        	sub	a14, a4, a5
    23f5:	021ee6        	bgei	a14, 1, 23fb <_Z10CTns_ApplyP22CAacDecoderChannelInfo+0x243>
    23f8:	ffcfc6        	j	233b <_Z10CTns_ApplyP22CAacDecoderChannelInfo+0x183>
    23fb:	0d03d2        	l8ui	a13, a3, 13
    23fe:	23dd00        	sext	a13, a13, 7
    2401:	021de6        	bgei	a13, 1, 2407 <_Z10CTns_ApplyP22CAacDecoderChannelInfo+0x24f>
    2404:	ffccc6        	j	233b <_Z10CTns_ApplyP22CAacDecoderChannelInfo+0x183>
    2407:	2621a2        	l32i	a10, a1, 152
    240a:	40c1b2        	addi	a11, a1, 64
    240d:	2b61e2        	s32i	a14, a1, 172
    2410:	f72c81        	l32r	a8, c0 (2898 <_Z13TnsParcor2LpcP5fractS0_Pii>)
    2413:	7fc1c2        	addi	a12, a1, 127
    2416:	cc1b           	addi.n	a12, a12, 1
    2418:	0008e0        	callx8	a8
    241b:	2b21c2        	l32i	a12, a1, 172
    241e:	e51b           	addi.n	a14, a5, 1
    2420:	d52b           	addi.n	a13, a5, 2
    2422:	fc20c0147e 	{ addi	a7, a4, 1; ae_zerop48	aep1 }
    2427:	b37440        	movgez	a7, a4, a4
    242a:	217170        	srai	a7, a7, 1
    242d:	b3dee0        	movgez	a13, a14, a14
    2430:	21d1d0        	srai	a13, a13, 1
    2433:	2a61d2        	s32i	a13, a1, 168
    2436:	21ad77        	bge	a13, a7, 245b <_Z10CTns_ApplyP22CAacDecoderChannelInfo+0x2a3>
    2439:	292182        	l32i	a8, a1, 164
    243c:	c097d0        	sub	a9, a7, a13
    243f:	b08d80        	addx8	a8, a13, a8
    2442:	f8c882        	addi	a8, a8, -8
    2445:	54a814        	ae_lp24x2.iu	aep2, a8, 8
    2448:	fc480ff99e 	{ addi	a9, a9, -1; ae_abssp24s	aep0, aep2 }
    244d:	07a976        	loopgtz	a9, 2458 <_Z10CTns_ApplyP22CAacDecoderChannelInfo+0x2a0>
    2450:	d82270881f 	{ ae_lp24x2.iu	aep0, a8, 8; ae_maxp24s	aep1, aep0, aep1 }
    2455:	079804        	ae_abssp24s	aep0, aep0

00002458 <_Z10CTns_ApplyP22CAacDecoderChannelInfo+0x2a0>:
    2458:	070914        	ae_maxp24s	aep1, aep0, aep1

0000245b <_Z10CTns_ApplyP22CAacDecoderChannelInfo+0x2a3>:
    245b:	2a1547        	beq	a5, a4, 2489 <_Z10CTns_ApplyP22CAacDecoderChannelInfo+0x2d1>
    245e:	292192        	l32i	a9, a1, 164
    2461:	a09590        	addx4	a9, a5, a9
    2464:	286192        	s32i	a9, a1, 160
    2467:	086507        	bbci	a5, 0, 2473 <_Z10CTns_ApplyP22CAacDecoderChannelInfo+0x2bb>
    246a:	4c4904        	ae_lp24.i	aep4, a9, 0
    246d:	079c34        	ae_abssp24s	aep3, aep4
    2470:	073914        	ae_maxp24s	aep1, aep3, aep1

00002473 <_Z10CTns_ApplyP22CAacDecoderChannelInfo+0x2bb>:
    2473:	1b6407        	bbci	a4, 0, 2492 <_Z10CTns_ApplyP22CAacDecoderChannelInfo+0x2da>
    2476:	2921b2        	l32i	a11, a1, 164
    2479:	a0b4b0        	addx4	a11, a4, a11
    247c:	4c6bf4        	ae_lp24.i	aep6, a11, -4
    247f:	079e54        	ae_abssp24s	aep5, aep6
    2482:	075914        	ae_maxp24s	aep1, aep5, aep1
    2485:	000246        	j	2492 <_Z10CTns_ApplyP22CAacDecoderChannelInfo+0x2da>

00002488 <_Z10CTns_ApplyP22CAacDecoderChannelInfo+0x2d0>:
	...

00002489 <_Z10CTns_ApplyP22CAacDecoderChannelInfo+0x2d1>:
    2489:	2921d2        	l32i	a13, a1, 164
    248c:	a0d5d0        	addx4	a13, a5, a13
    248f:	2861d2        	s32i	a13, a1, 160

00002492 <_Z10CTns_ApplyP22CAacDecoderChannelInfo+0x2da>:
    2492:	1a99f4        	ae_selp24.hh	aep7, aep1, aep1
    2495:	077974        	ae_maxp24s	aep7, aep7, aep1
    2498:	fcec3201ee 	{ l32i	a14, a1, 128; ae_cvtq48p24s.l	aeq0, aep7 }
    249d:	364d04        	ae_nsaq56s	a13, aeq0
    24a0:	2a21a2        	l32i	a10, a1, 168
    24a3:	c08de0        	sub	a8, a13, a14
    24a6:	02a8e6        	bgei	a8, 12, 24ac <_Z10CTns_ApplyP22CAacDecoderChannelInfo+0x2f4>
    24a9:	ff6d86        	j	2263 <_Z10CTns_ApplyP22CAacDecoderChannelInfo+0xab>
    24ac:	2a21e2        	l32i	a14, a1, 168
    24af:	f5c8f2        	addi	a15, a8, -11
    24b2:	0316f4        	wur.ae_sar	a15
    24b5:	2fae77        	bge	a14, a7, 24e8 <_Z10CTns_ApplyP22CAacDecoderChannelInfo+0x330>
    24b8:	c0d7e0        	sub	a13, a7, a14
    24bb:	0ebd           	mov.n	a11, a14
    24bd:	2921e2        	l32i	a14, a1, 164
    24c0:	2191d0        	srai	a9, a13, 1
    24c3:	b0bbe0        	addx8	a11, a11, a14
    24c6:	f8cb82        	addi	a8, a11, -8
    24c9:	086d07        	bbci	a13, 0, 24d5 <_Z10CTns_ApplyP22CAacDecoderChannelInfo+0x31d>
    24cc:	541b04        	ae_lp24x2.i	aep1, a11, 0
    24cf:	0b1084        	ae_sllssp24s	aep0, aep1
    24d2:	568814        	ae_sp24x2s.iu	aep0, a8, 8
    24d5:	0fa976        	loopgtz	a9, 24e8 <_Z10CTns_ApplyP22CAacDecoderChannelInfo+0x330>
    24d8:	540814        	ae_lp24x2.i	aep0, a8, 8
    24db:	f823f0082f 	{ ae_lp24x2.i	aep0, a8, 16; ae_sllssp24s	aep1, aep0 }
    24e0:	f823b7181f 	{ ae_sp24x2s.i	aep1, a8, 8; ae_sllssp24s	aep0, aep0 }
    24e5:	568824        	ae_sp24x2s.iu	aep0, a8, 16

000024e8 <_Z10CTns_ApplyP22CAacDecoderChannelInfo+0x330>:
    24e8:	251547        	beq	a5, a4, 2511 <_Z10CTns_ApplyP22CAacDecoderChannelInfo+0x359>
    24eb:	0d6507        	bbci	a5, 0, 24fc <_Z10CTns_ApplyP22CAacDecoderChannelInfo+0x344>
    24ee:	2821f2        	l32i	a15, a1, 160
    24f1:	f03d           	nop.n
    24f3:	4c3f04        	ae_lp24.i	aep3, a15, 0
    24f6:	0b30a4        	ae_sllssp24s	aep2, aep3
    24f9:	4e2f04        	ae_sp24s.l.i	aep2, a15, 0

000024fc <_Z10CTns_ApplyP22CAacDecoderChannelInfo+0x344>:
    24fc:	116407        	bbci	a4, 0, 2511 <_Z10CTns_ApplyP22CAacDecoderChannelInfo+0x359>
    24ff:	292182        	l32i	a8, a1, 164
    2502:	0020f0        	nop
    2505:	a08480        	addx4	a8, a4, a8
    2508:	4c58f4        	ae_lp24.i	aep5, a8, -4
    250b:	0b50c4        	ae_sllssp24s	aep4, aep5
    250e:	4e48f4        	ae_sp24s.l.i	aep4, a8, -4
    2511:	2821a2        	l32i	a10, a1, 160
    2514:	40c1b2        	addi	a11, a1, 64
    2517:	2021f2        	l32i	a15, a1, 128
    251a:	0b03d2        	l8ui	a13, a3, 11
    251d:	0d03e2        	l8ui	a14, a3, 13
    2520:	f6e481        	l32r	a8, b0 (2728 <_Z12TnsFilterIIRP5fractS0_icii>)
    2523:	23dd00        	sext	a13, a13, 7
    2526:	23ee00        	sext	a14, a14, 7
    2529:	0008e0        	callx8	a8
    252c:	2a21e2        	l32i	a14, a1, 168
    252f:	2921d2        	l32i	a13, a1, 164
    2532:	2aae77        	bge	a14, a7, 2560 <_Z10CTns_ApplyP22CAacDecoderChannelInfo+0x3a8>
    2535:	c0c7e0        	sub	a12, a7, a14
    2538:	b0bed0        	addx8	a11, a14, a13
    253b:	2191c0        	srai	a9, a12, 1
    253e:	f8cb82        	addi	a8, a11, -8
    2541:	086c07        	bbci	a12, 0, 254d <_Z10CTns_ApplyP22CAacDecoderChannelInfo+0x395>
    2544:	546b04        	ae_lp24x2.i	aep6, a11, 0
    2547:	0b63e4        	ae_srasp24	aep6, aep6
    254a:	56e814        	ae_sp24x2s.iu	aep6, a8, 8
    254d:	0fa976        	loopgtz	a9, 2560 <_Z10CTns_ApplyP22CAacDecoderChannelInfo+0x3a8>
    2550:	540814        	ae_lp24x2.i	aep0, a8, 8
    2553:	f8a3f0082f 	{ ae_lp24x2.i	aep0, a8, 16; ae_srasp24	aep1, aep0 }
    2558:	f8a3b7181f 	{ ae_sp24x2s.i	aep1, a8, 8; ae_srasp24	aep0, aep0 }
    255d:	568824        	ae_sp24x2s.iu	aep0, a8, 16

00002560 <_Z10CTns_ApplyP22CAacDecoderChannelInfo+0x3a8>:
    2560:	c0e540        	sub	a14, a5, a4
    2563:	dd4e16        	beqz	a14, 233b <_Z10CTns_ApplyP22CAacDecoderChannelInfo+0x183>
    2566:	048040        	extui	a8, a4, 0, 1
    2569:	0b6507        	bbci	a5, 0, 2578 <_Z10CTns_ApplyP22CAacDecoderChannelInfo+0x3c0>
    256c:	2821f2        	l32i	a15, a1, 160
    256f:	4c7f04        	ae_lp24.i	aep7, a15, 0
    2572:	0b73f4        	ae_srasp24	aep7, aep7
    2575:	4e7f04        	ae_sp24s.l.i	aep7, a15, 0

00002578 <_Z10CTns_ApplyP22CAacDecoderChannelInfo+0x3c0>:
    2578:	dbf816        	beqz	a8, 233b <_Z10CTns_ApplyP22CAacDecoderChannelInfo+0x183>
    257b:	292192        	l32i	a9, a1, 164
    257e:	a09490        	addx4	a9, a4, a9
    2581:	4c09f4        	ae_lp24.i	aep0, a9, -4
    2584:	0b0384        	ae_srasp24	aep0, aep0
    2587:	4e09f4        	ae_sp24s.l.i	aep0, a9, -4
    258a:	ff6b46        	j	233b <_Z10CTns_ApplyP22CAacDecoderChannelInfo+0x183>

0000258d <_Z10CTns_ApplyP22CAacDecoderChannelInfo+0x3d5>:
    258d:	4858           	l32i.n	a5, a8, 16
    258f:	905a50        	addx2	a5, a10, a5
    2592:	455d           	ae_l16ui.n	a5, a5, 0
    2594:	ff8486        	j	23aa <_Z10CTns_ApplyP22CAacDecoderChannelInfo+0x1f2>

00002597 <_Z10CTns_ApplyP22CAacDecoderChannelInfo+0x3df>:
	...

00002598 <_Z10CTns_ApplyP22CAacDecoderChannelInfo+0x3e0>:
    2598:	4848           	l32i.n	a4, a8, 16
    259a:	904a40        	addx2	a4, a10, a4
    259d:	444d           	ae_l16ui.n	a4, a4, 0
    259f:	ff93c6        	j	23f2 <_Z10CTns_ApplyP22CAacDecoderChannelInfo+0x23a>

000025a2 <_Z10CTns_ApplyP22CAacDecoderChannelInfo+0x3ea>:
    25a2:	f01d           	retw.n

000025a4 <_Z9CTns_ReadPPtP22CAacDecoderChannelInfo>:
    25a4:	006136        	entry	a1, 48
    25a7:	13f8           	l32i.n	a15, a3, 4
    25a9:	0368           	l32i.n	a6, a3, 0
    25ab:	0b0c           	movi.n	a11, 0
    25ad:	01b9           	s32i.n	a11, a1, 0
    25af:	030662        	l8ui	a6, a6, 3

000025b2 <_Z9CTns_ReadPPtP22CAacDecoderChannelInfo+0xe>:
    25b2:	0258           	l32i.n	a5, a2, 0
    25b4:	fec6e2        	addi	a14, a6, -2
    25b7:	15fe16        	beqz	a14, 271a <_Z9CTns_ReadPPtP22CAacDecoderChannelInfo+0x176>
    25ba:	036f24        	ae_lbi	a6, 2
    25bd:	0025f4        	ae_dbi	a5, 2
    25c0:	0259           	s32i.n	a5, a2, 0

000025c2 <_Z9CTns_ReadPPtP22CAacDecoderChannelInfo+0x1e>:
    25c2:	0148           	l32i.n	a4, a1, 0
    25c4:	23e600        	sext	a14, a6, 7
    25c7:	44fa           	add.n	a4, a4, a15
    25c9:	014462        	s8i	a6, a4, 1
    25cc:	145e16        	beqz	a14, 2715 <_Z9CTns_ReadPPtP22CAacDecoderChannelInfo+0x171>
    25cf:	0248           	l32i.n	a4, a2, 0
    25d1:	035f14        	ae_lbi	a5, 1
    25d4:	0368           	l32i.n	a6, a3, 0
    25d6:	0014f4        	ae_dbi	a4, 1
    25d9:	0249           	s32i.n	a4, a2, 0
    25db:	0606d2        	l8ui	a13, a6, 6
    25de:	23dd00        	sext	a13, a13, 7
    25e1:	021ee6        	bgei	a14, 1, 25e7 <_Z9CTns_ReadPPtP22CAacDecoderChannelInfo+0x43>
    25e4:	004246        	j	26f1 <_Z9CTns_ReadPPtP22CAacDecoderChannelInfo+0x14d>
    25e7:	0c0c           	movi.n	a12, 0
    25e9:	238500        	sext	a8, a5, 7
    25ec:	0198           	l32i.n	a9, a1, 0
    25ee:	1189           	s32i.n	a8, a1, 4
    25f0:	883b           	addi.n	a8, a8, 3
    25f2:	2189           	s32i.n	a8, a1, 8
    25f4:	909990        	addx2	a9, a9, a9
    25f7:	3199           	s32i.n	a9, a1, 12
    25f9:	000346        	j	260a <_Z9CTns_ReadPPtP22CAacDecoderChannelInfo+0x66>

000025fc <_Z9CTns_ReadPPtP22CAacDecoderChannelInfo+0x58>:
	...

000025fd <_Z9CTns_ReadPPtP22CAacDecoderChannelInfo+0x59>:
    25fd:	0368           	l32i.n	a6, a3, 0
    25ff:	cc1b           	addi.n	a12, a12, 1
    2601:	23cc00        	sext	a12, a12, 7
    2604:	c0aec0        	sub	a10, a14, a12
    2607:	0e6a16        	beqz	a10, 26f1 <_Z9CTns_ReadPPtP22CAacDecoderChannelInfo+0x14d>

0000260a <_Z9CTns_ReadPPtP22CAacDecoderChannelInfo+0x66>:
    260a:	030642        	l8ui	a4, a6, 3
    260d:	0258           	l32i.n	a5, a2, 0
    260f:	036f64        	ae_lbi	a6, 6
    2612:	fec442        	addi	a4, a4, -2
    2615:	0bf416        	beqz	a4, 26d8 <_Z9CTns_ReadPPtP22CAacDecoderChannelInfo+0x134>
    2618:	0065f4        	ae_dbi	a5, 6
    261b:	0259           	s32i.n	a5, a2, 0

0000261d <_Z9CTns_ReadPPtP22CAacDecoderChannelInfo+0x79>:
    261d:	c09d60        	sub	a9, a13, a6
    2620:	3168           	l32i.n	a6, a1, 12
    2622:	048790        	extui	a8, a9, 7, 1
    2625:	6c6a           	add.n	a6, a12, a6
    2627:	b06660        	addx8	a6, a6, a6
    262a:	a066f0        	addx4	a6, a6, a15
    262d:	0a46d2        	s8i	a13, a6, 10
    2630:	094692        	s8i	a9, a6, 9
    2633:	23d900        	sext	a13, a9, 7
    2636:	0d7856        	bnez	a8, 2711 <_Z9CTns_ReadPPtP22CAacDecoderChannelInfo+0x16d>
    2639:	0388           	l32i.n	a8, a3, 0
    263b:	0258           	l32i.n	a5, a2, 0
    263d:	030882        	l8ui	a8, a8, 3
    2640:	ca0c           	movi.n	a10, 12
    2642:	039f54        	ae_lbi	a9, 5
    2645:	fec882        	addi	a8, a8, -2
    2648:	097816        	beqz	a8, 26e3 <_Z9CTns_ReadPPtP22CAacDecoderChannelInfo+0x13f>
    264b:	0055f4        	ae_dbi	a5, 5
    264e:	0259           	s32i.n	a5, a2, 0
    2650:	235900        	sext	a5, a9, 7

00002653 <_Z9CTns_ReadPPtP22CAacDecoderChannelInfo+0xaf>:
    2653:	43a5a0        	min	a10, a5, a10
    2656:	0d46a2        	s8i	a10, a6, 13
    2659:	fa0516        	beqz	a5, 25fd <_Z9CTns_ReadPPtP22CAacDecoderChannelInfo+0x59>
    265c:	f87c           	movi.n	a8, -1
    265e:	02a8           	l32i.n	a10, a2, 0
    2660:	170c           	movi.n	a7, 1
    2662:	039f14        	ae_lbi	a9, 1
    2665:	001af4        	ae_dbi	a10, 1
    2668:	02a9           	s32i.n	a10, a2, 0
    266a:	937890        	movnez	a7, a8, a9
    266d:	0b4672        	s8i	a7, a6, 11
    2670:	0248           	l32i.n	a4, a2, 0
    2672:	21b8           	l32i.n	a11, a1, 8
    2674:	037f14        	ae_lbi	a7, 1
    2677:	0014f4        	ae_dbi	a4, 1
    267a:	0249           	s32i.n	a4, a2, 0
    267c:	0c46b2        	s8i	a11, a6, 12
    267f:	0215e6        	bgei	a5, 1, 2685 <_Z9CTns_ReadPPtP22CAacDecoderChannelInfo+0xe1>
    2682:	ffddc6        	j	25fd <_Z9CTns_ReadPPtP22CAacDecoderChannelInfo+0x59>
    2685:	f69041        	l32r	a4, c8 (ab74 <_DYNAMIC+0xcb8>)
    2688:	11b8           	l32i.n	a11, a1, 4
    268a:	f68e91        	l32r	a9, c4 (ab70 <_DYNAMIC+0xcb4>)
    268d:	23a700        	sext	a10, a7, 7
    2690:	c0bba0        	sub	a11, a11, a10
    2693:	9b9a           	add.n	a9, a11, a9
    2695:	010992        	l8ui	a9, a9, 1
    2698:	bb4a           	add.n	a11, a11, a4
    269a:	010bb2        	l8ui	a11, a11, 1
    269d:	070c           	movi.n	a7, 0
    269f:	239900        	sext	a9, a9, 7
    26a2:	23bb00        	sext	a11, a11, 7
    26a5:	2ba576        	loopgtz	a5, 26d4 <_Z9CTns_ReadPPtP22CAacDecoderChannelInfo+0x130>
    26a8:	0c0652        	l8ui	a5, a6, 12
    26ab:	0248           	l32i.n	a4, a2, 0
    26ad:	235500        	sext	a5, a5, 7
    26b0:	c055a0        	sub	a5, a5, a10
    26b3:	038754        	ae_lb	a8, a5
    26b6:	1c1454        	ae_db	a4, a5
    26b9:	0249           	s32i.n	a4, a2, 0
    26bb:	238800        	sext	a8, a8, 7
    26be:	060897        	bnone	a8, a9, 26c8 <_Z9CTns_ReadPPtP22CAacDecoderChannelInfo+0x124>
    26c1:	205b80        	or	a5, a11, a8
    26c4:	000086        	j	26ca <_Z9CTns_ReadPPtP22CAacDecoderChannelInfo+0x126>

000026c7 <_Z9CTns_ReadPPtP22CAacDecoderChannelInfo+0x123>:
	...

000026c8 <_Z9CTns_ReadPPtP22CAacDecoderChannelInfo+0x124>:
    26c8:	085d           	mov.n	a5, a8

000026ca <_Z9CTns_ReadPPtP22CAacDecoderChannelInfo+0x126>:
    26ca:	876a           	add.n	a8, a7, a6
    26cc:	0e4852        	s8i	a5, a8, 14
    26cf:	771b           	addi.n	a7, a7, 1
    26d1:	237700        	sext	a7, a7, 7

000026d4 <_Z9CTns_ReadPPtP22CAacDecoderChannelInfo+0x130>:
    26d4:	ffc946        	j	25fd <_Z9CTns_ReadPPtP22CAacDecoderChannelInfo+0x59>

000026d7 <_Z9CTns_ReadPPtP22CAacDecoderChannelInfo+0x133>:
	...

000026d8 <_Z9CTns_ReadPPtP22CAacDecoderChannelInfo+0x134>:
    26d8:	036f44        	ae_lbi	a6, 4
    26db:	0045f4        	ae_dbi	a5, 4
    26de:	0259           	s32i.n	a5, a2, 0
    26e0:	ffce46        	j	261d <_Z9CTns_ReadPPtP22CAacDecoderChannelInfo+0x79>

000026e3 <_Z9CTns_ReadPPtP22CAacDecoderChannelInfo+0x13f>:
    26e3:	039f34        	ae_lbi	a9, 3
    26e6:	0035f4        	ae_dbi	a5, 3
    26e9:	0259           	s32i.n	a5, a2, 0
    26eb:	235900        	sext	a5, a9, 7
    26ee:	ffd846        	j	2653 <_Z9CTns_ReadPPtP22CAacDecoderChannelInfo+0xaf>

000026f1 <_Z9CTns_ReadPPtP22CAacDecoderChannelInfo+0x14d>:
    26f1:	8c0c           	movi.n	a12, 8
    26f3:	01a8           	l32i.n	a10, a1, 0
    26f5:	030662        	l8ui	a6, a6, 3
    26f8:	1b0c           	movi.n	a11, 1
    26fa:	ea1b           	addi.n	a14, a10, 1
    26fc:	fec6d2        	addi	a13, a6, -2
    26ff:	83bcd0        	moveqz	a11, a12, a13
    2702:	23ae00        	sext	a10, a14, 7
    2705:	01a9           	s32i.n	a10, a1, 0
    2707:	02aab7        	bge	a10, a11, 270d <_Z9CTns_ReadPPtP22CAacDecoderChannelInfo+0x169>
    270a:	ffa906        	j	25b2 <_Z9CTns_ReadPPtP22CAacDecoderChannelInfo+0xe>
    270d:	020c           	movi.n	a2, 0
    270f:	f01d           	retw.n

00002711 <_Z9CTns_ReadPPtP22CAacDecoderChannelInfo+0x16d>:
    2711:	e20c           	movi.n	a2, 14
    2713:	f01d           	retw.n

00002715 <_Z9CTns_ReadPPtP22CAacDecoderChannelInfo+0x171>:
    2715:	0368           	l32i.n	a6, a3, 0
    2717:	fff586        	j	26f1 <_Z9CTns_ReadPPtP22CAacDecoderChannelInfo+0x14d>

0000271a <_Z9CTns_ReadPPtP22CAacDecoderChannelInfo+0x176>:
    271a:	036f14        	ae_lbi	a6, 1
    271d:	0015f4        	ae_dbi	a5, 1
    2720:	0259           	s32i.n	a5, a2, 0
    2722:	ffa706        	j	25c2 <_Z9CTns_ReadPPtP22CAacDecoderChannelInfo+0x1e>

00002725 <_Z9CTns_ReadPPtP22CAacDecoderChannelInfo+0x181>:
    2725:	000000                                        ...

00002728 <_Z12TnsFilterIIRP5fractS0_icii>:
    2728:	00e136        	entry	a1, 112
    272b:	049d           	mov.n	a9, a4
    272d:	02ad           	mov.n	a10, a2
    272f:	03bd           	mov.n	a11, a3
    2731:	012d           	mov.n	a2, a1
    2733:	00a032        	movi	a3, 0
    2736:	0ea042        	movi	a4, 14
    2739:	028476        	loop	a4, 273f <_Z12TnsFilterIIRP5fractS0_icii+0x17>
    273c:	09e234        	ae_s32ip	a3, a2, 4

0000273f <_Z12TnsFilterIIRP5fractS0_icii+0x17>:
    273f:	f8c122        	addi	a2, a1, -8
    2742:	fc208301ce 	{ addi	a12, a1, 48; ae_zerop48	aep0 }
    2747:	568214        	ae_sp24x2s.iu	aep0, a2, 8
    274a:	568214        	ae_sp24x2s.iu	aep0, a2, 8
    274d:	568214        	ae_sp24x2s.iu	aep0, a2, 8
    2750:	568214        	ae_sp24x2s.iu	aep0, a2, 8
    2753:	568214        	ae_sp24x2s.iu	aep0, a2, 8
    2756:	568214        	ae_sp24x2s.iu	aep0, a2, 8
    2759:	568214        	ae_sp24x2s.iu	aep0, a2, 8
    275c:	01c582        	addi	a8, a5, 1
    275f:	097816        	beqz	a8, 27fa <_Z12TnsFilterIIRP5fractS0_icii+0xd2>
    2762:	0219e6        	bgei	a9, 1, 2768 <_Z12TnsFilterIIRP5fractS0_icii+0x40>
    2765:	0023c6        	j	27f8 <_Z12TnsFilterIIRP5fractS0_icii+0xd0>
    2768:	ffc6f2        	addi	a15, a6, -1
    276b:	116112        	s32i	a1, a1, 68
    276e:	205110        	or	a5, a1, a1
    2771:	4c3b04        	ae_lp24.i	aep3, a11, 0
    2774:	4c2b14        	ae_lp24.i	aep2, a11, 4
    2777:	04cbe2        	addi	a14, a11, 4
    277a:	a0d9a0        	addx4	a13, a9, a10
    277d:	fccdd2        	addi	a13, a13, -4
    2780:	fccab2        	addi	a11, a10, -4

00002783 <_Z12TnsFilterIIRP5fractS0_icii+0x5b>:
    2783:	4c0a04        	ae_lp24.i	aep0, a10, 0
    2786:	ea61f11a1f 	{ ae_lp24.i	aep1, a10, 4; ae_mulfp24s.ll	aeq1, aep0, aep3 }
    278b:	ea65b1050f 	{ ae_lp24.i	aep0, a5, 0; ae_mulfp24s.ll	aeq0, aep1, aep3 }
    2790:	ee43cfff4e 	{ addi	a4, a15, -1; ae_mulsfs56p24s.ll	aeq1, aep0, aep2 }
    2795:	1c26a6        	blti	a6, 2, 27b5 <_Z12TnsFilterIIRP5fractS0_icii+0x8d>
    2798:	112132        	l32i	a3, a1, 68
    279b:	0e2d           	mov.n	a2, a14
    279d:	4cc214        	ae_lp24.iu	aep4, a2, 4
    27a0:	ee83b1931f 	{ ae_lp24.iu	aep1, a3, 4; ae_mulsfs56p24s.ll	aeq0, aep0, aep4 }
    27a5:	09a476        	loopgtz	a4, 27b2 <_Z12TnsFilterIIRP5fractS0_icii+0x8a>
    27a8:	ee87f1c21f 	{ ae_lp24.iu	aep4, a2, 4; ae_mulsfs56p24s.ll	aeq1, aep1, aep4 }
    27ad:	ee87b1931f 	{ ae_lp24.iu	aep1, a3, 4; ae_mulsfs56p24s.ll	aeq0, aep1, aep4 }

000027b2 <_Z12TnsFilterIIRP5fractS0_icii+0x8a>:
    27b2:	101c44        	ae_mulsfs56p24s.ll	aeq1, aep1, aep4

000027b5 <_Z12TnsFilterIIRP5fractS0_icii+0x8d>:
    27b5:	0c2d           	mov.n	a2, a12
    27b7:	349734        	ae_sllasq56s	aeq2, aeq1, a7
    27ba:	54c2f4        	ae_lp24x2.iu	aep4, a2, -8
    27bd:	564214        	ae_sp24x2s.i	aep4, a2, 8
    27c0:	5492f4        	ae_lp24x2.iu	aep1, a2, -8
    27c3:	561214        	ae_sp24x2s.i	aep1, a2, 8
    27c6:	5482f4        	ae_lp24x2.iu	aep0, a2, -8
    27c9:	560214        	ae_sp24x2s.i	aep0, a2, 8
    27cc:	54f2f4        	ae_lp24x2.iu	aep7, a2, -8
    27cf:	567214        	ae_sp24x2s.i	aep7, a2, 8
    27d2:	54e2f4        	ae_lp24x2.iu	aep6, a2, -8
    27d5:	fbf7b7621f 	{ ae_sp24x2s.i	aep6, a2, 8; ae_roundsp24q48sym	aep6, aeq2 }
    27da:	4e6b14        	ae_sp24s.l.i	aep6, a11, 4
    27dd:	54d2f4        	ae_lp24x2.iu	aep5, a2, -8
    27e0:	ee5bb7521f 	{ ae_sp24x2s.i	aep5, a2, 8; ae_mulsfs56p24s.ll	aeq0, aep6, aep2 }
    27e5:	aa8b           	addi.n	a10, a10, 8
    27e7:	34c734        	ae_sllasq56s	aeq3, aeq0, a7
    27ea:	fafff5651f 	{ ae_sp24s.l.i	aep6, a5, 4; ae_roundsp24q48sym	aep5, aeq3 }
    27ef:	4e5504        	ae_sp24s.l.i	aep5, a5, 0
    27f2:	4edb24        	ae_sp24s.l.iu	aep5, a11, 8
    27f5:	8a3bd7        	bltu	a11, a13, 2783 <_Z12TnsFilterIIRP5fractS0_icii+0x5b>

000027f8 <_Z12TnsFilterIIRP5fractS0_icii+0xd0>:
    27f8:	f01d           	retw.n

000027fa <_Z12TnsFilterIIRP5fractS0_icii+0xd2>:
    27fa:	a0a9a0        	addx4	a10, a9, a10
    27fd:	fccad2        	addi	a13, a10, -4
    2800:	f419a6        	blti	a9, 1, 27f8 <_Z12TnsFilterIIRP5fractS0_icii+0xd0>
    2803:	f60b           	addi.n	a15, a6, -1
    2805:	015d           	mov.n	a5, a1
    2807:	4c3b04        	ae_lp24.i	aep3, a11, 0
    280a:	4c2b14        	ae_lp24.i	aep2, a11, 4
    280d:	eb4b           	addi.n	a14, a11, 4
    280f:	1189e0        	slli	a8, a9, 2
    2812:	c08d80        	sub	a8, a13, a8
    2815:	884b           	addi.n	a8, a8, 4
    2817:	01bd           	mov.n	a11, a1
    2819:	106182        	s32i	a8, a1, 64

0000281c <_Z12TnsFilterIIRP5fractS0_icii+0xf4>:
    281c:	4c0df4        	ae_lp24.i	aep0, a13, -4
    281f:	ea61b17d0f 	{ ae_lp24.i	aep7, a13, 0; ae_mulfp24s.ll	aeq0, aep0, aep3 }
    2824:	ea7df1050f 	{ ae_lp24.i	aep0, a5, 0; ae_mulfp24s.ll	aeq1, aep7, aep3 }
    2829:	ee43cf8dde 	{ addi	a13, a13, -8; ae_mulsfs56p24s.ll	aeq1, aep0, aep2 }
    282e:	1d26a6        	blti	a6, 2, 284f <_Z12TnsFilterIIRP5fractS0_icii+0x127>
    2831:	4f0b           	addi.n	a4, a15, -1
    2833:	0b3d           	mov.n	a3, a11
    2835:	0e2d           	mov.n	a2, a14
    2837:	4cc214        	ae_lp24.iu	aep4, a2, 4
    283a:	ee83b1931f 	{ ae_lp24.iu	aep1, a3, 4; ae_mulsfs56p24s.ll	aeq0, aep0, aep4 }
    283f:	09a476        	loopgtz	a4, 284c <_Z12TnsFilterIIRP5fractS0_icii+0x124>
    2842:	ee87f1c21f 	{ ae_lp24.iu	aep4, a2, 4; ae_mulsfs56p24s.ll	aeq1, aep1, aep4 }
    2847:	ee87b1931f 	{ ae_lp24.iu	aep1, a3, 4; ae_mulsfs56p24s.ll	aeq0, aep1, aep4 }

0000284c <_Z12TnsFilterIIRP5fractS0_icii+0x124>:
    284c:	101c44        	ae_mulsfs56p24s.ll	aeq1, aep1, aep4

0000284f <_Z12TnsFilterIIRP5fractS0_icii+0x127>:
    284f:	0c2d           	mov.n	a2, a12
    2851:	34d734        	ae_sllasq56s	aeq3, aeq1, a7
    2854:	54c2f4        	ae_lp24x2.iu	aep4, a2, -8
    2857:	564214        	ae_sp24x2s.i	aep4, a2, 8
    285a:	5492f4        	ae_lp24x2.iu	aep1, a2, -8
    285d:	561214        	ae_sp24x2s.i	aep1, a2, 8
    2860:	5482f4        	ae_lp24x2.iu	aep0, a2, -8
    2863:	560214        	ae_sp24x2s.i	aep0, a2, 8
    2866:	54f2f4        	ae_lp24x2.iu	aep7, a2, -8
    2869:	567214        	ae_sp24x2s.i	aep7, a2, 8
    286c:	54e2f4        	ae_lp24x2.iu	aep6, a2, -8
    286f:	fbffb7621f 	{ ae_sp24x2s.i	aep6, a2, 8; ae_roundsp24q48sym	aep6, aeq3 }
    2874:	4e6af4        	ae_sp24s.l.i	aep6, a10, -4
    2877:	54d2f4        	ae_lp24x2.iu	aep5, a2, -8
    287a:	ee5bb7521f 	{ ae_sp24x2s.i	aep5, a2, 8; ae_mulsfs56p24s.ll	aeq0, aep6, aep2 }
    287f:	4e6514        	ae_sp24s.l.i	aep6, a5, 4
    2882:	348734        	ae_sllasq56s	aeq2, aeq0, a7
    2885:	faf7f1019e 	{ l32i	a9, a1, 64; ae_roundsp24q48sym	aep5, aeq2 }
    288a:	4e5504        	ae_sp24s.l.i	aep5, a5, 0
    288d:	4edae4        	ae_sp24s.l.iu	aep5, a10, -8
    2890:	8839a7        	bltu	a9, a10, 281c <_Z12TnsFilterIIRP5fractS0_icii+0xf4>
    2893:	ffd846        	j	27f8 <_Z12TnsFilterIIRP5fractS0_icii+0xd0>

00002896 <_Z12TnsFilterIIRP5fractS0_icii+0x16e>:
	...

00002898 <_Z13TnsParcor2LpcP5fractS0_Pii>:
    2898:	01a136        	entry	a1, 208
    289b:	206132        	s32i	a3, a1, 128
    289e:	236142        	s32i	a4, a1, 140
    28a1:	0f0c           	movi.n	a15, 0
    28a3:	f5f9e1        	l32r	a14, 88 (7fffff <_end+0x7ef447>)
    28a6:	950b           	addi.n	a9, a5, -1
    28a8:	44c1a2        	addi	a10, a1, 68
    28ab:	3cc162        	addi	a6, a1, 60
    28ae:	fcc182        	addi	a8, a1, -4
    28b1:	d24b           	addi.n	a13, a2, 4
    28b3:	2861d2        	s32i	a13, a1, 160
    28b6:	216182        	s32i	a8, a1, 132
    28b9:	226162        	s32i	a6, a1, 136
    28bc:	2961a2        	s32i	a10, a1, 164
    28bf:	a0c920        	addx4	a12, a9, a2
    28c2:	a0b910        	addx4	a11, a9, a1
    28c5:	398ee4        	ae_movpa24x2	aep0, a14, a14
    28c8:	04f9           	s32i.n	a15, a4, 0
    28ca:	e51b           	addi.n	a14, a5, 1
    28cc:	f14b           	addi.n	a15, a1, 4
    28ce:	2461b2        	s32i	a11, a1, 144
    28d1:	ff0c004cce 	{ addi	a12, a12, 4; ae_cvtq48p24s.l	aeq3, aep0 }
    28d6:	2561c2        	s32i	a12, a1, 148
    28d9:	fc208001bf 	{ movi	a11, 1; ae_zerop48	aep0 }
    28de:	a0a9a0        	addx4	a10, a9, a10
    28e1:	2661a2        	s32i	a10, a1, 152
    28e4:	a099f0        	addx4	a9, a9, a15
    28e7:	276192        	s32i	a9, a1, 156
    28ea:	0001c6        	j	28f5 <_Z13TnsParcor2LpcP5fractS0_Pii+0x5d>

000028ed <_Z13TnsParcor2LpcP5fractS0_Pii+0x55>:
    28ed:	ca0b           	addi.n	a12, a10, -1
    28ef:	0b5c16        	beqz	a12, 29a8 <_Z13TnsParcor2LpcP5fractS0_Pii+0x110>
    28f2:	0bea16        	beqz	a10, 29b4 <_Z13TnsParcor2LpcP5fractS0_Pii+0x11c>

000028f5 <_Z13TnsParcor2LpcP5fractS0_Pii+0x5d>:
    28f5:	222132        	l32i	a3, a1, 136
    28f8:	212122        	l32i	a2, a1, 132
    28fb:	d40c           	movi.n	a4, 13
    28fd:	058476        	loop	a4, 2906 <_Z13TnsParcor2LpcP5fractS0_Pii+0x6e>
    2900:	4e8214        	ae_sp24s.l.iu	aep0, a2, 4
    2903:	4e8314        	ae_sp24s.l.iu	aep0, a3, 4

00002906 <_Z13TnsParcor2LpcP5fractS0_Pii+0x6e>:
    2906:	2321d2        	l32i	a13, a1, 140
    2909:	0dd8           	l32i.n	a13, a13, 0
    290b:	343db4        	ae_sraaq56	aeq0, aeq3, a13
    290e:	0a2596        	bltz	a5, 29b4 <_Z13TnsParcor2LpcP5fractS0_Pii+0x11c>
    2911:	2021c2        	l32i	a12, a1, 128
    2914:	0d0c           	movi.n	a13, 0
    2916:	014d           	mov.n	a4, a1
    2918:	fe248000af 	{ movi	a10, 0; ae_zeroq56	aeq2 }
    291d:	000286        	j	292b <_Z13TnsParcor2LpcP5fractS0_Pii+0x93>

00002920 <_Z13TnsParcor2LpcP5fractS0_Pii+0x88>:
    2920:	077a16        	beqz	a10, 299b <_Z13TnsParcor2LpcP5fractS0_Pii+0x103>

00002923 <_Z13TnsParcor2LpcP5fractS0_Pii+0x8b>:
    2923:	fc14404cce 	{ addi	a12, a12, 4; ae_movq56	aeq0, aeq2 }
    2928:	c11ed7        	beq	a14, a13, 28ed <_Z13TnsParcor2LpcP5fractS0_Pii+0x55>

0000292b <_Z13TnsParcor2LpcP5fractS0_Pii+0x93>:
    292b:	fae7801dde 	{ addi	a13, a13, 1; ae_roundsp24q48sym	aep4, aeq0 }
    2930:	ec15a6        	blti	a5, 1, 2920 <_Z13TnsParcor2LpcP5fractS0_Pii+0x88>
    2933:	282192        	l32i	a9, a1, 160
    2936:	292182        	l32i	a8, a1, 164
    2939:	0f7d           	mov.n	a7, a15
    293b:	242122        	l32i	a2, a1, 144
    293e:	1da576        	loopgtz	a5, 295f <_Z13TnsParcor2LpcP5fractS0_Pii+0xc7>
    2941:	4c29f4        	ae_lp24.i	aep2, a9, -4
    2944:	f8e7f137ff 	{ ae_lp24.i	aep3, a7, -4; ae_roundsp24q48sym	aep1, aeq0 }
    2949:	e26b80477e 	{ addi	a7, a7, 4; ae_mulafp24s.ll	aeq0, aep2, aep3 }
    294e:	4e18f4        	ae_sp24s.l.i	aep1, a8, -4
    2951:	364604        	ae_nsaq56s	a6, aeq0
    2954:	994b           	addi.n	a9, a9, 4
    2956:	884b           	addi.n	a8, a8, 4
    2958:	0186e6        	bgei	a6, 8, 295d <_Z13TnsParcor2LpcP5fractS0_Pii+0xc5>
    295b:	0bad           	mov.n	a10, a11

0000295d <_Z13TnsParcor2LpcP5fractS0_Pii+0xc5>:
    295d:	f03d           	nop.n

0000295f <_Z13TnsParcor2LpcP5fractS0_Pii+0xc7>:
    295f:	272172        	l32i	a7, a1, 156
    2962:	262182        	l32i	a8, a1, 152
    2965:	252192        	l32i	a9, a1, 148
    2968:	f03d           	nop.n
    296a:	2aa576        	loopgtz	a5, 2998 <_Z13TnsParcor2LpcP5fractS0_Pii+0x100>
    296d:	4c68f4        	ae_lp24.i	aep6, a8, -4
    2970:	4c77f4        	ae_lp24.i	aep7, a7, -4
    2973:	fdec3159ff 	{ ae_lp24.i	aep5, a9, -4; ae_cvtq48p24s.l	aeq1, aep7 }
    2978:	015e34        	ae_mulafp24s.ll	aeq1, aep5, aep6
    297b:	fcc772        	addi	a7, a7, -4
    297e:	365604        	ae_nsaq56s	a6, aeq1
    2981:	fcc882        	addi	a8, a8, -4
    2984:	fcc992        	addi	a9, a9, -4
    2987:	0886a6        	blti	a6, 8, 2993 <_Z13TnsParcor2LpcP5fractS0_Pii+0xfb>
    298a:	1b9c14        	ae_roundsp24q48sym	aep1, aeq1
    298d:	4e1214        	ae_sp24s.l.i	aep1, a2, 4
    2990:	000046        	j	2995 <_Z13TnsParcor2LpcP5fractS0_Pii+0xfd>

00002993 <_Z13TnsParcor2LpcP5fractS0_Pii+0xfb>:
    2993:	1a0c           	movi.n	a10, 1

00002995 <_Z13TnsParcor2LpcP5fractS0_Pii+0xfd>:
    2995:	fcc222        	addi	a2, a2, -4

00002998 <_Z13TnsParcor2LpcP5fractS0_Pii+0x100>:
    2998:	f87a56        	bnez	a10, 2923 <_Z13TnsParcor2LpcP5fractS0_Pii+0x8b>

0000299b <_Z13TnsParcor2LpcP5fractS0_Pii+0x103>:
    299b:	f9e7b5440f 	{ ae_sp24s.l.i	aep4, a4, 0; ae_roundsp24q48sym	aep2, aeq0 }
    29a0:	4e2c04        	ae_sp24s.l.i	aep2, a12, 0
    29a3:	ffdf06        	j	2923 <_Z13TnsParcor2LpcP5fractS0_Pii+0x8b>

000029a6 <_Z13TnsParcor2LpcP5fractS0_Pii+0x10e>:
	...

000029a8 <_Z13TnsParcor2LpcP5fractS0_Pii+0x110>:
    29a8:	232192        	l32i	a9, a1, 140
    29ab:	0988           	l32i.n	a8, a9, 0
    29ad:	881b           	addi.n	a8, a8, 1
    29af:	0989           	s32i.n	a8, a9, 0
    29b1:	f40a56        	bnez	a10, 28f5 <_Z13TnsParcor2LpcP5fractS0_Pii+0x5d>

000029b4 <_Z13TnsParcor2LpcP5fractS0_Pii+0x11c>:
    29b4:	f01d           	retw.n

000029b6 <_Z13TnsParcor2LpcP5fractS0_Pii+0x11e>:
	...

000029b8 <_Z21TnsDecodeCoefficientsP7CFilterP5fract>:
    29b8:	004136        	entry	a1, 32
    29bb:	040252        	l8ui	a5, a2, 4
    29be:	f5c381        	l32r	a8, cc (109d4 <tnsCoeff3>)
    29c1:	f5c371        	l32r	a7, d0 (109d0 <tnsCoeff4>)
    29c4:	235500        	sext	a5, a5, 7
    29c7:	1d15a6        	blti	a5, 1, 29e8 <_Z21TnsDecodeCoefficientsP7CFilterP5fract+0x30>
    29ca:	0778           	l32i.n	a7, a7, 0
    29cc:	0888           	l32i.n	a8, a8, 0
    29ce:	030262        	l8ui	a6, a2, 3
    29d1:	13a576        	loopgtz	a5, 29e8 <_Z21TnsDecodeCoefficientsP7CFilterP5fract+0x30>
    29d4:	050252        	l8ui	a5, a2, 5
    29d7:	221b           	addi.n	a2, a2, 1
    29d9:	235500        	sext	a5, a5, 7
    29dc:	0a3626        	beqi	a6, 3, 29ea <_Z21TnsDecodeCoefficientsP7CFilterP5fract+0x32>
    29df:	a09570        	addx4	a9, a5, a7
    29e2:	8998           	l32i.n	a9, a9, 32
    29e4:	1399           	s32i.n	a9, a3, 4

000029e6 <_Z21TnsDecodeCoefficientsP7CFilterP5fract+0x2e>:
    29e6:	334b           	addi.n	a3, a3, 4

000029e8 <_Z21TnsDecodeCoefficientsP7CFilterP5fract+0x30>:
    29e8:	f01d           	retw.n

000029ea <_Z21TnsDecodeCoefficientsP7CFilterP5fract+0x32>:
    29ea:	a0a580        	addx4	a10, a5, a8
    29ed:	4aa8           	l32i.n	a10, a10, 16
    29ef:	13a9           	s32i.n	a10, a3, 4
    29f1:	fffc46        	j	29e6 <_Z21TnsDecodeCoefficientsP7CFilterP5fract+0x2e>

000029f4 <_Z7Minimumiii>:
    29f4:	004136        	entry	a1, 32
    29f7:	432230        	min	a2, a2, a3
    29fa:	432240        	min	a2, a2, a4
    29fd:	f01d           	retw.n

000029ff <_Z7Minimumiii+0xb>:
	...

00002a00 <_Z16CAacDecoderResetiP5fract>:
    2a00:	004136        	entry	a1, 32
    2a03:	5f12a6        	blti	a2, 1, 2a66 <_Z16CAacDecoderResetiP5fract+0x66>
    2a06:	1192e0        	slli	a9, a2, 2
    2a09:	f5b2d1        	l32r	a13, d4 (109d8 <OnlyShortWindowKBD>)
    2a0c:	f584c1        	l32r	a12, 1c (109e0 <OnlyShortWindowSine>)
    2a0f:	f5b2b1        	l32r	a11, d8 (109dc <OnlyLongWindowKBD>)
    2a12:	f587a1        	l32r	a10, 30 (109e4 <OnlyLongWindowSine>)
    2a15:	0e0c           	movi.n	a14, 0
    2a17:	364e34        	ae_cvtq48a32s	aeq1, a14
    2a1a:	355214        	ae_slliq56	aeq1, aeq1, 8
    2a1d:	fc04d37eef 	{ or	a7, a14, a14; ae_satq48s	aeq0, aeq1 }
    2a22:	350234        	ae_sraiq56	aeq0, aeq0, 8
    2a25:	368604        	ae_trunca32q48	a6, aeq0

00002a28 <_Z16CAacDecoderResetiP5fract+0x28>:
    2a28:	8e2382        	l32i	a8, a3, 0x238
    2a2b:	887a           	add.n	a8, a8, a7
    2a2d:	0828           	l32i.n	a2, a8, 0
    2a2f:	1042e2        	s8i	a14, a2, 16
    2a32:	08f8           	l32i.n	a15, a8, 0
    2a34:	0c52e2        	s16i	a14, a2, 24
    2a37:	0d52e2        	s16i	a14, a2, 26
    2a3a:	114fe2        	s8i	a14, a15, 17
    2a3d:	0888           	l32i.n	a8, a8, 0
    2a3f:	00a242        	movi	a4, 0x200
    2a42:	0a58           	l32i.n	a5, a10, 0
    2a44:	5828           	l32i.n	a2, a8, 20
    2a46:	02a476        	loopgtz	a4, 2a4c <_Z16CAacDecoderResetiP5fract+0x4c>
    2a49:	09e264        	ae_s32ip	a6, a2, 4

00002a4c <_Z16CAacDecoderResetiP5fract+0x4c>:
    2a4c:	8e2342        	l32i	a4, a3, 0x238
    2a4f:	0859           	s32i.n	a5, a8, 0
    2a51:	447a           	add.n	a4, a4, a7
    2a53:	0448           	l32i.n	a4, a4, 0
    2a55:	0cf8           	l32i.n	a15, a12, 0
    2a57:	774b           	addi.n	a7, a7, 4
    2a59:	24f9           	s32i.n	a15, a4, 8
    2a5b:	0b58           	l32i.n	a5, a11, 0
    2a5d:	1459           	s32i.n	a5, a4, 4
    2a5f:	0df8           	l32i.n	a15, a13, 0
    2a61:	34f9           	s32i.n	a15, a4, 12
    2a63:	c19797        	bne	a7, a9, 2a28 <_Z16CAacDecoderResetiP5fract+0x28>

00002a66 <_Z16CAacDecoderResetiP5fract+0x66>:
    2a66:	020c           	movi.n	a2, 0
    2a68:	f01d           	retw.n

00002a6a <_Z16CAacDecoderResetiP5fract+0x6a>:
	...

00002a6c <_Z16CAacDecoderResetiP5fract+0x6c>:
    2a6c:	004136        	entry	a1, 32
    2a6f:	020c           	movi.n	a2, 0
    2a71:	0329           	s32i.n	a2, a3, 0
    2a73:	f01d           	retw.n

00002a75 <_Z16CAacDecoderResetiP5fract+0x75>:
    2a75:	000000                                        ...

00002a78 <_Z15ReadFillElementP7BIT_BUF>:
    2a78:	004136        	entry	a1, 32
    2a7b:	f59881        	l32r	a8, dc (6f60 <initBitParser>)
    2a7e:	02ad           	mov.n	a10, a2
    2a80:	0008e0        	callx8	a8
    2a83:	0abd           	mov.n	a11, a10
    2a85:	03af44        	ae_lbi	a10, 4
    2a88:	f90c           	movi.n	a9, 15
    2a8a:	004bf4        	ae_dbi	a11, 4
    2a8d:	079a97        	bne	a10, a9, 2a98 <_Z15ReadFillElementP7BIT_BUF+0x20>
    2a90:	03af84        	ae_lbi	a10, 8
    2a93:	008bf4        	ae_dbi	a11, 8
    2a96:	aaeb           	addi.n	a10, a10, 14

00002a98 <_Z15ReadFillElementP7BIT_BUF+0x20>:
    2a98:	2a9c           	beqz.n	a10, 2aae <_Z15ReadFillElementP7BIT_BUF+0x36>
    2a9a:	033f84        	ae_lbi	a3, 8
    2a9d:	ca0b           	addi.n	a12, a10, -1
    2a9f:	008bf4        	ae_dbi	a11, 8
    2aa2:	343430        	extui	a3, a3, 4, 4
    2aa5:	02ac76        	loopgtz	a12, 2aab <_Z15ReadFillElementP7BIT_BUF+0x33>
    2aa8:	008bf4        	ae_dbi	a11, 8

00002aab <_Z15ReadFillElementP7BIT_BUF+0x33>:
    2aab:	000046        	j	2ab0 <_Z15ReadFillElementP7BIT_BUF+0x38>

00002aae <_Z15ReadFillElementP7BIT_BUF+0x36>:
    2aae:	030c           	movi.n	a3, 0

00002ab0 <_Z15ReadFillElementP7BIT_BUF+0x38>:
    2ab0:	f58c81        	l32r	a8, e0 (6f38 <TerminateBitParser_new>)
    2ab3:	02ad           	mov.n	a10, a2
    2ab5:	0008e0        	callx8	a8
    2ab8:	032d           	mov.n	a2, a3
    2aba:	f01d           	retw.n

00002abc <_Z23xa_Copy_PCE_From_HeaderP20AAC_DECODER_INSTANCE>:
    2abc:	004136        	entry	a1, 32
    2abf:	f58981        	l32r	a8, e4 (5e20 <_Z18CProgramConfigOpenP14CProgramConfig>)
    2ac2:	32db           	addi.n	a3, a2, 13
    2ac4:	03ad           	mov.n	a10, a3
    2ac6:	0008e0        	callx8	a8
    2ac9:	aa2292        	l32i	a9, a2, 0x2a8
    2acc:	02d2a2        	addmi	a10, a2, 0x200
    2acf:	e8ca22        	addi	a2, a10, -24
    2ad2:	e9bc           	beqz.n	a9, 2b14 <_Z23xa_Copy_PCE_From_HeaderP20AAC_DECODER_INSTANCE+0x58>
    2ad4:	0c3c           	movi.n	a12, 48
    2ad6:	44ca52        	addi	a5, a10, 68
    2ad9:	74ca42        	addi	a4, a10, 116
    2adc:	f58381        	l32r	a8, e8 (418 <memcpy>)
    2adf:	04bd           	mov.n	a11, a4
    2ae1:	05ad           	mov.n	a10, a5
    2ae3:	0008e0        	callx8	a8
    2ae6:	f58181        	l32r	a8, ec (5900 <_Z17CopyPCEfromHeaderP21tProgramConfigElementP14CProgramConfig>)
    2ae9:	3022a2        	l32i	a10, a2, 192
    2aec:	03bd           	mov.n	a11, a3
    2aee:	0008e0        	callx8	a8
    2af1:	03bd           	mov.n	a11, a3
    2af3:	f57f81        	l32r	a8, f0 (5a34 <_Z34CProgramConfigSetChannelAssignmentPA16_hP14CProgramConfigi>)
    2af6:	04ad           	mov.n	a10, a4
    2af8:	1022c2        	l32i	a12, a2, 64
    2afb:	0008e0        	callx8	a8
    2afe:	da8c           	beqz.n	a10, 2b0f <_Z23xa_Copy_PCE_From_HeaderP20AAC_DECODER_INSTANCE+0x53>
    2b00:	05bd           	mov.n	a11, a5
    2b02:	f57981        	l32r	a8, e8 (418 <memcpy>)
    2b05:	04ad           	mov.n	a10, a4
    2b07:	0c3c           	movi.n	a12, 48
    2b09:	0008e0        	callx8	a8
    2b0c:	000106        	j	2b14 <_Z23xa_Copy_PCE_From_HeaderP20AAC_DECODER_INSTANCE+0x58>

00002b0f <_Z23xa_Copy_PCE_From_HeaderP20AAC_DECODER_INSTANCE+0x53>:
    2b0f:	190c           	movi.n	a9, 1
    2b11:	bc4292        	s8i	a9, a2, 188
    2b14:	020c           	movi.n	a2, 0
    2b16:	f01d           	retw.n

00002b18 <_Z19CAacDecoderSetSEMapP20AAC_DECODER_INSTANCEi>:
    2b18:	004136        	entry	a1, 32
    2b1b:	638c           	beqz.n	a3, 2b25 <_Z19CAacDecoderSetSEMapP20AAC_DECODER_INSTANCEi+0xd>
    2b1d:	ab6232        	s32i	a3, a2, 0x2ac
    2b20:	040c           	movi.n	a4, 0
    2b22:	aa6242        	s32i	a4, a2, 0x2a8

00002b25 <_Z19CAacDecoderSetSEMapP20AAC_DECODER_INSTANCEi+0xd>:
    2b25:	f01d           	retw.n

00002b27 <_Z19CAacDecoderSetSEMapP20AAC_DECODER_INSTANCEi+0xf>:
	...

00002b28 <_Z24CAacDecoderSetPCEpointerP20AAC_DECODER_INSTANCEPvc>:
    2b28:	004136        	entry	a1, 32
    2b2b:	ab2252        	l32i	a5, a2, 0x2ac
    2b2e:	65cc           	bnez.n	a5, 2b38 <_Z24CAacDecoderSetPCEpointerP20AAC_DECODER_INSTANCEPvc+0x10>
    2b30:	080c           	movi.n	a8, 0
    2b32:	938340        	movnez	a8, a3, a4
    2b35:	aa6282        	s32i	a8, a2, 0x2a8

00002b38 <_Z24CAacDecoderSetPCEpointerP20AAC_DECODER_INSTANCEPvc+0x10>:
    2b38:	f01d           	retw.n

00002b3a <_Z24CAacDecoderSetPCEpointerP20AAC_DECODER_INSTANCEPvc+0x12>:
	...

00002b3c <_Z24CAacDecoderSetPCEpointerP20AAC_DECODER_INSTANCEPvc+0x14>:
    2b3c:	004136        	entry	a1, 32
    2b3f:	020c           	movi.n	a2, 0
    2b41:	f01d           	retw.n

00002b43 <_Z24CAacDecoderSetPCEpointerP20AAC_DECODER_INSTANCEPvc+0x1b>:
	...

00002b44 <_Z33CAacDecoderResetDRCExtPresentFlagP20AAC_DECODER_INSTANCE>:
    2b44:	004136        	entry	a1, 32
    2b47:	030c           	movi.n	a3, 0
    2b49:	906232        	s32i	a3, a2, 0x240
    2b4c:	f01d           	retw.n

00002b4e <_Z33CAacDecoderResetDRCExtPresentFlagP20AAC_DECODER_INSTANCE+0xa>:
	...

00002b50 <_Z31CAacDecoderGetDRCExtPresentFlagP20AAC_DECODER_INSTANCE>:
    2b50:	004136        	entry	a1, 32
    2b53:	902222        	l32i	a2, a2, 0x240
    2b56:	f01d           	retw.n

00002b58 <_Z27CAacDecoder_FrequencyToTimeP20AAC_DECODER_INSTANCEP5fractiii>:
    2b58:	006136        	entry	a1, 48
    2b5b:	1174e0        	slli	a7, a4, 2
    2b5e:	758050        	extui	a8, a5, 16, 8
    2b61:	389c           	beqz.n	a8, 2b78 <_Z27CAacDecoder_FrequencyToTimeP20AAC_DECODER_INSTANCEP5fractiii+0x20>
    2b63:	8d22a2        	l32i	a10, a2, 0x234
    2b66:	0b0c           	movi.n	a11, 0
    2b68:	a0a4a0        	addx4	a10, a4, a10
    2b6b:	0aa8           	l32i.n	a10, a10, 0
    2b6d:	f56281        	l32r	a8, f8 (9db0 <__vec_memset>)
    2b70:	f561c1        	l32r	a12, f4 (1000 <_Z26CLongBlock_FrequencyToTimeP28CAacDecoderStaticChannelInfoP22CAacDecoderChannelInfoP5fractiiiS4_+0x154>)
    2b73:	7aa8           	l32i.n	a10, a10, 28
    2b75:	0008e0        	callx8	a8

00002b78 <_Z27CAacDecoder_FrequencyToTimeP20AAC_DECODER_INSTANCEP5fractiii+0x20>:
    2b78:	8d22b2        	l32i	a11, a2, 0x234
    2b7b:	bb7a           	add.n	a11, a11, a7
    2b7d:	0bb8           	l32i.n	a11, a11, 0
    2b7f:	8f2242        	l32i	a4, a2, 0x23c
    2b82:	74f050        	extui	a15, a5, 0, 8
    2b85:	0bc8           	l32i.n	a12, a11, 0
    2b87:	8e22a2        	l32i	a10, a2, 0x238
    2b8a:	74e850        	extui	a14, a5, 8, 8
    2b8d:	030cc2        	l8ui	a12, a12, 3
    2b90:	a7aa           	add.n	a10, a7, a10
    2b92:	0aa8           	l32i.n	a10, a10, 0
    2b94:	0d2c26        	beqi	a12, 2, 2ba5 <_Z27CAacDecoder_FrequencyToTimeP20AAC_DECODER_INSTANCEP5fractiii+0x4d>
    2b97:	0149           	s32i.n	a4, a1, 0
    2b99:	f55881        	l32r	a8, fc (eac <_Z26CLongBlock_FrequencyToTimeP28CAacDecoderStaticChannelInfoP22CAacDecoderChannelInfoP5fractiiiS4_>)
    2b9c:	03cd           	mov.n	a12, a3
    2b9e:	06dd           	mov.n	a13, a6
    2ba0:	0008e0        	callx8	a8
    2ba3:	f01d           	retw.n

00002ba5 <_Z27CAacDecoder_FrequencyToTimeP20AAC_DECODER_INSTANCEP5fractiii+0x4d>:
    2ba5:	06dd           	mov.n	a13, a6
    2ba7:	f55681        	l32r	a8, 100 (17b8 <_Z27CShortBlock_FrequencyToTimeP28CAacDecoderStaticChannelInfoP22CAacDecoderChannelInfoP5fractiiiS4_>)
    2baa:	03cd           	mov.n	a12, a3
    2bac:	0149           	s32i.n	a4, a1, 0
    2bae:	0008e0        	callx8	a8
    2bb1:	f01d           	retw.n

00002bb3 <_Z27CAacDecoder_FrequencyToTimeP20AAC_DECODER_INSTANCEP5fractiii+0x5b>:
	...

00002bb4 <_Z22CAacDecoder_ParseFrameP20AAC_DECODER_INSTANCEPiciiS1_P21XA_AACDEC_CHANNELMODEcii>:
    2bb4:	010136        	entry	a1, 128
    2bb7:	8401d2        	l8ui	a13, a1, 132
    2bba:	2139           	s32i.n	a3, a1, 8
    2bbc:	02d2e2        	addmi	a14, a2, 0x200
    2bbf:	059d           	mov.n	a9, a5
    2bc1:	07cd           	mov.n	a12, a7
    2bc3:	81c9           	s32i.n	a12, a1, 32
    2bc5:	7199           	s32i.n	a9, a1, 28
    2bc7:	1261e2        	s32i	a14, a1, 72
    2bca:	030c           	movi.n	a3, 0
    2bcc:	035d           	mov.n	a5, a3
    2bce:	004132        	s8i	a3, a1, 0
    2bd1:	8722a2        	l32i	a10, a2, 0x21c
    2bd4:	0c02e2        	l8ui	a14, a2, 12
    2bd7:	23dd00        	sext	a13, a13, 7
    2bda:	22b8           	l32i.n	a11, a2, 8
    2bdc:	1161b2        	s32i	a11, a1, 68
    2bdf:	0d7d           	mov.n	a7, a13
    2be1:	5bb8           	l32i.n	a11, a11, 20
    2be3:	93d3e0        	movnez	a13, a3, a14
    2be6:	0042d2        	s8i	a13, a2, 0
    2be9:	11b9           	s32i.n	a11, a1, 4
    2beb:	8a2282        	l32i	a8, a2, 0x228
    2bee:	935640        	movnez	a5, a6, a4
    2bf1:	0a49           	s32i.n	a4, a10, 0
    2bf3:	1c18a6        	blti	a8, 1, 2c13 <_Z22CAacDecoder_ParseFrameP20AAC_DECODER_INSTANCEPiciiS1_P21XA_AACDEC_CHANNELMODEcii+0x5f>
    2bf6:	040c           	movi.n	a4, 0
    2bf8:	060c           	movi.n	a6, 0

00002bfa <_Z22CAacDecoder_ParseFrameP20AAC_DECODER_INSTANCEPiciiS1_P21XA_AACDEC_CHANNELMODEcii+0x46>:
    2bfa:	8d22a2        	l32i	a10, a2, 0x234
    2bfd:	f54181        	l32r	a8, 104 (15b0 <_Z12CPns_InitPnsP22CAacDecoderChannelInfo>)
    2c00:	aa4a           	add.n	a10, a10, a4
    2c02:	0aa8           	l32i.n	a10, a10, 0
    2c04:	0008e0        	callx8	a8
    2c07:	1221b2        	l32i	a11, a1, 72
    2c0a:	abb8           	l32i.n	a11, a11, 40
    2c0c:	444b           	addi.n	a4, a4, 4
    2c0e:	661b           	addi.n	a6, a6, 1
    2c10:	e626b7        	blt	a6, a11, 2bfa <_Z22CAacDecoder_ParseFrameP20AAC_DECODER_INSTANCEPiciiS1_P21XA_AACDEC_CHANNELMODEcii+0x46>

00002c13 <_Z22CAacDecoder_ParseFrameP20AAC_DECODER_INSTANCEPiciiS1_P21XA_AACDEC_CHANNELMODEcii+0x5f>:
    2c13:	6159           	s32i.n	a5, a1, 24
    2c15:	f53381        	l32r	a8, e4 (5e20 <_Z18CProgramConfigOpenP14CProgramConfig>)
    2c18:	62db           	addi.n	a6, a2, 13
    2c1a:	06ad           	mov.n	a10, a6
    2c1c:	0008e0        	callx8	a8
    2c1f:	122192        	l32i	a9, a1, 72
    2c22:	02d242        	addmi	a4, a2, 0x200
    2c25:	2a2992        	l32i	a9, a9, 168
    2c28:	74c452        	addi	a5, a4, 116
    2c2b:	44c442        	addi	a4, a4, 68
    2c2e:	041916        	beqz	a9, 2c73 <_Z22CAacDecoder_ParseFrameP20AAC_DECODER_INSTANCEPiciiS1_P21XA_AACDEC_CHANNELMODEcii+0xbf>
    2c31:	04ad           	mov.n	a10, a4
    2c33:	f52d81        	l32r	a8, e8 (418 <memcpy>)
    2c36:	05bd           	mov.n	a11, a5
    2c38:	0c3c           	movi.n	a12, 48
    2c3a:	0008e0        	callx8	a8
    2c3d:	1221a2        	l32i	a10, a1, 72
    2c40:	f52b81        	l32r	a8, ec (5900 <_Z17CopyPCEfromHeaderP21tProgramConfigElementP14CProgramConfig>)
    2c43:	06bd           	mov.n	a11, a6
    2c45:	2a2aa2        	l32i	a10, a10, 168
    2c48:	0008e0        	callx8	a8
    2c4b:	05ad           	mov.n	a10, a5
    2c4d:	1221c2        	l32i	a12, a1, 72
    2c50:	f52881        	l32r	a8, f0 (5a34 <_Z34CProgramConfigSetChannelAssignmentPA16_hP14CProgramConfigi>)
    2c53:	06bd           	mov.n	a11, a6
    2c55:	acc8           	l32i.n	a12, a12, 40
    2c57:	0008e0        	callx8	a8
    2c5a:	da8c           	beqz.n	a10, 2c6b <_Z22CAacDecoder_ParseFrameP20AAC_DECODER_INSTANCEPiciiS1_P21XA_AACDEC_CHANNELMODEcii+0xb7>
    2c5c:	05ad           	mov.n	a10, a5
    2c5e:	f52281        	l32r	a8, e8 (418 <memcpy>)
    2c61:	04bd           	mov.n	a11, a4
    2c63:	0c3c           	movi.n	a12, 48
    2c65:	0008e0        	callx8	a8
    2c68:	0001c6        	j	2c73 <_Z22CAacDecoder_ParseFrameP20AAC_DECODER_INSTANCEPiciiS1_P21XA_AACDEC_CHANNELMODEcii+0xbf>

00002c6b <_Z22CAacDecoder_ParseFrameP20AAC_DECODER_INSTANCEPiciiS1_P21XA_AACDEC_CHANNELMODEcii+0xb7>:
    2c6b:	1221a2        	l32i	a10, a1, 72
    2c6e:	190c           	movi.n	a9, 1
    2c70:	a44a92        	s8i	a9, a10, 164
    2c73:	f52581        	l32r	a8, 108 (2b44 <_Z33CAacDecoderResetDRCExtPresentFlagP20AAC_DECODER_INSTANCE>)
    2c76:	02ad           	mov.n	a10, a2
    2c78:	4169           	s32i.n	a6, a1, 16
    2c7a:	0008e0        	callx8	a8
    2c7d:	060c           	movi.n	a6, 0
    2c7f:	0a0c           	movi.n	a10, 0
    2c81:	080c           	movi.n	a8, 0
    2c83:	090c           	movi.n	a9, 0
    2c85:	d199           	s32i.n	a9, a1, 52
    2c87:	9189           	s32i.n	a8, a1, 36
    2c89:	a1a9           	s32i.n	a10, a1, 40
    2c8b:	b1a9           	s32i.n	a10, a1, 44

00002c8d <_Z22CAacDecoder_ParseFrameP20AAC_DECODER_INSTANCEPiciiS1_P21XA_AACDEC_CHANNELMODEcii+0xd9>:
    2c8d:	d1b8           	l32i.n	a11, a1, 52
    2c8f:	f9cbb2        	addi	a11, a11, -7
    2c92:	507b16        	beqz	a11, 319d <_Z22CAacDecoder_ParseFrameP20AAC_DECODER_INSTANCEPiciiS1_P21XA_AACDEC_CHANNELMODEcii+0x5e9>
    2c95:	0002c2        	l8ui	a12, a2, 0
    2c98:	501c16        	beqz	a12, 319d <_Z22CAacDecoder_ParseFrameP20AAC_DECODER_INSTANCEPiciiS1_P21XA_AACDEC_CHANNELMODEcii+0x5e9>
    2c9b:	f51081        	l32r	a8, dc (6f60 <initBitParser>)
    2c9e:	1121a2        	l32i	a10, a1, 68
    2ca1:	0008e0        	callx8	a8
    2ca4:	f50f81        	l32r	a8, e0 (6f38 <TerminateBitParser_new>)
    2ca7:	0abd           	mov.n	a11, a10
    2ca9:	039f34        	ae_lbi	a9, 3
    2cac:	156192        	s32i	a9, a1, 84
    2caf:	1121a2        	l32i	a10, a1, 68
    2cb2:	d199           	s32i.n	a9, a1, 52
    2cb4:	003bf4        	ae_dbi	a11, 3
    2cb7:	0008e0        	callx8	a8
    2cba:	1121a2        	l32i	a10, a1, 68
    2cbd:	5aa8           	l32i.n	a10, a10, 20
    2cbf:	152192        	l32i	a9, a1, 84
    2cc2:	002ad6        	bgez	a10, 2cc8 <_Z22CAacDecoder_ParseFrameP20AAC_DECODER_INSTANCEPiciiS1_P21XA_AACDEC_CHANNELMODEcii+0x114>
    2cc5:	004232        	s8i	a3, a2, 0

00002cc8 <_Z22CAacDecoder_ParseFrameP20AAC_DECODER_INSTANCEPiciiS1_P21XA_AACDEC_CHANNELMODEcii+0x114>:
    2cc8:	3b6916        	beqz	a9, 3082 <_Z22CAacDecoder_ParseFrameP20AAC_DECODER_INSTANCEPiciiS1_P21XA_AACDEC_CHANNELMODEcii+0x4ce>
    2ccb:	b90b           	addi.n	a11, a9, -1
    2ccd:	268b16        	beqz	a11, 2f39 <_Z22CAacDecoder_ParseFrameP20AAC_DECODER_INSTANCEPiciiS1_P21XA_AACDEC_CHANNELMODEcii+0x385>
    2cd0:	fec9c2        	addi	a12, a9, -2
    2cd3:	25dc16        	beqz	a12, 2f34 <_Z22CAacDecoder_ParseFrameP20AAC_DECODER_INSTANCEPiciiS1_P21XA_AACDEC_CHANNELMODEcii+0x380>
    2cd6:	fdc9d2        	addi	a13, a9, -3
    2cd9:	123d16        	beqz	a13, 2e00 <_Z22CAacDecoder_ParseFrameP20AAC_DECODER_INSTANCEPiciiS1_P21XA_AACDEC_CHANNELMODEcii+0x24c>
    2cdc:	fcc9e2        	addi	a14, a9, -4
    2cdf:	0cde16        	beqz	a14, 2db0 <_Z22CAacDecoder_ParseFrameP20AAC_DECODER_INSTANCEPiciiS1_P21XA_AACDEC_CHANNELMODEcii+0x1fc>
    2ce2:	1c5926        	beqi	a9, 5, 2d02 <_Z22CAacDecoder_ParseFrameP20AAC_DECODER_INSTANCEPiciiS1_P21XA_AACDEC_CHANNELMODEcii+0x14e>
    2ce5:	fac9f2        	addi	a15, a9, -6
    2ce8:	2d7f56        	bnez	a15, 2fc3 <_Z22CAacDecoder_ParseFrameP20AAC_DECODER_INSTANCEPiciiS1_P21XA_AACDEC_CHANNELMODEcii+0x40f>
    2ceb:	f50881        	l32r	a8, 10c (2a78 <_Z15ReadFillElementP7BIT_BUF>)
    2cee:	1121a2        	l32i	a10, a1, 68
    2cf1:	0008e0        	callx8	a8
    2cf4:	f5ca92        	addi	a9, a10, -11
    2cf7:	2c8956        	bnez	a9, 2fc3 <_Z22CAacDecoder_ParseFrameP20AAC_DECODER_INSTANCEPiciiS1_P21XA_AACDEC_CHANNELMODEcii+0x40f>
    2cfa:	1a0c           	movi.n	a10, 1
    2cfc:	9062a2        	s32i	a10, a2, 0x240
    2cff:	00b006        	j	2fc3 <_Z22CAacDecoder_ParseFrameP20AAC_DECODER_INSTANCEPiciiS1_P21XA_AACDEC_CHANNELMODEcii+0x40f>

00002d02 <_Z22CAacDecoder_ParseFrameP20AAC_DECODER_INSTANCEPiciiS1_P21XA_AACDEC_CHANNELMODEcii+0x14e>:
    2d02:	1221b2        	l32i	a11, a1, 72
    2d05:	7bb8           	l32i.n	a11, a11, 28
    2d07:	0bb8           	l32i.n	a11, a11, 0
    2d09:	4b9c           	beqz.n	a11, 2d21 <_Z22CAacDecoder_ParseFrameP20AAC_DECODER_INSTANCEPiciiS1_P21XA_AACDEC_CHANNELMODEcii+0x16d>
    2d0b:	8722a2        	l32i	a10, a2, 0x21c
    2d0e:	f50081        	l32r	a8, 110 (5810 <_Z15AdtsCrcStartRegP12CAdtsCrcInfoP7BIT_BUFi>)
    2d11:	1121b2        	l32i	a11, a1, 68
    2d14:	0c0c           	movi.n	a12, 0
    2d16:	0008e0        	callx8	a8
    2d19:	b1a9           	s32i.n	a10, a1, 44
    2d1b:	020a66        	bnei	a10, -1, 2d21 <_Z22CAacDecoder_ParseFrameP20AAC_DECODER_INSTANCEPiciiS1_P21XA_AACDEC_CHANNELMODEcii+0x16d>
    2d1e:	004232        	s8i	a3, a2, 0
    2d21:	1121a2        	l32i	a10, a1, 68
    2d24:	f4fc81        	l32r	a8, 114 (5bc4 <_Z19CProgramConfig_ReadP7BIT_BUFP14CProgramConfigPi>)
    2d27:	41b8           	l32i.n	a11, a1, 16
    2d29:	c14b           	addi.n	a12, a1, 4
    2d2b:	0008e0        	callx8	a8
    2d2e:	4acc           	bnez.n	a10, 2d36 <_Z22CAacDecoder_ParseFrameP20AAC_DECODER_INSTANCEPiciiS1_P21XA_AACDEC_CHANNELMODEcii+0x182>
    2d30:	000292        	l8ui	a9, a2, 0
    2d33:	000106        	j	2d3b <_Z22CAacDecoder_ParseFrameP20AAC_DECODER_INSTANCEPiciiS1_P21XA_AACDEC_CHANNELMODEcii+0x187>

00002d36 <_Z22CAacDecoder_ParseFrameP20AAC_DECODER_INSTANCEPiciiS1_P21XA_AACDEC_CHANNELMODEcii+0x182>:
    2d36:	090c           	movi.n	a9, 0
    2d38:	004232        	s8i	a3, a2, 0

00002d3b <_Z22CAacDecoder_ParseFrameP20AAC_DECODER_INSTANCEPiciiS1_P21XA_AACDEC_CHANNELMODEcii+0x187>:
    2d3b:	1221a2        	l32i	a10, a1, 72
    2d3e:	2a2aa2        	l32i	a10, a10, 168
    2d41:	fafc           	bnez.n	a10, 2d84 <_Z22CAacDecoder_ParseFrameP20AAC_DECODER_INSTANCEPiciiS1_P21XA_AACDEC_CHANNELMODEcii+0x1d0>
    2d43:	d9bc           	beqz.n	a9, 2d84 <_Z22CAacDecoder_ParseFrameP20AAC_DECODER_INSTANCEPiciiS1_P21XA_AACDEC_CHANNELMODEcii+0x1d0>
    2d45:	1221b2        	l32i	a11, a1, 72
    2d48:	2b2bb2        	l32i	a11, a11, 172
    2d4b:	5bfc           	bnez.n	a11, 2d84 <_Z22CAacDecoder_ParseFrameP20AAC_DECODER_INSTANCEPiciiS1_P21XA_AACDEC_CHANNELMODEcii+0x1d0>
    2d4d:	04ad           	mov.n	a10, a4
    2d4f:	f4e681        	l32r	a8, e8 (418 <memcpy>)
    2d52:	05bd           	mov.n	a11, a5
    2d54:	0c3c           	movi.n	a12, 48
    2d56:	0008e0        	callx8	a8
    2d59:	05ad           	mov.n	a10, a5
    2d5b:	1221c2        	l32i	a12, a1, 72
    2d5e:	f4e481        	l32r	a8, f0 (5a34 <_Z34CProgramConfigSetChannelAssignmentPA16_hP14CProgramConfigi>)
    2d61:	41b8           	l32i.n	a11, a1, 16
    2d63:	acc8           	l32i.n	a12, a12, 40
    2d65:	0008e0        	callx8	a8
    2d68:	da8c           	beqz.n	a10, 2d79 <_Z22CAacDecoder_ParseFrameP20AAC_DECODER_INSTANCEPiciiS1_P21XA_AACDEC_CHANNELMODEcii+0x1c5>
    2d6a:	05ad           	mov.n	a10, a5
    2d6c:	f4df81        	l32r	a8, e8 (418 <memcpy>)
    2d6f:	04bd           	mov.n	a11, a4
    2d71:	0c3c           	movi.n	a12, 48
    2d73:	0008e0        	callx8	a8
    2d76:	0001c6        	j	2d81 <_Z22CAacDecoder_ParseFrameP20AAC_DECODER_INSTANCEPiciiS1_P21XA_AACDEC_CHANNELMODEcii+0x1cd>

00002d79 <_Z22CAacDecoder_ParseFrameP20AAC_DECODER_INSTANCEPiciiS1_P21XA_AACDEC_CHANNELMODEcii+0x1c5>:
    2d79:	1221a2        	l32i	a10, a1, 72
    2d7c:	190c           	movi.n	a9, 1
    2d7e:	a44a92        	s8i	a9, a10, 164

00002d81 <_Z22CAacDecoder_ParseFrameP20AAC_DECODER_INSTANCEPiciiS1_P21XA_AACDEC_CHANNELMODEcii+0x1cd>:
    2d81:	000292        	l8ui	a9, a2, 0
    2d84:	b90b           	addi.n	a11, a9, -1
    2d86:	239b56        	bnez	a11, 2fc3 <_Z22CAacDecoder_ParseFrameP20AAC_DECODER_INSTANCEPiciiS1_P21XA_AACDEC_CHANNELMODEcii+0x40f>
    2d89:	8722a2        	l32i	a10, a2, 0x21c
    2d8c:	0ac8           	l32i.n	a12, a10, 0
    2d8e:	231c16        	beqz	a12, 2fc3 <_Z22CAacDecoder_ParseFrameP20AAC_DECODER_INSTANCEPiciiS1_P21XA_AACDEC_CHANNELMODEcii+0x40f>
    2d91:	f4e181        	l32r	a8, 118 (57f4 <_Z13AdtsCrcEndRegP12CAdtsCrcInfoP7BIT_BUFi>)
    2d94:	1121b2        	l32i	a11, a1, 68
    2d97:	b1c8           	l32i.n	a12, a1, 44
    2d99:	0008e0        	callx8	a8
    2d9c:	8722e2        	l32i	a14, a2, 0x21c
    2d9f:	b1d8           	l32i.n	a13, a1, 44
    2da1:	a0dde0        	addx4	a13, a13, a14
    2da4:	3dd8           	l32i.n	a13, a13, 12
    2da6:	4d98           	l32i.n	a9, a13, 16
    2da8:	214916        	beqz	a9, 2fc0 <_Z22CAacDecoder_ParseFrameP20AAC_DECODER_INSTANCEPiciiS1_P21XA_AACDEC_CHANNELMODEcii+0x40c>
    2dab:	2d99           	s32i.n	a9, a13, 8
    2dad:	008486        	j	2fc3 <_Z22CAacDecoder_ParseFrameP20AAC_DECODER_INSTANCEPiciiS1_P21XA_AACDEC_CHANNELMODEcii+0x40f>

00002db0 <_Z22CAacDecoder_ParseFrameP20AAC_DECODER_INSTANCEPiciiS1_P21XA_AACDEC_CHANNELMODEcii+0x1fc>:
    2db0:	1221f2        	l32i	a15, a1, 72
    2db3:	7ff8           	l32i.n	a15, a15, 28
    2db5:	0ff8           	l32i.n	a15, a15, 0
    2db7:	9f9c           	beqz.n	a15, 2dd4 <_Z22CAacDecoder_ParseFrameP20AAC_DECODER_INSTANCEPiciiS1_P21XA_AACDEC_CHANNELMODEcii+0x220>
    2db9:	8722a2        	l32i	a10, a2, 0x21c
    2dbc:	f4d581        	l32r	a8, 110 (5810 <_Z15AdtsCrcStartRegP12CAdtsCrcInfoP7BIT_BUFi>)
    2dbf:	1121b2        	l32i	a11, a1, 68
    2dc2:	0c0c           	movi.n	a12, 0
    2dc4:	0008e0        	callx8	a8
    2dc7:	b1a9           	s32i.n	a10, a1, 44
    2dc9:	070a66        	bnei	a10, -1, 2dd4 <_Z22CAacDecoder_ParseFrameP20AAC_DECODER_INSTANCEPiciiS1_P21XA_AACDEC_CHANNELMODEcii+0x220>
    2dcc:	090c           	movi.n	a9, 0
    2dce:	004232        	s8i	a3, a2, 0
    2dd1:	000086        	j	2dd7 <_Z22CAacDecoder_ParseFrameP20AAC_DECODER_INSTANCEPiciiS1_P21XA_AACDEC_CHANNELMODEcii+0x223>

00002dd4 <_Z22CAacDecoder_ParseFrameP20AAC_DECODER_INSTANCEPiciiS1_P21XA_AACDEC_CHANNELMODEcii+0x220>:
    2dd4:	000292        	l8ui	a9, a2, 0

00002dd7 <_Z22CAacDecoder_ParseFrameP20AAC_DECODER_INSTANCEPiciiS1_P21XA_AACDEC_CHANNELMODEcii+0x223>:
    2dd7:	a90b           	addi.n	a10, a9, -1
    2dd9:	1e6a56        	bnez	a10, 2fc3 <_Z22CAacDecoder_ParseFrameP20AAC_DECODER_INSTANCEPiciiS1_P21XA_AACDEC_CHANNELMODEcii+0x40f>
    2ddc:	1121a2        	l32i	a10, a1, 68
    2ddf:	f4cf81        	l32r	a8, 11c (5890 <_Z23CDataStreamElement_ReadP7BIT_BUFP18CDataStreamElementPi>)
    2de2:	8922b2        	l32i	a11, a2, 0x224
    2de5:	c14b           	addi.n	a12, a1, 4
    2de7:	0008e0        	callx8	a8
    2dea:	8722a2        	l32i	a10, a2, 0x21c
    2ded:	0a98           	l32i.n	a9, a10, 0
    2def:	1d0916        	beqz	a9, 2fc3 <_Z22CAacDecoder_ParseFrameP20AAC_DECODER_INSTANCEPiciiS1_P21XA_AACDEC_CHANNELMODEcii+0x40f>
    2df2:	f4c981        	l32r	a8, 118 (57f4 <_Z13AdtsCrcEndRegP12CAdtsCrcInfoP7BIT_BUFi>)
    2df5:	1121b2        	l32i	a11, a1, 68
    2df8:	b1c8           	l32i.n	a12, a1, 44
    2dfa:	0008e0        	callx8	a8
    2dfd:	007086        	j	2fc3 <_Z22CAacDecoder_ParseFrameP20AAC_DECODER_INSTANCEPiciiS1_P21XA_AACDEC_CHANNELMODEcii+0x40f>

00002e00 <_Z22CAacDecoder_ParseFrameP20AAC_DECODER_INSTANCEPiciiS1_P21XA_AACDEC_CHANNELMODEcii+0x24c>:
    2e00:	122192        	l32i	a9, a1, 72
    2e03:	a998           	l32i.n	a9, a9, 40
    2e05:	1221a2        	l32i	a10, a1, 72
    2e08:	042697        	blt	a6, a9, 2e10 <_Z22CAacDecoder_ParseFrameP20AAC_DECODER_INSTANCEPiciiS1_P21XA_AACDEC_CHANNELMODEcii+0x25c>
    2e0b:	170c           	movi.n	a7, 1
    2e0d:	006bc6        	j	2fc0 <_Z22CAacDecoder_ParseFrameP20AAC_DECODER_INSTANCEPiciiS1_P21XA_AACDEC_CHANNELMODEcii+0x40c>

00002e10 <_Z22CAacDecoder_ParseFrameP20AAC_DECODER_INSTANCEPiciiS1_P21XA_AACDEC_CHANNELMODEcii+0x25c>:
    2e10:	7aa8           	l32i.n	a10, a10, 28
    2e12:	0aa8           	l32i.n	a10, a10, 0
    2e14:	aa9c           	beqz.n	a10, 2e32 <_Z22CAacDecoder_ParseFrameP20AAC_DECODER_INSTANCEPiciiS1_P21XA_AACDEC_CHANNELMODEcii+0x27e>
    2e16:	8722a2        	l32i	a10, a2, 0x21c
    2e19:	f4bd81        	l32r	a8, 110 (5810 <_Z15AdtsCrcStartRegP12CAdtsCrcInfoP7BIT_BUFi>)
    2e1c:	1121b2        	l32i	a11, a1, 68
    2e1f:	c0a0c2        	movi	a12, 192
    2e22:	0008e0        	callx8	a8
    2e25:	b1a9           	s32i.n	a10, a1, 44
    2e27:	070a66        	bnei	a10, -1, 2e32 <_Z22CAacDecoder_ParseFrameP20AAC_DECODER_INSTANCEPiciiS1_P21XA_AACDEC_CHANNELMODEcii+0x27e>
    2e2a:	004232        	s8i	a3, a2, 0
    2e2d:	090c           	movi.n	a9, 0
    2e2f:	000086        	j	2e35 <_Z22CAacDecoder_ParseFrameP20AAC_DECODER_INSTANCEPiciiS1_P21XA_AACDEC_CHANNELMODEcii+0x281>

00002e32 <_Z22CAacDecoder_ParseFrameP20AAC_DECODER_INSTANCEPiciiS1_P21XA_AACDEC_CHANNELMODEcii+0x27e>:
    2e32:	000292        	l8ui	a9, a2, 0

00002e35 <_Z22CAacDecoder_ParseFrameP20AAC_DECODER_INSTANCEPiciiS1_P21XA_AACDEC_CHANNELMODEcii+0x281>:
    2e35:	07e916        	beqz	a9, 2eb7 <_Z22CAacDecoder_ParseFrameP20AAC_DECODER_INSTANCEPiciiS1_P21XA_AACDEC_CHANNELMODEcii+0x303>
    2e38:	f4a981        	l32r	a8, dc (6f60 <initBitParser>)
    2e3b:	1121a2        	l32i	a10, a1, 68
    2e3e:	0008e0        	callx8	a8
    2e41:	f4a781        	l32r	a8, e0 (6f38 <TerminateBitParser_new>)
    2e44:	0abd           	mov.n	a11, a10
    2e46:	039f44        	ae_lbi	a9, 4
    2e49:	1121a2        	l32i	a10, a1, 68
    2e4c:	004192        	s8i	a9, a1, 0
    2e4f:	004bf4        	ae_dbi	a11, 4
    2e52:	0008e0        	callx8	a8
    2e55:	1221a2        	l32i	a10, a1, 72
    2e58:	a40aa2        	l8ui	a10, a10, 164
    2e5b:	ffa0d2        	movi	a13, 255
    2e5e:	eacc           	bnez.n	a10, 2e70 <_Z22CAacDecoder_ParseFrameP20AAC_DECODER_INSTANCEPiciiS1_P21XA_AACDEC_CHANNELMODEcii+0x2bc>
    2e60:	0001b2        	l8ui	a11, a1, 0
    2e63:	23bb00        	sext	a11, a11, 7
    2e66:	bb2a           	add.n	a11, a11, a2
    2e68:	02dbb2        	addmi	a11, a11, 0x200
    2e6b:	bb8b           	addi.n	a11, a11, 8
    2e6d:	8c4b62        	s8i	a6, a11, 140

00002e70 <_Z22CAacDecoder_ParseFrameP20AAC_DECODER_INSTANCEPiciiS1_P21XA_AACDEC_CHANNELMODEcii+0x2bc>:
    2e70:	0001c2        	l8ui	a12, a1, 0
    2e73:	23cc00        	sext	a12, a12, 7
    2e76:	cc2a           	add.n	a12, a12, a2
    2e78:	02dcc2        	addmi	a12, a12, 0x200
    2e7b:	cc8b           	addi.n	a12, a12, 8
    2e7d:	8c0cc2        	l8ui	a12, a12, 140
    2e80:	91c9           	s32i.n	a12, a1, 36
    2e82:	049cd7        	bne	a12, a13, 2e8a <_Z22CAacDecoder_ParseFrameP20AAC_DECODER_INSTANCEPiciiS1_P21XA_AACDEC_CHANNELMODEcii+0x2d6>

00002e85 <_Z22CAacDecoder_ParseFrameP20AAC_DECODER_INSTANCEPiciiS1_P21XA_AACDEC_CHANNELMODEcii+0x2d1>:
    2e85:	170c           	movi.n	a7, 1
    2e87:	004d46        	j	2fc0 <_Z22CAacDecoder_ParseFrameP20AAC_DECODER_INSTANCEPiciiS1_P21XA_AACDEC_CHANNELMODEcii+0x40c>

00002e8a <_Z22CAacDecoder_ParseFrameP20AAC_DECODER_INSTANCEPiciiS1_P21XA_AACDEC_CHANNELMODEcii+0x2d6>:
    2e8a:	1121a2        	l32i	a10, a1, 68
    2e8d:	f4a481        	l32r	a8, 120 (4304 <_Z26CSingleChannelElement_ReadP7BIT_BUFP22CAacDecoderChannelInfoP11CStreamInfoc>)
    2e90:	8c22f2        	l32i	a15, a2, 0x230
    2e93:	0cbd           	mov.n	a11, a12
    2e95:	1e0c           	movi.n	a14, 1
    2e97:	ffca           	add.n	a15, a15, a12
    2e99:	004fe2        	s8i	a14, a15, 0
    2e9c:	0001d2        	l8ui	a13, a1, 0
    2e9f:	8d22e2        	l32i	a14, a2, 0x234
    2ea2:	8822c2        	l32i	a12, a2, 0x220
    2ea5:	23dd00        	sext	a13, a13, 7
    2ea8:	a0bbe0        	addx4	a11, a11, a14
    2eab:	0bb8           	l32i.n	a11, a11, 0
    2ead:	0008e0        	callx8	a8
    2eb0:	0a7d           	mov.n	a7, a10
    2eb2:	1a8c           	beqz.n	a10, 2eb7 <_Z22CAacDecoder_ParseFrameP20AAC_DECODER_INSTANCEPiciiS1_P21XA_AACDEC_CHANNELMODEcii+0x303>
    2eb4:	004232        	s8i	a3, a2, 0
    2eb7:	122182        	l32i	a8, a1, 72
    2eba:	7888           	l32i.n	a8, a8, 28
    2ebc:	0888           	l32i.n	a8, a8, 0
    2ebe:	c88c           	beqz.n	a8, 2ece <_Z22CAacDecoder_ParseFrameP20AAC_DECODER_INSTANCEPiciiS1_P21XA_AACDEC_CHANNELMODEcii+0x31a>
    2ec0:	8722a2        	l32i	a10, a2, 0x21c
    2ec3:	f49581        	l32r	a8, 118 (57f4 <_Z13AdtsCrcEndRegP12CAdtsCrcInfoP7BIT_BUFi>)
    2ec6:	1121b2        	l32i	a11, a1, 68
    2ec9:	b1c8           	l32i.n	a12, a1, 44
    2ecb:	0008e0        	callx8	a8

00002ece <_Z22CAacDecoder_ParseFrameP20AAC_DECODER_INSTANCEPiciiS1_P21XA_AACDEC_CHANNELMODEcii+0x31a>:
    2ece:	000292        	l8ui	a9, a2, 0
    2ed1:	990b           	addi.n	a9, a9, -1
    2ed3:	0ec956        	bnez	a9, 2fc3 <_Z22CAacDecoder_ParseFrameP20AAC_DECODER_INSTANCEPiciiS1_P21XA_AACDEC_CHANNELMODEcii+0x40f>
    2ed6:	8722a2        	l32i	a10, a2, 0x21c
    2ed9:	0ab8           	l32i.n	a11, a10, 0
    2edb:	9b8c           	beqz.n	a11, 2ee8 <_Z22CAacDecoder_ParseFrameP20AAC_DECODER_INSTANCEPiciiS1_P21XA_AACDEC_CHANNELMODEcii+0x334>
    2edd:	f48e81        	l32r	a8, 118 (57f4 <_Z13AdtsCrcEndRegP12CAdtsCrcInfoP7BIT_BUFi>)
    2ee0:	1121b2        	l32i	a11, a1, 68
    2ee3:	b1c8           	l32i.n	a12, a1, 44
    2ee5:	0008e0        	callx8	a8

00002ee8 <_Z22CAacDecoder_ParseFrameP20AAC_DECODER_INSTANCEPiciiS1_P21XA_AACDEC_CHANNELMODEcii+0x334>:
    2ee8:	41a8           	l32i.n	a10, a1, 16
    2eea:	0001b2        	l8ui	a11, a1, 0
    2eed:	f48d81        	l32r	a8, 124 (5b54 <_Z25CProgramConfig_AddChannelP14CProgramConfigih>)
    2ef0:	0c0c           	movi.n	a12, 0
    2ef2:	23bb00        	sext	a11, a11, 7
    2ef5:	0008e0        	callx8	a8
    2ef8:	4acc           	bnez.n	a10, 2f00 <_Z22CAacDecoder_ParseFrameP20AAC_DECODER_INSTANCEPiciiS1_P21XA_AACDEC_CHANNELMODEcii+0x34c>
    2efa:	ab22c2        	l32i	a12, a2, 0x2ac
    2efd:	0c2c16        	beqz	a12, 2fc3 <_Z22CAacDecoder_ParseFrameP20AAC_DECODER_INSTANCEPiciiS1_P21XA_AACDEC_CHANNELMODEcii+0x40f>

00002f00 <_Z22CAacDecoder_ParseFrameP20AAC_DECODER_INSTANCEPiciiS1_P21XA_AACDEC_CHANNELMODEcii+0x34c>:
    2f00:	0002d2        	l8ui	a13, a2, 0
    2f03:	0bcd16        	beqz	a13, 2fc3 <_Z22CAacDecoder_ParseFrameP20AAC_DECODER_INSTANCEPiciiS1_P21XA_AACDEC_CHANNELMODEcii+0x40f>
    2f06:	8e22a2        	l32i	a10, a2, 0x238
    2f09:	91b8           	l32i.n	a11, a1, 36
    2f0b:	8d22c2        	l32i	a12, a2, 0x234
    2f0e:	f48681        	l32r	a8, 128 (4184 <_Z28CSingleChannelElement_DecodePP28CAacDecoderStaticChannelInfoPP22CAacDecoderChannelInfo>)
    2f11:	a0aba0        	addx4	a10, a11, a10
    2f14:	a0bbc0        	addx4	a11, a11, a12
    2f17:	0008e0        	callx8	a8
    2f1a:	961b           	addi.n	a9, a6, 1
    2f1c:	a1b8           	l32i.n	a11, a1, 40
    2f1e:	8c0c           	movi.n	a12, 8
    2f20:	11d6e0        	slli	a13, a6, 2
    2f23:	401d00        	ssl	a13
    2f26:	a1cc00        	sll	a12, a12
    2f29:	20bbc0        	or	a11, a11, a12
    2f2c:	a1b9           	s32i.n	a11, a1, 40

00002f2e <_Z22CAacDecoder_ParseFrameP20AAC_DECODER_INSTANCEPiciiS1_P21XA_AACDEC_CHANNELMODEcii+0x37a>:
    2f2e:	746090        	extui	a6, a9, 0, 8
    2f31:	002386        	j	2fc3 <_Z22CAacDecoder_ParseFrameP20AAC_DECODER_INSTANCEPiciiS1_P21XA_AACDEC_CHANNELMODEcii+0x40f>

00002f34 <_Z22CAacDecoder_ParseFrameP20AAC_DECODER_INSTANCEPiciiS1_P21XA_AACDEC_CHANNELMODEcii+0x380>:
    2f34:	770c           	movi.n	a7, 7
    2f36:	002186        	j	2fc0 <_Z22CAacDecoder_ParseFrameP20AAC_DECODER_INSTANCEPiciiS1_P21XA_AACDEC_CHANNELMODEcii+0x40c>

00002f39 <_Z22CAacDecoder_ParseFrameP20AAC_DECODER_INSTANCEPiciiS1_P21XA_AACDEC_CHANNELMODEcii+0x385>:
    2f39:	1221e2        	l32i	a14, a1, 72
    2f3c:	aee8           	l32i.n	a14, a14, 40
    2f3e:	f62b           	addi.n	a15, a6, 2
    2f40:	02aef7        	bge	a14, a15, 2f46 <_Z22CAacDecoder_ParseFrameP20AAC_DECODER_INSTANCEPiciiS1_P21XA_AACDEC_CHANNELMODEcii+0x392>
    2f43:	ffcf86        	j	2e85 <_Z22CAacDecoder_ParseFrameP20AAC_DECODER_INSTANCEPiciiS1_P21XA_AACDEC_CHANNELMODEcii+0x2d1>
    2f46:	1221f2        	l32i	a15, a1, 72
    2f49:	7ff8           	l32i.n	a15, a15, 28
    2f4b:	0ff8           	l32i.n	a15, a15, 0
    2f4d:	af9c           	beqz.n	a15, 2f6b <_Z22CAacDecoder_ParseFrameP20AAC_DECODER_INSTANCEPiciiS1_P21XA_AACDEC_CHANNELMODEcii+0x3b7>
    2f4f:	8722a2        	l32i	a10, a2, 0x21c
    2f52:	f46f81        	l32r	a8, 110 (5810 <_Z15AdtsCrcStartRegP12CAdtsCrcInfoP7BIT_BUFi>)
    2f55:	1121b2        	l32i	a11, a1, 68
    2f58:	c0a0c2        	movi	a12, 192
    2f5b:	0008e0        	callx8	a8
    2f5e:	b1a9           	s32i.n	a10, a1, 44
    2f60:	070a66        	bnei	a10, -1, 2f6b <_Z22CAacDecoder_ParseFrameP20AAC_DECODER_INSTANCEPiciiS1_P21XA_AACDEC_CHANNELMODEcii+0x3b7>
    2f63:	004232        	s8i	a3, a2, 0
    2f66:	090c           	movi.n	a9, 0
    2f68:	000086        	j	2f6e <_Z22CAacDecoder_ParseFrameP20AAC_DECODER_INSTANCEPiciiS1_P21XA_AACDEC_CHANNELMODEcii+0x3ba>

00002f6b <_Z22CAacDecoder_ParseFrameP20AAC_DECODER_INSTANCEPiciiS1_P21XA_AACDEC_CHANNELMODEcii+0x3b7>:
    2f6b:	000292        	l8ui	a9, a2, 0

00002f6e <_Z22CAacDecoder_ParseFrameP20AAC_DECODER_INSTANCEPiciiS1_P21XA_AACDEC_CHANNELMODEcii+0x3ba>:
    2f6e:	09f916        	beqz	a9, 3011 <_Z22CAacDecoder_ParseFrameP20AAC_DECODER_INSTANCEPiciiS1_P21XA_AACDEC_CHANNELMODEcii+0x45d>
    2f71:	f45a81        	l32r	a8, dc (6f60 <initBitParser>)
    2f74:	1121a2        	l32i	a10, a1, 68
    2f77:	0008e0        	callx8	a8
    2f7a:	f45981        	l32r	a8, e0 (6f38 <TerminateBitParser_new>)
    2f7d:	0abd           	mov.n	a11, a10
    2f7f:	039f44        	ae_lbi	a9, 4
    2f82:	1121a2        	l32i	a10, a1, 68
    2f85:	004192        	s8i	a9, a1, 0
    2f88:	004bf4        	ae_dbi	a11, 4
    2f8b:	0008e0        	callx8	a8
    2f8e:	1221a2        	l32i	a10, a1, 72
    2f91:	a40aa2        	l8ui	a10, a10, 164
    2f94:	ffa0d2        	movi	a13, 255
    2f97:	eacc           	bnez.n	a10, 2fa9 <_Z22CAacDecoder_ParseFrameP20AAC_DECODER_INSTANCEPiciiS1_P21XA_AACDEC_CHANNELMODEcii+0x3f5>
    2f99:	0001b2        	l8ui	a11, a1, 0
    2f9c:	23bb00        	sext	a11, a11, 7
    2f9f:	bb2a           	add.n	a11, a11, a2
    2fa1:	02dbb2        	addmi	a11, a11, 0x200
    2fa4:	bb8b           	addi.n	a11, a11, 8
    2fa6:	7c4b62        	s8i	a6, a11, 124

00002fa9 <_Z22CAacDecoder_ParseFrameP20AAC_DECODER_INSTANCEPiciiS1_P21XA_AACDEC_CHANNELMODEcii+0x3f5>:
    2fa9:	0001c2        	l8ui	a12, a1, 0
    2fac:	23cc00        	sext	a12, a12, 7
    2faf:	cc2a           	add.n	a12, a12, a2
    2fb1:	02dcc2        	addmi	a12, a12, 0x200
    2fb4:	cc8b           	addi.n	a12, a12, 8
    2fb6:	7c0cc2        	l8ui	a12, a12, 124
    2fb9:	91c9           	s32i.n	a12, a1, 36
    2fbb:	209cd7        	bne	a12, a13, 2fdf <_Z22CAacDecoder_ParseFrameP20AAC_DECODER_INSTANCEPiciiS1_P21XA_AACDEC_CHANNELMODEcii+0x42b>

00002fbe <_Z22CAacDecoder_ParseFrameP20AAC_DECODER_INSTANCEPiciiS1_P21XA_AACDEC_CHANNELMODEcii+0x40a>:
    2fbe:	170c           	movi.n	a7, 1

00002fc0 <_Z22CAacDecoder_ParseFrameP20AAC_DECODER_INSTANCEPiciiS1_P21XA_AACDEC_CHANNELMODEcii+0x40c>:
    2fc0:	004232        	s8i	a3, a2, 0

00002fc3 <_Z22CAacDecoder_ParseFrameP20AAC_DECODER_INSTANCEPiciiS1_P21XA_AACDEC_CHANNELMODEcii+0x40f>:
    2fc3:	1221d2        	l32i	a13, a1, 72
    2fc6:	7dd8           	l32i.n	a13, a13, 28
    2fc8:	0dd8           	l32i.n	a13, a13, 0
    2fca:	cbfd16        	beqz	a13, 2c8d <_Z22CAacDecoder_ParseFrameP20AAC_DECODER_INSTANCEPiciiS1_P21XA_AACDEC_CHANNELMODEcii+0xd9>
    2fcd:	61b8           	l32i.n	a11, a1, 24
    2fcf:	f45781        	l32r	a8, 12c (5710 <_Z15AdtsCrcCheckCrcP12CAdtsCrcInfot>)
    2fd2:	8722a2        	l32i	a10, a2, 0x21c
    2fd5:	9bbd           	ae_zext16	a11, a11
    2fd7:	0008e0        	callx8	a8
    2fda:	61a9           	s32i.n	a10, a1, 24
    2fdc:	ff2b46        	j	2c8d <_Z22CAacDecoder_ParseFrameP20AAC_DECODER_INSTANCEPiciiS1_P21XA_AACDEC_CHANNELMODEcii+0xd9>

00002fdf <_Z22CAacDecoder_ParseFrameP20AAC_DECODER_INSTANCEPiciiS1_P21XA_AACDEC_CHANNELMODEcii+0x42b>:
    2fdf:	1121a2        	l32i	a10, a1, 68
    2fe2:	01ed           	mov.n	a14, a1
    2fe4:	91b8           	l32i.n	a11, a1, 36
    2fe6:	8c22c2        	l32i	a12, a2, 0x230
    2fe9:	f45181        	l32r	a8, 130 (41b4 <_Z24CChannelPairElement_ReadP7BIT_BUFPP22CAacDecoderChannelInfoP11CStreamInfoP12CAdtsCrcInfoPc>)
    2fec:	290c           	movi.n	a9, 2
    2fee:	ccba           	add.n	a12, a12, a11
    2ff0:	004c92        	s8i	a9, a12, 0
    2ff3:	8d22f2        	l32i	a15, a2, 0x234
    2ff6:	8822c2        	l32i	a12, a2, 0x220
    2ff9:	8722d2        	l32i	a13, a2, 0x21c
    2ffc:	a0bbf0        	addx4	a11, a11, a15
    2fff:	0008e0        	callx8	a8
    3002:	0a7d           	mov.n	a7, a10
    3004:	4acc           	bnez.n	a10, 300c <_Z22CAacDecoder_ParseFrameP20AAC_DECODER_INSTANCEPiciiS1_P21XA_AACDEC_CHANNELMODEcii+0x458>
    3006:	000292        	l8ui	a9, a2, 0
    3009:	000106        	j	3011 <_Z22CAacDecoder_ParseFrameP20AAC_DECODER_INSTANCEPiciiS1_P21XA_AACDEC_CHANNELMODEcii+0x45d>

0000300c <_Z22CAacDecoder_ParseFrameP20AAC_DECODER_INSTANCEPiciiS1_P21XA_AACDEC_CHANNELMODEcii+0x458>:
    300c:	090c           	movi.n	a9, 0
    300e:	004232        	s8i	a3, a2, 0
    3011:	ae1966        	bnei	a9, 1, 2fc3 <_Z22CAacDecoder_ParseFrameP20AAC_DECODER_INSTANCEPiciiS1_P21XA_AACDEC_CHANNELMODEcii+0x40f>
    3014:	8722a2        	l32i	a10, a2, 0x21c
    3017:	0ad8           	l32i.n	a13, a10, 0
    3019:	9d8c           	beqz.n	a13, 3026 <_Z22CAacDecoder_ParseFrameP20AAC_DECODER_INSTANCEPiciiS1_P21XA_AACDEC_CHANNELMODEcii+0x472>
    301b:	f43f81        	l32r	a8, 118 (57f4 <_Z13AdtsCrcEndRegP12CAdtsCrcInfoP7BIT_BUFi>)
    301e:	1121b2        	l32i	a11, a1, 68
    3021:	b1c8           	l32i.n	a12, a1, 44
    3023:	0008e0        	callx8	a8

00003026 <_Z22CAacDecoder_ParseFrameP20AAC_DECODER_INSTANCEPiciiS1_P21XA_AACDEC_CHANNELMODEcii+0x472>:
    3026:	41a8           	l32i.n	a10, a1, 16
    3028:	0001b2        	l8ui	a11, a1, 0
    302b:	f43e81        	l32r	a8, 124 (5b54 <_Z25CProgramConfig_AddChannelP14CProgramConfigih>)
    302e:	1c0c           	movi.n	a12, 1
    3030:	23bb00        	sext	a11, a11, 7
    3033:	0008e0        	callx8	a8
    3036:	4acc           	bnez.n	a10, 303e <_Z22CAacDecoder_ParseFrameP20AAC_DECODER_INSTANCEPiciiS1_P21XA_AACDEC_CHANNELMODEcii+0x48a>
    3038:	ab22c2        	l32i	a12, a2, 0x2ac
    303b:	f84c16        	beqz	a12, 2fc3 <_Z22CAacDecoder_ParseFrameP20AAC_DECODER_INSTANCEPiciiS1_P21XA_AACDEC_CHANNELMODEcii+0x40f>

0000303e <_Z22CAacDecoder_ParseFrameP20AAC_DECODER_INSTANCEPiciiS1_P21XA_AACDEC_CHANNELMODEcii+0x48a>:
    303e:	0002d2        	l8ui	a13, a2, 0
    3041:	f7ed16        	beqz	a13, 2fc3 <_Z22CAacDecoder_ParseFrameP20AAC_DECODER_INSTANCEPiciiS1_P21XA_AACDEC_CHANNELMODEcii+0x40f>
    3044:	91a8           	l32i.n	a10, a1, 36
    3046:	f43b81        	l32r	a8, 134 (15e4 <_Z25CPns_InitInterChannelDataP22CAacDecoderChannelInfo>)
    3049:	8d22b2        	l32i	a11, a2, 0x234
    304c:	11cae0        	slli	a12, a10, 2
    304f:	31c9           	s32i.n	a12, a1, 12
    3051:	a0aab0        	addx4	a10, a10, a11
    3054:	0aa8           	l32i.n	a10, a10, 0
    3056:	0008e0        	callx8	a8
    3059:	31c8           	l32i.n	a12, a1, 12
    305b:	8e22a2        	l32i	a10, a2, 0x238
    305e:	8d22b2        	l32i	a11, a2, 0x234
    3061:	f43581        	l32r	a8, 138 (40b8 <_Z26CChannelPairElement_DecodePP28CAacDecoderStaticChannelInfoPP22CAacDecoderChannelInfo>)
    3064:	aaca           	add.n	a10, a10, a12
    3066:	bbca           	add.n	a11, a11, a12
    3068:	0008e0        	callx8	a8
    306b:	962b           	addi.n	a9, a6, 2
    306d:	a1b8           	l32i.n	a11, a1, 40
    306f:	2c2c           	movi.n	a12, 34
    3071:	11d6e0        	slli	a13, a6, 2
    3074:	401d00        	ssl	a13
    3077:	a1cc00        	sll	a12, a12
    307a:	20bbc0        	or	a11, a11, a12
    307d:	a1b9           	s32i.n	a11, a1, 40
    307f:	ffaac6        	j	2f2e <_Z22CAacDecoder_ParseFrameP20AAC_DECODER_INSTANCEPiciiS1_P21XA_AACDEC_CHANNELMODEcii+0x37a>

00003082 <_Z22CAacDecoder_ParseFrameP20AAC_DECODER_INSTANCEPiciiS1_P21XA_AACDEC_CHANNELMODEcii+0x4ce>:
    3082:	1221e2        	l32i	a14, a1, 72
    3085:	aee8           	l32i.n	a14, a14, 40
    3087:	1221f2        	l32i	a15, a1, 72
    308a:	0226e7        	blt	a6, a14, 3090 <_Z22CAacDecoder_ParseFrameP20AAC_DECODER_INSTANCEPiciiS1_P21XA_AACDEC_CHANNELMODEcii+0x4dc>
    308d:	ffcb46        	j	2fbe <_Z22CAacDecoder_ParseFrameP20AAC_DECODER_INSTANCEPiciiS1_P21XA_AACDEC_CHANNELMODEcii+0x40a>
    3090:	7ff8           	l32i.n	a15, a15, 28
    3092:	0ff8           	l32i.n	a15, a15, 0
    3094:	af9c           	beqz.n	a15, 30b2 <_Z22CAacDecoder_ParseFrameP20AAC_DECODER_INSTANCEPiciiS1_P21XA_AACDEC_CHANNELMODEcii+0x4fe>
    3096:	8722a2        	l32i	a10, a2, 0x21c
    3099:	f41d81        	l32r	a8, 110 (5810 <_Z15AdtsCrcStartRegP12CAdtsCrcInfoP7BIT_BUFi>)
    309c:	1121b2        	l32i	a11, a1, 68
    309f:	c0a0c2        	movi	a12, 192
    30a2:	0008e0        	callx8	a8
    30a5:	b1a9           	s32i.n	a10, a1, 44
    30a7:	070a66        	bnei	a10, -1, 30b2 <_Z22CAacDecoder_ParseFrameP20AAC_DECODER_INSTANCEPiciiS1_P21XA_AACDEC_CHANNELMODEcii+0x4fe>
    30aa:	090c           	movi.n	a9, 0
    30ac:	004232        	s8i	a3, a2, 0
    30af:	000086        	j	30b5 <_Z22CAacDecoder_ParseFrameP20AAC_DECODER_INSTANCEPiciiS1_P21XA_AACDEC_CHANNELMODEcii+0x501>

000030b2 <_Z22CAacDecoder_ParseFrameP20AAC_DECODER_INSTANCEPiciiS1_P21XA_AACDEC_CHANNELMODEcii+0x4fe>:
    30b2:	000292        	l8ui	a9, a2, 0

000030b5 <_Z22CAacDecoder_ParseFrameP20AAC_DECODER_INSTANCEPiciiS1_P21XA_AACDEC_CHANNELMODEcii+0x501>:
    30b5:	084916        	beqz	a9, 313d <_Z22CAacDecoder_ParseFrameP20AAC_DECODER_INSTANCEPiciiS1_P21XA_AACDEC_CHANNELMODEcii+0x589>
    30b8:	f40981        	l32r	a8, dc (6f60 <initBitParser>)
    30bb:	1121a2        	l32i	a10, a1, 68
    30be:	0008e0        	callx8	a8
    30c1:	f40781        	l32r	a8, e0 (6f38 <TerminateBitParser_new>)
    30c4:	0abd           	mov.n	a11, a10
    30c6:	039f44        	ae_lbi	a9, 4
    30c9:	1121a2        	l32i	a10, a1, 68
    30cc:	004192        	s8i	a9, a1, 0
    30cf:	004bf4        	ae_dbi	a11, 4
    30d2:	0008e0        	callx8	a8
    30d5:	1221a2        	l32i	a10, a1, 72
    30d8:	a40aa2        	l8ui	a10, a10, 164
