
Build/lib/pisplit_ecnr_position_independent.splitload.lib:     file format elf32-xtensa-le


Disassembly of section .text:

00000000 <_init-0x668>:
       0:	0000ca90 0000ac80 00002f30 0000ac9c     ........0/......
      10:	00002fec 0000acb4 00003a40 0000accc     ./......@:......
      20:	00004470 0000ace8 00006a94 0000acfc     pD.......j......
      30:	000043bc 0000ad14 00006790 0000ad28     .C.......g..(...
      40:	00004418 0000ad40 000044e4 0000ad60     .D..@....D..`...
      50:	000061e4 0000ad7c 00009bd4 0000ad8c     .a..|...........
      60:	00002f38 0000ada8 0000454c 0000c130     8/......LE..0...
      70:	0000bb75 00001930 00000808 0000ca94     u...0...........
      80:	89442379 0000c500 0000c200 7fffffff     y#D.............
      90:	0000c270 80000000 00008000 00009dc8     p...............
      a0:	0000ca9c 00009de0 000a0000 dacccccd     ................
      b0:	00009e7c fc000000 c1600000 00009d34     |.........`.4...
      c0:	00b33333 ff4ccccd 00800000 00004000     33....L......@..
      d0:	00005b33 00000988 7fff0000 7e1401ec     3[.............~
      e0:	7fe70019 00004920 00009bf0 000008a0     .... I..........
      f0:	0000c4e0 33334ccd 00147ae1 00000900     .....L33.z......
     100:	000022f8 00078000 00010000 002ccccd     ."............,.
     110:	00466666 00533333 005851ec 005ae148     ffF.33S..QX.H.Z.
     120:	005ccccd 00600000 fffe0000 0000828f     ..\...`.........
     130:	00030000 00020000 0000c148 004ccccd     ........H.....L.
     140:	006ccccd 0059999a 00733333 00003fff     ..l...Y.33s..?..
     150:	00000fc4 0070a3d7 0039999a 005d70a4     ......p...9..p].
     160:	00014000 007e147b 00666666 000ccccd     .@..{.~.fff.....
     170:	00100000 007fbe77 000051fc 000051b8     ....w....Q...Q..
     180:	0000145c 000aaaab 00009eb0 000051e0     \............Q..
     190:	02000000 01000000 00000860 05000000     ........`.......
     1a0:	00002188 0c000000 00435e51 0099999a     .!......Q^C.....
     1b0:	00cccccd 0159999a 13ffffff 0a8f5c28     ......Y.....(\..
     1c0:	2eb851ec 1f000000 0bffffff 005a8200     .Q............Z.
     1d0:	cccd0000 00400000 199a0000 33330000     ......@.......33
     1e0:	3d710000 e6660000 f3330000 c28f0000     ..q=..f...3.....
     1f0:	0ccd0000 00002658 00002640 00001928     ....X&..@&..(...
     200:	00007fff 0000fff7 00200000 002aaa00     .......... ...*.
     210:	0000c170 0000c174 00080000 00008c40     p...t.......@...
     220:	00008b28 000026d0 0000c188 00002838     (....&......8(..
     230:	00002760 00006af8 00009adc 00002fb8     `'...j......./..
     240:	00001834 00002f64 00002f78 00002440     4...d/..x/..@$..
     250:	00006824 00002f8c 0000ca98 00002000     $h.../....... ..
     260:	000060c8 00004654 0000c38c 0000c1a0     .`..TF..........
     270:	0000c39c 0000c3dc 0000c420 0000c3a0     ........ .......
     280:	00001a26 00001a2a 00001a24 00001a28     &...*...$...(...
     290:	007fffff 00011111 0000317c 00001830     ........|1..0...
     2a0:	000033d8 000031b8 00003484 000035fc     .3...1...4...5..
     2b0:	00003784 00002924 00002bd8 000037b8     .7..$)...+...7..
     2c0:	00004a10 00004d60 000038cc 0000503c     .J..`M...8..<P..
     2d0:	00004eec 0000544c 000039f4 000055f8     .N..LT...9...U..
     2e0:	00005968 00005b58 00003558 00003314     hY..X[..X5...3..
     2f0:	000038e0 00002ee4 000023f8 00006864     .8.......#..dh..
     300:	0000397c 00003900 00003424 000052f4     |9...9..$4...R..
     310:	00007990 00006ad4 000043a8 000067d4     .y...j...C...g..
     320:	10000000 00001000 000045f0 0000c18c     .........E......
     330:	40000000 0e390000 3eb80000 18000000     ...@..9....>....
     340:	0d330000 00006000 00001770 00004600     ..3..`..p....F..
     350:	00004644 0000461c 00006bd8 0000fffe     DF...F...k......
     360:	ffff8000 ffff0000 000ccccc 00393e4b     ............K>9.
     370:	00155555 00175e97 00004560 00004ebc     UU...^..`E...N..
     380:	000049b0 00004950 3fff0000 c0010000     .I..PI.....?....
     390:	0000c1a8 0000c198 00006ccd 0000c19c     .........l......
     3a0:	00007efa 00000fff 00007e00 00004666     .~.......~..fF..
     3b0:	00003b00 00004a3d 000043d7 00007fae     .;..=J...C......
     3c0:	0000c190 00000800 000055aa 00006a90     .........U...j..
     3d0:	00005f14 00006a80 00005a5a 00005fec     ._...j..ZZ..._..
     3e0:	00004470 00007f80 0000b610 0000b7f0     pD..............
     3f0:	0000ba00 007fff00 0000af50 0000add0     ........P.......
     400:	0000b160 0000b3b0 0000b1f0 0000b5c0     `...............
     410:	00000920 00006360 000062e0 00006310      ...`c...b...c..
     420:	0000c760 ffffb800 b8000000 000008b0     `...............
     430:	0000c540 00006370 00009b68 00006514     @...pc..h....e..
     440:	00006a6c 00007b24 00007da4 00007f1c     lj..${...}......
     450:	0000806c 00008190 000084b0 00008808     l...............
     460:	00001af0 00001b48 00000720 0000c980     ....H... .......
     470:	000068f0 00006b24 00038e39 0000bb32     .h..$k..9...2...
     480:	00009488 7f5c00a4 7ff00010 0000979c     ......\.........
     490:	20000000 0000c402 00007af8 0000c4f2     ... .....z......
     4a0:	2666599a 46666666 1e666666 30000000     .Yf&fffFfff....0
     4b0:	7ccd0333 00007000 23333333 40004000     3..|.p..333#.@.@
     4c0:	7eb80148 00333333 1ccccccd 1b333333     H..~333.....333.
     4d0:	00005000 599a2666 00266666 00001999     .P..f&.Yff&.....
     4e0:	6666199a 00003334 007ccccd 7fbe0042     ..ff43....|.B...
     4f0:	7f1b00e5 00006b78 04000000 034ccccd     ....xk........L.
     500:	fe800000 003fffff ffa66666 50000000     ......?.ff.....P
     510:	0000c400 ff800000 0059999b 04cccccd     ..........Y.....
     520:	01eb851f 0000e666 00500000 6ccd1333     ....f.....P.3..l
     530:	00007c28 00007998 0000e000 00007666     (|...y......fv..
     540:	5999999a 799a0666 0000228e 00000999     ...Yf..y."......
     550:	0000c1e0 00480000 00006ca8 75c30a3d     ......H..l..=..u
     560:	0000bb34 0000bb38 0000c530 0000c1e8     4...8...0.......
     570:	0000c1ec 000e38e4 0000c520 00124925     .....8.. ...%I..
     580:	000009e0 00000fb4 00008248 00008264     ........H...d...
     590:	00008360 80000001 00005a82 0000bd24     `........Z..$...
     5a0:	00008e64 0000ba2c 00008cd8 00008c60     d...,.......`...
     5b0:	00008e84 00009068 00009094 000090c4     ....h...........
     5c0:	00009120 000090f4 0000ba30 00009194      .......0.......
     5d0:	00009168 00009398 00009444 00003333     h.......D...33..
     5e0:	0000599a ffe66666 003eb852 00333334     .Y..ff..R.>.433.
     5f0:	00266667 0019999a ffc147ae ffcccccc     gf&......G......
     600:	fff33333 ffd99999 ffe00000 ffc00000     33..............
     610:	06400000 016db22c 00028f5d 11000000     ..@.,.m.].......
     620:	0effffff 077fffff 0021eb86 15000000     ..........!.....
     630:	00666667 cb333333 0000977c fb333333     gff.333.|...333.
     640:	f4000000 04cccccc 00009550 13000000     ........P.......
     650:	00009640 000096b8 0399999a 02999999     @...............
     660:	00009a98 7ff00000                       ........

00000668 <_init>:
     668:	008136        	entry	a1, 64
     66b:	f01d           	retw.n

0000066d <_init+0x5>:
     66d:	000000                                        ...

00000670 <_start>:
     670:	004136        	entry	a1, 32
     673:	fe64a1        	l32r	a10, 4 (ac80 <_DYNAMIC+0xba0>)
     676:	fe6231        	l32r	a3, 0 (ca90 <__bss_start>)
     679:	0288           	l32i.n	a8, a2, 0
     67b:	fe63b1        	l32r	a11, 8 (2f30 <get_aec_nr_memsize>)
     67e:	0389           	s32i.n	a8, a3, 0
     680:	0008e0        	callx8	a8
     683:	0388           	l32i.n	a8, a3, 0
     685:	fe61a1        	l32r	a10, c (ac9c <_DYNAMIC+0xbbc>)
     688:	fe62b1        	l32r	a11, 10 (2fec <Voice_WB_TX_Init>)
     68b:	0008e0        	callx8	a8
     68e:	002382        	l32i	a8, a3, 0
     691:	fe60a1        	l32r	a10, 14 (acb4 <_DYNAMIC+0xbd4>)
     694:	fe61b1        	l32r	a11, 18 (3a40 <Voice_WB_TX_Prcs>)
     697:	0008e0        	callx8	a8
     69a:	0388           	l32i.n	a8, a3, 0
     69c:	fe60a1        	l32r	a10, 1c (accc <_DYNAMIC+0xbec>)
     69f:	fe60b1        	l32r	a11, 20 (4470 <EC_REF_GAIN_READBACK>)
     6a2:	0008e0        	callx8	a8
     6a5:	0388           	l32i.n	a8, a3, 0
     6a7:	fe5fa1        	l32r	a10, 24 (ace8 <_DYNAMIC+0xc08>)
     6aa:	fe5fb1        	l32r	a11, 28 (6a94 <NB_RX_NR_init>)
     6ad:	0008e0        	callx8	a8
     6b0:	0388           	l32i.n	a8, a3, 0
     6b2:	fe5ea1        	l32r	a10, 2c (acfc <_DYNAMIC+0xc1c>)
     6b5:	fe5eb1        	l32r	a11, 30 (43bc <Voice_NB_RX_Prcs>)
     6b8:	0008e0        	callx8	a8
     6bb:	0388           	l32i.n	a8, a3, 0
     6bd:	fe5da1        	l32r	a10, 34 (ad14 <_DYNAMIC+0xc34>)
     6c0:	fe5eb1        	l32r	a11, 38 (6790 <WB_RX_NR_init>)
     6c3:	0008e0        	callx8	a8
     6c6:	002382        	l32i	a8, a3, 0
     6c9:	fe5ca1        	l32r	a10, 3c (ad28 <_DYNAMIC+0xc48>)
     6cc:	fe5db1        	l32r	a11, 40 (4418 <Voice_WB_RX_Prcs>)
     6cf:	0008e0        	callx8	a8
     6d2:	0388           	l32i.n	a8, a3, 0
     6d4:	fe5ca1        	l32r	a10, 44 (ad40 <_DYNAMIC+0xc60>)
     6d7:	fe5cb1        	l32r	a11, 48 (44e4 <EC_PreLim_Coef_READBACK>)
     6da:	0008e0        	callx8	a8
     6dd:	0388           	l32i.n	a8, a3, 0
     6df:	fe5ba1        	l32r	a10, 4c (ad60 <_DYNAMIC+0xc80>)
     6e2:	fe5bb1        	l32r	a11, 50 (61e4 <AEC_NR_Write_FLASH>)
     6e5:	0008e0        	callx8	a8
     6e8:	0388           	l32i.n	a8, a3, 0
     6ea:	fe5aa1        	l32r	a10, 54 (ad7c <_DYNAMIC+0xc9c>)
     6ed:	fe5ab1        	l32r	a11, 58 (9bd4 <EQ_update>)
     6f0:	0008e0        	callx8	a8
     6f3:	0388           	l32i.n	a8, a3, 0
     6f5:	fe59a1        	l32r	a10, 5c (ad8c <_DYNAMIC+0xcac>)
     6f8:	fe5ab1        	l32r	a11, 60 (2f38 <get_txnr_pitch_last>)
     6fb:	0008e0        	callx8	a8
     6fe:	0388           	l32i.n	a8, a3, 0
     700:	fe59a1        	l32r	a10, 64 (ada8 <_DYNAMIC+0xcc8>)
     703:	fe59b1        	l32r	a11, 68 (454c <DaulMIC_power_Coef_READBACK>)
     706:	0008e0        	callx8	a8
     709:	fe5821        	l32r	a2, 6c (c130 <export_parameter_array>)
     70c:	f01d           	retw.n

0000070e <_start+0x9e>:
	...

00000710 <my_rand>:
     710:	004136        	entry	a1, 32
     713:	fe5731        	l32r	a3, 70 (bb75 <fftorder_512_12b+0x45>)
     716:	d12230        	mul16s	a2, a2, a3
     719:	822d           	ae_sext16	a2, a2
     71b:	f01d           	retw.n

0000071d <my_rand+0xd>:
     71d:	000000                                        ...

00000720 <comfort_noise_gen_wb>:
     720:	008136        	entry	a1, 64
     723:	1129           	s32i.n	a2, a1, 4
     725:	fcc3a2        	addi	a10, a3, -4
     728:	09d292        	addmi	a9, a2, 0x900
     72b:	fc20a1599e 	{ l16si	a9, a9, 42; ae_zerop48	aep0 }
     730:	468a14        	ae_sp16x2f.iu	aep0, a10, 4
     733:	468a14        	ae_sp16x2f.iu	aep0, a10, 4
     736:	468a14        	ae_sp16x2f.iu	aep0, a10, 4
     739:	5a2b           	addi.n	a5, a10, 2
     73b:	0199           	s32i.n	a9, a1, 0
     73d:	030c           	movi.n	a3, 0
     73f:	fe4d71        	l32r	a7, 74 (1930 <Pitch_by_Corel+0x4d4>)
     742:	024d           	mov.n	a4, a2
     744:	028d           	mov.n	a8, a2
     746:	0ed862        	addmi	a6, a8, 0xe00
     749:	f4c662        	addi	a6, a6, -12
     74c:	04d222        	addmi	a2, a2, 0x400
     74f:	11d882        	addmi	a8, a8, 0x1100
     752:	4c28b2        	l32i	a11, a8, 0x130
     755:	360b34        	ae_cvtq48a32s	aeq0, a11
     758:	f9420b822e 	{ addi	a2, a2, -72; ae_truncp24q48x2	aep2, aeq0, aeq0 }
     75d:	f88803888e 	{ addi	a8, a8, 56; ae_mulfq32sp24s.l	aeq0, aeq0, aep2 }
     762:	026182        	s32i	a8, a1, 8
     765:	f84277212f 	{ ae_sp24x2s.i	aep2, a1, 16; ae_truncp24q48x2	aep1, aeq0, aeq0 }
     76a:	561134        	ae_sp24x2s.i	aep1, a1, 24

0000076d <comfort_noise_gen_wb+0x4d>:
     76d:	fe4281        	l32r	a8, 78 (808 <HIFI_sqrt>)
     770:	01a8           	l32i.n	a10, a1, 0
     772:	6824b2        	l32i	a11, a4, 0x1a0
     775:	0008e0        	callx8	a8
     778:	fe41d1        	l32r	a13, 7c (ca94 <p_ecnr_mem>)
     77b:	444b           	addi.n	a4, a4, 4
     77d:	2198           	l32i.n	a9, a1, 8
     77f:	0de8           	l32i.n	a14, a13, 0
     781:	0bfd           	mov.n	a15, a11
     783:	fe3fb1        	l32r	a11, 80 (89442379 <_end+0x894358d9>)
     786:	ee7a           	add.n	a14, a14, a7
     788:	7f9ec2        	l16si	a12, a14, 254
     78b:	360f34        	ae_cvtq48a32s	aeq0, a15
     78e:	819992        	l16si	a9, a9, 0x102
     791:	82bcb0        	mull	a11, a12, a11
     794:	7f5eb2        	s16i	a11, a14, 254
     797:	409614        	ae_lp16f.iu	aep1, a6, 2
     79a:	1f2397        	blt	a3, a9, 7bd <comfort_noise_gen_wb+0x9d>
     79d:	11f8           	l32i.n	a15, a1, 4
     79f:	350ff2        	l8ui	a15, a15, 53
     7a2:	fe3881        	l32r	a8, 84 (c500 <wb_sb_ptn>)
     7a5:	14a3f7        	bge	a3, a15, 7bd <comfort_noise_gen_wb+0x9d>
     7a8:	089882        	l16si	a8, a8, 16
     7ab:	543124        	ae_lp24x2.i	aep3, a1, 16
     7ae:	544134        	ae_lp24x2.i	aep4, a1, 24
     7b1:	05a387        	bge	a3, a8, 7ba <comfort_noise_gen_wb+0x9a>
     7b4:	083524        	ae_mulfq32sp24s.l	aeq0, aeq0, aep3
     7b7:	000086        	j	7bd <comfort_noise_gen_wb+0x9d>

000007ba <comfort_noise_gen_wb+0x9a>:
     7ba:	084524        	ae_mulfq32sp24s.l	aeq0, aeq0, aep4
     7bd:	fe2c91        	l32r	a9, 70 (bb75 <fftorder_512_12b+0x45>)
     7c0:	f03d           	nop.n
     7c2:	829c90        	mull	a9, a12, a9
     7c5:	3079b4        	ae_cvtp24a16x2.ll	aep7, a9, a11
     7c8:	037a14        	ae_mulfq32sp16s.l	aeq1, aeq0, aep7
     7cb:	03fa04        	ae_mulfq32sp16s.h	aeq3, aeq0, aep7
     7ce:	031a54        	ae_mulfq32sp16s.l	aeq1, aeq1, aep1
     7d1:	039ad4        	ae_mulfq32sp16s.l	aeq3, aeq3, aep1
     7d4:	fc24fe9a8f 	{ ae_slaasq56s	aeq2, aeq1, a10; nop }
     7d9:	fc24feba4f 	{ ae_slaasq56s	aeq1, aeq3, a10; nop }
     7de:	fbf380133e 	{ addi	a3, a3, 1; ae_roundsp16q48sym	aep6, aeq2 }
     7e3:	faebf2e51f 	{ ae_sp16f.l.iu	aep6, a5, 2; ae_roundsp16q48sym	aep5, aeq1 }
     7e8:	42d514        	ae_sp16f.l.iu	aep5, a5, 2
     7eb:	021427        	beq	a4, a2, 7f1 <comfort_noise_gen_wb+0xd1>
     7ee:	ffdec6        	j	76d <comfort_noise_gen_wb+0x4d>
     7f1:	fec582        	addi	a8, a5, -2
     7f4:	fc20800f9f 	{ movi	a9, 15; ae_zerop48	aep0 }
     7f9:	028976        	loop	a9, 7ff <comfort_noise_gen_wb+0xdf>
     7fc:	468814        	ae_sp16x2f.iu	aep0, a8, 4

000007ff <comfort_noise_gen_wb+0xdf>:
     7ff:	f01d           	retw.n

00000801 <comfort_noise_gen_wb+0xe1>:
     801:	00000000 36000000                                .......

00000808 <HIFI_sqrt>:
     808:	006136        	entry	a1, 48
     80b:	070c           	movi.n	a7, 0
     80d:	4913a6        	blti	a3, 1, 85a <HIFI_sqrt+0x52>
     810:	fe1e51        	l32r	a5, 88 (c200 <TABLE_SQRT>)
     813:	40e380        	nsa	a8, a3
     816:	401800        	ssl	a8
     819:	c02280        	sub	a2, a2, a8
     81c:	a16300        	sll	a6, a3
     81f:	043020        	extui	a3, a2, 0, 1
     822:	400300        	ssr	a3
     825:	b16060        	sra	a6, a6
     828:	416960        	srli	a6, a6, 9
     82b:	314060        	srai	a4, a6, 16
     82e:	f0c442        	addi	a4, a4, -16
     831:	534470        	max	a4, a4, a7
     834:	904450        	addx2	a4, a4, a5
     837:	245d           	ae_l16si.n	a5, a4, 0
     839:	344d           	ae_l16si.n	a4, a4, 2
     83b:	300664        	ae_cvtp24a16x2.ll	aep0, a6, a6
     83e:	c04450        	sub	a4, a4, a5
     841:	115500        	slli	a5, a5, 16
     844:	114400        	slli	a4, a4, 16
     847:	364434        	ae_cvtq48a32s	aeq1, a4
     84a:	360534        	ae_cvtq48a32s	aeq0, a5
     84d:	d4e110223f 	{ add	a2, a2, a3; ae_mulaq32sp16u.l	aeq0, aeq1, aep0 }
     852:	212120        	srai	a2, a2, 1
     855:	368304        	ae_trunca32q48	a3, aeq0
     858:	f01d           	retw.n

0000085a <HIFI_sqrt+0x52>:
     85a:	072d           	mov.n	a2, a7
     85c:	023d           	mov.n	a3, a2
     85e:	f01d           	retw.n

00000860 <Log2_norm>:
     860:	004136        	entry	a1, 32
     863:	3212a6        	blti	a2, 1, 899 <Log2_norm+0x39>
     866:	046c           	movi.n	a4, -32
     868:	2da437        	bge	a4, a3, 899 <Log2_norm+0x39>
     86b:	052c           	movi.n	a5, 32
     86d:	04a537        	bge	a5, a3, 875 <Log2_norm+0x15>
     870:	fe0721        	l32r	a2, 8c (7fffffff <_end+0x7fff355f>)
     873:	f01d           	retw.n

00000875 <Log2_norm+0x15>:
     875:	fe0641        	l32r	a4, 90 (c270 <TABLE_LOG2_1530>)
     878:	558820        	extui	a8, a2, 24, 6
     87b:	1188e0        	slli	a8, a8, 2
     87e:	603484        	ae_lq32f.xu	aeq0, a4, a8
     881:	604414        	ae_lq32f.i	aeq1, a4, 4
     884:	f92ae2022f 	{ ae_movpa24x2	aep0, a2, a2; ae_subq56	aeq1, aeq1, aeq0 }
     889:	030174        	ae_mulaq32sp16u.l	aeq0, aeq1, aep0
     88c:	368204        	ae_trunca32q48	a2, aeq0
     88f:	014360        	slli	a4, a3, 26
     892:	212520        	srai	a2, a2, 5
     895:	224a           	add.n	a2, a2, a4
     897:	f01d           	retw.n

00000899 <Log2_norm+0x39>:
     899:	fdfe21        	l32r	a2, 94 (80000000 <_end+0x7fff3560>)
     89c:	f01d           	retw.n

0000089e <Log2_norm+0x3e>:
	...

000008a0 <COMPL_S16x2_fun>:
     8a0:	004136        	entry	a1, 32
     8a3:	fdfd31        	l32r	a3, 98 (8000 <NR_vad2+0xe4>)
     8a6:	c03320        	sub	a3, a3, a2
     8a9:	113300        	slli	a3, a3, 16
     8ac:	223a           	add.n	a2, a2, a3
     8ae:	f01d           	retw.n

000008b0 <PD_INIT>:
     8b0:	004136        	entry	a1, 32
     8b3:	fdf241        	l32r	a4, 7c (ca94 <p_ecnr_mem>)
     8b6:	0b0c           	movi.n	a11, 0
     8b8:	0438           	l32i.n	a3, a4, 0
     8ba:	f0a2c2        	movi	a12, 0x2f0
     8bd:	fdf781        	l32r	a8, 9c (9dc8 <xt_memset>)
     8c0:	52d332        	addmi	a3, a3, 0x5200
     8c3:	b8c332        	addi	a3, a3, -72
     8c6:	03ad           	mov.n	a10, a3
     8c8:	0008e0        	callx8	a8
     8cb:	fdf551        	l32r	a5, a0 (ca9c <aec_nr_para>)
     8ce:	03ad           	mov.n	a10, a3
     8d0:	05b8           	l32i.n	a11, a5, 0
     8d2:	7c0c           	movi.n	a12, 7
     8d4:	fdf481        	l32r	a8, a4 (9de0 <xt_memcpy>)
     8d7:	01dbb2        	addmi	a11, a11, 0x100
     8da:	a4cbb2        	addi	a11, a11, -92
     8dd:	0008e0        	callx8	a8
     8e0:	03d3c2        	addmi	a12, a3, 0x300
     8e3:	01d3d2        	addmi	a13, a3, 0x100
     8e6:	05e8           	l32i.n	a14, a5, 0
     8e8:	05d392        	addmi	a9, a3, 0x500
     8eb:	998b           	addi.n	a9, a9, 8
     8ed:	04d352        	addmi	a5, a3, 0x400
     8f0:	50c582        	addi	a8, a5, 80
     8f3:	a8c5f2        	addi	a15, a5, -88
     8f6:	c79ea2        	l16si	a10, a14, 0x18e
     8f9:	c89eb2        	l16si	a11, a14, 0x190
     8fc:	0853b2        	s16i	a11, a3, 16
     8ff:	0753a2        	s16i	a10, a3, 14
     902:	38cdb2        	addi	a11, a13, 56
     905:	02d3a2        	addmi	a10, a3, 0x200
     908:	58cdd2        	addi	a13, a13, 88
     90b:	58caa2        	addi	a10, a10, 88
     90e:	f66bf2        	s32i	a15, a11, 0x3d8
     911:	f56bc2        	s32i	a12, a11, 0x3d4
     914:	f76b82        	s32i	a8, a11, 0x3dc
     917:	f26b92        	s32i	a9, a11, 0x3c8
     91a:	180c           	movi.n	a8, 1
     91c:	f46ba2        	s32i	a10, a11, 0x3d0
     91f:	fde291        	l32r	a9, a8 (a0000 <_end+0x93560>)
     922:	8a2c           	movi.n	a10, 40
     924:	956392        	s32i	a9, a3, 0x254
     927:	556392        	s32i	a9, a3, 0x154
     92a:	8c5582        	s16i	a8, a5, 0x118
     92d:	fdd791        	l32r	a9, 8c (7fffffff <_end+0x7fff355f>)
     930:	68c552        	addi	a5, a5, 104
     933:	0d8d           	mov.n	a8, a13
     935:	028a76        	loop	a10, 93b <PD_INIT+0x8b>
     938:	09e894        	ae_s32ip	a9, a8, 4

0000093b <PD_INIT+0x8b>:
     93b:	3c0c           	movi.n	a12, 3
     93d:	fdd981        	l32r	a8, a4 (9de0 <xt_memcpy>)
     940:	779e92        	l16si	a9, a14, 238
     943:	769ef2        	l16si	a15, a14, 236
     946:	0478           	l32i.n	a7, a4, 0
     948:	2765d2        	s32i	a13, a5, 156
     94b:	01deb2        	addmi	a11, a14, 0x100
     94e:	06d3a2        	addmi	a10, a3, 0x600
     951:	d0caa2        	addi	a10, a10, -48
     954:	f2cbb2        	addi	a11, a11, -14
     957:	0d0c           	movi.n	a13, 0
     959:	29d762        	addmi	a6, a7, 0x2900
     95c:	c0c662        	addi	a6, a6, -64
     95f:	19d772        	addmi	a7, a7, 0x1900
     962:	9b57d2        	s16i	a13, a7, 0x136
     965:	5a6722        	s32i	a2, a7, 0x168
     968:	5b6762        	s32i	a6, a7, 0x16c
     96b:	b055f2        	s16i	a15, a5, 0x160
     96e:	b15592        	s16i	a9, a5, 0x162
     971:	0008e0        	callx8	a8
     974:	0cd282        	addmi	a8, a2, 0xc00
     977:	08d292        	addmi	a9, a2, 0x800
     97a:	566592        	s32i	a9, a5, 0x158
     97d:	b8c882        	addi	a8, a8, -72
     980:	556582        	s32i	a8, a5, 0x154
     983:	f01d           	retw.n

00000985 <PD_INIT+0xd5>:
     985:	000000                                        ...

00000988 <wind_noise_alpha>:
     988:	004136        	entry	a1, 32
     98b:	fdc371        	l32r	a7, 98 (8000 <NR_vad2+0xe4>)
     98e:	02ad           	mov.n	a10, a2
     990:	039d           	mov.n	a9, a3
     992:	952d           	ae_zext16	a2, a5
     994:	943d           	ae_zext16	a3, a4
     996:	823630        	mull	a3, a6, a3
     999:	822620        	mull	a2, a6, a2
     99c:	f43e30        	extui	a3, a3, 14, 16
     99f:	f42e20        	extui	a2, a2, 14, 16
     9a2:	c08730        	sub	a8, a7, a3
     9a5:	c07720        	sub	a7, a7, a2
     9a8:	118800        	slli	a8, a8, 16
     9ab:	338a           	add.n	a3, a3, a8
     9ad:	117700        	slli	a7, a7, 16
     9b0:	805270        	add	a5, a2, a7
     9b3:	2119a6        	blti	a9, 1, 9d8 <wind_noise_alpha+0x50>
     9b6:	202aa0        	or	a2, a10, a10
     9b9:	02a976        	loopgtz	a9, 9bf <wind_noise_alpha+0x37>
     9bc:	09e234        	ae_s32ip	a3, a2, 4

000009bf <wind_noise_alpha+0x37>:
     9bf:	29a072        	movi	a7, 41
     9c2:	0f2797        	blt	a7, a9, 9d5 <wind_noise_alpha+0x4d>

000009c5 <wind_noise_alpha+0x3d>:
     9c5:	a029a0        	addx4	a2, a9, a10
     9c8:	a42c           	movi.n	a4, 42
     9ca:	c04490        	sub	a4, a4, a9
     9cd:	02a476        	loopgtz	a4, 9d3 <wind_noise_alpha+0x4b>
     9d0:	09e254        	ae_s32ip	a5, a2, 4

000009d3 <wind_noise_alpha+0x4b>:
     9d3:	f01d           	retw.n

000009d5 <wind_noise_alpha+0x4d>:
     9d5:	f01d           	retw.n

000009d7 <wind_noise_alpha+0x4f>:
	...

000009d8 <wind_noise_alpha+0x50>:
     9d8:	090c           	movi.n	a9, 0
     9da:	fff9c6        	j	9c5 <wind_noise_alpha+0x3d>

000009dd <wind_noise_alpha+0x55>:
     9dd:	000000                                        ...

000009e0 <PD_Noise_Est>:
     9e0:	00a136        	entry	a1, 80
     9e3:	5129           	s32i.n	a2, a1, 20
     9e5:	fda5c1        	l32r	a12, 7c (ca94 <p_ecnr_mem>)
     9e8:	11d2b2        	addmi	a11, a2, 0x1100
     9eb:	2ccba2        	addi	a10, a11, 44
     9ee:	462b92        	l32i	a9, a11, 0x118
     9f1:	71a9           	s32i.n	a10, a1, 28
     9f3:	0ca8           	l32i.n	a10, a12, 0
     9f5:	10c992        	addi	a9, a9, 16
     9f8:	601914        	ae_lq32f.iu	aeq0, a9, 4
     9fb:	605914        	ae_lq32f.iu	aeq1, a9, 4
     9fe:	52da82        	addmi	a8, a10, 0x5200
     a01:	b8c882        	addi	a8, a8, -72
     a04:	6189           	s32i.n	a8, a1, 24
     a06:	f8663d591f 	{ ae_lq32f.iu	aeq2, a9, 4; ae_addq56	aeq0, aeq0, aeq1 }
     a0b:	f8e23d591f 	{ ae_lq32f.iu	aeq2, a9, 4; ae_addq56	aeq0, aeq0, aeq2 }
     a10:	010ac4        	ae_addq56	aeq0, aeq0, aeq2
     a13:	3540b4        	ae_sraiq56	aeq1, aeq0, 2
     a16:	04d842        	addmi	a4, a8, 0x400
     a19:	08dd           	mov.n	a13, a8
     a1b:	06ddf2        	addmi	a15, a13, 0x600
     a1e:	d8cff2        	addi	a15, a15, -40
     a21:	58da82        	addmi	a8, a10, 0x5800
     a24:	94c882        	addi	a8, a8, -108
     a27:	621804        	ae_sq32f.i	aeq1, a8, 0
     a2a:	60cf04        	ae_lq32f.i	aeq3, a15, 0
     a2d:	fb7e0000ef 	{ movi	a14, 0; ae_addq56	aeq3, aeq3, aeq1 }
     a32:	35f074        	ae_sraiq56	aeq3, aeq3, 1
     a35:	623f04        	ae_sq32f.i	aeq3, a15, 0
     a38:	e654e2        	s16i	a14, a4, 0x1cc
     a3b:	add8           	l32i.n	a13, a13, 40
     a3d:	e79492        	l16si	a9, a4, 0x1ce
     a40:	7124a2        	l32i	a10, a4, 0x1c4
     a43:	131da6        	blti	a13, 1, a5a <PD_Noise_Est+0x7a>
     a46:	162aa6        	blti	a10, 2, a60 <PD_Noise_Est+0x80>
     a49:	e594b2        	l16si	a11, a4, 0x1ca
     a4c:	f0c992        	addi	a9, a9, -16
     a4f:	11bbf0        	slli	a11, a11, 1
     a52:	4399b0        	min	a9, a9, a11
     a55:	0004c6        	j	a6c <PD_Noise_Est+0x8c>

00000a58 <PD_Noise_Est+0x78>:
	...

00000a5a <PD_Noise_Est+0x7a>:
     a5a:	021ae6        	bgei	a10, 1, a60 <PD_Noise_Est+0x80>
     a5d:	013106        	j	f25 <PD_Noise_Est+0x545>

00000a60 <PD_Noise_Est+0x80>:
     a60:	7724d2        	l32i	a13, a4, 0x1dc
     a63:	021de6        	bgei	a13, 1, a69 <PD_Noise_Est+0x89>
     a66:	0123c6        	j	ef9 <PD_Noise_Est+0x519>
     a69:	f8c992        	addi	a9, a9, -8

00000a6c <PD_Noise_Est+0x8c>:
     a6c:	0cd8           	l32i.n	a13, a12, 0
     a6e:	ff3c           	movi.n	a15, 63
     a70:	0e0c           	movi.n	a14, 0
     a72:	53e9e0        	max	a14, a9, a14
     a75:	43eef0        	min	a14, a14, a15
     a78:	e754e2        	s16i	a14, a4, 0x1ce
     a7b:	19ddd2        	addmi	a13, a13, 0x1900
     a7e:	989de2        	l16si	a14, a13, 0x130
     a81:	34cdb2        	addi	a11, a13, 52
     a84:	9b9dd2        	l16si	a13, a13, 0x136
     a87:	3c1e96        	bltz	a14, e4c <PD_Noise_Est+0x46c>
     a8a:	61f8           	l32i.n	a15, a1, 24
     a8c:	aff8           	l32i.n	a15, a15, 40
     a8e:	021fe6        	bgei	a15, 1, a94 <PD_Noise_Est+0xb4>
     a91:	010606        	j	ead <PD_Noise_Est+0x4cd>
     a94:	51c8           	l32i.n	a12, a1, 20
     a96:	149ca2        	l16si	a10, a12, 40
     a99:	139cc2        	l16si	a12, a12, 38
     a9c:	022ca7        	blt	a12, a10, aa2 <PD_Noise_Est+0xc2>
     a9f:	00cf46        	j	de0 <PD_Noise_Est+0x400>
     aa2:	d8cdd2        	addi	a13, a13, -40

00000aa5 <PD_Noise_Est+0xc5>:
     aa5:	ffa0e2        	movi	a14, 255
     aa8:	0f0c           	movi.n	a15, 0
     aaa:	53ddf0        	max	a13, a13, a15
     aad:	43dde0        	min	a13, a13, a14
     ab0:	61e8           	l32i.n	a14, a1, 24
     ab2:	aee8           	l32i.n	a14, a14, 40
     ab4:	815bd2        	s16i	a13, a11, 0x102
     ab7:	021ee6        	bgei	a14, 1, abd <PD_Noise_Est+0xdd>
     aba:	00e4c6        	j	e51 <PD_Noise_Est+0x471>
     abd:	5188           	l32i.n	a8, a1, 20
     abf:	149892        	l16si	a9, a8, 40
     ac2:	139882        	l16si	a8, a8, 38
     ac5:	022897        	blt	a8, a9, acb <PD_Noise_Est+0xeb>
     ac8:	004f06        	j	c08 <PD_Noise_Est+0x228>
     acb:	5198           	l32i.n	a9, a1, 20
     acd:	5a0c           	movi.n	a10, 5
     acf:	e654a2        	s16i	a10, a4, 0x1cc
     ad2:	01d992        	addmi	a9, a9, 0x100
     ad5:	78c992        	addi	a9, a9, 120
     ad8:	601914        	ae_lq32f.iu	aeq0, a9, 4
     adb:	605914        	ae_lq32f.iu	aeq1, a9, 4
     ade:	f8663d591f 	{ ae_lq32f.iu	aeq2, a9, 4; ae_addq56	aeq0, aeq0, aeq1 }
     ae3:	f8e23d591f 	{ ae_lq32f.iu	aeq2, a9, 4; ae_addq56	aeq0, aeq0, aeq2 }
     ae8:	010ac4        	ae_addq56	aeq0, aeq0, aeq2
     aeb:	35c0b4        	ae_sraiq56	aeq3, aeq0, 2
     aee:	fd6fb1        	l32r	a11, ac (dacccccd <_end+0xdacc022d>)
     af1:	364b34        	ae_cvtq48a32s	aeq1, a11
     af4:	099704        	ae_leq56s	b0, aeq3, aeq1
     af7:	021076        	bt	b0, afd <PD_Noise_Est+0x11d>
     afa:	00f486        	j	ed0 <PD_Noise_Est+0x4f0>
     afd:	050c           	movi.n	a5, 0
     aff:	030c           	movi.n	a3, 0

00000b01 <PD_Noise_Est+0x121>:
     b01:	6168           	l32i.n	a6, a1, 24
     b03:	a668           	l32i.n	a6, a6, 40
     b05:	fd6a81        	l32r	a8, b0 (9e7c <__floatsidf>)
     b08:	fd6b21        	l32r	a2, b4 (fc000000 <_end+0xfbff3560>)
     b0b:	662b           	addi.n	a6, a6, 2
     b0d:	216260        	srai	a6, a6, 2
     b10:	262a           	add.n	a2, a6, a2
     b12:	027d           	mov.n	a7, a2
     b14:	02ad           	mov.n	a10, a2
     b16:	0008e0        	callx8	a8
     b19:	fd6881        	l32r	a8, bc (9d34 <__ltdf2>)
     b1c:	fd67d1        	l32r	a13, b8 (c1600000 <_end+0xc15f3560>)
     b1f:	0c0c           	movi.n	a12, 0
     b21:	0008e0        	callx8	a8
     b24:	926a           	add.n	a9, a2, a6
     b26:	fd6621        	l32r	a2, c0 (b33333 <_end+0xb26893>)
     b29:	fd66c1        	l32r	a12, c4 (ff4ccccd <_end+0xff4c022d>)
     b2c:	a379a0        	movltz	a7, a9, a10
     b2f:	02a727        	bge	a7, a2, b35 <PD_Noise_Est+0x155>
     b32:	00b486        	j	e08 <PD_Noise_Est+0x428>
     b35:	0a0c           	movi.n	a10, 0
     b37:	f7ca           	add.n	a15, a7, a12
     b39:	0b0c           	movi.n	a11, 0
     b3b:	6f24d2        	l32i	a13, a4, 0x1bc
     b3e:	7024e2        	l32i	a14, a4, 0x1c0
     b41:	168076        	loop	a0, b5b <PD_Noise_Est+0x17b>
     b44:	bb1b           	addi.n	a11, a11, 1
     b46:	9aea           	add.n	a9, a10, a14
     b48:	cdaa           	add.n	a12, a13, a10
     b4a:	0c39           	s32i.n	a3, a12, 0
     b4c:	0988           	l32i.n	a8, a9, 0
     b4e:	aa4b           	addi.n	a10, a10, 4
     b50:	01cb80        	slli	a12, a11, 24
     b53:	1188f0        	slli	a8, a8, 1
     b56:	0989           	s32i.n	a8, a9, 0
     b58:	042fc7        	blt	a15, a12, b60 <PD_Noise_Est+0x180>

00000b5b <PD_Noise_Est+0x17b>:
     b5b:	fff886        	j	b41 <PD_Noise_Est+0x161>

00000b5e <PD_Noise_Est+0x17e>:
	...

00000b60 <PD_Noise_Est+0x180>:
     b60:	fd49e1        	l32r	a14, 84 (c500 <wb_sb_ptn>)
     b63:	61a8           	l32i.n	a10, a1, 24
     b65:	6f24d2        	l32i	a13, a4, 0x1bc
     b68:	e694c2        	l16si	a12, a4, 0x1cc
     b6b:	059aa2        	l16si	a10, a10, 10
     b6e:	a0dbd0        	addx4	a13, a11, a13
     b71:	90cce0        	addx2	a12, a12, a14
     b74:	2ccd           	ae_l16si.n	a12, a12, 0
     b76:	0d59           	s32i.n	a5, a13, 0
     b78:	11aae0        	slli	a10, a10, 2
     b7b:	bc2b           	addi.n	a11, a12, 2
     b7d:	01bb80        	slli	a11, a11, 24
     b80:	02ab77        	bge	a11, a7, b86 <PD_Noise_Est+0x1a6>
     b83:	002046        	j	c08 <PD_Noise_Est+0x228>
     b86:	41a9           	s32i.n	a10, a1, 16
     b88:	fd4fd1        	l32r	a13, c4 (ff4ccccd <_end+0xff4c022d>)
     b8b:	fd4fc1        	l32r	a12, c8 (800000 <_end+0x7f3560>)
     b8e:	272a           	add.n	a2, a7, a2
     b90:	d7da           	add.n	a13, a7, a13
     b92:	77ca           	add.n	a7, a7, a12
     b94:	cbca           	add.n	a12, a11, a12
     b96:	81c9           	s32i.n	a12, a1, 32
     b98:	000406        	j	bac <PD_Noise_Est+0x1cc>

00000b9b <PD_Noise_Est+0x1bb>:
	...

00000b9d <PD_Noise_Est+0x1bd>:
     b9d:	11abe0        	slli	a10, a11, 2

00000ba0 <PD_Noise_Est+0x1c0>:
     ba0:	6f24f2        	l32i	a15, a4, 0x1bc
     ba3:	81e8           	l32i.n	a14, a1, 32
     ba5:	ffaa           	add.n	a15, a15, a10
     ba7:	0f59           	s32i.n	a5, a15, 0
     ba9:	5b2e77        	blt	a14, a7, c08 <PD_Noise_Est+0x228>

00000bac <PD_Noise_Est+0x1cc>:
     bac:	4198           	l32i.n	a9, a1, 16
     bae:	0b0c           	movi.n	a11, 0
     bb0:	7024a2        	l32i	a10, a4, 0x1c0
     bb3:	6f24e2        	l32i	a14, a4, 0x1bc
     bb6:	31f870        	srai	a15, a7, 24
     bb9:	a0afa0        	addx4	a10, a15, a10
     bbc:	a0cfe0        	addx4	a12, a15, a14
     bbf:	0cb9           	s32i.n	a11, a12, 0
     bc1:	0a99           	s32i.n	a9, a10, 0
     bc3:	cf1b           	addi.n	a12, a15, 1
     bc5:	0cbd           	mov.n	a11, a12
     bc7:	018c80        	slli	a8, a12, 24
     bca:	11ace0        	slli	a10, a12, 2
     bcd:	08a827        	bge	a8, a2, bd9 <PD_Noise_Est+0x1f9>
     bd0:	bf2b           	addi.n	a11, a15, 2
     bd2:	aa4b           	addi.n	a10, a10, 4
     bd4:	a08ce0        	addx4	a8, a12, a14
     bd7:	0859           	s32i.n	a5, a8, 0

00000bd9 <PD_Noise_Est+0x1f9>:
     bd9:	226a           	add.n	a2, a2, a6
     bdb:	776a           	add.n	a7, a7, a6
     bdd:	019b80        	slli	a9, a11, 24
     be0:	dd6a           	add.n	a13, a13, a6
     be2:	ba2d97        	blt	a13, a9, ba0 <PD_Noise_Est+0x1c0>
     be5:	6f24f2        	l32i	a15, a4, 0x1bc
     be8:	7024e2        	l32i	a14, a4, 0x1c0
     beb:	168076        	loop	a0, c05 <PD_Noise_Est+0x225>
     bee:	bb1b           	addi.n	a11, a11, 1
     bf0:	9aea           	add.n	a9, a10, a14
     bf2:	cfaa           	add.n	a12, a15, a10
     bf4:	0c39           	s32i.n	a3, a12, 0
     bf6:	0988           	l32i.n	a8, a9, 0
     bf8:	aa4b           	addi.n	a10, a10, 4
     bfa:	01cb80        	slli	a12, a11, 24
     bfd:	1188f0        	slli	a8, a8, 1
     c00:	0989           	s32i.n	a8, a9, 0
     c02:	972dc7        	blt	a13, a12, b9d <PD_Noise_Est+0x1bd>

00000c05 <PD_Noise_Est+0x225>:
     c05:	fff886        	j	beb <PD_Noise_Est+0x20b>

00000c08 <PD_Noise_Est+0x228>:
     c08:	51a8           	l32i.n	a10, a1, 20
     c0a:	171aa2        	l16ui	a10, a10, 46
     c0d:	4d1c           	movi.n	a13, 20
     c0f:	02bda7        	bgeu	a13, a10, c15 <PD_Noise_Est+0x235>
     c12:	002f06        	j	cd2 <PD_Noise_Est+0x2f2>
     c15:	027ab6        	bltui	a10, 7, c1b <PD_Noise_Est+0x23b>
     c18:	007346        	j	de9 <PD_Noise_Est+0x409>
     c1b:	51a8           	l32i.n	a10, a1, 20
     c1d:	09daa2        	addmi	a10, a10, 0x900
     c20:	18caa2        	addi	a10, a10, 24

00000c23 <PD_Noise_Est+0x243>:
     c23:	e694b2        	l16si	a11, a4, 0x1cc
     c26:	2add           	ae_l16si.n	a13, a10, 0
     c28:	8c0c           	movi.n	a12, 8
     c2a:	02acb7        	bge	a12, a11, c30 <PD_Noise_Est+0x250>
     c2d:	002846        	j	cd2 <PD_Noise_Est+0x2f2>
     c30:	115be0        	slli	a5, a11, 2
     c33:	fd19e1        	l32r	a14, 98 (8000 <NR_vad2+0xe4>)
     c36:	fd1361        	l32r	a6, 84 (c500 <wb_sb_ptn>)
     c39:	120c           	movi.n	a2, 1
     c3b:	472c           	movi.n	a7, 36
     c3d:	906b60        	addx2	a6, a11, a6

00000c40 <PD_Noise_Est+0x260>:
     c40:	7188           	l32i.n	a8, a1, 28
     c42:	3b2882        	l32i	a8, a8, 236
     c45:	885a           	add.n	a8, a8, a5
     c47:	0888           	l32i.n	a8, a8, 0
     c49:	7b18e6        	bgei	a8, 1, cc8 <PD_Noise_Est+0x2e8>
     c4c:	36ad           	ae_l16si.n	a10, a6, 2
     c4e:	26cd           	ae_l16si.n	a12, a6, 0
     c50:	74aca7        	bge	a12, a10, cc8 <PD_Noise_Est+0x2e8>
     c53:	6f24f2        	l32i	a15, a4, 0x1bc
     c56:	c09ac0        	sub	a9, a10, a12
     c59:	11ace0        	slli	a10, a12, 2
     c5c:	539920        	max	a9, a9, a2
     c5f:	126907        	bbci	a9, 0, c75 <PD_Noise_Est+0x295>
     c62:	a03cf0        	addx4	a3, a12, a15
     c65:	43bd           	ae_l16ui.n	a11, a3, 0
     c67:	aa4b           	addi.n	a10, a10, 4
     c69:	bdba           	add.n	a11, a13, a11
     c6b:	c08eb0        	sub	a8, a14, a11
     c6e:	118800        	slli	a8, a8, 16
     c71:	bb8a           	add.n	a11, a11, a8
     c73:	03b9           	s32i.n	a11, a3, 0

00000c75 <PD_Noise_Est+0x295>:
     c75:	21b190        	srai	a11, a9, 1
     c78:	04cb16        	beqz	a11, cc8 <PD_Noise_Est+0x2e8>
     c7b:	8afa           	add.n	a8, a10, a15
     c7d:	483d           	ae_l16ui.n	a3, a8, 0
     c7f:	ca4b           	addi.n	a12, a10, 4
     c81:	ccfa           	add.n	a12, a12, a15
     c83:	3d3a           	add.n	a3, a13, a3
     c85:	c09e30        	sub	a9, a14, a3
     c88:	119900        	slli	a9, a9, 16
     c8b:	339a           	add.n	a3, a3, a9
     c8d:	0839           	s32i.n	a3, a8, 0
     c8f:	9b0b           	addi.n	a9, a11, -1
     c91:	8a8b           	addi.n	a8, a10, 8
     c93:	4cad           	ae_l16ui.n	a10, a12, 0
     c95:	23a976        	loopgtz	a9, cbc <PD_Noise_Est+0x2dc>
     c98:	98fa           	add.n	a9, a8, a15
     c9a:	adaa           	add.n	a10, a13, a10
     c9c:	c0bea0        	sub	a11, a14, a10
     c9f:	11bb00        	slli	a11, a11, 16
     ca2:	aaba           	add.n	a10, a10, a11
     ca4:	0ca9           	s32i.n	a10, a12, 0
     ca6:	49ad           	ae_l16ui.n	a10, a9, 0
     ca8:	b84b           	addi.n	a11, a8, 4
     caa:	cbfa           	add.n	a12, a11, a15
     cac:	adaa           	add.n	a10, a13, a10
     cae:	c0bea0        	sub	a11, a14, a10
     cb1:	11bb00        	slli	a11, a11, 16
     cb4:	aaba           	add.n	a10, a10, a11
     cb6:	09a9           	s32i.n	a10, a9, 0
     cb8:	4cad           	ae_l16ui.n	a10, a12, 0
     cba:	888b           	addi.n	a8, a8, 8

00000cbc <PD_Noise_Est+0x2dc>:
     cbc:	8daa           	add.n	a8, a13, a10
     cbe:	c09e80        	sub	a9, a14, a8
     cc1:	119900        	slli	a9, a9, 16
     cc4:	889a           	add.n	a8, a8, a9
     cc6:	0c89           	s32i.n	a8, a12, 0
     cc8:	662b           	addi.n	a6, a6, 2
     cca:	554b           	addi.n	a5, a5, 4
     ccc:	c0a570        	sub	a10, a5, a7
     ccf:	f6da56        	bnez	a10, c40 <PD_Noise_Est+0x260>
     cd2:	61a8           	l32i.n	a10, a1, 24
     cd4:	199aa2        	l16si	a10, a10, 50
     cd7:	0b8a96        	bltz	a10, d93 <PD_Noise_Est+0x3b3>
     cda:	51b8           	l32i.n	a11, a1, 20
     cdc:	021bb2        	l16ui	a11, a11, 4
     cdf:	90bbb0        	addx2	a11, a11, a11
     ce2:	11bbe0        	slli	a11, a11, 2
     ce5:	022ab7        	blt	a10, a11, ceb <PD_Noise_Est+0x30b>
     ce8:	0029c6        	j	d93 <PD_Noise_Est+0x3b3>
     ceb:	61c8           	l32i.n	a12, a1, 24
     ced:	acb8           	l32i.n	a11, a12, 40
     cef:	aa1b           	addi.n	a10, a10, 1
     cf1:	195ca2        	s16i	a10, a12, 50
     cf4:	ab8c           	beqz.n	a11, d02 <PD_Noise_Est+0x322>
     cf6:	7624d2        	l32i	a13, a4, 0x1d8
     cf9:	0a8dd6        	bgez	a13, da5 <PD_Noise_Est+0x3c5>
     cfc:	1a9ce2        	l16si	a14, a12, 52
     cff:	0a2e56        	bnez	a14, da5 <PD_Noise_Est+0x3c5>

00000d02 <PD_Noise_Est+0x322>:
     d02:	7124f2        	l32i	a15, a4, 0x1c4
     d05:	022fa6        	blti	a15, 2, d0b <PD_Noise_Est+0x32b>
     d08:	002646        	j	da5 <PD_Noise_Est+0x3c5>
     d0b:	e79492        	l16si	a9, a4, 0x1ce
     d0e:	e59482        	l16si	a8, a4, 0x1ca
     d11:	022897        	blt	a8, a9, d17 <PD_Noise_Est+0x337>
     d14:	002346        	j	da5 <PD_Noise_Est+0x3c5>
     d17:	107a96        	bltz	a10, e22 <PD_Noise_Est+0x442>
     d1a:	fcece1        	l32r	a14, cc (4000 <Voice_WB_TX_Prcs+0x5c0>)

00000d1d <PD_Noise_Est+0x33d>:
     d1d:	40dea2        	addmi	a10, a14, 0x4000
     d20:	aa0b           	addi.n	a10, a10, -1
     d22:	61ad           	ae_s16i.n	a10, a1, 0
     d24:	250b16        	beqz	a11, f78 <PD_Noise_Est+0x598>
     d27:	51c8           	l32i.n	a12, a1, 20
     d29:	080c           	movi.n	a8, 0
     d2b:	401104        	ae_lp16f.i	aep1, a1, 0
     d2e:	1cccc2        	addi	a12, a12, 28
     d31:	400c04        	ae_lp16f.i	aep0, a12, 0
     d34:	e920802a9f 	{ movi	a9, 42; ae_mulfp24s.hh	aeq2, aep0, aep1 }
     d39:	b14b           	addi.n	a11, a1, 4
     d3b:	35a2f4        	ae_sraiq56	aeq2, aeq2, 11
     d3e:	622b04        	ae_sq32f.i	aeq2, a11, 0
     d41:	11a8           	l32i.n	a10, a1, 4
     d43:	7024b2        	l32i	a11, a4, 0x1c0
     d46:	058976        	loop	a9, d4f <PD_Noise_Est+0x36f>
     d49:	9b8a           	add.n	a9, a11, a8
     d4b:	09a9           	s32i.n	a10, a9, 0
     d4d:	884b           	addi.n	a8, a8, 4

00000d4f <PD_Noise_Est+0x36f>:
     d4f:	71b8           	l32i.n	a11, a1, 28
     d51:	869bb2        	l16si	a11, a11, 0x10c

00000d54 <PD_Noise_Est+0x374>:
     d54:	6f24f2        	l32i	a15, a4, 0x1bc
     d57:	fcde81        	l32r	a8, d0 (5b33 <beam1_mid_band+0x1cb>)
     d5a:	51d8           	l32i.n	a13, a1, 20
     d5c:	e594c2        	l16si	a12, a4, 0x1ca
     d5f:	e794a2        	l16si	a10, a4, 0x1ce
     d62:	07ddd2        	addmi	a13, a13, 0x700
     d65:	d18c80        	mul16s	a8, a12, a8
     d68:	11aa30        	slli	a10, a10, 13
     d6b:	02a8a7        	bge	a8, a10, d71 <PD_Noise_Est+0x391>
     d6e:	0078c6        	j	f55 <PD_Noise_Est+0x575>
     d71:	118c20        	slli	a8, a12, 14
     d74:	0228a7        	blt	a8, a10, d7a <PD_Noise_Est+0x39a>
     d77:	007246        	j	f44 <PD_Noise_Est+0x564>
     d7a:	862dc2        	l32i	a12, a13, 0x218
     d7d:	fcd581        	l32r	a8, d4 (988 <wind_noise_alpha>)
     d80:	0fad           	mov.n	a10, a15
     d82:	872dd2        	l32i	a13, a13, 0x21c
     d85:	0008e0        	callx8	a8
     d88:	e894b2        	l16si	a11, a4, 0x1d0
     d8b:	11bb00        	slli	a11, a11, 16
     d8e:	000586        	j	da8 <PD_Noise_Est+0x3c8>

00000d91 <PD_Noise_Est+0x3b1>:
	...

00000d93 <PD_Noise_Est+0x3b3>:
     d93:	61e8           	l32i.n	a14, a1, 24
     d95:	aec8           	l32i.n	a12, a14, 40
     d97:	fd7c           	movi.n	a13, -1
     d99:	195ed2        	s16i	a13, a14, 50
     d9c:	073c16        	beqz	a12, e13 <PD_Noise_Est+0x433>
     d9f:	7624f2        	l32i	a15, a4, 0x1d8
     da2:	067f96        	bltz	a15, e0d <PD_Noise_Est+0x42d>

00000da5 <PD_Noise_Est+0x3c5>:
     da5:	fcccb1        	l32r	a11, d8 (7fff0000 <_end+0x7ffe3560>)

00000da8 <PD_Noise_Est+0x3c8>:
     da8:	fccf81        	l32r	a8, e4 (4920 <siir_safr>)
     dab:	71a8           	l32i.n	a10, a1, 28
     dad:	fccbd1        	l32r	a13, dc (7e1401ec <_end+0x7e13374c>)
     db0:	fcccc1        	l32r	a12, e0 (7fe70019 <_end+0x7fe63579>)
     db3:	21c9           	s32i.n	a12, a1, 8
     db5:	31d9           	s32i.n	a13, a1, 12
     db7:	08c1c2        	addi	a12, a1, 8
     dba:	422aa2        	l32i	a10, a10, 0x108
     dbd:	0008e0        	callx8	a8
     dc0:	6198           	l32i.n	a9, a1, 24
     dc2:	71b8           	l32i.n	a11, a1, 28
     dc4:	a9e8           	l32i.n	a14, a9, 40
     dc6:	426ba2        	s32i	a10, a11, 0x108
     dc9:	1a9992        	l16si	a9, a9, 52
     dcc:	0cde16        	beqz	a14, e9d <PD_Noise_Est+0x4bd>
     dcf:	3d0c           	movi.n	a13, 3
     dd1:	c91b           	addi.n	a12, a9, 1
     dd3:	43ccd0        	min	a12, a12, a13
     dd6:	61d8           	l32i.n	a13, a1, 24
     dd8:	020c           	movi.n	a2, 0
     dda:	1a5dc2        	s16i	a12, a13, 52
     ddd:	f01d           	retw.n

00000ddf <PD_Noise_Est+0x3ff>:
	...

00000de0 <PD_Noise_Est+0x400>:
     de0:	169ca7        	bne	a12, a10, dfa <PD_Noise_Est+0x41a>
     de3:	facdd2        	addi	a13, a13, -6
     de6:	ff2ec6        	j	aa5 <PD_Noise_Est+0xc5>

00000de9 <PD_Noise_Est+0x409>:
     de9:	02bab6        	bltui	a10, 16, def <PD_Noise_Est+0x40f>
     dec:	003f86        	j	eee <PD_Noise_Est+0x50e>
     def:	51a8           	l32i.n	a10, a1, 20
     df1:	09daa2        	addmi	a10, a10, 0x900
     df4:	1ccaa2        	addi	a10, a10, 28
     df7:	ff8a06        	j	c23 <PD_Noise_Est+0x243>

00000dfa <PD_Noise_Est+0x41a>:
     dfa:	fecde2        	addi	a14, a13, -2
     dfd:	fc0b           	addi.n	a15, a12, -1
     dff:	c0faf0        	sub	a15, a10, a15
     e02:	83def0        	moveqz	a13, a14, a15
     e05:	ff2706        	j	aa5 <PD_Noise_Est+0xc5>

00000e08 <PD_Noise_Est+0x428>:
     e08:	0b0c           	movi.n	a11, 0
     e0a:	ff5486        	j	b60 <PD_Noise_Est+0x180>

00000e0d <PD_Noise_Est+0x42d>:
     e0d:	1a9e82        	l16si	a8, a14, 52
     e10:	f91856        	bnez	a8, da5 <PD_Noise_Est+0x3c5>

00000e13 <PD_Noise_Est+0x433>:
     e13:	712492        	l32i	a9, a4, 0x1c4
     e16:	8b29e6        	bgei	a9, 2, da5 <PD_Noise_Est+0x3c5>
     e19:	e794b2        	l16si	a11, a4, 0x1ce
     e1c:	e594a2        	l16si	a10, a4, 0x1ca
     e1f:	82aab7        	bge	a10, a11, da5 <PD_Noise_Est+0x3c5>

00000e22 <PD_Noise_Est+0x442>:
     e22:	7724a2        	l32i	a10, a4, 0x1dc
     e25:	51b8           	l32i.n	a11, a1, 20
     e27:	fcb081        	l32r	a8, e8 (9bf0 <cal_wind_score>)
     e2a:	61c8           	l32i.n	a12, a1, 24
     e2c:	0b9be2        	l16si	a14, a11, 22
     e2f:	0a9bd2        	l16si	a13, a11, 20
     e32:	0c9bb2        	l16si	a11, a11, 24
     e35:	079cc2        	l16si	a12, a12, 14
     e38:	ddea           	add.n	a13, a13, a14
     e3a:	bbda           	add.n	a11, a11, a13
     e3c:	8bbd           	ae_sext16	a11, a11
     e3e:	61bd           	ae_s16i.n	a11, a1, 0
     e40:	0008e0        	callx8	a8
     e43:	61b8           	l32i.n	a11, a1, 24
     e45:	0aed           	mov.n	a14, a10
     e47:	abb8           	l32i.n	a11, a11, 40
     e49:	ffb406        	j	d1d <PD_Noise_Est+0x33d>

00000e4c <PD_Noise_Est+0x46c>:
     e4c:	0d0c           	movi.n	a13, 0
     e4e:	ff14c6        	j	aa5 <PD_Noise_Est+0xc5>

00000e51 <PD_Noise_Est+0x471>:
     e51:	61c8           	l32i.n	a12, a1, 24
     e53:	069cc2        	l16si	a12, a12, 12
     e56:	02adc7        	bge	a13, a12, e5c <PD_Noise_Est+0x47c>
     e59:	ff6ac6        	j	c08 <PD_Noise_Est+0x228>
     e5c:	7024b2        	l32i	a11, a4, 0x1c0
     e5f:	61c8           	l32i.n	a12, a1, 24
     e61:	4c3b04        	ae_lp24.i	aep3, a11, 0
     e64:	402c44        	ae_lp16f.i	aep2, a12, 8
     e67:	02ab74        	ae_mulp24s.ll	aeq3, aep2, aep3
     e6a:	36ba04        	ae_trunca32q48	a10, aeq3
     e6d:	080c           	movi.n	a8, 0
     e6f:	eea092        	movi	a9, 238
     e72:	aa2b           	addi.n	a10, a10, 2
     e74:	21a2a0        	srai	a10, a10, 2
     e77:	058976        	loop	a9, e80 <PD_Noise_Est+0x4a0>
     e7a:	9b8a           	add.n	a9, a11, a8
     e7c:	09a9           	s32i.n	a10, a9, 0
     e7e:	884b           	addi.n	a8, a8, 4

00000e80 <PD_Noise_Est+0x4a0>:
     e80:	61e8           	l32i.n	a14, a1, 24
     e82:	039ee2        	l16si	a14, a14, 6
     e85:	02ade7        	bge	a13, a14, e8b <PD_Noise_Est+0x4ab>
     e88:	ff5f06        	j	c08 <PD_Noise_Est+0x228>
     e8b:	7124f2        	l32i	a15, a4, 0x1c4
     e8e:	6e2fe6        	bgei	a15, 2, f00 <PD_Noise_Est+0x520>
     e91:	fc9681        	l32r	a8, ec (8a0 <COMPL_S16x2_fun>)
     e94:	ea94a2        	l16si	a10, a4, 0x1d4
     e97:	0008e0        	callx8	a8
     e9a:	001ac6        	j	f09 <PD_Noise_Est+0x529>

00000e9d <PD_Noise_Est+0x4bd>:
     e9d:	0b0c           	movi.n	a11, 0
     e9f:	a90b           	addi.n	a10, a9, -1
     ea1:	53aab0        	max	a10, a10, a11
     ea4:	61b8           	l32i.n	a11, a1, 24
     ea6:	020c           	movi.n	a2, 0
     ea8:	1a5ba2        	s16i	a10, a11, 52
     eab:	f01d           	retw.n

00000ead <PD_Noise_Est+0x4cd>:
     ead:	022aa6        	blti	a10, 2, eb3 <PD_Noise_Est+0x4d3>
     eb0:	fefc46        	j	aa5 <PD_Noise_Est+0xc5>
     eb3:	fc8fe1        	l32r	a14, f0 (c4e0 <wb_score_bands>)
     eb6:	51a8           	l32i.n	a10, a1, 20
     eb8:	099ec2        	l16si	a12, a14, 18
     ebb:	3efd           	ae_l16si.n	a15, a14, 2
     ebd:	029ee2        	l16si	a14, a14, 4
     ec0:	171aa2        	l16ui	a10, a10, 46
     ec3:	ffca           	add.n	a15, a15, a12
     ec5:	eefa           	add.n	a14, a14, a15
     ec7:	522ae7        	blt	a10, a14, f1d <PD_Noise_Est+0x53d>
     eca:	dd2b           	addi.n	a13, a13, 2
     ecc:	fef546        	j	aa5 <PD_Noise_Est+0xc5>

00000ecf <PD_Noise_Est+0x4ef>:
	...

00000ed0 <PD_Noise_Est+0x4f0>:
     ed0:	fc8781        	l32r	a8, ec (8a0 <COMPL_S16x2_fun>)
     ed3:	e494a2        	l16si	a10, a4, 0x1c8
     ed6:	0008e0        	callx8	a8
     ed9:	e494b2        	l16si	a11, a4, 0x1c8
     edc:	0a3d           	mov.n	a3, a10
     ede:	fc8381        	l32r	a8, ec (8a0 <COMPL_S16x2_fun>)
     ee1:	ab2b           	addi.n	a10, a11, 2
     ee3:	21a2a0        	srai	a10, a10, 2
     ee6:	0008e0        	callx8	a8
     ee9:	0a5d           	mov.n	a5, a10
     eeb:	ff0486        	j	b01 <PD_Noise_Est+0x121>

00000eee <PD_Noise_Est+0x50e>:
     eee:	51a8           	l32i.n	a10, a1, 20
     ef0:	09daa2        	addmi	a10, a10, 0x900
     ef3:	20caa2        	addi	a10, a10, 32
     ef6:	ff4a46        	j	c23 <PD_Noise_Est+0x243>

00000ef9 <PD_Noise_Est+0x519>:
     ef9:	fec992        	addi	a9, a9, -2
     efc:	fedb06        	j	a6c <PD_Noise_Est+0x8c>

00000eff <PD_Noise_Est+0x51f>:
	...

00000f00 <PD_Noise_Est+0x520>:
     f00:	fc7b81        	l32r	a8, ec (8a0 <COMPL_S16x2_fun>)
     f03:	e994a2        	l16si	a10, a4, 0x1d2
     f06:	0008e0        	callx8	a8

00000f09 <PD_Noise_Est+0x529>:
     f09:	080c           	movi.n	a8, 0
     f0b:	6f24b2        	l32i	a11, a4, 0x1bc
     f0e:	eea092        	movi	a9, 238
     f11:	058976        	loop	a9, f1a <PD_Noise_Est+0x53a>
     f14:	9b8a           	add.n	a9, a11, a8
     f16:	09a9           	s32i.n	a10, a9, 0
     f18:	884b           	addi.n	a8, a8, 4

00000f1a <PD_Noise_Est+0x53a>:
     f1a:	ff3a86        	j	c08 <PD_Noise_Est+0x228>

00000f1d <PD_Noise_Est+0x53d>:
     f1d:	172ac7        	blt	a10, a12, f38 <PD_Noise_Est+0x558>
     f20:	dd1b           	addi.n	a13, a13, 1
     f22:	fedfc6        	j	aa5 <PD_Noise_Est+0xc5>

00000f25 <PD_Noise_Est+0x545>:
     f25:	462bb2        	l32i	a11, a11, 0x118
     f28:	1bd8           	l32i.n	a13, a11, 4
     f2a:	0bb8           	l32i.n	a11, a11, 0
     f2c:	ebda           	add.n	a14, a11, a13
     f2e:	3e1ea6        	blti	a14, 1, f70 <PD_Noise_Est+0x590>
     f31:	992b           	addi.n	a9, a9, 2
     f33:	fecd46        	j	a6c <PD_Noise_Est+0x8c>

00000f36 <PD_Noise_Est+0x556>:
	...

00000f38 <PD_Noise_Est+0x558>:
     f38:	e8cdc2        	addi	a12, a13, -24
     f3b:	fecdd2        	addi	a13, a13, -2
     f3e:	83dca0        	moveqz	a13, a12, a10
     f41:	fed806        	j	aa5 <PD_Noise_Est+0xc5>

00000f44 <PD_Noise_Est+0x564>:
     f44:	872dc2        	l32i	a12, a13, 0x21c
     f47:	fc6381        	l32r	a8, d4 (988 <wind_noise_alpha>)
     f4a:	0fad           	mov.n	a10, a15
     f4c:	882dd2        	l32i	a13, a13, 0x220
     f4f:	0008e0        	callx8	a8
     f52:	ff93c6        	j	da5 <PD_Noise_Est+0x3c5>

00000f55 <PD_Noise_Est+0x575>:
     f55:	0fad           	mov.n	a10, a15
     f57:	fc5f81        	l32r	a8, d4 (988 <wind_noise_alpha>)
     f5a:	862dd2        	l32i	a13, a13, 0x218
     f5d:	fc65c1        	l32r	a12, f4 (33334ccd <_end+0x3332822d>)
     f60:	0008e0        	callx8	a8
     f63:	e894b2        	l16si	a11, a4, 0x1d0
     f66:	d1bbb0        	mul16s	a11, a11, a11
     f69:	11bbf0        	slli	a11, a11, 1
     f6c:	ff8e06        	j	da8 <PD_Noise_Est+0x3c8>

00000f6f <PD_Noise_Est+0x58f>:
	...

00000f70 <PD_Noise_Est+0x590>:
     f70:	361ba6        	blti	a11, 1, faa <PD_Noise_Est+0x5ca>

00000f73 <PD_Noise_Est+0x593>:
     f73:	991b           	addi.n	a9, a9, 1
     f75:	febcc6        	j	a6c <PD_Noise_Est+0x8c>

00000f78 <PD_Noise_Est+0x598>:
     f78:	71b8           	l32i.n	a11, a1, 28
     f7a:	7024d2        	l32i	a13, a4, 0x1c0
     f7d:	400104        	ae_lp16f.i	aep0, a1, 0
     f80:	869bb2        	l16si	a11, a11, 0x10c
     f83:	fccda2        	addi	a10, a13, -4
     f86:	600d04        	ae_lq32f.i	aeq0, a13, 0
     f89:	021be6        	bgei	a11, 1, f8f <PD_Noise_Est+0x5af>
     f8c:	ff7106        	j	d54 <PD_Noise_Est+0x374>
     f8f:	0c0c           	movi.n	a12, 0

00000f91 <PD_Noise_Est+0x5b1>:
     f91:	d4e27071be 	{ l32i	a11, a1, 28; ae_mulfq32sp16s.l	aeq1, aeq0, aep0 }
     f96:	601d14        	ae_lq32f.iu	aeq0, a13, 4
     f99:	355054        	ae_slliq56	aeq1, aeq1, 1
     f9c:	625a14        	ae_sq32f.iu	aeq1, a10, 4
     f9f:	869bb2        	l16si	a11, a11, 0x10c
     fa2:	cc1b           	addi.n	a12, a12, 1
     fa4:	e92cb7        	blt	a12, a11, f91 <PD_Noise_Est+0x5b1>
     fa7:	ff6a46        	j	d54 <PD_Noise_Est+0x374>

00000faa <PD_Noise_Est+0x5ca>:
     faa:	c51de6        	bgei	a13, 1, f73 <PD_Noise_Est+0x593>
     fad:	990b           	addi.n	a9, a9, -1
     faf:	feae46        	j	a6c <PD_Noise_Est+0x8c>

00000fb2 <PD_Noise_Est+0x5d2>:
	...

00000fb4 <PD_Noise_Gain>:
     fb4:	004136        	entry	a1, 32
     fb7:	fc3121        	l32r	a2, 7c (ca94 <p_ecnr_mem>)
     fba:	0228           	l32i.n	a2, a2, 0
     fbc:	57d222        	addmi	a2, a2, 0x5700
     fbf:	429222        	l16si	a2, a2, 132
     fc2:	f01d           	retw.n

00000fc4 <voiced_decision>:
     fc4:	00c136        	entry	a1, 96
     fc7:	fc2d81        	l32r	a8, 7c (ca94 <p_ecnr_mem>)
     fca:	0888           	l32i.n	a8, a8, 0
     fcc:	1ad882        	addmi	a8, a8, 0x1a00
     fcf:	1a2882        	l32i	a8, a8, 104
     fd2:	d139           	s32i.n	a3, a1, 52
     fd4:	7189           	s32i.n	a8, a1, 28
     fd6:	01d892        	addmi	a9, a8, 0x100
     fd9:	ecc962        	addi	a6, a9, -20
     fdc:	9cc9a2        	addi	a10, a9, -100
     fdf:	91a9           	s32i.n	a10, a1, 36
     fe1:	14c992        	addi	a9, a9, 20
     fe4:	7a2c           	movi.n	a10, 39
     fe6:	6199           	s32i.n	a9, a1, 24
     fe8:	090c           	movi.n	a9, 0
     fea:	028a76        	loop	a10, ff0 <voiced_decision+0x2c>
     fed:	09c894        	ae_s16ip	a9, a8, 2

00000ff0 <voiced_decision+0x2c>:
     ff0:	0b0c           	movi.n	a11, 0
     ff2:	61a8           	l32i.n	a10, a1, 24
     ff4:	9188           	l32i.n	a8, a1, 36
     ff6:	069d           	mov.n	a9, a6
     ff8:	4c1c           	movi.n	a12, 20
     ffa:	088c76        	loop	a12, 1006 <voiced_decision+0x42>
     ffd:	09e8b4        	ae_s32ip	a11, a8, 4
    1000:	09c9b4        	ae_s16ip	a11, a9, 2
    1003:	09cab4        	ae_s16ip	a11, a10, 2
    1006:	140c           	movi.n	a4, 1
    1008:	952282        	l32i	a8, a2, 0x254
    100b:	453c           	movi.n	a5, 52
    100d:	fc3a91        	l32r	a9, f8 (147ae1 <_end+0x13b041>)
    1010:	01d2e2        	addmi	a14, a2, 0x100
    1013:	0f0c           	movi.n	a15, 0
    1015:	2a62f2        	s32i	a15, a2, 168
    1018:	accee2        	addi	a14, a14, -84
    101b:	398994        	ae_movpa24x2	aep0, a9, a9
    101e:	60e154        	ae_lq32f.x	aeq3, a1, a5
    1021:	364834        	ae_cvtq48a32s	aeq1, a8
    1024:	00a052        	movi	a5, 0
    1027:	fb017ed49f 	{ ae_sraaq56	aeq2, aeq1, a4; ae_mulfq32sp24s.h	aeq3, aeq3, aep0 }
    102c:	f8ea40279f 	{ movi	a9, 39; ae_addsq56s	aeq0, aeq1, aeq2 }
    1031:	fbe700004f 	{ movi	a4, 0; ae_maxq56s	aeq3, aeq3, aeq0 }
    1036:	623104        	ae_sq32f.i	aeq3, a1, 0
    1039:	15a976        	loopgtz	a9, 1052 <voiced_decision+0x8e>
    103c:	605e14        	ae_lq32f.iu	aeq1, a14, 4
    103f:	099304        	ae_ltq56s	b0, aeq3, aeq1
    1042:	0a0076        	bf	b0, 1050 <voiced_decision+0x8c>
    1045:	f4cef2        	addi	a15, a14, -12
    1048:	0a0c           	movi.n	a10, 0
    104a:	360a34        	ae_cvtq48a32s	aeq0, a10
    104d:	000446        	j	1062 <voiced_decision+0x9e>

00001050 <voiced_decision+0x8c>:
    1050:	441b           	addi.n	a4, a4, 1

00001052 <voiced_decision+0x8e>:
    1052:	c50b           	addi.n	a12, a5, -1
    1054:	8ccd           	ae_sext16	a12, a12
    1056:	0251c2        	s16i	a12, a1, 4
    1059:	351ce6        	bgei	a12, 1, 1092 <voiced_decision+0xce>
    105c:	3f3c16        	beqz	a12, 1453 <voiced_decision+0x48f>
    105f:	00f946        	j	1448 <voiced_decision+0x484>

00001062 <voiced_decision+0x9e>:
    1062:	609f14        	ae_lq32f.iu	aeq2, a15, 4
    1065:	f8e33d5f1f 	{ ae_lq32f.iu	aeq2, a15, 4; ae_maxq56s	aeq0, aeq2, aeq0 }
    106a:	fae33d1f1f 	{ ae_lq32f.iu	aeq0, a15, 4; ae_maxq56s	aeq2, aeq2, aeq0 }
    106f:	f8733d5f1f 	{ ae_lq32f.iu	aeq2, a15, 4; ae_maxq56s	aeq0, aeq0, aeq2 }
    1074:	fae33d1f1f 	{ ae_lq32f.iu	aeq0, a15, 4; ae_maxq56s	aeq2, aeq2, aeq0 }
    1079:	0120c4        	ae_maxq56s	aeq0, aeq0, aeq2
    107c:	098914        	ae_eqq56	b1, aeq1, aeq0
    107f:	cd0176        	bf	b1, 1050 <voiced_decision+0x8c>
    1082:	7198           	l32i.n	a9, a1, 28
    1084:	841b           	addi.n	a8, a4, 1
    1086:	909590        	addx2	a9, a5, a9
    1089:	698d           	ae_s16i.n	a8, a9, 0
    108b:	551b           	addi.n	a5, a5, 1
    108d:	855d           	ae_sext16	a5, a5
    108f:	ffef46        	j	1050 <voiced_decision+0x8c>

00001092 <voiced_decision+0xce>:
    1092:	7138           	l32i.n	a3, a1, 28
    1094:	040c           	movi.n	a4, 0
    1096:	050c           	movi.n	a5, 0
    1098:	fc1971        	l32r	a7, fc (900 <PD_INIT+0x50>)
    109b:	fbffd1        	l32r	a13, 98 (8000 <NR_vad2+0xe4>)
    109e:	360d34        	ae_cvtq48a32s	aeq0, a13
    10a1:	0012c6        	j	10f0 <voiced_decision+0x12c>

000010a4 <voiced_decision+0xe0>:
    10a4:	9c0c           	movi.n	a12, 9
    10a6:	a0ab20        	addx4	a10, a11, a2
    10a9:	fc1581        	l32r	a8, 100 (22f8 <Xfrac_num_pd_td32>)
    10ac:	01daa2        	addmi	a10, a10, 0x100
    10af:	accaa2        	addi	a10, a10, -84
    10b2:	0008e0        	callx8	a8
    10b5:	0291c2        	l16si	a12, a1, 4
    10b8:	21a9           	s32i.n	a10, a1, 8
    10ba:	fbf7d1        	l32r	a13, 98 (8000 <NR_vad2+0xe4>)
    10bd:	360d34        	ae_cvtq48a32s	aeq0, a13

000010c0 <voiced_decision+0xfc>:
    10c0:	332b           	addi.n	a3, a3, 2
    10c2:	441b           	addi.n	a4, a4, 1
    10c4:	9198           	l32i.n	a9, a1, 36
    10c6:	d18b           	addi.n	a13, a1, 8
    10c8:	60cd04        	ae_lq32f.i	aeq3, a13, 0
    10cb:	f8fbc0c1be 	{ addi	a11, a1, 12; ae_roundsp16q48sym	aep1, aeq3 }
    10d0:	a09590        	addx4	a9, a5, a9
    10d3:	421b04        	ae_sp16f.l.i	aep1, a11, 0
    10d6:	069182        	l16si	a8, a1, 12
    10d9:	09a9           	s32i.n	a10, a9, 0
    10db:	909560        	addx2	a9, a5, a6
    10de:	a08820        	addx4	a8, a8, a2
    10e1:	222882        	l32i	a8, a8, 136
    10e4:	551b           	addi.n	a5, a5, 1
    10e6:	855d           	ae_sext16	a5, a5
    10e8:	318080        	srai	a8, a8, 16
    10eb:	698d           	ae_s16i.n	a8, a9, 0
    10ed:	4aa4c7        	bge	a4, a12, 113b <voiced_decision+0x177>

000010f0 <voiced_decision+0x12c>:
    10f0:	23bd           	ae_l16si.n	a11, a3, 0
    10f2:	33ed           	ae_l16si.n	a14, a3, 2
    10f4:	c0eeb0        	sub	a14, a14, a11
    10f7:	a91e66        	bnei	a14, 1, 10a4 <voiced_decision+0xe0>
    10fa:	332b           	addi.n	a3, a3, 2
    10fc:	fd0440144e 	{ addi	a4, a4, 1; ae_movq56	aeq1, aeq0 }
    1101:	1ba4c7        	bge	a4, a12, 1120 <voiced_decision+0x15c>
    1104:	c0fc40        	sub	a15, a12, a4
    1107:	10af76        	loopgtz	a15, 111b <voiced_decision+0x157>
    110a:	239d           	ae_l16si.n	a9, a3, 0
    110c:	338d           	ae_l16si.n	a8, a3, 2
    110e:	c08890        	sub	a8, a8, a9
    1111:	0b1866        	bnei	a8, 1, 1120 <voiced_decision+0x15c>
    1114:	441b           	addi.n	a4, a4, 1
    1116:	f96a40233e 	{ addi	a3, a3, 2; ae_addsq56s	aeq1, aeq1, aeq0 }

0000111b <voiced_decision+0x157>:
    111b:	7138           	l32i.n	a3, a1, 28
    111d:	903430        	addx2	a3, a4, a3
    1120:	39c774        	ae_movpa24x2	aep4, a7, a7
    1123:	403304        	ae_lp16f.i	aep3, a3, 0
    1126:	07b424        	ae_addsp24s	aep2, aep3, aep4
    1129:	0aca84        	ae_cvtq48p24s.h	aeq3, aep2
    112c:	fa5e80818e 	{ addi	a8, a1, 8; ae_subsq56s	aeq2, aeq3, aeq1 }
    1131:	622804        	ae_sq32f.i	aeq2, a8, 0
    1134:	21a8           	l32i.n	a10, a1, 8
    1136:	ffe186        	j	10c0 <voiced_decision+0xfc>

00001139 <voiced_decision+0x175>:
	...

0000113b <voiced_decision+0x177>:
    113b:	449c47        	bne	a12, a4, 1183 <voiced_decision+0x1bf>

0000113e <voiced_decision+0x17a>:
    113e:	71a8           	l32i.n	a10, a1, 28
    1140:	90a4a0        	addx2	a10, a4, a10
    1143:	2aad           	ae_l16si.n	a10, a10, 0
    1145:	9c0c           	movi.n	a12, 9
    1147:	fbee81        	l32r	a8, 100 (22f8 <Xfrac_num_pd_td32>)
    114a:	0abd           	mov.n	a11, a10
    114c:	a0aa20        	addx4	a10, a10, a2
    114f:	01daa2        	addmi	a10, a10, 0x100
    1152:	accaa2        	addi	a10, a10, -84
    1155:	0008e0        	callx8	a8
    1158:	90c560        	addx2	a12, a5, a6
    115b:	91d8           	l32i.n	a13, a1, 36
    115d:	21a9           	s32i.n	a10, a1, 8
    115f:	f18b           	addi.n	a15, a1, 8
    1161:	600f04        	ae_lq32f.i	aeq0, a15, 0
    1164:	fae3c0c1ee 	{ addi	a14, a1, 12; ae_roundsp16q48sym	aep5, aeq0 }
    1169:	425e04        	ae_sp16f.l.i	aep5, a14, 0
    116c:	0691b2        	l16si	a11, a1, 12
    116f:	a0d5d0        	addx4	a13, a5, a13
    1172:	0da9           	s32i.n	a10, a13, 0
    1174:	a0bb20        	addx4	a11, a11, a2
    1177:	222bb2        	l32i	a11, a11, 136
    117a:	551b           	addi.n	a5, a5, 1
    117c:	855d           	ae_sext16	a5, a5
    117e:	31b0b0        	srai	a11, a11, 16
    1181:	6cbd           	ae_s16i.n	a11, a12, 0

00001183 <voiced_decision+0x1bf>:
    1183:	0215e6        	bgei	a5, 1, 1189 <voiced_decision+0x1c5>
    1186:	00b006        	j	144a <voiced_decision+0x486>
    1189:	190c           	movi.n	a9, 1
    118b:	6188           	l32i.n	a8, a1, 24
    118d:	02a576        	loopgtz	a5, 1193 <voiced_decision+0x1cf>
    1190:	09c894        	ae_s16ip	a9, a8, 2

00001193 <voiced_decision+0x1cf>:
    1193:	04d232        	addmi	a3, a2, 0x400
    1196:	1cc332        	addi	a3, a3, 28
    1199:	7e9382        	l16si	a8, a3, 252
    119c:	0218e6        	bgei	a8, 1, 11a2 <voiced_decision+0x1de>
    119f:	0068c6        	j	1346 <voiced_decision+0x382>
    11a2:	9178           	l32i.n	a7, a1, 36
    11a4:	61a8           	l32i.n	a10, a1, 24
    11a6:	090c           	movi.n	a9, 0
    11a8:	040c           	movi.n	a4, 0
    11aa:	10c2d2        	addi	a13, a2, 16
    11ad:	fbd5f1        	l32r	a15, 104 (78000 <_end+0x6b560>)
    11b0:	fbd6e1        	l32r	a14, 108 (10000 <_end+0x3560>)
    11b3:	364e34        	ae_cvtq48a32s	aeq1, a14
    11b6:	398ff4        	ae_movpa24x2	aep0, a15, a15
    11b9:	81d9           	s32i.n	a13, a1, 32
    11bb:	06fd           	mov.n	a15, a6
    11bd:	000486        	j	11d3 <voiced_decision+0x20f>

000011c0 <voiced_decision+0x1fc>:
	...

000011c1 <voiced_decision+0x1fd>:
    11c1:	180c           	movi.n	a8, 1
    11c3:	6a8d           	ae_s16i.n	a8, a10, 0

000011c5 <voiced_decision+0x201>:
    11c5:	774b           	addi.n	a7, a7, 4
    11c7:	aa2b           	addi.n	a10, a10, 2
    11c9:	ff2b           	addi.n	a15, a15, 2
    11cb:	991b           	addi.n	a9, a9, 1
    11cd:	c0b950        	sub	a11, a9, a5
    11d0:	172b16        	beqz	a11, 1346 <voiced_decision+0x382>

000011d3 <voiced_decision+0x20f>:
    11d3:	7e93b2        	l16si	a11, a3, 252
    11d6:	600704        	ae_lq32f.i	aeq0, a7, 0
    11d9:	bb0b           	addi.n	a11, a11, -1
    11db:	35a4b7        	bge	a4, a11, 1214 <voiced_decision+0x250>
    11de:	a0c420        	addx4	a12, a4, a2
    11e1:	030204        	ae_mulfq32sp16s.h	aeq0, aeq0, aep0
    11e4:	03dcc2        	addmi	a12, a12, 0x300
    11e7:	f86b30078e 	{ l32i	a8, a7, 0; ae_maxq56s	aeq0, aeq0, aeq1 }
    11ec:	ff10870cce 	{ addi	a12, a12, 112; ae_negq56	aeq3, aeq0 }
    11f1:	1a8076        	loop	a0, 120f <voiced_decision+0x24b>
    11f4:	7f2ce2        	l32i	a14, a12, 0x1fc
    11f7:	10c1d2        	addi	a13, a1, 16
    11fa:	c0ee80        	sub	a14, a14, a8
    11fd:	41e9           	s32i.n	a14, a1, 16
    11ff:	608d04        	ae_lq32f.i	aeq2, a13, 0
    1202:	09a324        	ae_ltq56s	b2, aeq3, aeq2
    1205:	cc4b           	addi.n	a12, a12, 4
    1207:	201276        	bt	b2, 122b <voiced_decision+0x267>
    120a:	441b           	addi.n	a4, a4, 1
    120c:	0ca4b7        	bge	a4, a11, 121c <voiced_decision+0x258>

0000120f <voiced_decision+0x24b>:
    120f:	fff786        	j	11f1 <voiced_decision+0x22d>

00001212 <voiced_decision+0x24e>:
	...

00001214 <voiced_decision+0x250>:
    1214:	030204        	ae_mulfq32sp16s.h	aeq0, aeq0, aep0
    1217:	f86b30078e 	{ l32i	a8, a7, 0; ae_maxq56s	aeq0, aeq0, aeq1 }

0000121c <voiced_decision+0x258>:
    121c:	a0e420        	addx4	a14, a4, a2
    121f:	03dee2        	addmi	a14, a14, 0x300
    1222:	70cee2        	addi	a14, a14, 112
    1225:	7f2ee2        	l32i	a14, a14, 0x1fc
    1228:	c0ee80        	sub	a14, a14, a8

0000122b <voiced_decision+0x267>:
    122b:	10c1c2        	addi	a12, a1, 16
    122e:	60d1e0        	abs	a13, a14
    1231:	41d9           	s32i.n	a13, a1, 16
    1233:	60cc04        	ae_lq32f.i	aeq3, a12, 0
    1236:	098734        	ae_leq56s	b3, aeq3, aeq0
    1239:	840376        	bf	b3, 11c1 <voiced_decision+0x1fd>
    123c:	fbb4b1        	l32r	a11, 10c (2ccccd <_end+0x2c022d>)
    123f:	407f04        	ae_lp16f.i	aep7, a15, 0
    1242:	42a5e2        	movi	a14, 0x542
    1245:	8188           	l32i.n	a8, a1, 32
    1247:	90c420        	addx2	a12, a4, a2
    124a:	412ce4        	ae_lp16f.x	aep2, a12, a14
    124d:	401804        	ae_lp16f.i	aep1, a8, 0
    1250:	e844ba015f 	{ ae_sq56s.i	aeq0, a1, 40; ae_mulfp24s.hh	aeq0, aep1, aep2 }
    1255:	0a8f84        	ae_cvtq48p24s.h	aeq2, aep7
    1258:	f8e7e26bbf 	{ ae_movpa24x2	aep6, a11, a11; ae_roundsp24q48sym	aep1, aeq0 }
    125d:	016144        	ae_mulfp24s.hh	aeq0, aep6, aep1
    1260:	35a074        	ae_sraiq56	aeq2, aeq2, 1
    1263:	098294        	ae_ltq56s	b9, aeq2, aeq0
    1266:	610154        	ae_lq56.i	aeq0, a1, 40
    1269:	130976        	bf	b9, 1280 <voiced_decision+0x2bc>
    126c:	1c0c           	movi.n	a12, 1
    126e:	6acd           	ae_s16i.n	a12, a10, 0

00001270 <voiced_decision+0x2ac>:
    1270:	7e93e2        	l16si	a14, a3, 252
    1273:	d41b           	addi.n	a13, a4, 1
    1275:	ee0b           	addi.n	a14, a14, -1
    1277:	72e4e0        	salt	a14, a4, a14
    127a:	934de0        	movnez	a4, a13, a14
    127d:	ffd106        	j	11c5 <voiced_decision+0x201>

00001280 <voiced_decision+0x2bc>:
    1280:	fba4e1        	l32r	a14, 110 (466666 <_end+0x459bc6>)
    1283:	39bee4        	ae_movpa24x2	aep3, a14, a14
    1286:	e82cba015f 	{ ae_sq56s.i	aeq0, a1, 40; ae_mulfp24s.hh	aeq0, aep3, aep1 }
    128b:	04dcc2        	addmi	a12, a12, 0x400
    128e:	d6c3c1ccce 	{ addi	a12, a12, 28; ae_ltq56s	b15, aeq2, aeq0 }
    1293:	7f9cc2        	l16si	a12, a12, 254
    1296:	610154        	ae_lq56.i	aeq0, a1, 40
    1299:	0c0f76        	bf	b15, 12a9 <voiced_decision+0x2e5>
    129c:	1b0c           	movi.n	a11, 1
    129e:	fbcc82        	addi	a8, a12, -5
    12a1:	5388b0        	max	a8, a8, a11
    12a4:	6a8d           	ae_s16i.n	a8, a10, 0
    12a6:	fff186        	j	1270 <voiced_decision+0x2ac>

000012a9 <voiced_decision+0x2e5>:
    12a9:	fb9ad1        	l32r	a13, 114 (533333 <_end+0x526893>)
    12ac:	39cdd4        	ae_movpa24x2	aep4, a13, a13
    12af:	e830ba015f 	{ ae_sq56s.i	aeq0, a1, 40; ae_mulfp24s.hh	aeq0, aep4, aep1 }
    12b4:	098254        	ae_ltq56s	b5, aeq2, aeq0
    12b7:	610154        	ae_lq56.i	aeq0, a1, 40
    12ba:	0c0576        	bf	b5, 12ca <voiced_decision+0x306>
    12bd:	180c           	movi.n	a8, 1
    12bf:	fccce2        	addi	a14, a12, -4
    12c2:	53ee80        	max	a14, a14, a8
    12c5:	6aed           	ae_s16i.n	a14, a10, 0
    12c7:	ffe946        	j	1270 <voiced_decision+0x2ac>

000012ca <voiced_decision+0x306>:
    12ca:	fb93b1        	l32r	a11, 118 (5851ec <_end+0x57874c>)
    12cd:	39dbb4        	ae_movpa24x2	aep5, a11, a11
    12d0:	e834ba015f 	{ ae_sq56s.i	aeq0, a1, 40; ae_mulfp24s.hh	aeq0, aep5, aep1 }
    12d5:	0982b4        	ae_ltq56s	b11, aeq2, aeq0
    12d8:	610154        	ae_lq56.i	aeq0, a1, 40
    12db:	0c0b76        	bf	b11, 12eb <voiced_decision+0x327>
    12de:	1e0c           	movi.n	a14, 1
    12e0:	feccd2        	addi	a13, a12, -2
    12e3:	53dde0        	max	a13, a13, a14
    12e6:	6add           	ae_s16i.n	a13, a10, 0
    12e8:	ffe106        	j	1270 <voiced_decision+0x2ac>

000012eb <voiced_decision+0x327>:
    12eb:	fb8c81        	l32r	a8, 11c (5ae148 <_end+0x5a16a8>)
    12ee:	39e884        	ae_movpa24x2	aep6, a8, a8
    12f1:	e838ba015f 	{ ae_sq56s.i	aeq0, a1, 40; ae_mulfp24s.hh	aeq0, aep6, aep1 }
    12f6:	098214        	ae_ltq56s	b1, aeq2, aeq0
    12f9:	610154        	ae_lq56.i	aeq0, a1, 40
    12fc:	0b0176        	bf	b1, 130b <voiced_decision+0x347>
    12ff:	1d0c           	movi.n	a13, 1
    1301:	bc0b           	addi.n	a11, a12, -1
    1303:	53bbd0        	max	a11, a11, a13
    1306:	6abd           	ae_s16i.n	a11, a10, 0
    1308:	ffd906        	j	1270 <voiced_decision+0x2ac>

0000130b <voiced_decision+0x347>:
    130b:	fb85e1        	l32r	a14, 120 (5ccccd <_end+0x5c022d>)
    130e:	39fee4        	ae_movpa24x2	aep7, a14, a14
    1311:	e83cba015f 	{ ae_sq56s.i	aeq0, a1, 40; ae_mulfp24s.hh	aeq0, aep7, aep1 }
    1316:	098274        	ae_ltq56s	b7, aeq2, aeq0
    1319:	610154        	ae_lq56.i	aeq0, a1, 40
    131c:	040776        	bf	b7, 1324 <voiced_decision+0x360>
    131f:	6acd           	ae_s16i.n	a12, a10, 0
    1321:	ffd2c6        	j	1270 <voiced_decision+0x2ac>

00001324 <voiced_decision+0x360>:
    1324:	1d0c           	movi.n	a13, 1
    1326:	fb7fe1        	l32r	a14, 124 (600000 <_end+0x5f3560>)
    1329:	399ee4        	ae_movpa24x2	aep1, a14, a14
    132c:	f9040ffcbe 	{ addi	a11, a12, -1; ae_mulfq32sp24s.h	aeq2, aeq0, aep1 }
    1331:	53bbd0        	max	a11, a11, a13
    1334:	d5d6001c8e 	{ addi	a8, a12, 1; ae_leq56s	b8, aeq3, aeq2 }
    1339:	0d1c           	movi.n	a13, 16
    133b:	4388d0        	min	a8, a8, a13
    133e:	c38b80        	movf	a8, a11, b8
    1341:	6a8d           	ae_s16i.n	a8, a10, 0
    1343:	ffca46        	j	1270 <voiced_decision+0x2ac>

00001346 <voiced_decision+0x382>:
    1346:	61b8           	l32i.n	a11, a1, 24
    1348:	05cd           	mov.n	a12, a5
    134a:	fb5681        	l32r	a8, a4 (9de0 <xt_memcpy>)
    134d:	05d2a2        	addmi	a10, a2, 0x500
    1350:	1acaa2        	addi	a10, a10, 26
    1353:	0008e0        	callx8	a8

00001356 <voiced_decision+0x392>:
    1356:	7e5352        	s16i	a5, a3, 252
    1359:	06fd           	mov.n	a15, a6
    135b:	608104        	ae_lq32f.i	aeq2, a1, 0
    135e:	fb7341        	l32r	a4, 12c (828f <Mel_filter+0x2b>)
    1361:	fb7371        	l32r	a7, 130 (30000 <_end+0x23560>)
    1364:	fb5ab1        	l32r	a11, cc (4000 <Voice_WB_TX_Prcs+0x5c0>)
    1367:	fb7381        	l32r	a8, 134 (20000 <_end+0x13560>)
    136a:	fb6fa1        	l32r	a10, 128 (fffe0000 <_end+0xfffd3560>)
    136d:	fb7291        	l32r	a9, 138 (c148 <export_parameter_array+0x18>)
    1370:	364a34        	ae_cvtq48a32s	aeq1, a10
    1373:	03ad           	mov.n	a10, a3
    1375:	5fa576        	loopgtz	a5, 13d8 <voiced_decision+0x414>
    1378:	7f9ac2        	l16si	a12, a10, 254
    137b:	400f04        	ae_lp16f.i	aep0, a15, 0
    137e:	433ca6        	blti	a12, 3, 13c5 <voiced_decision+0x401>
    1381:	8d0c           	movi.n	a13, 8
    1383:	16adc7        	bge	a13, a12, 139d <voiced_decision+0x3d9>
    1386:	fc043ae0ef 	{ ae_sllisq56s	aeq3, aeq2, 2; ae_cvtq48p24s.h	aeq0, aep0 }
    138b:	06fa14        	ae_subsq56s	aeq3, aeq3, aeq2
    138e:	098394        	ae_ltq56s	b9, aeq3, aeq0
    1391:	080976        	bf	b9, 139d <voiced_decision+0x3d9>
    1394:	360734        	ae_cvtq48a32s	aeq0, a7
    1397:	065804        	ae_addsq56s	aeq1, aeq1, aeq0
    139a:	000c06        	j	13ce <voiced_decision+0x40a>

0000139d <voiced_decision+0x3d9>:
    139d:	176ca6        	blti	a12, 6, 13b8 <voiced_decision+0x3f4>
    13a0:	fc043b20df 	{ ae_sraiq56	aeq3, aeq2, 1; ae_cvtq48p24s.h	aeq0, aep0 }
    13a5:	06fa04        	ae_addsq56s	aeq3, aeq3, aeq2
    13a8:	0983a4        	ae_ltq56s	b10, aeq3, aeq0
    13ab:	090a76        	bf	b10, 13b8 <voiced_decision+0x3f4>
    13ae:	360834        	ae_cvtq48a32s	aeq0, a8
    13b1:	065804        	ae_addsq56s	aeq1, aeq1, aeq0
    13b4:	000586        	j	13ce <voiced_decision+0x40a>

000013b7 <voiced_decision+0x3f3>:
	...

000013b8 <voiced_decision+0x3f4>:
    13b8:	fb54e1        	l32r	a14, 108 (10000 <_end+0x3560>)
    13bb:	36ce34        	ae_cvtq48a32s	aeq3, a14
    13be:	065b04        	ae_addsq56s	aeq1, aeq1, aeq3
    13c1:	000246        	j	13ce <voiced_decision+0x40a>

000013c4 <voiced_decision+0x400>:
	...

000013c5 <voiced_decision+0x401>:
    13c5:	121c26        	beqi	a12, 1, 13db <voiced_decision+0x417>

000013c8 <voiced_decision+0x404>:
    13c8:	360434        	ae_cvtq48a32s	aeq0, a4
    13cb:	065814        	ae_subsq56s	aeq1, aeq1, aeq0

000013ce <voiced_decision+0x40a>:
    13ce:	aa2b           	addi.n	a10, a10, 2
    13d0:	ff2b           	addi.n	a15, a15, 2
    13d2:	14c1c2        	addi	a12, a1, 20
    13d5:	621c04        	ae_sq32f.i	aeq1, a12, 0

000013d8 <voiced_decision+0x414>:
    13d8:	000686        	j	13f6 <voiced_decision+0x432>

000013db <voiced_decision+0x417>:
    13db:	302bb4        	ae_cvtp24a16x2.ll	aep2, a11, a11
    13de:	362054        	ae_sllisq56s	aeq0, aeq2, 1
    13e1:	032084        	ae_mulafq32sp16s.h	aeq0, aeq2, aep2
    13e4:	0ac884        	ae_cvtq48p24s.h	aeq3, aep0
    13e7:	0983b4        	ae_ltq56s	b11, aeq3, aeq0
    13ea:	da0b76        	bf	b11, 13c8 <voiced_decision+0x404>
    13ed:	36c934        	ae_cvtq48a32s	aeq3, a9
    13f0:	065b14        	ae_subsq56s	aeq1, aeq1, aeq3
    13f3:	fff5c6        	j	13ce <voiced_decision+0x40a>

000013f6 <voiced_decision+0x432>:
    13f6:	91b8           	l32i.n	a11, a1, 36
    13f8:	fb2b81        	l32r	a8, a4 (9de0 <xt_memcpy>)
    13fb:	6a2392        	l32i	a9, a3, 0x1a8
    13fe:	8e7c           	movi.n	a14, -8
    1400:	8f0c           	movi.n	a15, 8
    1402:	11c5e0        	slli	a12, a5, 2
    1405:	05d2a2        	addmi	a10, a2, 0x500
    1408:	f9ebc041de 	{ addi	a13, a1, 4; ae_roundsp16q48sym	aep3, aeq1 }
    140d:	423d04        	ae_sp16f.l.i	aep3, a13, 0
    1410:	0291d2        	l16si	a13, a1, 4
    1413:	6ccaa2        	addi	a10, a10, 108
    1416:	41c1c0        	srli	a12, a12, 1
    1419:	43ddf0        	min	a13, a13, a15
    141c:	53dde0        	max	a13, a13, a14
    141f:	51d9           	s32i.n	a13, a1, 20
    1421:	99da           	add.n	a9, a9, a13
    1423:	0d1c           	movi.n	a13, 16
    1425:	4399d0        	min	a9, a9, a13
    1428:	4199           	s32i.n	a9, a1, 16
    142a:	0d0c           	movi.n	a13, 0
    142c:	5399d0        	max	a9, a9, a13
    142f:	6a6392        	s32i	a9, a3, 0x1a8
    1432:	0008e0        	callx8	a8
    1435:	05cd           	mov.n	a12, a5
    1437:	06bd           	mov.n	a11, a6
    1439:	fb1a81        	l32r	a8, a4 (9de0 <xt_memcpy>)
    143c:	05d2a2        	addmi	a10, a2, 0x500
    143f:	42caa2        	addi	a10, a10, 66
    1442:	0008e0        	callx8	a8
    1445:	f01d           	retw.n

00001447 <voiced_decision+0x483>:
	...

00001448 <voiced_decision+0x484>:
    1448:	050c           	movi.n	a5, 0

0000144a <voiced_decision+0x486>:
    144a:	04d232        	addmi	a3, a2, 0x400
    144d:	1cc332        	addi	a3, a3, 28
    1450:	ffc086        	j	1356 <voiced_decision+0x392>

00001453 <voiced_decision+0x48f>:
    1453:	040c           	movi.n	a4, 0
    1455:	050c           	movi.n	a5, 0
    1457:	ff38c6        	j	113e <voiced_decision+0x17a>

0000145a <voiced_decision+0x496>:
	...

0000145c <Pitch_by_Corel>:
    145c:	00e136        	entry	a1, 112
    145f:	aca052        	movi	a5, 172
    1462:	490c           	movi.n	a9, 4
    1464:	05d3c2        	addmi	a12, a3, 0x500
    1467:	03d382        	addmi	a8, a3, 0x300
    146a:	62c242        	addi	a4, a2, 98
    146d:	070c           	movi.n	a7, 0
    146f:	fb33a1        	l32r	a10, 13c (4ccccd <_end+0x4c022d>)
    1472:	39aaa4        	ae_movpa24x2	aep2, a10, a10
    1475:	0179           	s32i.n	a7, a1, 0
    1477:	d149           	s32i.n	a4, a1, 52
    1479:	8028e2        	l32i	a14, a8, 0x200
    147c:	bc8b           	addi.n	a11, a12, 8
    147e:	f3f6b0        	wur.ae_cbegin0	a11
    1481:	18ccc2        	addi	a12, a12, 24
    1484:	f3f7c0        	wur.ae_cend0	a12
    1487:	0e68           	l32i.n	a6, a14, 0
    1489:	8189           	s32i.n	a8, a1, 32
    148b:	040c           	movi.n	a4, 0
    148d:	fcc662        	addi	a6, a6, -4
    1490:	fc24fbae9f 	{ ae_lq32f.c	aeq1, a14, a9; nop }
    1495:	0ef8           	l32i.n	a15, a14, 0
    1497:	fc24fb8e9f 	{ ae_lq32f.c	aeq0, a14, a9; nop }
    149c:	0ed8           	l32i.n	a13, a14, 0
    149e:	fccff2        	addi	a15, a15, -4
    14a1:	fc24fbee9f 	{ ae_lq32f.c	aeq3, a14, a9; nop }
    14a6:	0ec8           	l32i.n	a12, a14, 0
    14a8:	fccdd2        	addi	a13, a13, -4
    14ab:	fc24fbce9f 	{ ae_lq32f.c	aeq2, a14, a9; nop }
    14b0:	fc24fbae9f 	{ ae_lq32f.c	aeq1, a14, a9; nop }
    14b5:	fcccc2        	addi	a12, a12, -4
    14b8:	8068e2        	s32i	a14, a8, 0x200
    14bb:	1184f0        	slli	a8, a4, 1
    14be:	c08280        	sub	a8, a2, a8
    14c1:	fc2485088e 	{ addi	a8, a8, 80; ae_zeroq56	aeq0 }

000014c6 <Pitch_by_Corel+0x6a>:
    14c6:	d198           	l32i.n	a9, a1, 52
    14c8:	608614        	ae_lq32f.i	aeq2, a6, 4
    14cb:	1ea0a2        	movi	a10, 30
    14ce:	409914        	ae_lp16f.iu	aep1, a9, 2
    14d1:	078a76        	loop	a10, 14dc <Pitch_by_Corel+0x80>
    14d4:	408814        	ae_lp16f.iu	aep0, a8, 2
    14d7:	e404ac991f 	{ ae_lp16f.iu	aep1, a9, 2; ae_mulafs56p24s.hh	aeq0, aep1, aep0 }

000014dc <Pitch_by_Corel+0x80>:
    14dc:	a08430        	addx4	a8, a4, a3
    14df:	35c174        	ae_sraiq56	aeq3, aeq0, 5
    14e2:	067934        	ae_roundsq32asym	aeq1, aeq3
    14e5:	fbea7d0f1f 	{ ae_lq32f.i	aeq0, a15, 4; ae_addsq56s	aeq3, aeq1, aeq2 }
    14ea:	f87a7d4d1f 	{ ae_lq32f.i	aeq2, a13, 4; ae_addsq56s	aeq0, aeq3, aeq0 }
    14ef:	fae27d6c1f 	{ ae_lq32f.i	aeq3, a12, 4; ae_addsq56s	aeq2, aeq0, aeq2 }
    14f4:	062b04        	ae_addsq56s	aeq0, aeq2, aeq3
    14f7:	36c194        	ae_sllisq56s	aeq3, aeq0, 6
    14fa:	fe3c50985f 	{ add	a9, a8, a5; ae_roundsq32asym	aeq2, aeq3 }
    14ff:	62a854        	ae_sq32f.x	aeq2, a8, a5
    1502:	09b8           	l32i.n	a11, a9, 0
    1504:	f8690000ef 	{ movi	a14, 0; ae_mulrfq32sp24s.h	aeq0, aeq1, aep2 }
    1509:	53bbe0        	max	a11, a11, a14
    150c:	09b9           	s32i.n	a11, a9, 0
    150e:	624614        	ae_sq32f.iu	aeq0, a6, 4
    1511:	60df14        	ae_lq32f.iu	aeq3, a15, 4
    1514:	0ba7b7        	bge	a7, a11, 1523 <Pitch_by_Corel+0xc7>
    1517:	0824a6        	blti	a4, 2, 1523 <Pitch_by_Corel+0xc7>
    151a:	792c           	movi.n	a9, 39
    151c:	032947        	blt	a9, a4, 1523 <Pitch_by_Corel+0xc7>
    151f:	0b7d           	mov.n	a7, a11
    1521:	01b9           	s32i.n	a11, a1, 0
    1523:	fb6940144e 	{ addi	a4, a4, 1; ae_mulrfq32sp24s.h	aeq3, aeq3, aep2 }
    1528:	844d           	ae_sext16	a4, a4
    152a:	623f04        	ae_sq32f.i	aeq3, a15, 0
    152d:	609d14        	ae_lq32f.iu	aeq2, a13, 4
    1530:	fb680d64ae 	{ addi	a10, a4, -42; ae_mulrfq32sp24s.h	aeq2, aeq2, aep2 }
    1535:	1184f0        	slli	a8, a4, 1
    1538:	622d04        	ae_sq32f.i	aeq2, a13, 0
    153b:	601c14        	ae_lq32f.iu	aeq0, a12, 4
    153e:	f86815828f 	{ sub	a8, a2, a8; ae_mulrfq32sp24s.h	aeq0, aeq0, aep2 }
    1543:	50c882        	addi	a8, a8, 80

00001546 <Pitch_by_Corel+0xea>:
    1546:	fc24b98c0f 	{ ae_sq32f.i	aeq0, a12, 0; ae_zeroq56	aeq0 }
    154b:	f77a56        	bnez	a10, 14c6 <Pitch_by_Corel+0x6a>
    154e:	faef91        	l32r	a9, 10c (2ccccd <_end+0x2c022d>)
    1551:	604104        	ae_lq32f.i	aeq1, a1, 0
    1554:	01d382        	addmi	a8, a3, 0x100
    1557:	54c882        	addi	a8, a8, 84
    155a:	608804        	ae_lq32f.i	aeq2, a8, 0
    155d:	061a14        	ae_subsq56s	aeq0, aeq1, aeq2
    1560:	ff00e2099f 	{ ae_movpa24x2	aep0, a9, a9; ae_satq48s	aeq3, aeq0 }
    1565:	0882d4        	ae_mularfq32sp24s.h	aeq2, aeq3, aep0
    1568:	064a44        	ae_satq48s	aeq1, aeq2
    156b:	621804        	ae_sq32f.i	aeq1, a8, 0
    156e:	8188           	l32i.n	a8, a1, 32
    1570:	02d3f2        	addmi	a15, a3, 0x200
    1573:	5523b2        	l32i	a11, a3, 0x154
    1576:	7e28a2        	l32i	a10, a8, 0x1f8
    1579:	50cff2        	addi	a15, a15, 80
    157c:	0a1392        	l16ui	a9, a3, 20
    157f:	43aab0        	min	a10, a10, a11
    1582:	7e68a2        	s32i	a10, a8, 0x1f8
    1585:	0279f6        	bgeui	a9, 7, 158b <Pitch_by_Corel+0x12f>
    1588:	013746        	j	1a69 <Pitch_by_Corel+0x60d>
    158b:	11a9           	s32i.n	a10, a1, 4
    158d:	080c           	movi.n	a8, 0
    158f:	491c           	movi.n	a9, 20
    1591:	1f8976        	loop	a9, 15b4 <Pitch_by_Corel+0x158>
    1594:	a09830        	addx4	a9, a8, a3
    1597:	881b           	addi.n	a8, a8, 1
    1599:	995a           	add.n	a9, a9, a5
    159b:	888d           	ae_sext16	a8, a8
    159d:	2b2992        	l32i	a9, a9, 172
    15a0:	a0b830        	addx4	a11, a8, a3
    15a3:	881b           	addi.n	a8, a8, 1
    15a5:	bb5a           	add.n	a11, a11, a5
    15a7:	2b2bb2        	l32i	a11, a11, 172
    15aa:	4399a0        	min	a9, a9, a10
    15ad:	888d           	ae_sext16	a8, a8
    15af:	43ab90        	min	a10, a11, a9
    15b2:	11a9           	s32i.n	a10, a1, 4

000015b4 <Pitch_by_Corel+0x158>:
    15b4:	fab6c1        	l32r	a12, 8c (7fffffff <_end+0x7fff355f>)
    15b7:	05d3e2        	addmi	a14, a3, 0x500
    15ba:	fae191        	l32r	a9, 140 (6ccccd <_end+0x6c022d>)
    15bd:	60cf04        	ae_lq32f.i	aeq3, a15, 0
    15c0:	01d382        	addmi	a8, a3, 0x100
    15c3:	02d3a2        	addmi	a10, a3, 0x200
    15c6:	b14b           	addi.n	a11, a1, 4
    15c8:	600b04        	ae_lq32f.i	aeq0, a11, 0
    15cb:	f8caa2        	addi	a10, a10, -8
    15ce:	58c882        	addi	a8, a8, 88
    15d1:	f3f680        	wur.ae_cbegin0	a8
    15d4:	f3f7a0        	wur.ae_cend0	a10
    15d7:	06b814        	ae_subsq56s	aeq2, aeq3, aeq0
    15da:	fd80e2199f 	{ ae_movpa24x2	aep1, a9, a9; ae_satq48s	aeq1, aeq2 }
    15df:	081254        	ae_mularfq32sp24s.h	aeq0, aeq1, aep1
    15e2:	81b8           	l32i.n	a11, a1, 32
    15e4:	ff00c004df 	{ movi	a13, 4; ae_satq48s	aeq3, aeq0 }
    15e9:	623f04        	ae_sq32f.i	aeq3, a15, 0
    15ec:	812ba2        	l32i	a10, a11, 0x204
    15ef:	090c           	movi.n	a9, 0
    15f1:	609ee4        	ae_lq32f.iu	aeq2, a14, -8
    15f4:	fc24f82adf 	{ ae_sq32f.c	aeq2, a10, a13; nop }
    15f9:	816ba2        	s32i	a10, a11, 0x204
    15fc:	7e6bc2        	s32i	a12, a11, 0x1f8
    15ff:	0a5392        	s16i	a9, a3, 20

00001602 <Pitch_by_Corel+0x1a6>:
    1602:	600f04        	ae_lq32f.i	aeq0, a15, 0
    1605:	02d3b2        	addmi	a11, a3, 0x200
    1608:	facfc1        	l32r	a12, 144 (59999a <_end+0x58cefa>)
    160b:	398cc4        	ae_movpa24x2	aep0, a12, a12
    160e:	f800054bbe 	{ addi	a11, a11, 84; ae_mulfq32sp24s.h	aeq0, aeq0, aep0 }
    1613:	604b04        	ae_lq32f.i	aeq1, a11, 0
    1616:	098104        	ae_ltq56s	b0, aeq1, aeq0
    1619:	2179           	s32i.n	a7, a1, 8
    161b:	021076        	bt	b0, 1621 <Pitch_by_Corel+0x1c5>
    161e:	008f86        	j	1860 <Pitch_by_Corel+0x404>
    1621:	9423d2        	l32i	a13, a3, 0x250
    1624:	fac9e1        	l32r	a14, 148 (733333 <_end+0x726893>)
    1627:	398ee4        	ae_movpa24x2	aep0, a14, a14
    162a:	21d9           	s32i.n	a13, a1, 8

0000162c <Pitch_by_Corel+0x1d0>:
    162c:	60cb04        	ae_lq32f.i	aeq3, a11, 0
    162f:	a18b           	addi.n	a10, a1, 8
    1631:	600a04        	ae_lq32f.i	aeq0, a10, 0
    1634:	06b814        	ae_subsq56s	aeq2, aeq3, aeq0
    1637:	064a44        	ae_satq48s	aeq1, aeq2
    163a:	080264        	ae_mulafq32sp24s.h	aeq0, aeq1, aep0
    163d:	fac3f1        	l32r	a15, 14c (3fff <Voice_WB_TX_Prcs+0x5bf>)
    1640:	068844        	ae_satq48s	aeq2, aeq0
    1643:	06e834        	ae_roundsq32sym	aeq3, aeq2
    1646:	623b04        	ae_sq32f.i	aeq3, a11, 0
    1649:	952382        	l32i	a8, a3, 0x254
    164c:	faa0b1        	l32r	a11, cc (4000 <Voice_WB_TX_Prcs+0x5c0>)
    164f:	364b34        	ae_cvtq48a32s	aeq1, a11
    1652:	f97707819e 	{ addi	a9, a1, 120; ae_maxq56s	aeq1, aeq1, aeq2 }
    1657:	6319a4        	ae_sq56s.i	aeq1, a9, -48
    165a:	022f87        	blt	a15, a8, 1660 <Pitch_by_Corel+0x204>
    165d:	9563b2        	s32i	a11, a3, 0x254

00001660 <Pitch_by_Corel+0x204>:
    1660:	fa87a1        	l32r	a10, 7c (ca94 <p_ecnr_mem>)
    1663:	0aa8           	l32i.n	a10, a10, 0
    1665:	07bd           	mov.n	a11, a7
    1667:	faba81        	l32r	a8, 150 (fc4 <voiced_decision>)
    166a:	52daa2        	addmi	a10, a10, 0x5200
    166d:	b8caa2        	addi	a10, a10, -72
    1670:	0008e0        	callx8	a8
    1673:	fa82b1        	l32r	a11, 7c (ca94 <p_ecnr_mem>)
    1676:	080c           	movi.n	a8, 0
    1678:	0bb8           	l32i.n	a11, a11, 0
    167a:	0a0c           	movi.n	a10, 0
    167c:	a90c           	movi.n	a9, 10
    167e:	18dbb2        	addmi	a11, a11, 0x1800
    1681:	6ccbc2        	addi	a12, a11, 108
    1684:	91c9           	s32i.n	a12, a1, 36
    1686:	9a2bb2        	l32i	a11, a11, 0x268
    1689:	088976        	loop	a9, 1695 <Pitch_by_Corel+0x239>
    168c:	a098b0        	addx4	a9, a8, a11
    168f:	881b           	addi.n	a8, a8, 1
    1691:	09a9           	s32i.n	a10, a9, 0
    1693:	888d           	ae_sext16	a8, a8

00001695 <Pitch_by_Corel+0x239>:
    1695:	91a8           	l32i.n	a10, a1, 36
    1697:	7f2aa2        	l32i	a10, a10, 0x1fc
    169a:	080c           	movi.n	a8, 0
    169c:	a92c           	movi.n	a9, 42
    169e:	28caa2        	addi	a10, a10, 40
    16a1:	0c8976        	loop	a9, 16b1 <Pitch_by_Corel+0x255>
    16a4:	909830        	addx2	a9, a8, a3
    16a7:	881b           	addi.n	a8, a8, 1
    16a9:	fc1992        	l16ui	a9, a9, 0x1f8
    16ac:	888d           	ae_sext16	a8, a8
    16ae:	09ca94        	ae_s16ip	a9, a10, 2
    16b1:	e35a           	add.n	a14, a3, a5
    16b3:	91b8           	l32i.n	a11, a1, 36
    16b5:	040c           	movi.n	a4, 0
    16b7:	1023c2        	l32i	a12, a3, 64
    16ba:	834b           	addi.n	a8, a3, 4
    16bc:	a189           	s32i.n	a8, a1, 40
    16be:	63c9           	s32i.n	a12, a3, 24
    16c0:	e149           	s32i.n	a4, a1, 56
    16c2:	7f2bb2        	l32i	a11, a11, 0x1fc
    16c5:	240c           	movi.n	a4, 2
    16c7:	04afc2        	movi	a12, -252
    16ca:	2ccbb2        	addi	a11, a11, 44
    16cd:	80bbc0        	add	a11, a11, a12
    16d0:	26a0c2        	movi	a12, 38

000016d3 <Pitch_by_Corel+0x277>:
    16d3:	12ac16        	beqz	a12, 1801 <Pitch_by_Corel+0x3a5>
    16d6:	127c96        	bltz	a12, 1801 <Pitch_by_Corel+0x3a5>
    16d9:	17ac76        	loopgtz	a12, 16f4 <Pitch_by_Corel+0x298>
    16dc:	0301c0        	rsr.lend	a12
    16df:	1300c0        	wsr.lbeg	a12
    16e2:	0dccc2        	addi	a12, a12, 13
    16e5:	01dcc2        	addmi	a12, a12, 0x100
    16e8:	1301c0        	wsr.lend	a12
    16eb:	002000        	isync
    16ee:	0302c0        	rsr.lcount	a12
    16f1:	01ccc2        	addi	a12, a12, 1
    16f4:	090c           	movi.n	a9, 0
    16f6:	402304        	ae_lp16f.i	aep2, a3, 0
    16f9:	de4b           	addi.n	a13, a14, 4
    16fb:	4e28           	l32i.n	a2, a14, 16
    16fd:	3ea8           	l32i.n	a10, a14, 12
    16ff:	1e78           	l32i.n	a7, a14, 4
    1701:	2e68           	l32i.n	a6, a14, 8
    1703:	0e88           	l32i.n	a8, a14, 0
    1705:	90f430        	addx2	a15, a4, a3
    1708:	fc9fc2        	l16si	a12, a15, 0x1f8
    170b:	539890        	max	a9, a8, a9
    170e:	539790        	max	a9, a7, a9
    1711:	539690        	max	a9, a6, a9
    1714:	539a90        	max	a9, a10, a9
    1717:	539290        	max	a9, a2, a9
    171a:	a0a430        	addx4	a10, a4, a3
    171d:	78c1e2        	addi	a14, a1, 120
    1720:	614ea4        	ae_lq56.i	aeq1, a14, -48
    1723:	d46bfb9a5f 	{ ae_lq32f.x	aeq0, a10, a5; ae_mulfq32sp16u.h	aeq1, aeq1, aep2 }
    1728:	3580f4        	ae_sraiq56	aeq2, aeq0, 3
    172b:	d65453eddf 	{ or	a14, a13, a13; ae_ltq56s	b1, aeq1, aeq2 }
    1730:	da5a           	add.n	a13, a10, a5
    1732:	0a0c           	movi.n	a10, 0
    1734:	021176        	bt	b1, 173a <Pitch_by_Corel+0x2de>
    1737:	002f46        	j	17f8 <Pitch_by_Corel+0x39c>
    173a:	0d88           	l32i.n	a8, a13, 0
    173c:	c08890        	sub	a8, a8, a9
    173f:	0ab856        	bnez	a8, 17ee <Pitch_by_Corel+0x392>
    1742:	a1d8           	l32i.n	a13, a1, 40
    1744:	7e9b92        	l16si	a9, a11, 252
    1747:	608104        	ae_lq32f.i	aeq2, a1, 0
    174a:	404d04        	ae_lp16f.i	aep4, a13, 0
    174d:	043916        	beqz	a9, 1794 <Pitch_by_Corel+0x338>

00001750 <Pitch_by_Corel+0x2f4>:
    1750:	03c2a4        	ae_mulfq32sp16u.h	aeq2, aeq2, aep4
    1753:	fa80a1        	l32r	a10, 154 (70a3d7 <_end+0x6fd937>)
    1756:	03caa4        	ae_mulfq32sp16u.h	aeq3, aeq2, aep4
    1759:	39baa4        	ae_movpa24x2	aep3, a10, a10
    175c:	083ce4        	ae_mulfq32sp24s.h	aeq1, aeq3, aep3
    175f:	fa7e81        	l32r	a8, 158 (39999a <_end+0x38cefa>)
    1762:	d6448fbcde 	{ addi	a13, a12, -5; ae_ltq56s	b2, aeq1, aeq0 }
    1767:	39e884        	ae_movpa24x2	aep6, a8, a8
    176a:	d6c0f091ae 	{ l32i	a10, a1, 36; ae_ltq56s	b3, aeq2, aeq0 }
    176f:	620276        	bf	b2, 17d5 <Pitch_by_Corel+0x379>
    1772:	e188           	l32i.n	a8, a1, 56
    1774:	7f2aa2        	l32i	a10, a10, 0x1fc
    1777:	981b           	addi.n	a9, a8, 1
    1779:	90a8a0        	addx2	a10, a8, a10
    177c:	6a4d           	ae_s16i.n	a4, a10, 0
    177e:	998d           	ae_zext16	a8, a9
    1780:	d6c514e18f 	{ s32i.n	a8, a1, 56; ae_ltq56s	b4, aeq3, aeq0 }
    1785:	220376        	bf	b3, 17ab <Pitch_by_Corel+0x34f>
    1788:	cc2b           	addi.n	a12, a12, 2
    178a:	8ccd           	ae_sext16	a12, a12

0000178c <Pitch_by_Corel+0x330>:
    178c:	4d1c           	movi.n	a13, 20
    178e:	43ccd0        	min	a12, a12, a13
    1791:	0014c6        	j	17e8 <Pitch_by_Corel+0x38c>

00001794 <Pitch_by_Corel+0x338>:
    1794:	7d9b92        	l16si	a9, a11, 250
    1797:	0519a6        	blti	a9, 1, 17a0 <Pitch_by_Corel+0x344>
    179a:	09cd           	mov.n	a12, a9
    179c:	ffec06        	j	1750 <Pitch_by_Corel+0x2f4>

0000179f <Pitch_by_Corel+0x343>:
	...

000017a0 <Pitch_by_Corel+0x344>:
    17a0:	7f9b92        	l16si	a9, a11, 254
    17a3:	a919a6        	blti	a9, 1, 1750 <Pitch_by_Corel+0x2f4>
    17a6:	09cd           	mov.n	a12, a9
    17a8:	ffe906        	j	1750 <Pitch_by_Corel+0x2f4>

000017ab <Pitch_by_Corel+0x34f>:
    17ab:	060476        	bf	b4, 17b5 <Pitch_by_Corel+0x359>
    17ae:	cc1b           	addi.n	a12, a12, 1
    17b0:	8ccd           	ae_sext16	a12, a12
    17b2:	fff586        	j	178c <Pitch_by_Corel+0x330>

000017b5 <Pitch_by_Corel+0x359>:
    17b5:	0d0c           	movi.n	a13, 0
    17b7:	fa64a1        	l32r	a10, 148 (733333 <_end+0x726893>)
    17ba:	39daa4        	ae_movpa24x2	aep5, a10, a10
    17bd:	fa154fec9e 	{ addi	a9, a12, -2; ae_mulfq32sp24s.h	aeq1, aeq3, aep5 }
    17c2:	8c8d           	ae_sext16	a8, a12
    17c4:	d64953c88f 	{ or	a12, a8, a8; ae_ltq56s	b5, aeq0, aeq1 }
    17c9:	53dd90        	max	a13, a13, a9
    17cc:	8ddd           	ae_sext16	a13, a13
    17ce:	d3cd50        	movt	a12, a13, b5
    17d1:	ffedc6        	j	178c <Pitch_by_Corel+0x330>

000017d4 <Pitch_by_Corel+0x378>:
	...

000017d5 <Pitch_by_Corel+0x379>:
    17d5:	608104        	ae_lq32f.i	aeq2, a1, 0
    17d8:	08e4a4        	ae_mulfq32sp24s.h	aeq2, aeq2, aep6
    17db:	d6c18000cf 	{ movi	a12, 0; ae_ltq56s	b6, aeq2, aeq0 }
    17e0:	53ccd0        	max	a12, a12, a13
    17e3:	0d0c           	movi.n	a13, 0
    17e5:	c3cd60        	movf	a12, a13, b6
    17e8:	fc5fc2        	s16i	a12, a15, 0x1f8
    17eb:	000306        	j	17fb <Pitch_by_Corel+0x39f>

000017ee <Pitch_by_Corel+0x392>:
    17ee:	090c           	movi.n	a9, 0
    17f0:	fc5f92        	s16i	a9, a15, 0x1f8
    17f3:	000106        	j	17fb <Pitch_by_Corel+0x39f>

000017f6 <Pitch_by_Corel+0x39a>:
	...

000017f8 <Pitch_by_Corel+0x39c>:
    17f8:	fc5fa2        	s16i	a10, a15, 0x1f8

000017fb <Pitch_by_Corel+0x39f>:
    17fb:	bb2b           	addi.n	a11, a11, 2
    17fd:	441b           	addi.n	a4, a4, 1
    17ff:	844d           	ae_sext16	a4, a4

00001801 <Pitch_by_Corel+0x3a5>:
    1801:	e188           	l32i.n	a8, a1, 56
    1803:	14c192        	addi	a9, a1, 20
    1806:	fa55b1        	l32r	a11, 15c (5d70a4 <_end+0x5ca604>)
    1809:	401304        	ae_lp16f.i	aep1, a3, 0
    180c:	78c1c2        	addi	a12, a1, 120
    180f:	614ca4        	ae_lq56.i	aeq1, a12, -48
    1812:	d467c101ae 	{ addi	a10, a1, 16; ae_mulfq32sp16u.h	aeq1, aeq1, aep1 }
    1817:	400314        	ae_lp16f.i	aep0, a3, 2
    181a:	d463fd010f 	{ ae_lq32f.i	aeq0, a1, 0; ae_mulfq32sp16u.h	aeq1, aeq1, aep0 }
    181f:	39fbb4        	ae_movpa24x2	aep7, a11, a11
    1822:	f97d3b010f 	{ ae_sraiq56	aeq0, aeq0, 4; ae_mulrfq32sp24s.h	aeq2, aeq1, aep7 }
    1827:	621a04        	ae_sq32f.i	aeq1, a10, 0
    182a:	622904        	ae_sq32f.i	aeq2, a9, 0
    182d:	240816        	beqz	a8, 1a71 <Pitch_by_Corel+0x615>
    1830:	098574        	ae_leq56s	b7, aeq1, aeq0
    1833:	021776        	bt	b7, 1839 <Pitch_by_Corel+0x3dd>
    1836:	005446        	j	198b <Pitch_by_Corel+0x52f>

00001839 <Pitch_by_Corel+0x3dd>:
    1839:	600104        	ae_lq32f.i	aeq0, a1, 0
    183c:	9198           	l32i.n	a9, a1, 36
    183e:	e128           	l32i.n	a2, a1, 56
    1840:	fa48d1        	l32r	a13, 160 (14000 <_end+0x7560>)
    1843:	7f2992        	l32i	a9, a9, 0x1fc
    1846:	0212e6        	bgei	a2, 1, 184c <Pitch_by_Corel+0x3f0>
    1849:	00a406        	j	1add <Pitch_by_Corel+0x681>
    184c:	fa3ec1        	l32r	a12, 144 (59999a <_end+0x58cefa>)
    184f:	39acc4        	ae_movpa24x2	aep2, a12, a12
    1852:	f90800004f 	{ movi	a4, 0; ae_mulfq32sp24s.h	aeq2, aeq0, aep2 }
    1857:	78c1b2        	addi	a11, a1, 120
    185a:	632b94        	ae_sq56s.i	aeq2, a11, -56
    185d:	000b06        	j	188d <Pitch_by_Corel+0x431>

00001860 <Pitch_by_Corel+0x404>:
    1860:	60cf04        	ae_lq32f.i	aeq3, a15, 0
    1863:	fa3cd1        	l32r	a13, 154 (70a3d7 <_end+0x6fd937>)
    1866:	39bdd4        	ae_movpa24x2	aep3, a13, a13
    1869:	08bce4        	ae_mulfq32sp24s.h	aeq3, aeq3, aep3
    186c:	09b184        	ae_ltq56s	b8, aeq1, aeq3
    186f:	fa3dc1        	l32r	a12, 164 (7e147b <_end+0x7d49db>)
    1872:	021876        	bt	b8, 1878 <Pitch_by_Corel+0x41c>
    1875:	006cc6        	j	1a2c <Pitch_by_Corel+0x5d0>
    1878:	398cc4        	ae_movpa24x2	aep0, a12, a12
    187b:	9423e2        	l32i	a14, a3, 0x250
    187e:	21e9           	s32i.n	a14, a1, 8
    1880:	ff6a06        	j	162c <Pitch_by_Corel+0x1d0>

00001883 <Pitch_by_Corel+0x427>:
    1883:	441b           	addi.n	a4, a4, 1
    1885:	844d           	ae_sext16	a4, a4
    1887:	c0f420        	sub	a15, a4, a2
    188a:	0cbf16        	beqz	a15, 1959 <Pitch_by_Corel+0x4fd>

0000188d <Pitch_by_Corel+0x431>:
    188d:	90b490        	addx2	a11, a4, a9
    1890:	2bbd           	ae_l16si.n	a11, a11, 0
    1892:	1164f0        	slli	a6, a4, 1
    1895:	78c1e2        	addi	a14, a1, 120
    1898:	907b30        	addx2	a7, a11, a3
    189b:	fc1782        	l16ui	a8, a7, 0x1f8
    189e:	610e94        	ae_lq56.i	aeq0, a14, -56
    18a1:	a0cb30        	addx4	a12, a11, a3
    18a4:	db68b6        	bltui	a8, 6, 1883 <Pitch_by_Corel+0x427>
    18a7:	b1c9           	s32i.n	a12, a1, 44
    18a9:	607c54        	ae_lq32f.xu	aeq1, a12, a5
    18ac:	099094        	ae_ltq56s	b9, aeq0, aeq1
    18af:	c1c9           	s32i.n	a12, a1, 48
    18b1:	ce0976        	bf	b9, 1883 <Pitch_by_Corel+0x427>
    18b4:	0cad           	mov.n	a10, a12
    18b6:	fa1281        	l32r	a8, 100 (22f8 <Xfrac_num_pd_td32>)
    18b9:	21b9           	s32i.n	a11, a1, 8
    18bb:	9c0c           	movi.n	a12, 9
    18bd:	0008e0        	callx8	a8
    18c0:	63c8           	l32i.n	a12, a3, 24
    18c2:	61a9           	s32i.n	a10, a1, 24
    18c4:	fa27d1        	l32r	a13, 160 (14000 <_end+0x7560>)
    18c7:	07dc16        	beqz	a12, 1948 <Pitch_by_Corel+0x4ec>
    18ca:	c09ca0        	sub	a9, a12, a10
    18cd:	77ad97        	bge	a13, a9, 1948 <Pitch_by_Corel+0x4ec>
    18d0:	81c8           	l32i.n	a12, a1, 32
    18d2:	fe1cc2        	l16ui	a12, a12, 0x1fc
    18d5:	90ec30        	addx2	a14, a12, a3
    18d8:	fb1e82        	l16ui	a8, a14, 0x1f6
    18db:	af0c           	movi.n	a15, 10
    18dd:	0cbd           	mov.n	a11, a12
    18df:	08bf87        	bgeu	a15, a8, 18eb <Pitch_by_Corel+0x48f>
    18e2:	bc0b           	addi.n	a11, a12, -1
    18e4:	9bbd           	ae_zext16	a11, a11
    18e6:	0002c6        	j	18f5 <Pitch_by_Corel+0x499>

000018e9 <Pitch_by_Corel+0x48d>:
	...

000018eb <Pitch_by_Corel+0x48f>:
    18eb:	fd1e82        	l16ui	a8, a14, 0x1fa
    18ee:	03bf87        	bgeu	a15, a8, 18f5 <Pitch_by_Corel+0x499>
    18f1:	bc1b           	addi.n	a11, a12, 1
    18f3:	9bbd           	ae_zext16	a11, a11
    18f5:	90eb30        	addx2	a14, a11, a3
    18f8:	fc1ee2        	l16ui	a14, a14, 0x1f8
    18fb:	ac0c           	movi.n	a12, 10
    18fd:	a0bb30        	addx4	a11, a11, a3
    1900:	44bce7        	bgeu	a12, a14, 1948 <Pitch_by_Corel+0x4ec>
    1903:	b1c8           	l32i.n	a12, a1, 44
    1905:	2b2bf2        	l32i	a15, a11, 172
    1908:	2b2cc2        	l32i	a12, a12, 172
    190b:	4188           	l32i.n	a8, a1, 16
    190d:	11acf7        	bge	a12, a15, 1922 <Pitch_by_Corel+0x4c6>

00001910 <Pitch_by_Corel+0x4b4>:
    1910:	f9db91        	l32r	a9, 7c (ca94 <p_ecnr_mem>)
    1913:	0998           	l32i.n	a9, a9, 0
    1915:	18d992        	addmi	a9, a9, 0x1800
    1918:	6cc992        	addi	a9, a9, 108
    191b:	7f2992        	l32i	a9, a9, 0x1fc
    191e:	ffd846        	j	1883 <Pitch_by_Corel+0x427>

00001921 <Pitch_by_Corel+0x4c5>:
	...

00001922 <Pitch_by_Corel+0x4c6>:
    1922:	21f5c0        	srai	a15, a12, 5
    1925:	e72f87        	blt	a15, a8, 1910 <Pitch_by_Corel+0x4b4>
    1928:	fc1792        	l16ui	a9, a7, 0x1f8
    192b:	196966        	bnei	a9, 6, 1948 <Pitch_by_Corel+0x4ec>
    192e:	16aeb6        	bltui	a14, 12, 1948 <Pitch_by_Corel+0x4ec>
    1931:	c1e8           	l32i.n	a14, a1, 48
    1933:	fa0dc1        	l32r	a12, 168 (666666 <_end+0x659bc6>)
    1936:	39ccc4        	ae_movpa24x2	aep4, a12, a12
    1939:	608e04        	ae_lq32f.i	aeq2, a14, 0
    193c:	08c494        	ae_mulrfq32sp24s.h	aeq2, aeq2, aep4
    193f:	60eb54        	ae_lq32f.x	aeq3, a11, a5
    1942:	09b2a4        	ae_ltq56s	b10, aeq2, aeq3
    1945:	c71a76        	bt	b10, 1910 <Pitch_by_Corel+0x4b4>

00001948 <Pitch_by_Corel+0x4ec>:
    1948:	f9cd91        	l32r	a9, 7c (ca94 <p_ecnr_mem>)
    194b:	0998           	l32i.n	a9, a9, 0
    194d:	18d992        	addmi	a9, a9, 0x1800
    1950:	6cc992        	addi	a9, a9, 108
    1953:	7f2992        	l32i	a9, a9, 0x1fc
    1956:	000086        	j	195c <Pitch_by_Corel+0x500>

00001959 <Pitch_by_Corel+0x4fd>:
    1959:	1164f0        	slli	a6, a4, 1

0000195c <Pitch_by_Corel+0x500>:
    195c:	b69a           	add.n	a11, a6, a9
    195e:	2bbd           	ae_l16si.n	a11, a11, 0
    1960:	90cb30        	addx2	a12, a11, a3
    1963:	fc1cc2        	l16ui	a12, a12, 0x1f8
    1966:	027cf6        	bgeui	a12, 7, 196c <Pitch_by_Corel+0x510>
    1969:	0038c6        	j	1a50 <Pitch_by_Corel+0x5f4>

0000196c <Pitch_by_Corel+0x510>:
    196c:	0913e2        	l16ui	a14, a3, 18
    196f:	63c8           	l32i.n	a12, a3, 24
    1971:	9bbd           	ae_zext16	a11, a11
    1973:	0e51b2        	s16i	a11, a1, 28
    1976:	c0fca0        	sub	a15, a12, a10
    1979:	60f1f0        	abs	a15, a15
    197c:	02adf7        	bge	a13, a15, 1982 <Pitch_by_Corel+0x526>
    197f:	004346        	j	1a90 <Pitch_by_Corel+0x634>
    1982:	8e1b           	addi.n	a8, a14, 1
    1984:	095382        	s16i	a8, a3, 18
    1987:	000886        	j	19ad <Pitch_by_Corel+0x551>

0000198a <Pitch_by_Corel+0x52e>:
	...

0000198b <Pitch_by_Corel+0x52f>:
    198b:	0986b4        	ae_leq56s	b11, aeq2, aeq0
    198e:	091392        	l16ui	a9, a3, 18
    1991:	050b76        	bf	b11, 199a <Pitch_by_Corel+0x53e>
    1994:	0229b6        	bltui	a9, 2, 199a <Pitch_by_Corel+0x53e>
    1997:	ffa786        	j	1839 <Pitch_by_Corel+0x3dd>
    199a:	59cc           	bnez.n	a9, 19a3 <Pitch_by_Corel+0x547>
    199c:	81a8           	l32i.n	a10, a1, 32
    199e:	090c           	movi.n	a9, 0
    19a0:	fe5a92        	s16i	a9, a10, 0x1fc

000019a3 <Pitch_by_Corel+0x547>:
    19a3:	0b0c           	movi.n	a11, 0
    19a5:	0953b2        	s16i	a11, a3, 18
    19a8:	0b0c           	movi.n	a11, 0
    19aa:	0e51b2        	s16i	a11, a1, 28

000019ad <Pitch_by_Corel+0x551>:
    19ad:	81c8           	l32i.n	a12, a1, 32
    19af:	fe1cc2        	l16ui	a12, a12, 0x1fc
    19b2:	052c56        	bnez	a12, 1a08 <Pitch_by_Corel+0x5ac>
    19b5:	0c0c           	movi.n	a12, 0
    19b7:	0b0c           	movi.n	a11, 0
    19b9:	040c           	movi.n	a4, 0
    19bb:	bd2c           	movi.n	a13, 43
    19bd:	0e0c           	movi.n	a14, 0
    19bf:	63e9           	s32i.n	a14, a3, 24
    19c1:	10ad76        	loopgtz	a13, 19d5 <Pitch_by_Corel+0x579>
    19c4:	90d430        	addx2	a13, a4, a3
    19c7:	fc1dd2        	l16ui	a13, a13, 0x1f8
    19ca:	03bcd7        	bgeu	a12, a13, 19d1 <Pitch_by_Corel+0x575>
    19cd:	0dcd           	mov.n	a12, a13
    19cf:	04bd           	mov.n	a11, a4

000019d1 <Pitch_by_Corel+0x575>:
    19d1:	441b           	addi.n	a4, a4, 1
    19d3:	844d           	ae_sext16	a4, a4

000019d5 <Pitch_by_Corel+0x579>:
    19d5:	244cb6        	bltui	a12, 4, 19fd <Pitch_by_Corel+0x5a1>

000019d8 <Pitch_by_Corel+0x57c>:
    19d8:	a0ab30        	addx4	a10, a11, a3
    19db:	10c1c2        	addi	a12, a1, 16
    19de:	f9e3d1        	l32r	a13, 16c (ccccd <_end+0xc022d>)
    19e1:	39ddd4        	ae_movpa24x2	aep5, a13, a13
    19e4:	604c04        	ae_lq32f.i	aeq1, a12, 0
    19e7:	085a54        	ae_mularfq32sp24s.h	aeq1, aeq1, aep5
    19ea:	603a54        	ae_lq32f.xu	aeq0, a10, a5
    19ed:	ff04fb010f 	{ ae_sraiq56	aeq0, aeq0, 4; ae_satq48s	aeq3, aeq1 }
    19f2:	0983c4        	ae_ltq56s	b12, aeq3, aeq0
    19f5:	f03d           	nop.n
    19f7:	020c76        	bf	b12, 19fd <Pitch_by_Corel+0x5a1>
    19fa:	003486        	j	1ad0 <Pitch_by_Corel+0x674>
    19fd:	0e0c           	movi.n	a14, 0
    19ff:	73e9           	s32i.n	a14, a3, 28

00001a01 <Pitch_by_Corel+0x5a5>:
    1a01:	0e11b2        	l16ui	a11, a1, 28
    1a04:	000106        	j	1a0c <Pitch_by_Corel+0x5b0>

00001a07 <Pitch_by_Corel+0x5ab>:
	...

00001a08 <Pitch_by_Corel+0x5ac>:
    1a08:	0f0c           	movi.n	a15, 0
    1a0a:	73f9           	s32i.n	a15, a3, 28

00001a0c <Pitch_by_Corel+0x5b0>:
    1a0c:	8188           	l32i.n	a8, a1, 32
    1a0e:	fe58b2        	s16i	a11, a8, 0x1fc
    1a11:	0b9c           	beqz.n	a11, 1a25 <Pitch_by_Corel+0x5c9>
    1a13:	9c0c           	movi.n	a12, 9
    1a15:	f9ba81        	l32r	a8, 100 (22f8 <Xfrac_num_pd_td32>)
    1a18:	a0ab30        	addx4	a10, a11, a3
    1a1b:	aa5a           	add.n	a10, a10, a5
    1a1d:	0008e0        	callx8	a8
    1a20:	1063a2        	s32i	a10, a3, 64
    1a23:	f01d           	retw.n

00001a25 <Pitch_by_Corel+0x5c9>:
    1a25:	0b0c           	movi.n	a11, 0
    1a27:	1063b2        	s32i	a11, a3, 64
    1a2a:	f01d           	retw.n

00001a2c <Pitch_by_Corel+0x5d0>:
    1a2c:	60cf04        	ae_lq32f.i	aeq3, a15, 0
    1a2f:	f9d0e1        	l32r	a14, 170 (100000 <_end+0xf3560>)
    1a32:	39eee4        	ae_movpa24x2	aep6, a14, a14
    1a35:	08ead4        	ae_mularfq32sp24s.h	aeq3, aeq3, aep6
    1a38:	fe84c0c1de 	{ addi	a13, a1, 12; ae_satq48s	aeq2, aeq3 }
    1a3d:	622d04        	ae_sq32f.i	aeq2, a13, 0
    1a40:	31d8           	l32i.n	a13, a1, 12
    1a42:	44ad77        	bge	a13, a7, 1a8a <Pitch_by_Corel+0x62e>
    1a45:	21d9           	s32i.n	a13, a1, 8
    1a47:	f9cbf1        	l32r	a15, 174 (7fbe77 <_end+0x7ef3d7>)
    1a4a:	398ff4        	ae_movpa24x2	aep0, a15, a15
    1a4d:	fef6c6        	j	162c <Pitch_by_Corel+0x1d0>

00001a50 <Pitch_by_Corel+0x5f4>:
    1a50:	091382        	l16ui	a8, a3, 18
    1a53:	58cc           	bnez.n	a8, 1a5c <Pitch_by_Corel+0x600>
    1a55:	81a8           	l32i.n	a10, a1, 32
    1a57:	090c           	movi.n	a9, 0
    1a59:	fe5a92        	s16i	a9, a10, 0x1fc

00001a5c <Pitch_by_Corel+0x600>:
    1a5c:	0b0c           	movi.n	a11, 0
    1a5e:	0953b2        	s16i	a11, a3, 18
    1a61:	0b0c           	movi.n	a11, 0
    1a63:	0e51b2        	s16i	a11, a1, 28
    1a66:	ffd0c6        	j	19ad <Pitch_by_Corel+0x551>

00001a69 <Pitch_by_Corel+0x60d>:
    1a69:	c91b           	addi.n	a12, a9, 1
    1a6b:	0a53c2        	s16i	a12, a3, 20
    1a6e:	fee406        	j	1602 <Pitch_by_Corel+0x1a6>

00001a71 <Pitch_by_Corel+0x615>:
    1a71:	0913d2        	l16ui	a13, a3, 18
    1a74:	5dcc           	bnez.n	a13, 1a7d <Pitch_by_Corel+0x621>
    1a76:	81f8           	l32i.n	a15, a1, 32
    1a78:	0e0c           	movi.n	a14, 0
    1a7a:	fe5fe2        	s16i	a14, a15, 0x1fc

00001a7d <Pitch_by_Corel+0x621>:
    1a7d:	0b0c           	movi.n	a11, 0
    1a7f:	080c           	movi.n	a8, 0
    1a81:	095382        	s16i	a8, a3, 18
    1a84:	0e51b2        	s16i	a11, a1, 28
    1a87:	ffc886        	j	19ad <Pitch_by_Corel+0x551>

00001a8a <Pitch_by_Corel+0x62e>:
    1a8a:	398cc4        	ae_movpa24x2	aep0, a12, a12
    1a8d:	fee6c6        	j	162c <Pitch_by_Corel+0x1d0>

00001a90 <Pitch_by_Corel+0x634>:
    1a90:	2f3eb6        	bltui	a14, 3, 1ac3 <Pitch_by_Corel+0x667>
    1a93:	4191a0        	srli	a9, a10, 1
    1a96:	c09c90        	sub	a9, a12, a9
    1a99:	609190        	abs	a9, a9
    1a9c:	232d97        	blt	a13, a9, 1ac3 <Pitch_by_Corel+0x667>
    1a9f:	18c1f2        	addi	a15, a1, 24
    1aa2:	600f04        	ae_lq32f.i	aeq0, a15, 0
    1aa5:	350074        	ae_sraiq56	aeq0, aeq0, 1
    1aa8:	fbe3c1c1de 	{ addi	a13, a1, 28; ae_roundsp16q48sym	aep7, aeq0 }
    1aad:	427d04        	ae_sp16f.l.i	aep7, a13, 0
    1ab0:	0e11b2        	l16ui	a11, a1, 28
    1ab3:	ce1b           	addi.n	a12, a14, 1
    1ab5:	0953c2        	s16i	a12, a3, 18
    1ab8:	f7cbb2        	addi	a11, a11, -9
    1abb:	9bbd           	ae_zext16	a11, a11
    1abd:	0e51b2        	s16i	a11, a1, 28
    1ac0:	ffba46        	j	19ad <Pitch_by_Corel+0x551>

00001ac3 <Pitch_by_Corel+0x667>:
    1ac3:	8198           	l32i.n	a9, a1, 32
    1ac5:	080c           	movi.n	a8, 0
    1ac7:	fe5982        	s16i	a8, a9, 0x1fc
    1aca:	095382        	s16i	a8, a3, 18
    1acd:	ffb706        	j	19ad <Pitch_by_Corel+0x551>

00001ad0 <Pitch_by_Corel+0x674>:
    1ad0:	f98c81        	l32r	a8, 100 (22f8 <Xfrac_num_pd_td32>)
    1ad3:	9c0c           	movi.n	a12, 9
    1ad5:	0008e0        	callx8	a8
    1ad8:	73a9           	s32i.n	a10, a3, 28
    1ada:	ffc8c6        	j	1a01 <Pitch_by_Corel+0x5a5>

00001add <Pitch_by_Corel+0x681>:
    1add:	29bd           	ae_l16si.n	a11, a9, 0
    1adf:	90ab30        	addx2	a10, a11, a3
    1ae2:	fc1aa2        	l16ui	a10, a10, 0x1f8
    1ae5:	027af6        	bgeui	a10, 7, 1aeb <Pitch_by_Corel+0x68f>
    1ae8:	ffd906        	j	1a50 <Pitch_by_Corel+0x5f4>
    1aeb:	ff9f46        	j	196c <Pitch_by_Corel+0x510>

00001aee <Pitch_by_Corel+0x692>:
	...

00001af0 <PD_TD_prcs>:
    1af0:	004136        	entry	a1, 32
    1af3:	f96231        	l32r	a3, 7c (ca94 <p_ecnr_mem>)
    1af6:	f9a041        	l32r	a4, 178 (51fc <cali_power+0x1c0>)
    1af9:	03b8           	l32i.n	a11, a3, 0
    1afb:	2c3c           	movi.n	a12, 50
    1afd:	f96981        	l32r	a8, a4 (9de0 <xt_memcpy>)
    1b00:	1adb22        	addmi	a2, a11, 0x1a00
    1b03:	1b2222        	l32i	a2, a2, 108
    1b06:	52dbb2        	addmi	a11, a11, 0x5200
    1b09:	fccbb2        	addi	a11, a11, -4
    1b0c:	9cc222        	addi	a2, a2, -100
    1b0f:	20a220        	or	a10, a2, a2
    1b12:	0008e0        	callx8	a8
    1b15:	f99951        	l32r	a5, 17c (51b8 <cali_power+0x17c>)
    1b18:	03b8           	l32i.n	a11, a3, 0
    1b1a:	02ad           	mov.n	a10, a2
    1b1c:	f99981        	l32r	a8, 180 (145c <Pitch_by_Corel>)
    1b1f:	52dbb2        	addmi	a11, a11, 0x5200
    1b22:	b8cbb2        	addi	a11, a11, -72
    1b25:	0008e0        	callx8	a8
    1b28:	03b8           	l32i.n	a11, a3, 0
    1b2a:	f99581        	l32r	a8, 180 (145c <Pitch_by_Corel>)
    1b2d:	3cc2a2        	addi	a10, a2, 60
    1b30:	bb5a           	add.n	a11, a11, a5
    1b32:	0008e0        	callx8	a8
    1b35:	78c2b2        	addi	a11, a2, 120
    1b38:	03a8           	l32i.n	a10, a3, 0
    1b3a:	f95a81        	l32r	a8, a4 (9de0 <xt_memcpy>)
    1b3d:	2c3c           	movi.n	a12, 50
    1b3f:	aa4a           	add.n	a10, a10, a4
    1b41:	0008e0        	callx8	a8
    1b44:	f01d           	retw.n

00001b46 <PD_TD_prcs+0x56>:
	...

00001b48 <pitch_by_harmonic>:
    1b48:	00c136        	entry	a1, 96
    1b4b:	f98e61        	l32r	a6, 184 (aaaab <_end+0x9e00b>)
    1b4e:	024d           	mov.n	a4, a2
    1b50:	f94bd1        	l32r	a13, 7c (ca94 <p_ecnr_mem>)
    1b53:	0258           	l32i.n	a5, a2, 0
    1b55:	0e0c           	movi.n	a14, 0
    1b57:	0dd8           	l32i.n	a13, a13, 0
    1b59:	1452e2        	s16i	a14, a2, 40
    1b5c:	b1d9           	s32i.n	a13, a1, 44
    1b5e:	52dd72        	addmi	a7, a13, 0x5200
    1b61:	50ddd2        	addmi	a13, a13, 0x5000
    1b64:	742dc2        	l32i	a12, a13, 0x1d0
    1b67:	b8c772        	addi	a7, a7, -72
    1b6a:	d4cd22        	addi	a2, a13, -44
    1b6d:	06bc16        	beqz	a12, 1bdc <pitch_by_harmonic+0x94>
    1b70:	f949b1        	l32r	a11, 94 (80000000 <_end+0x7fff3560>)
    1b73:	d5d2c0        	extui	a13, a12, 18, 14
    1b76:	11ac20        	slli	a10, a12, 14
    1b79:	f98381        	l32r	a8, 188 (9eb0 <__udivdi3>)
    1b7c:	0acd           	mov.n	a12, a10
    1b7e:	00a0a2        	movi	a10, 0
    1b81:	0008e0        	callx8	a8
    1b84:	01a9           	s32i.n	a10, a1, 0
    1b86:	02d292        	addmi	a9, a2, 0x200
    1b89:	8322b2        	l32i	a11, a2, 0x20c
    1b8c:	5c0c           	movi.n	a12, 5
    1b8e:	0859c2        	s16i	a12, a9, 16
    1b91:	021be6        	bgei	a11, 1, 1b97 <pitch_by_harmonic+0x4f>
    1b94:	015f46        	j	2115 <pitch_by_harmonic+0x5cd>
    1b97:	f97de1        	l32r	a14, 18c (51e0 <cali_power+0x1a4>)
    1b9a:	b1d8           	l32i.n	a13, a1, 44
    1b9c:	398664        	ae_movpa24x2	aep0, a6, a6
    1b9f:	60ade4        	ae_lq32f.x	aeq2, a13, a14
    1ba2:	fa003d210f 	{ ae_lq32f.i	aeq1, a1, 0; ae_mulfq32sp24s.h	aeq0, aeq2, aep0 }
    1ba7:	06da14        	ae_subsq56s	aeq3, aeq1, aeq2
    1baa:	068b44        	ae_satq48s	aeq2, aeq3
    1bad:	067a24        	ae_abssq56s	aeq1, aeq2
    1bb0:	099004        	ae_ltq56s	b0, aeq0, aeq1
    1bb3:	021076        	bt	b0, 1bb9 <pitch_by_harmonic+0x71>
    1bb6:	014b06        	j	20e6 <pitch_by_harmonic+0x59e>
    1bb9:	0a99f2        	l16si	a15, a9, 20
    1bbc:	483c           	movi.n	a8, 52
    1bbe:	095982        	s16i	a8, a9, 18
    1bc1:	033fa6        	blti	a15, 3, 1bc8 <pitch_by_harmonic+0x80>
    1bc4:	0bad           	mov.n	a10, a11
    1bc6:	01b9           	s32i.n	a11, a1, 0

00001bc8 <pitch_by_harmonic+0x80>:
    1bc8:	219aa0        	srai	a9, a10, 10
    1bcb:	02d2c2        	addmi	a12, a2, 0x200
    1bce:	1b0c           	movi.n	a11, 1
    1bd0:	0d5cb2        	s16i	a11, a12, 26
    1bd3:	826292        	s32i	a9, a2, 0x208
    1bd6:	8162a2        	s32i	a10, a2, 0x204
    1bd9:	002d46        	j	1c92 <pitch_by_harmonic+0x14a>

00001bdc <pitch_by_harmonic+0x94>:
    1bdc:	752dc2        	l32i	a12, a13, 0x1d4
    1bdf:	51ec16        	beqz	a12, 2101 <pitch_by_harmonic+0x5b9>
    1be2:	f92cb1        	l32r	a11, 94 (80000000 <_end+0x7fff3560>)
    1be5:	0a0c           	movi.n	a10, 0
    1be7:	d5d2c0        	extui	a13, a12, 18, 14
    1bea:	f96781        	l32r	a8, 188 (9eb0 <__udivdi3>)
    1bed:	119c20        	slli	a9, a12, 14
    1bf0:	09cd           	mov.n	a12, a9
    1bf2:	0008e0        	callx8	a8
    1bf5:	f965c1        	l32r	a12, 18c (51e0 <cali_power+0x1a4>)
    1bf8:	01a9           	s32i.n	a10, a1, 0
    1bfa:	b1b8           	l32i.n	a11, a1, 44
    1bfc:	f965a1        	l32r	a10, 190 (2000000 <_end+0x1ff3560>)
    1bff:	60c104        	ae_lq32f.i	aeq3, a1, 0
    1c02:	35f074        	ae_sraiq56	aeq3, aeq3, 1
    1c05:	602bc4        	ae_lq32f.x	aeq0, a11, a12
    1c08:	06b814        	ae_subsq56s	aeq2, aeq3, aeq0
    1c0b:	064a44        	ae_satq48s	aeq1, aeq2
    1c0e:	ff0cbeca3f 	{ ae_cvtq48a32s	aeq0, a10; ae_abssq56s	aeq3, aeq1 }
    1c13:	098314        	ae_ltq56s	b1, aeq3, aeq0
    1c16:	0b0176        	bf	b1, 1c25 <pitch_by_harmonic+0xdd>
    1c19:	600104        	ae_lq32f.i	aeq0, a1, 0
    1c1c:	350074        	ae_sraiq56	aeq0, aeq0, 1
    1c1f:	620104        	ae_sq32f.i	aeq0, a1, 0
    1c22:	000a06        	j	1c4e <pitch_by_harmonic+0x106>

00001c25 <pitch_by_harmonic+0xdd>:
    1c25:	f95981        	l32r	a8, 18c (51e0 <cali_power+0x1a4>)
    1c28:	f95be1        	l32r	a14, 194 (1000000 <_end+0xff3560>)
    1c2b:	604104        	ae_lq32f.i	aeq1, a1, 0
    1c2e:	60ab84        	ae_lq32f.x	aeq2, a11, a8
    1c31:	35a074        	ae_sraiq56	aeq2, aeq2, 1
    1c34:	061a14        	ae_subsq56s	aeq0, aeq1, aeq2
    1c37:	06c844        	ae_satq48s	aeq3, aeq0
    1c3a:	fd8cbecebf 	{ ae_cvtq48a32s	aeq2, a14; ae_abssq56s	aeq1, aeq3 }
    1c3f:	09a124        	ae_ltq56s	b2, aeq1, aeq2
    1c42:	080276        	bf	b2, 1c4e <pitch_by_harmonic+0x106>
    1c45:	600104        	ae_lq32f.i	aeq0, a1, 0
    1c48:	36c054        	ae_sllisq56s	aeq3, aeq0, 1
    1c4b:	623104        	ae_sq32f.i	aeq3, a1, 0
    1c4e:	dc2c           	movi.n	a12, 45
    1c50:	3d2c           	movi.n	a13, 35
    1c52:	814b           	addi.n	a8, a1, 4
    1c54:	01a8           	l32i.n	a10, a1, 0
    1c56:	02d2b2        	addmi	a11, a2, 0x200
    1c59:	608104        	ae_lq32f.i	aeq2, a1, 0
    1c5c:	00a7e2        	movi	a14, 0x700
    1c5f:	39aee4        	ae_movpa24x2	aep2, a14, a14
    1c62:	fb0800019f 	{ movi	a9, 1; ae_mulfq32sp24s.h	aeq2, aeq2, aep2 }
    1c67:	0d5b92        	s16i	a9, a11, 26
    1c6a:	8162a2        	s32i	a10, a2, 0x204
    1c6d:	21faa0        	srai	a15, a10, 10
    1c70:	366154        	ae_sllisq56s	aeq1, aeq2, 5
    1c73:	f8ebc009ef 	{ movi	a14, 9; ae_roundsp16q48sym	aep1, aeq1 }
    1c78:	421804        	ae_sp16f.l.i	aep1, a8, 0
    1c7b:	029192        	l16si	a9, a1, 4
    1c7e:	8262f2        	s32i	a15, a2, 0x208
    1c81:	085be2        	s16i	a14, a11, 16
    1c84:	5399d0        	max	a9, a9, a13
    1c87:	899d           	ae_sext16	a9, a9
    1c89:	4399c0        	min	a9, a9, a12
    1c8c:	025192        	s16i	a9, a1, 4
    1c8f:	095b92        	s16i	a9, a11, 18

00001c92 <pitch_by_harmonic+0x14a>:
    1c92:	021ae6        	bgei	a10, 1, 1c98 <pitch_by_harmonic+0x150>
    1c95:	012606        	j	2131 <pitch_by_harmonic+0x5e9>
    1c98:	9149           	s32i.n	a4, a1, 36
    1c9a:	a06350        	addx4	a6, a3, a5
    1c9d:	08d422        	addmi	a2, a4, 0x800
    1ca0:	030c           	movi.n	a3, 0
    1ca2:	2cc222        	addi	a2, a2, 44

00001ca5 <pitch_by_harmonic+0x15d>:
    1ca5:	1143e0        	slli	a4, a3, 2
    1ca8:	a0a350        	addx4	a10, a3, a5
    1cab:	1aa8           	l32i.n	a10, a10, 4
    1cad:	7e92b2        	l16si	a11, a2, 252
    1cb0:	f93a81        	l32r	a8, 198 (860 <Log2_norm>)
    1cb3:	40eac0        	nsa	a12, a10
    1cb6:	c0bbc0        	sub	a11, a11, a12
    1cb9:	401c00        	ssl	a12
    1cbc:	a1aa00        	sll	a10, a10
    1cbf:	0008e0        	callx8	a8
    1cc2:	1b4c           	movi.n	a11, 65
    1cc4:	331b           	addi.n	a3, a3, 1
    1cc6:	846a           	add.n	a8, a4, a6
    1cc8:	08a9           	s32i.n	a10, a8, 0
    1cca:	833d           	ae_sext16	a3, a3
    1ccc:	d593b7        	bne	a3, a11, 1ca5 <pitch_by_harmonic+0x15d>
    1ccf:	04a192        	movi	a9, 0x104
    1cd2:	1797a2        	l16si	a10, a7, 46
    1cd5:	1697b2        	l16si	a11, a7, 44
    1cd8:	080c           	movi.n	a8, 0
    1cda:	1d5782        	s16i	a8, a7, 58
    1cdd:	1c5782        	s16i	a8, a7, 56
    1ce0:	a04b60        	addx4	a4, a11, a6
    1ce3:	c0aab0        	sub	a10, a10, a11
    1ce6:	fcc442        	addi	a4, a4, -4
    1ce9:	84a1b2        	movi	a11, 0x184
    1cec:	8aad           	ae_sext16	a10, a10
    1cee:	c1a9           	s32i.n	a10, a1, 48
    1cf0:	021ae6        	bgei	a10, 1, 1cf6 <pitch_by_harmonic+0x1ae>
    1cf3:	003246        	j	1dc0 <pitch_by_harmonic+0x278>
    1cf6:	050c           	movi.n	a5, 0
    1cf8:	f92921        	l32r	a2, 19c (5000000 <_end+0x4ff3560>)
    1cfb:	8169           	s32i.n	a6, a1, 32
    1cfd:	04ae32        	movi	a3, 0xfffffe04
    1d00:	343a           	add.n	a3, a4, a3
    1d02:	0003c6        	j	1d15 <pitch_by_harmonic+0x1cd>

00001d05 <pitch_by_harmonic+0x1bd>:
    1d05:	444b           	addi.n	a4, a4, 4
    1d07:	334b           	addi.n	a3, a3, 4
    1d09:	c188           	l32i.n	a8, a1, 48
    1d0b:	551b           	addi.n	a5, a5, 1
    1d0d:	855d           	ae_sext16	a5, a5
    1d0f:	c08850        	sub	a8, a8, a5
    1d12:	0a2816        	beqz	a8, 1db8 <pitch_by_harmonic+0x270>

00001d15 <pitch_by_harmonic+0x1cd>:
    1d15:	f92281        	l32r	a8, 1a0 (2188 <XMAX6>)
    1d18:	f4c4a2        	addi	a10, a4, -12
    1d1b:	f03d           	nop.n
    1d1d:	0008e0        	callx8	a8
    1d20:	f92081        	l32r	a8, 1a0 (2188 <XMAX6>)
    1d23:	0a6d           	mov.n	a6, a10
    1d25:	f8c4a2        	addi	a10, a4, -8
    1d28:	0008e0        	callx8	a8
    1d2b:	7f23b2        	l32i	a11, a3, 0x1fc
    1d2e:	8123e2        	l32i	a14, a3, 0x204
    1d31:	7d2392        	l32i	a9, a3, 0x1f4
    1d34:	0216b7        	beq	a6, a11, 1d3a <pitch_by_harmonic+0x1f2>
    1d37:	1f9ab7        	bne	a10, a11, 1d5a <pitch_by_harmonic+0x212>

00001d3a <pitch_by_harmonic+0x1f2>:
    1d3a:	992a           	add.n	a9, a9, a2
    1d3c:	0a29b7        	blt	a9, a11, 1d4a <pitch_by_harmonic+0x202>
    1d3f:	f919d1        	l32r	a13, 1a4 (c000000 <_end+0xbff3560>)
    1d42:	7e23c2        	l32i	a12, a3, 0x1f8
    1d45:	ccda           	add.n	a12, a12, a13
    1d47:	0facb7        	bge	a12, a11, 1d5a <pitch_by_harmonic+0x212>

00001d4a <pitch_by_harmonic+0x202>:
    1d4a:	ee2a           	add.n	a14, a14, a2
    1d4c:	242eb7        	blt	a14, a11, 1d74 <pitch_by_harmonic+0x22c>
    1d4f:	f91581        	l32r	a8, 1a4 (c000000 <_end+0xbff3560>)
    1d52:	8023f2        	l32i	a15, a3, 0x200
    1d55:	ff8a           	add.n	a15, a15, a8
    1d57:	192fb7        	blt	a15, a11, 1d74 <pitch_by_harmonic+0x22c>
    1d5a:	6798           	l32i.n	a9, a7, 24
    1d5c:	53c6a0        	max	a12, a6, a10
    1d5f:	fa2916        	beqz	a9, 1d05 <pitch_by_harmonic+0x1bd>
    1d62:	9f9bc7        	bne	a11, a12, 1d05 <pitch_by_harmonic+0x1bd>
    1d65:	8323e2        	l32i	a14, a3, 0x20c
    1d68:	7b23d2        	l32i	a13, a3, 0x1ec
    1d6b:	43dde0        	min	a13, a13, a14
    1d6e:	93adb7        	bge	a13, a11, 1d05 <pitch_by_harmonic+0x1bd>
    1d71:	000846        	j	1d96 <pitch_by_harmonic+0x24e>

00001d74 <pitch_by_harmonic+0x22c>:
    1d74:	04ad           	mov.n	a10, a4
    1d76:	1697b2        	l16si	a11, a7, 44
    1d79:	f8e181        	l32r	a8, 100 (22f8 <Xfrac_num_pd_td32>)
    1d7c:	1c0c           	movi.n	a12, 1
    1d7e:	bb5a           	add.n	a11, a11, a5
    1d80:	0008e0        	callx8	a8
    1d83:	81d8           	l32i.n	a13, a1, 32
    1d85:	1d97c2        	l16si	a12, a7, 58
    1d88:	a0dcd0        	addx4	a13, a12, a13
    1d8b:	416da2        	s32i	a10, a13, 0x104
    1d8e:	cc1b           	addi.n	a12, a12, 1
    1d90:	1d57c2        	s16i	a12, a7, 58
    1d93:	ffdb86        	j	1d05 <pitch_by_harmonic+0x1bd>

00001d96 <pitch_by_harmonic+0x24e>:
    1d96:	04ad           	mov.n	a10, a4
    1d98:	1697b2        	l16si	a11, a7, 44
    1d9b:	f8d981        	l32r	a8, 100 (22f8 <Xfrac_num_pd_td32>)
    1d9e:	1c0c           	movi.n	a12, 1
    1da0:	bb5a           	add.n	a11, a11, a5
    1da2:	0008e0        	callx8	a8
    1da5:	81d8           	l32i.n	a13, a1, 32
    1da7:	1c97c2        	l16si	a12, a7, 56
    1daa:	a0dcd0        	addx4	a13, a12, a13
    1dad:	616da2        	s32i	a10, a13, 0x184
    1db0:	cc1b           	addi.n	a12, a12, 1
    1db2:	1c57c2        	s16i	a12, a7, 56
    1db5:	ffd306        	j	1d05 <pitch_by_harmonic+0x1bd>

00001db8 <pitch_by_harmonic+0x270>:
    1db8:	04a192        	movi	a9, 0x104
    1dbb:	84a1b2        	movi	a11, 0x184
    1dbe:	8168           	l32i.n	a6, a1, 32

00001dc0 <pitch_by_harmonic+0x278>:
    1dc0:	1d97e2        	l16si	a14, a7, 58
    1dc3:	021ee6        	bgei	a14, 1, 1dc9 <pitch_by_harmonic+0x281>
    1dc6:	00ec86        	j	217c <pitch_by_harmonic+0x634>
    1dc9:	050c           	movi.n	a5, 0
    1dcb:	f8f7e1        	l32r	a14, 1a8 (435e51 <_end+0x4293b1>)
    1dce:	0c0c           	movi.n	a12, 0
    1dd0:	1d0c           	movi.n	a13, 1
    1dd2:	a6ba           	add.n	a10, a6, a11
    1dd4:	a1a9           	s32i.n	a10, a1, 40
    1dd6:	1f57d2        	s16i	a13, a7, 62
    1dd9:	1e57c2        	s16i	a12, a7, 60
    1ddc:	d69a           	add.n	a13, a6, a9
    1dde:	20c7c2        	addi	a12, a7, 32
    1de1:	24c7a2        	addi	a10, a7, 36

00001de4 <pitch_by_harmonic+0x29c>:
    1de4:	f8ecb1        	l32r	a11, 194 (1000000 <_end+0xff3560>)
    1de7:	178076        	loop	a0, 1e02 <pitch_by_harmonic+0x2ba>
    1dea:	030100        	rsr.lend	a0
    1ded:	130000        	wsr.lbeg	a0
    1df0:	bcc002        	addi	a0, a0, -68
    1df3:	02d002        	addmi	a0, a0, 0x200
    1df6:	130100        	wsr.lend	a0
    1df9:	002000        	isync
    1dfc:	030200        	rsr.lcount	a0
    1dff:	01c002        	addi	a0, a0, 1
    1e02:	0215e6        	bgei	a5, 1, 1e08 <pitch_by_harmonic+0x2c0>
    1e05:	003bc6        	j	1ef8 <pitch_by_harmonic+0x3b0>
    1e08:	8798           	l32i.n	a9, a7, 32
    1e0a:	60cdf4        	ae_lq32f.i	aeq3, a13, -4
    1e0d:	608d04        	ae_lq32f.i	aeq2, a13, 0
    1e10:	f9d680812e 	{ addi	a2, a1, 8; ae_subsq56s	aeq1, aeq2, aeq3 }
    1e15:	355064        	ae_srliq56	aeq1, aeq1, 1
    1e18:	621204        	ae_sq32f.i	aeq1, a2, 0
    1e1b:	21f8           	l32i.n	a15, a1, 8
    1e1d:	31cb           	addi.n	a3, a1, 12
    1e1f:	214c90        	srai	a4, a9, 12
    1e22:	d2ff40        	quos	a15, a15, a4
    1e25:	31f9           	s32i.n	a15, a1, 12
    1e27:	608304        	ae_lq32f.i	aeq2, a3, 0
    1e2a:	3623d4        	ae_sllisq56s	aeq0, aeq2, 15
    1e2d:	f9e3fd6c0f 	{ ae_lq32f.i	aeq3, a12, 0; ae_roundsp16q48sym	aep3, aeq0 }
    1e32:	03bbc4        	ae_mulq32sp16s.h	aeq3, aeq3, aep3
    1e35:	369294        	ae_sllisq56s	aeq2, aeq1, 10
    1e38:	3633d4        	ae_sllisq56s	aeq0, aeq3, 15
    1e3b:	06ca14        	ae_subsq56s	aeq3, aeq0, aeq2
    1e3e:	ff84becbbf 	{ ae_cvtq48a32s	aeq2, a11; ae_absq56	aeq3, aeq3 }
    1e43:	09a334        	ae_ltq56s	b3, aeq3, aeq2
    1e46:	10c1f2        	addi	a15, a1, 16
    1e49:	423f04        	ae_sp16f.l.i	aep3, a15, 0
    1e4c:	2b0376        	bf	b3, 1e7b <pitch_by_harmonic+0x333>
    1e4f:	0891f2        	l16si	a15, a1, 16
    1e52:	1b9792        	l16si	a9, a7, 54
    1e55:	361054        	ae_sllisq56s	aeq0, aeq1, 1
    1e58:	99fa           	add.n	a9, a9, a15
    1e5a:	1b5792        	s16i	a9, a7, 54
    1e5d:	60ca04        	ae_lq32f.i	aeq3, a10, 0
    1e60:	06b804        	ae_addsq56s	aeq2, aeq3, aeq0
    1e63:	060a44        	ae_satq48s	aeq0, aeq2
    1e66:	620a04        	ae_sq32f.i	aeq0, a10, 0
    1e69:	1b9782        	l16si	a8, a7, 54
    1e6c:	97f8           	l32i.n	a15, a7, 36
    1e6e:	130c           	movi.n	a3, 1
    1e70:	d2ff80        	quos	a15, a15, a8
    1e73:	11ff60        	slli	a15, a15, 10
    1e76:	87f9           	s32i.n	a15, a7, 32
    1e78:	002006        	j	1efc <pitch_by_harmonic+0x3b4>

00001e7b <pitch_by_harmonic+0x333>:
    1e7b:	7125a6        	blti	a5, 2, 1ef0 <pitch_by_harmonic+0x3a8>
    1e7e:	604de4        	ae_lq32f.i	aeq1, a13, -8
    1e81:	600d04        	ae_lq32f.i	aeq0, a13, 0
    1e84:	06c914        	ae_subsq56s	aeq3, aeq0, aeq1
    1e87:	35f064        	ae_srliq56	aeq3, aeq3, 1
    1e8a:	623204        	ae_sq32f.i	aeq3, a2, 0
    1e8d:	2188           	l32i.n	a8, a1, 8
    1e8f:	f8c1b1        	l32r	a11, 194 (1000000 <_end+0xff3560>)
    1e92:	d28840        	quos	a8, a8, a4
    1e95:	3189           	s32i.n	a8, a1, 12
    1e97:	600304        	ae_lq32f.i	aeq0, a3, 0
    1e9a:	3643d4        	ae_sllisq56s	aeq1, aeq0, 15
    1e9d:	faebbd0c0f 	{ ae_lq32f.i	aeq0, a12, 0; ae_roundsp16q48sym	aep4, aeq1 }
    1ea2:	034304        	ae_mulq32sp16s.h	aeq0, aeq0, aep4
    1ea5:	367294        	ae_sllisq56s	aeq1, aeq3, 10
    1ea8:	3603d4        	ae_sllisq56s	aeq0, aeq0, 15
    1eab:	064914        	ae_subsq56s	aeq1, aeq0, aeq1
    1eae:	065964        	ae_absq56	aeq1, aeq1
    1eb1:	d65500003f 	{ movi	a3, 0; ae_ltq56s	b4, aeq1, aeq2 }
    1eb6:	424f04        	ae_sp16f.l.i	aep4, a15, 0
    1eb9:	09fd           	mov.n	a15, a9
    1ebb:	2e0476        	bf	b4, 1eed <pitch_by_harmonic+0x3a5>
    1ebe:	0891b2        	l16si	a11, a1, 16
    1ec1:	1b9792        	l16si	a9, a7, 54
    1ec4:	36b054        	ae_sllisq56s	aeq2, aeq3, 1
    1ec7:	99ba           	add.n	a9, a9, a11
    1ec9:	1b5792        	s16i	a9, a7, 54
    1ecc:	604a04        	ae_lq32f.i	aeq1, a10, 0
    1ecf:	061a04        	ae_addsq56s	aeq0, aeq1, aeq2
    1ed2:	068844        	ae_satq48s	aeq2, aeq0
    1ed5:	622a04        	ae_sq32f.i	aeq2, a10, 0
    1ed8:	1b9782        	l16si	a8, a7, 54
    1edb:	97f8           	l32i.n	a15, a7, 36
    1edd:	130c           	movi.n	a3, 1
    1edf:	f8adb1        	l32r	a11, 194 (1000000 <_end+0xff3560>)
    1ee2:	d2ff80        	quos	a15, a15, a8
    1ee5:	11ff60        	slli	a15, a15, 10
    1ee8:	87f9           	s32i.n	a15, a7, 32
    1eea:	000386        	j	1efc <pitch_by_harmonic+0x3b4>

00001eed <pitch_by_harmonic+0x3a5>:
    1eed:	0002c6        	j	1efc <pitch_by_harmonic+0x3b4>

00001ef0 <pitch_by_harmonic+0x3a8>:
    1ef0:	09fd           	mov.n	a15, a9
    1ef2:	030c           	movi.n	a3, 0
    1ef4:	000106        	j	1efc <pitch_by_harmonic+0x3b4>

00001ef7 <pitch_by_harmonic+0x3af>:
	...

00001ef8 <pitch_by_harmonic+0x3b0>:
    1ef8:	87f8           	l32i.n	a15, a7, 32
    1efa:	030c           	movi.n	a3, 0

00001efc <pitch_by_harmonic+0x3b4>:
    1efc:	1cc122        	addi	a2, a1, 28
    1eff:	60cc04        	ae_lq32f.i	aeq3, a12, 0
    1f02:	18c142        	addi	a4, a1, 24
    1f05:	14c192        	addi	a9, a1, 20
    1f08:	218bf0        	srai	a8, a15, 11
    1f0b:	a0f560        	addx4	a15, a5, a6
    1f0e:	412ff2        	l32i	a15, a15, 0x104
    1f11:	51f9           	s32i.n	a15, a1, 20
    1f13:	604904        	ae_lq32f.i	aeq1, a9, 0
    1f16:	d28f80        	quos	a8, a15, a8
    1f19:	6189           	s32i.n	a8, a1, 24
    1f1b:	608404        	ae_lq32f.i	aeq2, a4, 0
    1f1e:	3623d4        	ae_sllisq56s	aeq0, aeq2, 15
    1f21:	fae3fad29f 	{ ae_sllisq56s	aeq2, aeq1, 9; ae_roundsp16q48sym	aep5, aeq0 }
    1f26:	fb3572520f 	{ ae_sp16f.l.i	aep5, a2, 0; ae_mulq32sp16s.h	aeq3, aeq3, aep5 }
    1f2b:	0e9192        	l16si	a9, a1, 28
    1f2e:	3673d4        	ae_sllisq56s	aeq1, aeq3, 15
    1f31:	061a14        	ae_subsq56s	aeq0, aeq1, aeq2
    1f34:	061864        	ae_absq56	aeq0, aeq0
    1f37:	461926        	beqi	a9, 1, 1f81 <pitch_by_harmonic+0x439>
    1f3a:	4c2926        	beqi	a9, 2, 1f8a <pitch_by_harmonic+0x442>
    1f3d:	364b34        	ae_cvtq48a32s	aeq1, a11

00001f40 <pitch_by_harmonic+0x3f8>:
    1f40:	438c           	beqz.n	a3, 1f48 <pitch_by_harmonic+0x400>
    1f42:	39eee4        	ae_movpa24x2	aep6, a14, a14
    1f45:	086514        	ae_mulrfq32sp24s.l	aeq0, aeq0, aep6

00001f48 <pitch_by_harmonic+0x400>:
    1f48:	d649404dde 	{ addi	a13, a13, 4; ae_ltq56s	b5, aeq0, aeq1 }
    1f4d:	551b           	addi.n	a5, a5, 1
    1f4f:	855d           	ae_sext16	a5, a5
    1f51:	550576        	bf	b5, 1faa <pitch_by_harmonic+0x462>
    1f54:	3b29a6        	blti	a9, 2, 1f93 <pitch_by_harmonic+0x44b>
    1f57:	1b97f2        	l16si	a15, a7, 54
    1f5a:	14c182        	addi	a8, a1, 20
    1f5d:	608804        	ae_lq32f.i	aeq2, a8, 0
    1f60:	ff9a           	add.n	a15, a15, a9
    1f62:	1b57f2        	s16i	a15, a7, 54
    1f65:	604a04        	ae_lq32f.i	aeq1, a10, 0
    1f68:	061a04        	ae_addsq56s	aeq0, aeq1, aeq2
    1f6b:	06c844        	ae_satq48s	aeq3, aeq0
    1f6e:	623a04        	ae_sq32f.i	aeq3, a10, 0
    1f71:	1b9782        	l16si	a8, a7, 54
    1f74:	97f8           	l32i.n	a15, a7, 36
    1f76:	d2ff80        	quos	a15, a15, a8
    1f79:	11ff60        	slli	a15, a15, 10
    1f7c:	87f9           	s32i.n	a15, a7, 32
    1f7e:	000446        	j	1f93 <pitch_by_harmonic+0x44b>

00001f81 <pitch_by_harmonic+0x439>:
    1f81:	f88a81        	l32r	a8, 1ac (99999a <_end+0x98cefa>)
    1f84:	364834        	ae_cvtq48a32s	aeq1, a8
    1f87:	ffed46        	j	1f40 <pitch_by_harmonic+0x3f8>

00001f8a <pitch_by_harmonic+0x442>:
    1f8a:	f88981        	l32r	a8, 1b0 (cccccd <_end+0xcc022d>)
    1f8d:	364834        	ae_cvtq48a32s	aeq1, a8
    1f90:	ffeb06        	j	1f40 <pitch_by_harmonic+0x3f8>

00001f93 <pitch_by_harmonic+0x44b>:
    1f93:	1e97f2        	l16si	a15, a7, 60
    1f96:	080c           	movi.n	a8, 0
    1f98:	ff1b           	addi.n	a15, a15, 1
    1f9a:	1e57f2        	s16i	a15, a7, 60
    1f9d:	176907        	bbci	a9, 0, 1fb8 <pitch_by_harmonic+0x470>
    1fa0:	1f5782        	s16i	a8, a7, 62
    1fa3:	000446        	j	1fb8 <pitch_by_harmonic+0x470>

00001fa6 <pitch_by_harmonic+0x45e>:
    1fa6:	00000000                                ....

00001faa <pitch_by_harmonic+0x462>:
    1faa:	1c9792        	l16si	a9, a7, 56
    1fad:	a08960        	addx4	a8, a9, a6
    1fb0:	6168f2        	s32i	a15, a8, 0x184
    1fb3:	991b           	addi.n	a9, a9, 1
    1fb5:	1c5792        	s16i	a9, a7, 56

00001fb8 <pitch_by_harmonic+0x470>:
    1fb8:	1d9792        	l16si	a9, a7, 58
    1fbb:	02a597        	bge	a5, a9, 1fc1 <pitch_by_harmonic+0x479>

00001fbe <pitch_by_harmonic+0x476>:
    1fbe:	ff8886        	j	1de4 <pitch_by_harmonic+0x29c>

00001fc1 <pitch_by_harmonic+0x479>:
    1fc1:	91a8           	l32i.n	a10, a1, 36
    1fc3:	1c9782        	l16si	a8, a7, 56
    1fc6:	1e9792        	l16si	a9, a7, 60
    1fc9:	145a92        	s16i	a9, a10, 40
    1fcc:	6918a6        	blti	a8, 1, 2039 <pitch_by_harmonic+0x4f1>
    1fcf:	a1b8           	l32i.n	a11, a1, 40
    1fd1:	050c           	movi.n	a5, 0
    1fd3:	f878d1        	l32r	a13, 1b4 (159999a <_end+0x158cefa>)
    1fd6:	364d34        	ae_cvtq48a32s	aeq1, a13
    1fd9:	598076        	loop	a0, 2036 <pitch_by_harmonic+0x4ee>
    1fdc:	60cc04        	ae_lq32f.i	aeq3, a12, 0
    1fdf:	18c182        	addi	a8, a1, 24
    1fe2:	87a8           	l32i.n	a10, a7, 32
    1fe4:	0b98           	l32i.n	a9, a11, 0
    1fe6:	5199           	s32i.n	a9, a1, 20
    1fe8:	21aba0        	srai	a10, a10, 11
    1feb:	d299a0        	quos	a9, a9, a10
    1fee:	6199           	s32i.n	a9, a1, 24
    1ff0:	608804        	ae_lq32f.i	aeq2, a8, 0
    1ff3:	3623d4        	ae_sllisq56s	aeq0, aeq2, 15
    1ff6:	fbe3c141fe 	{ addi	a15, a1, 20; ae_roundsp16q48sym	aep7, aeq0 }
    1ffb:	fb3d7d0f0f 	{ ae_lq32f.i	aeq0, a15, 0; ae_mulq32sp16s.h	aeq3, aeq3, aep7 }
    2000:	368254        	ae_sllisq56s	aeq2, aeq0, 9
    2003:	3633d4        	ae_sllisq56s	aeq0, aeq3, 15
    2006:	fbc280155e 	{ addi	a5, a5, 1; ae_subsq56s	aeq3, aeq0, aeq2 }
    200b:	ff8481c1ee 	{ addi	a14, a1, 28; ae_absq56	aeq3, aeq3 }
    2010:	d6cd804bbe 	{ addi	a11, a11, 4; ae_ltq56s	b6, aeq3, aeq1 }
    2015:	1c9782        	l16si	a8, a7, 56
    2018:	427e04        	ae_sp16f.l.i	aep7, a14, 0
    201b:	120676        	bf	b6, 2031 <pitch_by_harmonic+0x4e9>
    201e:	1e97e2        	l16si	a14, a7, 60
    2021:	0f0c           	movi.n	a15, 0
    2023:	0e91d2        	l16si	a13, a1, 28
    2026:	ee1b           	addi.n	a14, a14, 1
    2028:	1e57e2        	s16i	a14, a7, 60
    202b:	026d07        	bbci	a13, 0, 2031 <pitch_by_harmonic+0x4e9>
    202e:	1f57f2        	s16i	a15, a7, 62
    2031:	855d           	ae_sext16	a5, a5
    2033:	02a587        	bge	a5, a8, 2039 <pitch_by_harmonic+0x4f1>

00002036 <pitch_by_harmonic+0x4ee>:
    2036:	ffe7c6        	j	1fd9 <pitch_by_harmonic+0x491>

00002039 <pitch_by_harmonic+0x4f1>:
    2039:	1f97b2        	l16si	a11, a7, 62
    203c:	085b16        	beqz	a11, 20c5 <pitch_by_harmonic+0x57d>
    203f:	7798           	l32i.n	a9, a7, 28
    2041:	79bc           	beqz.n	a9, 207c <pitch_by_harmonic+0x534>

00002043 <pitch_by_harmonic+0x4fb>:
    2043:	1e9782        	l16si	a8, a7, 60
    2046:	3b38a6        	blti	a8, 3, 2085 <pitch_by_harmonic+0x53d>

00002049 <pitch_by_harmonic+0x501>:
    2049:	87f8           	l32i.n	a15, a7, 32
    204b:	f85b91        	l32r	a9, 1b8 (13ffffff <_end+0x13ff355f>)
    204e:	3329f7        	blt	a9, a15, 2085 <pitch_by_harmonic+0x53d>
    2051:	1897a2        	l16si	a10, a7, 48
    2054:	1c3aa6        	blti	a10, 3, 2074 <pitch_by_harmonic+0x52c>
    2057:	604c04        	ae_lq32f.i	aeq1, a12, 0
    205a:	f84ad1        	l32r	a13, 184 (aaaab <_end+0x9e00b>)
    205d:	28c7e2        	addi	a14, a7, 40
    2060:	608e04        	ae_lq32f.i	aeq2, a14, 0
    2063:	fbcaa20ddf 	{ ae_movpa24x2	aep0, a13, a13; ae_subsq56s	aeq3, aeq1, aeq2 }
    2068:	0804a4        	ae_mulfq32sp24s.h	aeq0, aeq2, aep0
    206b:	06db64        	ae_absq56	aeq3, aeq3
    206e:	098774        	ae_leq56s	b7, aeq3, aeq0
    2071:	101776        	bt	b7, 2085 <pitch_by_harmonic+0x53d>
    2074:	118ff0        	slli	a8, a15, 1
    2077:	8789           	s32i.n	a8, a7, 32
    2079:	0003c6        	j	208c <pitch_by_harmonic+0x544>

0000207c <pitch_by_harmonic+0x534>:
    207c:	1e97a2        	l16si	a10, a7, 60
    207f:	025aa6        	blti	a10, 5, 2085 <pitch_by_harmonic+0x53d>
    2082:	002946        	j	212b <pitch_by_harmonic+0x5e3>

00002085 <pitch_by_harmonic+0x53d>:
    2085:	0b0c           	movi.n	a11, 0
    2087:	1f57b2        	s16i	a11, a7, 62
    208a:	0b0c           	movi.n	a11, 0
    208c:	5bbc           	beqz.n	a11, 20c5 <pitch_by_harmonic+0x57d>
    208e:	87f8           	l32i.n	a15, a7, 32

00002090 <pitch_by_harmonic+0x548>:
    2090:	281fa6        	blti	a15, 1, 20bc <pitch_by_harmonic+0x574>
    2093:	604c04        	ae_lq32f.i	aeq1, a12, 0
    2096:	f83be1        	l32r	a14, 184 (aaaab <_end+0x9e00b>)
    2099:	28c7d2        	addi	a13, a7, 40
    209c:	608d04        	ae_lq32f.i	aeq2, a13, 0
    209f:	fbcaa21eef 	{ ae_movpa24x2	aep1, a14, a14; ae_subsq56s	aeq3, aeq1, aeq2 }
    20a4:	081594        	ae_mulrfq32sp24s.l	aeq0, aeq2, aep1
    20a7:	06db64        	ae_absq56	aeq3, aeq3
    20aa:	098384        	ae_ltq56s	b8, aeq3, aeq0
    20ad:	0b0876        	bf	b8, 20bc <pitch_by_harmonic+0x574>
    20b0:	189782        	l16si	a8, a7, 48
    20b3:	a7f9           	s32i.n	a15, a7, 40
    20b5:	881b           	addi.n	a8, a8, 1
    20b7:	185782        	s16i	a8, a7, 48
    20ba:	f01d           	retw.n

000020bc <pitch_by_harmonic+0x574>:
    20bc:	a7f9           	s32i.n	a15, a7, 40
    20be:	090c           	movi.n	a9, 0
    20c0:	185792        	s16i	a9, a7, 48
    20c3:	f01d           	retw.n

000020c5 <pitch_by_harmonic+0x57d>:
    20c5:	1e9792        	l16si	a9, a7, 60
    20c8:	3d39a6        	blti	a9, 3, 2109 <pitch_by_harmonic+0x5c1>
    20cb:	87f8           	l32i.n	a15, a7, 32
    20cd:	f83ba1        	l32r	a10, 1bc (a8f5c28 <_end+0xa8e9188>)
    20d0:	05aaf7        	bge	a10, a15, 20d9 <pitch_by_harmonic+0x591>
    20d3:	f83bb1        	l32r	a11, 1c0 (2eb851ec <_end+0x2eb7874c>)
    20d6:	b6abf7        	bge	a11, a15, 2090 <pitch_by_harmonic+0x548>

000020d9 <pitch_by_harmonic+0x591>:
    20d9:	0c0c           	movi.n	a12, 0
    20db:	0d0c           	movi.n	a13, 0
    20dd:	87d9           	s32i.n	a13, a7, 32
    20df:	1857d2        	s16i	a13, a7, 48
    20e2:	a7c9           	s32i.n	a12, a7, 40
    20e4:	f01d           	retw.n

000020e6 <pitch_by_harmonic+0x59e>:
    20e6:	abaa           	add.n	a10, a11, a10
    20e8:	ee3c           	movi.n	a14, 62
    20ea:	2d0c           	movi.n	a13, 2
    20ec:	0d59d2        	s16i	a13, a9, 26
    20ef:	0959e2        	s16i	a14, a9, 18
    20f2:	21aaa0        	srai	a10, a10, 10
    20f5:	8262a2        	s32i	a10, a2, 0x208
    20f8:	11aa70        	slli	a10, a10, 9
    20fb:	8162a2        	s32i	a10, a2, 0x204
    20fe:	fee406        	j	1c92 <pitch_by_harmonic+0x14a>

00002101 <pitch_by_harmonic+0x5b9>:
    2101:	0a0c           	movi.n	a10, 0
    2103:	766da2        	s32i	a10, a13, 0x1d8
    2106:	fee206        	j	1c92 <pitch_by_harmonic+0x14a>

00002109 <pitch_by_harmonic+0x5c1>:
    2109:	332926        	beqi	a9, 2, 2140 <pitch_by_harmonic+0x5f8>
    210c:	0f0c           	movi.n	a15, 0
    210e:	87f9           	s32i.n	a15, a7, 32
    2110:	0f0c           	movi.n	a15, 0
    2112:	ffde86        	j	2090 <pitch_by_harmonic+0x548>

00002115 <pitch_by_harmonic+0x5cd>:
    2115:	218aa0        	srai	a8, a10, 10
    2118:	ec3c           	movi.n	a12, 62
    211a:	1b0c           	movi.n	a11, 1
    211c:	0d59b2        	s16i	a11, a9, 26
    211f:	0959c2        	s16i	a12, a9, 18
    2122:	8162a2        	s32i	a10, a2, 0x204
    2125:	826282        	s32i	a8, a2, 0x208
    2128:	fed986        	j	1c92 <pitch_by_harmonic+0x14a>

0000212b <pitch_by_harmonic+0x5e3>:
    212b:	f14956        	bnez	a9, 2043 <pitch_by_harmonic+0x4fb>
    212e:	ffc5c6        	j	2049 <pitch_by_harmonic+0x501>

00002131 <pitch_by_harmonic+0x5e9>:
    2131:	02d2e2        	addmi	a14, a2, 0x200
    2134:	0d0c           	movi.n	a13, 0
    2136:	8362d2        	s32i	a13, a2, 0x20c
    2139:	0a5ed2        	s16i	a13, a14, 20
    213c:	f01d           	retw.n

0000213e <pitch_by_harmonic+0x5f6>:
	...

00002140 <pitch_by_harmonic+0x5f8>:
    2140:	1897f2        	l16si	a15, a7, 48
    2143:	cfac           	beqz.n	a15, 2173 <pitch_by_harmonic+0x62b>
    2145:	87f8           	l32i.n	a15, a7, 32
    2147:	f81f81        	l32r	a8, 1c4 (1f000000 <_end+0x1eff3560>)
    214a:	2528f7        	blt	a8, a15, 2173 <pitch_by_harmonic+0x62b>
    214d:	f81e91        	l32r	a9, 1c8 (bffffff <_end+0xbff355f>)
    2150:	1fa9f7        	bge	a9, a15, 2173 <pitch_by_harmonic+0x62b>
    2153:	604c04        	ae_lq32f.i	aeq1, a12, 0
    2156:	f80ba1        	l32r	a10, 184 (aaaab <_end+0x9e00b>)
    2159:	28c7b2        	addi	a11, a7, 40
    215c:	608b04        	ae_lq32f.i	aeq2, a11, 0
    215f:	f8caa22aaf 	{ ae_movpa24x2	aep2, a10, a10; ae_subsq56s	aeq0, aeq1, aeq2 }
    2164:	08ad94        	ae_mulrfq32sp24s.l	aeq3, aeq2, aep2
    2167:	061864        	ae_absq56	aeq0, aeq0
    216a:	098394        	ae_ltq56s	b9, aeq3, aeq0
    216d:	021976        	bt	b9, 2173 <pitch_by_harmonic+0x62b>
    2170:	ffc706        	j	2090 <pitch_by_harmonic+0x548>

00002173 <pitch_by_harmonic+0x62b>:
    2173:	0f0c           	movi.n	a15, 0
    2175:	0d0c           	movi.n	a13, 0
    2177:	87d9           	s32i.n	a13, a7, 32
    2179:	ffc4c6        	j	2090 <pitch_by_harmonic+0x548>

0000217c <pitch_by_harmonic+0x634>:
    217c:	0e0c           	movi.n	a14, 0
    217e:	a7e9           	s32i.n	a14, a7, 40
    2180:	1857e2        	s16i	a14, a7, 48
    2183:	f01d           	retw.n

00002185 <pitch_by_harmonic+0x63d>:
    2185:	000000                                        ...

00002188 <XMAX6>:
    2188:	004136        	entry	a1, 32
    218b:	024d           	mov.n	a4, a2
    218d:	5438           	l32i.n	a3, a4, 20
    218f:	4458           	l32i.n	a5, a4, 16
    2191:	1488           	l32i.n	a8, a4, 4
    2193:	0228           	l32i.n	a2, a2, 0
    2195:	2478           	l32i.n	a7, a4, 8
    2197:	3468           	l32i.n	a6, a4, 12
    2199:	532280        	max	a2, a2, a8
    219c:	532270        	max	a2, a2, a7
    219f:	532260        	max	a2, a2, a6
    21a2:	532250        	max	a2, a2, a5
    21a5:	532230        	max	a2, a2, a3
    21a8:	f01d           	retw.n

000021aa <XMAX6+0x22>:
	...

000021ac <Xfrac_num_pd_td16>:
    21ac:	008136        	entry	a1, 64
    21af:	f80791        	l32r	a9, 1cc (5a8200 <_end+0x59b760>)
    21b2:	4002f4        	ae_lp16f.i	aep0, a2, -2
    21b5:	ff042c221f 	{ ae_lp16f.i	aep2, a2, 2; ae_cvtq48p24s.h	aeq3, aep0 }
    21ba:	fd442c120f 	{ ae_lp16f.i	aep1, a2, 0; ae_cvtq48p24s.h	aeq1, aep2 }
    21bf:	fe2414513f 	{ s32i.n	a3, a1, 20; ae_cvtq48p24s.h	aeq2, aep1 }
    21c4:	f856a2199f 	{ ae_movpa24x2	aep1, a9, a9; ae_subsq56s	aeq0, aeq2, aeq1 }
    21c9:	f8044014bf 	{ movi	a11, 20; ae_mulfq32sp24s.h	aeq1, aeq0, aep1 }
    21ce:	f8d6b9810f 	{ ae_sq32f.i	aeq0, a1, 0; ae_subsq56s	aeq0, aeq2, aeq3 }
    21d3:	d64800418e 	{ addi	a8, a1, 4; ae_ltq56s	b0, aeq0, aeq1 }
    21d8:	620804        	ae_sq32f.i	aeq0, a8, 0
    21db:	f9847d210f 	{ ae_lq32f.i	aeq1, a1, 0; ae_mulfq32sp24s.l	aeq3, aeq0, aep1 }
    21e0:	490076        	bf	b0, 222d <Xfrac_num_pd_td16+0x81>
    21e3:	f7e3a1        	l32r	a10, 170 (100000 <_end+0xf3560>)
    21e6:	39baa4        	ae_movpa24x2	aep3, a10, a10
    21e9:	083d64        	ae_mulfq32sp24s.l	aeq1, aeq1, aep3
    21ec:	099014        	ae_ltq56s	b1, aeq0, aeq1
    21ef:	f7ff81        	l32r	a8, 1ec (c28f0000 <_end+0xc28e3560>)
    21f2:	020176        	bf	b1, 21f8 <Xfrac_num_pd_td16+0x4c>
    21f5:	003b06        	j	22e5 <Xfrac_num_pd_td16+0x139>
    21f8:	36d054        	ae_sllisq56s	aeq3, aeq1, 1
    21fb:	fe84c014cf 	{ movi	a12, 20; ae_satq48s	aeq2, aeq3 }
    2200:	d6508081be 	{ addi	a11, a1, 8; ae_ltq56s	b2, aeq0, aeq2 }
    2205:	e43a           	add.n	a14, a4, a3
    2207:	11ee00        	slli	a14, a14, 16
    220a:	021276        	bt	b2, 2210 <Xfrac_num_pd_td16+0x64>
    220d:	0027c6        	j	22b0 <Xfrac_num_pd_td16+0x104>
    2210:	f7f0d1        	l32r	a13, 1d0 (cccd0000 <_end+0xcccc3560>)
    2213:	51e9           	s32i.n	a14, a1, 20
    2215:	6061c4        	ae_lq32f.x	aeq1, a1, a12
    2218:	21d9           	s32i.n	a13, a1, 8
    221a:	608b04        	ae_lq32f.i	aeq2, a11, 0
    221d:	35a3f4        	ae_sraiq56	aeq2, aeq2, 15
    2220:	015ac4        	ae_addq56	aeq1, aeq1, aeq2
    2223:	061834        	ae_roundsq32sym	aeq0, aeq1
    2226:	620b04        	ae_sq32f.i	aeq0, a11, 0
    2229:	2128           	l32i.n	a2, a1, 8
    222b:	f01d           	retw.n

0000222d <Xfrac_num_pd_td16+0x81>:
    222d:	604104        	ae_lq32f.i	aeq1, a1, 0
    2230:	d6ccc0009f 	{ movi	a9, 0; ae_ltq56s	b3, aeq3, aeq1 }
    2235:	f7e7f1        	l32r	a15, 1d4 (400000 <_end+0x3f3560>)
    2238:	39cff4        	ae_movpa24x2	aep4, a15, a15
    223b:	020376        	bf	b3, 2241 <Xfrac_num_pd_td16+0x95>
    223e:	002a06        	j	22ea <Xfrac_num_pd_td16+0x13e>
    2241:	084524        	ae_mulfq32sp24s.l	aeq0, aeq0, aep4
    2244:	d6493b009f 	{ ae_sraiq56	aeq2, aeq0, 1; ae_ltq56s	b4, aeq0, aeq1 }
    2249:	099254        	ae_ltq56s	b5, aeq2, aeq1
    224c:	f7e9a1        	l32r	a10, 1f0 (ccd0000 <_end+0xccc3560>)
    224f:	020476        	bf	b4, 2255 <Xfrac_num_pd_td16+0xa9>
    2252:	002686        	j	22f0 <Xfrac_num_pd_td16+0x144>
    2255:	270576        	bf	b5, 2280 <Xfrac_num_pd_td16+0xd4>
    2258:	4b1c           	movi.n	a11, 20
    225a:	a18b           	addi.n	a10, a1, 8
    225c:	c43a           	add.n	a12, a4, a3
    225e:	f7de51        	l32r	a5, 1d8 (199a0000 <_end+0x19993560>)
    2261:	2159           	s32i.n	a5, a1, 8
    2263:	11cc00        	slli	a12, a12, 16
    2266:	51c9           	s32i.n	a12, a1, 20
    2268:	608a04        	ae_lq32f.i	aeq2, a10, 0
    226b:	35a3f4        	ae_sraiq56	aeq2, aeq2, 15
    226e:	6061b4        	ae_lq32f.x	aeq1, a1, a11
    2271:	015ac4        	ae_addq56	aeq1, aeq1, aeq2
    2274:	061834        	ae_roundsq32sym	aeq0, aeq1
    2277:	620a04        	ae_sq32f.i	aeq0, a10, 0
    227a:	2128           	l32i.n	a2, a1, 8
    227c:	f01d           	retw.n

0000227e <Xfrac_num_pd_td16+0xd2>:
	...

00002280 <Xfrac_num_pd_td16+0xd4>:
    2280:	f7d791        	l32r	a9, 1dc (33330000 <_end+0x33323560>)
    2283:	f7d781        	l32r	a8, 1e0 (3d710000 <_end+0x3d703560>)
    2286:	35c0b4        	ae_sraiq56	aeq3, aeq0, 2
    2289:	099364        	ae_ltq56s	b6, aeq3, aeq1
    228c:	d38960        	movt	a8, a9, b6
    228f:	2189           	s32i.n	a8, a1, 8

00002291 <Xfrac_num_pd_td16+0xe5>:
    2291:	a18b           	addi.n	a10, a1, 8
    2293:	c43a           	add.n	a12, a4, a3
    2295:	11cc00        	slli	a12, a12, 16
    2298:	608a04        	ae_lq32f.i	aeq2, a10, 0
    229b:	35a3f4        	ae_sraiq56	aeq2, aeq2, 15
    229e:	51c9           	s32i.n	a12, a1, 20
    22a0:	6061b4        	ae_lq32f.x	aeq1, a1, a11
    22a3:	015ac4        	ae_addq56	aeq1, aeq1, aeq2
    22a6:	061834        	ae_roundsq32sym	aeq0, aeq1
    22a9:	620a04        	ae_sq32f.i	aeq0, a10, 0
    22ac:	2128           	l32i.n	a2, a1, 8
    22ae:	f01d           	retw.n

000022b0 <Xfrac_num_pd_td16+0x104>:
    22b0:	f7cd51        	l32r	a5, 1e4 (e6660000 <_end+0xe6653560>)
    22b3:	f7cdf1        	l32r	a15, 1e8 (f3330000 <_end+0xf3323560>)
    22b6:	36d094        	ae_sllisq56s	aeq3, aeq1, 2
    22b9:	643a           	add.n	a6, a4, a3
    22bb:	116600        	slli	a6, a6, 16
    22be:	fe84c081de 	{ addi	a13, a1, 8; ae_satq48s	aeq2, aeq3 }
    22c3:	d651c014ef 	{ movi	a14, 20; ae_ltq56s	b7, aeq0, aeq2 }
    22c8:	5169           	s32i.n	a6, a1, 20
    22ca:	60a1e4        	ae_lq32f.x	aeq2, a1, a14
    22cd:	d3f570        	movt	a15, a5, b7
    22d0:	21f9           	s32i.n	a15, a1, 8
    22d2:	60cd04        	ae_lq32f.i	aeq3, a13, 0
    22d5:	35f3f4        	ae_sraiq56	aeq3, aeq3, 15
    22d8:	01abc4        	ae_addq56	aeq2, aeq2, aeq3
    22db:	06e834        	ae_roundsq32sym	aeq3, aeq2
    22de:	623d04        	ae_sq32f.i	aeq3, a13, 0
    22e1:	2128           	l32i.n	a2, a1, 8
    22e3:	f01d           	retw.n

000022e5 <Xfrac_num_pd_td16+0x139>:
    22e5:	2189           	s32i.n	a8, a1, 8
    22e7:	ffe986        	j	2291 <Xfrac_num_pd_td16+0xe5>

000022ea <Xfrac_num_pd_td16+0x13e>:
    22ea:	2199           	s32i.n	a9, a1, 8
    22ec:	ffe846        	j	2291 <Xfrac_num_pd_td16+0xe5>

000022ef <Xfrac_num_pd_td16+0x143>:
	...

000022f0 <Xfrac_num_pd_td16+0x144>:
    22f0:	21a9           	s32i.n	a10, a1, 8
    22f2:	ffe6c6        	j	2291 <Xfrac_num_pd_td16+0xe5>

000022f5 <Xfrac_num_pd_td16+0x149>:
    22f5:	000000                                        ...

000022f8 <Xfrac_num_pd_td32>:
    22f8:	008136        	entry	a1, 64
    22fb:	60c214        	ae_lq32f.i	aeq3, a2, 4
    22fe:	608204        	ae_lq32f.i	aeq2, a2, 0
    2301:	f7b291        	l32r	a9, 1cc (5a8200 <_end+0x59b760>)
    2304:	398994        	ae_movpa24x2	aep0, a9, a9
    2307:	f9d6bd62ff 	{ ae_lq32f.i	aeq3, a2, -4; ae_subsq56s	aeq1, aeq2, aeq3 }
    230c:	f80179910f 	{ ae_sq32f.i	aeq1, a1, 0; ae_mulfq32sp24s.h	aeq1, aeq1, aep0 }
    2311:	f8d694513f 	{ s32i.n	a3, a1, 20; ae_subsq56s	aeq0, aeq2, aeq3 }
    2316:	d64800418e 	{ addi	a8, a1, 4; ae_ltq56s	b0, aeq0, aeq1 }
    231b:	620804        	ae_sq32f.i	aeq0, a8, 0
    231e:	f9807d210f 	{ ae_lq32f.i	aeq1, a1, 0; ae_mulfq32sp24s.l	aeq3, aeq0, aep0 }
    2323:	490076        	bf	b0, 2370 <Xfrac_num_pd_td32+0x78>
    2326:	f792a1        	l32r	a10, 170 (100000 <_end+0xf3560>)
    2329:	398aa4        	ae_movpa24x2	aep0, a10, a10
    232c:	080d64        	ae_mulfq32sp24s.l	aeq1, aeq1, aep0
    232f:	099014        	ae_ltq56s	b1, aeq0, aeq1
    2332:	f7ae81        	l32r	a8, 1ec (c28f0000 <_end+0xc28e3560>)
    2335:	020176        	bf	b1, 233b <Xfrac_num_pd_td32+0x43>
    2338:	003c46        	j	242d <Xfrac_num_pd_td32+0x135>
    233b:	36d054        	ae_sllisq56s	aeq3, aeq1, 1
    233e:	fe84c014cf 	{ movi	a12, 20; ae_satq48s	aeq2, aeq3 }
    2343:	d6508081be 	{ addi	a11, a1, 8; ae_ltq56s	b2, aeq0, aeq2 }
    2348:	e43a           	add.n	a14, a4, a3
    234a:	11ee00        	slli	a14, a14, 16
    234d:	021276        	bt	b2, 2353 <Xfrac_num_pd_td32+0x5b>
    2350:	002906        	j	23f8 <Xfrac_num_pd_td32+0x100>
    2353:	f79fd1        	l32r	a13, 1d0 (cccd0000 <_end+0xcccc3560>)
    2356:	51e9           	s32i.n	a14, a1, 20
    2358:	6061c4        	ae_lq32f.x	aeq1, a1, a12
    235b:	21d9           	s32i.n	a13, a1, 8
    235d:	608b04        	ae_lq32f.i	aeq2, a11, 0
    2360:	35a3f4        	ae_sraiq56	aeq2, aeq2, 15
    2363:	015ac4        	ae_addq56	aeq1, aeq1, aeq2
    2366:	061834        	ae_roundsq32sym	aeq0, aeq1
    2369:	620b04        	ae_sq32f.i	aeq0, a11, 0
    236c:	2128           	l32i.n	a2, a1, 8
    236e:	f01d           	retw.n

00002370 <Xfrac_num_pd_td32+0x78>:
    2370:	604104        	ae_lq32f.i	aeq1, a1, 0
    2373:	d6ccc0009f 	{ movi	a9, 0; ae_ltq56s	b3, aeq3, aeq1 }
    2378:	f797f1        	l32r	a15, 1d4 (400000 <_end+0x3f3560>)
    237b:	399ff4        	ae_movpa24x2	aep1, a15, a15
    237e:	020376        	bf	b3, 2384 <Xfrac_num_pd_td32+0x8c>
    2381:	002b46        	j	2432 <Xfrac_num_pd_td32+0x13a>
    2384:	081524        	ae_mulfq32sp24s.l	aeq0, aeq0, aep1
    2387:	099044        	ae_ltq56s	b4, aeq0, aeq1
    238a:	35c074        	ae_sraiq56	aeq3, aeq0, 1
    238d:	020476        	bf	b4, 2393 <Xfrac_num_pd_td32+0x9b>
    2390:	002906        	j	2438 <Xfrac_num_pd_td32+0x140>
    2393:	fe84c014bf 	{ movi	a11, 20; ae_satq48s	aeq2, aeq3 }
    2398:	d6c94081ae 	{ addi	a10, a1, 8; ae_ltq56s	b5, aeq2, aeq1 }
    239d:	c43a           	add.n	a12, a4, a3
    239f:	11cc00        	slli	a12, a12, 16
    23a2:	1c0576        	bf	b5, 23c2 <Xfrac_num_pd_td32+0xca>
    23a5:	f78c51        	l32r	a5, 1d8 (199a0000 <_end+0x19993560>)
    23a8:	51c9           	s32i.n	a12, a1, 20
    23aa:	6061b4        	ae_lq32f.x	aeq1, a1, a11
    23ad:	2159           	s32i.n	a5, a1, 8
    23af:	608a04        	ae_lq32f.i	aeq2, a10, 0
    23b2:	35a3f4        	ae_sraiq56	aeq2, aeq2, 15
    23b5:	015ac4        	ae_addq56	aeq1, aeq1, aeq2
    23b8:	061834        	ae_roundsq32sym	aeq0, aeq1
    23bb:	620a04        	ae_sq32f.i	aeq0, a10, 0
    23be:	2128           	l32i.n	a2, a1, 8
    23c0:	f01d           	retw.n

000023c2 <Xfrac_num_pd_td32+0xca>:
    23c2:	f78691        	l32r	a9, 1dc (33330000 <_end+0x33323560>)
    23c5:	f78681        	l32r	a8, 1e0 (3d710000 <_end+0x3d703560>)
    23c8:	35c0b4        	ae_sraiq56	aeq3, aeq0, 2
    23cb:	068b44        	ae_satq48s	aeq2, aeq3
    23ce:	099264        	ae_ltq56s	b6, aeq2, aeq1
    23d1:	d38960        	movt	a8, a9, b6
    23d4:	2189           	s32i.n	a8, a1, 8

000023d6 <Xfrac_num_pd_td32+0xde>:
    23d6:	4b1c           	movi.n	a11, 20
    23d8:	a18b           	addi.n	a10, a1, 8
    23da:	c43a           	add.n	a12, a4, a3
    23dc:	11cc00        	slli	a12, a12, 16
    23df:	608a04        	ae_lq32f.i	aeq2, a10, 0
    23e2:	35a3f4        	ae_sraiq56	aeq2, aeq2, 15
    23e5:	51c9           	s32i.n	a12, a1, 20
    23e7:	6061b4        	ae_lq32f.x	aeq1, a1, a11
    23ea:	015ac4        	ae_addq56	aeq1, aeq1, aeq2
    23ed:	061834        	ae_roundsq32sym	aeq0, aeq1
    23f0:	620a04        	ae_sq32f.i	aeq0, a10, 0
    23f3:	2128           	l32i.n	a2, a1, 8
    23f5:	f01d           	retw.n

000023f7 <Xfrac_num_pd_td32+0xff>:
	...

000023f8 <Xfrac_num_pd_td32+0x100>:
    23f8:	f77b51        	l32r	a5, 1e4 (e6660000 <_end+0xe6653560>)
    23fb:	f77bf1        	l32r	a15, 1e8 (f3330000 <_end+0xf3323560>)
    23fe:	36d094        	ae_sllisq56s	aeq3, aeq1, 2
    2401:	643a           	add.n	a6, a4, a3
    2403:	116600        	slli	a6, a6, 16
    2406:	fe84c081de 	{ addi	a13, a1, 8; ae_satq48s	aeq2, aeq3 }
    240b:	d651c014ef 	{ movi	a14, 20; ae_ltq56s	b7, aeq0, aeq2 }
    2410:	5169           	s32i.n	a6, a1, 20
    2412:	60a1e4        	ae_lq32f.x	aeq2, a1, a14
    2415:	d3f570        	movt	a15, a5, b7
    2418:	21f9           	s32i.n	a15, a1, 8
    241a:	60cd04        	ae_lq32f.i	aeq3, a13, 0
    241d:	35f3f4        	ae_sraiq56	aeq3, aeq3, 15
    2420:	01abc4        	ae_addq56	aeq2, aeq2, aeq3
    2423:	06e834        	ae_roundsq32sym	aeq3, aeq2
    2426:	623d04        	ae_sq32f.i	aeq3, a13, 0
    2429:	2128           	l32i.n	a2, a1, 8
    242b:	f01d           	retw.n

0000242d <Xfrac_num_pd_td32+0x135>:
    242d:	2189           	s32i.n	a8, a1, 8
    242f:	ffe8c6        	j	23d6 <Xfrac_num_pd_td32+0xde>

00002432 <Xfrac_num_pd_td32+0x13a>:
    2432:	2199           	s32i.n	a9, a1, 8
    2434:	ffe786        	j	23d6 <Xfrac_num_pd_td32+0xde>

00002437 <Xfrac_num_pd_td32+0x13f>:
	...

00002438 <Xfrac_num_pd_td32+0x140>:
    2438:	f76ea1        	l32r	a10, 1f0 (ccd0000 <_end+0xccc3560>)
    243b:	21a9           	s32i.n	a10, a1, 8
    243d:	ffe546        	j	23d6 <Xfrac_num_pd_td32+0xde>

00002440 <SBAEC_INIT>:
    2440:	008136        	entry	a1, 64
    2443:	f70e51        	l32r	a5, 7c (ca94 <p_ecnr_mem>)
    2446:	0b0c           	movi.n	a11, 0
    2448:	0548           	l32i.n	a4, a5, 0
    244a:	c0a0c2        	movi	a12, 192
    244d:	f71381        	l32r	a8, 9c (9dc8 <xt_memset>)
    2450:	3cd422        	addmi	a2, a4, 0x3c00
    2453:	3dd442        	addmi	a4, a4, 0x3d00
    2456:	40c222        	addi	a2, a2, 64
    2459:	20a220        	or	a10, a2, a2
    245c:	88c462        	addi	a6, a4, -120
    245f:	046162        	s32i	a6, a1, 16
    2462:	c8c472        	addi	a7, a4, -56
    2465:	08c462        	addi	a6, a4, 8
    2468:	48c442        	addi	a4, a4, 72
    246b:	0008e0        	callx8	a8
    246e:	0b0c           	movi.n	a11, 0
    2470:	05a8           	l32i.n	a10, a5, 0
    2472:	c0a4c2        	movi	a12, 0x4c0
    2475:	f70981        	l32r	a8, 9c (9dc8 <xt_memset>)
    2478:	1adaa2        	addmi	a10, a10, 0x1a00
    247b:	78caa2        	addi	a10, a10, 120
    247e:	0008e0        	callx8	a8
    2481:	f70731        	l32r	a3, a0 (ca9c <aec_nr_para>)
    2484:	03b8           	l32i.n	a11, a3, 0
    2486:	8d1c           	movi.n	a13, 24
    2488:	ce0c           	movi.n	a14, 12
    248a:	041bc2        	l16ui	a12, a11, 8
    248d:	01d292        	addmi	a9, a2, 0x100
    2490:	d0c992        	addi	a9, a9, -48
    2493:	10ece0        	and	a14, a12, a14
    2496:	f4cee2        	addi	a14, a14, -12
    2499:	173e16        	beqz	a14, 2610 <SBAEC_INIT+0x1d0>

0000249c <SBAEC_INIT+0x5c>:
    249c:	0e4c           	movi.n	a14, 64
    249e:	04f3c0        	extui	a15, a12, 3, 1
    24a1:	150f56        	bnez	a15, 25f5 <SBAEC_INIT+0x1b5>
    24a4:	e39bc2        	l16si	a12, a11, 0x1c6
    24a7:	17fc16        	beqz	a12, 262a <SBAEC_INIT+0x1ea>
    24aa:	5199           	s32i.n	a9, a1, 20
    24ac:	131ba2        	l16ui	a10, a11, 38
    24af:	34e0c0        	extui	a14, a12, 0, 4
    24b2:	34f4c0        	extui	a15, a12, 4, 4
    24b5:	ff1b           	addi.n	a15, a15, 1
    24b7:	ee1b           	addi.n	a14, a14, 1
    24b9:	11eee0        	slli	a14, a14, 2
    24bc:	11ffd0        	slli	a15, a15, 3
    24bf:	b352f2        	s16i	a15, a2, 0x166
    24c2:	b252e2        	s16i	a14, a2, 0x164
    24c5:	8f8d           	ae_sext16	a8, a15
    24c7:	8eed           	ae_sext16	a14, a14
    24c9:	d81b           	addi.n	a13, a8, 1
    24cb:	b3d880        	movgez	a13, a8, a8
    24ce:	21d1d0        	srai	a13, a13, 1
    24d1:	43aae0        	min	a10, a10, a14
    24d4:	8ddd           	ae_sext16	a13, a13
    24d6:	43aad0        	min	a10, a10, a13
    24d9:	34d8c0        	extui	a13, a12, 8, 4
    24dc:	dd1b           	addi.n	a13, a13, 1
    24de:	11dde0        	slli	a13, a13, 2
    24e1:	b452d2        	s16i	a13, a2, 0x168
    24e4:	8ddd           	ae_sext16	a13, a13
    24e6:	43aad0        	min	a10, a10, a13
    24e9:	34dcc0        	extui	a13, a12, 12, 4
    24ec:	dd1b           	addi.n	a13, a13, 1
    24ee:	11dde0        	slli	a13, a13, 2
    24f1:	b552d2        	s16i	a13, a2, 0x16a
    24f4:	8ddd           	ae_sext16	a13, a13
    24f6:	43aad0        	min	a10, a10, a13
    24f9:	135ba2        	s16i	a10, a11, 38

000024fc <SBAEC_INIT+0xbc>:
    24fc:	bbeb           	addi.n	a11, a11, 14
    24fe:	f6e981        	l32r	a8, a4 (9de0 <xt_memcpy>)
    2501:	a22b           	addi.n	a10, a2, 2
    2503:	ec0c           	movi.n	a12, 14
    2505:	0008e0        	callx8	a8
    2508:	02ed           	mov.n	a14, a2
    250a:	03b8           	l32i.n	a11, a3, 0
    250c:	f73a81        	l32r	a8, 1f4 (2658 <Fill_CH_MEM_WB>)
    250f:	05f8           	l32i.n	a15, a5, 0
    2511:	061ba2        	l16ui	a10, a11, 12
    2514:	d81bc2        	l16ui	a12, a11, 0x1b0
    2517:	d99bd2        	l16si	a13, a11, 0x1b2
    251a:	24df92        	addmi	a9, a15, 0x2400
    251d:	f8c992        	addi	a9, a9, -8
    2520:	1152d2        	s16i	a13, a2, 34
    2523:	1052c2        	s16i	a12, a2, 32
    2526:	1adff2        	addmi	a15, a15, 0x1a00
    2529:	78cff2        	addi	a15, a15, 120
    252c:	06cd           	mov.n	a12, a6
    252e:	04dd           	mov.n	a13, a4
    2530:	c61bb2        	l16ui	a11, a11, 0x18c
    2533:	11aac0        	slli	a10, a10, 4
    2536:	92a9           	s32i.n	a10, a2, 36
    2538:	0f52b2        	s16i	a11, a2, 30
    253b:	41a8           	l32i.n	a10, a1, 16
    253d:	07bd           	mov.n	a11, a7
    253f:	0199           	s32i.n	a9, a1, 0
    2541:	0008e0        	callx8	a8
    2544:	41a8           	l32i.n	a10, a1, 16
    2546:	b292b2        	l16si	a11, a2, 0x164
    2549:	1d0c           	movi.n	a13, 1
    254b:	03c8           	l32i.n	a12, a3, 0
    254d:	05e8           	l32i.n	a14, a5, 0
    254f:	f72a81        	l32r	a8, 1f8 (2640 <Fill_sbco>)
    2552:	169cc2        	l16si	a12, a12, 44
    2555:	19dee2        	addmi	a14, a14, 0x1900
    2558:	552e92        	l32i	a9, a14, 0x154
    255b:	e499           	s32i.n	a9, a4, 56
    255d:	512ee2        	l32i	a14, a14, 0x144
    2560:	d4e9           	s32i.n	a14, a4, 52
    2562:	0008e0        	callx8	a8
    2565:	07ad           	mov.n	a10, a7
    2567:	1d0c           	movi.n	a13, 1
    2569:	03c8           	l32i.n	a12, a3, 0
    256b:	b392e2        	l16si	a14, a2, 0x166
    256e:	f72281        	l32r	a8, 1f8 (2640 <Fill_sbco>)
    2571:	179cc2        	l16si	a12, a12, 46
    2574:	be1b           	addi.n	a11, a14, 1
    2576:	b3bee0        	movgez	a11, a14, a14
    2579:	21b1b0        	srai	a11, a11, 1
    257c:	8bbd           	ae_sext16	a11, a11
    257e:	0008e0        	callx8	a8
    2581:	06ad           	mov.n	a10, a6
    2583:	b492b2        	l16si	a11, a2, 0x168
    2586:	03c8           	l32i.n	a12, a3, 0
    2588:	f71c81        	l32r	a8, 1f8 (2640 <Fill_sbco>)
    258b:	1d0c           	movi.n	a13, 1
    258d:	189cc2        	l16si	a12, a12, 48
    2590:	0008e0        	callx8	a8
    2593:	04ad           	mov.n	a10, a4
    2595:	5168           	l32i.n	a6, a1, 20
    2597:	f71971        	l32r	a7, 1fc (1928 <Pitch_by_Corel+0x4cc>)
    259a:	b592b2        	l16si	a11, a2, 0x16a
    259d:	03c8           	l32i.n	a12, a3, 0
    259f:	f71681        	l32r	a8, 1f8 (2640 <Fill_sbco>)
    25a2:	1d0c           	movi.n	a13, 1
    25a4:	199cc2        	l16si	a12, a12, 50
    25a7:	0008e0        	callx8	a8
    25aa:	05e8           	l32i.n	a14, a5, 0
    25ac:	03f8           	l32i.n	a15, a3, 0
    25ae:	ee7a           	add.n	a14, a14, a7
    25b0:	151fc2        	l16ui	a12, a15, 42
    25b3:	021fb2        	l16ui	a11, a15, 4
    25b6:	041fd2        	l16ui	a13, a15, 8
    25b9:	231fa2        	l16ui	a10, a15, 70
    25bc:	051f92        	l16ui	a9, a15, 10
    25bf:	0480d0        	extui	a8, a13, 0, 1
    25c2:	14d1d0        	extui	a13, a13, 1, 2
    25c5:	a45282        	s16i	a8, a2, 0x148
    25c8:	dc1ff2        	l16ui	a15, a15, 0x1b8
    25cb:	f70d81        	l32r	a8, 200 (7fff <NR_vad2+0xe3>)
    25ce:	7d5ec2        	s16i	a12, a14, 250
    25d1:	825ed2        	s16i	a13, a14, 0x104
    25d4:	62bd           	ae_s16i.n	a11, a2, 0
    25d6:	a652a2        	s16i	a10, a2, 0x14c
    25d9:	a55292        	s16i	a9, a2, 0x14a
    25dc:	155282        	s16i	a8, a2, 42
    25df:	7e46f2        	s8i	a15, a6, 126
    25e2:	03d8           	l32i.n	a13, a3, 0
    25e4:	dc1dd2        	l16ui	a13, a13, 0x1b8
    25e7:	452ee2        	l32i	a14, a14, 0x114
    25ea:	2466e2        	s32i	a14, a6, 144
    25ed:	41d8d0        	srli	a13, a13, 8
    25f0:	7f46d2        	s8i	a13, a6, 127
    25f3:	f01d           	retw.n

000025f5 <SBAEC_INIT+0x1b5>:
    25f5:	b452e2        	s16i	a14, a2, 0x168
    25f8:	5199           	s32i.n	a9, a1, 20
    25fa:	60a0f2        	movi	a15, 96
    25fd:	c0a082        	movi	a8, 192
    2600:	00a1a2        	movi	a10, 0x100
    2603:	b252a2        	s16i	a10, a2, 0x164
    2606:	b35282        	s16i	a8, a2, 0x166
    2609:	b552f2        	s16i	a15, a2, 0x16a
    260c:	ffbb06        	j	24fc <SBAEC_INIT+0xbc>

0000260f <SBAEC_INIT+0x1cf>:
	...

00002610 <SBAEC_INIT+0x1d0>:
    2610:	f6fd81        	l32r	a8, 204 (fff7 <_end+0x3557>)
    2613:	7e1c           	movi.n	a14, 23
    2615:	131bf2        	l16ui	a15, a11, 38
    2618:	10cc80        	and	a12, a12, a8
    261b:	045bc2        	s16i	a12, a11, 8
    261e:	023ef7        	bltu	a14, a15, 2624 <SBAEC_INIT+0x1e4>
    2621:	ff9dc6        	j	249c <SBAEC_INIT+0x5c>
    2624:	135bd2        	s16i	a13, a11, 38
    2627:	ff9c46        	j	249c <SBAEC_INIT+0x5c>

0000262a <SBAEC_INIT+0x1ea>:
    262a:	b252e2        	s16i	a14, a2, 0x164
    262d:	b452d2        	s16i	a13, a2, 0x168
    2630:	5199           	s32i.n	a9, a1, 20
    2632:	0a2c           	movi.n	a10, 32
    2634:	0c3c           	movi.n	a12, 48
    2636:	b352c2        	s16i	a12, a2, 0x166
    2639:	b552a2        	s16i	a10, a2, 0x16a
    263c:	ffaf06        	j	24fc <SBAEC_INIT+0xbc>

0000263f <SBAEC_INIT+0x1ff>:
	...

00002640 <Fill_sbco>:
    2640:	004136        	entry	a1, 32
    2643:	115232        	s16i	a3, a2, 34
    2646:	125252        	s16i	a5, a2, 36
    2649:	118400        	slli	a8, a4, 16
    264c:	f6ed61        	l32r	a6, 200 (7fff <NR_vad2+0xe3>)
    264f:	105262        	s16i	a6, a2, 32
    2652:	5289           	s32i.n	a8, a2, 20
    2654:	4289           	s32i.n	a8, a2, 16
    2656:	f01d           	retw.n

00002658 <Fill_CH_MEM_WB>:
    2658:	004136        	entry	a1, 32
    265b:	8188           	l32i.n	a8, a1, 32
    265d:	b596e2        	l16si	a14, a6, 0x16a
    2660:	b496a2        	l16si	a10, a6, 0x168
    2663:	b296c2        	l16si	a12, a6, 0x164
    2666:	b396b2        	l16si	a11, a6, 0x166
    2669:	a279           	s32i.n	a7, a2, 40
    266b:	909c70        	addx2	a9, a12, a7
    266e:	a399           	s32i.n	a9, a3, 40
    2670:	90db90        	addx2	a13, a11, a9
    2673:	a4d9           	s32i.n	a13, a4, 40
    2675:	90dad0        	addx2	a13, a10, a13
    2678:	a5d9           	s32i.n	a13, a5, 40
    267a:	90eed0        	addx2	a14, a14, a13
    267d:	90cce0        	addx2	a12, a12, a14
    2680:	90bbc0        	addx2	a11, a11, a12
    2683:	90aab0        	addx2	a10, a10, a11
    2686:	b2e9           	s32i.n	a14, a2, 44
    2688:	a2f8           	l32i.n	a15, a2, 40
    268a:	a4e8           	l32i.n	a14, a4, 40
    268c:	b3c9           	s32i.n	a12, a3, 44
    268e:	b4b9           	s32i.n	a11, a4, 44
    2690:	28c8c2        	addi	a12, a8, 40
    2693:	50c8b2        	addi	a11, a8, 80
    2696:	b5a9           	s32i.n	a10, a5, 44
    2698:	c399           	s32i.n	a9, a3, 48
    269a:	64c8a2        	addi	a10, a8, 100
    269d:	78c892        	addi	a9, a8, 120
    26a0:	c2f9           	s32i.n	a15, a2, 48
    26a2:	c4e9           	s32i.n	a14, a4, 48
    26a4:	c5d9           	s32i.n	a13, a5, 48
    26a6:	d389           	s32i.n	a8, a3, 52
    26a8:	f3c9           	s32i.n	a12, a3, 60
    26aa:	01d882        	addmi	a8, a8, 0x100
    26ad:	d2b9           	s32i.n	a11, a2, 52
    26af:	8cc8c2        	addi	a12, a8, -116
    26b2:	a0c8b2        	addi	a11, a8, -96
    26b5:	d4a9           	s32i.n	a10, a4, 52
    26b7:	f299           	s32i.n	a9, a2, 60
    26b9:	c8c8a2        	addi	a10, a8, -56
    26bc:	f0c892        	addi	a9, a8, -16
    26bf:	f4c9           	s32i.n	a12, a4, 60
    26c1:	884b           	addi.n	a8, a8, 4
    26c3:	f5b9           	s32i.n	a11, a5, 60
    26c5:	e3a9           	s32i.n	a10, a3, 56
    26c7:	e299           	s32i.n	a9, a2, 56
    26c9:	e489           	s32i.n	a8, a4, 56
    26cb:	f01d           	retw.n

000026cd <Fill_CH_MEM_WB+0x75>:
    26cd:	000000                                        ...

000026d0 <common_x_pow>:
    26d0:	006136        	entry	a1, 48
    26d3:	36c434        	ae_cvtq48a32s	aeq3, a4
    26d6:	fe84bec33f 	{ ae_cvtq48a32s	aeq0, a3; ae_absq56	aeq2, aeq3 }
    26db:	065864        	ae_absq56	aeq1, aeq0
    26de:	09a104        	ae_ltq56s	b0, aeq1, aeq2
    26e1:	f6c951        	l32r	a5, 208 (200000 <_end+0x1f3560>)
    26e4:	550076        	bf	b0, 273d <common_x_pow+0x6d>
    26e7:	fb36fec57f 	{ ae_cvtq48a32s	aeq1, a5; ae_subq56	aeq3, aeq2, aeq1 }
    26ec:	09b164        	ae_ltq56s	b6, aeq1, aeq3
    26ef:	f6c881        	l32r	a8, 210 (c170 <immediate_num>)
    26f2:	f6c691        	l32r	a9, 20c (2aaa00 <_end+0x29df60>)
    26f5:	240676        	bf	b6, 271d <common_x_pow+0x4d>
    26f8:	440804        	ae_lp16x2f.i	aep0, a8, 0
    26fb:	399994        	ae_movpa24x2	aep1, a9, a9
    26fe:	d5e63d222f 	{ ae_lq32f.i	aeq1, a2, 8; ae_mulfq32sp16s.l	aeq2, aeq0, aep1 }
    2703:	c10844        	ae_mulzaafq32sp16s.lh	aeq1, aeq1, aep0, aeq0, aep0
    2706:	ff347d423f 	{ ae_lq32f.i	aeq2, a2, 12; ae_roundsq32asym	aeq3, aeq2 }
    270b:	c180b4        	ae_mulzaafq32sp16s.lh	aeq2, aeq2, aep0, aeq3, aep0
    270e:	06d934        	ae_roundsq32asym	aeq3, aeq1
    2711:	fd3479b22f 	{ ae_sq32f.i	aeq3, a2, 8; ae_roundsq32asym	aeq1, aeq2 }
    2716:	621234        	ae_sq32f.i	aeq1, a2, 12
    2719:	120c           	movi.n	a2, 1
    271b:	f01d           	retw.n

0000271d <common_x_pow+0x4d>:
    271d:	f6bca1        	l32r	a10, 210 (c170 <immediate_num>)
    2720:	60c224        	ae_lq32f.i	aeq3, a2, 8
    2723:	442a04        	ae_lp16x2f.i	aep2, a10, 0
    2726:	0f497d223f 	{ ae_lq32f.i	aeq1, a2, 12; ae_mulzaafq32sp16s.lh	aeq3, aeq3, aep2, aeq0, aep2 }
    272b:	c12a44        	ae_mulzaafq32sp16s.lh	aeq1, aeq1, aep2, aeq0, aep2
    272e:	06b934        	ae_roundsq32asym	aeq2, aeq3
    2731:	ff2c79a22f 	{ ae_sq32f.i	aeq2, a2, 8; ae_roundsq32asym	aeq3, aeq1 }
    2736:	623234        	ae_sq32f.i	aeq3, a2, 12
    2739:	120c           	movi.n	a2, 1
    273b:	f01d           	retw.n

0000273d <common_x_pow+0x6d>:
    273d:	f6b4b1        	l32r	a11, 210 (c170 <immediate_num>)
    2740:	604224        	ae_lq32f.i	aeq1, a2, 8
    2743:	443b04        	ae_lp16x2f.i	aep3, a11, 0
    2746:	0c6d7d423f 	{ ae_lq32f.i	aeq2, a2, 12; ae_mulzaafq32sp16s.lh	aeq1, aeq1, aep3, aeq0, aep3 }
    274b:	c1b3b4        	ae_mulzaafq32sp16s.lh	aeq2, aeq2, aep3, aeq3, aep3
    274e:	065934        	ae_roundsq32asym	aeq1, aeq1
    2751:	fd3479922f 	{ ae_sq32f.i	aeq1, a2, 8; ae_roundsq32asym	aeq1, aeq2 }
    2756:	621234        	ae_sq32f.i	aeq1, a2, 12
    2759:	020c           	movi.n	a2, 0
    275b:	f01d           	retw.n

0000275d <common_x_pow+0x8d>:
    275d:	000000                                        ...

00002760 <ref_gain_adapt>:
    2760:	004136        	entry	a1, 32
    2763:	f6ac81        	l32r	a8, 214 (c174 <immediate_num+0x4>)
    2766:	5378           	l32i.n	a7, a3, 20
    2768:	360734        	ae_cvtq48a32s	aeq0, a7
    276b:	0395d6        	bgez	a5, 27a8 <ref_gain_adapt+0x48>
    276e:	440804        	ae_lp16x2f.i	aep0, a8, 0
    2771:	059262        	l16si	a6, a2, 10
    2774:	368434        	ae_cvtq48a32s	aeq2, a4
    2777:	038a84        	ae_mulfq32sp16s.h	aeq3, aeq2, aep0
    277a:	116600        	slli	a6, a6, 16
    277d:	364634        	ae_cvtq48a32s	aeq1, a6
    2780:	09b104        	ae_ltq56s	b0, aeq1, aeq3
    2783:	f6a1a1        	l32r	a10, 208 (200000 <_end+0x1f3560>)
    2786:	370076        	bf	b0, 27c1 <ref_gain_adapt+0x61>
    2789:	a10804        	ae_mulzaafq32sp16s.ll	aeq1, aeq0, aep0, aeq0, aep0
    278c:	06d934        	ae_roundsq32asym	aeq3, aeq1
    278f:	36b904        	ae_trunca32q48	a9, aeq3
    2792:	608344        	ae_lq32f.i	aeq2, a3, 16
    2795:	5399a0        	max	a9, a9, a10
    2798:	5399           	s32i.n	a9, a3, 20
    279a:	441844        	ae_lp16x2f.i	aep1, a8, 16
    279d:	c191b4        	ae_mulzaafq32sp16s.lh	aeq2, aeq2, aep1, aeq3, aep1
    27a0:	066934        	ae_roundsq32asym	aeq1, aeq2
    27a3:	621344        	ae_sq32f.i	aeq1, a3, 16
    27a6:	f01d           	retw.n

000027a8 <ref_gain_adapt+0x48>:
    27a8:	f698b1        	l32r	a11, 208 (200000 <_end+0x1f3560>)
    27ab:	60c344        	ae_lq32f.i	aeq3, a3, 16
    27ae:	53b7b0        	max	a11, a7, a11
    27b1:	53b9           	s32i.n	a11, a3, 20
    27b3:	442844        	ae_lp16x2f.i	aep2, a8, 16
    27b6:	c1aac4        	ae_mulzaafq32sp16s.lh	aeq3, aeq3, aep2, aeq0, aep2
    27b9:	06b934        	ae_roundsq32asym	aeq2, aeq3
    27bc:	622344        	ae_sq32f.i	aeq2, a3, 16
    27bf:	f01d           	retw.n

000027c1 <ref_gain_adapt+0x61>:
    27c1:	440814        	ae_lp16x2f.i	aep0, a8, 4
    27c4:	038a84        	ae_mulfq32sp16s.h	aeq3, aeq2, aep0
    27c7:	09b114        	ae_ltq56s	b1, aeq1, aeq3
    27ca:	f68fd1        	l32r	a13, 208 (200000 <_end+0x1f3560>)
    27cd:	3b0176        	bf	b1, 280c <ref_gain_adapt+0xac>
    27d0:	a10004        	ae_mulzaafq32sp16s.ll	aeq0, aeq0, aep0, aeq0, aep0
    27d3:	06c934        	ae_roundsq32asym	aeq3, aeq0
    27d6:	36bc04        	ae_trunca32q48	a12, aeq3
    27d9:	608344        	ae_lq32f.i	aeq2, a3, 16
    27dc:	53ccd0        	max	a12, a12, a13
    27df:	53c9           	s32i.n	a12, a3, 20
    27e1:	443844        	ae_lp16x2f.i	aep3, a8, 16
    27e4:	c1b3b4        	ae_mulzaafq32sp16s.lh	aeq2, aeq2, aep3, aeq3, aep3
    27e7:	066934        	ae_roundsq32asym	aeq1, aeq2
    27ea:	621344        	ae_sq32f.i	aeq1, a3, 16
    27ed:	f01d           	retw.n

000027ef <ref_gain_adapt+0x8f>:
	...

000027f0 <ref_gain_adapt+0x90>:
    27f0:	06c934        	ae_roundsq32asym	aeq3, aeq0
    27f3:	36bc04        	ae_trunca32q48	a12, aeq3
    27f6:	608344        	ae_lq32f.i	aeq2, a3, 16
    27f9:	53ccd0        	max	a12, a12, a13
    27fc:	53c9           	s32i.n	a12, a3, 20
    27fe:	443844        	ae_lp16x2f.i	aep3, a8, 16
    2801:	c1b3b4        	ae_mulzaafq32sp16s.lh	aeq2, aeq2, aep3, aeq3, aep3
    2804:	066934        	ae_roundsq32asym	aeq1, aeq2
    2807:	621344        	ae_sq32f.i	aeq1, a3, 16
    280a:	f01d           	retw.n

0000280c <ref_gain_adapt+0xac>:
    280c:	440824        	ae_lp16x2f.i	aep0, a8, 8
    280f:	038a44        	ae_mulfq32sp16s.h	aeq3, aeq1, aep0
    2812:	09b224        	ae_ltq56s	b2, aeq2, aeq3
    2815:	f67cd1        	l32r	a13, 208 (200000 <_end+0x1f3560>)
    2818:	d5e36d483f 	{ ae_lp16x2f.i	aep4, a8, 12; ae_mulfq32sp16s.l	aeq3, aeq1, aep0 }
    281d:	cf0276        	bf	b2, 27f0 <ref_gain_adapt+0x90>
    2820:	09a334        	ae_ltq56s	b3, aeq3, aeq2
    2823:	01d2f2        	addmi	a15, a2, 0x100
    2826:	3e0c           	movi.n	a14, 3
    2828:	051376        	bt	b3, 2831 <ref_gain_adapt+0xd1>
    282b:	4e0ff2        	l8ui	a15, a15, 78
    282e:	be0ef7        	bnone	a14, a15, 27f0 <ref_gain_adapt+0x90>

00002831 <ref_gain_adapt+0xd1>:
    2831:	034214        	ae_mulfq32sp16s.l	aeq0, aeq0, aep4
    2834:	ffee06        	j	27f0 <ref_gain_adapt+0x90>

00002837 <ref_gain_adapt+0xd7>:
	...

00002838 <aec_post_calc>:
    2838:	006136        	entry	a1, 48
    283b:	f67791        	l32r	a9, 218 (80000 <_end+0x73560>)
    283e:	f632a1        	l32r	a10, 108 (10000 <_end+0x3560>)
    2841:	fcc482        	addi	a8, a4, -4
    2844:	098816        	beqz	a8, 28e0 <aec_post_calc+0xa8>
    2847:	0323c2        	l32i	a12, a3, 12
    284a:	364934        	ae_cvtq48a32s	aeq1, a9
    284d:	1ec2e2        	addi	a14, a2, 30
    2850:	400e04        	ae_lp16f.i	aep0, a14, 0
    2853:	d4e3f023be 	{ l32i	a11, a3, 8; ae_mulfq32sp16u.l	aeq1, aeq1, aep0 }
    2858:	360a34        	ae_cvtq48a32s	aeq0, a10
    285b:	d4e2b9910f 	{ ae_sq32f.i	aeq1, a1, 0; ae_mulfq32sp16u.l	aeq0, aeq0, aep0 }
    2860:	0021d2        	l32i	a13, a1, 0
    2863:	620104        	ae_sq32f.i	aeq0, a1, 0
    2866:	0021a2        	l32i	a10, a1, 0
    2869:	53bbd0        	max	a11, a11, a13
    286c:	53aca0        	max	a10, a12, a10
    286f:	43aba0        	min	a10, a11, a10

00002872 <aec_post_calc+0x3a>:
    2872:	f66a81        	l32r	a8, 21c (8c40 <airoha_divide_limit_1>)
    2875:	0008e0        	callx8	a8
    2878:	4c2244        	ae_lp24.i	aep2, a2, 16
    287b:	378aa4        	ae_truncp24a32x2	aep0, a10, a10
    287e:	60c364        	ae_lq32f.i	aeq3, a3, 24
    2881:	018a34        	ae_mulafp24s.ll	aeq3, aep0, aep2
    2884:	06b934        	ae_roundsq32asym	aeq2, aeq3
    2887:	622364        	ae_sq32f.i	aeq2, a3, 24
    288a:	1792a2        	l16si	a10, a2, 46
    288d:	029292        	l16si	a9, a2, 4
    2890:	604374        	ae_lq32f.i	aeq1, a3, 28
    2893:	1692b2        	l16si	a11, a2, 44
    2896:	1fa9a7        	bge	a9, a10, 28b9 <aec_post_calc+0x81>
    2899:	0a9292        	l16si	a9, a2, 20
    289c:	6b1ba6        	blti	a11, 1, 290b <aec_post_calc+0xd3>
    289f:	c92b           	addi.n	a12, a9, 2
    28a1:	0316c4        	wur.ae_sar	a12
    28a4:	f823ec327f 	{ ae_lp16f.i	aep3, a2, 14; ae_sllssp24s	aep1, aep0 }
    28a9:	071b14        	ae_maxp24s	aep1, aep1, aep3
    28ac:	011a34        	ae_mulafp24s.ll	aeq1, aep1, aep2
    28af:	061934        	ae_roundsq32asym	aeq0, aeq1
    28b2:	620374        	ae_sq32f.i	aeq0, a3, 28
    28b5:	f01d           	retw.n

000028b7 <aec_post_calc+0x7f>:
	...

000028b9 <aec_post_calc+0x81>:
    28b9:	0b92a2        	l16si	a10, a2, 22
    28bc:	404274        	ae_lp16f.i	aep4, a2, 14
    28bf:	f862fd637f 	{ ae_lq32f.i	aeq3, a3, 28; ae_movp48	aep1, aep0 }
    28c4:	0a2aa6        	blti	a10, 2, 28d2 <aec_post_calc+0x9a>
    28c7:	8a0b           	addi.n	a8, a10, -1
    28c9:	05a876        	loopgtz	a8, 28d2 <aec_post_calc+0x9a>
    28cc:	010174        	ae_mulfp24s.ll	aeq0, aep0, aep1
    28cf:	1b8d04        	ae_roundsp24q48asym	aep0, aeq0
    28d2:	070c44        	ae_maxp24s	aep4, aep0, aep4
    28d5:	01ca34        	ae_mulafp24s.ll	aeq3, aep4, aep2
    28d8:	06b934        	ae_roundsq32asym	aeq2, aeq3
    28db:	622374        	ae_sq32f.i	aeq2, a3, 28
    28de:	f01d           	retw.n

000028e0 <aec_post_calc+0xa8>:
    28e0:	33c8           	l32i.n	a12, a3, 12
    28e2:	364934        	ae_cvtq48a32s	aeq1, a9
    28e5:	20c2e2        	addi	a14, a2, 32
    28e8:	405e04        	ae_lp16f.i	aep5, a14, 0
    28eb:	d4f7f023be 	{ l32i	a11, a3, 8; ae_mulfq32sp16u.l	aeq1, aeq1, aep5 }
    28f0:	360a34        	ae_cvtq48a32s	aeq0, a10
    28f3:	d4f6b9910f 	{ ae_sq32f.i	aeq1, a1, 0; ae_mulfq32sp16u.l	aeq0, aeq0, aep5 }
    28f8:	01d8           	l32i.n	a13, a1, 0
    28fa:	620104        	ae_sq32f.i	aeq0, a1, 0
    28fd:	01a8           	l32i.n	a10, a1, 0
    28ff:	53bbd0        	max	a11, a11, a13
    2902:	53aca0        	max	a10, a12, a10
    2905:	43aba0        	min	a10, a11, a10
    2908:	ffd986        	j	2872 <aec_post_calc+0x3a>

0000290b <aec_post_calc+0xd3>:
    290b:	031694        	wur.ae_sar	a9
    290e:	fb23ac727f 	{ ae_lp16f.i	aep7, a2, 14; ae_sllssp24s	aep6, aep0 }
    2913:	dbfa3d637f 	{ ae_lq32f.i	aeq3, a3, 28; ae_maxp24s	aep6, aep6, aep7 }
    2918:	01ea34        	ae_mulafp24s.ll	aeq3, aep6, aep2
    291b:	06b934        	ae_roundsq32asym	aeq2, aeq3
    291e:	622374        	ae_sq32f.i	aeq2, a3, 28
    2921:	f01d           	retw.n

00002923 <aec_post_calc+0xeb>:
	...

00002924 <subband_aec_block>:
    2924:	00a136        	entry	a1, 80
    2927:	4129           	s32i.n	a2, a1, 16
    2929:	5139           	s32i.n	a3, a1, 20
    292b:	2169           	s32i.n	a6, a1, 8
    292d:	c388           	l32i.n	a8, a3, 48
    292f:	60c344        	ae_lq32f.i	aeq3, a3, 16
    2932:	4b0c           	movi.n	a11, 4
    2934:	1193c2        	l16si	a12, a3, 34
    2937:	5822a2        	l32i	a10, a2, 0x160
    293a:	0e2392        	l32i	a9, a3, 56
    293d:	0a23d2        	l32i	a13, a3, 40
    2940:	f3f6d0        	wur.ae_cbegin0	a13
    2943:	440904        	ae_lp16x2f.i	aep0, a9, 0
    2946:	fccaa2        	addi	a10, a10, -4
    2949:	90ccd0        	addx2	a12, a12, a13
    294c:	f3f7c0        	wur.ae_cend0	a12
    294f:	01c4c2        	addi	a12, a4, 1
    2952:	b3c440        	movgez	a12, a4, a4
    2955:	21c1c0        	srai	a12, a12, 1
    2958:	fe249431cf 	{ s32i.n	a12, a1, 12; ae_zeroq56	aeq2 }
    295d:	19ac76        	loopgtz	a12, 297a <subband_aec_block+0x56>
    2960:	12039ab8bf 	{ ae_lp16x2f.c	aep3, a8, a11; ae_mulzaafq32sp16s.ll	aeq0, aeq3, aep0, aeq3, aep0 }
    2965:	0a03ed891f 	{ ae_lp16x2f.iu	aep0, a9, 4; ae_mulzaafq32sp16s.hh	aeq1, aeq3, aep0, aeq3, aep0 }
    296a:	1b8f14        	ae_roundsp16q48asym	aep1, aeq0
    296d:	1b9f24        	ae_roundsp16q48asym	aep2, aeq1
    2970:	f16e3e21df 	{ ae_selp24.hl	aep3, aep2, aep1; ae_mulssfp24s.hh.ll	aeq2, aep3, aep3 }
    2975:	e36c33ba1f 	{ ae_sp16x2f.iu	aep3, a10, 4; ae_mulaafp24s.hh.ll	aeq2, aep3, aep3 }

0000297a <subband_aec_block+0x56>:
    297a:	5198           	l32i.n	a9, a1, 20
    297c:	41a8           	l32i.n	a10, a1, 16
    297e:	35a234        	ae_sraiq56	aeq2, aeq2, 8
    2981:	614904        	ae_lq56.i	aeq1, a9, 0
    2984:	f9ea309aae 	{ l32i	a10, a10, 36; ae_addq56	aeq1, aeq1, aeq2 }
    2989:	ff04feca3f 	{ ae_cvtq48a32s	aeq0, a10; ae_satq48s	aeq3, aeq1 }
    298e:	01c3c4        	ae_maxq56s	aeq3, aeq3, aeq0
    2991:	633904        	ae_sq56s.i	aeq3, a9, 0
    2994:	0125d6        	bgez	a5, 29aa <subband_aec_block+0x86>
    2997:	1099a2        	l16si	a10, a9, 32
    299a:	f62181        	l32r	a8, 220 (8b28 <airoha_divide>)
    299d:	36bb04        	ae_trunca32q48	a11, aeq3
    29a0:	11aa70        	slli	a10, a10, 9
    29a3:	0008e0        	callx8	a8
    29a6:	01b9           	s32i.n	a11, a1, 0
    29a8:	11a9           	s32i.n	a10, a1, 4

000029aa <subband_aec_block+0x86>:
    29aa:	51f8           	l32i.n	a15, a1, 20
    29ac:	270c           	movi.n	a7, 2
    29ae:	4128           	l32i.n	a2, a1, 16
    29b0:	cf88           	l32i.n	a8, a15, 48
    29b2:	ff98           	l32i.n	a9, a15, 60
    29b4:	119f62        	l16si	a6, a15, 34
    29b7:	582222        	l32i	a2, a2, 0x160
    29ba:	6169           	s32i.n	a6, a1, 24
    29bc:	bf68           	l32i.n	a6, a15, 44
    29be:	fec222        	addi	a2, a2, -2
    29c1:	dff8           	l32i.n	a15, a15, 52
    29c3:	fec9c2        	addi	a12, a9, -2
    29c6:	fec662        	addi	a6, a6, -2
    29c9:	fecfd2        	addi	a13, a15, -2
    29cc:	6614a6        	blti	a4, 1, 2a36 <subband_aec_block+0x112>
    29cf:	030c           	movi.n	a3, 0
    29d1:	069d           	mov.n	a9, a6

000029d3 <subband_aec_block+0xaf>:
    29d3:	61b8           	l32i.n	a11, a1, 24
    29d5:	409214        	ae_lp16f.iu	aep1, a2, 2
    29d8:	fc24e2987f 	{ ae_sp16f.l.c	aep1, a8, a7; nop }
    29dd:	408d14        	ae_lp16f.iu	aep0, a13, 2
    29e0:	fc0c2c991f 	{ ae_lp16f.iu	aep1, a9, 2; ae_cvtq48p24s.l	aeq0, aep0 }
    29e5:	09ab76        	loopgtz	a11, 29f2 <subband_aec_block+0xce>
    29e8:	fc24d9087f 	{ ae_lp16f.c	aep0, a8, a7; nop }
    29ed:	ee05ac991f 	{ ae_lp16f.iu	aep1, a9, 2; ae_mulsfp24s.ll	aeq0, aep1, aep0 }

000029f2 <subband_aec_block+0xce>:
    29f2:	f86380133e 	{ addi	a3, a3, 1; ae_roundsp16q48asym	aep0, aeq0 }
    29f7:	428c14        	ae_sp16f.l.iu	aep0, a12, 2
    29fa:	02a5d6        	bgez	a5, 2a28 <subband_aec_block+0x104>
    29fd:	61b8           	l32i.n	a11, a1, 24
    29ff:	0198           	l32i.n	a9, a1, 0
    2a01:	360934        	ae_cvtq48a32s	aeq0, a9
    2a04:	d4e23011fe 	{ l32i	a15, a1, 4; ae_mulfq32sp16s.l	aeq0, aeq0, aep0 }
    2a09:	069d           	mov.n	a9, a6
    2a0b:	fc24fe8fcf 	{ ae_slaasq56s	aeq3, aeq0, a15; nop }
    2a10:	f97fac891f 	{ ae_lp16f.iu	aep0, a9, 2; ae_roundsp24q48asym	aep2, aeq3 }
    2a15:	0fab76        	loopgtz	a11, 2a28 <subband_aec_block+0x104>

00002a18 <subband_aec_block+0xf4>:
    2a18:	fc0c19087f 	{ ae_lp16f.c	aep0, a8, a7; ae_cvtq48p24s.l	aeq0, aep0 }
    2a1d:	e20bac891f 	{ ae_lp16f.iu	aep0, a9, 2; ae_mulafp24s.ll	aeq0, aep2, aep0 }
    2a22:	1b8f14        	ae_roundsp16q48asym	aep1, aeq0
    2a25:	4219f4        	ae_sp16f.l.i	aep1, a9, -2
    2a28:	069d           	mov.n	a9, a6
    2a2a:	a59437        	bne	a4, a3, 29d3 <subband_aec_block+0xaf>
    2a2d:	052192        	l32i	a9, a1, 20
    2a30:	0d29f2        	l32i	a15, a9, 52
    2a33:	0f2992        	l32i	a9, a9, 60

00002a36 <subband_aec_block+0x112>:
    2a36:	51b8           	l32i.n	a11, a1, 20
    2a38:	31a8           	l32i.n	a10, a1, 12
    2a3a:	0a5084        	ae_zeroq56	aeq1
    2a3d:	fc0c54cb8f 	{ s32i.n	a8, a11, 48; ae_movq56	aeq0, aeq1 }
    2a42:	1f1aa6        	blti	a10, 1, 2a65 <subband_aec_block+0x141>
    2a45:	aa0b           	addi.n	a10, a10, -1
    2a47:	fcc992        	addi	a9, a9, -4
    2a4a:	fccf82        	addi	a8, a15, -4
    2a4d:	448814        	ae_lp16x2f.iu	aep0, a8, 4
    2a50:	e2002d991f 	{ ae_lp16x2f.iu	aep1, a9, 4; ae_mulaafp24s.hh.ll	aeq0, aep0, aep0 }
    2a55:	09aa76        	loopgtz	a10, 2a62 <subband_aec_block+0x13e>
    2a58:	e2206d881f 	{ ae_lp16x2f.iu	aep0, a8, 4; ae_mulaafp24s.hh.ll	aeq1, aep0, aep1 }
    2a5d:	e2002d991f 	{ ae_lp16x2f.iu	aep1, a9, 4; ae_mulaafp24s.hh.ll	aeq0, aep0, aep0 }

00002a62 <subband_aec_block+0x13e>:
    2a62:	050904        	ae_mulaafp24s.hh.ll	aeq1, aep0, aep1

00002a65 <subband_aec_block+0x141>:
    2a65:	51a8           	l32i.n	a10, a1, 20
    2a67:	f5ef81        	l32r	a8, 224 (26d0 <common_x_pow>)
    2a6a:	358134        	ae_sraiq56	aeq2, aeq0, 4
    2a6d:	fc347b114f 	{ ae_sraiq56	aeq1, aeq1, 4; ae_roundsq32asym	aeq0, aeq2 }
    2a72:	ff2c7f0bef 	{ ae_trunca32q48	a11, aeq0; ae_roundsq32asym	aeq3, aeq1 }
    2a77:	36bc04        	ae_trunca32q48	a12, aeq3
    2a7a:	0008e0        	callx8	a8
    2a7d:	ca8c           	beqz.n	a10, 2a8d <subband_aec_block+0x169>
    2a7f:	51b8           	l32i.n	a11, a1, 20
    2a81:	04cd           	mov.n	a12, a4
    2a83:	f58881        	l32r	a8, a4 (9de0 <xt_memcpy>)
    2a86:	fba8           	l32i.n	a10, a11, 60
    2a88:	dbb8           	l32i.n	a11, a11, 52
    2a8a:	0008e0        	callx8	a8

00002a8d <subband_aec_block+0x169>:
    2a8d:	4198           	l32i.n	a9, a1, 16
    2a8f:	5188           	l32i.n	a8, a1, 20
    2a91:	0d9992        	l16si	a9, a9, 26
    2a94:	b8a8           	l32i.n	a10, a8, 44
    2a96:	ff24a1188e 	{ l16si	a8, a8, 34; ae_zeroq56	aeq3 }
    2a9b:	633144        	ae_sq56s.i	aeq3, a1, 32
    2a9e:	d91b           	addi.n	a13, a9, 1
    2aa0:	9088a0        	addx2	a8, a8, a10
    2aa3:	b3d990        	movgez	a13, a9, a9
    2aa6:	21d1d0        	srai	a13, a13, 1
    2aa9:	1199f0        	slli	a9, a9, 1
    2aac:	c08890        	sub	a8, a8, a9
    2aaf:	8ddd           	ae_sext16	a13, a13
    2ab1:	181da6        	blti	a13, 1, 2acd <subband_aec_block+0x1a9>
    2ab4:	610144        	ae_lq56.i	aeq0, a1, 32
    2ab7:	9d0b           	addi.n	a9, a13, -1
    2ab9:	fcc882        	addi	a8, a8, -4
    2abc:	448814        	ae_lp16x2f.iu	aep0, a8, 4
    2abf:	04a976        	loopgtz	a9, 2ac7 <subband_aec_block+0x1a3>
    2ac2:	e2002d881f 	{ ae_lp16x2f.iu	aep0, a8, 4; ae_mulaafp24s.hh.ll	aeq0, aep0, aep0 }

00002ac7 <subband_aec_block+0x1a3>:
    2ac7:	050004        	ae_mulaafp24s.hh.ll	aeq0, aep0, aep0
    2aca:	630144        	ae_sq56s.i	aeq0, a1, 32

00002acd <subband_aec_block+0x1a9>:
    2acd:	f5d381        	l32r	a8, 21c (8c40 <airoha_divide_limit_1>)
    2ad0:	0c0c           	movi.n	a12, 0
    2ad2:	51b8           	l32i.n	a11, a1, 20
    2ad4:	610144        	ae_lq56.i	aeq0, a1, 32
    2ad7:	3540b4        	ae_sraiq56	aeq1, aeq0, 2
    2ada:	fc2c703bae 	{ l32i	a10, a11, 12; ae_roundsq32asym	aeq0, aeq1 }
    2adf:	630144        	ae_sq56s.i	aeq0, a1, 32
    2ae2:	2bb8           	l32i.n	a11, a11, 8
    2ae4:	53aac0        	max	a10, a10, a12
    2ae7:	0008e0        	callx8	a8
    2aea:	31a0a0        	srai	a10, a10, 16
    2aed:	51d8           	l32i.n	a13, a1, 20
    2aef:	4198           	l32i.n	a9, a1, 16
    2af1:	f5c381        	l32r	a8, 200 (7fff <NR_vad2+0xe3>)
    2af4:	129dd2        	l16si	a13, a13, 36
    2af7:	049992        	l16si	a9, a9, 8
    2afa:	c088a0        	sub	a8, a8, a10
    2afd:	04e1d0        	extui	a14, a13, 1, 1
    2b00:	538890        	max	a8, a8, a9
    2b03:	09fe56        	bnez	a14, 2ba6 <subband_aec_block+0x282>
    2b06:	51a8           	l32i.n	a10, a1, 20
    2b08:	618144        	ae_lq56.i	aeq2, a1, 32
    2b0b:	36a404        	ae_trunca32q48	a4, aeq2
    2b0e:	105a82        	s16i	a8, a10, 32

00002b11 <subband_aec_block+0x1ed>:
    2b11:	41b8           	l32i.n	a11, a1, 16
    2b13:	059bb2        	l16si	a11, a11, 10
    2b16:	11bb00        	slli	a11, a11, 16
    2b19:	75ab47        	bge	a11, a4, 2b92 <subband_aec_block+0x26e>
    2b1c:	41c8           	l32i.n	a12, a1, 16
    2b1e:	f5c281        	l32r	a8, 228 (c188 <immediate_num+0x18>)
    2b21:	51e8           	l32i.n	a14, a1, 20
    2b23:	069cc2        	l16si	a12, a12, 12
    2b26:	20dd70        	or	a13, a13, a7
    2b29:	125ed2        	s16i	a13, a14, 36
    2b2c:	11cc00        	slli	a12, a12, 16
    2b2f:	05ac47        	bge	a12, a4, 2b38 <subband_aec_block+0x214>
    2b32:	402804        	ae_lp16f.i	aep2, a8, 0
    2b35:	000086        	j	2b3b <subband_aec_block+0x217>

00002b38 <subband_aec_block+0x214>:
    2b38:	402814        	ae_lp16f.i	aep2, a8, 2

00002b3b <subband_aec_block+0x217>:
    2b3b:	4198           	l32i.n	a9, a1, 16
    2b3d:	5188           	l32i.n	a8, a1, 20
    2b3f:	0d9992        	l16si	a9, a9, 26
    2b42:	b8a8           	l32i.n	a10, a8, 44
    2b44:	119882        	l16si	a8, a8, 34
    2b47:	f91b           	addi.n	a15, a9, 1
    2b49:	b3f990        	movgez	a15, a9, a9
    2b4c:	9088a0        	addx2	a8, a8, a10
    2b4f:	1199f0        	slli	a9, a9, 1
    2b52:	21f1f0        	srai	a15, a15, 1
    2b55:	8ffd           	ae_sext16	a15, a15
    2b57:	c08890        	sub	a8, a8, a9
    2b5a:	fec892        	addi	a9, a8, -2
    2b5d:	440804        	ae_lp16x2f.i	aep0, a8, 0
    2b60:	2e1fa6        	blti	a15, 1, 2b92 <subband_aec_block+0x26e>
    2b63:	010254        	ae_mulfp24s.hl	aeq0, aep0, aep2
    2b66:	eb41cfffae 	{ addi	a10, a15, -1; ae_mulfp24s.ll	aeq3, aep0, aep2 }
    2b6b:	f963ed881f 	{ ae_lp16x2f.iu	aep0, a8, 4; ae_roundsp16q48asym	aep3, aeq0 }
    2b70:	f87bf2391f 	{ ae_sp16f.l.i	aep3, a9, 2; ae_roundsp16q48asym	aep1, aeq3 }
    2b75:	11aa76        	loopgtz	a10, 2b8a <subband_aec_block+0x266>
    2b78:	ea40b2992f 	{ ae_sp16f.l.iu	aep1, a9, 4; ae_mulfp24s.hl	aeq0, aep0, aep2 }
    2b7d:	ea41ed881f 	{ ae_lp16x2f.iu	aep0, a8, 4; ae_mulfp24s.ll	aeq1, aep0, aep2 }
    2b82:	1b8f14        	ae_roundsp16q48asym	aep1, aeq0
    2b85:	f86bf2191f 	{ ae_sp16f.l.i	aep1, a9, 2; ae_roundsp16q48asym	aep1, aeq1 }

00002b8a <subband_aec_block+0x266>:
    2b8a:	51d8           	l32i.n	a13, a1, 20
    2b8c:	429924        	ae_sp16f.l.iu	aep1, a9, 4
    2b8f:	129dd2        	l16si	a13, a13, 36
    2b92:	02ed07        	bbsi	a13, 0, 2b98 <subband_aec_block+0x274>
    2b95:	f01d           	retw.n

00002b97 <subband_aec_block+0x273>:
	...

00002b98 <subband_aec_block+0x274>:
    2b98:	41a8           	l32i.n	a10, a1, 16
    2b9a:	f5a481        	l32r	a8, 22c (2838 <aec_post_calc>)
    2b9d:	51b8           	l32i.n	a11, a1, 20
    2b9f:	21c8           	l32i.n	a12, a1, 8
    2ba1:	0008e0        	callx8	a8
    2ba4:	f01d           	retw.n

00002ba6 <subband_aec_block+0x282>:
    2ba6:	05dd           	mov.n	a13, a5
    2ba8:	f5a291        	l32r	a9, 230 (2760 <ref_gain_adapt>)
    2bab:	41e8           	l32i.n	a14, a1, 16
    2bad:	51f8           	l32i.n	a15, a1, 20
    2baf:	614144        	ae_lq56.i	aeq1, a1, 32
    2bb2:	0ead           	mov.n	a10, a14
    2bb4:	039ee2        	l16si	a14, a14, 6
    2bb7:	369404        	ae_trunca32q48	a4, aeq1
    2bba:	0fbd           	mov.n	a11, a15
    2bbc:	82ee80        	mull	a14, a14, a8
    2bbf:	04cd           	mov.n	a12, a4
    2bc1:	40dee2        	addmi	a14, a14, 0x4000
    2bc4:	21efe0        	srai	a14, a14, 15
    2bc7:	105fe2        	s16i	a14, a15, 32
    2bca:	0009e0        	callx8	a9
    2bcd:	51d8           	l32i.n	a13, a1, 20
    2bcf:	129dd2        	l16si	a13, a13, 36
    2bd2:	ffcec6        	j	2b11 <subband_aec_block+0x1ed>

00002bd5 <subband_aec_block+0x2b1>:
    2bd5:	000000                                        ...

00002bd8 <subband_aec_mid_channel>:
    2bd8:	00a136        	entry	a1, 80
    2bdb:	0159           	s32i.n	a5, a1, 0
    2bdd:	c388           	l32i.n	a8, a3, 48
    2bdf:	60c344        	ae_lq32f.i	aeq3, a3, 16
    2be2:	1193b2        	l16si	a11, a3, 34
    2be5:	5822a2        	l32i	a10, a2, 0x160
    2be8:	0e2392        	l32i	a9, a3, 56
    2beb:	0a23c2        	l32i	a12, a3, 40
    2bee:	f3f6c0        	wur.ae_cbegin0	a12
    2bf1:	440904        	ae_lp16x2f.i	aep0, a9, 0
    2bf4:	fccaa2        	addi	a10, a10, -4
    2bf7:	a0bbc0        	addx4	a11, a11, a12
    2bfa:	0aa0c2        	movi	a12, 10
    2bfd:	f3f7b0        	wur.ae_cend0	a11
    2c00:	fe248004bf 	{ movi	a11, 4; ae_zeroq56	aeq2 }
    2c05:	198c76        	loop	a12, 2c22 <subband_aec_mid_channel+0x4a>
    2c08:	12039ab8bf 	{ ae_lp16x2f.c	aep3, a8, a11; ae_mulzaafq32sp16s.ll	aeq0, aeq3, aep0, aeq3, aep0 }
    2c0d:	0a03ed891f 	{ ae_lp16x2f.iu	aep0, a9, 4; ae_mulzaafq32sp16s.hh	aeq1, aeq3, aep0, aeq3, aep0 }
    2c12:	1b8f14        	ae_roundsp16q48asym	aep1, aeq0
    2c15:	1b9f24        	ae_roundsp16q48asym	aep2, aeq1
    2c18:	f16e3e21df 	{ ae_selp24.hl	aep3, aep2, aep1; ae_mulssfp24s.hh.ll	aeq2, aep3, aep3 }
    2c1d:	e36c33ba1f 	{ ae_sp16x2f.iu	aep3, a10, 4; ae_mulaafp24s.hh.ll	aeq2, aep3, aep3 }

00002c22 <subband_aec_mid_channel+0x4a>:
    2c22:	92e8           	l32i.n	a14, a2, 36
    2c24:	3521b4        	ae_sraiq56	aeq0, aeq2, 6
    2c27:	61c304        	ae_lq56.i	aeq3, a3, 0
    2c2a:	01f8c4        	ae_addq56	aeq3, aeq3, aeq0
    2c2d:	11eee0        	slli	a14, a14, 2
    2c30:	fd84fecebf 	{ ae_cvtq48a32s	aeq2, a14; ae_satq48s	aeq1, aeq3 }
    2c35:	0161c4        	ae_maxq56s	aeq1, aeq1, aeq2
    2c38:	631304        	ae_sq56s.i	aeq1, a3, 0
    2c3b:	28d496        	bltz	a4, 2ecc <subband_aec_mid_channel+0x2f4>
    2c3e:	2189           	s32i.n	a8, a1, 8
    2c40:	11f9           	s32i.n	a15, a1, 4

00002c42 <subband_aec_mid_channel+0x6a>:
    2c42:	c388           	l32i.n	a8, a3, 48
    2c44:	1193d2        	l16si	a13, a3, 34
    2c47:	0f0c           	movi.n	a15, 0
    2c49:	4b0c           	movi.n	a11, 4
    2c4b:	582252        	l32i	a5, a2, 0x160
    2c4e:	f368           	l32i.n	a6, a3, 60
    2c50:	d378           	l32i.n	a7, a3, 52
    2c52:	b398           	l32i.n	a9, a3, 44
    2c54:	4199           	s32i.n	a9, a1, 16
    2c56:	fcc772        	addi	a7, a7, -4
    2c59:	fec662        	addi	a6, a6, -2
    2c5c:	fcc552        	addi	a5, a5, -4
    2c5f:	fec992        	addi	a9, a9, -2
    2c62:	3199           	s32i.n	a9, a1, 12

00002c64 <subband_aec_mid_channel+0x8c>:
    2c64:	449514        	ae_lp16x2f.iu	aep1, a5, 4
    2c67:	41a8           	l32i.n	a10, a1, 16
    2c69:	fc24e418bf 	{ ae_sp16x2f.c	aep1, a8, a11; nop }
    2c6e:	448714        	ae_lp16x2f.iu	aep0, a7, 4
    2c71:	fc04139aaf 	{ or	a9, a10, a10; ae_cvtq48p24s.h	aeq0, aep0 }
    2c76:	fd0c2d0a0f 	{ ae_lp16x2f.i	aep0, a10, 0; ae_cvtq48p24s.l	aeq1, aep0 }
    2c7b:	481da6        	blti	a13, 1, 2cc7 <subband_aec_mid_channel+0xef>
    2c7e:	21a1d0        	srai	a10, a13, 1
    2c81:	0e6d07        	bbci	a13, 0, 2c93 <subband_aec_mid_channel+0xbb>
    2c84:	4c0c           	movi.n	a12, 4
    2c86:	fc24daa8cf 	{ ae_lp16x2f.c	aep2, a8, a12; nop }
    2c8b:	0502c4        	ae_mulssfp24s.hh.ll	aeq0, aep0, aep2
    2c8e:	ee406d891f 	{ ae_lp16x2f.iu	aep0, a9, 4; ae_mulsafp24s.hl.lh	aeq1, aep0, aep2 }

00002c93 <subband_aec_mid_channel+0xbb>:
    2c93:	0abc           	beqz.n	a10, 2cc7 <subband_aec_mid_channel+0xef>
    2c95:	ba0b           	addi.n	a11, a10, -1
    2c97:	4a0c           	movi.n	a10, 4
    2c99:	fc24dab8af 	{ ae_lp16x2f.c	aep3, a8, a10; nop }
    2c9e:	ee606d291f 	{ ae_lp16x2f.i	aep2, a9, 4; ae_mulsafp24s.hl.lh	aeq1, aep0, aep3 }
    2ca3:	f0621a88af 	{ ae_lp16x2f.c	aep0, a8, a10; ae_mulssfp24s.hh.ll	aeq0, aep0, aep3 }
    2ca8:	f00a2d992f 	{ ae_lp16x2f.iu	aep1, a9, 8; ae_mulssfp24s.hh.ll	aeq0, aep2, aep0 }
    2cad:	13ab76        	loopgtz	a11, 2cc4 <subband_aec_mid_channel+0xec>
    2cb0:	ee085a88af 	{ ae_lp16x2f.c	aep0, a8, a10; ae_mulsafp24s.hl.lh	aeq1, aep2, aep0 }
    2cb5:	f0062d291f 	{ ae_lp16x2f.i	aep2, a9, 4; ae_mulssfp24s.hh.ll	aeq0, aep1, aep0 }
    2cba:	ee045a88af 	{ ae_lp16x2f.c	aep0, a8, a10; ae_mulsafp24s.hl.lh	aeq1, aep1, aep0 }
    2cbf:	f00a2d992f 	{ ae_lp16x2f.iu	aep1, a9, 8; ae_mulssfp24s.hh.ll	aeq0, aep2, aep0 }

00002cc4 <subband_aec_mid_channel+0xec>:
    2cc4:	052894        	ae_mulsafp24s.hl.lh	aeq1, aep2, aep0

00002cc7 <subband_aec_mid_channel+0xef>:
    2cc7:	f863801ffe 	{ addi	a15, a15, 1; ae_roundsp16q48asym	aep0, aeq0 }
    2ccc:	f96bb2861f 	{ ae_sp16f.l.iu	aep0, a6, 2; ae_roundsp16q48asym	aep2, aeq1 }
    2cd1:	42a614        	ae_sp16f.l.iu	aep2, a6, 2
    2cd4:	0664d6        	bgez	a4, 2d3e <subband_aec_mid_channel+0x166>
    2cd7:	11a8           	l32i.n	a10, a1, 4
    2cd9:	368a34        	ae_cvtq48a32s	aeq2, a10
    2cdc:	d7e27041ee 	{ l32i	a14, a1, 16; ae_mulfq32sp16s.l	aeq3, aeq2, aep0 }
    2ce1:	d7ea30219e 	{ l32i	a9, a1, 8; ae_mulfq32sp16s.l	aeq2, aeq2, aep2 }
    2ce6:	fc24feb90f 	{ ae_slaasq56s	aeq0, aeq3, a9; nop }
    2ceb:	fc24fea94f 	{ ae_slaasq56s	aeq1, aeq2, a9; nop }
    2cf0:	f96ff031ae 	{ l32i	a10, a1, 12; ae_roundsp24q48asym	aep3, aeq1 }
    2cf5:	f967ad0e0f 	{ ae_lp16x2f.i	aep0, a14, 0; ae_roundsp24q48asym	aep2, aeq0 }
    2cfa:	dd68939eef 	{ or	a9, a14, a14; ae_selp24.hl	aep2, aep2, aep3 }
    2cff:	3b1da6        	blti	a13, 1, 2d3e <subband_aec_mid_channel+0x166>
    2d02:	ff0c0004bf 	{ movi	a11, 4; ae_cvtq48p24s.l	aeq3, aep0 }
    2d07:	fc041ad8bf 	{ ae_lp16x2f.c	aep5, a8, a11; ae_cvtq48p24s.h	aeq0, aep0 }
    2d0c:	052504        	ae_mulaafp24s.hh.ll	aeq0, aep2, aep5
    2d0f:	eba84ffdce 	{ addi	a12, a13, -1; ae_mulasfp24s.hl.lh	aeq3, aep2, aep5 }
    2d14:	fa63ad891f 	{ ae_lp16x2f.iu	aep0, a9, 4; ae_roundsp16q48asym	aep4, aeq0 }
    2d19:	f87bf24a1f 	{ ae_sp16f.l.i	aep4, a10, 2; ae_roundsp16q48asym	aep1, aeq3 }
    2d1e:	19ac76        	loopgtz	a12, 2d3b <subband_aec_mid_channel+0x163>
    2d21:	fc0c329a2f 	{ ae_sp16f.l.iu	aep1, a10, 4; ae_cvtq48p24s.l	aeq0, aep0 }
    2d26:	fd041a98bf 	{ ae_lp16x2f.c	aep1, a8, a11; ae_cvtq48p24s.h	aeq1, aep0 }
    2d2b:	e2286d891f 	{ ae_lp16x2f.iu	aep0, a9, 4; ae_mulaafp24s.hh.ll	aeq1, aep2, aep1 }
    2d30:	052154        	ae_mulasfp24s.hl.lh	aeq0, aep2, aep1
    2d33:	1b9f14        	ae_roundsp16q48asym	aep1, aeq1
    2d36:	f863f21a1f 	{ ae_sp16f.l.i	aep1, a10, 2; ae_roundsp16q48asym	aep1, aeq0 }

00002d3b <subband_aec_mid_channel+0x163>:
    2d3b:	429a24        	ae_sp16f.l.iu	aep1, a10, 4
    2d3e:	4b0c           	movi.n	a11, 4
    2d40:	f6cf92        	addi	a9, a15, -10
    2d43:	f1d956        	bnez	a9, 2c64 <subband_aec_mid_channel+0x8c>
    2d46:	aa0c           	movi.n	a10, 10
    2d48:	d398           	l32i.n	a9, a3, 52
    2d4a:	f3b8           	l32i.n	a11, a3, 60
    2d4c:	c389           	s32i.n	a8, a3, 48
    2d4e:	fc24ad090f 	{ ae_lp16x2f.i	aep0, a9, 0; ae_zeroq56	aeq0 }
    2d53:	fe046d1b0f 	{ ae_lp16x2f.i	aep1, a11, 0; ae_movq56	aeq2, aeq0 }
    2d58:	fd04538bbf 	{ or	a8, a11, a11; ae_movq56	aeq1, aeq0 }
    2d5d:	0c8a76        	loop	a10, 2d6d <subband_aec_mid_channel+0x195>
    2d60:	050104        	ae_mulaafp24s.hh.ll	aeq0, aep0, aep1

00002d63 <subband_aec_mid_channel+0x18b>:
    2d63:	ea206d981f 	{ ae_lp16x2f.iu	aep1, a8, 4; ae_mulasfp24s.hl.lh	aeq1, aep0, aep1 }
    2d68:	e3002d891f 	{ ae_lp16x2f.iu	aep0, a9, 4; ae_mulaafp24s.hh.ll	aeq2, aep0, aep0 }

00002d6d <subband_aec_mid_channel+0x195>:
    2d6d:	f4c281        	l32r	a8, 78 (808 <HIFI_sqrt>)
    2d70:	35d134        	ae_sraiq56	aeq3, aeq1, 4
    2d73:	fb7ffb014f 	{ ae_sraiq56	aeq1, aeq0, 4; ae_roundsp24q48asym	aep7, aeq3 }
    2d78:	1b9d64        	ae_roundsp24q48asym	aep6, aeq1
    2d7b:	1aef64        	ae_selp24.hl	aep6, aep6, aep7
    2d7e:	f0dabb218f 	{ ae_sraiq56	aeq2, aeq2, 4; ae_mulzaafp24s.hh.ll	aeq0, aep6, aep6 }
    2d83:	fd344000af 	{ movi	a10, 0; ae_roundsq32asym	aeq1, aeq2 }
    2d88:	ff247a113f 	{ ae_sq56s.i	aeq1, a1, 24; ae_roundsq32asym	aeq3, aeq0 }
    2d8d:	36bb04        	ae_trunca32q48	a11, aeq3
    2d90:	0008e0        	callx8	a8
    2d93:	f52481        	l32r	a8, 224 (26d0 <common_x_pow>)
    2d96:	618134        	ae_lq56.i	aeq2, a1, 24
    2d99:	36cb34        	ae_cvtq48a32s	aeq3, a11
    2d9c:	fc24feba4f 	{ ae_slaasq56s	aeq1, aeq3, a10; nop }
    2da1:	36ab04        	ae_trunca32q48	a11, aeq2
    2da4:	fc2c53a33f 	{ or	a10, a3, a3; ae_roundsq32asym	aeq0, aeq1 }
    2da9:	368c04        	ae_trunca32q48	a12, aeq0
    2dac:	0008e0        	callx8	a8
    2daf:	aa8c           	beqz.n	a10, 2dbd <subband_aec_mid_channel+0x1e5>
    2db1:	f3a8           	l32i.n	a10, a3, 60
    2db3:	f4bc81        	l32r	a8, a4 (9de0 <xt_memcpy>)
    2db6:	d3b8           	l32i.n	a11, a3, 52
    2db8:	4c1c           	movi.n	a12, 20
    2dba:	0008e0        	callx8	a8

00002dbd <subband_aec_mid_channel+0x1e5>:
    2dbd:	0d92a2        	l16si	a10, a2, 26
    2dc0:	119382        	l16si	a8, a3, 34
    2dc3:	fc24b0b39e 	{ l32i	a9, a3, 44; ae_zeroq56	aeq0 }
    2dc8:	630144        	ae_sq56s.i	aeq0, a1, 32
    2dcb:	c088a0        	sub	a8, a8, a10
    2dce:	a08890        	addx4	a8, a8, a9
    2dd1:	181aa6        	blti	a10, 1, 2ded <subband_aec_mid_channel+0x215>
    2dd4:	610144        	ae_lq56.i	aeq0, a1, 32
    2dd7:	9a0b           	addi.n	a9, a10, -1
    2dd9:	fcc882        	addi	a8, a8, -4
    2ddc:	448814        	ae_lp16x2f.iu	aep0, a8, 4
    2ddf:	04a976        	loopgtz	a9, 2de7 <subband_aec_mid_channel+0x20f>
    2de2:	e2002d881f 	{ ae_lp16x2f.iu	aep0, a8, 4; ae_mulaafp24s.hh.ll	aeq0, aep0, aep0 }

00002de7 <subband_aec_mid_channel+0x20f>:
    2de7:	050004        	ae_mulaafp24s.hh.ll	aeq0, aep0, aep0
    2dea:	630144        	ae_sq56s.i	aeq0, a1, 32

00002ded <subband_aec_mid_channel+0x215>:
    2ded:	33a8           	l32i.n	a10, a3, 12
    2def:	f50b81        	l32r	a8, 21c (8c40 <airoha_divide_limit_1>)
    2df2:	614144        	ae_lq56.i	aeq1, a1, 32
    2df5:	3590b4        	ae_sraiq56	aeq2, aeq1, 2
    2df8:	fd347023be 	{ l32i	a11, a3, 8; ae_roundsq32asym	aeq1, aeq2 }
    2dfd:	631144        	ae_sq56s.i	aeq1, a1, 32
    2e00:	0008e0        	callx8	a8
    2e03:	f4ff81        	l32r	a8, 200 (7fff <NR_vad2+0xe3>)
    2e06:	049292        	l16si	a9, a2, 8
    2e09:	31a0a0        	srai	a10, a10, 16
    2e0c:	c088a0        	sub	a8, a8, a10
    2e0f:	1293a2        	l16si	a10, a3, 36
    2e12:	260c           	movi.n	a6, 2
    2e14:	538890        	max	a8, a8, a9
    2e17:	0491a0        	extui	a9, a10, 1, 1
    2e1a:	077956        	bnez	a9, 2e95 <subband_aec_mid_channel+0x2bd>
    2e1d:	105382        	s16i	a8, a3, 32
    2e20:	61c144        	ae_lq56.i	aeq3, a1, 32
    2e23:	36b404        	ae_trunca32q48	a4, aeq3

00002e26 <subband_aec_mid_channel+0x24e>:
    2e26:	0592b2        	l16si	a11, a2, 10
    2e29:	11bb00        	slli	a11, a11, 16
    2e2c:	60ab47        	bge	a11, a4, 2e90 <subband_aec_mid_channel+0x2b8>
    2e2f:	f4fe81        	l32r	a8, 228 (c188 <immediate_num+0x18>)
    2e32:	0692c2        	l16si	a12, a2, 12
    2e35:	20aa60        	or	a10, a10, a6
    2e38:	1253a2        	s16i	a10, a3, 36
    2e3b:	11cc00        	slli	a12, a12, 16
    2e3e:	07ac47        	bge	a12, a4, 2e49 <subband_aec_mid_channel+0x271>
    2e41:	402804        	ae_lp16f.i	aep2, a8, 0
    2e44:	000106        	j	2e4c <subband_aec_mid_channel+0x274>

00002e47 <subband_aec_mid_channel+0x26f>:
	...

00002e49 <subband_aec_mid_channel+0x271>:
    2e49:	402814        	ae_lp16f.i	aep2, a8, 2

00002e4c <subband_aec_mid_channel+0x274>:
    2e4c:	0d92b2        	l16si	a11, a2, 26
    2e4f:	119382        	l16si	a8, a3, 34
    2e52:	b398           	l32i.n	a9, a3, 44
    2e54:	c088b0        	sub	a8, a8, a11
    2e57:	a08890        	addx4	a8, a8, a9
    2e5a:	fec892        	addi	a9, a8, -2
    2e5d:	440804        	ae_lp16x2f.i	aep0, a8, 0
    2e60:	2c1ba6        	blti	a11, 1, 2e90 <subband_aec_mid_channel+0x2b8>
    2e63:	010a54        	ae_mulfp24s.hl	aeq1, aep0, aep2
    2e66:	ea418ffbae 	{ addi	a10, a11, -1; ae_mulfp24s.ll	aeq0, aep0, aep2 }
    2e6b:	f86bed881f 	{ ae_lp16x2f.iu	aep0, a8, 4; ae_roundsp16q48asym	aep1, aeq1 }
    2e70:	f863f2191f 	{ ae_sp16f.l.i	aep1, a9, 2; ae_roundsp16q48asym	aep1, aeq0 }
    2e75:	11aa76        	loopgtz	a10, 2e8a <subband_aec_mid_channel+0x2b2>
    2e78:	ea40b2992f 	{ ae_sp16f.l.iu	aep1, a9, 4; ae_mulfp24s.hl	aeq0, aep0, aep2 }
    2e7d:	ea41ed881f 	{ ae_lp16x2f.iu	aep0, a8, 4; ae_mulfp24s.ll	aeq1, aep0, aep2 }
    2e82:	1b8f14        	ae_roundsp16q48asym	aep1, aeq0
    2e85:	f86bf2191f 	{ ae_sp16f.l.i	aep1, a9, 2; ae_roundsp16q48asym	aep1, aeq1 }

00002e8a <subband_aec_mid_channel+0x2b2>:
    2e8a:	429924        	ae_sp16f.l.iu	aep1, a9, 4
    2e8d:	1293a2        	l16si	a10, a3, 36
    2e90:	2aea07        	bbsi	a10, 0, 2ebe <subband_aec_mid_channel+0x2e6>
    2e93:	f01d           	retw.n

00002e95 <subband_aec_mid_channel+0x2bd>:
    2e95:	02ad           	mov.n	a10, a2
    2e97:	03bd           	mov.n	a11, a3
    2e99:	0392f2        	l16si	a15, a2, 6
    2e9c:	04dd           	mov.n	a13, a4
    2e9e:	618144        	ae_lq56.i	aeq2, a1, 32
    2ea1:	36a404        	ae_trunca32q48	a4, aeq2
    2ea4:	f4e3e1        	l32r	a14, 230 (2760 <ref_gain_adapt>)
    2ea7:	82ff80        	mull	a15, a15, a8
    2eaa:	04cd           	mov.n	a12, a4
    2eac:	40dff2        	addmi	a15, a15, 0x4000
    2eaf:	21fff0        	srai	a15, a15, 15
    2eb2:	1053f2        	s16i	a15, a3, 32
    2eb5:	000ee0        	callx8	a14
    2eb8:	1293a2        	l16si	a10, a3, 36
    2ebb:	ffd9c6        	j	2e26 <subband_aec_mid_channel+0x24e>

00002ebe <subband_aec_mid_channel+0x2e6>:
    2ebe:	03bd           	mov.n	a11, a3
    2ec0:	f4db81        	l32r	a8, 22c (2838 <aec_post_calc>)
    2ec3:	02ad           	mov.n	a10, a2
    2ec5:	01c8           	l32i.n	a12, a1, 0
    2ec7:	0008e0        	callx8	a8
    2eca:	f01d           	retw.n

00002ecc <subband_aec_mid_channel+0x2f4>:
    2ecc:	1093a2        	l16si	a10, a3, 32
    2ecf:	f4d481        	l32r	a8, 220 (8b28 <airoha_divide>)
    2ed2:	369b04        	ae_trunca32q48	a11, aeq1
    2ed5:	11aa50        	slli	a10, a10, 11
    2ed8:	0008e0        	callx8	a8
    2edb:	21a9           	s32i.n	a10, a1, 8
    2edd:	11b9           	s32i.n	a11, a1, 4
    2edf:	ff57c6        	j	2c42 <subband_aec_mid_channel+0x6a>

00002ee2 <subband_aec_mid_channel+0x30a>:
	...

00002ee4 <dt_detect>:
    2ee4:	004136        	entry	a1, 32
    2ee7:	0c9242        	l16si	a4, a2, 24
    2eea:	179262        	l16si	a6, a2, 46
    2eed:	189282        	l16si	a8, a2, 48
    2ef0:	114400        	slli	a4, a4, 16
    2ef3:	21a437        	bge	a4, a3, 2f18 <dt_detect+0x34>
    2ef6:	054c           	movi.n	a5, 64
    2ef8:	1ca587        	bge	a5, a8, 2f18 <dt_detect+0x34>
    2efb:	1692b2        	l16si	a11, a2, 44
    2efe:	0e92a2        	l16si	a10, a2, 28
    2f01:	962b           	addi.n	a9, a6, 2
    2f03:	bb4b           	addi.n	a11, a11, 4
    2f05:	43bba0        	min	a11, a11, a10
    2f08:	8bbd           	ae_sext16	a11, a11
    2f0a:	1652b2        	s16i	a11, a2, 44
    2f0d:	5399b0        	max	a9, a9, a11
    2f10:	4399a0        	min	a9, a9, a10
    2f13:	175292        	s16i	a9, a2, 46
    2f16:	f01d           	retw.n

00002f18 <dt_detect+0x34>:
    2f18:	0e92e2        	l16si	a14, a2, 28
    2f1b:	0f0c           	movi.n	a15, 0
    2f1d:	d60b           	addi.n	a13, a6, -1
    2f1f:	0c0c           	movi.n	a12, 0
    2f21:	1652c2        	s16i	a12, a2, 44
    2f24:	53ddf0        	max	a13, a13, a15
    2f27:	43dde0        	min	a13, a13, a14
    2f2a:	1752d2        	s16i	a13, a2, 46
    2f2d:	f01d           	retw.n

00002f2f <dt_detect+0x4b>:
	...

00002f30 <get_aec_nr_memsize>:
    2f30:	004136        	entry	a1, 32
    2f33:	f4c021        	l32r	a2, 234 (6af8 <NB_RX_NR_frame_process+0x24>)
    2f36:	f01d           	retw.n

00002f38 <get_txnr_pitch_last>:
    2f38:	004136        	entry	a1, 32
    2f3b:	f45021        	l32r	a2, 7c (ca94 <p_ecnr_mem>)
    2f3e:	0228           	l32i.n	a2, a2, 0
    2f40:	1ad232        	addmi	a3, a2, 0x1a00
    2f43:	169332        	l16si	a3, a3, 44
    2f46:	0e2326        	beqi	a3, 2, 2f58 <get_txnr_pitch_last+0x20>
    2f49:	51d222        	addmi	a2, a2, 0x5100
    2f4c:	382222        	l32i	a2, a2, 224
    2f4f:	130c           	movi.n	a3, 1
    2f51:	932320        	movnez	a2, a3, a2
    2f54:	f01d           	retw.n

00002f56 <get_txnr_pitch_last+0x1e>:
	...

00002f58 <get_txnr_pitch_last+0x20>:
    2f58:	37d222        	addmi	a2, a2, 0x3700
    2f5b:	2228           	l32i.n	a2, a2, 8
    2f5d:	130c           	movi.n	a3, 1
    2f5f:	932320        	movnez	a2, a3, a2
    2f62:	f01d           	retw.n

00002f64 <sb_ana_init>:
    2f64:	004136        	entry	a1, 32
    2f67:	0b0c           	movi.n	a11, 0
    2f69:	ec1c           	movi.n	a12, 30
    2f6b:	f44c81        	l32r	a8, 9c (9dc8 <xt_memset>)
    2f6e:	a24b           	addi.n	a10, a2, 4
    2f70:	02a9           	s32i.n	a10, a2, 0
    2f72:	0008e0        	callx8	a8
    2f75:	f01d           	retw.n

00002f77 <sb_ana_init+0x13>:
	...

00002f78 <sb_syn_init>:
    2f78:	004136        	entry	a1, 32
    2f7b:	0b0c           	movi.n	a11, 0
    2f7d:	cc3c           	movi.n	a12, 60
    2f7f:	f44781        	l32r	a8, 9c (9dc8 <xt_memset>)
    2f82:	a24b           	addi.n	a10, a2, 4
    2f84:	02a9           	s32i.n	a10, a2, 0
    2f86:	0008e0        	callx8	a8
    2f89:	f01d           	retw.n

00002f8b <sb_syn_init+0x13>:
	...

00002f8c <AVC_init>:
    2f8c:	004136        	entry	a1, 32
    2f8f:	f44481        	l32r	a8, a0 (ca9c <aec_nr_para>)
    2f92:	f44151        	l32r	a5, 98 (8000 <NR_vad2+0xe4>)
    2f95:	0888           	l32i.n	a8, a8, 0
    2f97:	030c           	movi.n	a3, 0
    2f99:	2239           	s32i.n	a3, a2, 8
    2f9b:	1e1842        	l16ui	a4, a8, 60
    2f9e:	1f1892        	l16ui	a9, a8, 62
    2fa1:	025292        	s16i	a9, a2, 4
    2fa4:	201882        	l16ui	a8, a8, 64
    2fa7:	035282        	s16i	a8, a2, 6
    2faa:	c05540        	sub	a5, a5, a4
    2fad:	115500        	slli	a5, a5, 16
    2fb0:	445a           	add.n	a4, a4, a5
    2fb2:	0249           	s32i.n	a4, a2, 0
    2fb4:	f01d           	retw.n

00002fb6 <AVC_init+0x2a>:
	...

00002fb8 <HP_coef_setup>:
    2fb8:	004136        	entry	a1, 32
    2fbb:	02ad           	mov.n	a10, a2
    2fbd:	f43981        	l32r	a8, a4 (9de0 <xt_memcpy>)
    2fc0:	03bd           	mov.n	a11, a3
    2fc2:	04a0c2        	movi	a12, 4
    2fc5:	0008e0        	callx8	a8
    2fc8:	a2cb           	addi.n	a10, a2, 12
    2fca:	f43681        	l32r	a8, a4 (9de0 <xt_memcpy>)
    2fcd:	b38b           	addi.n	a11, a3, 8
    2fcf:	ac0c           	movi.n	a12, 10
    2fd1:	0008e0        	callx8	a8
    2fd4:	1cc3b2        	addi	a11, a3, 28
    2fd7:	f43381        	l32r	a8, a4 (9de0 <xt_memcpy>)
    2fda:	24c2a2        	addi	a10, a2, 36
    2fdd:	8c0c           	movi.n	a12, 8
    2fdf:	0008e0        	callx8	a8
    2fe2:	7298           	l32i.n	a9, a2, 28
    2fe4:	12a8           	l32i.n	a10, a2, 4
    2fe6:	22a9           	s32i.n	a10, a2, 8
    2fe8:	8299           	s32i.n	a9, a2, 32
    2fea:	f01d           	retw.n

00002fec <Voice_WB_TX_Init>:
    2fec:	004136        	entry	a1, 32
    2fef:	02ad           	mov.n	a10, a2
    2ff1:	06cd           	mov.n	a12, a6
    2ff3:	f42221        	l32r	a2, 7c (ca94 <p_ecnr_mem>)
    2ff6:	f49081        	l32r	a8, 238 (9adc <TX_ECNR_PARA_init>)
    2ff9:	20b550        	or	a11, a5, a5
    2ffc:	006242        	s32i	a4, a2, 0
    2fff:	0008e0        	callx8	a8
    3002:	f42751        	l32r	a5, a0 (ca9c <aec_nr_para>)
    3005:	02a8           	l32i.n	a10, a2, 0
    3007:	f48d81        	l32r	a8, 23c (2fb8 <HP_coef_setup>)
    300a:	05b8           	l32i.n	a11, a5, 0
    300c:	18daa2        	addmi	a10, a10, 0x1800
    300f:	e8caa2        	addi	a10, a10, -24
    3012:	01dbb2        	addmi	a11, a11, 0x100
    3015:	bb8b           	addi.n	a11, a11, 8
    3017:	0008e0        	callx8	a8
    301a:	0b0c           	movi.n	a11, 0
    301c:	02a8           	l32i.n	a10, a2, 0
    301e:	ac0c           	movi.n	a12, 10
    3020:	f41f81        	l32r	a8, 9c (9dc8 <xt_memset>)
    3023:	18daa2        	addmi	a10, a10, 0x1800
    3026:	1ccaa2        	addi	a10, a10, 28
    3029:	0008e0        	callx8	a8
    302c:	f48541        	l32r	a4, 240 (1834 <Pitch_by_Corel+0x3d8>)
    302f:	00a0b2        	movi	a11, 0
    3032:	0022a2        	l32i	a10, a2, 0
    3035:	f0a0c2        	movi	a12, 240
    3038:	f41981        	l32r	a8, 9c (9dc8 <xt_memset>)
    303b:	18daa2        	addmi	a10, a10, 0x1800
    303e:	34caa2        	addi	a10, a10, 52
    3041:	0008e0        	callx8	a8
    3044:	02a8           	l32i.n	a10, a2, 0
    3046:	f47f81        	l32r	a8, 244 (2f64 <sb_ana_init>)
    3049:	3edaa2        	addmi	a10, a10, 0x3e00
    304c:	c0caa2        	addi	a10, a10, -64
    304f:	0008e0        	callx8	a8
    3052:	0022a2        	l32i	a10, a2, 0
    3055:	f47b81        	l32r	a8, 244 (2f64 <sb_ana_init>)
    3058:	3edaa2        	addmi	a10, a10, 0x3e00
    305b:	0008e0        	callx8	a8
    305e:	02a8           	l32i.n	a10, a2, 0
    3060:	f47a81        	l32r	a8, 248 (2f78 <sb_syn_init>)
    3063:	3fdaa2        	addmi	a10, a10, 0x3f00
    3066:	80caa2        	addi	a10, a10, -128
    3069:	0008e0        	callx8	a8
    306c:	05d8           	l32i.n	a13, a5, 0
    306e:	02b8           	l32i.n	a11, a2, 0
    3070:	f47781        	l32r	a8, 24c (2440 <SBAEC_INIT>)
    3073:	0d98           	l32i.n	a9, a13, 0
    3075:	18db62        	addmi	a6, a11, 0x1800
    3078:	331df2        	l16ui	a15, a13, 102
    307b:	ab4a           	add.n	a10, a11, a4
    307d:	2cdbc2        	addmi	a12, a11, 0x2c00
    3080:	f8ccc2        	addi	a12, a12, -8
    3083:	ffdae2        	addmi	a14, a10, 0xffffff00
    3086:	1856f2        	s16i	a15, a6, 48
    3089:	341dd2        	l16ui	a13, a13, 104
    308c:	78c992        	addi	a9, a9, 120
    308f:	2edbb2        	addmi	a11, a11, 0x2e00
    3092:	d8cbb2        	addi	a11, a11, -40
    3095:	78c9f2        	addi	a15, a9, 120
    3098:	50c962        	addi	a6, a9, 80
    309b:	7f5ed2        	s16i	a13, a14, 254
    309e:	826a92        	s32i	a9, a10, 0x208
    30a1:	8b6ac2        	s32i	a12, a10, 0x22c
    30a4:	836a62        	s32i	a6, a10, 0x20c
    30a7:	846af2        	s32i	a15, a10, 0x210
    30aa:	8c6ab2        	s32i	a11, a10, 0x230
    30ad:	78cfc2        	addi	a12, a15, 120
    30b0:	50cfd2        	addi	a13, a15, 80
    30b3:	28cfe2        	addi	a14, a15, 40
    30b6:	856ae2        	s32i	a14, a10, 0x214
    30b9:	866ad2        	s32i	a13, a10, 0x218
    30bc:	876ac2        	s32i	a12, a10, 0x21c
    30bf:	78cc92        	addi	a9, a12, 120
    30c2:	50ccb2        	addi	a11, a12, 80
    30c5:	8a6ab2        	s32i	a11, a10, 0x228
    30c8:	896a92        	s32i	a9, a10, 0x224
    30cb:	28ccc2        	addi	a12, a12, 40
    30ce:	886ac2        	s32i	a12, a10, 0x220
    30d1:	0008e0        	callx8	a8
    30d4:	f45f81        	l32r	a8, 250 (6824 <WB_TX_NR_init>)
    30d7:	0008e0        	callx8	a8
    30da:	0022a2        	l32i	a10, a2, 0
    30dd:	f45d81        	l32r	a8, 254 (2f8c <AVC_init>)
    30e0:	31daa2        	addmi	a10, a10, 0x3100
    30e3:	e0caa2        	addi	a10, a10, -32
    30e6:	0008e0        	callx8	a8
    30e9:	00a4c2        	movi	a12, 0x400
    30ec:	fb7c           	movi.n	a11, -1
    30ee:	f45af1        	l32r	a15, 258 (ca98 <avc_vol>)
    30f1:	02a8           	l32i.n	a10, a2, 0
    30f3:	f45ae1        	l32r	a14, 25c (2000 <pitch_by_harmonic+0x4b8>)
    30f6:	6fed           	ae_s16i.n	a14, a15, 0
    30f8:	da4a           	add.n	a13, a10, a4
    30fa:	1ada92        	addmi	a9, a10, 0x1a00
    30fd:	14c992        	addi	a9, a9, 20
    3100:	fe5db2        	s16i	a11, a13, 0x1fc
    3103:	09c9c4        	ae_s16ip	a12, a9, 2
    3106:	09c9c4        	ae_s16ip	a12, a9, 2
    3109:	09c9c4        	ae_s16ip	a12, a9, 2
    310c:	09c9c4        	ae_s16ip	a12, a9, 2
    310f:	09c9c4        	ae_s16ip	a12, a9, 2
    3112:	09c9c4        	ae_s16ip	a12, a9, 2
    3115:	09c9c4        	ae_s16ip	a12, a9, 2
    3118:	0b0c           	movi.n	a11, 0
    311a:	0c5c           	movi.n	a12, 80
    311c:	f3e081        	l32r	a8, 9c (9dc8 <xt_memset>)
    311f:	30daa2        	addmi	a10, a10, 0x3000
    3122:	f8caa2        	addi	a10, a10, -8
    3125:	0008e0        	callx8	a8
    3128:	0b0c           	movi.n	a11, 0
    312a:	02a8           	l32i.n	a10, a2, 0
    312c:	4c2c           	movi.n	a12, 36
    312e:	f3db81        	l32r	a8, 9c (9dc8 <xt_memset>)
    3131:	31daa2        	addmi	a10, a10, 0x3100
    3134:	98caa2        	addi	a10, a10, -104
    3137:	0008e0        	callx8	a8
    313a:	02a8           	l32i.n	a10, a2, 0
    313c:	ba4a           	add.n	a11, a10, a4
    313e:	fc9bb2        	l16si	a11, a11, 0x1f8
    3141:	0b2b26        	beqi	a11, 2, 3150 <Voice_WB_TX_Init+0x164>

00003144 <Voice_WB_TX_Init+0x158>:
    3144:	f44781        	l32r	a8, 260 (60c8 <FLASH_REF_GAIN_Preload>)
    3147:	03bd           	mov.n	a11, a3
    3149:	0008e0        	callx8	a8
    314c:	f01d           	retw.n

0000314e <Voice_WB_TX_Init+0x162>:
	...

00003150 <Voice_WB_TX_Init+0x164>:
    3150:	f44581        	l32r	a8, 264 (4654 <TWO_MIC_WB_init>)
    3153:	05a8           	l32i.n	a10, a5, 0
    3155:	0008e0        	callx8	a8
    3158:	02a8           	l32i.n	a10, a2, 0
    315a:	f43a81        	l32r	a8, 244 (2f64 <sb_ana_init>)
    315d:	3edaa2        	addmi	a10, a10, 0x3e00
    3160:	40caa2        	addi	a10, a10, 64
    3163:	0008e0        	callx8	a8
    3166:	02a8           	l32i.n	a10, a2, 0
    3168:	f43881        	l32r	a8, 248 (2f78 <sb_syn_init>)
    316b:	3fdaa2        	addmi	a10, a10, 0x3f00
    316e:	fccaa2        	addi	a10, a10, -4
    3171:	0008e0        	callx8	a8
    3174:	02a8           	l32i.n	a10, a2, 0
    3176:	fff286        	j	3144 <Voice_WB_TX_Init+0x158>

00003179 <Voice_WB_TX_Init+0x18d>:
    3179:	000000                                        ...

0000317c <mic240_delay>:
    317c:	004136        	entry	a1, 32
    317f:	02ad           	mov.n	a10, a2
    3181:	f3c881        	l32r	a8, a4 (9de0 <xt_memcpy>)
    3184:	04bd           	mov.n	a11, a4
    3186:	20c550        	or	a12, a5, a5
    3189:	0008e0        	callx8	a8
    318c:	03bd           	mov.n	a11, a3
    318e:	90a520        	addx2	a10, a5, a2
    3191:	f0a0c2        	movi	a12, 240
    3194:	f3c481        	l32r	a8, a4 (9de0 <xt_memcpy>)
    3197:	c0cc50        	sub	a12, a12, a5
    319a:	1125f0        	slli	a2, a5, 1
    319d:	0008e0        	callx8	a8
    31a0:	05cd           	mov.n	a12, a5
    31a2:	04ad           	mov.n	a10, a4
    31a4:	c0b320        	sub	a11, a3, a2
    31a7:	f3bf81        	l32r	a8, a4 (9de0 <xt_memcpy>)
    31aa:	02dbb2        	addmi	a11, a11, 0x200
    31ad:	e0cbb2        	addi	a11, a11, -32
    31b0:	0008e0        	callx8	a8
    31b3:	f01d           	retw.n

000031b5 <mic240_delay+0x39>:
    31b5:	000000                                        ...

000031b8 <tx_downsample_by2>:
    31b8:	004136        	entry	a1, 32
    31bb:	440404        	ae_lp16x2f.i	aep0, a4, 0
    31be:	f42a91        	l32r	a9, 268 (c38c <wb_r01+0xc>)
    31c1:	5c1504        	ae_lp24x2f.i	aep1, a5, 0
    31c4:	ff242c240f 	{ ae_lp16f.i	aep2, a4, 0; ae_cvtq48p24s.h	aeq3, aep1 }
    31c9:	de28b1390f 	{ ae_lp24.i	aep3, a9, 0; ae_selp24.hl	aep4, aep2, aep1 }
    31ce:	e98c7d460f 	{ ae_lq32f.i	aeq2, a6, 0; ae_mulasfp24s.hh.ll	aeq3, aep3, aep4 }
    31d3:	fd2c2f451f 	{ ae_lp24x2f.i	aep4, a5, 8; ae_cvtq48p24s.l	aeq1, aep1 }
    31d8:	fa7ff4250f 	{ ae_sp24f.l.i	aep2, a5, 0; ae_roundsp24q48asym	aep5, aeq3 }
    31dd:	df95f1691f 	{ ae_lp24.i	aep6, a9, 4; ae_selp24.lh	aep7, aep5, aep4 }
    31e2:	056f44        	ae_mulasfp24s.hh.ll	aeq1, aep6, aep7
    31e5:	fc840fe27e 	{ addi	a7, a2, -2; ae_cvtq48p24s.h	aeq0, aep4 }
    31ea:	f86ff4551f 	{ ae_sp24f.l.i	aep5, a5, 4; ae_roundsp24q48asym	aep1, aeq1 }
    31ef:	dd8671292f 	{ ae_lp24.i	aep2, a9, 8; ae_selp24.ll	aep3, aep1, aep4 }
    31f4:	e86813855f 	{ or	a8, a5, a5; ae_mulasfp24s.hh.ll	aeq0, aep2, aep3 }
    31f9:	521524        	ae_sp24f.l.i	aep1, a5, 8
    31fc:	f967af452f 	{ ae_lp24x2f.i	aep4, a5, 16; ae_roundsp24q48asym	aep2, aeq0 }
    3201:	522534        	ae_sp24f.l.i	aep2, a5, 12
    3204:	ff842c541f 	{ ae_lp16f.i	aep5, a4, 2; ae_cvtq48p24s.h	aeq3, aep4 }
    3209:	df94f169df 	{ ae_lp24.i	aep6, a9, -12; ae_selp24.hl	aep7, aep5, aep4 }
    320e:	e9f84105ae 	{ addi	a10, a5, 16; ae_mulasfp24s.hh.ll	aeq3, aep6, aep7 }
    3213:	fd8c2f653f 	{ ae_lp24x2f.i	aep6, a5, 24; ae_cvtq48p24s.l	aeq1, aep4 }
    3218:	fb7ff4554f 	{ ae_sp24f.l.i	aep5, a5, 16; ae_roundsp24q48asym	aep7, aeq3 }
    321d:	ddddf119ef 	{ ae_lp24.i	aep1, a9, -8; ae_selp24.lh	aep3, aep7, aep6 }
    3222:	e86453d66f 	{ or	a13, a6, a6; ae_mulasfp24s.hh.ll	aeq1, aep1, aep3 }
    3227:	fcc40fe36e 	{ addi	a6, a3, -2; ae_cvtq48p24s.h	aeq0, aep6 }
    322c:	f96ff4755f 	{ ae_sp24f.l.i	aep7, a5, 20; ae_roundsp24q48asym	aep3, aeq1 }
    3231:	dece7149ff 	{ ae_lp24.i	aep4, a9, -4; ae_selp24.ll	aep5, aep3, aep6 }
    3236:	e8b00f49be 	{ addi	a11, a9, -12; ae_mulasfp24s.hh.ll	aeq0, aep4, aep5 }
    323b:	34af04        	ae_movap24s.l	a15, aep2
    323e:	f867f4356f 	{ ae_sp24f.l.i	aep3, a5, 24; ae_roundsp24q48asym	aep1, aeq0 }
    3243:	521574        	ae_sp24f.l.i	aep1, a5, 28
    3246:	349e04        	ae_movap24s.l	a14, aep1
    3249:	351c           	movi.n	a5, 19
    324b:	44a414        	ae_lp16x2f.iu	aep2, a4, 4
    324e:	e30013244f 	{ or	a2, a4, a4; ae_mulaafp24s.hh.ll	aeq2, aep0, aep0 }
    3253:	f03d           	nop.n
    3255:	978576        	loop	a5, 32f0 <tx_downsample_by2+0x138>
    3258:	e348105eff 	{ add	a5, a14, a15; ae_mulaafp24s.hh.ll	aeq2, aep2, aep2 }
    325d:	215150        	srai	a5, a5, 1
    3260:	c0fef0        	sub	a15, a14, a15
    3263:	21f1f0        	srai	a15, a15, 1
    3266:	39a5f4        	ae_movpa24x2	aep2, a5, a15
    3269:	0921a4        	ae_roundsp16asym	aep2, aep2
    326c:	dd4932a61f 	{ ae_sp16f.l.iu	aep2, a6, 2; ae_selp24.hh	aep2, aep2, aep2 }
    3271:	42a714        	ae_sp16f.l.iu	aep2, a7, 2
    3274:	5c2804        	ae_lp24x2f.i	aep2, a8, 0
    3277:	fc442c120f 	{ ae_lp16f.i	aep1, a2, 0; ae_cvtq48p24s.h	aeq0, aep2 }
    327c:	dd44f1090f 	{ ae_lp24.i	aep0, a9, 0; ae_selp24.hl	aep3, aep1, aep2 }
    3281:	e86034180f 	{ ae_sp24f.l.i	aep1, a8, 0; ae_mulasfp24s.hh.ll	aeq0, aep0, aep3 }
    3286:	fd4c31291f 	{ ae_lp24.i	aep2, a9, 4; ae_cvtq48p24s.l	aeq1, aep2 }
    328b:	f867af181f 	{ ae_lp24x2f.i	aep1, a8, 8; ae_roundsp24q48asym	aep0, aeq0 }
    3290:	dc21b4081f 	{ ae_sp24f.l.i	aep0, a8, 4; ae_selp24.lh	aep0, aep0, aep1 }
    3295:	e80871292f 	{ ae_lp24.i	aep2, a9, 8; ae_mulasfp24s.hh.ll	aeq1, aep2, aep0 }
    329a:	0a0984        	ae_cvtq48p24s.h	aeq0, aep1
    329d:	1b9d04        	ae_roundsp24q48asym	aep0, aeq1
    32a0:	dc2274082f 	{ ae_sp24f.l.i	aep0, a8, 8; ae_selp24.ll	aep1, aep0, aep1 }
    32a5:	052144        	ae_mulasfp24s.hh.ll	aeq0, aep2, aep1
    32a8:	1b8d24        	ae_roundsp24q48asym	aep2, aeq0
    32ab:	522834        	ae_sp24f.l.i	aep2, a8, 12
    32ae:	5c1a04        	ae_lp24x2f.i	aep1, a10, 0
    32b1:	fc242c021f 	{ ae_lp16f.i	aep0, a2, 2; ae_cvtq48p24s.h	aeq0, aep1 }
    32b6:	de20b13b0f 	{ ae_lp24.i	aep3, a11, 0; ae_selp24.hl	aep4, aep0, aep1 }
    32bb:	e88c340a0f 	{ ae_sp24f.l.i	aep0, a10, 0; ae_mulasfp24s.hh.ll	aeq0, aep3, aep4 }
    32c0:	fd2c311b1f 	{ ae_lp24.i	aep1, a11, 4; ae_cvtq48p24s.l	aeq1, aep1 }
    32c5:	f967ef0a1f 	{ ae_lp24x2f.i	aep0, a10, 8; ae_roundsp24q48asym	aep3, aeq0 }
    32ca:	dd0df43a1f 	{ ae_sp24f.l.i	aep3, a10, 4; ae_selp24.lh	aep3, aep3, aep0 }
    32cf:	e864711b2f 	{ ae_lp24.i	aep1, a11, 8; ae_mulasfp24s.hh.ll	aeq1, aep1, aep3 }
    32d4:	fc043f2fdf 	{ ae_movap24s.l	a15, aep2; ae_cvtq48p24s.h	aeq0, aep0 }
    32d9:	1b9d24        	ae_roundsp24q48asym	aep2, aeq1
    32dc:	dd0a342a2f 	{ ae_sp24f.l.i	aep2, a10, 8; ae_selp24.ll	aep2, aep2, aep0 }
    32e1:	051244        	ae_mulasfp24s.hh.ll	aeq0, aep1, aep2
    32e4:	1b8d24        	ae_roundsp24q48asym	aep2, aeq0
    32e7:	34ae04        	ae_movap24s.l	a14, aep2
    32ea:	522a34        	ae_sp24f.l.i	aep2, a10, 12
    32ed:	44a214        	ae_lp16x2f.iu	aep2, a2, 4

000032f0 <tx_downsample_by2+0x138>:
    32f0:	078d           	mov.n	a8, a7
    32f2:	aefa           	add.n	a10, a14, a15
    32f4:	c0bef0        	sub	a11, a14, a15
    32f7:	21b1b0        	srai	a11, a11, 1
    32fa:	21a1a0        	srai	a10, a10, 1
    32fd:	39fab4        	ae_movpa24x2	aep7, a10, a11
    3300:	fbfe93966f 	{ or	a9, a6, a6; ae_roundsp16asym	aep6, aep7 }
    3305:	ded972e91f 	{ ae_sp16f.l.iu	aep6, a9, 2; ae_selp24.hh	aep5, aep6, aep6 }
    330a:	fc3472d81f 	{ ae_sp16f.l.iu	aep5, a8, 2; ae_roundsq32asym	aeq0, aeq2 }
    330f:	620d04        	ae_sq32f.i	aeq0, a13, 0
    3312:	f01d           	retw.n

00003314 <tx_upsample_by2>:
    3314:	006136        	entry	a1, 48
    3317:	401304        	ae_lp16f.i	aep1, a3, 0
    331a:	812b           	addi.n	a8, a1, 2
    331c:	f3d3a1        	l32r	a10, 268 (c38c <wb_r01+0xc>)
    331f:	400204        	ae_lp16f.i	aep0, a2, 0
    3322:	06dd           	mov.n	a13, a6
    3324:	057d           	mov.n	a7, a5
    3326:	10c792        	addi	a9, a7, 16
    3329:	608d04        	ae_lq32f.i	aeq2, a13, 0
    332c:	fcc462        	addi	a6, a4, -4
    332f:	025d           	mov.n	a5, a2
    3331:	034d           	mov.n	a4, a3
    3333:	421c           	movi.n	a2, 20
    3335:	f4cab2        	addi	a11, a10, -12
    3338:	928276        	loop	a2, 33ce <tx_upsample_by2+0xba>
    333b:	dd22af370f 	{ ae_lp24x2f.i	aep3, a7, 0; ae_subsp24s	aep2, aep0, aep1 }
    3340:	d92132211f 	{ ae_sp16f.l.i	aep2, a1, 2; ae_addsp24s	aep2, aep0, aep1 }
    3345:	fc6432210f 	{ ae_sp16f.l.i	aep2, a1, 0; ae_cvtq48p24s.h	aeq0, aep3 }
    334a:	fd6c2c180f 	{ ae_lp16f.i	aep1, a8, 0; ae_cvtq48p24s.l	aeq1, aep3 }
    334f:	dc64b13b0f 	{ ae_lp24.i	aep3, a11, 0; ae_selp24.hl	aep0, aep1, aep3 }
    3354:	e80c34170f 	{ ae_sp24f.l.i	aep1, a7, 0; ae_mulasfp24s.hh.ll	aeq0, aep3, aep0 }
    3359:	e34bb13b1f 	{ ae_lp24.i	aep3, a11, 4; ae_mulafp24s.ll	aeq2, aep2, aep2 }
    335e:	f867ef271f 	{ ae_lp24x2f.i	aep2, a7, 8; ae_roundsp24q48asym	aep1, aeq0 }
    3363:	dc45f4171f 	{ ae_sp24f.l.i	aep1, a7, 4; ae_selp24.lh	aep1, aep1, aep2 }
    3368:	e82c713b2f 	{ ae_lp24.i	aep3, a11, 8; ae_mulasfp24s.hh.ll	aeq1, aep3, aep1 }
    336d:	fc442c110f 	{ ae_lp16f.i	aep1, a1, 0; ae_cvtq48p24s.h	aeq0, aep2 }
    3372:	1b9d04        	ae_roundsp24q48asym	aep0, aeq1
    3375:	dd4234072f 	{ ae_sp24f.l.i	aep0, a7, 8; ae_selp24.ll	aep2, aep0, aep2 }
    337a:	053244        	ae_mulasfp24s.hh.ll	aeq0, aep3, aep2
    337d:	1b8d34        	ae_roundsp24q48asym	aep3, aeq0
    3380:	523734        	ae_sp24f.l.i	aep3, a7, 12
    3383:	5c2904        	ae_lp24x2f.i	aep2, a9, 0
    3386:	fc443e121f 	{ ae_selp24.hl	aep0, aep1, aep2; ae_cvtq48p24s.h	aeq0, aep2 }
    338b:	fd4c312a0f 	{ ae_lp24.i	aep2, a10, 0; ae_cvtq48p24s.l	aeq1, aep2 }
    3390:	e80834190f 	{ ae_sp24f.l.i	aep1, a9, 0; ae_mulasfp24s.hh.ll	aeq0, aep2, aep0 }
    3395:	4c2a14        	ae_lp24.i	aep2, a10, 4
    3398:	f867af191f 	{ ae_lp24x2f.i	aep1, a9, 8; ae_roundsp24q48asym	aep0, aeq0 }
    339d:	dc21b4091f 	{ ae_sp24f.l.i	aep0, a9, 4; ae_selp24.lh	aep0, aep0, aep1 }
    33a2:	e808712a2f 	{ ae_lp24.i	aep2, a10, 8; ae_mulasfp24s.hh.ll	aeq1, aep2, aep0 }
    33a7:	fc243f32df 	{ ae_movap24s.l	a2, aep3; ae_cvtq48p24s.h	aeq0, aep1 }
    33ac:	1b9d34        	ae_roundsp24q48asym	aep3, aeq1
    33af:	dd2e74392f 	{ ae_sp24f.l.i	aep3, a9, 8; ae_selp24.ll	aep3, aep3, aep1 }
    33b4:	052344        	ae_mulasfp24s.hh.ll	aeq0, aep2, aep3
    33b7:	1b8d34        	ae_roundsp24q48asym	aep3, aeq0
    33ba:	34b304        	ae_movap24s.l	a3, aep3
    33bd:	39a234        	ae_movpa24x2	aep2, a2, a3
    33c0:	f9eaf4393f 	{ ae_sp24f.l.i	aep3, a9, 12; ae_roundsp16asym	aep3, aep2 }
    33c5:	409414        	ae_lp16f.iu	aep1, a4, 2
    33c8:	408514        	ae_lp16f.iu	aep0, a5, 2
    33cb:	46b614        	ae_sp16x2f.iu	aep3, a6, 4

000033ce <tx_upsample_by2+0xba>:
    33ce:	062934        	ae_roundsq32asym	aeq0, aeq2
    33d1:	620d04        	ae_sq32f.i	aeq0, a13, 0
    33d4:	f01d           	retw.n

000033d6 <tx_upsample_by2+0xc2>:
	...

000033d8 <emph_filter_N>:
    33d8:	004136        	entry	a1, 32
    33db:	443304        	ae_lp16x2f.i	aep3, a3, 0
    33de:	fec282        	addi	a8, a2, -2
    33e1:	fcc262        	addi	a6, a2, -4
    33e4:	047d           	mov.n	a7, a4
    33e6:	441704        	ae_lp16x2f.i	aep1, a7, 0
    33e9:	451b           	addi.n	a4, a5, 1
    33eb:	062d           	mov.n	a2, a6
    33ed:	083d           	mov.n	a3, a8
    33ef:	b34550        	movgez	a4, a5, a5
    33f2:	214140        	srai	a4, a4, 1
    33f5:	23a476        	loopgtz	a4, 341c <emph_filter_N+0x44>
    33f8:	448214        	ae_lp16x2f.iu	aep0, a2, 4
    33fb:	fc043e018f 	{ ae_selp24.hh	aep2, aep0, aep1; ae_cvtq48p24s.h	aeq0, aep0 }
    3400:	0a4084        	ae_cvtq48p24s.l	aeq1, aep0
    3403:	013104        	ae_mulafp24s.hh	aeq0, aep3, aep1
    3406:	013804        	ae_mulafp24s.hh	aeq1, aep3, aep0
    3409:	e22c3e006f 	{ ae_selp24.lh	aep1, aep0, aep0; ae_mulaafp24s.hh.ll	aeq0, aep3, aep1 }
    340e:	053a04        	ae_mulaafp24s.hh.ll	aeq1, aep3, aep2
    3411:	1b8f04        	ae_roundsp16q48asym	aep0, aeq0
    3414:	f86bb2031f 	{ ae_sp16f.l.i	aep0, a3, 2; ae_roundsp16q48asym	aep0, aeq1 }
    3419:	428324        	ae_sp16f.l.iu	aep0, a3, 4

0000341c <emph_filter_N+0x44>:
    341c:	461704        	ae_sp16x2f.i	aep1, a7, 0
    341f:	f01d           	retw.n

00003421 <emph_filter_N+0x49>:
    3421:	000000                                        ...

00003424 <deemph_filter_N>:
    3424:	004136        	entry	a1, 32
    3427:	400204        	ae_lp16f.i	aep0, a2, 0
    342a:	442304        	ae_lp16x2f.i	aep2, a3, 0
    342d:	f38f61        	l32r	a6, 26c (c1a0 <immediate_num+0x30>)
    3430:	608404        	ae_lq32f.i	aeq2, a4, 0
    3433:	9a4a3d241f 	{ ae_lq32f.i	aeq1, a4, 4; ae_mulzssfq32sp16s.hh	aeq0, aeq2, aep2, aeq2, aep2 }
    3438:	f889ad160f 	{ ae_lp16x2f.i	aep1, a6, 0; ae_mulsfq32sp16s.l	aeq0, aeq1, aep2 }
    343d:	3a15a6        	blti	a5, 1, 347b <deemph_filter_N+0x57>
    3440:	0501c4        	ae_mulssfp24s.hh.ll	aeq0, aep0, aep1
    3443:	f03d           	nop.n
    3445:	06c934        	ae_roundsq32asym	aeq3, aeq0
    3448:	9a4bcff53e 	{ addi	a3, a5, -1; ae_mulzssfq32sp16s.hh	aeq1, aeq3, aep2, aeq3, aep2 }
    344d:	408214        	ae_lp16f.iu	aep0, a2, 2
    3450:	fd147f113f 	{ ae_movq56	aeq0, aeq1; ae_movq56	aeq1, aeq2 }
    3455:	14a376        	loopgtz	a3, 346d <deemph_filter_N+0x49>
    3458:	f889bf317f 	{ ae_movq56	aeq1, aeq3; ae_mulsfq32sp16s.l	aeq0, aeq1, aep2 }
    345d:	0501c4        	ae_mulssfp24s.hh.ll	aeq0, aep0, aep1
    3460:	1bbf04        	ae_roundsp16q48asym	aep0, aeq3
    3463:	ff247202ff 	{ ae_sp16f.l.i	aep0, a2, -2; ae_roundsq32asym	aeq3, aeq0 }
    3468:	9a4bac821f 	{ ae_lp16f.iu	aep0, a2, 2; ae_mulzssfq32sp16s.hh	aeq0, aeq3, aep2, aeq3, aep2 }

0000346d <deemph_filter_N+0x49>:
    346d:	1bbf04        	ae_roundsp16q48asym	aep0, aeq3
    3470:	4202f4        	ae_sp16f.l.i	aep0, a2, -2
    3473:	623404        	ae_sq32f.i	aeq3, a4, 0
    3476:	621414        	ae_sq32f.i	aeq1, a4, 4
    3479:	f01d           	retw.n

0000347b <deemph_filter_N+0x57>:
    347b:	622404        	ae_sq32f.i	aeq2, a4, 0
    347e:	621414        	ae_sq32f.i	aeq1, a4, 4
    3481:	f01d           	retw.n

00003483 <deemph_filter_N+0x5f>:
	...

00003484 <analy_3band>:
    3484:	004136        	entry	a1, 32
    3487:	fec6a2        	addi	a10, a6, -2
    348a:	f37ae1        	l32r	a14, 274 (c3dc <sb_g10+0x3c>)
    348d:	fcc4c2        	addi	a12, a4, -4
    3490:	f378f1        	l32r	a15, 270 (c39c <wb_r01+0x1c>)
    3493:	fcc292        	addi	a9, a2, -4
    3496:	24c2d2        	addi	a13, a2, 36
    3499:	fec5b2        	addi	a11, a5, -2
    349c:	038d           	mov.n	a8, a3
    349e:	450c           	movi.n	a5, 4
    34a0:	04c872        	addi	a7, a8, 4
    34a3:	0328           	l32i.n	a2, a3, 0
    34a5:	f3f670        	wur.ae_cbegin0	a7
    34a8:	40c332        	addi	a3, a3, 64
    34ab:	ff24934fff 	{ or	a4, a15, a15; ae_zeroq56	aeq3 }
    34b0:	f3f730        	wur.ae_cend0	a3
    34b3:	fd1c533eef 	{ or	a3, a14, a14; ae_movq56	aeq1, aeq3 }

000034b8 <analy_3band+0x34>:
    34b8:	447914        	ae_lp16x2f.i	aep7, a9, 4
    34bb:	fc24e4725f 	{ ae_sp16x2f.c	aep7, a2, a5; nop }
    34c0:	44e414        	ae_lp16x2f.iu	aep6, a4, 4
    34c3:	44c314        	ae_lp16x2f.iu	aep4, a3, 4
    34c6:	fc24dad25f 	{ ae_lp16x2f.c	aep5, a2, a5; nop }
    34cb:	eab19aa25f 	{ ae_lp16x2f.c	aep2, a2, a5; ae_mulfp24s.ll	aeq0, aep4, aep5 }
    34d0:	ebb9ad141f 	{ ae_lp16x2f.i	aep1, a4, 4; ae_mulfp24s.ll	aeq2, aep6, aep5 }
    34d5:	e347ad331f 	{ ae_lp16x2f.i	aep3, a3, 4; ae_mulafp24s.ll	aeq2, aep1, aep2 }
    34da:	e24f80066f 	{ movi	a6, 6; ae_mulafp24s.ll	aeq0, aep3, aep2 }
    34df:	e24e6d842f 	{ ae_lp16x2f.iu	aep0, a4, 8; ae_mulafp24s.hh	aeq1, aep3, aep2 }
    34e4:	e3465ab25f 	{ ae_lp16x2f.c	aep3, a2, a5; ae_mulafp24s.hh	aeq3, aep1, aep2 }
    34e9:	e36240499e 	{ addi	a9, a9, 4; ae_mulafp24s.hh	aeq3, aep0, aep3 }
    34ee:	e363ada32f 	{ ae_lp16x2f.iu	aep2, a3, 8; ae_mulafp24s.ll	aeq2, aep0, aep3 }
    34f3:	f03d           	nop.n
    34f5:	238676        	loop	a6, 351c <analy_3band+0x98>
    34f8:	e26a5a825f 	{ ae_lp16x2f.c	aep0, a2, a5; ae_mulafp24s.hh	aeq1, aep2, aep3 }
    34fd:	e26bad131f 	{ ae_lp16x2f.i	aep1, a3, 4; ae_mulafp24s.ll	aeq0, aep2, aep3 }
    3502:	e207ad241f 	{ ae_lp16x2f.i	aep2, a4, 4; ae_mulafp24s.ll	aeq0, aep1, aep0 }
    3507:	e2066d942f 	{ ae_lp16x2f.iu	aep1, a4, 8; ae_mulafp24s.hh	aeq1, aep1, aep0 }
    350c:	e30b9ab25f 	{ ae_lp16x2f.c	aep3, a2, a5; ae_mulafp24s.ll	aeq2, aep2, aep0 }
    3511:	e30a6da32f 	{ ae_lp16x2f.iu	aep2, a3, 8; ae_mulafp24s.hh	aeq3, aep2, aep0 }
    3516:	019b04        	ae_mulafp24s.hh	aeq3, aep1, aep3
    3519:	019334        	ae_mulafp24s.ll	aeq2, aep1, aep3

0000351c <analy_3band+0x98>:
    351c:	e26a533eef 	{ or	a3, a14, a14; ae_mulafp24s.hh	aeq1, aep2, aep3 }
    3521:	e26b934fff 	{ or	a4, a15, a15; ae_mulafp24s.ll	aeq0, aep2, aep3 }
    3526:	fb6b80045f 	{ movi	a5, 4; ae_roundsp16q48asym	aep6, aeq1 }
    352b:	fb63d579df 	{ sub	a7, a9, a13; ae_roundsp16q48asym	aep7, aeq0 }
    3530:	f8f632fa1f 	{ ae_sp16f.l.iu	aep7, a10, 2; ae_addq56	aeq0, aeq2, aeq3 }
    3535:	fbb6fb001f 	{ ae_sraiq56	aeq0, aeq0, 1; ae_subq56	aeq3, aeq2, aeq3 }
    353a:	fa67fb30df 	{ ae_sraiq56	aeq3, aeq3, 1; ae_roundsp24q48asym	aep5, aeq0 }
    353f:	fa7bb2ea1f 	{ ae_sp16f.l.iu	aep6, a10, 2; ae_roundsp16q48asym	aep4, aeq3 }
    3544:	ff24b4dc1f 	{ ae_sp24f.l.iu	aep5, a12, 4; ae_zeroq56	aeq3 }
    3549:	fd1c72cb1f 	{ ae_sp16f.l.iu	aep4, a11, 2; ae_movq56	aeq1, aeq3 }
    354e:	f66756        	bnez	a7, 34b8 <analy_3band+0x34>
    3551:	0829           	s32i.n	a2, a8, 0
    3553:	f01d           	retw.n

00003555 <analy_3band+0xd1>:
    3555:	000000                                        ...

00003558 <synth_3band>:
    3558:	004136        	entry	a1, 32
    355b:	fec6a2        	addi	a10, a6, -2
    355e:	090c           	movi.n	a9, 0
    3560:	fec2e2        	addi	a14, a2, -2
    3563:	058d           	mov.n	a8, a5
    3565:	fcc4b2        	addi	a11, a4, -4
    3568:	fec3c2        	addi	a12, a3, -2
    356b:	f34341        	l32r	a4, 278 (c420 <sb_h2ir_v2>)
    356e:	f34331        	l32r	a3, 27c (c3a0 <sb_g10>)
    3571:	7cc872        	addi	a7, a8, 124
    3574:	fe248048de 	{ addi	a13, a8, 4; ae_zeroq56	aeq2 }
    3579:	fc1470052e 	{ l32i	a2, a5, 0; ae_movq56	aeq0, aeq2 }
    357e:	fd1440045f 	{ movi	a5, 4; ae_movq56	aeq1, aeq2 }
    3583:	f3f6d0        	wur.ae_cbegin0	a13
    3586:	f3f770        	wur.ae_cend0	a7

00003589 <synth_3band+0x31>:
    3589:	e60c           	movi.n	a6, 14
    358b:	40ec14        	ae_lp16f.iu	aep6, a12, 2
    358e:	40de14        	ae_lp16f.iu	aep5, a14, 2
    3591:	ded6adab1f 	{ ae_lp16x2f.iu	aep2, a11, 4; ae_subsp24s	aep4, aep5, aep6 }
    3596:	d9d540199e 	{ addi	a9, a9, 1; ae_addsp24s	aep3, aep5, aep6 }
    359b:	dd8e4f69de 	{ addi	a13, a9, -10; ae_selp24.ll	aep3, aep3, aep4 }
    35a0:	fc24e4325f 	{ ae_sp16x2f.c	aep3, a2, a5; nop }
    35a5:	fc24e4225f 	{ ae_sp16x2f.c	aep2, a2, a5; nop }
    35aa:	fc24da925f 	{ ae_lp16x2f.c	aep1, a2, a5; nop }
    35af:	440304        	ae_lp16x2f.i	aep0, a3, 0
    35b2:	e223ed240f 	{ ae_lp16x2f.i	aep2, a4, 0; ae_mulafp24s.ll	aeq1, aep0, aep1 }
    35b7:	e2221a825f 	{ ae_lp16x2f.c	aep0, a2, a5; ae_mulafp24s.hh	aeq0, aep0, aep1 }
    35bc:	e20aad931f 	{ ae_lp16x2f.iu	aep1, a3, 4; ae_mulafp24s.lh	aeq0, aep2, aep0 }
    35c1:	f03d           	nop.n
    35c3:	f03d           	nop.n
    35c5:	138676        	loop	a6, 35dc <synth_3band+0x84>
    35c8:	ee08da825f 	{ ae_lp16x2f.c	aep0, a2, a5; ae_mulsfp24s.hl	aeq1, aep2, aep0 }
    35cd:	e207eda41f 	{ ae_lp16x2f.iu	aep2, a4, 4; ae_mulafp24s.ll	aeq1, aep1, aep0 }
    35d2:	e2061a825f 	{ ae_lp16x2f.c	aep0, a2, a5; ae_mulafp24s.hh	aeq0, aep1, aep0 }
    35d7:	e20aad931f 	{ ae_lp16x2f.iu	aep1, a3, 4; ae_mulafp24s.lh	aeq0, aep2, aep0 }

000035dc <synth_3band+0x84>:
    35dc:	ee08cc433e 	{ addi	a3, a3, -60; ae_mulsfp24s.hl	aeq1, aep2, aep0 }
    35e1:	fb63ed941f 	{ ae_lp16x2f.iu	aep1, a4, 4; ae_roundsp16q48asym	aep7, aeq0 }
    35e6:	f86b8c444e 	{ addi	a4, a4, -60; ae_roundsp16q48asym	aep0, aeq1 }
    35eb:	fc14728a1f 	{ ae_sp16f.l.iu	aep0, a10, 2; ae_movq56	aeq0, aeq2 }
    35f0:	fd1472fa1f 	{ ae_sp16f.l.iu	aep7, a10, 2; ae_movq56	aeq1, aeq2 }
    35f5:	f90d56        	bnez	a13, 3589 <synth_3band+0x31>
    35f8:	0829           	s32i.n	a2, a8, 0
    35fa:	f01d           	retw.n

000035fc <biquad_2cascade_24bitTx>:
    35fc:	008136        	entry	a1, 64
    35ff:	038d           	mov.n	a8, a3
    3601:	541304        	ae_lp24x2.i	aep1, a3, 0
    3604:	543314        	ae_lp24x2.i	aep3, a3, 8
    3607:	546324        	ae_lp24x2.i	aep6, a3, 16
    360a:	0216e6        	bgei	a6, 1, 3610 <biquad_2cascade_24bitTx+0x14>
    360d:	0059c6        	j	3778 <biquad_2cascade_24bitTx+0x17c>
    3610:	18c492        	addi	a9, a4, 24
    3613:	fec532        	addi	a3, a5, -2
    3616:	fcc222        	addi	a2, a2, -4
    3619:	406607        	bbci	a6, 0, 365d <biquad_2cascade_24bitTx+0x61>
    361c:	545404        	ae_lp24x2.i	aep5, a4, 0
    361f:	50f214        	ae_lp24f.iu	aep7, a2, 4
    3622:	540414        	ae_lp24x2.i	aep0, a4, 8
    3625:	f122be716f 	{ ae_selp24.lh	aep1, aep7, aep1; ae_mulzaafp24s.hh.ll	aeq2, aep0, aep1 }
    362a:	e33430442f 	{ ae_lp24x2.i	aep4, a4, 16; ae_mulaafp24s.hh.ll	aeq2, aep5, aep1 }
    362f:	01c384        	ae_mulsfp24s.hh	aeq2, aep4, aep3
    3632:	05c3c4        	ae_mulssfp24s.hh.ll	aeq2, aep4, aep3
    3635:	542444        	ae_lp24x2.i	aep2, a4, 32
    3638:	f877b0743f 	{ ae_lp24x2.i	aep7, a4, 24; ae_roundsp24q48asym	aep0, aeq2 }
    363d:	f06afe03ef 	{ ae_selp24.lh	aep3, aep0, aep3; ae_mulzaafp24s.hh.ll	aeq1, aep2, aep3 }
    3642:	e27c70545f 	{ ae_lp24x2.i	aep5, a4, 40; ae_mulaafp24s.hh.ll	aeq1, aep7, aep3 }
    3647:	015e84        	ae_mulsfp24s.hh	aeq1, aep5, aep6
    364a:	055ec4        	ae_mulssfp24s.hh.ll	aeq1, aep5, aep6
    364d:	f96fb1496f 	{ ae_lp24.i	aep4, a9, 24; ae_roundsp24q48asym	aep2, aeq1 }
    3652:	044204        	ae_mulzaafp24s.hh.ll	aeq0, aep4, aep2
    3655:	1b8f04        	ae_roundsp16q48asym	aep0, aeq0
    3658:	dfc9b2831f 	{ ae_sp16f.l.iu	aep0, a3, 2; ae_selp24.lh	aep6, aep2, aep6 }

0000365d <biquad_2cascade_24bitTx+0x61>:
    365d:	214160        	srai	a4, a6, 1
    3660:	114416        	beqz	a4, 3778 <biquad_2cascade_24bitTx+0x17c>
    3663:	5429d4        	ae_lp24x2.i	aep2, a9, -24
    3666:	5449e4        	ae_lp24x2.i	aep4, a9, -16
    3669:	505214        	ae_lp24f.i	aep5, a2, 4
    366c:	f132fe596f 	{ ae_selp24.lh	aep5, aep5, aep1; ae_mulzaafp24s.hh.ll	aeq3, aep4, aep1 }
    3671:	e3a87019ff 	{ ae_lp24x2.i	aep1, a9, -8; ae_mulaafp24s.hh.ll	aeq3, aep2, aep5 }
    3676:	019b84        	ae_mulsfp24s.hh	aeq3, aep1, aep3
    3679:	059bc4        	ae_mulssfp24s.hh.ll	aeq3, aep1, aep3
    367c:	547904        	ae_lp24x2.i	aep7, a9, 0
    367f:	f87fb0191f 	{ ae_lp24x2.i	aep1, a9, 8; ae_roundsp24q48asym	aep0, aeq3 }
    3684:	f166be032f 	{ ae_selp24.lh	aep0, aep0, aep3; ae_mulzaafp24s.hh.ll	aeq2, aep1, aep3 }
    3689:	e31c30492f 	{ ae_lp24x2.i	aep4, a9, 16; ae_mulaafp24s.hh.ll	aeq2, aep7, aep0 }
    368e:	01c684        	ae_mulsfp24s.hh	aeq2, aep4, aep6
    3691:	05c6c4        	ae_mulssfp24s.hh.ll	aeq2, aep4, aep6
    3694:	f03d           	nop.n
    3696:	fb77f1396f 	{ ae_lp24.i	aep3, a9, 24; ae_roundsp24q48asym	aep7, aeq2 }
    369b:	043f04        	ae_mulzaafp24s.hh.ll	aeq1, aep3, aep7
    369e:	f96bae922f 	{ ae_lp24f.iu	aep1, a2, 8; ae_roundsp16q48asym	aep2, aeq1 }
    36a3:	422314        	ae_sp16f.l.i	aep2, a3, 2
    36a6:	dca5f049ef 	{ ae_lp24x2.i	aep4, a9, -16; ae_selp24.lh	aep1, aep1, aep5 }
    36ab:	f0b2b039df 	{ ae_lp24x2.i	aep3, a9, -24; ae_mulzaafp24s.hh.ll	aeq0, aep4, aep5 }
    36b0:	e22c3029ff 	{ ae_lp24x2.i	aep2, a9, -8; ae_mulaafp24s.hh.ll	aeq0, aep3, aep1 }
    36b5:	012084        	ae_mulsfp24s.hh	aeq0, aep2, aep0
    36b8:	0520c4        	ae_mulssfp24s.hh.ll	aeq0, aep2, aep0
    36bb:	dfddf0490f 	{ ae_lp24x2.i	aep4, a9, 0; ae_selp24.lh	aep7, aep7, aep6 }
    36c0:	f967f0591f 	{ ae_lp24x2.i	aep5, a9, 8; ae_roundsp24q48asym	aep3, aeq0 }
    36c5:	f116fe30ef 	{ ae_selp24.lh	aep3, aep3, aep0; ae_mulzaafp24s.hh.ll	aeq3, aep5, aep0 }
    36ca:	e37070292f 	{ ae_lp24x2.i	aep2, a9, 16; ae_mulaafp24s.hh.ll	aeq3, aep4, aep3 }
    36cf:	01af84        	ae_mulsfp24s.hh	aeq3, aep2, aep7
    36d2:	05afc4        	ae_mulssfp24s.hh.ll	aeq3, aep2, aep7
    36d5:	540b           	addi.n	a5, a4, -1
    36d7:	fb7fb1096f 	{ ae_lp24.i	aep0, a9, 24; ae_roundsp24q48asym	aep6, aeq3 }
    36dc:	f0c2be6faf 	{ ae_selp24.lh	aep6, aep6, aep7; ae_mulzaafp24s.hh.ll	aeq0, aep0, aep6 }
    36e1:	7ea576        	loopgtz	a5, 3763 <biquad_2cascade_24bitTx+0x167>
    36e4:	50d224        	ae_lp24f.iu	aep5, a2, 8
    36e7:	f963ae02ff 	{ ae_lp24f.i	aep0, a2, -4; ae_roundsp16q48asym	aep2, aeq0 }
    36ec:	42a324        	ae_sp16f.l.iu	aep2, a3, 4
    36ef:	dd21b009ef 	{ ae_lp24x2.i	aep0, a9, -16; ae_selp24.lh	aep2, aep0, aep1 }
    36f4:	f022b009df 	{ ae_lp24x2.i	aep0, a9, -24; ae_mulzaafp24s.hh.ll	aeq0, aep0, aep1 }
    36f9:	e2403009ff 	{ ae_lp24x2.i	aep0, a9, -8; ae_mulaafp24s.hh.ll	aeq0, aep0, aep2 }
    36fe:	ec60b0491f 	{ ae_lp24x2.i	aep4, a9, 8; ae_mulsfp24s.hh	aeq0, aep0, aep3 }
    3703:	f06230090f 	{ ae_lp24x2.i	aep0, a9, 0; ae_mulssfp24s.hh.ll	aeq0, aep0, aep3 }
    3708:	f072f0492f 	{ ae_lp24x2.i	aep4, a9, 16; ae_mulzaafp24s.hh.ll	aeq1, aep4, aep3 }
    370d:	f867f1796f 	{ ae_lp24.i	aep7, a9, 24; ae_roundsp24q48asym	aep1, aeq0 }
    3712:	dc55fe1b6f 	{ ae_selp24.lh	aep5, aep1, aep3; ae_selp24.lh	aep1, aep5, aep2 }
    3717:	050d04        	ae_mulaafp24s.hh.ll	aeq1, aep0, aep5
    371a:	014e84        	ae_mulsfp24s.hh	aeq1, aep4, aep6
    371d:	054ec4        	ae_mulssfp24s.hh.ll	aeq1, aep4, aep6
    3720:	1b9d04        	ae_roundsp24q48asym	aep0, aeq1
    3723:	f01ebe062f 	{ ae_selp24.lh	aep0, aep0, aep6; ae_mulzaafp24s.hh.ll	aeq0, aep7, aep0 }
    3728:	1b8f44        	ae_roundsp16q48asym	aep4, aeq0
    372b:	424314        	ae_sp16f.l.i	aep4, a3, 2
    372e:	5449e4        	ae_lp24x2.i	aep4, a9, -16
    3731:	f052b029df 	{ ae_lp24x2.i	aep2, a9, -24; ae_mulzaafp24s.hh.ll	aeq0, aep4, aep2 }
    3736:	e2283029ff 	{ ae_lp24x2.i	aep2, a9, -8; ae_mulaafp24s.hh.ll	aeq0, aep2, aep1 }
    373b:	eca8b0491f 	{ ae_lp24x2.i	aep4, a9, 8; ae_mulsfp24s.hh	aeq0, aep2, aep5 }
    3740:	f0aa30290f 	{ ae_lp24x2.i	aep2, a9, 0; ae_mulssfp24s.hh.ll	aeq0, aep2, aep5 }
    3745:	f0b2f0492f 	{ ae_lp24x2.i	aep4, a9, 16; ae_mulzaafp24s.hh.ll	aeq1, aep4, aep5 }
    374a:	f967f1796f 	{ ae_lp24.i	aep7, a9, 24; ae_roundsp24q48asym	aep3, aeq0 }
    374f:	1ab5b4        	ae_selp24.lh	aep3, aep3, aep5
    3752:	052b04        	ae_mulaafp24s.hh.ll	aeq1, aep2, aep3
    3755:	014884        	ae_mulsfp24s.hh	aeq1, aep4, aep0
    3758:	0548c4        	ae_mulssfp24s.hh.ll	aeq1, aep4, aep0
    375b:	1b9d54        	ae_roundsp24q48asym	aep5, aeq1
    375e:	f0bebe58af 	{ ae_selp24.lh	aep6, aep5, aep0; ae_mulzaafp24s.hh.ll	aeq0, aep7, aep5 }

00003763 <biquad_2cascade_24bitTx+0x167>:
    3763:	fb63d3933f 	{ or	a9, a3, a3; ae_roundsp16q48asym	aep7, aeq0 }
    3768:	42f924        	ae_sp16f.l.iu	aep7, a9, 4
    376b:	561804        	ae_sp24x2s.i	aep1, a8, 0
    376e:	563814        	ae_sp24x2s.i	aep3, a8, 8
    3771:	566824        	ae_sp24x2s.i	aep6, a8, 16
    3774:	f01d           	retw.n

00003776 <biquad_2cascade_24bitTx+0x17a>:
	...

00003778 <biquad_2cascade_24bitTx+0x17c>:
    3778:	561804        	ae_sp24x2s.i	aep1, a8, 0
    377b:	563814        	ae_sp24x2s.i	aep3, a8, 8
    377e:	566824        	ae_sp24x2s.i	aep6, a8, 16
    3781:	f01d           	retw.n

00003783 <biquad_2cascade_24bitTx+0x187>:
	...

00003784 <conv_24_to_16>:
    3784:	004136        	entry	a1, 32
    3787:	f8c252        	addi	a5, a2, -8
    378a:	fcc322        	addi	a2, a3, -4
    378d:	5c9514        	ae_lp24x2f.iu	aep1, a5, 8
    3790:	f8e6aff51f 	{ ae_lp24x2f.iu	aep7, a5, 8; ae_roundsp16asym	aep0, aep1 }
    3795:	468214        	ae_sp16x2f.iu	aep0, a2, 4
    3798:	5cd514        	ae_lp24x2f.iu	aep5, a5, 8
    379b:	5cb514        	ae_lp24x2f.iu	aep3, a5, 8
    379e:	5c9514        	ae_lp24x2f.iu	aep1, a5, 8
    37a1:	0971e4        	ae_roundsp16asym	aep6, aep7
    37a4:	faf6b3e21f 	{ ae_sp16x2f.iu	aep6, a2, 4; ae_roundsp16asym	aep4, aep5 }
    37a9:	f9eeb3c21f 	{ ae_sp16x2f.iu	aep4, a2, 4; ae_roundsp16asym	aep2, aep3 }
    37ae:	f8e6b3a21f 	{ ae_sp16x2f.iu	aep2, a2, 4; ae_roundsp16asym	aep0, aep1 }
    37b3:	468214        	ae_sp16x2f.iu	aep0, a2, 4
    37b6:	f01d           	retw.n

000037b8 <gain_after_ec>:
    37b8:	006136        	entry	a1, 48
    37bb:	aa0c           	movi.n	a10, 10
    37bd:	06fd           	mov.n	a15, a6
    37bf:	fec3b2        	addi	a11, a3, -2
    37c2:	05dd           	mov.n	a13, a5
    37c4:	04ed           	mov.n	a14, a4
    37c6:	fec2c2        	addi	a12, a2, -2
    37c9:	21c9           	s32i.n	a12, a1, 8
    37cb:	440e04        	ae_lp16x2f.i	aep0, a14, 0
    37ce:	443d04        	ae_lp16x2f.i	aep3, a13, 0
    37d1:	0b9d           	mov.n	a9, a11
    37d3:	0c8d           	mov.n	a8, a12
    37d5:	f22941        	l32r	a4, 7c (ca94 <p_ecnr_mem>)
    37d8:	fecd72        	addi	a7, a13, -2
    37db:	1179           	s32i.n	a7, a1, 4
    37dd:	0c3d           	mov.n	a3, a12
    37df:	0d6d           	mov.n	a6, a13
    37e1:	0b2d           	mov.n	a2, a11
    37e3:	0448           	l32i.n	a4, a4, 0
    37e5:	fece52        	addi	a5, a14, -2
    37e8:	0159           	s32i.n	a5, a1, 0
    37ea:	1ad442        	addmi	a4, a4, 0x1a00
    37ed:	22c442        	addi	a4, a4, 34
    37f0:	404404        	ae_lp16f.i	aep4, a4, 0
    37f3:	0e4d           	mov.n	a4, a14
    37f5:	478a76        	loop	a10, 3840 <gain_after_ec+0x88>
    37f8:	e810ac921f 	{ ae_lp16f.iu	aep1, a2, 2; ae_mulfp24s.hh	aeq0, aep4, aep0 }
    37fd:	ea11ed841f 	{ ae_lp16x2f.iu	aep0, a4, 4; ae_mulfp24s.ll	aeq1, aep4, aep0 }
    3802:	e970aca31f 	{ ae_lp16f.iu	aep2, a3, 2; ae_mulfp24s.hh	aeq2, aep4, aep3 }
    3807:	eb51fa914f 	{ ae_slliq56	aeq1, aeq1, 4; ae_mulfp24s.ll	aeq3, aep4, aep2 }
    380c:	f9ebba810f 	{ ae_slliq56	aeq0, aeq0, 4; ae_roundsp16q48sym	aep2, aeq1 }
    3811:	f9e3b2a52f 	{ ae_sp16f.l.iu	aep2, a5, 4; ae_roundsp16q48sym	aep2, aeq0 }
    3816:	ea71b225ff 	{ ae_sp16f.l.i	aep2, a5, -2; ae_mulfp24s.ll	aeq0, aep4, aep3 }
    381b:	eb31baa14f 	{ ae_slliq56	aeq1, aeq2, 4; ae_mulfp24s.ll	aeq2, aep4, aep1 }
    3820:	f8ebedb61f 	{ ae_lp16x2f.iu	aep3, a6, 4; ae_roundsp16q48sym	aep1, aeq1 }
    3825:	421714        	ae_sp16f.l.i	aep1, a7, 2
    3828:	350114        	ae_slliq56	aeq0, aeq0, 4
    382b:	357114        	ae_slliq56	aeq1, aeq3, 4
    382e:	f8e3faa10f 	{ ae_slliq56	aeq0, aeq2, 4; ae_roundsp16q48sym	aep1, aeq0 }
    3833:	f8ebf2972f 	{ ae_sp16f.l.iu	aep1, a7, 4; ae_roundsp16q48sym	aep1, aeq1 }
    3838:	f8e3f2981f 	{ ae_sp16f.l.iu	aep1, a8, 2; ae_roundsp16q48sym	aep1, aeq0 }
    383d:	429914        	ae_sp16f.l.iu	aep1, a9, 2

00003840 <gain_after_ec+0x88>:
    3840:	8f0b           	addi.n	a8, a15, -1
    3842:	082856        	bnez	a8, 38c8 <gain_after_ec+0x110>
    3845:	f290c1        	l32r	a12, 288 (1a24 <Pitch_by_Corel+0x5c8>)
    3848:	0168           	l32i.n	a6, a1, 0
    384a:	f28ef1        	l32r	a15, 284 (1a2a <Pitch_by_Corel+0x5ce>)
    384d:	1188           	l32i.n	a8, a1, 4
    384f:	a20c           	movi.n	a2, 10
    3851:	2148           	l32i.n	a4, a1, 8
    3853:	0e5d           	mov.n	a5, a14
    3855:	441e04        	ae_lp16x2f.i	aep1, a14, 0
    3858:	0d7d           	mov.n	a7, a13
    385a:	0b3d           	mov.n	a3, a11
    385c:	446d04        	ae_lp16x2f.i	aep6, a13, 0
    385f:	f207b1        	l32r	a11, 7c (ca94 <p_ecnr_mem>)
    3862:	03ad           	mov.n	a10, a3
    3864:	f287d1        	l32r	a13, 280 (1a26 <Pitch_by_Corel+0x5ca>)
    3867:	f289e1        	l32r	a14, 28c (1a28 <Pitch_by_Corel+0x5cc>)
    386a:	209440        	or	a9, a4, a4
    386d:	578276        	loop	a2, 38c8 <gain_after_ec+0x110>
    3870:	0b28           	l32i.n	a2, a11, 0
    3872:	40b314        	ae_lp16f.iu	aep3, a3, 2
    3875:	40c414        	ae_lp16f.iu	aep4, a4, 2
    3878:	4102f4        	ae_lp16f.x	aep0, a2, a15
    387b:	ea2199a2df 	{ ae_lp16f.x	aep2, a2, a13; ae_mulfp24s.ll	aeq0, aep0, aep1 }

00003880 <gain_after_ec+0xc8>:
    3880:	e820ed951f 	{ ae_lp16x2f.iu	aep1, a5, 4; ae_mulfp24s.hh	aeq1, aep0, aep1 }
    3885:	ebc9ba802f 	{ ae_slliq56	aeq0, aeq0, 2; ae_mulfp24s.ll	aeq2, aep2, aep6 }
    388a:	f8e3ba902f 	{ ae_slliq56	aeq0, aeq1, 2; ae_roundsp16q48sym	aep0, aeq0 }
    388f:	fae3faa02f 	{ ae_slliq56	aeq0, aeq2, 2; ae_roundsp16q48sym	aep5, aeq0 }
    3894:	e8c8f2561f 	{ ae_sp16f.l.i	aep5, a6, 2; ae_mulfp24s.hh	aeq1, aep2, aep6 }
    3899:	f8e3b2862f 	{ ae_sp16f.l.iu	aep0, a6, 4; ae_roundsp16q48sym	aep0, aeq0 }
    389e:	0b28           	l32i.n	a2, a11, 0
    38a0:	351094        	ae_slliq56	aeq0, aeq1, 2
    38a3:	f9e3ade71f 	{ ae_lp16x2f.iu	aep6, a7, 4; ae_roundsp16q48sym	aep2, aeq0 }
    38a8:	4152c4        	ae_lp16f.x	aep5, a2, a12
    38ab:	ea9599c2ef 	{ ae_lp16f.x	aep4, a2, a14; ae_mulfp24s.ll	aeq0, aep5, aep4 }
    38b0:	ea71f2281f 	{ ae_sp16f.l.i	aep2, a8, 2; ae_mulfp24s.ll	aeq1, aep4, aep3 }
    38b5:	428824        	ae_sp16f.l.iu	aep0, a8, 4
    38b8:	350094        	ae_slliq56	aeq0, aeq0, 2
    38bb:	f9e3fa902f 	{ ae_slliq56	aeq0, aeq1, 2; ae_roundsp16q48sym	aep3, aeq0 }
    38c0:	f9e3f2b91f 	{ ae_sp16f.l.iu	aep3, a9, 2; ae_roundsp16q48sym	aep3, aeq0 }
    38c5:	42ba14        	ae_sp16f.l.iu	aep3, a10, 2

000038c8 <gain_after_ec+0x110>:
    38c8:	f01d           	retw.n

000038ca <gain_after_ec+0x112>:
	...

000038cc <adjust_phase>:
    38cc:	004136        	entry	a1, 32
    38cf:	301334        	ae_cvtp24a16x2.ll	aep1, a3, a3
    38d2:	360234        	ae_cvtq48a32s	aeq0, a2
    38d5:	a11104        	ae_mulzaafq32sp16s.ll	aeq0, aeq0, aep1, aeq0, aep1
    38d8:	1b8f04        	ae_roundsp16q48asym	aep0, aeq0
    38db:	0002d4        	ae_cvta32p24.l	a2, aep0
    38de:	f01d           	retw.n

000038e0 <adjust_bib_state>:
    38e0:	004136        	entry	a1, 32
    38e3:	fcc232        	addi	a3, a2, -4
    38e6:	600204        	ae_lq32f.i	aeq0, a2, 0
    38e9:	840c           	movi.n	a4, 8
    38eb:	f03d           	nop.n
    38ed:	0a8476        	loop	a4, 38fb <adjust_bib_state+0x1b>
    38f0:	350074        	ae_sraiq56	aeq0, aeq0, 1
    38f3:	f867bd121f 	{ ae_lq32f.iu	aeq0, a2, 4; ae_roundsp24q48asym	aep0, aeq0 }
    38f8:	528314        	ae_sp24f.l.iu	aep0, a3, 4

000038fb <adjust_bib_state+0x1b>:
    38fb:	f01d           	retw.n

000038fd <adjust_bib_state+0x1d>:
    38fd:	000000                                        ...

00003900 <aec_post_prcs>:
    3900:	004136        	entry	a1, 32
    3903:	159282        	l16si	a8, a2, 42
    3906:	01d272        	addmi	a7, a2, 0x100
    3909:	28c292        	addi	a9, a2, 40
    390c:	f26151        	l32r	a5, 290 (7fffff <_end+0x7f355f>)
    390f:	39a554        	ae_movpa24x2	aep2, a5, a5
    3912:	406904        	ae_lp16f.i	aep6, a9, 0
    3915:	4ac762        	addi	a6, a7, 74
    3918:	301884        	ae_cvtp24a16x2.ll	aep1, a8, a8
    391b:	4cc772        	addi	a7, a7, 76
    391e:	149282        	l16si	a8, a2, 40
    3921:	155282        	s16i	a8, a2, 42
    3924:	400704        	ae_lp16f.i	aep0, a7, 0
    3927:	de3aec760f 	{ ae_lp16f.i	aep7, a6, 0; ae_subsp24s	aep5, aep6, aep1 }
    392c:	ea1d8fe42e 	{ addi	a2, a4, -2; ae_mulfp24s.ll	aeq0, aep7, aep0 }
    3931:	ce3440006f 	{ movi	a6, 0; ae_sraip24	aep5, aep5, 4 }
    3936:	fa67ac030f 	{ ae_lp16f.i	aep0, a3, 0; ae_roundsp24q48asym	aep4, aeq0 }

0000393b <aec_post_prcs+0x3b>:
    393b:	079514        	ae_addsp24s	aep1, aep1, aep5
    393e:	019874        	ae_mulfp24s.ll	aeq3, aep1, aep0
    3941:	07a1f4        	ae_subsp24s	aep7, aep2, aep1
    3944:	eb9d80166e 	{ addi	a6, a6, 1; ae_mulfp24s.ll	aeq2, aep7, aep4 }
    3949:	e40c           	movi.n	a4, 14
    394b:	fd3c7aa0af 	{ ae_slliq56	aeq2, aeq2, 2; ae_roundsq32asym	aeq1, aeq3 }
    3950:	fe346ce21f 	{ ae_lp16f.iu	aep6, a2, 2; ae_roundsq32asym	aeq2, aeq2 }
    3955:	f69aec831f 	{ ae_lp16f.iu	aep0, a3, 2; ae_mulafq32sp16s.l	aeq1, aeq2, aep6 }
    395a:	128476        	loop	a4, 3970 <aec_post_prcs+0x70>
    395d:	011074        	ae_mulfp24s.ll	aeq0, aep1, aep0
    3960:	1b9f04        	ae_roundsp16q48asym	aep0, aeq1
    3963:	fd247203ff 	{ ae_sp16f.l.i	aep0, a3, -2; ae_roundsq32asym	aeq1, aeq0 }
    3968:	408214        	ae_lp16f.iu	aep0, a2, 2
    396b:	f682ec831f 	{ ae_lp16f.iu	aep0, a3, 2; ae_mulafq32sp16s.l	aeq1, aeq2, aep0 }

00003970 <aec_post_prcs+0x70>:
    3970:	1b9f34        	ae_roundsp16q48asym	aep3, aeq1
    3973:	4233f4        	ae_sp16f.l.i	aep3, a3, -2
    3976:	c1b666        	bnei	a6, 16, 393b <aec_post_prcs+0x3b>
    3979:	f01d           	retw.n

0000397b <aec_post_prcs+0x7b>:
	...

0000397c <AVC_prcs>:
    397c:	004136        	entry	a1, 32
    397f:	440304        	ae_lp16x2f.i	aep0, a3, 0
    3982:	fc2480789f 	{ movi	a9, 120; ae_zeroq56	aeq0 }
    3987:	048976        	loop	a9, 398f <AVC_prcs+0x13>
    398a:	e2002d831f 	{ ae_lp16x2f.iu	aep0, a3, 4; ae_mulaafp24s.hh.ll	aeq0, aep0, aep0 }

0000398f <AVC_prcs+0x13>:
    398f:	3581f4        	ae_sraiq56	aeq2, aeq0, 7
    3992:	f24091        	l32r	a9, 294 (11111 <_end+0x4671>)
    3995:	fd3462099f 	{ ae_movpa24x2	aep0, a9, a9; ae_roundsq32asym	aeq1, aeq2 }
    399a:	080d64        	ae_mulfq32sp24s.l	aeq1, aeq1, aep0
    399d:	f1b681        	l32r	a8, 78 (808 <HIFI_sqrt>)
    39a0:	3551d4        	ae_slliq56	aeq1, aeq1, 7
    39a3:	fc2c4000af 	{ movi	a10, 0; ae_roundsq32asym	aeq0, aeq1 }
    39a8:	368b04        	ae_trunca32q48	a11, aeq0
    39ab:	0008e0        	callx8	a8
    39ae:	f21c81        	l32r	a8, 220 (8b28 <airoha_divide>)
    39b1:	604224        	ae_lq32f.i	aeq1, a2, 8
    39b4:	368b34        	ae_cvtq48a32s	aeq2, a11
    39b7:	441204        	ae_lp16x2f.i	aep1, a2, 0
    39ba:	0292b2        	l16si	a11, a2, 4
    39bd:	fc24feaa0f 	{ ae_slaasq56s	aeq0, aeq2, a10; nop }
    39c2:	c11114        	ae_mulzaafq32sp16s.lh	aeq0, aeq0, aep1, aeq1, aep1
    39c5:	11bb00        	slli	a11, a11, 16
    39c8:	06c934        	ae_roundsq32asym	aeq3, aeq0
    39cb:	36ba04        	ae_trunca32q48	a10, aeq3
    39ce:	22a9           	s32i.n	a10, a2, 8
    39d0:	0008e0        	callx8	a8
    39d3:	f22291        	l32r	a9, 25c (2000 <pitch_by_harmonic+0x4b8>)
    39d6:	fecaa2        	addi	a10, a10, -2
    39d9:	360b34        	ae_cvtq48a32s	aeq0, a11
    39dc:	fc24fe8acf 	{ ae_slaasq56s	aeq3, aeq0, a10; nop }
    39e1:	f97ba0328e 	{ l16si	a8, a2, 6; ae_roundsp16q48asym	aep2, aeq3 }
    39e6:	362224        	ae_trunca16p24s.l	a2, aep2
    39e9:	532290        	max	a2, a2, a9
    39ec:	432280        	min	a2, a2, a8
    39ef:	f01d           	retw.n

000039f1 <AVC_prcs+0x75>:
    39f1:	000000                                        ...

000039f4 <gain_ref>:
    39f4:	004136        	entry	a1, 32
    39f7:	fcc222        	addi	a2, a2, -4
    39fa:	448214        	ae_lp16x2f.iu	aep0, a2, 4
    39fd:	3b14a6        	blti	a4, 1, 3a3c <gain_ref+0x48>
    3a00:	302334        	ae_cvtp24a16x2.ll	aep2, a3, a3
    3a03:	ea41cff43e 	{ addi	a3, a4, -1; ae_mulfp24s.ll	aeq1, aep0, aep2 }
    3a08:	ea40ad821f 	{ ae_lp16x2f.iu	aep0, a2, 4; ae_mulfp24s.hl	aeq0, aep0, aep2 }
    3a0d:	355094        	ae_slliq56	aeq1, aeq1, 2
    3a10:	f86bfa802f 	{ ae_slliq56	aeq0, aeq0, 2; ae_roundsp16q48asym	aep1, aeq1 }
    3a15:	f863f212ff 	{ ae_sp16f.l.i	aep1, a2, -2; ae_roundsp16q48asym	aep1, aeq0 }
    3a1a:	0020f0        	nop
    3a1d:	16a376        	loopgtz	a3, 3a37 <gain_ref+0x43>
    3a20:	ea41b212ef 	{ ae_sp16f.l.i	aep1, a2, -4; ae_mulfp24s.ll	aeq0, aep0, aep2 }
    3a25:	ea40ed821f 	{ ae_lp16x2f.iu	aep0, a2, 4; ae_mulfp24s.hl	aeq1, aep0, aep2 }
    3a2a:	350094        	ae_slliq56	aeq0, aeq0, 2
    3a2d:	f863fa902f 	{ ae_slliq56	aeq0, aeq1, 2; ae_roundsp16q48asym	aep1, aeq0 }
    3a32:	f863f212ff 	{ ae_sp16f.l.i	aep1, a2, -2; ae_roundsp16q48asym	aep1, aeq0 }

00003a37 <gain_ref+0x43>:
    3a37:	4212e4        	ae_sp16f.l.i	aep1, a2, -4
    3a3a:	f01d           	retw.n

00003a3c <gain_ref+0x48>:
    3a3c:	f01d           	retw.n

00003a3e <gain_ref+0x4a>:
	...

00003a40 <Voice_WB_TX_Prcs>:
    3a40:	022136        	entry	a1, 0x110
    3a43:	04bd           	mov.n	a11, a4
    3a45:	f18d41        	l32r	a4, 7c (ca94 <p_ecnr_mem>)
    3a48:	296152        	s32i	a5, a1, 164
