
Build/lib/pisplit_ecnr_inear_v2_position_independent.splitload.lib:     file format elf32-xtensa-le


Disassembly of section .text:

00000000 <_init-0x768>:
       0:	0000f550 0000d7d0 00003328 0000d7ec     P.......(3......
      10:	00003400 0000d804 00003c8c 0000d81c     .4.......<......
      20:	00004760 0000d838 00007cc8 0000d84c     `G..8....|..L...
      30:	000046b0 0000d864 0000792c 0000d878     .F..d...,y..x...
      40:	00004708 0000d890 000047d0 0000d8b0     .G.......G......
      50:	00007208 0000d8cc 0000b644 0000d8dc     .r......D.......
      60:	00003330 0000d8f8 00004828 0000d91c     03......(H......
      70:	00007024 0000d93c 00005850 0000d95c     $p..<...PX..\...
      80:	00004838 0000d97c 00004944 0000ebd0     8H..|...DI......
      90:	0000bb75 00001968 00000948 0000f554     u...h...H...T...
      a0:	89442379 0000efc0 0000ecc0 7fffffff     y#D.............
      b0:	0000ed30 80000000 00008000 0000c720     0........... ...
      c0:	0000f55c 0000c738 000a0000 dacccccd     \...8...........
      d0:	000009f0 0000c788 fc000000 c1600000     ..............`.
      e0:	0000c68c 00b33333 ff4ccccd 00800000     ....33....L.....
      f0:	0000b694 7fff0000 7e1401ec 7fe70019     ...........~....
     100:	00005c28 0000efa0 00004000 00005b33     (\.......@..3[..
     110:	00000ad4 33334ccd 00147ae1 00000900     .....L33.z......
     120:	000021ec 00010000 00078000 002ccccd     .!............,.
     130:	00466666 00533333 005851ec 005ae148     ffF.33S..QX.H.Z.
     140:	005ccccd 00600000 fffe0000 0000828f     ..\...`.........
     150:	00030000 00020000 0000c148 004ccccd     ........H.....L.
     160:	006ccccd 0059999a 0070a3d7 00733333     ..l...Y...p.33s.
     170:	00003fff 00001044 0039999a 005d70a4     .?..D.....9..p].
     180:	00014000 00666666 007e147b 00100000     .@..fff.{.~.....
     190:	007fbe77 000ccccd 00005534 000054f0     w.......4U...T..
     1a0:	000014a4 000aaaab 0000c7c0 00005518     .............U..
     1b0:	000009ac 05000000 000020fc 0c000000     ......... ......
     1c0:	01000000 00435e51 0099999a 00cccccd     ....Q^C.........
     1d0:	0159999a 13ffffff 02000000 0a8f5c28     ..Y.........(\..
     1e0:	2eb851ec 1f000000 0bffffff 005a8200     .Q............Z.
     1f0:	c28f0000 cccd0000 00400000 0ccd0000     ..........@.....
     200:	e6660000 f3330000 199a0000 33330000     ..f...3.......33
     210:	3d710000 0000fff7 000026e8 00002688     ..q=.....&...&..
     220:	000026c4 00001960 0000ff00 00007fff     .&..`...........
     230:	00006666 000cd080 000026a0 0000d9a0     ff.......&......
     240:	00200000 002aaa00 0000ec30 0000ec34     .. ...*.0...4...
     250:	00080000 0000a7e0 00001000 0000a6d8     ................
     260:	00002770 000027cc 0000ec48 00002904     p'...'..H....)..
     270:	00002a10 00002998 00002850 000031bc     .*...)..P(...1..
     280:	00009068 0000b560 000033ac 00003358     h...`....3..X3..
     290:	0000336c 000022c0 000079c0 00003380     l3..."...y...3..
     2a0:	0000f558 00002000 0000596c 000070e8     X.... ..lY...p..
     2b0:	000033e0 0000ee4c 0000ee40 0000ec60     .3..L...@...`...
     2c0:	0000ee5c 0000ee9c 0000eee0 0000ee60     \...........`...
     2d0:	00001a5c 00001a5e 00001a60 00001a62     \...^...`...b...
     2e0:	007fffff 00011111 00004d10 00006cc0     .........M...l..
     2f0:	00003bb8 00003598 0000181c 000036f4     .;...5.......6..
     300:	00003614 00003770 000038a4 00003908     .6..p7...8...9..
     310:	00002a88 00002d28 00003924 0000381c     .*..(-..$9...8..
     320:	00003684 00005d00 00005fac 00003a74     .6...]..._..t:..
     330:	00006244 00006120 00006618 00003b8c     Db.. a...f...;..
     340:	0000678c 00006abc 00006c2c 00003a88     .g...j..,l...:..
     350:	000064c4 00002fec 00003030 00007a04     .d.../..00...z..
     360:	00003b14 00003aa8 00003738 00008a38     .;...:..87..8...
     370:	00007d08 0000469c 00007970 0000b660     .}...F..py..`...
     380:	00003400 00002530 00008f60 00003c8c     .4..0%..`....<..
     390:	00006d08 00000800 00003074 000030b8     .m......t0...0..
     3a0:	00004444 7fbe0042 00009054 00009058     DD..B...T...X...
     3b0:	000029f1 10000000 00005908 0000ec4c     .).......Y..L...
     3c0:	40000000 0e390000 3eb80000 18000000     ...@..9....>....
     3d0:	0d330000 00006000 00001770 00005918     ..3..`..p....Y..
     3e0:	0000595c 00005934 00007e00 ffff8000     \Y..4Y...~......
     3f0:	000ccccc 00393e4b 00155555 00175e97     ....K>9.UU...^..
     400:	00005880 000060ec 00005ca4 00005c48     .X...`...\..H\..
     410:	3fff0000 c0010000 0000ec68 0000ec58     ...?....h...X...
     420:	00006ccd 0000ec5c 00007efa 00000fff     .l..\....~......
     430:	0000ec50 00007e00 00004666 00003b00     P....~..fF...;..
     440:	00004a3d 000043d7 00007fae 000055aa     =J...C.......U..
     450:	00006dd0 00006f68 00006dc0 00005a5a     .m..ho...m..ZZ..
     460:	00007024 00004760 00007f80 0000dbe0     $p..`G..........
     470:	0000da60 0000ddf0 0000e040 0000de80     `.......@.......
     480:	0000e250 0000e2a0 0000e480 0000e690     P...............
     490:	007fff00 000008fe 000072e4 0000f000     .........r......
     4a0:	000072a8 ffffb800 b8000000 00000924     .r..........$...
     4b0:	000072d4 000072f4 0000f220 00000a00     .r...r.. .......
     4c0:	0000b5e8 00007690 00006dac 00009f94     .....v...m......
     4d0:	0000baa0 0000bc40 00001ac4 00008c58     ....@.......X...
     4e0:	00001b1c 00008e10 00008f40 00009090     ........@.......
     4f0:	000091b0 0000a2e4 00009484 00000848     ............H...
     500:	00003284 000097a8 0000f440 00007b3c     .2......@...<{..
     510:	00007d58 00038e39 0000e7c2 0000af98     X}..9...........
     520:	7f5c00a4 7ff00010 0000b248 20000000     ..\.....H...... 
     530:	04000000 0000eec2 00007c28 00007998     ........(|...y..
     540:	0000e666 00008c30 0000efb2 1b333333     f...0.......333.
     550:	2666599a 46666666 007ccccd 1e666666     .Yf&fffF..|.fff.
     560:	30000000 7ccd0333 00007000 23333333     ...03..|.p..333#
     570:	40004000 7eb80148 00333333 6666199a     .@.@H..~333...ff
     580:	1ccccccd 00005000 599a2666 00266666     .....P..f&.Yff&.
     590:	00001999 00003333 7f1b00e5 00007db0     ....33.......}..
     5a0:	6ccd1333 5999999a 799a0666 00500000     3..l...Yf..y..P.
     5b0:	034ccccd fe800000 003fffff 00d9999a     ..L.......?.....
     5c0:	ffa66665 50000000 0000eec0 01eb851f     ef.....P........
     5d0:	04cccccd ffa66666 00266665 0000228e     ....ff..ef&.."..
     5e0:	00000999 0000eca0 00480000 0000e000     ..........H.....
     5f0:	00007666 00007ecc 75c30a3d 0000e7c4     fv...~..=..u....
     600:	0000e7c8 0000eff0 0000ecac 0000eca8     ................
     610:	000e38e4 0000efe0 00124925 00000b24     .8......%I..$...
     620:	00001034 00009260 0000927c 0000936c     4...`...|...l...
     630:	000030fc 0000a5b8 00000838 00000edc     .0......8.......
     640:	01800000 00002438 00009984 00009ab4     ....8$..........
     650:	0000a0f0 00009c1c 00009d18 00009dcc     ................
     660:	00009968 0000b720 0000b910 80000001     h... ...........
     670:	00005a82 0000aa04 0000e6bc 0000a878     .Z..........x...
     680:	0000a800 0000aa30 0000ac14 0000ac40     ....0.......@...
     690:	0000ac70 0000acc8 0000ac9c 0000e6c0     p...............
     6a0:	0000ad3c 0000ad10 0000af64 0000aef0     <.......d.......
     6b0:	003eb852 00333334 00266667 0019999a     R.>.433.gf&.....
     6c0:	0000599a ffc147ae ffcccccc ffd99999     .Y...G..........
     6d0:	ffe66666 fff33333 ffe00000 ffc00000     ff..33..........
     6e0:	06400000 016db22c 00028f5d ff800000     ..@.,.m.].......
     6f0:	0effffff 077fffff 0021eb86 11000000     ..........!.....
     700:	15000000 00666667 cb333333 0000b230     ....gff.333.0...
     710:	fb333333 f4000000 04cccccc 0000b040     333.........@...
     720:	13000000 0000b0f8 0000b170 0399999a     ........p.......
     730:	02999999 0000b508 ffff7fff 7fffff00     ................
     740:	00002688 000241f8 0000ec20 ffff0000     .&...A.. .......
     750:	00006a4d 00001062 0000bd20 0000792c     Mj..b... ...,y..
     760:	00002440 7ff00000                       @$......

00000768 <_init>:
     768:	008136        	entry	a1, 64
     76b:	f01d           	retw.n

0000076d <_init+0x5>:
     76d:	000000                                        ...

00000770 <_start>:
     770:	004136        	entry	a1, 32
     773:	fe24a1        	l32r	a10, 4 (d7d0 <_DYNAMIC+0xde0>)
     776:	fe2231        	l32r	a3, 0 (f550 <__bss_start>)
     779:	0288           	l32i.n	a8, a2, 0
     77b:	fe23b1        	l32r	a11, 8 (3328 <get_aec_nr_memsize>)
     77e:	0389           	s32i.n	a8, a3, 0
     780:	0008e0        	callx8	a8
     783:	0388           	l32i.n	a8, a3, 0
     785:	fe21a1        	l32r	a10, c (d7ec <_DYNAMIC+0xdfc>)
     788:	fe22b1        	l32r	a11, 10 (3400 <Voice_WB_TX_Init>)
     78b:	0008e0        	callx8	a8
     78e:	0388           	l32i.n	a8, a3, 0
     790:	fe21a1        	l32r	a10, 14 (d804 <_DYNAMIC+0xe14>)
     793:	fe21b1        	l32r	a11, 18 (3c8c <Voice_WB_TX_Prcs>)
     796:	0008e0        	callx8	a8
     799:	0388           	l32i.n	a8, a3, 0
     79b:	fe20a1        	l32r	a10, 1c (d81c <_DYNAMIC+0xe2c>)
     79e:	fe20b1        	l32r	a11, 20 (4760 <EC_REF_GAIN_READBACK>)
     7a1:	0008e0        	callx8	a8
     7a4:	0388           	l32i.n	a8, a3, 0
     7a6:	fe1fa1        	l32r	a10, 24 (d838 <_DYNAMIC+0xe48>)
     7a9:	fe1fb1        	l32r	a11, 28 (7cc8 <NB_RX_NR_init>)
     7ac:	0008e0        	callx8	a8
     7af:	0388           	l32i.n	a8, a3, 0
     7b1:	fe1ea1        	l32r	a10, 2c (d84c <_DYNAMIC+0xe5c>)
     7b4:	fe1fb1        	l32r	a11, 30 (46b0 <Voice_NB_RX_Prcs>)
     7b7:	0008e0        	callx8	a8
     7ba:	0388           	l32i.n	a8, a3, 0
     7bc:	fe1ea1        	l32r	a10, 34 (d864 <_DYNAMIC+0xe74>)
     7bf:	fe1eb1        	l32r	a11, 38 (792c <WB_RX_NR_init>)
     7c2:	0008e0        	callx8	a8
     7c5:	0388           	l32i.n	a8, a3, 0
     7c7:	fe1da1        	l32r	a10, 3c (d878 <_DYNAMIC+0xe88>)
     7ca:	fe1db1        	l32r	a11, 40 (4708 <Voice_WB_RX_Prcs>)
     7cd:	0008e0        	callx8	a8
     7d0:	0388           	l32i.n	a8, a3, 0
     7d2:	fe1ca1        	l32r	a10, 44 (d890 <_DYNAMIC+0xea0>)
     7d5:	fe1cb1        	l32r	a11, 48 (47d0 <EC_PreLim_Coef_READBACK>)
     7d8:	0008e0        	callx8	a8
     7db:	0388           	l32i.n	a8, a3, 0
     7dd:	fe1ba1        	l32r	a10, 4c (d8b0 <_DYNAMIC+0xec0>)
     7e0:	fe1cb1        	l32r	a11, 50 (7208 <AEC_NR_Write_FLASH>)
     7e3:	0008e0        	callx8	a8
     7e6:	0388           	l32i.n	a8, a3, 0
     7e8:	fe1ba1        	l32r	a10, 54 (d8cc <_DYNAMIC+0xedc>)
     7eb:	fe1bb1        	l32r	a11, 58 (b644 <EQ_update>)
     7ee:	0008e0        	callx8	a8
     7f1:	0388           	l32i.n	a8, a3, 0
     7f3:	fe1aa1        	l32r	a10, 5c (d8dc <_DYNAMIC+0xeec>)
     7f6:	fe1ab1        	l32r	a11, 60 (3330 <get_txnr_pitch_last>)
     7f9:	0008e0        	callx8	a8
     7fc:	0388           	l32i.n	a8, a3, 0
     7fe:	fe19a1        	l32r	a10, 64 (d8f8 <_DYNAMIC+0xf08>)
     801:	fe19b1        	l32r	a11, 68 (4828 <DaulMIC_power_Coef_READBACK>)
     804:	0008e0        	callx8	a8
     807:	0388           	l32i.n	a8, a3, 0
     809:	fe18a1        	l32r	a10, 6c (d91c <_DYNAMIC+0xf2c>)
     80c:	fe19b1        	l32r	a11, 70 (7024 <TWO_MIC_WB_Write_FLASH>)
     80f:	0008e0        	callx8	a8
     812:	0388           	l32i.n	a8, a3, 0
     814:	fe18a1        	l32r	a10, 74 (d93c <_DYNAMIC+0xf4c>)
     817:	fe18b1        	l32r	a11, 78 (5850 <IE_EC_REF_GAIN_READBACK>)
     81a:	0008e0        	callx8	a8
     81d:	0388           	l32i.n	a8, a3, 0
     81f:	fe17a1        	l32r	a10, 7c (d95c <_DYNAMIC+0xf6c>)
     822:	fe17b1        	l32r	a11, 80 (4838 <Voice_WB_TX_Inear_Init_V2>)
     825:	0008e0        	callx8	a8
     828:	0388           	l32i.n	a8, a3, 0
     82a:	fe16a1        	l32r	a10, 84 (d97c <_DYNAMIC+0xf8c>)
     82d:	fe16b1        	l32r	a11, 88 (4944 <Voice_WB_TX_Inear_Prcs_V2>)
     830:	0008e0        	callx8	a8
     833:	fe1621        	l32r	a2, 8c (ebd0 <export_parameter_array>)
     836:	f01d           	retw.n

00000838 <my_rand>:
     838:	004136        	entry	a1, 32
     83b:	fe1531        	l32r	a3, 90 (bb75 <inear_VAD_detection_iem2+0xd5>)
     83e:	d12230        	mul16s	a2, a2, a3
     841:	822d           	ae_sext16	a2, a2
     843:	f01d           	retw.n

00000845 <my_rand+0xd>:
     845:	000000                                        ...

00000848 <comfort_noise_gen_wb>:
     848:	008136        	entry	a1, 64
     84b:	fcc3a2        	addi	a10, a3, -4
     84e:	1129           	s32i.n	a2, a1, 4
     850:	320282        	l8ui	a8, a2, 50
     853:	11d2b2        	addmi	a11, a2, 0x1100
     856:	09d292        	addmi	a9, a2, 0x900
     859:	02d242        	addmi	a4, a2, 0x200
     85c:	a0c442        	addi	a4, a4, -96
     85f:	159992        	l16si	a9, a9, 42
     862:	fc20838b2e 	{ addi	a2, a11, 56; ae_zerop48	aep0 }
     867:	176827        	bbci	a8, 2, 882 <comfort_noise_gen_wb+0x3a>
     86a:	502bb2        	l32i	a11, a11, 0x140
     86d:	02db82        	addmi	a8, a11, 0x200
     870:	639882        	l16si	a8, a8, 198
     873:	0b2866        	bnei	a8, 2, 882 <comfort_noise_gen_wb+0x3a>
     876:	0fdb92        	addmi	a9, a11, 0xf00
     879:	08db42        	addmi	a4, a11, 0x800
     87c:	38c442        	addi	a4, a4, 56
     87f:	619992        	l16si	a9, a9, 194
     882:	03a082        	movi	a8, 3
     885:	02a876        	loopgtz	a8, 88b <comfort_noise_gen_wb+0x43>
     888:	468a14        	ae_sp16x2f.iu	aep0, a10, 4

0000088b <comfort_noise_gen_wb+0x43>:
     88b:	0199           	s32i.n	a9, a1, 0
     88d:	030c           	movi.n	a3, 0
     88f:	fe0171        	l32r	a7, 94 (1968 <Pitch_by_Corel+0x4c4>)
     892:	5a2b           	addi.n	a5, a10, 2
     894:	1168           	l32i.n	a6, a1, 4
     896:	04d482        	addmi	a8, a4, 0x400
     899:	3e22b2        	l32i	a11, a2, 248
     89c:	360b34        	ae_cvtq48a32s	aeq0, a11
     89f:	b8c882        	addi	a8, a8, -72
     8a2:	f94214218f 	{ s32i.n	a8, a1, 8; ae_truncp24q48x2	aep2, aeq0, aeq0 }
     8a7:	f88837212f 	{ ae_sp24x2s.i	aep2, a1, 16; ae_mulfq32sp24s.l	aeq0, aeq0, aep2 }
     8ac:	0ed662        	addmi	a6, a6, 0xe00
     8af:	f8424f466e 	{ addi	a6, a6, -12; ae_truncp24q48x2	aep1, aeq0, aeq0 }
     8b4:	561134        	ae_sp24x2s.i	aep1, a1, 24

000008b7 <comfort_noise_gen_wb+0x6f>:
     8b7:	fdf881        	l32r	a8, 98 (948 <HIFI_sqrt>)
     8ba:	01a8           	l32i.n	a10, a1, 0
     8bc:	04b8           	l32i.n	a11, a4, 0
     8be:	0008e0        	callx8	a8
     8c1:	fdf6d1        	l32r	a13, 9c (f554 <p_ecnr_mem>)
     8c4:	444b           	addi.n	a4, a4, 4
     8c6:	819292        	l16si	a9, a2, 0x102
     8c9:	0de8           	l32i.n	a14, a13, 0
     8cb:	0bfd           	mov.n	a15, a11
     8cd:	fdf4b1        	l32r	a11, a0 (89442379 <_end+0x89432e19>)
     8d0:	ee7a           	add.n	a14, a14, a7
     8d2:	7f9ec2        	l16si	a12, a14, 254
     8d5:	360f34        	ae_cvtq48a32s	aeq0, a15
     8d8:	11f8           	l32i.n	a15, a1, 4
     8da:	82bcb0        	mull	a11, a12, a11
     8dd:	7f5eb2        	s16i	a11, a14, 254
     8e0:	fdece1        	l32r	a14, 90 (bb75 <inear_VAD_detection_iem2+0xd5>)
     8e3:	408614        	ae_lp16f.iu	aep0, a6, 2
     8e6:	1d2397        	blt	a3, a9, 907 <comfort_noise_gen_wb+0xbf>
     8e9:	350ff2        	l8ui	a15, a15, 53
     8ec:	fdee81        	l32r	a8, a4 (efc0 <wb_sb_ptn>)
     8ef:	14a3f7        	bge	a3, a15, 907 <comfort_noise_gen_wb+0xbf>
     8f2:	089882        	l16si	a8, a8, 16
     8f5:	543124        	ae_lp24x2.i	aep3, a1, 16
     8f8:	544134        	ae_lp24x2.i	aep4, a1, 24
     8fb:	05a387        	bge	a3, a8, 904 <comfort_noise_gen_wb+0xbc>
     8fe:	083524        	ae_mulfq32sp24s.l	aeq0, aeq0, aep3
     901:	000086        	j	907 <comfort_noise_gen_wb+0xbf>

00000904 <comfort_noise_gen_wb+0xbc>:
     904:	084524        	ae_mulfq32sp24s.l	aeq0, aeq0, aep4
     907:	82ece0        	mull	a14, a12, a14
     90a:	307eb4        	ae_cvtp24a16x2.ll	aep7, a14, a11
     90d:	037a14        	ae_mulfq32sp16s.l	aeq1, aeq0, aep7
     910:	03fa04        	ae_mulfq32sp16s.h	aeq3, aeq0, aep7
     913:	030a54        	ae_mulfq32sp16s.l	aeq1, aeq1, aep0
     916:	d7e340133e 	{ addi	a3, a3, 1; ae_mulfq32sp16s.l	aeq3, aeq3, aep0 }
     91b:	fc24fe9a8f 	{ ae_slaasq56s	aeq2, aeq1, a10; nop }
     920:	fc24feba4f 	{ ae_slaasq56s	aeq1, aeq3, a10; nop }
     925:	fbf3b0219e 	{ l32i	a9, a1, 8; ae_roundsp16q48sym	aep6, aeq2 }
     92a:	faebf2e51f 	{ ae_sp16f.l.iu	aep6, a5, 2; ae_roundsp16q48sym	aep5, aeq1 }
     92f:	42d514        	ae_sp16f.l.iu	aep5, a5, 2
     932:	819497        	bne	a4, a9, 8b7 <comfort_noise_gen_wb+0x6f>
     935:	fec5a2        	addi	a10, a5, -2
     938:	fc20800fff 	{ movi	a15, 15; ae_zerop48	aep0 }
     93d:	02af76        	loopgtz	a15, 943 <comfort_noise_gen_wb+0xfb>
     940:	468a14        	ae_sp16x2f.iu	aep0, a10, 4

00000943 <comfort_noise_gen_wb+0xfb>:
     943:	f01d           	retw.n

00000945 <comfort_noise_gen_wb+0xfd>:
     945:	000000                                        ...

00000948 <HIFI_sqrt>:
     948:	006136        	entry	a1, 48
     94b:	035d           	mov.n	a5, a3
     94d:	030c           	movi.n	a3, 0
     94f:	1139           	s32i.n	a3, a1, 4
     951:	0139           	s32i.n	a3, a1, 0
     953:	0715e6        	bgei	a5, 1, 95e <HIFI_sqrt+0x16>
     956:	0139           	s32i.n	a3, a1, 0

00000958 <HIFI_sqrt+0x10>:
     958:	1139           	s32i.n	a3, a1, 4
     95a:	0128           	l32i.n	a2, a1, 0
     95c:	f01d           	retw.n

0000095e <HIFI_sqrt+0x16>:
     95e:	fdd281        	l32r	a8, a8 (ecc0 <TABLE_SQRT>)
     961:	40e5a0        	nsa	a10, a5
     964:	c042a0        	sub	a4, a2, a10
     967:	401a00        	ssl	a10
     96a:	a19500        	sll	a9, a5
     96d:	046040        	extui	a6, a4, 0, 1
     970:	400600        	ssr	a6
     973:	b19090        	sra	a9, a9
     976:	419990        	srli	a9, a9, 9
     979:	317090        	srai	a7, a9, 16
     97c:	300994        	ae_cvtp24a16x2.ll	aep0, a9, a9
     97f:	f0c772        	addi	a7, a7, -16
     982:	537730        	max	a7, a7, a3
     985:	907780        	addx2	a7, a7, a8
     988:	278d           	ae_l16si.n	a8, a7, 0
     98a:	377d           	ae_l16si.n	a7, a7, 2
     98c:	346a           	add.n	a3, a4, a6
     98e:	213130        	srai	a3, a3, 1
     991:	c07780        	sub	a7, a7, a8
     994:	118800        	slli	a8, a8, 16
     997:	117700        	slli	a7, a7, 16
     99a:	364734        	ae_cvtq48a32s	aeq1, a7
     99d:	360834        	ae_cvtq48a32s	aeq0, a8
     9a0:	030174        	ae_mulaq32sp16u.l	aeq0, aeq1, aep0
     9a3:	0139           	s32i.n	a3, a1, 0
     9a5:	368304        	ae_trunca32q48	a3, aeq0
     9a8:	ffeb06        	j	958 <HIFI_sqrt+0x10>

000009ab <HIFI_sqrt+0x63>:
	...

000009ac <Log2_norm>:
     9ac:	004136        	entry	a1, 32
     9af:	3212a6        	blti	a2, 1, 9e5 <Log2_norm+0x39>
     9b2:	046c           	movi.n	a4, -32
     9b4:	2da437        	bge	a4, a3, 9e5 <Log2_norm+0x39>
     9b7:	052c           	movi.n	a5, 32
     9b9:	04a537        	bge	a5, a3, 9c1 <Log2_norm+0x15>
     9bc:	fdbc21        	l32r	a2, ac (7fffffff <_end+0x7fff0a9f>)
     9bf:	f01d           	retw.n

000009c1 <Log2_norm+0x15>:
     9c1:	fdbb41        	l32r	a4, b0 (ed30 <TABLE_LOG2_1530>)
     9c4:	558820        	extui	a8, a2, 24, 6
     9c7:	1188e0        	slli	a8, a8, 2
     9ca:	603484        	ae_lq32f.xu	aeq0, a4, a8
     9cd:	604414        	ae_lq32f.i	aeq1, a4, 4
     9d0:	f92ae2022f 	{ ae_movpa24x2	aep0, a2, a2; ae_subq56	aeq1, aeq1, aeq0 }
     9d5:	030174        	ae_mulaq32sp16u.l	aeq0, aeq1, aep0
     9d8:	368204        	ae_trunca32q48	a2, aeq0
     9db:	014360        	slli	a4, a3, 26
     9de:	212520        	srai	a2, a2, 5
     9e1:	224a           	add.n	a2, a2, a4
     9e3:	f01d           	retw.n

000009e5 <Log2_norm+0x39>:
     9e5:	fdb321        	l32r	a2, b4 (80000000 <_end+0x7fff0aa0>)
     9e8:	f01d           	retw.n

000009ea <Log2_norm+0x3e>:
     9ea:	00000000 41360000                                ......

000009f0 <COMPL_S16x2_fun>:
     9f0:	004136        	entry	a1, 32
     9f3:	fdb131        	l32r	a3, b8 (8000 <two_mic_WB_NR_NSN_proc+0x134>)
     9f6:	c03320        	sub	a3, a3, a2
     9f9:	113300        	slli	a3, a3, 16
     9fc:	223a           	add.n	a2, a2, a3
     9fe:	f01d           	retw.n

00000a00 <PD_INIT>:
     a00:	004136        	entry	a1, 32
     a03:	fda641        	l32r	a4, 9c (f554 <p_ecnr_mem>)
     a06:	0b0c           	movi.n	a11, 0
     a08:	0438           	l32i.n	a3, a4, 0
     a0a:	f0a2c2        	movi	a12, 0x2f0
     a0d:	fdab81        	l32r	a8, bc (c720 <xt_memset>)
     a10:	55d332        	addmi	a3, a3, 0x5500
     a13:	f0c332        	addi	a3, a3, -16
     a16:	03ad           	mov.n	a10, a3
     a18:	0008e0        	callx8	a8
     a1b:	fda951        	l32r	a5, c0 (f55c <aec_nr_para>)
     a1e:	03ad           	mov.n	a10, a3
     a20:	05b8           	l32i.n	a11, a5, 0
     a22:	7c0c           	movi.n	a12, 7
     a24:	fda881        	l32r	a8, c4 (c738 <xt_memcpy>)
     a27:	01dbb2        	addmi	a11, a11, 0x100
     a2a:	a4cbb2        	addi	a11, a11, -92
     a2d:	0008e0        	callx8	a8
     a30:	fda681        	l32r	a8, c8 (a0000 <_end+0x90aa0>)
     a33:	03d3c2        	addmi	a12, a3, 0x300
     a36:	0578           	l32i.n	a7, a5, 0
     a38:	05d3f2        	addmi	a15, a3, 0x500
     a3b:	01d3b2        	addmi	a11, a3, 0x100
     a3e:	02d392        	addmi	a9, a3, 0x200
     a41:	58c992        	addi	a9, a9, 88
     a44:	38cba2        	addi	a10, a11, 56
     a47:	ff8b           	addi.n	a15, a15, 8
     a49:	58cbb2        	addi	a11, a11, 88
     a4c:	c79752        	l16si	a5, a7, 0x18e
     a4f:	c89762        	l16si	a6, a7, 0x190
     a52:	085362        	s16i	a6, a3, 16
     a55:	075352        	s16i	a5, a3, 14
     a58:	160c           	movi.n	a6, 1
     a5a:	04d352        	addmi	a5, a3, 0x400
     a5d:	f26af2        	s32i	a15, a10, 0x3c8
     a60:	a8c5d2        	addi	a13, a5, -88
     a63:	50c5e2        	addi	a14, a5, 80
     a66:	f46a92        	s32i	a9, a10, 0x3d0
     a69:	f56ac2        	s32i	a12, a10, 0x3d4
     a6c:	0b9d           	mov.n	a9, a11
     a6e:	8c2c           	movi.n	a12, 40
     a70:	f76ae2        	s32i	a14, a10, 0x3dc
     a73:	f66ad2        	s32i	a13, a10, 0x3d8
     a76:	956382        	s32i	a8, a3, 0x254
     a79:	556382        	s32i	a8, a3, 0x154
     a7c:	fd8ca1        	l32r	a10, ac (7fffffff <_end+0x7fff0a9f>)
     a7f:	8c5562        	s16i	a6, a5, 0x118
     a82:	68c552        	addi	a5, a5, 104
     a85:	02ac76        	loopgtz	a12, a8b <PD_INIT+0x8b>
     a88:	09e9a4        	ae_s32ip	a10, a9, 4

00000a8b <PD_INIT+0x8b>:
     a8b:	3c0c           	movi.n	a12, 3
     a8d:	fd8d81        	l32r	a8, c4 (c738 <xt_memcpy>)
     a90:	779792        	l16si	a9, a7, 238
     a93:	7697d2        	l16si	a13, a7, 236
     a96:	060c           	movi.n	a6, 0
     a98:	04f8           	l32i.n	a15, a4, 0
     a9a:	2765b2        	s32i	a11, a5, 156
     a9d:	06d3a2        	addmi	a10, a3, 0x600
     aa0:	d0caa2        	addi	a10, a10, -48
     aa3:	01d7b2        	addmi	a11, a7, 0x100
     aa6:	f2cbb2        	addi	a11, a11, -14
     aa9:	29dfe2        	addmi	a14, a15, 0x2900
     aac:	ee8b           	addi.n	a14, a14, 8
     aae:	19dff2        	addmi	a15, a15, 0x1900
     ab1:	b75f62        	s16i	a6, a15, 0x16e
     ab4:	686f22        	s32i	a2, a15, 0x1a0
     ab7:	696fe2        	s32i	a14, a15, 0x1a4
     aba:	b055d2        	s16i	a13, a5, 0x160
     abd:	b15592        	s16i	a9, a5, 0x162
     ac0:	0008e0        	callx8	a8
     ac3:	0cd282        	addmi	a8, a2, 0xc00
     ac6:	08d292        	addmi	a9, a2, 0x800
     ac9:	566592        	s32i	a9, a5, 0x158
     acc:	b8c882        	addi	a8, a8, -72
     acf:	556582        	s32i	a8, a5, 0x154
     ad2:	f01d           	retw.n

00000ad4 <wind_noise_alpha>:
     ad4:	004136        	entry	a1, 32
     ad7:	fd7881        	l32r	a8, b8 (8000 <two_mic_WB_NR_NSN_proc+0x134>)
     ada:	949d           	ae_zext16	a9, a4
     adc:	957d           	ae_zext16	a7, a5
     ade:	827670        	mull	a7, a6, a7
     ae1:	829690        	mull	a9, a6, a9
     ae4:	f47e70        	extui	a7, a7, 14, 16
     ae7:	f49e90        	extui	a9, a9, 14, 16
     aea:	c0a890        	sub	a10, a8, a9
     aed:	11aa00        	slli	a10, a10, 16
     af0:	c08870        	sub	a8, a8, a7
     af3:	118800        	slli	a8, a8, 16
     af6:	59aa           	add.n	a5, a9, a10
     af8:	678a           	add.n	a6, a7, a8
     afa:	982c           	movi.n	a8, 41
     afc:	0c13a6        	blti	a3, 1, b0c <wind_noise_alpha+0x38>
     aff:	024d           	mov.n	a4, a2
     b01:	02a376        	loopgtz	a3, b07 <wind_noise_alpha+0x33>
     b04:	09e454        	ae_s32ip	a5, a4, 4

00000b07 <wind_noise_alpha+0x33>:
     b07:	0000c6        	j	b0e <wind_noise_alpha+0x3a>

00000b0a <wind_noise_alpha+0x36>:
	...

00000b0c <wind_noise_alpha+0x38>:
     b0c:	030c           	movi.n	a3, 0

00000b0e <wind_noise_alpha+0x3a>:
     b0e:	0d2837        	blt	a8, a3, b1f <wind_noise_alpha+0x4b>
     b11:	a04320        	addx4	a4, a3, a2
     b14:	a92c           	movi.n	a9, 42
     b16:	c09930        	sub	a9, a9, a3
     b19:	02a976        	loopgtz	a9, b1f <wind_noise_alpha+0x4b>
     b1c:	09e464        	ae_s32ip	a6, a4, 4

00000b1f <wind_noise_alpha+0x4b>:
     b1f:	f01d           	retw.n

00000b21 <wind_noise_alpha+0x4d>:
     b21:	000000                                        ...

00000b24 <PD_Noise_Est>:
     b24:	00a136        	entry	a1, 80
     b27:	9129           	s32i.n	a2, a1, 36
     b29:	380c           	movi.n	a8, 3
     b2b:	fd5cb1        	l32r	a11, 9c (f554 <p_ecnr_mem>)
     b2e:	11d272        	addmi	a7, a2, 0x1100
     b31:	462792        	l32i	a9, a7, 0x118
     b34:	2cc772        	addi	a7, a7, 44
     b37:	0ba8           	l32i.n	a10, a11, 0
     b39:	10c992        	addi	a9, a9, 16
     b3c:	601914        	ae_lq32f.iu	aeq0, a9, 4
     b3f:	605914        	ae_lq32f.iu	aeq1, a9, 4
     b42:	55da62        	addmi	a6, a10, 0x5500
     b45:	f0c662        	addi	a6, a6, -16
     b48:	04a876        	loopgtz	a8, b50 <PD_Noise_Est+0x2c>
     b4b:	f8663d391f 	{ ae_lq32f.iu	aeq1, a9, 4; ae_addq56	aeq0, aeq0, aeq1 }

00000b50 <PD_Noise_Est+0x2c>:
     b50:	04d632        	addmi	a3, a6, 0x400
     b53:	3580b4        	ae_sraiq56	aeq2, aeq0, 2
     b56:	5bdaa2        	addmi	a10, a10, 0x5b00
     b59:	06d692        	addmi	a9, a6, 0x600
     b5c:	d8c992        	addi	a9, a9, -40
     b5f:	cccaa2        	addi	a10, a10, -52
     b62:	622a04        	ae_sq32f.i	aeq2, a10, 0
     b65:	604904        	ae_lq32f.i	aeq1, a9, 0
     b68:	f9ea00002f 	{ movi	a2, 0; ae_addq56	aeq1, aeq1, aeq2 }
     b6d:	355074        	ae_sraiq56	aeq1, aeq1, 1
     b70:	621904        	ae_sq32f.i	aeq1, a9, 0
     b73:	a6a8           	l32i.n	a10, a6, 40
     b75:	e65322        	s16i	a2, a3, 0x1cc
     b78:	e79392        	l16si	a9, a3, 0x1ce
     b7b:	171aa6        	blti	a10, 1, b96 <PD_Noise_Est+0x72>
     b7e:	7123c2        	l32i	a12, a3, 0x1c4
     b81:	0e2ca6        	blti	a12, 2, b93 <PD_Noise_Est+0x6f>
     b84:	e593a2        	l16si	a10, a3, 0x1ca
     b87:	f0c992        	addi	a9, a9, -16
     b8a:	11aaf0        	slli	a10, a10, 1
     b8d:	4399a0        	min	a9, a9, a10
     b90:	000686        	j	bae <PD_Noise_Est+0x8a>

00000b93 <PD_Noise_Est+0x6f>:
     b93:	081ae6        	bgei	a10, 1, b9f <PD_Noise_Est+0x7b>

00000b96 <PD_Noise_Est+0x72>:
     b96:	7123c2        	l32i	a12, a3, 0x1c4
     b99:	021ce6        	bgei	a12, 1, b9f <PD_Noise_Est+0x7b>
     b9c:	010bc6        	j	fcf <PD_Noise_Est+0x4ab>

00000b9f <PD_Noise_Est+0x7b>:
     b9f:	7723d2        	l32i	a13, a3, 0x1dc
     ba2:	051de6        	bgei	a13, 1, bab <PD_Noise_Est+0x87>
     ba5:	fec992        	addi	a9, a9, -2
     ba8:	000086        	j	bae <PD_Noise_Est+0x8a>

00000bab <PD_Noise_Est+0x87>:
     bab:	f8c992        	addi	a9, a9, -8

00000bae <PD_Noise_Est+0x8a>:
     bae:	fe3c           	movi.n	a14, 63
     bb0:	53d920        	max	a13, a9, a2
     bb3:	0bc8           	l32i.n	a12, a11, 0
     bb5:	43dde0        	min	a13, a13, a14
     bb8:	e753d2        	s16i	a13, a3, 0x1ce
     bbb:	19dcc2        	addmi	a12, a12, 0x1900
     bbe:	b49ce2        	l16si	a14, a12, 0x168
     bc1:	6cccb2        	addi	a11, a12, 108
     bc4:	b79cc2        	l16si	a12, a12, 0x16e
     bc7:	004ed6        	bgez	a14, bcf <PD_Noise_Est+0xab>
     bca:	0c0c           	movi.n	a12, 0
     bcc:	000606        	j	be8 <PD_Noise_Est+0xc4>

00000bcf <PD_Noise_Est+0xab>:
     bcf:	a6f8           	l32i.n	a15, a6, 40
     bd1:	021fe6        	bgei	a15, 1, bd7 <PD_Noise_Est+0xb3>
     bd4:	00c646        	j	ef1 <PD_Noise_Est+0x3cd>
     bd7:	91d8           	l32i.n	a13, a1, 36
     bd9:	149da2        	l16si	a10, a13, 40
     bdc:	139dd2        	l16si	a13, a13, 38
     bdf:	022da7        	blt	a13, a10, be5 <PD_Noise_Est+0xc1>
     be2:	00a546        	j	e7b <PD_Noise_Est+0x357>
     be5:	d8ccc2        	addi	a12, a12, -40

00000be8 <PD_Noise_Est+0xc4>:
     be8:	ffa0d2        	movi	a13, 255
     beb:	53cc20        	max	a12, a12, a2
     bee:	a6e8           	l32i.n	a14, a6, 40
     bf0:	43ccd0        	min	a12, a12, a13
     bf3:	815bc2        	s16i	a12, a11, 0x102
     bf6:	021ee6        	bgei	a14, 1, bfc <PD_Noise_Est+0xd8>
     bf9:	00a986        	j	ea3 <PD_Noise_Est+0x37f>
     bfc:	91e8           	l32i.n	a14, a1, 36
     bfe:	149ef2        	l16si	a15, a14, 40
     c01:	139ee2        	l16si	a14, a14, 38
     c04:	5169           	s32i.n	a6, a1, 20
     c06:	b179           	s32i.n	a7, a1, 44
     c08:	022ef7        	blt	a14, a15, c0e <PD_Noise_Est+0xea>
     c0b:	005546        	j	d64 <PD_Noise_Est+0x240>
     c0e:	3f0c           	movi.n	a15, 3
     c10:	092192        	l32i	a9, a1, 36
     c13:	05a0a2        	movi	a10, 5
     c16:	e653a2        	s16i	a10, a3, 0x1cc
     c19:	01d992        	addmi	a9, a9, 0x100
     c1c:	78c992        	addi	a9, a9, 120
     c1f:	601914        	ae_lq32f.iu	aeq0, a9, 4
     c22:	605914        	ae_lq32f.iu	aeq1, a9, 4
     c25:	04af76        	loopgtz	a15, c2d <PD_Noise_Est+0x109>
     c28:	f8663d391f 	{ ae_lq32f.iu	aeq1, a9, 4; ae_addq56	aeq0, aeq0, aeq1 }

00000c2d <PD_Noise_Est+0x109>:
     c2d:	35c0b4        	ae_sraiq56	aeq3, aeq0, 2
     c30:	fd27b1        	l32r	a11, cc (dacccccd <_end+0xdacbd76d>)
     c33:	364b34        	ae_cvtq48a32s	aeq1, a11
     c36:	099704        	ae_leq56s	b0, aeq3, aeq1
     c39:	080076        	bf	b0, c45 <PD_Noise_Est+0x121>
     c3c:	050c           	movi.n	a5, 0
     c3e:	040c           	movi.n	a4, 0
     c40:	5169           	s32i.n	a6, a1, 20
     c42:	000706        	j	c62 <PD_Noise_Est+0x13e>

00000c45 <PD_Noise_Est+0x121>:
     c45:	fd2281        	l32r	a8, d0 (9f0 <COMPL_S16x2_fun>)
     c48:	e493a2        	l16si	a10, a3, 0x1c8
     c4b:	0008e0        	callx8	a8
     c4e:	e493b2        	l16si	a11, a3, 0x1c8
     c51:	0a4d           	mov.n	a4, a10
     c53:	fd1f81        	l32r	a8, d0 (9f0 <COMPL_S16x2_fun>)
     c56:	ab2b           	addi.n	a10, a11, 2
     c58:	21a2a0        	srai	a10, a10, 2
     c5b:	0008e0        	callx8	a8
     c5e:	0a5d           	mov.n	a5, a10
     c60:	5169           	s32i.n	a6, a1, 20

00000c62 <PD_Noise_Est+0x13e>:
     c62:	5168           	l32i.n	a6, a1, 20
     c64:	a668           	l32i.n	a6, a6, 40
     c66:	fd1b81        	l32r	a8, d4 (c788 <__floatsidf>)
     c69:	fd1ba1        	l32r	a10, d8 (fc000000 <_end+0xfbff0aa0>)
     c6c:	662b           	addi.n	a6, a6, 2
     c6e:	216260        	srai	a6, a6, 2
     c71:	a6aa           	add.n	a10, a6, a10
     c73:	71a9           	s32i.n	a10, a1, 28
     c75:	61a9           	s32i.n	a10, a1, 24
     c77:	0008e0        	callx8	a8
     c7a:	fd1981        	l32r	a8, e0 (c68c <__ltdf2>)
     c7d:	fd17d1        	l32r	a13, dc (c1600000 <_end+0xc15f0aa0>)
     c80:	0c0c           	movi.n	a12, 0
     c82:	0008e0        	callx8	a8
     c85:	7198           	l32i.n	a9, a1, 28
     c87:	61f8           	l32i.n	a15, a1, 24
     c89:	996a           	add.n	a9, a9, a6
     c8b:	a3f9a0        	movltz	a15, a9, a10
     c8e:	fd15a1        	l32r	a10, e4 (b33333 <_end+0xb23dd3>)
     c91:	fd15c1        	l32r	a12, e8 (ff4ccccd <_end+0xff4bd76d>)
     c94:	292fa7        	blt	a15, a10, cc1 <PD_Noise_Est+0x19d>
     c97:	0a0c           	movi.n	a10, 0
     c99:	6f23d2        	l32i	a13, a3, 0x1bc
     c9c:	7023e2        	l32i	a14, a3, 0x1c0
     c9f:	bfca           	add.n	a11, a15, a12
     ca1:	81b9           	s32i.n	a11, a1, 32
     ca3:	0b0c           	movi.n	a11, 0

00000ca5 <PD_Noise_Est+0x181>:
     ca5:	caea           	add.n	a12, a10, a14
     ca7:	8daa           	add.n	a8, a13, a10
     ca9:	0849           	s32i.n	a4, a8, 0
     cab:	0c98           	l32i.n	a9, a12, 0
     cad:	bb1b           	addi.n	a11, a11, 1
     caf:	1199f0        	slli	a9, a9, 1
     cb2:	0c99           	s32i.n	a9, a12, 0
     cb4:	81c8           	l32i.n	a12, a1, 32
     cb6:	aa4b           	addi.n	a10, a10, 4
     cb8:	018b80        	slli	a8, a11, 24
     cbb:	e6ac87        	bge	a12, a8, ca5 <PD_Noise_Est+0x181>
     cbe:	000046        	j	cc3 <PD_Noise_Est+0x19f>

00000cc1 <PD_Noise_Est+0x19d>:
     cc1:	0b0c           	movi.n	a11, 0

00000cc3 <PD_Noise_Est+0x19f>:
     cc3:	b179           	s32i.n	a7, a1, 44
     cc5:	fcf7e1        	l32r	a14, a4 (efc0 <wb_sb_ptn>)
     cc8:	51a8           	l32i.n	a10, a1, 20
     cca:	6f23d2        	l32i	a13, a3, 0x1bc
     ccd:	e693c2        	l16si	a12, a3, 0x1cc
     cd0:	059aa2        	l16si	a10, a10, 10
     cd3:	a0dbd0        	addx4	a13, a11, a13
     cd6:	90cce0        	addx2	a12, a12, a14
     cd9:	2ccd           	ae_l16si.n	a12, a12, 0
     cdb:	0d59           	s32i.n	a5, a13, 0
     cdd:	11aae0        	slli	a10, a10, 2
     ce0:	bc2b           	addi.n	a11, a12, 2
     ce2:	01bb80        	slli	a11, a11, 24
     ce5:	7b2bf7        	blt	a11, a15, d64 <PD_Noise_Est+0x240>
     ce8:	41a9           	s32i.n	a10, a1, 16
     cea:	fcfe21        	l32r	a2, e4 (b33333 <_end+0xb23dd3>)
     ced:	fcffc1        	l32r	a12, ec (800000 <_end+0x7f0aa0>)
     cf0:	fcfed1        	l32r	a13, e8 (ff4ccccd <_end+0xff4bd76d>)
     cf3:	2f2a           	add.n	a2, a15, a2
     cf5:	7fca           	add.n	a7, a15, a12
     cf7:	dfda           	add.n	a13, a15, a13
     cf9:	cbca           	add.n	a12, a11, a12
     cfb:	a1c9           	s32i.n	a12, a1, 40
     cfd:	0b0c           	movi.n	a11, 0

00000cff <PD_Noise_Est+0x1db>:
     cff:	4198           	l32i.n	a9, a1, 16
     d01:	7023a2        	l32i	a10, a3, 0x1c0
     d04:	6f23e2        	l32i	a14, a3, 0x1bc
     d07:	31f870        	srai	a15, a7, 24
     d0a:	a0afa0        	addx4	a10, a15, a10
     d0d:	a0cfe0        	addx4	a12, a15, a14
     d10:	0cb9           	s32i.n	a11, a12, 0
     d12:	0a99           	s32i.n	a9, a10, 0
     d14:	cf1b           	addi.n	a12, a15, 1
     d16:	0cbd           	mov.n	a11, a12
     d18:	018c80        	slli	a8, a12, 24
     d1b:	11ace0        	slli	a10, a12, 2
     d1e:	08a827        	bge	a8, a2, d2a <PD_Noise_Est+0x206>
     d21:	bf2b           	addi.n	a11, a15, 2
     d23:	aa4b           	addi.n	a10, a10, 4
     d25:	a08ce0        	addx4	a8, a12, a14
     d28:	0859           	s32i.n	a5, a8, 0

00000d2a <PD_Noise_Est+0x206>:
     d2a:	776a           	add.n	a7, a7, a6
     d2c:	226a           	add.n	a2, a2, a6
     d2e:	019b80        	slli	a9, a11, 24
     d31:	dd6a           	add.n	a13, a13, a6
     d33:	1f2d97        	blt	a13, a9, d56 <PD_Noise_Est+0x232>
     d36:	6f23f2        	l32i	a15, a3, 0x1bc
     d39:	7023e2        	l32i	a14, a3, 0x1c0

00000d3c <PD_Noise_Est+0x218>:
     d3c:	bb1b           	addi.n	a11, a11, 1
     d3e:	cfaa           	add.n	a12, a15, a10
     d40:	9aea           	add.n	a9, a10, a14
     d42:	0c49           	s32i.n	a4, a12, 0
     d44:	0988           	l32i.n	a8, a9, 0
     d46:	aa4b           	addi.n	a10, a10, 4
     d48:	01cb80        	slli	a12, a11, 24
     d4b:	1188f0        	slli	a8, a8, 1
     d4e:	0989           	s32i.n	a8, a9, 0
     d50:	e8adc7        	bge	a13, a12, d3c <PD_Noise_Est+0x218>
     d53:	11abe0        	slli	a10, a11, 2

00000d56 <PD_Noise_Est+0x232>:
     d56:	6f23f2        	l32i	a15, a3, 0x1bc
     d59:	0b0c           	movi.n	a11, 0
     d5b:	a1e8           	l32i.n	a14, a1, 40
     d5d:	ffaa           	add.n	a15, a15, a10
     d5f:	0f59           	s32i.n	a5, a15, 0
     d61:	9aae77        	bge	a14, a7, cff <PD_Noise_Est+0x1db>

00000d64 <PD_Noise_Est+0x240>:
     d64:	91a8           	l32i.n	a10, a1, 36
     d66:	b178           	l32i.n	a7, a1, 44
     d68:	020c           	movi.n	a2, 0
     d6a:	171aa2        	l16ui	a10, a10, 46
     d6d:	5168           	l32i.n	a6, a1, 20
     d6f:	481c           	movi.n	a8, 20
     d71:	6b38a7        	bltu	a8, a10, de0 <PD_Noise_Est+0x2bc>
     d74:	027ab6        	bltui	a10, 7, d7a <PD_Noise_Est+0x256>
     d77:	004246        	j	e84 <PD_Noise_Est+0x360>
     d7a:	91a8           	l32i.n	a10, a1, 36
     d7c:	09daa2        	addmi	a10, a10, 0x900
     d7f:	18caa2        	addi	a10, a10, 24
     d82:	0001c6        	j	d8d <PD_Noise_Est+0x269>

00000d85 <PD_Noise_Est+0x261>:
     d85:	91a8           	l32i.n	a10, a1, 36
     d87:	09daa2        	addmi	a10, a10, 0x900
     d8a:	20caa2        	addi	a10, a10, 32

00000d8d <PD_Noise_Est+0x269>:
     d8d:	e693b2        	l16si	a11, a3, 0x1cc
     d90:	2add           	ae_l16si.n	a13, a10, 0
     d92:	8c0c           	movi.n	a12, 8
     d94:	482cb7        	blt	a12, a11, de0 <PD_Noise_Est+0x2bc>
     d97:	11ebe0        	slli	a14, a11, 2
     d9a:	fcc2f1        	l32r	a15, a4 (efc0 <wb_sb_ptn>)
     d9d:	fcc6c1        	l32r	a12, b8 (8000 <two_mic_WB_NR_NSN_proc+0x134>)
     da0:	442c           	movi.n	a4, 36
     da2:	90fbf0        	addx2	a15, a11, a15

00000da5 <PD_Noise_Est+0x281>:
     da5:	3b2782        	l32i	a8, a7, 236
     da8:	88ea           	add.n	a8, a8, a14
     daa:	0888           	l32i.n	a8, a8, 0
     dac:	ee4b           	addi.n	a14, a14, 4
     dae:	2918e6        	bgei	a8, 1, ddb <PD_Noise_Est+0x2b7>
     db1:	2f5d           	ae_l16si.n	a5, a15, 0
     db3:	3fad           	ae_l16si.n	a10, a15, 2
     db5:	180c           	movi.n	a8, 1
     db7:	1195e0        	slli	a9, a5, 2
     dba:	1da5a7        	bge	a5, a10, ddb <PD_Noise_Est+0x2b7>
     dbd:	c0ba50        	sub	a11, a10, a5
     dc0:	6f23a2        	l32i	a10, a3, 0x1bc
     dc3:	53bb80        	max	a11, a11, a8
     dc6:	11ab76        	loopgtz	a11, ddb <PD_Noise_Est+0x2b7>
     dc9:	59aa           	add.n	a5, a9, a10
     dcb:	45bd           	ae_l16ui.n	a11, a5, 0
     dcd:	994b           	addi.n	a9, a9, 4
     dcf:	bdba           	add.n	a11, a13, a11
     dd1:	c08cb0        	sub	a8, a12, a11
     dd4:	118800        	slli	a8, a8, 16
     dd7:	bb8a           	add.n	a11, a11, a8
     dd9:	05b9           	s32i.n	a11, a5, 0
     ddb:	ff2b           	addi.n	a15, a15, 2
     ddd:	c49e47        	bne	a14, a4, da5 <PD_Noise_Est+0x281>
     de0:	1996a2        	l16si	a10, a6, 50
     de3:	012a96        	bltz	a10, df9 <PD_Noise_Est+0x2d5>
     de6:	91c8           	l32i.n	a12, a1, 36
     de8:	021cc2        	l16ui	a12, a12, 4
     deb:	90ccc0        	addx2	a12, a12, a12
     dee:	11cce0        	slli	a12, a12, 2
     df1:	04aac7        	bge	a10, a12, df9 <PD_Noise_Est+0x2d5>
     df4:	ba1b           	addi.n	a11, a10, 1
     df6:	000046        	j	dfb <PD_Noise_Est+0x2d7>

00000df9 <PD_Noise_Est+0x2d5>:
     df9:	fb7c           	movi.n	a11, -1

00000dfb <PD_Noise_Est+0x2d7>:
     dfb:	a6a8           	l32i.n	a10, a6, 40
     dfd:	1956b2        	s16i	a11, a6, 50
     e00:	9a8c           	beqz.n	a10, e0d <PD_Noise_Est+0x2e9>
     e02:	7623d2        	l32i	a13, a3, 0x1d8
     e05:	03cdd6        	bgez	a13, e45 <PD_Noise_Est+0x321>
     e08:	1a96e2        	l16si	a14, a6, 52
     e0b:	6efc           	bnez.n	a14, e45 <PD_Noise_Est+0x321>

00000e0d <PD_Noise_Est+0x2e9>:
     e0d:	7123f2        	l32i	a15, a3, 0x1c4
     e10:	312fe6        	bgei	a15, 2, e45 <PD_Noise_Est+0x321>
     e13:	e79392        	l16si	a9, a3, 0x1ce
     e16:	e59382        	l16si	a8, a3, 0x1ca
     e19:	28a897        	bge	a8, a9, e45 <PD_Noise_Est+0x321>
     e1c:	11bbd6        	bgez	a11, f3b <PD_Noise_Est+0x417>
     e1f:	91b8           	l32i.n	a11, a1, 36
     e21:	7723a2        	l32i	a10, a3, 0x1dc
     e24:	0796c2        	l16si	a12, a6, 14
     e27:	0b9be2        	l16si	a14, a11, 22
     e2a:	0a9bd2        	l16si	a13, a11, 20
     e2d:	0c9bb2        	l16si	a11, a11, 24
     e30:	fcb081        	l32r	a8, f0 (b694 <cal_wind_score>)
     e33:	ddea           	add.n	a13, a13, a14
     e35:	bbda           	add.n	a11, a11, a13
     e37:	8bbd           	ae_sext16	a11, a11
     e39:	61bd           	ae_s16i.n	a11, a1, 0
     e3b:	0008e0        	callx8	a8
     e3e:	0aed           	mov.n	a14, a10
     e40:	a6a8           	l32i.n	a10, a6, 40
     e42:	003e06        	j	f3e <PD_Noise_Est+0x41a>

00000e45 <PD_Noise_Est+0x321>:
     e45:	fcabb1        	l32r	a11, f4 (7fff0000 <_end+0x7ffe0aa0>)

00000e48 <PD_Noise_Est+0x324>:
     e48:	c18b           	addi.n	a12, a1, 8
     e4a:	fcad81        	l32r	a8, 100 (5c28 <siir_safr>)
     e4d:	fcaaa1        	l32r	a10, f8 (7e1401ec <_end+0x7e130c8c>)
     e50:	fcab91        	l32r	a9, fc (7fe70019 <_end+0x7fe60ab9>)
     e53:	2199           	s32i.n	a9, a1, 8
     e55:	31a9           	s32i.n	a10, a1, 12
     e57:	4227a2        	l32i	a10, a7, 0x108
     e5a:	0008e0        	callx8	a8
     e5d:	4267a2        	s32i	a10, a7, 0x108
     e60:	1a96c2        	l16si	a12, a6, 52
     e63:	a6d8           	l32i.n	a13, a6, 40
     e65:	3e0c           	movi.n	a14, 3
     e67:	bc0b           	addi.n	a11, a12, -1
     e69:	53bb20        	max	a11, a11, a2
     e6c:	cc1b           	addi.n	a12, a12, 1
     e6e:	020c           	movi.n	a2, 0
     e70:	43cce0        	min	a12, a12, a14
     e73:	93bcd0        	movnez	a11, a12, a13
     e76:	1a56b2        	s16i	a11, a6, 52
     e79:	f01d           	retw.n

00000e7b <PD_Noise_Est+0x357>:
     e7b:	169da7        	bne	a13, a10, e95 <PD_Noise_Est+0x371>
     e7e:	faccc2        	addi	a12, a12, -6
     e81:	ff58c6        	j	be8 <PD_Noise_Est+0xc4>

00000e84 <PD_Noise_Est+0x360>:
     e84:	02bab6        	bltui	a10, 16, e8a <PD_Noise_Est+0x366>
     e87:	ffbe86        	j	d85 <PD_Noise_Est+0x261>
     e8a:	91a8           	l32i.n	a10, a1, 36
     e8c:	09daa2        	addmi	a10, a10, 0x900
     e8f:	1ccaa2        	addi	a10, a10, 28
     e92:	ffbdc6        	j	d8d <PD_Noise_Est+0x269>

00000e95 <PD_Noise_Est+0x371>:
     e95:	ed0b           	addi.n	a14, a13, -1
     e97:	c0eae0        	sub	a14, a10, a14
     e9a:	d4ae56        	bnez	a14, be8 <PD_Noise_Est+0xc4>
     e9d:	feccc2        	addi	a12, a12, -2
     ea0:	ff5106        	j	be8 <PD_Noise_Est+0xc4>

00000ea3 <PD_Noise_Est+0x37f>:
     ea3:	0696f2        	l16si	a15, a6, 12
     ea6:	5169           	s32i.n	a6, a1, 20
     ea8:	b179           	s32i.n	a7, a1, 44
     eaa:	02acf7        	bge	a12, a15, eb0 <PD_Noise_Est+0x38c>
     ead:	ffacc6        	j	d64 <PD_Noise_Est+0x240>
     eb0:	7023a2        	l32i	a10, a3, 0x1c0
     eb3:	400644        	ae_lp16f.i	aep0, a6, 8
     eb6:	4c1a04        	ae_lp24.i	aep1, a10, 0
     eb9:	028174        	ae_mulp24s.ll	aeq2, aep0, aep1
     ebc:	36ab04        	ae_trunca32q48	a11, aeq2
     ebf:	090c           	movi.n	a9, 0
     ec1:	eea082        	movi	a8, 238
     ec4:	bb2b           	addi.n	a11, a11, 2
     ec6:	21b2b0        	srai	a11, a11, 2
     ec9:	05a876        	loopgtz	a8, ed2 <PD_Noise_Est+0x3ae>
     ecc:	da9a           	add.n	a13, a10, a9
     ece:	0db9           	s32i.n	a11, a13, 0
     ed0:	994b           	addi.n	a9, a9, 4

00000ed2 <PD_Noise_Est+0x3ae>:
     ed2:	0396e2        	l16si	a14, a6, 6
     ed5:	5169           	s32i.n	a6, a1, 20
     ed7:	b179           	s32i.n	a7, a1, 44
     ed9:	02ace7        	bge	a12, a14, edf <PD_Noise_Est+0x3bb>
     edc:	ffa106        	j	d64 <PD_Noise_Est+0x240>
     edf:	7123f2        	l32i	a15, a3, 0x1c4
     ee2:	332fe6        	bgei	a15, 2, f19 <PD_Noise_Est+0x3f5>
     ee5:	fc7a81        	l32r	a8, d0 (9f0 <COMPL_S16x2_fun>)
     ee8:	ea93a2        	l16si	a10, a3, 0x1d4
     eeb:	0008e0        	callx8	a8
     eee:	000c06        	j	f22 <PD_Noise_Est+0x3fe>

00000ef1 <PD_Noise_Est+0x3cd>:
     ef1:	712392        	l32i	a9, a3, 0x1c4
     ef4:	0229a6        	blti	a9, 2, efa <PD_Noise_Est+0x3d6>
     ef7:	ff3b46        	j	be8 <PD_Noise_Est+0xc4>
     efa:	fc82e1        	l32r	a14, 104 (efa0 <wb_score_bands>)
     efd:	91a8           	l32i.n	a10, a1, 36
     eff:	099ed2        	l16si	a13, a14, 18
     f02:	3efd           	ae_l16si.n	a15, a14, 2
     f04:	029ee2        	l16si	a14, a14, 4
     f07:	171aa2        	l16ui	a10, a10, 46
     f0a:	ffda           	add.n	a15, a15, a13
     f0c:	eefa           	add.n	a14, a14, a15
     f0e:	02aae7        	bge	a10, a14, f14 <PD_Noise_Est+0x3f0>
     f11:	003986        	j	ffb <PD_Noise_Est+0x4d7>
     f14:	cc2b           	addi.n	a12, a12, 2
     f16:	ff3386        	j	be8 <PD_Noise_Est+0xc4>

00000f19 <PD_Noise_Est+0x3f5>:
     f19:	fc6d81        	l32r	a8, d0 (9f0 <COMPL_S16x2_fun>)
     f1c:	e993a2        	l16si	a10, a3, 0x1d2
     f1f:	0008e0        	callx8	a8

00000f22 <PD_Noise_Est+0x3fe>:
     f22:	090c           	movi.n	a9, 0
     f24:	6f23b2        	l32i	a11, a3, 0x1bc
     f27:	eea0c2        	movi	a12, 238
     f2a:	05ac76        	loopgtz	a12, f33 <PD_Noise_Est+0x40f>
     f2d:	db9a           	add.n	a13, a11, a9
     f2f:	0da9           	s32i.n	a10, a13, 0
     f31:	994b           	addi.n	a9, a9, 4

00000f33 <PD_Noise_Est+0x40f>:
     f33:	5169           	s32i.n	a6, a1, 20
     f35:	b179           	s32i.n	a7, a1, 44
     f37:	ff8a46        	j	d64 <PD_Noise_Est+0x240>

00000f3a <PD_Noise_Est+0x416>:
	...

00000f3b <PD_Noise_Est+0x417>:
     f3b:	fc73e1        	l32r	a14, 108 (4000 <Voice_WB_TX_Prcs+0x374>)

00000f3e <PD_Noise_Est+0x41a>:
     f3e:	40def2        	addmi	a15, a14, 0x4000
     f41:	ff0b           	addi.n	a15, a15, -1
     f43:	61fd           	ae_s16i.n	a15, a1, 0
     f45:	9aec           	bnez.n	a10, f72 <PD_Noise_Est+0x44e>
     f47:	7023c2        	l32i	a12, a3, 0x1c0
     f4a:	400104        	ae_lp16f.i	aep0, a1, 0
     f4d:	8697b2        	l16si	a11, a7, 0x10c
     f50:	fccca2        	addi	a10, a12, -4
     f53:	600c04        	ae_lq32f.i	aeq0, a12, 0
     f56:	431ba6        	blti	a11, 1, f9d <PD_Noise_Est+0x479>
     f59:	050c           	movi.n	a5, 0

00000f5b <PD_Noise_Est+0x437>:
     f5b:	038a14        	ae_mulfq32sp16s.l	aeq3, aeq0, aep0
     f5e:	601c14        	ae_lq32f.iu	aeq0, a12, 4
     f61:	35f054        	ae_slliq56	aeq3, aeq3, 1
     f64:	627a14        	ae_sq32f.iu	aeq3, a10, 4
     f67:	8697b2        	l16si	a11, a7, 0x10c
     f6a:	551b           	addi.n	a5, a5, 1
     f6c:	eb25b7        	blt	a5, a11, f5b <PD_Noise_Est+0x437>
     f6f:	000a86        	j	f9d <PD_Noise_Est+0x479>

00000f72 <PD_Noise_Est+0x44e>:
     f72:	090c           	movi.n	a9, 0
     f74:	91c8           	l32i.n	a12, a1, 36
     f76:	7023a2        	l32i	a10, a3, 0x1c0
     f79:	403104        	ae_lp16f.i	aep3, a1, 0
     f7c:	1cccc2        	addi	a12, a12, 28
     f7f:	402c04        	ae_lp16f.i	aep2, a12, 0
     f82:	e868802a8f 	{ movi	a8, 42; ae_mulfp24s.hh	aeq0, aep2, aep3 }
     f87:	b14b           	addi.n	a11, a1, 4
     f89:	3502f4        	ae_sraiq56	aeq0, aeq0, 11
     f8c:	620b04        	ae_sq32f.i	aeq0, a11, 0
     f8f:	11b8           	l32i.n	a11, a1, 4
     f91:	05a876        	loopgtz	a8, f9a <PD_Noise_Est+0x476>
     f94:	da9a           	add.n	a13, a10, a9
     f96:	0db9           	s32i.n	a11, a13, 0
     f98:	994b           	addi.n	a9, a9, 4

00000f9a <PD_Noise_Est+0x476>:
     f9a:	8697b2        	l16si	a11, a7, 0x10c

00000f9d <PD_Noise_Est+0x479>:
     f9d:	6f23a2        	l32i	a10, a3, 0x1bc
     fa0:	fc5b81        	l32r	a8, 10c (5b33 <TWO_MIC_WB_init+0x1c7>)
     fa3:	91d8           	l32i.n	a13, a1, 36
     fa5:	e593c2        	l16si	a12, a3, 0x1ca
     fa8:	e793f2        	l16si	a15, a3, 0x1ce
     fab:	07ddd2        	addmi	a13, a13, 0x700
     fae:	d18c80        	mul16s	a8, a12, a8
     fb1:	11ff30        	slli	a15, a15, 13
     fb4:	28a8f7        	bge	a8, a15, fe0 <PD_Noise_Est+0x4bc>
     fb7:	fc5681        	l32r	a8, 110 (ad4 <wind_noise_alpha>)
     fba:	862dd2        	l32i	a13, a13, 0x218
     fbd:	fc55c1        	l32r	a12, 114 (33334ccd <_end+0x3332576d>)
     fc0:	0008e0        	callx8	a8
     fc3:	e893b2        	l16si	a11, a3, 0x1d0
     fc6:	d1bbb0        	mul16s	a11, a11, a11
     fc9:	11bbf0        	slli	a11, a11, 1
     fcc:	ff9e06        	j	e48 <PD_Noise_Est+0x324>

00000fcf <PD_Noise_Est+0x4ab>:
     fcf:	3b27a2        	l32i	a10, a7, 236
     fd2:	1ac8           	l32i.n	a12, a10, 4
     fd4:	0aa8           	l32i.n	a10, a10, 0
     fd6:	daca           	add.n	a13, a10, a12
     fd8:	451da6        	blti	a13, 1, 1021 <PD_Noise_Est+0x4fd>
     fdb:	992b           	addi.n	a9, a9, 2
     fdd:	fef346        	j	bae <PD_Noise_Est+0x8a>

00000fe0 <PD_Noise_Est+0x4bc>:
     fe0:	118c20        	slli	a8, a12, 14
     fe3:	1ca8f7        	bge	a8, a15, 1003 <PD_Noise_Est+0x4df>
     fe6:	fc4a81        	l32r	a8, 110 (ad4 <wind_noise_alpha>)
     fe9:	862dc2        	l32i	a12, a13, 0x218
     fec:	872dd2        	l32i	a13, a13, 0x21c
     fef:	0008e0        	callx8	a8
     ff2:	e893b2        	l16si	a11, a3, 0x1d0
     ff5:	11bb00        	slli	a11, a11, 16
     ff8:	ff9306        	j	e48 <PD_Noise_Est+0x324>

00000ffb <PD_Noise_Est+0x4d7>:
     ffb:	162ad7        	blt	a10, a13, 1015 <PD_Noise_Est+0x4f1>
     ffe:	cc1b           	addi.n	a12, a12, 1
    1000:	fef906        	j	be8 <PD_Noise_Est+0xc4>

00001003 <PD_Noise_Est+0x4df>:
    1003:	fc4381        	l32r	a8, 110 (ad4 <wind_noise_alpha>)
    1006:	872dc2        	l32i	a12, a13, 0x21c
    1009:	882dd2        	l32i	a13, a13, 0x220
    100c:	0008e0        	callx8	a8
    100f:	fc39b1        	l32r	a11, f4 (7fff0000 <_end+0x7ffe0aa0>)
    1012:	ff8c86        	j	e48 <PD_Noise_Est+0x324>

00001015 <PD_Noise_Est+0x4f1>:
    1015:	e8cc92        	addi	a9, a12, -24
    1018:	feccc2        	addi	a12, a12, -2
    101b:	83c9a0        	moveqz	a12, a9, a10
    101e:	fef186        	j	be8 <PD_Noise_Est+0xc4>

00001021 <PD_Noise_Est+0x4fd>:
    1021:	021ae6        	bgei	a10, 1, 1027 <PD_Noise_Est+0x503>
    1024:	041ca6        	blti	a12, 1, 102c <PD_Noise_Est+0x508>

00001027 <PD_Noise_Est+0x503>:
    1027:	991b           	addi.n	a9, a9, 1
    1029:	fee046        	j	bae <PD_Noise_Est+0x8a>

0000102c <PD_Noise_Est+0x508>:
    102c:	990b           	addi.n	a9, a9, -1
    102e:	fedf06        	j	bae <PD_Noise_Est+0x8a>

00001031 <PD_Noise_Est+0x50d>:
    1031:	000000                                        ...

00001034 <PD_Noise_Gain>:
    1034:	004136        	entry	a1, 32
    1037:	fc1921        	l32r	a2, 9c (f554 <p_ecnr_mem>)
    103a:	0228           	l32i.n	a2, a2, 0
    103c:	5ad222        	addmi	a2, a2, 0x5a00
    103f:	5e9222        	l16si	a2, a2, 188
    1042:	f01d           	retw.n

00001044 <voiced_decision>:
    1044:	00c136        	entry	a1, 96
    1047:	fc1591        	l32r	a9, 9c (f554 <p_ecnr_mem>)
    104a:	0998           	l32i.n	a9, a9, 0
    104c:	0a0c           	movi.n	a10, 0
    104e:	d139           	s32i.n	a3, a1, 52
    1050:	1ad992        	addmi	a9, a9, 0x1a00
    1053:	282992        	l32i	a9, a9, 160
    1056:	782c           	movi.n	a8, 39
    1058:	7199           	s32i.n	a9, a1, 28
    105a:	09cd           	mov.n	a12, a9
    105c:	01d992        	addmi	a9, a9, 0x100
    105f:	ecc972        	addi	a7, a9, -20
    1062:	9cc9b2        	addi	a11, a9, -100
    1065:	91b9           	s32i.n	a11, a1, 36
    1067:	14c992        	addi	a9, a9, 20
    106a:	02a876        	loopgtz	a8, 1070 <voiced_decision+0x2c>
    106d:	09cca4        	ae_s16ip	a10, a12, 2

00001070 <voiced_decision+0x2c>:
    1070:	07cd           	mov.n	a12, a7
    1072:	09dd           	mov.n	a13, a9
    1074:	91e8           	l32i.n	a14, a1, 36
    1076:	14a0b2        	movi	a11, 20
    1079:	08ab76        	loopgtz	a11, 1085 <voiced_decision+0x41>
    107c:	09eea4        	ae_s32ip	a10, a14, 4
    107f:	09cca4        	ae_s16ip	a10, a12, 2
    1082:	09cda4        	ae_s16ip	a10, a13, 2
    1085:	2a62a2        	s32i	a10, a2, 168
    1088:	040c           	movi.n	a4, 0
    108a:	050c           	movi.n	a5, 0
    108c:	6199           	s32i.n	a9, a1, 24
    108e:	01d2d2        	addmi	a13, a2, 0x100
    1091:	160c           	movi.n	a6, 1
    1093:	9522f2        	l32i	a15, a2, 0x254
    1096:	4e3c           	movi.n	a14, 52
    1098:	fc2081        	l32r	a8, 118 (147ae1 <_end+0x138581>)
    109b:	398884        	ae_movpa24x2	aep0, a8, a8
    109e:	60e1e4        	ae_lq32f.x	aeq3, a1, a14
    10a1:	364f34        	ae_cvtq48a32s	aeq1, a15
    10a4:	fb017ed69f 	{ ae_sraaq56	aeq2, aeq1, a6; ae_mulfq32sp24s.h	aeq3, aeq3, aep0 }
    10a9:	f8ea4acdde 	{ addi	a13, a13, -84; ae_addsq56s	aeq0, aeq1, aeq2 }
    10ae:	fbe70027ef 	{ movi	a14, 39; ae_maxq56s	aeq3, aeq3, aeq0 }
    10b3:	623104        	ae_sq32f.i	aeq3, a1, 0

000010b6 <voiced_decision+0x72>:
    10b6:	609d14        	ae_lq32f.iu	aeq2, a13, 4
    10b9:	d6d43eca3f 	{ ae_cvtq48a32s	aeq0, a10; ae_ltq56s	b0, aeq3, aeq2 }
    10be:	5b0c           	movi.n	a11, 5
    10c0:	f4cd92        	addi	a9, a13, -12
    10c3:	1b0076        	bf	b0, 10e2 <voiced_decision+0x9e>
    10c6:	05ab76        	loopgtz	a11, 10cf <voiced_decision+0x8b>
    10c9:	605914        	ae_lq32f.iu	aeq1, a9, 4
    10cc:	0101c4        	ae_maxq56s	aeq0, aeq1, aeq0

000010cf <voiced_decision+0x8b>:
    10cf:	098a14        	ae_eqq56	b1, aeq2, aeq0
    10d2:	7198           	l32i.n	a9, a1, 28
    10d4:	841b           	addi.n	a8, a4, 1
    10d6:	080176        	bf	b1, 10e2 <voiced_decision+0x9e>
    10d9:	909590        	addx2	a9, a5, a9
    10dc:	698d           	ae_s16i.n	a8, a9, 0
    10de:	551b           	addi.n	a5, a5, 1
    10e0:	855d           	ae_sext16	a5, a5
    10e2:	441b           	addi.n	a4, a4, 1
    10e4:	ce94e7        	bne	a4, a14, 10b6 <voiced_decision+0x72>
    10e7:	c50b           	addi.n	a12, a5, -1
    10e9:	8ccd           	ae_sext16	a12, a12
    10eb:	0251c2        	s16i	a12, a1, 4
    10ee:	021ce6        	bgei	a12, 1, 10f4 <voiced_decision+0xb0>
    10f1:	002a06        	j	119d <voiced_decision+0x159>
    10f4:	7138           	l32i.n	a3, a1, 28
    10f6:	040c           	movi.n	a4, 0
    10f8:	050c           	movi.n	a5, 0
    10fa:	fbefd1        	l32r	a13, b8 (8000 <two_mic_WB_NR_NSN_proc+0x134>)
    10fd:	360d34        	ae_cvtq48a32s	aeq0, a13

00001100 <voiced_decision+0xbc>:
    1100:	23bd           	ae_l16si.n	a11, a3, 0
    1102:	33fd           	ae_l16si.n	a15, a3, 2
    1104:	fd0455ffbf 	{ sub	a15, a15, a11; ae_movq56	aeq1, aeq0 }
    1109:	3e1f66        	bnei	a15, 1, 114b <voiced_decision+0x107>
    110c:	332b           	addi.n	a3, a3, 2
    110e:	441b           	addi.n	a4, a4, 1
    1110:	1ba4c7        	bge	a4, a12, 112f <voiced_decision+0xeb>
    1113:	c08c40        	sub	a8, a12, a4
    1116:	10a876        	loopgtz	a8, 112a <voiced_decision+0xe6>
    1119:	23ad           	ae_l16si.n	a10, a3, 0
    111b:	339d           	ae_l16si.n	a9, a3, 2
    111d:	c099a0        	sub	a9, a9, a10
    1120:	0b1966        	bnei	a9, 1, 112f <voiced_decision+0xeb>
    1123:	441b           	addi.n	a4, a4, 1
    1125:	f96a40233e 	{ addi	a3, a3, 2; ae_addsq56s	aeq1, aeq1, aeq0 }

0000112a <voiced_decision+0xe6>:
    112a:	7138           	l32i.n	a3, a1, 28
    112c:	903430        	addx2	a3, a4, a3
    112f:	402304        	ae_lp16f.i	aep2, a3, 0
    1132:	fbfa91        	l32r	a9, 11c (900 <comfort_noise_gen_wb+0xb8>)
    1135:	39b994        	ae_movpa24x2	aep3, a9, a9
    1138:	07a314        	ae_addsp24s	aep1, aep2, aep3
    113b:	0ac984        	ae_cvtq48p24s.h	aeq3, aep1
    113e:	fa5e80818e 	{ addi	a8, a1, 8; ae_subsq56s	aeq2, aeq3, aeq1 }
    1143:	622804        	ae_sq32f.i	aeq2, a8, 0
    1146:	21a8           	l32i.n	a10, a1, 8
    1148:	0006c6        	j	1167 <voiced_decision+0x123>

0000114b <voiced_decision+0x107>:
    114b:	9c0c           	movi.n	a12, 9
    114d:	a0ab20        	addx4	a10, a11, a2
    1150:	fbf481        	l32r	a8, 120 (21ec <Xfrac_num_pd_td32>)
    1153:	01daa2        	addmi	a10, a10, 0x100
    1156:	accaa2        	addi	a10, a10, -84
    1159:	0008e0        	callx8	a8
    115c:	0291c2        	l16si	a12, a1, 4
    115f:	21a9           	s32i.n	a10, a1, 8
    1161:	fbd5d1        	l32r	a13, b8 (8000 <two_mic_WB_NR_NSN_proc+0x134>)
    1164:	360d34        	ae_cvtq48a32s	aeq0, a13

00001167 <voiced_decision+0x123>:
    1167:	332b           	addi.n	a3, a3, 2
    1169:	441b           	addi.n	a4, a4, 1
    116b:	9198           	l32i.n	a9, a1, 36
    116d:	d18b           	addi.n	a13, a1, 8
    116f:	604d04        	ae_lq32f.i	aeq1, a13, 0
    1172:	faeb80c1be 	{ addi	a11, a1, 12; ae_roundsp16q48sym	aep4, aeq1 }
    1177:	a09590        	addx4	a9, a5, a9
    117a:	424b04        	ae_sp16f.l.i	aep4, a11, 0
    117d:	069182        	l16si	a8, a1, 12
    1180:	09a9           	s32i.n	a10, a9, 0
    1182:	909570        	addx2	a9, a5, a7
    1185:	a08820        	addx4	a8, a8, a2
    1188:	222882        	l32i	a8, a8, 136
    118b:	551b           	addi.n	a5, a5, 1
    118d:	855d           	ae_sext16	a5, a5
    118f:	318080        	srai	a8, a8, 16
    1192:	698d           	ae_s16i.n	a8, a9, 0
    1194:	02a4c7        	bge	a4, a12, 119a <voiced_decision+0x156>
    1197:	ffd946        	j	1100 <voiced_decision+0xbc>
    119a:	0000c6        	j	11a1 <voiced_decision+0x15d>

0000119d <voiced_decision+0x159>:
    119d:	040c           	movi.n	a4, 0
    119f:	050c           	movi.n	a5, 0

000011a1 <voiced_decision+0x15d>:
    11a1:	449c47        	bne	a12, a4, 11e9 <voiced_decision+0x1a5>
    11a4:	71a8           	l32i.n	a10, a1, 28
    11a6:	90a4a0        	addx2	a10, a4, a10
    11a9:	2aad           	ae_l16si.n	a10, a10, 0
    11ab:	9c0c           	movi.n	a12, 9
    11ad:	fbdc81        	l32r	a8, 120 (21ec <Xfrac_num_pd_td32>)
    11b0:	0abd           	mov.n	a11, a10
    11b2:	a0aa20        	addx4	a10, a10, a2
    11b5:	01daa2        	addmi	a10, a10, 0x100
    11b8:	accaa2        	addi	a10, a10, -84
    11bb:	0008e0        	callx8	a8
    11be:	90c570        	addx2	a12, a5, a7
    11c1:	91d8           	l32i.n	a13, a1, 36
    11c3:	21a9           	s32i.n	a10, a1, 8
    11c5:	f18b           	addi.n	a15, a1, 8
    11c7:	608f04        	ae_lq32f.i	aeq2, a15, 0
    11ca:	faf3c0c1ee 	{ addi	a14, a1, 12; ae_roundsp16q48sym	aep5, aeq2 }
    11cf:	425e04        	ae_sp16f.l.i	aep5, a14, 0
    11d2:	0691b2        	l16si	a11, a1, 12
    11d5:	a0d5d0        	addx4	a13, a5, a13
    11d8:	0da9           	s32i.n	a10, a13, 0
    11da:	a0bb20        	addx4	a11, a11, a2
    11dd:	222bb2        	l32i	a11, a11, 136
    11e0:	551b           	addi.n	a5, a5, 1
    11e2:	855d           	ae_sext16	a5, a5
    11e4:	31b0b0        	srai	a11, a11, 16
    11e7:	6cbd           	ae_s16i.n	a11, a12, 0

000011e9 <voiced_decision+0x1a5>:
    11e9:	fbcea1        	l32r	a10, 124 (10000 <_end+0xaa0>)
    11ec:	04d232        	addmi	a3, a2, 0x400
    11ef:	1cc332        	addi	a3, a3, 28
    11f2:	0215e6        	bgei	a5, 1, 11f8 <voiced_decision+0x1b4>
    11f5:	007006        	j	13b9 <voiced_decision+0x375>
    11f8:	61d8           	l32i.n	a13, a1, 24
    11fa:	02a576        	loopgtz	a5, 1200 <voiced_decision+0x1bc>
    11fd:	09cd64        	ae_s16ip	a6, a13, 2

00001200 <voiced_decision+0x1bc>:
    1200:	7e9382        	l16si	a8, a3, 252
    1203:	0218e6        	bgei	a8, 1, 1209 <voiced_decision+0x1c5>
    1206:	006706        	j	13a6 <voiced_decision+0x362>
    1209:	91e8           	l32i.n	a14, a1, 36
    120b:	61d8           	l32i.n	a13, a1, 24
    120d:	07cd           	mov.n	a12, a7
    120f:	fbc581        	l32r	a8, 124 (10000 <_end+0xaa0>)
    1212:	10c242        	addi	a4, a2, 16
    1215:	03d2a2        	addmi	a10, a2, 0x300
    1218:	fbc4b1        	l32r	a11, 128 (78000 <_end+0x68aa0>)
    121b:	398bb4        	ae_movpa24x2	aep0, a11, a11
    121e:	70caa2        	addi	a10, a10, 112
    1221:	8149           	s32i.n	a4, a1, 32
    1223:	364834        	ae_cvtq48a32s	aeq1, a8
    1226:	040c           	movi.n	a4, 0

00001228 <voiced_decision+0x1e4>:
    1228:	155516        	beqz	a5, 1381 <voiced_decision+0x33d>
    122b:	152596        	bltz	a5, 1381 <voiced_decision+0x33d>
    122e:	17a576        	loopgtz	a5, 1249 <voiced_decision+0x205>
    1231:	030150        	rsr.lend	a5
    1234:	130050        	wsr.lbeg	a5
    1237:	38c552        	addi	a5, a5, 56
    123a:	01d552        	addmi	a5, a5, 0x100
    123d:	130150        	wsr.lend	a5
    1240:	002000        	isync
    1243:	030250        	rsr.lcount	a5
    1246:	01c552        	addi	a5, a5, 1
    1249:	7e93b2        	l16si	a11, a3, 252
    124c:	600e04        	ae_lq32f.i	aeq0, a14, 0
    124f:	bb0b           	addi.n	a11, a11, -1
    1251:	19a4b7        	bge	a4, a11, 126e <voiced_decision+0x22a>
    1254:	030204        	ae_mulfq32sp16s.h	aeq0, aeq0, aep0
    1257:	0110c4        	ae_maxq56s	aeq0, aeq0, aeq1
    125a:	ff10b00efe 	{ l32i	a15, a14, 0; ae_negq56	aeq3, aeq0 }
    125f:	004b06        	j	138f <voiced_decision+0x34b>

00001262 <voiced_decision+0x21e>:
    1262:	a0a420        	addx4	a10, a4, a2
    1265:	03daa2        	addmi	a10, a10, 0x300
    1268:	70caa2        	addi	a10, a10, 112
    126b:	0001c6        	j	1276 <voiced_decision+0x232>

0000126e <voiced_decision+0x22a>:
    126e:	030204        	ae_mulfq32sp16s.h	aeq0, aeq0, aep0
    1271:	f86b300efe 	{ l32i	a15, a14, 0; ae_maxq56s	aeq0, aeq0, aeq1 }

00001276 <voiced_decision+0x232>:
    1276:	7f2a92        	l32i	a9, a10, 0x1fc
    1279:	c099f0        	sub	a9, a9, a15

0000127c <voiced_decision+0x238>:
    127c:	10c1b2        	addi	a11, a1, 16
    127f:	60f190        	abs	a15, a9
    1282:	41f9           	s32i.n	a15, a1, 16
    1284:	60cb04        	ae_lq32f.i	aeq3, a11, 0
    1287:	d5c4804eee 	{ addi	a14, a14, 4; ae_leq56s	b2, aeq3, aeq0 }
    128c:	8198           	l32i.n	a9, a1, 32
    128e:	fba7b1        	l32r	a11, 12c (2ccccd <_end+0x2bd76d>)
    1291:	021276        	bt	b2, 1297 <voiced_decision+0x253>
    1294:	0038c6        	j	137b <voiced_decision+0x337>
    1297:	407c04        	ae_lp16f.i	aep7, a12, 0
    129a:	42a582        	movi	a8, 0x542
    129d:	401904        	ae_lp16f.i	aep1, a9, 0
    12a0:	909420        	addx2	a9, a4, a2
    12a3:	412984        	ae_lp16f.x	aep2, a9, a8
    12a6:	e844ba015f 	{ ae_sq56s.i	aeq0, a1, 40; ae_mulfp24s.hh	aeq0, aep1, aep2 }
    12ab:	0a8f84        	ae_cvtq48p24s.h	aeq2, aep7
    12ae:	f8e7e26bbf 	{ ae_movpa24x2	aep6, a11, a11; ae_roundsp24q48sym	aep1, aeq0 }
    12b3:	016144        	ae_mulfp24s.hh	aeq0, aep6, aep1
    12b6:	35a074        	ae_sraiq56	aeq2, aeq2, 1
    12b9:	098284        	ae_ltq56s	b8, aeq2, aeq0
    12bc:	fb9df1        	l32r	a15, 130 (466666 <_end+0x457106>)
    12bf:	610154        	ae_lq56.i	aeq0, a1, 40
    12c2:	040876        	bf	b8, 12ca <voiced_decision+0x286>
    12c5:	6d6d           	ae_s16i.n	a6, a13, 0
    12c7:	000806        	j	12eb <voiced_decision+0x2a7>

000012ca <voiced_decision+0x286>:
    12ca:	39bff4        	ae_movpa24x2	aep3, a15, a15
    12cd:	e82cba015f 	{ ae_sq56s.i	aeq0, a1, 40; ae_mulfp24s.hh	aeq0, aep3, aep1 }
    12d2:	04d992        	addmi	a9, a9, 0x400
    12d5:	d6c381c99e 	{ addi	a9, a9, 28; ae_ltq56s	b14, aeq2, aeq0 }
    12da:	7f9992        	l16si	a9, a9, 254
    12dd:	610154        	ae_lq56.i	aeq0, a1, 40
    12e0:	190e76        	bf	b14, 12fd <voiced_decision+0x2b9>
    12e3:	fbc992        	addi	a9, a9, -5

000012e6 <voiced_decision+0x2a2>:
    12e6:	539960        	max	a9, a9, a6

000012e9 <voiced_decision+0x2a5>:
    12e9:	6d9d           	ae_s16i.n	a9, a13, 0
    12eb:	7e9382        	l16si	a8, a3, 252
    12ee:	880b           	addi.n	a8, a8, -1
    12f0:	022487        	blt	a4, a8, 12f6 <voiced_decision+0x2b2>
    12f3:	002186        	j	137d <voiced_decision+0x339>
    12f6:	441b           	addi.n	a4, a4, 1
    12f8:	aa4b           	addi.n	a10, a10, 4
    12fa:	001fc6        	j	137d <voiced_decision+0x339>

000012fd <voiced_decision+0x2b9>:
    12fd:	fb8db1        	l32r	a11, 134 (533333 <_end+0x523dd3>)
    1300:	39cbb4        	ae_movpa24x2	aep4, a11, a11
    1303:	e830ba015f 	{ ae_sq56s.i	aeq0, a1, 40; ae_mulfp24s.hh	aeq0, aep4, aep1 }
    1308:	fb8cf1        	l32r	a15, 138 (5851ec <_end+0x575c8c>)
    130b:	098244        	ae_ltq56s	b4, aeq2, aeq0
    130e:	39dff4        	ae_movpa24x2	aep5, a15, a15
    1311:	610154        	ae_lq56.i	aeq0, a1, 40
    1314:	050476        	bf	b4, 131d <voiced_decision+0x2d9>
    1317:	fcc992        	addi	a9, a9, -4
    131a:	fff206        	j	12e6 <voiced_decision+0x2a2>

0000131d <voiced_decision+0x2d9>:
    131d:	e834ba015f 	{ ae_sq56s.i	aeq0, a1, 40; ae_mulfp24s.hh	aeq0, aep5, aep1 }
    1322:	fb8681        	l32r	a8, 13c (5ae148 <_end+0x59ebe8>)
    1325:	0982a4        	ae_ltq56s	b10, aeq2, aeq0
    1328:	39e884        	ae_movpa24x2	aep6, a8, a8
    132b:	610154        	ae_lq56.i	aeq0, a1, 40
    132e:	050a76        	bf	b10, 1337 <voiced_decision+0x2f3>
    1331:	fec992        	addi	a9, a9, -2
    1334:	ffeb86        	j	12e6 <voiced_decision+0x2a2>

00001337 <voiced_decision+0x2f3>:
    1337:	e838ba015f 	{ ae_sq56s.i	aeq0, a1, 40; ae_mulfp24s.hh	aeq0, aep6, aep1 }
    133c:	fb81b1        	l32r	a11, 140 (5ccccd <_end+0x5bd76d>)
    133f:	098204        	ae_ltq56s	b0, aeq2, aeq0
    1342:	39fbb4        	ae_movpa24x2	aep7, a11, a11
    1345:	610154        	ae_lq56.i	aeq0, a1, 40
    1348:	040076        	bf	b0, 1350 <voiced_decision+0x30c>
    134b:	990b           	addi.n	a9, a9, -1
    134d:	ffe546        	j	12e6 <voiced_decision+0x2a2>

00001350 <voiced_decision+0x30c>:
    1350:	e83cba015f 	{ ae_sq56s.i	aeq0, a1, 40; ae_mulfp24s.hh	aeq0, aep7, aep1 }
    1355:	fb7b81        	l32r	a8, 144 (600000 <_end+0x5f0aa0>)
    1358:	d6c1bd815f 	{ ae_lq56.i	aeq0, a1, 40; ae_ltq56s	b6, aeq2, aeq0 }
    135d:	399884        	ae_movpa24x2	aep1, a8, a8
    1360:	f90400198e 	{ addi	a8, a9, 1; ae_mulfq32sp24s.h	aeq2, aeq0, aep1 }
    1365:	801676        	bt	b6, 12e9 <voiced_decision+0x2a5>
    1368:	d5d5cff9fe 	{ addi	a15, a9, -1; ae_leq56s	b7, aeq3, aeq2 }
    136d:	53ff60        	max	a15, a15, a6
    1370:	091c           	movi.n	a9, 16
    1372:	439890        	min	a9, a8, a9
    1375:	c39f70        	movf	a9, a15, b7
    1378:	ffdb46        	j	12e9 <voiced_decision+0x2a5>

0000137b <voiced_decision+0x337>:
    137b:	6d6d           	ae_s16i.n	a6, a13, 0

0000137d <voiced_decision+0x339>:
    137d:	dd2b           	addi.n	a13, a13, 2
    137f:	cc2b           	addi.n	a12, a12, 2

00001381 <voiced_decision+0x33d>:
    1381:	000846        	j	13a6 <voiced_decision+0x362>

00001384 <voiced_decision+0x340>:
	...

00001385 <voiced_decision+0x341>:
    1385:	aa4b           	addi.n	a10, a10, 4
    1387:	441b           	addi.n	a4, a4, 1
    1389:	0224b7        	blt	a4, a11, 138f <voiced_decision+0x34b>
    138c:	ffb486        	j	1262 <voiced_decision+0x21e>

0000138f <voiced_decision+0x34b>:
    138f:	7f2a92        	l32i	a9, a10, 0x1fc
    1392:	10c182        	addi	a8, a1, 16
    1395:	c099f0        	sub	a9, a9, a15
    1398:	4199           	s32i.n	a9, a1, 16
    139a:	608804        	ae_lq32f.i	aeq2, a8, 0
    139d:	09a384        	ae_ltq56s	b8, aeq3, aeq2
    13a0:	e10876        	bf	b8, 1385 <voiced_decision+0x341>
    13a3:	ffb546        	j	127c <voiced_decision+0x238>

000013a6 <voiced_decision+0x362>:
    13a6:	61b8           	l32i.n	a11, a1, 24
    13a8:	05cd           	mov.n	a12, a5
    13aa:	fb4681        	l32r	a8, c4 (c738 <xt_memcpy>)
    13ad:	05d2a2        	addmi	a10, a2, 0x500
    13b0:	1acaa2        	addi	a10, a10, 26
    13b3:	0008e0        	callx8	a8
    13b6:	fb5ba1        	l32r	a10, 124 (10000 <_end+0xaa0>)

000013b9 <voiced_decision+0x375>:
    13b9:	7e5352        	s16i	a5, a3, 252
    13bc:	03dd           	mov.n	a13, a3
    13be:	608104        	ae_lq32f.i	aeq2, a1, 0
    13c1:	fb62f1        	l32r	a15, 14c (828f <two_mic_WB_NR_NSN_proc+0x3c3>)
    13c4:	fb6341        	l32r	a4, 150 (30000 <_end+0x20aa0>)
    13c7:	fb50b1        	l32r	a11, 108 (4000 <Voice_WB_TX_Prcs+0x374>)
    13ca:	fb5fc1        	l32r	a12, 148 (fffe0000 <_end+0xfffd0aa0>)
    13cd:	fb6161        	l32r	a6, 154 (20000 <_end+0x10aa0>)
    13d0:	364c34        	ae_cvtq48a32s	aeq1, a12
    13d3:	07cd           	mov.n	a12, a7
    13d5:	78a576        	loopgtz	a5, 1451 <voiced_decision+0x40d>
    13d8:	400c04        	ae_lp16f.i	aep0, a12, 0
    13db:	7f9de2        	l16si	a14, a13, 254
    13de:	dd2b           	addi.n	a13, a13, 2
    13e0:	cc2b           	addi.n	a12, a12, 2
    13e2:	3e3ea6        	blti	a14, 3, 1424 <voiced_decision+0x3e0>
    13e5:	880c           	movi.n	a8, 8
    13e7:	16a8e7        	bge	a8, a14, 1401 <voiced_decision+0x3bd>
    13ea:	fc043ae0ef 	{ ae_sllisq56s	aeq3, aeq2, 2; ae_cvtq48p24s.h	aeq0, aep0 }
    13ef:	06fa14        	ae_subsq56s	aeq3, aeq3, aeq2
    13f2:	098394        	ae_ltq56s	b9, aeq3, aeq0
    13f5:	360434        	ae_cvtq48a32s	aeq0, a4
    13f8:	050976        	bf	b9, 1401 <voiced_decision+0x3bd>
    13fb:	065804        	ae_addsq56s	aeq1, aeq1, aeq0
    13fe:	001246        	j	144b <voiced_decision+0x407>

00001401 <voiced_decision+0x3bd>:
    1401:	166ea6        	blti	a14, 6, 141b <voiced_decision+0x3d7>
    1404:	fc043b20df 	{ ae_sraiq56	aeq3, aeq2, 1; ae_cvtq48p24s.h	aeq0, aep0 }
    1409:	06fa04        	ae_addsq56s	aeq3, aeq3, aeq2
    140c:	0983a4        	ae_ltq56s	b10, aeq3, aeq0
    140f:	360634        	ae_cvtq48a32s	aeq0, a6
    1412:	050a76        	bf	b10, 141b <voiced_decision+0x3d7>
    1415:	065804        	ae_addsq56s	aeq1, aeq1, aeq0
    1418:	000bc6        	j	144b <voiced_decision+0x407>

0000141b <voiced_decision+0x3d7>:
    141b:	36ca34        	ae_cvtq48a32s	aeq3, a10
    141e:	065b04        	ae_addsq56s	aeq1, aeq1, aeq3
    1421:	000986        	j	144b <voiced_decision+0x407>

00001424 <voiced_decision+0x3e0>:
    1424:	1d1e66        	bnei	a14, 1, 1445 <voiced_decision+0x401>
    1427:	302bb4        	ae_cvtp24a16x2.ll	aep2, a11, a11
    142a:	36e054        	ae_sllisq56s	aeq3, aeq2, 1
    142d:	03a884        	ae_mulafq32sp16s.h	aeq3, aeq2, aep2
    1430:	0a0884        	ae_cvtq48p24s.h	aeq0, aep0
    1433:	09b0b4        	ae_ltq56s	b11, aeq0, aeq3
    1436:	fb4891        	l32r	a9, 158 (c148 <VA_WB_TX_Prcs+0x2b4>)
    1439:	360934        	ae_cvtq48a32s	aeq0, a9
    143c:	050b76        	bf	b11, 1445 <voiced_decision+0x401>
    143f:	065814        	ae_subsq56s	aeq1, aeq1, aeq0
    1442:	000146        	j	144b <voiced_decision+0x407>

00001445 <voiced_decision+0x401>:
    1445:	36cf34        	ae_cvtq48a32s	aeq3, a15
    1448:	065b14        	ae_subsq56s	aeq1, aeq1, aeq3
    144b:	14c1e2        	addi	a14, a1, 20
    144e:	621e04        	ae_sq32f.i	aeq1, a14, 0

00001451 <voiced_decision+0x40d>:
    1451:	91b8           	l32i.n	a11, a1, 36

00001453 <voiced_decision+0x40f>:
    1453:	fb1c81        	l32r	a8, c4 (c738 <xt_memcpy>)
    1456:	6a2392        	l32i	a9, a3, 0x1a8
    1459:	8e7c           	movi.n	a14, -8
    145b:	8f0c           	movi.n	a15, 8
    145d:	11c5e0        	slli	a12, a5, 2
    1460:	05d2a2        	addmi	a10, a2, 0x500
    1463:	f9ebc041de 	{ addi	a13, a1, 4; ae_roundsp16q48sym	aep3, aeq1 }
    1468:	423d04        	ae_sp16f.l.i	aep3, a13, 0
    146b:	0291d2        	l16si	a13, a1, 4
    146e:	6ccaa2        	addi	a10, a10, 108
    1471:	41c1c0        	srli	a12, a12, 1
    1474:	43ddf0        	min	a13, a13, a15
    1477:	53dde0        	max	a13, a13, a14
    147a:	51d9           	s32i.n	a13, a1, 20
    147c:	99da           	add.n	a9, a9, a13
    147e:	0d1c           	movi.n	a13, 16
    1480:	4399d0        	min	a9, a9, a13
    1483:	4199           	s32i.n	a9, a1, 16
    1485:	0d0c           	movi.n	a13, 0
    1487:	5399d0        	max	a9, a9, a13
    148a:	6a6392        	s32i	a9, a3, 0x1a8
    148d:	0008e0        	callx8	a8
    1490:	05cd           	mov.n	a12, a5
    1492:	07bd           	mov.n	a11, a7
    1494:	fb0c81        	l32r	a8, c4 (c738 <xt_memcpy>)
    1497:	05d2a2        	addmi	a10, a2, 0x500
    149a:	42caa2        	addi	a10, a10, 66
    149d:	0008e0        	callx8	a8
    14a0:	f01d           	retw.n

000014a2 <voiced_decision+0x45e>:
	...

000014a4 <Pitch_by_Corel>:
    14a4:	010136        	entry	a1, 128
    14a7:	e81c           	movi.n	a8, 30
    14a9:	05d352        	addmi	a5, a3, 0x500
    14ac:	fb2c41        	l32r	a4, 15c (4ccccd <_end+0x4bd76d>)
    14af:	03d3f2        	addmi	a15, a3, 0x300
    14b2:	62c292        	addi	a9, a2, 98
    14b5:	e199           	s32i.n	a9, a1, 56
    14b7:	b1f9           	s32i.n	a15, a1, 44
    14b9:	802fb2        	l32i	a11, a15, 0x200
    14bc:	39a444        	ae_movpa24x2	aep2, a4, a4
    14bf:	18c562        	addi	a6, a5, 24
    14c2:	440c           	movi.n	a4, 4
    14c4:	f3f760        	wur.ae_cend0	a6
    14c7:	558b           	addi.n	a5, a5, 8
    14c9:	f3f650        	wur.ae_cbegin0	a5
    14cc:	0be8           	l32i.n	a14, a11, 0
    14ce:	060c           	movi.n	a6, 0
    14d0:	aca052        	movi	a5, 172
    14d3:	fccee2        	addi	a14, a14, -4
    14d6:	fc24fb8b4f 	{ ae_lq32f.c	aeq0, a11, a4; nop }
    14db:	0bd8           	l32i.n	a13, a11, 0
    14dd:	fc24fbeb4f 	{ ae_lq32f.c	aeq3, a11, a4; nop }
    14e2:	0bc8           	l32i.n	a12, a11, 0
    14e4:	fccdd2        	addi	a13, a13, -4
    14e7:	fc24fbcb4f 	{ ae_lq32f.c	aeq2, a11, a4; nop }
    14ec:	0ba8           	l32i.n	a10, a11, 0
    14ee:	fcccc2        	addi	a12, a12, -4
    14f1:	fc24fbab4f 	{ ae_lq32f.c	aeq1, a11, a4; nop }
    14f6:	fc24fb8b4f 	{ ae_lq32f.c	aeq0, a11, a4; nop }
    14fb:	fccaa2        	addi	a10, a10, -4
    14fe:	806fb2        	s32i	a11, a15, 0x200
    1501:	040c           	movi.n	a4, 0
    1503:	af2c           	movi.n	a15, 42
    1505:	1174f0        	slli	a7, a4, 1
    1508:	0b0c           	movi.n	a11, 0
    150a:	01b9           	s32i.n	a11, a1, 0
    150c:	ff2495727f 	{ sub	a7, a2, a7; ae_zeroq56	aeq3 }
    1511:	fc1c45077e 	{ addi	a7, a7, 80; ae_movq56	aeq0, aeq3 }

00001516 <Pitch_by_Corel+0x72>:
    1516:	e198           	l32i.n	a9, a1, 56
    1518:	608e14        	ae_lq32f.i	aeq2, a14, 4
    151b:	604d14        	ae_lq32f.i	aeq1, a13, 4
    151e:	408914        	ae_lp16f.iu	aep0, a9, 2
    1521:	07a876        	loopgtz	a8, 152c <Pitch_by_Corel+0x88>
    1524:	409714        	ae_lp16f.iu	aep1, a7, 2
    1527:	e420ac891f 	{ ae_lp16f.iu	aep0, a9, 2; ae_mulafs56p24s.hh	aeq0, aep0, aep1 }

0000152c <Pitch_by_Corel+0x88>:
    152c:	a08430        	addx4	a8, a4, a3
    152f:	350174        	ae_sraiq56	aeq0, aeq0, 5
    1532:	060934        	ae_roundsq32asym	aeq0, aeq0
    1535:	068a04        	ae_addsq56s	aeq2, aeq0, aeq2

00001538 <Pitch_by_Corel+0x94>:
    1538:	fa767d2c1f 	{ ae_lq32f.i	aeq1, a12, 4; ae_addsq56s	aeq2, aeq2, aeq1 }
    153d:	fa767d2a1f 	{ ae_lq32f.i	aeq1, a10, 4; ae_addsq56s	aeq2, aeq2, aeq1 }
    1542:	066904        	ae_addsq56s	aeq1, aeq2, aeq1
    1545:	369194        	ae_sllisq56s	aeq2, aeq1, 6
    1548:	066934        	ae_roundsq32asym	aeq1, aeq2
    154b:	62d854        	ae_sq32f.xu	aeq1, a8, a5
    154e:	0878           	l32i.n	a7, a8, 0
    1550:	f9680ffffe 	{ addi	a15, a15, -1; ae_mulrfq32sp24s.h	aeq2, aeq0, aep2 }
    1555:	537760        	max	a7, a7, a6
    1558:	0879           	s32i.n	a7, a8, 0
    155a:	626e14        	ae_sq32f.iu	aeq2, a14, 4
    155d:	fc1c7d3d1f 	{ ae_lq32f.iu	aeq1, a13, 4; ae_movq56	aeq0, aeq3 }
    1562:	f869401e8f 	{ movi	a8, 30; ae_mulrfq32sp24s.h	aeq1, aeq1, aep2 }
    1567:	0bab77        	bge	a11, a7, 1576 <Pitch_by_Corel+0xd2>
    156a:	0824a6        	blti	a4, 2, 1576 <Pitch_by_Corel+0xd2>
    156d:	792c           	movi.n	a9, 39
    156f:	032947        	blt	a9, a4, 1576 <Pitch_by_Corel+0xd2>
    1572:	07bd           	mov.n	a11, a7
    1574:	0179           	s32i.n	a7, a1, 0
    1576:	621d04        	ae_sq32f.i	aeq1, a13, 0
    1579:	441b           	addi.n	a4, a4, 1
    157b:	844d           	ae_sext16	a4, a4
    157d:	609c14        	ae_lq32f.iu	aeq2, a12, 4
    1580:	08a494        	ae_mulrfq32sp24s.h	aeq2, aeq2, aep2
    1583:	1174f0        	slli	a7, a4, 1
    1586:	622c04        	ae_sq32f.i	aeq2, a12, 0
    1589:	605a14        	ae_lq32f.iu	aeq1, a10, 4
    158c:	f86955727f 	{ sub	a7, a2, a7; ae_mulrfq32sp24s.h	aeq1, aeq1, aep2 }
    1591:	50c772        	addi	a7, a7, 80
    1594:	621a04        	ae_sq32f.i	aeq1, a10, 0
    1597:	f7bf56        	bnez	a15, 1516 <Pitch_by_Corel+0x72>
    159a:	fae4d1        	l32r	a13, 12c (2ccccd <_end+0x2bd76d>)
    159d:	60c104        	ae_lq32f.i	aeq3, a1, 0
    15a0:	01d3c2        	addmi	a12, a3, 0x100
    15a3:	54ccc2        	addi	a12, a12, 84
    15a6:	600c04        	ae_lq32f.i	aeq0, a12, 0
    15a9:	06b814        	ae_subsq56s	aeq2, aeq3, aeq0
    15ac:	fd80e22ddf 	{ ae_movpa24x2	aep2, a13, a13; ae_satq48s	aeq1, aeq2 }
    15b1:	d469b0b18e 	{ l32i	a8, a1, 44; ae_mularfq32sp24s.h	aeq0, aeq1, aep2 }
    15b6:	02d3a2        	addmi	a10, a3, 0x200
    15b9:	ff00c50aae 	{ addi	a10, a10, 80; ae_satq48s	aeq3, aeq0 }
    15be:	623c04        	ae_sq32f.i	aeq3, a12, 0
    15c1:	5523e2        	l32i	a14, a3, 0x154
    15c4:	7e2892        	l32i	a9, a8, 0x1f8
    15c7:	8d2c           	movi.n	a13, 40
    15c9:	0a13c2        	l16ui	a12, a3, 20
    15cc:	4399e0        	min	a9, a9, a14
    15cf:	7e6892        	s32i	a9, a8, 0x1f8
    15d2:	687cb6        	bltui	a12, 7, 163e <Pitch_by_Corel+0x19a>
    15d5:	1199           	s32i.n	a9, a1, 4
    15d7:	040c           	movi.n	a4, 0
    15d9:	10ad76        	loopgtz	a13, 15ed <Pitch_by_Corel+0x149>
    15dc:	a0f430        	addx4	a15, a4, a3
    15df:	ff5a           	add.n	a15, a15, a5
    15e1:	2b2ff2        	l32i	a15, a15, 172
    15e4:	441b           	addi.n	a4, a4, 1
    15e6:	844d           	ae_sext16	a4, a4
    15e8:	439f90        	min	a9, a15, a9
    15eb:	1199           	s32i.n	a9, a1, 4

000015ed <Pitch_by_Corel+0x149>:
    15ed:	faafc1        	l32r	a12, ac (7fffffff <_end+0x7fff0a9f>)
    15f0:	05d3e2        	addmi	a14, a3, 0x500
    15f3:	fadb81        	l32r	a8, 160 (6ccccd <_end+0x6bd76d>)
    15f6:	604a04        	ae_lq32f.i	aeq1, a10, 0
    15f9:	01d3f2        	addmi	a15, a3, 0x100
    15fc:	02d392        	addmi	a9, a3, 0x200
    15ff:	d14b           	addi.n	a13, a1, 4
    1601:	608d04        	ae_lq32f.i	aeq2, a13, 0
    1604:	f8c992        	addi	a9, a9, -8
    1607:	58cff2        	addi	a15, a15, 88
    160a:	f3f6f0        	wur.ae_cbegin0	a15
    160d:	f3f790        	wur.ae_cend0	a9
    1610:	061a14        	ae_subsq56s	aeq0, aeq1, aeq2
    1613:	ff00e2388f 	{ ae_movpa24x2	aep3, a8, a8; ae_satq48s	aeq3, aeq0 }
    1618:	08b2d4        	ae_mularfq32sp24s.h	aeq2, aeq3, aep3
    161b:	b198           	l32i.n	a9, a1, 44
    161d:	064a44        	ae_satq48s	aeq1, aeq2
    1620:	621a04        	ae_sq32f.i	aeq1, a10, 0
    1623:	812982        	l32i	a8, a9, 0x204
    1626:	4d0c           	movi.n	a13, 4
    1628:	601ee4        	ae_lq32f.iu	aeq0, a14, -8
    162b:	fc24f808df 	{ ae_sq32f.c	aeq0, a8, a13; nop }
    1630:	816982        	s32i	a8, a9, 0x204
    1633:	7e69c2        	s32i	a12, a9, 0x1f8
    1636:	0a5362        	s16i	a6, a3, 20
    1639:	000186        	j	1643 <Pitch_by_Corel+0x19f>

0000163c <Pitch_by_Corel+0x198>:
	...

0000163e <Pitch_by_Corel+0x19a>:
    163e:	ec1b           	addi.n	a14, a12, 1
    1640:	0a53e2        	s16i	a14, a3, 20

00001643 <Pitch_by_Corel+0x19f>:
    1643:	608a04        	ae_lq32f.i	aeq2, a10, 0
    1646:	02d3c2        	addmi	a12, a3, 0x200
    1649:	fac6d1        	l32r	a13, 164 (59999a <_end+0x58a43a>)
    164c:	398dd4        	ae_movpa24x2	aep0, a13, a13
    164f:	fb00054cce 	{ addi	a12, a12, 84; ae_mulfq32sp24s.h	aeq2, aeq2, aep0 }
    1654:	600c04        	ae_lq32f.i	aeq0, a12, 0
    1657:	09a004        	ae_ltq56s	b0, aeq0, aeq2
    165a:	21b9           	s32i.n	a11, a1, 8
    165c:	fac371        	l32r	a7, 168 (70a3d7 <_end+0x6fae77>)
    165f:	021076        	bt	b0, 1665 <Pitch_by_Corel+0x1c1>
    1662:	00b9c6        	j	194d <Pitch_by_Corel+0x4a9>
    1665:	fac1e1        	l32r	a14, 16c (733333 <_end+0x723dd3>)
    1668:	399ee4        	ae_movpa24x2	aep1, a14, a14

0000166b <Pitch_by_Corel+0x1c7>:
    166b:	942392        	l32i	a9, a3, 0x250

0000166e <Pitch_by_Corel+0x1ca>:
    166e:	2199           	s32i.n	a9, a1, 8
    1670:	000086        	j	1676 <Pitch_by_Corel+0x1d2>

00001673 <Pitch_by_Corel+0x1cf>:
    1673:	399dd4        	ae_movpa24x2	aep1, a13, a13
    1676:	608c04        	ae_lq32f.i	aeq2, a12, 0
    1679:	918b           	addi.n	a9, a1, 8
    167b:	60c904        	ae_lq32f.i	aeq3, a9, 0
    167e:	066b14        	ae_subsq56s	aeq1, aeq2, aeq3
    1681:	060944        	ae_satq48s	aeq0, aeq1
    1684:	089a24        	ae_mulafq32sp24s.h	aeq3, aeq0, aep1
    1687:	fabaf1        	l32r	a15, 170 (3fff <Voice_WB_TX_Prcs+0x373>)
    168a:	064b44        	ae_satq48s	aeq1, aeq3
    168d:	069834        	ae_roundsq32sym	aeq2, aeq1
    1690:	622c04        	ae_sq32f.i	aeq2, a12, 0
    1693:	952382        	l32i	a8, a3, 0x254
    1696:	fa9ca1        	l32r	a10, 108 (4000 <Voice_WB_TX_Prcs+0x374>)
    1699:	360a34        	ae_cvtq48a32s	aeq0, a10
    169c:	f86b104f8e 	{ blt	a15, a8, 16a4 <Pitch_by_Corel+0x200>; ae_maxq56s	aeq0, aeq0, aeq1 }
    16a1:	9563a2        	s32i	a10, a3, 0x254

000016a4 <Pitch_by_Corel+0x200>:
    16a4:	fa7ea1        	l32r	a10, 9c (f554 <p_ecnr_mem>)
    16a7:	fab381        	l32r	a8, 174 (1044 <voiced_decision>)
    16aa:	0aa8           	l32i.n	a10, a10, 0
    16ac:	78c192        	addi	a9, a1, 120
    16af:	6309b4        	ae_sq56s.i	aeq0, a9, -40
    16b2:	55daa2        	addmi	a10, a10, 0x5500
    16b5:	f0caa2        	addi	a10, a10, -16
    16b8:	0008e0        	callx8	a8
    16bb:	fa7891        	l32r	a9, 9c (f554 <p_ecnr_mem>)
    16be:	040c           	movi.n	a4, 0
    16c0:	78c1b2        	addi	a11, a1, 120
    16c3:	0998           	l32i.n	a9, a9, 0
    16c5:	610bb4        	ae_lq56.i	aeq0, a11, -40
    16c8:	ab0c           	movi.n	a11, 10
    16ca:	19d992        	addmi	a9, a9, 0x1900
    16cd:	a4c9a2        	addi	a10, a9, -92
    16d0:	91a9           	s32i.n	a10, a1, 36
    16d2:	682992        	l32i	a9, a9, 0x1a0
    16d5:	08ab76        	loopgtz	a11, 16e1 <Pitch_by_Corel+0x23d>
    16d8:	a08490        	addx4	a8, a4, a9
    16db:	0869           	s32i.n	a6, a8, 0
    16dd:	441b           	addi.n	a4, a4, 1
    16df:	844d           	ae_sext16	a4, a4

000016e1 <Pitch_by_Corel+0x23d>:
    16e1:	9198           	l32i.n	a9, a1, 36
    16e3:	7f2992        	l32i	a9, a9, 0x1fc
    16e6:	040c           	movi.n	a4, 0
    16e8:	aa2c           	movi.n	a10, 42
    16ea:	28c992        	addi	a9, a9, 40
    16ed:	0caa76        	loopgtz	a10, 16fd <Pitch_by_Corel+0x259>
    16f0:	908430        	addx2	a8, a4, a3
    16f3:	441b           	addi.n	a4, a4, 1
    16f5:	fc1882        	l16ui	a8, a8, 0x1f8
    16f8:	09c984        	ae_s16ip	a8, a9, 2
    16fb:	844d           	ae_sext16	a4, a4
    16fd:	6e2c           	movi.n	a14, 38
    16ff:	090c           	movi.n	a9, 0
    1701:	240c           	movi.n	a4, 2
    1703:	04aff2        	movi	a15, -252
    1706:	91d8           	l32i.n	a13, a1, 36
    1708:	234b           	addi.n	a2, a3, 4
    170a:	102382        	l32i	a8, a3, 64
    170d:	c35a           	add.n	a12, a3, a5
    170f:	0cad           	mov.n	a10, a12
    1711:	6389           	s32i.n	a8, a3, 24
    1713:	a129           	s32i.n	a2, a1, 40
    1715:	7f2dd2        	l32i	a13, a13, 0x1fc
    1718:	020c           	movi.n	a2, 0
    171a:	580c           	movi.n	a8, 5
    171c:	2ccdd2        	addi	a13, a13, 44
    171f:	80ddf0        	add	a13, a13, a15
    1722:	90f430        	addx2	a15, a4, a3

00001725 <Pitch_by_Corel+0x281>:
    1725:	404304        	ae_lp16f.i	aep4, a3, 0
    1728:	d572efcfbe 	{ l16si	a11, a15, 0x1f8; ae_mulfq32sp16u.h	aeq3, aeq0, aep4 }
    172d:	06a876        	loopgtz	a8, 1737 <Pitch_by_Corel+0x293>
    1730:	0a88           	l32i.n	a8, a10, 0
    1732:	aa4b           	addi.n	a10, a10, 4
    1734:	539890        	max	a9, a8, a9

00001737 <Pitch_by_Corel+0x293>:
    1737:	a0a430        	addx4	a10, a4, a3
    173a:	607a54        	ae_lq32f.xu	aeq1, a10, a5
    173d:	3590f4        	ae_sraiq56	aeq2, aeq1, 3
    1740:	09a314        	ae_ltq56s	b1, aeq3, aeq2
    1743:	ee0b           	addi.n	a14, a14, -1
    1745:	cc4b           	addi.n	a12, a12, 4
    1747:	210176        	bf	b1, 176c <Pitch_by_Corel+0x2c8>
    174a:	0a88           	l32i.n	a8, a10, 0
    174c:	c08890        	sub	a8, a8, a9
    174f:	17c856        	bnez	a8, 18cf <Pitch_by_Corel+0x42b>
    1752:	7e9d92        	l16si	a9, a13, 252
    1755:	60c104        	ae_lq32f.i	aeq3, a1, 0
    1758:	39b774        	ae_movpa24x2	aep3, a7, a7
    175b:	17f956        	bnez	a9, 18de <Pitch_by_Corel+0x43a>
    175e:	7d9da2        	l16si	a10, a13, 250
    1761:	021ae6        	bgei	a10, 1, 1767 <Pitch_by_Corel+0x2c3>
    1764:	005b06        	j	18d4 <Pitch_by_Corel+0x430>
    1767:	0abd           	mov.n	a11, a10
    1769:	005c46        	j	18de <Pitch_by_Corel+0x43a>

0000176c <Pitch_by_Corel+0x2c8>:
    176c:	06bd           	mov.n	a11, a6
    176e:	000446        	j	1783 <Pitch_by_Corel+0x2df>

00001771 <Pitch_by_Corel+0x2cd>:
    1771:	60c104        	ae_lq32f.i	aeq3, a1, 0
    1774:	08dce4        	ae_mulfq32sp24s.h	aeq3, aeq3, aep5
    1777:	099324        	ae_ltq56s	b2, aeq3, aeq1
    177a:	fbcbb2        	addi	a11, a11, -5
    177d:	53b6b0        	max	a11, a6, a11
    1780:	c3b920        	movf	a11, a9, b2

00001783 <Pitch_by_Corel+0x2df>:
    1783:	dd2b           	addi.n	a13, a13, 2
    1785:	0cad           	mov.n	a10, a12
    1787:	090c           	movi.n	a9, 0
    1789:	580c           	movi.n	a8, 5
    178b:	fc5fb2        	s16i	a11, a15, 0x1f8
    178e:	441b           	addi.n	a4, a4, 1
    1790:	844d           	ae_sext16	a4, a4
    1792:	90f430        	addx2	a15, a4, a3
    1795:	f8ce56        	bnez	a14, 1725 <Pitch_by_Corel+0x281>
    1798:	14c182        	addi	a8, a1, 20
    179b:	10c192        	addi	a9, a1, 16
    179e:	400304        	ae_lp16f.i	aep0, a3, 0
    17a1:	d462ec731f 	{ ae_lp16f.i	aep7, a3, 2; ae_mulfq32sp16u.h	aeq1, aeq0, aep0 }
    17a6:	fa75a1        	l32r	a10, 17c (5d70a4 <_end+0x5c7b44>)
    17a9:	d47fe26aaf 	{ ae_movpa24x2	aep6, a10, a10; ae_mulfq32sp16u.h	aeq1, aeq1, aep7 }
    17ae:	600104        	ae_lq32f.i	aeq0, a1, 0
    17b1:	f9793b010f 	{ ae_sraiq56	aeq0, aeq0, 4; ae_mulrfq32sp24s.h	aeq2, aeq1, aep6 }
    17b6:	621904        	ae_sq32f.i	aeq1, a9, 0
    17b9:	622804        	ae_sq32f.i	aeq2, a8, 0
    17bc:	27f216        	beqz	a2, 1a3f <Pitch_by_Corel+0x59b>
    17bf:	098534        	ae_leq56s	b3, aeq1, aeq0
    17c2:	111376        	bt	b3, 17d7 <Pitch_by_Corel+0x333>
    17c5:	098644        	ae_leq56s	b4, aeq2, aeq0
    17c8:	091392        	l16ui	a9, a3, 18
    17cb:	021476        	bt	b4, 17d1 <Pitch_by_Corel+0x32d>
    17ce:	0088c6        	j	19f5 <Pitch_by_Corel+0x551>
    17d1:	0229f6        	bgeui	a9, 2, 17d7 <Pitch_by_Corel+0x333>
    17d4:	008746        	j	19f5 <Pitch_by_Corel+0x551>

000017d7 <Pitch_by_Corel+0x333>:
    17d7:	600104        	ae_lq32f.i	aeq0, a1, 0
    17da:	fa69d1        	l32r	a13, 180 (14000 <_end+0x4aa0>)
    17dd:	0212e6        	bgei	a2, 1, 17e3 <Pitch_by_Corel+0x33f>
    17e0:	006106        	j	1968 <Pitch_by_Corel+0x4c4>
    17e3:	040c           	movi.n	a4, 0
    17e5:	91c8           	l32i.n	a12, a1, 36
    17e7:	fa5ff1        	l32r	a15, 164 (59999a <_end+0x58a43a>)
    17ea:	399ff4        	ae_movpa24x2	aep1, a15, a15
    17ed:	f9040781ee 	{ addi	a14, a1, 120; ae_mulfq32sp24s.h	aeq2, aeq0, aep1 }
    17f2:	7f2cc2        	l32i	a12, a12, 0x1fc
    17f5:	632ea4        	ae_sq56s.i	aeq2, a14, -48

000017f8 <Pitch_by_Corel+0x354>:
    17f8:	90b4c0        	addx2	a11, a4, a12
    17fb:	2bbd           	ae_l16si.n	a11, a11, 0
    17fd:	1174f0        	slli	a7, a4, 1
    1800:	909b30        	addx2	a9, a11, a3
    1803:	fc19e2        	l16ui	a14, a9, 0x1f8
    1806:	78c1f2        	addi	a15, a1, 120
    1809:	61cfa4        	ae_lq56.i	aeq3, a15, -48
    180c:	026ef6        	bgeui	a14, 6, 1812 <Pitch_by_Corel+0x36e>
    180f:	002bc6        	j	18c2 <Pitch_by_Corel+0x41e>
    1812:	a0eb30        	addx4	a14, a11, a3
    1815:	c1e9           	s32i.n	a14, a1, 48
    1817:	603e54        	ae_lq32f.xu	aeq0, a14, a5
    181a:	098354        	ae_ltq56s	b5, aeq3, aeq0
    181d:	8199           	s32i.n	a9, a1, 32
    181f:	d1e9           	s32i.n	a14, a1, 52
    1821:	021576        	bt	b5, 1827 <Pitch_by_Corel+0x383>
    1824:	002686        	j	18c2 <Pitch_by_Corel+0x41e>
    1827:	21b9           	s32i.n	a11, a1, 8
    1829:	fa3d81        	l32r	a8, 120 (21ec <Xfrac_num_pd_td32>)
    182c:	0ead           	mov.n	a10, a14
    182e:	9c0c           	movi.n	a12, 9
    1830:	0008e0        	callx8	a8
    1833:	63c8           	l32i.n	a12, a3, 24
    1835:	61a9           	s32i.n	a10, a1, 24
    1837:	fa52d1        	l32r	a13, 180 (14000 <_end+0x4aa0>)
    183a:	26bc16        	beqz	a12, 1aa9 <Pitch_by_Corel+0x605>
    183d:	c09ca0        	sub	a9, a12, a10
    1840:	022d97        	blt	a13, a9, 1846 <Pitch_by_Corel+0x3a2>
    1843:	009886        	j	1aa9 <Pitch_by_Corel+0x605>
    1846:	b1b8           	l32i.n	a11, a1, 44
    1848:	fe1bb2        	l16ui	a11, a11, 0x1fc
    184b:	90cb30        	addx2	a12, a11, a3
    184e:	fb1ca2        	l16ui	a10, a12, 0x1f6
    1851:	ae0c           	movi.n	a14, 10
    1853:	9b0b           	addi.n	a9, a11, -1
    1855:	30bea7        	bgeu	a14, a10, 1889 <Pitch_by_Corel+0x3e5>

00001858 <Pitch_by_Corel+0x3b4>:
    1858:	99bd           	ae_zext16	a11, a9

0000185a <Pitch_by_Corel+0x3b6>:
    185a:	90eb30        	addx2	a14, a11, a3
    185d:	fc1ee2        	l16ui	a14, a14, 0x1f8
    1860:	ac0c           	movi.n	a12, 10
    1862:	a0bb30        	addx4	a11, a11, a3
    1865:	023ce7        	bltu	a12, a14, 186b <Pitch_by_Corel+0x3c7>
    1868:	008f46        	j	1aa9 <Pitch_by_Corel+0x605>
    186b:	c1c8           	l32i.n	a12, a1, 48
    186d:	2b2bf2        	l32i	a15, a11, 172
    1870:	2b2cc2        	l32i	a12, a12, 172
    1873:	4188           	l32i.n	a8, a1, 16
    1875:	3b2cf7        	blt	a12, a15, 18b4 <Pitch_by_Corel+0x410>
    1878:	21f5c0        	srai	a15, a12, 5
    187b:	352f87        	blt	a15, a8, 18b4 <Pitch_by_Corel+0x410>
    187e:	8198           	l32i.n	a9, a1, 32
    1880:	fc1992        	l16ui	a9, a9, 0x1f8
    1883:	0d6926        	beqi	a9, 6, 1894 <Pitch_by_Corel+0x3f0>
    1886:	0087c6        	j	1aa9 <Pitch_by_Corel+0x605>

00001889 <Pitch_by_Corel+0x3e5>:
    1889:	fd1ca2        	l16ui	a10, a12, 0x1fa
    188c:	9b1b           	addi.n	a9, a11, 1
    188e:	c8bea7        	bgeu	a14, a10, 185a <Pitch_by_Corel+0x3b6>
    1891:	fff0c6        	j	1858 <Pitch_by_Corel+0x3b4>

00001894 <Pitch_by_Corel+0x3f0>:
    1894:	02aef6        	bgeui	a14, 12, 189a <Pitch_by_Corel+0x3f6>
    1897:	008386        	j	1aa9 <Pitch_by_Corel+0x605>
    189a:	d1e8           	l32i.n	a14, a1, 52
    189c:	fa3ac1        	l32r	a12, 184 (666666 <_end+0x657106>)
    189f:	39acc4        	ae_movpa24x2	aep2, a12, a12
    18a2:	604e04        	ae_lq32f.i	aeq1, a14, 0
    18a5:	082c54        	ae_mulrfq32sp24s.h	aeq1, aeq1, aep2
    18a8:	60ab54        	ae_lq32f.x	aeq2, a11, a5
    18ab:	09a164        	ae_ltq56s	b6, aeq1, aeq2
    18ae:	021676        	bt	b6, 18b4 <Pitch_by_Corel+0x410>
    18b1:	007d06        	j	1aa9 <Pitch_by_Corel+0x605>

000018b4 <Pitch_by_Corel+0x410>:
    18b4:	f9fac1        	l32r	a12, 9c (f554 <p_ecnr_mem>)
    18b7:	0cc8           	l32i.n	a12, a12, 0
    18b9:	19dcc2        	addmi	a12, a12, 0x1900
    18bc:	a4ccc2        	addi	a12, a12, -92
    18bf:	7f2cc2        	l32i	a12, a12, 0x1fc

000018c2 <Pitch_by_Corel+0x41e>:
    18c2:	441b           	addi.n	a4, a4, 1
    18c4:	844d           	ae_sext16	a4, a4
    18c6:	c0e420        	sub	a14, a4, a2
    18c9:	f2be56        	bnez	a14, 17f8 <Pitch_by_Corel+0x354>
    18cc:	0027c6        	j	196f <Pitch_by_Corel+0x4cb>

000018cf <Pitch_by_Corel+0x42b>:
    18cf:	06bd           	mov.n	a11, a6
    18d1:	ffab86        	j	1783 <Pitch_by_Corel+0x2df>

000018d4 <Pitch_by_Corel+0x430>:
    18d4:	69cc           	bnez.n	a9, 18de <Pitch_by_Corel+0x43a>
    18d6:	7f9d92        	l16si	a9, a13, 254
    18d9:	0119a6        	blti	a9, 1, 18de <Pitch_by_Corel+0x43a>
    18dc:	09bd           	mov.n	a11, a9
    18de:	a198           	l32i.n	a9, a1, 40
    18e0:	404904        	ae_lp16f.i	aep4, a9, 0
    18e3:	03cae4        	ae_mulfq32sp16u.h	aeq3, aeq3, aep4
    18e6:	03c2e4        	ae_mulfq32sp16u.h	aeq2, aeq3, aep4
    18e9:	78c182        	addi	a8, a1, 120
    18ec:	fb0c3a289f 	{ ae_sq56s.i	aeq2, a8, -56; ae_mulfq32sp24s.h	aeq2, aeq2, aep3 }
    18f1:	a21b           	addi.n	a10, a2, 1
    18f3:	d6c9c0009f 	{ movi	a9, 0; ae_ltq56s	b7, aeq2, aeq1 }
    18f8:	fa2081        	l32r	a8, 178 (39999a <_end+0x38a43a>)
    18fb:	d6ce22588f 	{ ae_movpa24x2	aep5, a8, a8; ae_ltq56s	b8, aeq3, aeq1 }
    1900:	021776        	bt	b7, 1906 <Pitch_by_Corel+0x462>
    1903:	ff9a86        	j	1771 <Pitch_by_Corel+0x2cd>
    1906:	9188           	l32i.n	a8, a1, 36
    1908:	7f2882        	l32i	a8, a8, 0x1fc
    190b:	9b2b           	addi.n	a9, a11, 2
    190d:	902280        	addx2	a2, a2, a8
    1910:	624d           	ae_s16i.n	a4, a2, 0
    1912:	9a2d           	ae_zext16	a2, a10
    1914:	090876        	bf	b8, 1921 <Pitch_by_Corel+0x47d>

00001917 <Pitch_by_Corel+0x473>:
    1917:	89bd           	ae_sext16	a11, a9

00001919 <Pitch_by_Corel+0x475>:
    1919:	491c           	movi.n	a9, 20
    191b:	43bb90        	min	a11, a11, a9
    191e:	ff9846        	j	1783 <Pitch_by_Corel+0x2df>

00001921 <Pitch_by_Corel+0x47d>:
    1921:	78c1a2        	addi	a10, a1, 120
    1924:	618a94        	ae_lq56.i	aeq2, a10, -56
    1927:	099294        	ae_ltq56s	b9, aeq2, aeq1
    192a:	9b1b           	addi.n	a9, a11, 1
    192c:	61ca94        	ae_lq56.i	aeq3, a10, -56
    192f:	020976        	bf	b9, 1935 <Pitch_by_Corel+0x491>
    1932:	fff846        	j	1917 <Pitch_by_Corel+0x473>

00001935 <Pitch_by_Corel+0x491>:
    1935:	fa0d91        	l32r	a9, 16c (733333 <_end+0x723dd3>)
    1938:	39d994        	ae_movpa24x2	aep5, a9, a9
    193b:	08dce4        	ae_mulfq32sp24s.h	aeq3, aeq3, aep5
    193e:	09b1a4        	ae_ltq56s	b10, aeq1, aeq3
    1941:	fecb92        	addi	a9, a11, -2
    1944:	539690        	max	a9, a6, a9
    1947:	ce0a76        	bf	b10, 1919 <Pitch_by_Corel+0x475>
    194a:	fff246        	j	1917 <Pitch_by_Corel+0x473>

0000194d <Pitch_by_Corel+0x4a9>:
    194d:	39e774        	ae_movpa24x2	aep6, a7, a7
    1950:	604a04        	ae_lq32f.i	aeq1, a10, 0
    1953:	086c64        	ae_mulfq32sp24s.h	aeq1, aeq1, aep6
    1956:	0990b4        	ae_ltq56s	b11, aeq0, aeq1
    1959:	fa0bd1        	l32r	a13, 188 (7e147b <_end+0x7d1f1b>)
    195c:	021b76        	bt	b11, 1962 <Pitch_by_Corel+0x4be>
    195f:	002d06        	j	1a17 <Pitch_by_Corel+0x573>
    1962:	399dd4        	ae_movpa24x2	aep1, a13, a13
    1965:	ff4086        	j	166b <Pitch_by_Corel+0x1c7>

00001968 <Pitch_by_Corel+0x4c4>:
    1968:	91c8           	l32i.n	a12, a1, 36
    196a:	040c           	movi.n	a4, 0
    196c:	7f2cc2        	l32i	a12, a12, 0x1fc

0000196f <Pitch_by_Corel+0x4cb>:
    196f:	1174f0        	slli	a7, a4, 1

00001972 <Pitch_by_Corel+0x4ce>:
    1972:	b7ca           	add.n	a11, a7, a12
    1974:	2bbd           	ae_l16si.n	a11, a11, 0
    1976:	90eb30        	addx2	a14, a11, a3
    1979:	fc1ee2        	l16ui	a14, a14, 0x1f8
    197c:	0913a2        	l16ui	a10, a3, 18
    197f:	027ef6        	bgeui	a14, 7, 1985 <Pitch_by_Corel+0x4e1>
    1982:	002006        	j	1a06 <Pitch_by_Corel+0x562>
    1985:	61e8           	l32i.n	a14, a1, 24
    1987:	63c8           	l32i.n	a12, a3, 24
    1989:	9bbd           	ae_zext16	a11, a11
    198b:	0e51b2        	s16i	a11, a1, 28
    198e:	c0fce0        	sub	a15, a12, a14
    1991:	60f1f0        	abs	a15, a15
    1994:	30adf7        	bge	a13, a15, 19c8 <Pitch_by_Corel+0x524>
    1997:	023af6        	bgeui	a10, 3, 199d <Pitch_by_Corel+0x4f9>
    199a:	004706        	j	1aba <Pitch_by_Corel+0x616>
    199d:	4181e0        	srli	a8, a14, 1
    19a0:	c08c80        	sub	a8, a12, a8
    19a3:	608180        	abs	a8, a8
    19a6:	02ad87        	bge	a13, a8, 19ac <Pitch_by_Corel+0x508>
    19a9:	004346        	j	1aba <Pitch_by_Corel+0x616>
    19ac:	18c1d2        	addi	a13, a1, 24
    19af:	608d04        	ae_lq32f.i	aeq2, a13, 0
    19b2:	35a074        	ae_sraiq56	aeq2, aeq2, 1
    19b5:	fbf3c1c1ce 	{ addi	a12, a1, 28; ae_roundsp16q48sym	aep7, aeq2 }
    19ba:	427c04        	ae_sp16f.l.i	aep7, a12, 0
    19bd:	0e11b2        	l16ui	a11, a1, 28
    19c0:	f7cbb2        	addi	a11, a11, -9
    19c3:	9bbd           	ae_zext16	a11, a11
    19c5:	0e51b2        	s16i	a11, a1, 28

000019c8 <Pitch_by_Corel+0x524>:
    19c8:	9a1b           	addi.n	a9, a10, 1

000019ca <Pitch_by_Corel+0x526>:
    19ca:	b1e8           	l32i.n	a14, a1, 44
    19cc:	095392        	s16i	a9, a3, 18
    19cf:	fe1ee2        	l16ui	a14, a14, 0x1fc
    19d2:	07de16        	beqz	a14, 1a53 <Pitch_by_Corel+0x5af>
    19d5:	7369           	s32i.n	a6, a3, 28

000019d7 <Pitch_by_Corel+0x533>:
    19d7:	b1f8           	l32i.n	a15, a1, 44
    19d9:	fe5fb2        	s16i	a11, a15, 0x1fc
    19dc:	0b9c           	beqz.n	a11, 19f0 <Pitch_by_Corel+0x54c>
    19de:	9c0c           	movi.n	a12, 9
    19e0:	f9d081        	l32r	a8, 120 (21ec <Xfrac_num_pd_td32>)
    19e3:	a0ab30        	addx4	a10, a11, a3
    19e6:	aa5a           	add.n	a10, a10, a5
    19e8:	0008e0        	callx8	a8

000019eb <Pitch_by_Corel+0x547>:
    19eb:	1063a2        	s32i	a10, a3, 64
    19ee:	f01d           	retw.n

000019f0 <Pitch_by_Corel+0x54c>:
    19f0:	06ad           	mov.n	a10, a6
    19f2:	fffd46        	j	19eb <Pitch_by_Corel+0x547>

000019f5 <Pitch_by_Corel+0x551>:
    19f5:	39cc           	bnez.n	a9, 19fc <Pitch_by_Corel+0x558>
    19f7:	b1b8           	l32i.n	a11, a1, 44
    19f9:	fe5b62        	s16i	a6, a11, 0x1fc

000019fc <Pitch_by_Corel+0x558>:
    19fc:	069d           	mov.n	a9, a6
    19fe:	0b0c           	movi.n	a11, 0
    1a00:	0e51b2        	s16i	a11, a1, 28
    1a03:	fff0c6        	j	19ca <Pitch_by_Corel+0x526>

00001a06 <Pitch_by_Corel+0x562>:
    1a06:	3acc           	bnez.n	a10, 1a0d <Pitch_by_Corel+0x569>
    1a08:	b1c8           	l32i.n	a12, a1, 44
    1a0a:	fe5c62        	s16i	a6, a12, 0x1fc

00001a0d <Pitch_by_Corel+0x569>:
    1a0d:	069d           	mov.n	a9, a6
    1a0f:	0b0c           	movi.n	a11, 0
    1a11:	0e51b2        	s16i	a11, a1, 28
    1a14:	ffec86        	j	19ca <Pitch_by_Corel+0x526>

00001a17 <Pitch_by_Corel+0x573>:
    1a17:	600a04        	ae_lq32f.i	aeq0, a10, 0
    1a1a:	f9dcf1        	l32r	a15, 18c (100000 <_end+0xf0aa0>)
    1a1d:	399ff4        	ae_movpa24x2	aep1, a15, a15
    1a20:	081214        	ae_mularfq32sp24s.h	aeq0, aeq0, aep1
    1a23:	ff00c0c1ee 	{ addi	a14, a1, 12; ae_satq48s	aeq3, aeq0 }
    1a28:	623e04        	ae_sq32f.i	aeq3, a14, 0
    1a2b:	31a8           	l32i.n	a10, a1, 12
    1a2d:	022ab7        	blt	a10, a11, 1a33 <Pitch_by_Corel+0x58f>
    1a30:	ff0fc6        	j	1673 <Pitch_by_Corel+0x1cf>
    1a33:	0a9d           	mov.n	a9, a10
    1a35:	f9d681        	l32r	a8, 190 (7fbe77 <_end+0x7ec917>)
    1a38:	399884        	ae_movpa24x2	aep1, a8, a8
    1a3b:	ff0bc6        	j	166e <Pitch_by_Corel+0x1ca>

00001a3e <Pitch_by_Corel+0x59a>:
	...

00001a3f <Pitch_by_Corel+0x59b>:
    1a3f:	091392        	l16ui	a9, a3, 18
    1a42:	39cc           	bnez.n	a9, 1a49 <Pitch_by_Corel+0x5a5>
    1a44:	b1a8           	l32i.n	a10, a1, 44
    1a46:	fe5a62        	s16i	a6, a10, 0x1fc

00001a49 <Pitch_by_Corel+0x5a5>:
    1a49:	069d           	mov.n	a9, a6
    1a4b:	0b0c           	movi.n	a11, 0
    1a4d:	0e51b2        	s16i	a11, a1, 28
    1a50:	ffdd86        	j	19ca <Pitch_by_Corel+0x526>

00001a53 <Pitch_by_Corel+0x5af>:
    1a53:	6369           	s32i.n	a6, a3, 24
    1a55:	0a0c           	movi.n	a10, 0
    1a57:	0b0c           	movi.n	a11, 0
    1a59:	040c           	movi.n	a4, 0
    1a5b:	bc2c           	movi.n	a12, 43
    1a5d:	10ac76        	loopgtz	a12, 1a71 <Pitch_by_Corel+0x5cd>
    1a60:	90c430        	addx2	a12, a4, a3
    1a63:	fc1cc2        	l16ui	a12, a12, 0x1f8
    1a66:	03bac7        	bgeu	a10, a12, 1a6d <Pitch_by_Corel+0x5c9>
    1a69:	0cad           	mov.n	a10, a12
    1a6b:	04bd           	mov.n	a11, a4

00001a6d <Pitch_by_Corel+0x5c9>:
    1a6d:	441b           	addi.n	a4, a4, 1
    1a6f:	844d           	ae_sext16	a4, a4

00001a71 <Pitch_by_Corel+0x5cd>:
    1a71:	2f4ab6        	bltui	a10, 4, 1aa4 <Pitch_by_Corel+0x600>
    1a74:	a0ab30        	addx4	a10, a11, a3
    1a77:	10c1c2        	addi	a12, a1, 16
    1a7a:	f9c6d1        	l32r	a13, 194 (ccccd <_end+0xbd76d>)
    1a7d:	39add4        	ae_movpa24x2	aep2, a13, a13
    1a80:	60cc04        	ae_lq32f.i	aeq3, a12, 0
    1a83:	08aad4        	ae_mularfq32sp24s.h	aeq3, aeq3, aep2
    1a86:	60ba54        	ae_lq32f.xu	aeq2, a10, a5
    1a89:	fd84fb218f 	{ ae_sraiq56	aeq2, aeq2, 4; ae_satq48s	aeq1, aeq3 }
    1a8e:	09a1c4        	ae_ltq56s	b12, aeq1, aeq2
    1a91:	0f0c76        	bf	b12, 1aa4 <Pitch_by_Corel+0x600>
    1a94:	f9a381        	l32r	a8, 120 (21ec <Xfrac_num_pd_td32>)
    1a97:	9c0c           	movi.n	a12, 9
    1a99:	0008e0        	callx8	a8

00001a9c <Pitch_by_Corel+0x5f8>:
    1a9c:	73a9           	s32i.n	a10, a3, 28
    1a9e:	0e11b2        	l16ui	a11, a1, 28
    1aa1:	ffcc86        	j	19d7 <Pitch_by_Corel+0x533>

00001aa4 <Pitch_by_Corel+0x600>:
    1aa4:	06ad           	mov.n	a10, a6
    1aa6:	fffc86        	j	1a9c <Pitch_by_Corel+0x5f8>

00001aa9 <Pitch_by_Corel+0x605>:
    1aa9:	f97cc1        	l32r	a12, 9c (f554 <p_ecnr_mem>)
    1aac:	0cc8           	l32i.n	a12, a12, 0
    1aae:	19dcc2        	addmi	a12, a12, 0x1900
    1ab1:	a4ccc2        	addi	a12, a12, -92
    1ab4:	7f2cc2        	l32i	a12, a12, 0x1fc
    1ab7:	ffadc6        	j	1972 <Pitch_by_Corel+0x4ce>

00001aba <Pitch_by_Corel+0x616>:
    1aba:	b1d8           	l32i.n	a13, a1, 44
    1abc:	069d           	mov.n	a9, a6
    1abe:	fe5d62        	s16i	a6, a13, 0x1fc
    1ac1:	ffc146        	j	19ca <Pitch_by_Corel+0x526>

00001ac4 <PD_TD_prcs>:
    1ac4:	004136        	entry	a1, 32
    1ac7:	f97531        	l32r	a3, 9c (f554 <p_ecnr_mem>)
    1aca:	f9b341        	l32r	a4, 198 (5534 <Voice_WB_TX_Inear_Prcs_V2+0xbf0>)
    1acd:	03b8           	l32i.n	a11, a3, 0
    1acf:	2c3c           	movi.n	a12, 50
    1ad1:	f97c81        	l32r	a8, c4 (c738 <xt_memcpy>)
    1ad4:	1adb22        	addmi	a2, a11, 0x1a00
    1ad7:	292222        	l32i	a2, a2, 164
    1ada:	55dbb2        	addmi	a11, a11, 0x5500
    1add:	34cbb2        	addi	a11, a11, 52
    1ae0:	9cc222        	addi	a2, a2, -100
    1ae3:	02ad           	mov.n	a10, a2
    1ae5:	0008e0        	callx8	a8
    1ae8:	f9ad51        	l32r	a5, 19c (54f0 <Voice_WB_TX_Inear_Prcs_V2+0xbac>)
    1aeb:	03b8           	l32i.n	a11, a3, 0
    1aed:	02ad           	mov.n	a10, a2
    1aef:	f9ac81        	l32r	a8, 1a0 (14a4 <Pitch_by_Corel>)
    1af2:	55dbb2        	addmi	a11, a11, 0x5500
    1af5:	f0cbb2        	addi	a11, a11, -16
    1af8:	0008e0        	callx8	a8
    1afb:	03b8           	l32i.n	a11, a3, 0
    1afd:	f9a881        	l32r	a8, 1a0 (14a4 <Pitch_by_Corel>)
    1b00:	3cc2a2        	addi	a10, a2, 60
    1b03:	bb5a           	add.n	a11, a11, a5
    1b05:	0008e0        	callx8	a8
    1b08:	78c2b2        	addi	a11, a2, 120
    1b0b:	03a8           	l32i.n	a10, a3, 0
    1b0d:	f96d81        	l32r	a8, c4 (c738 <xt_memcpy>)
    1b10:	2c3c           	movi.n	a12, 50
    1b12:	aa4a           	add.n	a10, a10, a4
    1b14:	0008e0        	callx8	a8
    1b17:	f01d           	retw.n

00001b19 <PD_TD_prcs+0x55>:
    1b19:	000000                                        ...

00001b1c <pitch_by_harmonic>:
    1b1c:	00c136        	entry	a1, 96
    1b1f:	f9a161        	l32r	a6, 1a4 (aaaab <_end+0x9b54b>)
    1b22:	080c           	movi.n	a8, 0
    1b24:	03cd           	mov.n	a12, a3
    1b26:	029d           	mov.n	a9, a2
    1b28:	f95d31        	l32r	a3, 9c (f554 <p_ecnr_mem>)
    1b2b:	9199           	s32i.n	a9, a1, 36
    1b2d:	a1c9           	s32i.n	a12, a1, 40
    1b2f:	0338           	l32i.n	a3, a3, 0
    1b31:	042d           	mov.n	a2, a4
    1b33:	145982        	s16i	a8, a9, 40
    1b36:	55d372        	addmi	a7, a3, 0x5500
    1b39:	53d3e2        	addmi	a14, a3, 0x5300
    1b3c:	822ef2        	l32i	a15, a14, 0x208
    1b3f:	f0c772        	addi	a7, a7, -16
    1b42:	4ecb           	addi.n	a4, a14, 12
    1b44:	460f16        	beqz	a15, 1fa8 <pitch_by_harmonic+0x48c>
    1b47:	11cf20        	slli	a12, a15, 14
    1b4a:	d5d2f0        	extui	a13, a15, 18, 14
    1b4d:	f99681        	l32r	a8, 1a8 (c7c0 <__udivdi3>)
    1b50:	f959b1        	l32r	a11, b4 (80000000 <_end+0x7fff0aa0>)
    1b53:	0a0c           	movi.n	a10, 0
    1b55:	0008e0        	callx8	a8
    1b58:	1d0c           	movi.n	a13, 1
    1b5a:	ee3c           	movi.n	a14, 62
    1b5c:	01a9           	s32i.n	a10, a1, 0
    1b5e:	02d492        	addmi	a9, a4, 0x200
    1b61:	8324b2        	l32i	a11, a4, 0x20c
    1b64:	5c0c           	movi.n	a12, 5
    1b66:	0859c2        	s16i	a12, a9, 16
    1b69:	021be6        	bgei	a11, 1, 1b6f <pitch_by_harmonic+0x53>
    1b6c:	015a86        	j	20da <pitch_by_harmonic+0x5be>
    1b6f:	f98ff1        	l32r	a15, 1ac (5518 <Voice_WB_TX_Inear_Prcs_V2+0xbd4>)
    1b72:	398664        	ae_movpa24x2	aep0, a6, a6
    1b75:	60a3f4        	ae_lq32f.x	aeq2, a3, a15
    1b78:	fa003d210f 	{ ae_lq32f.i	aeq1, a1, 0; ae_mulfq32sp24s.h	aeq0, aeq2, aep0 }
    1b7d:	06da14        	ae_subsq56s	aeq3, aeq1, aeq2
    1b80:	068b44        	ae_satq48s	aeq2, aeq3
    1b83:	067a24        	ae_abssq56s	aeq1, aeq2
    1b86:	099004        	ae_ltq56s	b0, aeq0, aeq1
    1b89:	021076        	bt	b0, 1b8f <pitch_by_harmonic+0x73>
    1b8c:	013bc6        	j	207f <pitch_by_harmonic+0x563>
    1b8f:	0a9982        	l16si	a8, a9, 20
    1b92:	4c3c           	movi.n	a12, 52
    1b94:	0959c2        	s16i	a12, a9, 18
    1b97:	0338a6        	blti	a8, 3, 1b9e <pitch_by_harmonic+0x82>
    1b9a:	0bad           	mov.n	a10, a11
    1b9c:	01b9           	s32i.n	a11, a1, 0

00001b9e <pitch_by_harmonic+0x82>:
    1b9e:	219aa0        	srai	a9, a10, 10
    1ba1:	02d4e2        	addmi	a14, a4, 0x200
    1ba4:	0d5ed2        	s16i	a13, a14, 26

00001ba7 <pitch_by_harmonic+0x8b>:
    1ba7:	826492        	s32i	a9, a4, 0x208
    1baa:	8164a2        	s32i	a10, a4, 0x204
    1bad:	000106        	j	1bb5 <pitch_by_harmonic+0x99>

00001bb0 <pitch_by_harmonic+0x94>:
    1bb0:	0a0c           	movi.n	a10, 0
    1bb2:	846ea2        	s32i	a10, a14, 0x210

00001bb5 <pitch_by_harmonic+0x99>:
    1bb5:	021ae6        	bgei	a10, 1, 1bbb <pitch_by_harmonic+0x9f>
    1bb8:	014a86        	j	20e6 <pitch_by_harmonic+0x5ca>
    1bbb:	a168           	l32i.n	a6, a1, 40
    1bbd:	030c           	movi.n	a3, 0
    1bbf:	a06620        	addx4	a6, a6, a2

00001bc2 <pitch_by_harmonic+0xa6>:
    1bc2:	a0a320        	addx4	a10, a3, a2
    1bc5:	1aa8           	l32i.n	a10, a10, 4
    1bc7:	1143e0        	slli	a4, a3, 2
    1bca:	f97981        	l32r	a8, 1b0 (9ac <Log2_norm>)
    1bcd:	40eac0        	nsa	a12, a10
    1bd0:	c0b5c0        	sub	a11, a5, a12
    1bd3:	401c00        	ssl	a12
    1bd6:	a1aa00        	sll	a10, a10
    1bd9:	0008e0        	callx8	a8
    1bdc:	1b4c           	movi.n	a11, 65
    1bde:	331b           	addi.n	a3, a3, 1
    1be0:	846a           	add.n	a8, a4, a6
    1be2:	08a9           	s32i.n	a10, a8, 0
    1be4:	833d           	ae_sext16	a3, a3
    1be6:	d893b7        	bne	a3, a11, 1bc2 <pitch_by_harmonic+0xa6>
    1be9:	8169           	s32i.n	a6, a1, 32
    1beb:	84a1c2        	movi	a12, 0x184
    1bee:	04a192        	movi	a9, 0x104
    1bf1:	1797a2        	l16si	a10, a7, 46
    1bf4:	1697b2        	l16si	a11, a7, 44
    1bf7:	080c           	movi.n	a8, 0
    1bf9:	1d5782        	s16i	a8, a7, 58
    1bfc:	1c5782        	s16i	a8, a7, 56
    1bff:	a04b60        	addx4	a4, a11, a6
    1c02:	fcc442        	addi	a4, a4, -4
    1c05:	c0aab0        	sub	a10, a10, a11
    1c08:	8aad           	ae_sext16	a10, a10
    1c0a:	c1a9           	s32i.n	a10, a1, 48
    1c0c:	021ae6        	bgei	a10, 1, 1c12 <pitch_by_harmonic+0xf6>
    1c0f:	002fc6        	j	1cd2 <pitch_by_harmonic+0x1b6>
    1c12:	f96821        	l32r	a2, 1b4 (5000000 <_end+0x4ff0aa0>)
    1c15:	050c           	movi.n	a5, 0
    1c17:	8169           	s32i.n	a6, a1, 32
    1c19:	04ae32        	movi	a3, 0xfffffe04
    1c1c:	343a           	add.n	a3, a4, a3

00001c1e <pitch_by_harmonic+0x102>:
    1c1e:	f96681        	l32r	a8, 1b8 (20fc <XMAX6>)
    1c21:	f4c4a2        	addi	a10, a4, -12
    1c24:	0008e0        	callx8	a8
    1c27:	f96481        	l32r	a8, 1b8 (20fc <XMAX6>)
    1c2a:	0a6d           	mov.n	a6, a10
    1c2c:	f8c4a2        	addi	a10, a4, -8
    1c2f:	0008e0        	callx8	a8
    1c32:	7f23b2        	l32i	a11, a3, 0x1fc
    1c35:	8123e2        	l32i	a14, a3, 0x204
    1c38:	7d2392        	l32i	a9, a3, 0x1f4
    1c3b:	0216b7        	beq	a6, a11, 1c41 <pitch_by_harmonic+0x125>
    1c3e:	1f9ab7        	bne	a10, a11, 1c61 <pitch_by_harmonic+0x145>

00001c41 <pitch_by_harmonic+0x125>:
    1c41:	992a           	add.n	a9, a9, a2
    1c43:	0a29b7        	blt	a9, a11, 1c51 <pitch_by_harmonic+0x135>
    1c46:	f95dd1        	l32r	a13, 1bc (c000000 <_end+0xbff0aa0>)
    1c49:	7e23c2        	l32i	a12, a3, 0x1f8
    1c4c:	ccda           	add.n	a12, a12, a13
    1c4e:	0facb7        	bge	a12, a11, 1c61 <pitch_by_harmonic+0x145>

00001c51 <pitch_by_harmonic+0x135>:
    1c51:	ee2a           	add.n	a14, a14, a2
    1c53:	242eb7        	blt	a14, a11, 1c7b <pitch_by_harmonic+0x15f>
    1c56:	f95981        	l32r	a8, 1bc (c000000 <_end+0xbff0aa0>)
    1c59:	8023f2        	l32i	a15, a3, 0x200
    1c5c:	ff8a           	add.n	a15, a15, a8
    1c5e:	192fb7        	blt	a15, a11, 1c7b <pitch_by_harmonic+0x15f>
    1c61:	6798           	l32i.n	a9, a7, 24
    1c63:	53c6a0        	max	a12, a6, a10
    1c66:	052916        	beqz	a9, 1cbc <pitch_by_harmonic+0x1a0>
    1c69:	4f9bc7        	bne	a11, a12, 1cbc <pitch_by_harmonic+0x1a0>
    1c6c:	8323e2        	l32i	a14, a3, 0x20c
    1c6f:	7b23d2        	l32i	a13, a3, 0x1ec
    1c72:	43dde0        	min	a13, a13, a14
    1c75:	43adb7        	bge	a13, a11, 1cbc <pitch_by_harmonic+0x1a0>
    1c78:	000846        	j	1c9d <pitch_by_harmonic+0x181>

00001c7b <pitch_by_harmonic+0x15f>:
    1c7b:	04ad           	mov.n	a10, a4
    1c7d:	1697b2        	l16si	a11, a7, 44
    1c80:	f92881        	l32r	a8, 120 (21ec <Xfrac_num_pd_td32>)
    1c83:	1c0c           	movi.n	a12, 1
    1c85:	bb5a           	add.n	a11, a11, a5
    1c87:	0008e0        	callx8	a8
    1c8a:	81d8           	l32i.n	a13, a1, 32
    1c8c:	1d97c2        	l16si	a12, a7, 58
    1c8f:	a0dcd0        	addx4	a13, a12, a13
    1c92:	416da2        	s32i	a10, a13, 0x104
    1c95:	cc1b           	addi.n	a12, a12, 1
    1c97:	1d57c2        	s16i	a12, a7, 58
    1c9a:	000786        	j	1cbc <pitch_by_harmonic+0x1a0>

00001c9d <pitch_by_harmonic+0x181>:
    1c9d:	04ad           	mov.n	a10, a4
    1c9f:	1697b2        	l16si	a11, a7, 44
    1ca2:	f91f81        	l32r	a8, 120 (21ec <Xfrac_num_pd_td32>)
    1ca5:	1c0c           	movi.n	a12, 1
    1ca7:	bb5a           	add.n	a11, a11, a5
    1ca9:	0008e0        	callx8	a8
    1cac:	81d8           	l32i.n	a13, a1, 32
    1cae:	1c97c2        	l16si	a12, a7, 56
    1cb1:	a0dcd0        	addx4	a13, a12, a13
    1cb4:	616da2        	s32i	a10, a13, 0x184
    1cb7:	cc1b           	addi.n	a12, a12, 1
    1cb9:	1c57c2        	s16i	a12, a7, 56
    1cbc:	444b           	addi.n	a4, a4, 4
    1cbe:	334b           	addi.n	a3, a3, 4
    1cc0:	c1e8           	l32i.n	a14, a1, 48
    1cc2:	551b           	addi.n	a5, a5, 1
    1cc4:	855d           	ae_sext16	a5, a5
    1cc6:	c0ee50        	sub	a14, a14, a5
    1cc9:	f51e56        	bnez	a14, 1c1e <pitch_by_harmonic+0x102>
    1ccc:	04a192        	movi	a9, 0x104
    1ccf:	84a1c2        	movi	a12, 0x184

00001cd2 <pitch_by_harmonic+0x1b6>:
    1cd2:	1d9782        	l16si	a8, a7, 58
    1cd5:	8168           	l32i.n	a6, a1, 32
    1cd7:	0218e6        	bgei	a8, 1, 1cdd <pitch_by_harmonic+0x1c1>
    1cda:	010546        	j	20f3 <pitch_by_harmonic+0x5d7>
    1cdd:	f939e1        	l32r	a14, 1c4 (435e51 <_end+0x4268f1>)
    1ce0:	f938b1        	l32r	a11, 1c0 (1000000 <_end+0xff0aa0>)
    1ce3:	020c           	movi.n	a2, 0
    1ce5:	150c           	movi.n	a5, 1
    1ce7:	d69a           	add.n	a13, a6, a9
    1ce9:	f6ca           	add.n	a15, a6, a12
    1ceb:	1f5752        	s16i	a5, a7, 62
    1cee:	1e5722        	s16i	a2, a7, 60
    1cf1:	b1f9           	s32i.n	a15, a1, 44
    1cf3:	20c7c2        	addi	a12, a7, 32
    1cf6:	24c722        	addi	a2, a7, 36
    1cf9:	050c           	movi.n	a5, 0

00001cfb <pitch_by_harmonic+0x1df>:
    1cfb:	0215e6        	bgei	a5, 1, 1d01 <pitch_by_harmonic+0x1e5>
    1cfe:	0039c6        	j	1de9 <pitch_by_harmonic+0x2cd>
    1d01:	8798           	l32i.n	a9, a7, 32
    1d03:	60cdf4        	ae_lq32f.i	aeq3, a13, -4
    1d06:	608d04        	ae_lq32f.i	aeq2, a13, 0
    1d09:	f9d68081ae 	{ addi	a10, a1, 8; ae_subsq56s	aeq1, aeq2, aeq3 }
    1d0e:	355064        	ae_srliq56	aeq1, aeq1, 1
    1d11:	621a04        	ae_sq32f.i	aeq1, a10, 0
    1d14:	2188           	l32i.n	a8, a1, 8
    1d16:	31cb           	addi.n	a3, a1, 12
    1d18:	214c90        	srai	a4, a9, 12
    1d1b:	d28840        	quos	a8, a8, a4
    1d1e:	3189           	s32i.n	a8, a1, 12
    1d20:	608304        	ae_lq32f.i	aeq2, a3, 0
    1d23:	3623d4        	ae_sllisq56s	aeq0, aeq2, 15
    1d26:	f8e3fd6c0f 	{ ae_lq32f.i	aeq3, a12, 0; ae_roundsp16q48sym	aep1, aeq0 }
    1d2b:	039bc4        	ae_mulq32sp16s.h	aeq3, aeq3, aep1
    1d2e:	369294        	ae_sllisq56s	aeq2, aeq1, 10
    1d31:	3633d4        	ae_sllisq56s	aeq0, aeq3, 15
    1d34:	06ca14        	ae_subsq56s	aeq3, aeq0, aeq2
    1d37:	ff84becbbf 	{ ae_cvtq48a32s	aeq2, a11; ae_absq56	aeq3, aeq3 }
    1d3c:	09a314        	ae_ltq56s	b1, aeq3, aeq2
    1d3f:	10c1f2        	addi	a15, a1, 16
    1d42:	421f04        	ae_sp16f.l.i	aep1, a15, 0
    1d45:	2b0176        	bf	b1, 1d74 <pitch_by_harmonic+0x258>
    1d48:	0891a2        	l16si	a10, a1, 16
    1d4b:	1b9792        	l16si	a9, a7, 54
    1d4e:	361054        	ae_sllisq56s	aeq0, aeq1, 1
    1d51:	99aa           	add.n	a9, a9, a10
    1d53:	1b5792        	s16i	a9, a7, 54
    1d56:	60c204        	ae_lq32f.i	aeq3, a2, 0
    1d59:	06b804        	ae_addsq56s	aeq2, aeq3, aeq0
    1d5c:	060a44        	ae_satq48s	aeq0, aeq2
    1d5f:	620204        	ae_sq32f.i	aeq0, a2, 0
    1d62:	1b9782        	l16si	a8, a7, 54
    1d65:	97f8           	l32i.n	a15, a7, 36
    1d67:	130c           	movi.n	a3, 1
    1d69:	d2ff80        	quos	a15, a15, a8
    1d6c:	11ff60        	slli	a15, a15, 10
    1d6f:	87f9           	s32i.n	a15, a7, 32
    1d71:	001e06        	j	1ded <pitch_by_harmonic+0x2d1>

00001d74 <pitch_by_harmonic+0x258>:
    1d74:	6a25a6        	blti	a5, 2, 1de2 <pitch_by_harmonic+0x2c6>
    1d77:	604de4        	ae_lq32f.i	aeq1, a13, -8
    1d7a:	600d04        	ae_lq32f.i	aeq0, a13, 0
    1d7d:	06c914        	ae_subsq56s	aeq3, aeq0, aeq1
    1d80:	35f064        	ae_srliq56	aeq3, aeq3, 1
    1d83:	623a04        	ae_sq32f.i	aeq3, a10, 0
    1d86:	2188           	l32i.n	a8, a1, 8
    1d88:	d28840        	quos	a8, a8, a4
    1d8b:	3189           	s32i.n	a8, a1, 12
    1d8d:	600304        	ae_lq32f.i	aeq0, a3, 0
    1d90:	3643d4        	ae_sllisq56s	aeq1, aeq0, 15
    1d93:	f9ebbd0c0f 	{ ae_lq32f.i	aeq0, a12, 0; ae_roundsp16q48sym	aep2, aeq1 }
    1d98:	032304        	ae_mulq32sp16s.h	aeq0, aeq0, aep2
    1d9b:	367294        	ae_sllisq56s	aeq1, aeq3, 10
    1d9e:	3603d4        	ae_sllisq56s	aeq0, aeq0, 15
    1da1:	064914        	ae_subsq56s	aeq1, aeq0, aeq1
    1da4:	fd0480003f 	{ movi	a3, 0; ae_absq56	aeq1, aeq1 }
    1da9:	d654b22f0f 	{ ae_sp16f.l.i	aep2, a15, 0; ae_ltq56s	b2, aeq1, aeq2 }
    1dae:	09fd           	mov.n	a15, a9
    1db0:	0891a2        	l16si	a10, a1, 16
    1db3:	280276        	bf	b2, 1ddf <pitch_by_harmonic+0x2c3>
    1db6:	1b9792        	l16si	a9, a7, 54
    1db9:	36b054        	ae_sllisq56s	aeq2, aeq3, 1
    1dbc:	99aa           	add.n	a9, a9, a10
    1dbe:	1b5792        	s16i	a9, a7, 54
    1dc1:	604204        	ae_lq32f.i	aeq1, a2, 0
    1dc4:	061a04        	ae_addsq56s	aeq0, aeq1, aeq2
    1dc7:	068844        	ae_satq48s	aeq2, aeq0
    1dca:	622204        	ae_sq32f.i	aeq2, a2, 0
    1dcd:	1b9782        	l16si	a8, a7, 54
    1dd0:	97f8           	l32i.n	a15, a7, 36
    1dd2:	130c           	movi.n	a3, 1
    1dd4:	d2ff80        	quos	a15, a15, a8
    1dd7:	11ff60        	slli	a15, a15, 10
    1dda:	87f9           	s32i.n	a15, a7, 32
    1ddc:	000346        	j	1ded <pitch_by_harmonic+0x2d1>

00001ddf <pitch_by_harmonic+0x2c3>:
    1ddf:	000286        	j	1ded <pitch_by_harmonic+0x2d1>

00001de2 <pitch_by_harmonic+0x2c6>:
    1de2:	09fd           	mov.n	a15, a9
    1de4:	030c           	movi.n	a3, 0
    1de6:	0000c6        	j	1ded <pitch_by_harmonic+0x2d1>

00001de9 <pitch_by_harmonic+0x2cd>:
    1de9:	87f8           	l32i.n	a15, a7, 32
    1deb:	030c           	movi.n	a3, 0

00001ded <pitch_by_harmonic+0x2d1>:
    1ded:	f8f4b1        	l32r	a11, 1c0 (1000000 <_end+0xff0aa0>)
    1df0:	1cc142        	addi	a4, a1, 28
    1df3:	60cc04        	ae_lq32f.i	aeq3, a12, 0
    1df6:	18c182        	addi	a8, a1, 24
    1df9:	14c1a2        	addi	a10, a1, 20
    1dfc:	219bf0        	srai	a9, a15, 11
    1dff:	a0f560        	addx4	a15, a5, a6
    1e02:	412ff2        	l32i	a15, a15, 0x104
    1e05:	51f9           	s32i.n	a15, a1, 20
    1e07:	604a04        	ae_lq32f.i	aeq1, a10, 0
    1e0a:	d29f90        	quos	a9, a15, a9
    1e0d:	6199           	s32i.n	a9, a1, 24
    1e0f:	608804        	ae_lq32f.i	aeq2, a8, 0
    1e12:	3623d4        	ae_sllisq56s	aeq0, aeq2, 15
    1e15:	f9e3fad29f 	{ ae_sllisq56s	aeq2, aeq1, 9; ae_roundsp16q48sym	aep3, aeq0 }
    1e1a:	fb2d72340f 	{ ae_sp16f.l.i	aep3, a4, 0; ae_mulq32sp16s.h	aeq3, aeq3, aep3 }
    1e1f:	0e9192        	l16si	a9, a1, 28
    1e22:	3673d4        	ae_sllisq56s	aeq1, aeq3, 15
    1e25:	061a14        	ae_subsq56s	aeq0, aeq1, aeq2
    1e28:	061864        	ae_absq56	aeq0, aeq0
    1e2b:	081966        	bnei	a9, 1, 1e37 <pitch_by_harmonic+0x31b>
    1e2e:	f8e681        	l32r	a8, 1c8 (99999a <_end+0x98a43a>)
    1e31:	364834        	ae_cvtq48a32s	aeq1, a8
    1e34:	000386        	j	1e46 <pitch_by_harmonic+0x32a>

00001e37 <pitch_by_harmonic+0x31b>:
    1e37:	082966        	bnei	a9, 2, 1e43 <pitch_by_harmonic+0x327>
    1e3a:	f8e4a1        	l32r	a10, 1cc (cccccd <_end+0xcbd76d>)
    1e3d:	364a34        	ae_cvtq48a32s	aeq1, a10
    1e40:	000086        	j	1e46 <pitch_by_harmonic+0x32a>

00001e43 <pitch_by_harmonic+0x327>:
    1e43:	364b34        	ae_cvtq48a32s	aeq1, a11
    1e46:	438c           	beqz.n	a3, 1e4e <pitch_by_harmonic+0x332>
    1e48:	39cee4        	ae_movpa24x2	aep4, a14, a14
    1e4b:	084514        	ae_mulrfq32sp24s.l	aeq0, aeq0, aep4

00001e4e <pitch_by_harmonic+0x332>:
    1e4e:	d648c04dde 	{ addi	a13, a13, 4; ae_ltq56s	b3, aeq0, aeq1 }
    1e53:	551b           	addi.n	a5, a5, 1
    1e55:	855d           	ae_sext16	a5, a5
    1e57:	3c0376        	bf	b3, 1e97 <pitch_by_harmonic+0x37b>
    1e5a:	2629a6        	blti	a9, 2, 1e84 <pitch_by_harmonic+0x368>
    1e5d:	1b97a2        	l16si	a10, a7, 54
    1e60:	14c1f2        	addi	a15, a1, 20
    1e63:	608f04        	ae_lq32f.i	aeq2, a15, 0
    1e66:	aa9a           	add.n	a10, a10, a9
    1e68:	1b57a2        	s16i	a10, a7, 54
    1e6b:	604204        	ae_lq32f.i	aeq1, a2, 0
    1e6e:	061a04        	ae_addsq56s	aeq0, aeq1, aeq2
    1e71:	06c844        	ae_satq48s	aeq3, aeq0
    1e74:	623204        	ae_sq32f.i	aeq3, a2, 0
    1e77:	1b9782        	l16si	a8, a7, 54
    1e7a:	97f8           	l32i.n	a15, a7, 36
    1e7c:	d2ff80        	quos	a15, a15, a8
    1e7f:	11ff60        	slli	a15, a15, 10
    1e82:	87f9           	s32i.n	a15, a7, 32

00001e84 <pitch_by_harmonic+0x368>:
    1e84:	1e9782        	l16si	a8, a7, 60
    1e87:	881b           	addi.n	a8, a8, 1
    1e89:	1e5782        	s16i	a8, a7, 60
    1e8c:	156907        	bbci	a9, 0, 1ea5 <pitch_by_harmonic+0x389>
    1e8f:	090c           	movi.n	a9, 0
    1e91:	1f5792        	s16i	a9, a7, 62
    1e94:	000346        	j	1ea5 <pitch_by_harmonic+0x389>

00001e97 <pitch_by_harmonic+0x37b>:
    1e97:	1c97a2        	l16si	a10, a7, 56
    1e9a:	a08a60        	addx4	a8, a10, a6
    1e9d:	6168f2        	s32i	a15, a8, 0x184
    1ea0:	aa1b           	addi.n	a10, a10, 1
    1ea2:	1c57a2        	s16i	a10, a7, 56

00001ea5 <pitch_by_harmonic+0x389>:
    1ea5:	1d9792        	l16si	a9, a7, 58
    1ea8:	02a597        	bge	a5, a9, 1eae <pitch_by_harmonic+0x392>
    1eab:	ff9306        	j	1cfb <pitch_by_harmonic+0x1df>
    1eae:	91a8           	l32i.n	a10, a1, 36
    1eb0:	1c9782        	l16si	a8, a7, 56
    1eb3:	1e9792        	l16si	a9, a7, 60
    1eb6:	145a92        	s16i	a9, a10, 40
    1eb9:	6318a6        	blti	a8, 1, 1f20 <pitch_by_harmonic+0x404>
    1ebc:	050c           	movi.n	a5, 0
    1ebe:	b1b8           	l32i.n	a11, a1, 44
    1ec0:	f8c4d1        	l32r	a13, 1d0 (159999a <_end+0x158a43a>)
    1ec3:	368d34        	ae_cvtq48a32s	aeq2, a13

00001ec6 <pitch_by_harmonic+0x3aa>:
    1ec6:	60cc04        	ae_lq32f.i	aeq3, a12, 0
    1ec9:	18c182        	addi	a8, a1, 24
    1ecc:	87a8           	l32i.n	a10, a7, 32
    1ece:	0b98           	l32i.n	a9, a11, 0
    1ed0:	5199           	s32i.n	a9, a1, 20
    1ed2:	21aba0        	srai	a10, a10, 11
    1ed5:	d299a0        	quos	a9, a9, a10
    1ed8:	6199           	s32i.n	a9, a1, 24
    1eda:	604804        	ae_lq32f.i	aeq1, a8, 0
    1edd:	3613d4        	ae_sllisq56s	aeq0, aeq1, 15
    1ee0:	fae3c141fe 	{ addi	a15, a1, 20; ae_roundsp16q48sym	aep5, aeq0 }
    1ee5:	fb357d0f0f 	{ ae_lq32f.i	aeq0, a15, 0; ae_mulq32sp16s.h	aeq3, aeq3, aep5 }
    1eea:	364254        	ae_sllisq56s	aeq1, aeq0, 9
    1eed:	3633d4        	ae_sllisq56s	aeq0, aeq3, 15
    1ef0:	fb4680155e 	{ addi	a5, a5, 1; ae_subsq56s	aeq3, aeq0, aeq1 }
    1ef5:	ff8481c1ee 	{ addi	a14, a1, 28; ae_absq56	aeq3, aeq3 }
    1efa:	d6d5004bbe 	{ addi	a11, a11, 4; ae_ltq56s	b4, aeq3, aeq2 }
    1eff:	1c9782        	l16si	a8, a7, 56
    1f02:	425e04        	ae_sp16f.l.i	aep5, a14, 0
    1f05:	120476        	bf	b4, 1f1b <pitch_by_harmonic+0x3ff>
    1f08:	1e97e2        	l16si	a14, a7, 60
    1f0b:	0f0c           	movi.n	a15, 0
    1f0d:	0e91d2        	l16si	a13, a1, 28
    1f10:	ee1b           	addi.n	a14, a14, 1
    1f12:	1e57e2        	s16i	a14, a7, 60
    1f15:	026d07        	bbci	a13, 0, 1f1b <pitch_by_harmonic+0x3ff>
    1f18:	1f57f2        	s16i	a15, a7, 62
    1f1b:	855d           	ae_sext16	a5, a5
    1f1d:	a52587        	blt	a5, a8, 1ec6 <pitch_by_harmonic+0x3aa>

00001f20 <pitch_by_harmonic+0x404>:
    1f20:	1f97b2        	l16si	a11, a7, 62
    1f23:	1e97a2        	l16si	a10, a7, 60
    1f26:	135b16        	beqz	a11, 205f <pitch_by_harmonic+0x543>
    1f29:	7798           	l32i.n	a9, a7, 28
    1f2b:	09dc           	bnez.n	a9, 1f3f <pitch_by_harmonic+0x423>
    1f2d:	1e9782        	l16si	a8, a7, 60
    1f30:	0958e6        	bgei	a8, 5, 1f3d <pitch_by_harmonic+0x421>

00001f33 <pitch_by_harmonic+0x417>:
    1f33:	0b0c           	movi.n	a11, 0
    1f35:	090c           	movi.n	a9, 0
    1f37:	1f5792        	s16i	a9, a7, 62
    1f3a:	000d06        	j	1f72 <pitch_by_harmonic+0x456>

00001f3d <pitch_by_harmonic+0x421>:
    1f3d:	198c           	beqz.n	a9, 1f42 <pitch_by_harmonic+0x426>

00001f3f <pitch_by_harmonic+0x423>:
    1f3f:	f03aa6        	blti	a10, 3, 1f33 <pitch_by_harmonic+0x417>
    1f42:	87f8           	l32i.n	a15, a7, 32
    1f44:	f8a4d1        	l32r	a13, 1d4 (13ffffff <_end+0x13ff0a9f>)
    1f47:	e82df7        	blt	a13, a15, 1f33 <pitch_by_harmonic+0x417>
    1f4a:	1897e2        	l16si	a14, a7, 48
    1f4d:	1c3ea6        	blti	a14, 3, 1f6d <pitch_by_harmonic+0x451>
    1f50:	600c04        	ae_lq32f.i	aeq0, a12, 0
    1f53:	f89481        	l32r	a8, 1a4 (aaaab <_end+0x9b54b>)
    1f56:	28c792        	addi	a9, a7, 40
    1f59:	604904        	ae_lq32f.i	aeq1, a9, 0
    1f5c:	fa46a2688f 	{ ae_movpa24x2	aep6, a8, a8; ae_subsq56s	aeq2, aeq0, aeq1 }
    1f61:	08ec64        	ae_mulfq32sp24s.h	aeq3, aeq1, aep6
    1f64:	069a64        	ae_absq56	aeq2, aeq2
    1f67:	09b654        	ae_leq56s	b5, aeq2, aeq3
    1f6a:	c51576        	bt	b5, 1f33 <pitch_by_harmonic+0x417>
    1f6d:	11aff0        	slli	a10, a15, 1
    1f70:	87a9           	s32i.n	a10, a7, 32
    1f72:	0e9b16        	beqz	a11, 205f <pitch_by_harmonic+0x543>
    1f75:	87f8           	l32i.n	a15, a7, 32

00001f77 <pitch_by_harmonic+0x45b>:
    1f77:	281fa6        	blti	a15, 1, 1fa3 <pitch_by_harmonic+0x487>
    1f7a:	600c04        	ae_lq32f.i	aeq0, a12, 0
    1f7d:	f889d1        	l32r	a13, 1a4 (aaaab <_end+0x9b54b>)
    1f80:	28c7b2        	addi	a11, a7, 40
    1f83:	604b04        	ae_lq32f.i	aeq1, a11, 0
    1f86:	fa46a27ddf 	{ ae_movpa24x2	aep7, a13, a13; ae_subsq56s	aeq2, aeq0, aeq1 }
    1f8b:	08fd54        	ae_mulrfq32sp24s.l	aeq3, aeq1, aep7
    1f8e:	069a64        	ae_absq56	aeq2, aeq2
    1f91:	09b264        	ae_ltq56s	b6, aeq2, aeq3
    1f94:	0b0676        	bf	b6, 1fa3 <pitch_by_harmonic+0x487>
    1f97:	189792        	l16si	a9, a7, 48
    1f9a:	991b           	addi.n	a9, a9, 1

00001f9c <pitch_by_harmonic+0x480>:
    1f9c:	185792        	s16i	a9, a7, 48
    1f9f:	a7f9           	s32i.n	a15, a7, 40
    1fa1:	f01d           	retw.n

00001fa3 <pitch_by_harmonic+0x487>:
    1fa3:	090c           	movi.n	a9, 0
    1fa5:	fffcc6        	j	1f9c <pitch_by_harmonic+0x480>

00001fa8 <pitch_by_harmonic+0x48c>:
    1fa8:	832ec2        	l32i	a12, a14, 0x20c
    1fab:	c01c16        	beqz	a12, 1bb0 <pitch_by_harmonic+0x94>
    1fae:	f841b1        	l32r	a11, b4 (80000000 <_end+0x7fff0aa0>)
    1fb1:	0a0c           	movi.n	a10, 0
    1fb3:	d5d2c0        	extui	a13, a12, 18, 14
    1fb6:	f87c81        	l32r	a8, 1a8 (c7c0 <__udivdi3>)
    1fb9:	119c20        	slli	a9, a12, 14
    1fbc:	09cd           	mov.n	a12, a9
    1fbe:	0008e0        	callx8	a8
    1fc1:	01a9           	s32i.n	a10, a1, 0
    1fc3:	f87ab1        	l32r	a11, 1ac (5518 <Voice_WB_TX_Inear_Prcs_V2+0xbd4>)
    1fc6:	f884a1        	l32r	a10, 1d8 (2000000 <_end+0x1ff0aa0>)
    1fc9:	608104        	ae_lq32f.i	aeq2, a1, 0
    1fcc:	35a074        	ae_sraiq56	aeq2, aeq2, 1
    1fcf:	60e3b4        	ae_lq32f.x	aeq3, a3, a11
    1fd2:	066b14        	ae_subsq56s	aeq1, aeq2, aeq3
    1fd5:	060944        	ae_satq48s	aeq0, aeq1
    1fd8:	fe08becaff 	{ ae_cvtq48a32s	aeq3, a10; ae_abssq56s	aeq2, aeq0 }
    1fdd:	09b274        	ae_ltq56s	b7, aeq2, aeq3
    1fe0:	1d0c           	movi.n	a13, 1
    1fe2:	0b0776        	bf	b7, 1ff1 <pitch_by_harmonic+0x4d5>
    1fe5:	60c104        	ae_lq32f.i	aeq3, a1, 0
    1fe8:	35f074        	ae_sraiq56	aeq3, aeq3, 1
    1feb:	623104        	ae_sq32f.i	aeq3, a1, 0
    1fee:	000a06        	j	201a <pitch_by_harmonic+0x4fe>

00001ff1 <pitch_by_harmonic+0x4d5>:
    1ff1:	f86ef1        	l32r	a15, 1ac (5518 <Voice_WB_TX_Inear_Prcs_V2+0xbd4>)
    1ff4:	f873e1        	l32r	a14, 1c0 (1000000 <_end+0xff0aa0>)
    1ff7:	600104        	ae_lq32f.i	aeq0, a1, 0
    1ffa:	6063f4        	ae_lq32f.x	aeq1, a3, a15
    1ffd:	355074        	ae_sraiq56	aeq1, aeq1, 1
    2000:	06c914        	ae_subsq56s	aeq3, aeq0, aeq1
    2003:	068b44        	ae_satq48s	aeq2, aeq3
    2006:	fc88bece7f 	{ ae_cvtq48a32s	aeq1, a14; ae_abssq56s	aeq0, aeq2 }
    200b:	099084        	ae_ltq56s	b8, aeq0, aeq1
    200e:	080876        	bf	b8, 201a <pitch_by_harmonic+0x4fe>
    2011:	60c104        	ae_lq32f.i	aeq3, a1, 0
    2014:	36b054        	ae_sllisq56s	aeq2, aeq3, 1
    2017:	622104        	ae_sq32f.i	aeq2, a1, 0
    201a:	db2c           	movi.n	a11, 45
    201c:	3c2c           	movi.n	a12, 35
    201e:	604104        	ae_lq32f.i	aeq1, a1, 0
    2021:	01a8           	l32i.n	a10, a1, 0
    2023:	02d492        	addmi	a9, a4, 0x200
    2026:	00a7e2        	movi	a14, 0x700
    2029:	399ee4        	ae_movpa24x2	aep1, a14, a14
    202c:	0d59d2        	s16i	a13, a9, 26
    202f:	8164a2        	s32i	a10, a4, 0x204
    2032:	f80540418e 	{ addi	a8, a1, 4; ae_mulfq32sp24s.h	aeq1, aeq1, aep1 }
    2037:	21faa0        	srai	a15, a10, 10
    203a:	361154        	ae_sllisq56s	aeq0, aeq1, 5
    203d:	f8e38009ef 	{ movi	a14, 9; ae_roundsp16q48sym	aep0, aeq0 }
    2042:	420804        	ae_sp16f.l.i	aep0, a8, 0
    2045:	029182        	l16si	a8, a1, 4
    2048:	8264f2        	s32i	a15, a4, 0x208
    204b:	0859e2        	s16i	a14, a9, 16
    204e:	5388c0        	max	a8, a8, a12
    2051:	888d           	ae_sext16	a8, a8
    2053:	4388b0        	min	a8, a8, a11
    2056:	025182        	s16i	a8, a1, 4
    2059:	095982        	s16i	a8, a9, 18
    205c:	fed546        	j	1bb5 <pitch_by_harmonic+0x99>

0000205f <pitch_by_harmonic+0x543>:
    205f:	1e9792        	l16si	a9, a7, 60
    2062:	2c39a6        	blti	a9, 3, 2092 <pitch_by_harmonic+0x576>
    2065:	87f8           	l32i.n	a15, a7, 32
    2067:	f85d81        	l32r	a8, 1dc (a8f5c28 <_end+0xa8e66c8>)
    206a:	08a8f7        	bge	a8, a15, 2076 <pitch_by_harmonic+0x55a>
    206d:	f85c91        	l32r	a9, 1e0 (2eb851ec <_end+0x2eb75c8c>)
    2070:	0229f7        	blt	a9, a15, 2076 <pitch_by_harmonic+0x55a>
    2073:	ffc006        	j	1f77 <pitch_by_harmonic+0x45b>

00002076 <pitch_by_harmonic+0x55a>:
    2076:	0f0c           	movi.n	a15, 0
    2078:	0a0c           	movi.n	a10, 0
    207a:	87a9           	s32i.n	a10, a7, 32
    207c:	ffbdc6        	j	1f77 <pitch_by_harmonic+0x45b>

0000207f <pitch_by_harmonic+0x563>:
    207f:	0959e2        	s16i	a14, a9, 18
    2082:	280c           	movi.n	a8, 2
    2084:	fbaa           	add.n	a15, a11, a10
    2086:	0d5982        	s16i	a8, a9, 26
    2089:	219af0        	srai	a9, a15, 10
    208c:	11a970        	slli	a10, a9, 9
    208f:	fec506        	j	1ba7 <pitch_by_harmonic+0x8b>

00002092 <pitch_by_harmonic+0x576>:
    2092:	3b2966        	bnei	a9, 2, 20d1 <pitch_by_harmonic+0x5b5>
    2095:	189792        	l16si	a9, a7, 48
    2098:	c9ac           	beqz.n	a9, 20c8 <pitch_by_harmonic+0x5ac>
    209a:	87f8           	l32i.n	a15, a7, 32
    209c:	f852a1        	l32r	a10, 1e4 (1f000000 <_end+0x1eff0aa0>)
    209f:	252af7        	blt	a10, a15, 20c8 <pitch_by_harmonic+0x5ac>
    20a2:	f851b1        	l32r	a11, 1e8 (bffffff <_end+0xbff0a9f>)
    20a5:	1fabf7        	bge	a11, a15, 20c8 <pitch_by_harmonic+0x5ac>
    20a8:	600c04        	ae_lq32f.i	aeq0, a12, 0
    20ab:	f83ed1        	l32r	a13, 1a4 (aaaab <_end+0x9b54b>)
    20ae:	28c7e2        	addi	a14, a7, 40
    20b1:	604e04        	ae_lq32f.i	aeq1, a14, 0
    20b4:	fb46a22ddf 	{ ae_movpa24x2	aep2, a13, a13; ae_subsq56s	aeq3, aeq0, aeq1 }
    20b9:	08a554        	ae_mulrfq32sp24s.l	aeq2, aeq1, aep2
    20bc:	06db64        	ae_absq56	aeq3, aeq3
    20bf:	09b294        	ae_ltq56s	b9, aeq2, aeq3
    20c2:	021976        	bt	b9, 20c8 <pitch_by_harmonic+0x5ac>
    20c5:	ffab86        	j	1f77 <pitch_by_harmonic+0x45b>

000020c8 <pitch_by_harmonic+0x5ac>:
    20c8:	0f0c           	movi.n	a15, 0
    20ca:	87f9           	s32i.n	a15, a7, 32
    20cc:	0f0c           	movi.n	a15, 0
    20ce:	ffa946        	j	1f77 <pitch_by_harmonic+0x45b>

000020d1 <pitch_by_harmonic+0x5b5>:
    20d1:	0f0c           	movi.n	a15, 0
    20d3:	080c           	movi.n	a8, 0
    20d5:	8789           	s32i.n	a8, a7, 32
    20d7:	ffa706        	j	1f77 <pitch_by_harmonic+0x45b>

000020da <pitch_by_harmonic+0x5be>:
    20da:	0959e2        	s16i	a14, a9, 18
    20dd:	0d59d2        	s16i	a13, a9, 26
    20e0:	219aa0        	srai	a9, a10, 10
    20e3:	feb006        	j	1ba7 <pitch_by_harmonic+0x8b>

000020e6 <pitch_by_harmonic+0x5ca>:
    20e6:	02d4a2        	addmi	a10, a4, 0x200
    20e9:	090c           	movi.n	a9, 0
    20eb:	836492        	s32i	a9, a4, 0x20c
    20ee:	0a5a92        	s16i	a9, a10, 20
    20f1:	f01d           	retw.n

000020f3 <pitch_by_harmonic+0x5d7>:
    20f3:	0f0c           	movi.n	a15, 0
    20f5:	0f9d           	mov.n	a9, a15
    20f7:	ffa846        	j	1f9c <pitch_by_harmonic+0x480>

000020fa <pitch_by_harmonic+0x5de>:
	...

000020fc <XMAX6>:
    20fc:	004136        	entry	a1, 32
    20ff:	0248           	l32i.n	a4, a2, 0
    2101:	530c           	movi.n	a3, 5
    2103:	06a376        	loopgtz	a3, 210d <XMAX6+0x11>
    2106:	1288           	l32i.n	a8, a2, 4
    2108:	224b           	addi.n	a2, a2, 4
    210a:	534480        	max	a4, a4, a8

0000210d <XMAX6+0x11>:
    210d:	042d           	mov.n	a2, a4
    210f:	f01d           	retw.n

00002111 <XMAX6+0x15>:
    2111:	000000                                        ...

00002114 <Xfrac_num_pd_td16>:
    2114:	008136        	entry	a1, 64
    2117:	5139           	s32i.n	a3, a1, 20
    2119:	4b1c           	movi.n	a11, 20
    211b:	f83481        	l32r	a8, 1ec (5a8200 <_end+0x598ca0>)
    211e:	4002f4        	ae_lp16f.i	aep0, a2, -2
    2121:	ff042c221f 	{ ae_lp16f.i	aep2, a2, 2; ae_cvtq48p24s.h	aeq3, aep0 }
    2126:	fd442c120f 	{ ae_lp16f.i	aep1, a2, 0; ae_cvtq48p24s.h	aeq1, aep2 }
    212b:	fe240081ae 	{ addi	a10, a1, 8; ae_cvtq48p24s.h	aeq2, aep1 }
    2130:	f856a2188f 	{ ae_movpa24x2	aep1, a8, a8; ae_subsq56s	aeq0, aeq2, aeq1 }
    2135:	f80440415e 	{ addi	a5, a1, 4; ae_mulfq32sp24s.h	aeq1, aeq0, aep1 }
    213a:	f8d6b9810f 	{ ae_sq32f.i	aeq0, a1, 0; ae_subsq56s	aeq0, aeq2, aeq3 }
    213f:	d64810c43f 	{ add	a12, a4, a3; ae_ltq56s	b0, aeq0, aeq1 }
    2144:	11cc00        	slli	a12, a12, 16
    2147:	f98439850f 	{ ae_sq32f.i	aeq0, a5, 0; ae_mulfq32sp24s.l	aeq2, aeq0, aep1 }
    214c:	2e0076        	bf	b0, 217e <Xfrac_num_pd_td16+0x6a>
    214f:	604104        	ae_lq32f.i	aeq1, a1, 0
    2152:	f80e91        	l32r	a9, 18c (100000 <_end+0xf0aa0>)
    2155:	39b994        	ae_movpa24x2	aep3, a9, a9
    2158:	083d64        	ae_mulfq32sp24s.l	aeq1, aeq1, aep3
    215b:	099014        	ae_ltq56s	b1, aeq0, aeq1
    215e:	300176        	bf	b1, 2192 <Xfrac_num_pd_td16+0x7e>
    2161:	f82321        	l32r	a2, 1f0 (c28f0000 <_end+0xc28e0aa0>)

00002164 <Xfrac_num_pd_td16+0x50>:
    2164:	2129           	s32i.n	a2, a1, 8
    2166:	51c9           	s32i.n	a12, a1, 20
    2168:	600a04        	ae_lq32f.i	aeq0, a10, 0
    216b:	3503f4        	ae_sraiq56	aeq0, aeq0, 15
    216e:	60e1b4        	ae_lq32f.x	aeq3, a1, a11
    2171:	01f8c4        	ae_addq56	aeq3, aeq3, aeq0
    2174:	06b834        	ae_roundsq32sym	aeq2, aeq3
    2177:	622a04        	ae_sq32f.i	aeq2, a10, 0
    217a:	2128           	l32i.n	a2, a1, 8
    217c:	f01d           	retw.n

0000217e <Xfrac_num_pd_td16+0x6a>:
    217e:	604104        	ae_lq32f.i	aeq1, a1, 0
    2181:	d6c880002f 	{ movi	a2, 0; ae_ltq56s	b2, aeq2, aeq1 }
    2186:	f81cd1        	l32r	a13, 1f8 (400000 <_end+0x3f0aa0>)
    2189:	39cdd4        	ae_movpa24x2	aep4, a13, a13
    218c:	170276        	bf	b2, 21a7 <Xfrac_num_pd_td16+0x93>
    218f:	fff446        	j	2164 <Xfrac_num_pd_td16+0x50>

00002192 <Xfrac_num_pd_td16+0x7e>:
    2192:	369054        	ae_sllisq56s	aeq2, aeq1, 1
    2195:	06ca44        	ae_satq48s	aeq3, aeq2
    2198:	09b034        	ae_ltq56s	b3, aeq0, aeq3
    219b:	f81621        	l32r	a2, 1f4 (cccd0000 <_end+0xcccc0aa0>)
    219e:	f818e1        	l32r	a14, 200 (e6660000 <_end+0xe6650aa0>)
    21a1:	170376        	bf	b3, 21bc <Xfrac_num_pd_td16+0xa8>
    21a4:	ffef06        	j	2164 <Xfrac_num_pd_td16+0x50>

000021a7 <Xfrac_num_pd_td16+0x93>:
    21a7:	084524        	ae_mulfq32sp24s.l	aeq0, aeq0, aep4
    21aa:	f81421        	l32r	a2, 1fc (ccd0000 <_end+0xccc0aa0>)
    21ad:	099044        	ae_ltq56s	b4, aeq0, aeq1
    21b0:	35c074        	ae_sraiq56	aeq3, aeq0, 1
    21b3:	099364        	ae_ltq56s	b6, aeq3, aeq1
    21b6:	140476        	bf	b4, 21ce <Xfrac_num_pd_td16+0xba>
    21b9:	ffe9c6        	j	2164 <Xfrac_num_pd_td16+0x50>

000021bc <Xfrac_num_pd_td16+0xa8>:
    21bc:	f81221        	l32r	a2, 204 (f3330000 <_end+0xf3320aa0>)
    21bf:	369094        	ae_sllisq56s	aeq2, aeq1, 2
    21c2:	06ca44        	ae_satq48s	aeq3, aeq2
    21c5:	09b054        	ae_ltq56s	b5, aeq0, aeq3
    21c8:	d32e50        	movt	a2, a14, b5
    21cb:	ffe546        	j	2164 <Xfrac_num_pd_td16+0x50>

000021ce <Xfrac_num_pd_td16+0xba>:
    21ce:	050676        	bf	b6, 21d7 <Xfrac_num_pd_td16+0xc3>
    21d1:	f80d21        	l32r	a2, 208 (199a0000 <_end+0x19990aa0>)
    21d4:	ffe306        	j	2164 <Xfrac_num_pd_td16+0x50>

000021d7 <Xfrac_num_pd_td16+0xc3>:
    21d7:	f80df1        	l32r	a15, 20c (33330000 <_end+0x33320aa0>)
    21da:	f80d21        	l32r	a2, 210 (3d710000 <_end+0x3d700aa0>)
    21dd:	3580b4        	ae_sraiq56	aeq2, aeq0, 2
    21e0:	099274        	ae_ltq56s	b7, aeq2, aeq1
    21e3:	d32f70        	movt	a2, a15, b7
    21e6:	ffde86        	j	2164 <Xfrac_num_pd_td16+0x50>

000021e9 <Xfrac_num_pd_td16+0xd5>:
    21e9:	000000                                        ...

000021ec <Xfrac_num_pd_td32>:
    21ec:	008136        	entry	a1, 64
    21ef:	5139           	s32i.n	a3, a1, 20
    21f1:	4b1c           	movi.n	a11, 20
    21f3:	a18b           	addi.n	a10, a1, 8
    21f5:	60c214        	ae_lq32f.i	aeq3, a2, 4
    21f8:	608204        	ae_lq32f.i	aeq2, a2, 0
    21fb:	f7fc81        	l32r	a8, 1ec (5a8200 <_end+0x598ca0>)
    21fe:	398884        	ae_movpa24x2	aep0, a8, a8
    2201:	f9d6bd62ff 	{ ae_lq32f.i	aeq3, a2, -4; ae_subsq56s	aeq1, aeq2, aeq3 }
    2206:	f80179910f 	{ ae_sq32f.i	aeq1, a1, 0; ae_mulfq32sp24s.h	aeq1, aeq1, aep0 }
    220b:	f8d680415e 	{ addi	a5, a1, 4; ae_subsq56s	aeq0, aeq2, aeq3 }
    2210:	d64810c43f 	{ add	a12, a4, a3; ae_ltq56s	b0, aeq0, aeq1 }
    2215:	11cc00        	slli	a12, a12, 16
    2218:	f98039850f 	{ ae_sq32f.i	aeq0, a5, 0; ae_mulfq32sp24s.l	aeq2, aeq0, aep0 }
    221d:	2e0076        	bf	b0, 224f <Xfrac_num_pd_td32+0x63>
    2220:	604104        	ae_lq32f.i	aeq1, a1, 0
    2223:	f7da91        	l32r	a9, 18c (100000 <_end+0xf0aa0>)
    2226:	398994        	ae_movpa24x2	aep0, a9, a9
    2229:	080d64        	ae_mulfq32sp24s.l	aeq1, aeq1, aep0
    222c:	099014        	ae_ltq56s	b1, aeq0, aeq1
    222f:	300176        	bf	b1, 2263 <Xfrac_num_pd_td32+0x77>
    2232:	f7ef21        	l32r	a2, 1f0 (c28f0000 <_end+0xc28e0aa0>)

00002235 <Xfrac_num_pd_td32+0x49>:
    2235:	2129           	s32i.n	a2, a1, 8
    2237:	51c9           	s32i.n	a12, a1, 20
    2239:	600a04        	ae_lq32f.i	aeq0, a10, 0
    223c:	3503f4        	ae_sraiq56	aeq0, aeq0, 15
    223f:	60e1b4        	ae_lq32f.x	aeq3, a1, a11
    2242:	01f8c4        	ae_addq56	aeq3, aeq3, aeq0
    2245:	06b834        	ae_roundsq32sym	aeq2, aeq3
    2248:	622a04        	ae_sq32f.i	aeq2, a10, 0
    224b:	2128           	l32i.n	a2, a1, 8
    224d:	f01d           	retw.n

0000224f <Xfrac_num_pd_td32+0x63>:
    224f:	604104        	ae_lq32f.i	aeq1, a1, 0
    2252:	d6c880002f 	{ movi	a2, 0; ae_ltq56s	b2, aeq2, aeq1 }
    2257:	f7e8d1        	l32r	a13, 1f8 (400000 <_end+0x3f0aa0>)
    225a:	399dd4        	ae_movpa24x2	aep1, a13, a13
    225d:	170276        	bf	b2, 2278 <Xfrac_num_pd_td32+0x8c>
    2260:	fff446        	j	2235 <Xfrac_num_pd_td32+0x49>

00002263 <Xfrac_num_pd_td32+0x77>:
    2263:	369054        	ae_sllisq56s	aeq2, aeq1, 1
    2266:	06ca44        	ae_satq48s	aeq3, aeq2
    2269:	09b034        	ae_ltq56s	b3, aeq0, aeq3
    226c:	f7e221        	l32r	a2, 1f4 (cccd0000 <_end+0xcccc0aa0>)
    226f:	f7e4e1        	l32r	a14, 200 (e6660000 <_end+0xe6650aa0>)
    2272:	140376        	bf	b3, 228a <Xfrac_num_pd_td32+0x9e>
    2275:	ffef06        	j	2235 <Xfrac_num_pd_td32+0x49>

00002278 <Xfrac_num_pd_td32+0x8c>:
    2278:	081524        	ae_mulfq32sp24s.l	aeq0, aeq0, aep1
    227b:	099044        	ae_ltq56s	b4, aeq0, aeq1
    227e:	f7df21        	l32r	a2, 1fc (ccd0000 <_end+0xccc0aa0>)
    2281:	358074        	ae_sraiq56	aeq2, aeq0, 1
    2284:	140476        	bf	b4, 229c <Xfrac_num_pd_td32+0xb0>
    2287:	ffea86        	j	2235 <Xfrac_num_pd_td32+0x49>

0000228a <Xfrac_num_pd_td32+0x9e>:
    228a:	f7de21        	l32r	a2, 204 (f3330000 <_end+0xf3320aa0>)
    228d:	369094        	ae_sllisq56s	aeq2, aeq1, 2
    2290:	06ca44        	ae_satq48s	aeq3, aeq2
    2293:	09b054        	ae_ltq56s	b5, aeq0, aeq3
    2296:	d32e50        	movt	a2, a14, b5
    2299:	ffe606        	j	2235 <Xfrac_num_pd_td32+0x49>

0000229c <Xfrac_num_pd_td32+0xb0>:
    229c:	06ca44        	ae_satq48s	aeq3, aeq2
    229f:	099364        	ae_ltq56s	b6, aeq3, aeq1
    22a2:	f7d921        	l32r	a2, 208 (199a0000 <_end+0x19990aa0>)
    22a5:	f7d9f1        	l32r	a15, 20c (33330000 <_end+0x33320aa0>)
    22a8:	020676        	bf	b6, 22ae <Xfrac_num_pd_td32+0xc2>
    22ab:	ffe186        	j	2235 <Xfrac_num_pd_td32+0x49>

000022ae <Xfrac_num_pd_td32+0xc2>:
    22ae:	f7d821        	l32r	a2, 210 (3d710000 <_end+0x3d700aa0>)
    22b1:	3580b4        	ae_sraiq56	aeq2, aeq0, 2
    22b4:	06ca44        	ae_satq48s	aeq3, aeq2
    22b7:	099374        	ae_ltq56s	b7, aeq3, aeq1
    22ba:	d32f70        	movt	a2, a15, b7
    22bd:	ffdd06        	j	2235 <Xfrac_num_pd_td32+0x49>

000022c0 <SBAEC_INIT>:
    22c0:	008136        	entry	a1, 64
    22c3:	f77661        	l32r	a6, 9c (f554 <p_ecnr_mem>)
    22c6:	0b0c           	movi.n	a11, 0
    22c8:	0648           	l32i.n	a4, a6, 0
    22ca:	88a1c2        	movi	a12, 0x188
    22cd:	f77b81        	l32r	a8, bc (c720 <xt_memset>)
    22d0:	3dd452        	addmi	a5, a4, 0x3d00
    22d3:	70c532        	addi	a3, a5, 112
    22d6:	3ed442        	addmi	a4, a4, 0x3e00
    22d9:	c0c422        	addi	a2, a4, -64
    22dc:	10c472        	addi	a7, a4, 16
    22df:	20c552        	addi	a5, a5, 32
    22e2:	05ad           	mov.n	a10, a5
    22e4:	60c442        	addi	a4, a4, 96
    22e7:	0008e0        	callx8	a8
    22ea:	0b0c           	movi.n	a11, 0
    22ec:	c0a4c2        	movi	a12, 0x4c0
    22ef:	5139           	s32i.n	a3, a1, 20
    22f1:	06a8           	l32i.n	a10, a6, 0
    22f3:	4129           	s32i.n	a2, a1, 16
    22f5:	f77181        	l32r	a8, bc (c720 <xt_memset>)
    22f8:	1bdaa2        	addmi	a10, a10, 0x1b00
    22fb:	c0caa2        	addi	a10, a10, -64
    22fe:	0008e0        	callx8	a8
    2301:	f76f21        	l32r	a2, c0 (f55c <aec_nr_para>)
    2304:	8e1c           	movi.n	a14, 24
    2306:	02c8           	l32i.n	a12, a2, 0
    2308:	02d532        	addmi	a3, a5, 0x200
    230b:	f7c2a1        	l32r	a10, 214 (fff7 <_end+0xa97>)
    230e:	041cd2        	l16ui	a13, a12, 8
    2311:	781c           	movi.n	a8, 23
    2313:	cf0c           	movi.n	a15, 12
    2315:	10fdf0        	and	a15, a13, a15
    2318:	02af26        	beqi	a15, 12, 231e <SBAEC_INIT+0x5e>
    231b:	0e6d47        	bbci	a13, 4, 232d <SBAEC_INIT+0x6d>

0000231e <SBAEC_INIT+0x5e>:
    231e:	131c92        	l16ui	a9, a12, 38
    2321:	10dda0        	and	a13, a13, a10
    2324:	045cd2        	s16i	a13, a12, 8
    2327:	02b897        	bgeu	a8, a9, 232d <SBAEC_INIT+0x6d>
    232a:	135ce2        	s16i	a14, a12, 38
    232d:	094c           	movi.n	a9, 64
    232f:	67ed37        	bbsi	a13, 3, 239a <SBAEC_INIT+0xda>
    2332:	e39cd2        	l16si	a13, a12, 0x1c6
    2335:	1ddc           	bnez.n	a13, 234a <SBAEC_INIT+0x8a>
    2337:	765392        	s16i	a9, a3, 236
    233a:	7853e2        	s16i	a14, a3, 240
    233d:	0b2c           	movi.n	a11, 32
    233f:	0d3c           	movi.n	a13, 48
    2341:	7753d2        	s16i	a13, a3, 238
    2344:	7953b2        	s16i	a11, a3, 242
    2347:	001906        	j	23af <SBAEC_INIT+0xef>

0000234a <SBAEC_INIT+0x8a>:
    234a:	131ce2        	l16ui	a14, a12, 38
    234d:	34f4d0        	extui	a15, a13, 4, 4
    2350:	3480d0        	extui	a8, a13, 0, 4
    2353:	881b           	addi.n	a8, a8, 1
    2355:	ff1b           	addi.n	a15, a15, 1
    2357:	11ffd0        	slli	a15, a15, 3
    235a:	1188e0        	slli	a8, a8, 2
    235d:	765382        	s16i	a8, a3, 236
    2360:	7753f2        	s16i	a15, a3, 238
    2363:	888d           	ae_sext16	a8, a8
    2365:	43ee80        	min	a14, a14, a8
    2368:	8ffd           	ae_sext16	a15, a15
    236a:	280c           	movi.n	a8, 2
    236c:	d2ff80        	quos	a15, a15, a8
    236f:	8ffd           	ae_sext16	a15, a15
    2371:	43eef0        	min	a14, a14, a15
    2374:	34f8d0        	extui	a15, a13, 8, 4
    2377:	ff1b           	addi.n	a15, a15, 1
    2379:	11ffe0        	slli	a15, a15, 2
    237c:	7853f2        	s16i	a15, a3, 240
    237f:	8ffd           	ae_sext16	a15, a15
    2381:	43eef0        	min	a14, a14, a15
    2384:	34fcd0        	extui	a15, a13, 12, 4
    2387:	ff1b           	addi.n	a15, a15, 1
    2389:	11ffe0        	slli	a15, a15, 2
    238c:	7953f2        	s16i	a15, a3, 242
    238f:	8ffd           	ae_sext16	a15, a15
    2391:	43eef0        	min	a14, a14, a15
    2394:	135ce2        	s16i	a14, a12, 38
    2397:	000506        	j	23af <SBAEC_INIT+0xef>

0000239a <SBAEC_INIT+0xda>:
    239a:	785392        	s16i	a9, a3, 240
    239d:	60a082        	movi	a8, 96
    23a0:	c0a0a2        	movi	a10, 192
    23a3:	00a1b2        	movi	a11, 0x100
    23a6:	7653b2        	s16i	a11, a3, 236
    23a9:	7753a2        	s16i	a10, a3, 238
    23ac:	795382        	s16i	a8, a3, 242

000023af <SBAEC_INIT+0xef>:
    23af:	bceb           	addi.n	a11, a12, 14
    23b1:	f74481        	l32r	a8, c4 (c738 <xt_memcpy>)
    23b4:	a52b           	addi.n	a10, a5, 2
    23b6:	ec0c           	movi.n	a12, 14
    23b8:	0008e0        	callx8	a8
    23bb:	51a8           	l32i.n	a10, a1, 20
    23bd:	41b8           	l32i.n	a11, a1, 16
    23bf:	07cd           	mov.n	a12, a7
    23c1:	04dd           	mov.n	a13, a4
    23c3:	f736f1        	l32r	a15, 9c (f554 <p_ecnr_mem>)
    23c6:	0268           	l32i.n	a6, a2, 0
    23c8:	05ed           	mov.n	a14, a5
    23ca:	0ff8           	l32i.n	a15, a15, 0
    23cc:	d99692        	l16si	a9, a6, 0x1b2
    23cf:	d81682        	l16ui	a8, a6, 0x1b0
    23d2:	115592        	s16i	a9, a5, 34
    23d5:	061692        	l16ui	a9, a6, 12
    23d8:	105582        	s16i	a8, a5, 32
    23db:	c61662        	l16ui	a6, a6, 0x18c
    23de:	0f5562        	s16i	a6, a5, 30
    23e1:	68a162        	movi	a6, 0x168
    23e4:	24df82        	addmi	a8, a15, 0x2400
    23e7:	1199c0        	slli	a9, a9, 4
    23ea:	9599           	s32i.n	a9, a5, 36
    23ec:	40c882        	addi	a8, a8, 64
    23ef:	0189           	s32i.n	a8, a1, 0
    23f1:	f78981        	l32r	a8, 218 (26e8 <Fill_CH_MEM_WB>)
    23f4:	1bdff2        	addmi	a15, a15, 0x1b00
    23f7:	c0cff2        	addi	a15, a15, -64
    23fa:	0008e0        	callx8	a8
    23fd:	51a8           	l32i.n	a10, a1, 20
    23ff:	7693b2        	l16si	a11, a3, 236
    2402:	f726e1        	l32r	a14, 9c (f554 <p_ecnr_mem>)
    2405:	1d0c           	movi.n	a13, 1
    2407:	02c8           	l32i.n	a12, a2, 0
    2409:	0ee8           	l32i.n	a14, a14, 0
    240b:	f78481        	l32r	a8, 21c (2688 <Fill_sbco>)
    240e:	169cc2        	l16si	a12, a12, 44
    2411:	19dee2        	addmi	a14, a14, 0x1900
    2414:	632e92        	l32i	a9, a14, 0x18c
    2417:	126492        	s32i	a9, a4, 72
    241a:	5f2ee2        	l32i	a14, a14, 0x17c
    241d:	1164e2        	s32i	a14, a4, 68
    2420:	0008e0        	callx8	a8
    2423:	41a8           	l32i.n	a10, a1, 16
    2425:	f77d81        	l32r	a8, 21c (2688 <Fill_sbco>)
    2428:	02c8           	l32i.n	a12, a2, 0
    242a:	7793b2        	l16si	a11, a3, 238
    242d:	2d0c           	movi.n	a13, 2
    242f:	179cc2        	l16si	a12, a12, 46
    2432:	d2bbd0        	quos	a11, a11, a13
    2435:	8bbd           	ae_sext16	a11, a11
    2437:	1d0c           	movi.n	a13, 1
    2439:	0008e0        	callx8	a8
    243c:	07ad           	mov.n	a10, a7
    243e:	7893b2        	l16si	a11, a3, 240
    2441:	02c8           	l32i.n	a12, a2, 0
    2443:	f77681        	l32r	a8, 21c (2688 <Fill_sbco>)
    2446:	1d0c           	movi.n	a13, 1
    2448:	189cc2        	l16si	a12, a12, 48
    244b:	0008e0        	callx8	a8
    244e:	04ad           	mov.n	a10, a4
    2450:	7993b2        	l16si	a11, a3, 242
    2453:	02c8           	l32i.n	a12, a2, 0
    2455:	f77181        	l32r	a8, 21c (2688 <Fill_sbco>)
    2458:	1d0c           	movi.n	a13, 1
    245a:	199cc2        	l16si	a12, a12, 50
    245d:	0008e0        	callx8	a8
    2460:	02d8           	l32i.n	a13, a2, 0
    2462:	51a8           	l32i.n	a10, a1, 20
    2464:	f76f81        	l32r	a8, 220 (26c4 <Fill_sbco_v2>)
    2467:	dd6a           	add.n	a13, a13, a6
    2469:	de9db2        	l16si	a11, a13, 0x1bc
    246c:	e29dc2        	l16si	a12, a13, 0x1c4
    246f:	e69dd2        	l16si	a13, a13, 0x1cc
    2472:	21b8b0        	srai	a11, a11, 8
    2475:	21c8c0        	srai	a12, a12, 8
    2478:	21d8d0        	srai	a13, a13, 8
    247b:	0008e0        	callx8	a8
    247e:	02d8           	l32i.n	a13, a2, 0
    2480:	41a8           	l32i.n	a10, a1, 16
    2482:	f76781        	l32r	a8, 220 (26c4 <Fill_sbco_v2>)
    2485:	dd6a           	add.n	a13, a13, a6
    2487:	de9db2        	l16si	a11, a13, 0x1bc
    248a:	e29dc2        	l16si	a12, a13, 0x1c4
    248d:	e69dd2        	l16si	a13, a13, 0x1cc
    2490:	0008e0        	callx8	a8
    2493:	02d8           	l32i.n	a13, a2, 0
    2495:	07ad           	mov.n	a10, a7
    2497:	f76281        	l32r	a8, 220 (26c4 <Fill_sbco_v2>)
    249a:	dd6a           	add.n	a13, a13, a6
    249c:	df9db2        	l16si	a11, a13, 0x1be
    249f:	e39dc2        	l16si	a12, a13, 0x1c6
    24a2:	e79dd2        	l16si	a13, a13, 0x1ce
    24a5:	21b8b0        	srai	a11, a11, 8
    24a8:	21c8c0        	srai	a12, a12, 8
    24ab:	21d8d0        	srai	a13, a13, 8
    24ae:	0008e0        	callx8	a8
    24b1:	04ad           	mov.n	a10, a4
    24b3:	02d8           	l32i.n	a13, a2, 0
    24b5:	f75b71        	l32r	a7, 224 (1960 <Pitch_by_Corel+0x4bc>)
    24b8:	f75a81        	l32r	a8, 220 (26c4 <Fill_sbco_v2>)
    24bb:	dd6a           	add.n	a13, a13, a6
    24bd:	df9db2        	l16si	a11, a13, 0x1be
    24c0:	e39dc2        	l16si	a12, a13, 0x1c6
    24c3:	e79dd2        	l16si	a13, a13, 0x1ce
    24c6:	0008e0        	callx8	a8
    24c9:	0288           	l32i.n	a8, a2, 0
    24cb:	f757b1        	l32r	a11, 228 (ff00 <_end+0x9a0>)
    24ce:	f6f3f1        	l32r	a15, 9c (f554 <p_ecnr_mem>)
    24d1:	1518d2        	l16ui	a13, a8, 42
    24d4:	0418e2        	l16ui	a14, a8, 8
    24d7:	c86a           	add.n	a12, a8, a6
    24d9:	0ff8           	l32i.n	a15, a15, 0
    24db:	de9ca2        	l16si	a10, a12, 0x1bc
    24de:	ea9cc2        	l16si	a12, a12, 0x1d4
    24e1:	ff7a           	add.n	a15, a15, a7
    24e3:	7b53c2        	s16i	a12, a3, 246
    24e6:	0490e0        	extui	a9, a14, 0, 1
    24e9:	f750c1        	l32r	a12, 22c (7fff <two_mic_WB_NR_NSN_proc+0x133>)
    24ec:	14e1e0        	extui	a14, a14, 1, 2
    24ef:	10aab0        	and	a10, a10, a11
    24f2:	685392        	s16i	a9, a3, 208
    24f5:	1b0c           	movi.n	a11, 1
    24f7:	021892        	l16ui	a9, a8, 4
    24fa:	93aba0        	movnez	a10, a11, a10
    24fd:	2318b2        	l16ui	a11, a8, 70
    2500:	7a53a2        	s16i	a10, a3, 244
    2503:	825fe2        	s16i	a14, a15, 0x104
    2506:	0518a2        	l16ui	a10, a8, 10
    2509:	7d5fd2        	s16i	a13, a15, 250
    250c:	dc1882        	l16ui	a8, a8, 0x1b8
    250f:	1555c2        	s16i	a12, a5, 42
    2512:	6a53b2        	s16i	a11, a3, 212
    2515:	6953a2        	s16i	a10, a3, 210
    2518:	659d           	ae_s16i.n	a9, a5, 0
    251a:	d64382        	s8i	a8, a3, 214
    251d:	02e8           	l32i.n	a14, a2, 0
    251f:	dc1ee2        	l16ui	a14, a14, 0x1b8
    2522:	452ff2        	l32i	a15, a15, 0x114
    2525:	3a63f2        	s32i	a15, a3, 232
    2528:	41e8e0        	srli	a14, a14, 8
    252b:	d743e2        	s8i	a14, a3, 215
    252e:	f01d           	retw.n

00002530 <SBAEC_INIT_inear>:
    2530:	008136        	entry	a1, 64
    2533:	f73981        	l32r	a8, 218 (26e8 <Fill_CH_MEM_WB>)
    2536:	40d262        	addmi	a6, a2, 0x4000
    2539:	3fd2a2        	addmi	a10, a2, 0x3f00
    253c:	3dd2e2        	addmi	a14, a2, 0x3d00
    253f:	20cee2        	addi	a14, a14, 32
    2542:	41a9           	s32i.n	a10, a1, 16
    2544:	0abd           	mov.n	a11, a10
    2546:	879a42        	l16si	a4, a10, 0x10e
    2549:	869af2        	l16si	a15, a10, 0x10c
    254c:	899a52        	l16si	a5, a10, 0x112
    254f:	889a32        	l16si	a3, a10, 0x110
    2552:	a0c662        	addi	a6, a6, -96
    2555:	50ca72        	addi	a7, a10, 80
    2558:	07cd           	mov.n	a12, a7
    255a:	06dd           	mov.n	a13, a6
    255c:	335a           	add.n	a3, a3, a5
    255e:	ff4a           	add.n	a15, a15, a4
    2560:	14ca52        	addi	a5, a10, 20
    2563:	ff3a           	add.n	a15, a15, a3
    2565:	26d232        	addmi	a3, a2, 0x2600
    2568:	b0ff20        	addx8	a15, a15, a2
    256b:	1bdff2        	addmi	a15, a15, 0x1b00
    256e:	20c332        	addi	a3, a3, 32
    2571:	b0caa2        	addi	a10, a10, -80
    2574:	51a9           	s32i.n	a10, a1, 20
    2576:	0139           	s32i.n	a3, a1, 0
    2578:	c0cff2        	addi	a15, a15, -64
    257b:	0008e0        	callx8	a8
    257e:	f8a142        	movi	a4, 0x1f8
    2581:	51a8           	l32i.n	a10, a1, 20
    2583:	7c95b2        	l16si	a11, a5, 248
    2586:	f72581        	l32r	a8, 21c (2688 <Fill_sbco>)
    2589:	3dd2e2        	addmi	a14, a2, 0x3d00
    258c:	3ed2d2        	addmi	a13, a2, 0x3e00
    258f:	19d232        	addmi	a3, a2, 0x1900
    2592:	6323f2        	l32i	a15, a3, 0x18c
    2595:	7a6df2        	s32i	a15, a13, 0x1e8
    2598:	6b2332        	l32i	a3, a3, 0x1ac
    259b:	2df8           	l32i.n	a15, a13, 8
    259d:	796d32        	s32i	a3, a13, 0x1e4
    25a0:	2e2ee2        	l32i	a14, a14, 184
    25a3:	f6c731        	l32r	a3, c0 (f55c <aec_nr_para>)
    25a6:	3e6de2        	s32i	a14, a13, 248
    25a9:	162dd2        	l32i	a13, a13, 88
    25ac:	3fd2e2        	addmi	a14, a2, 0x3f00
    25af:	126ef2        	s32i	a15, a14, 72
    25b2:	03c8           	l32i.n	a12, a3, 0
    25b4:	266ed2        	s32i	a13, a14, 152
    25b7:	4d0c           	movi.n	a13, 4
    25b9:	02dcc2        	addmi	a12, a12, 0x200
    25bc:	579cc2        	l16si	a12, a12, 174
    25bf:	0008e0        	callx8	a8
    25c2:	41a8           	l32i.n	a10, a1, 16
    25c4:	f71681        	l32r	a8, 21c (2688 <Fill_sbco>)
    25c7:	03c8           	l32i.n	a12, a3, 0
    25c9:	7d95b2        	l16si	a11, a5, 250
    25cc:	2d0c           	movi.n	a13, 2
    25ce:	cc4a           	add.n	a12, a12, a4
    25d0:	d2bbd0        	quos	a11, a11, a13
    25d3:	8bbd           	ae_sext16	a11, a11
    25d5:	5c9cc2        	l16si	a12, a12, 184
    25d8:	4d0c           	movi.n	a13, 4
    25da:	0008e0        	callx8	a8
    25dd:	07ad           	mov.n	a10, a7
    25df:	7e95b2        	l16si	a11, a5, 252
    25e2:	03c8           	l32i.n	a12, a3, 0
    25e4:	4d0c           	movi.n	a13, 4
    25e6:	f70d81        	l32r	a8, 21c (2688 <Fill_sbco>)
    25e9:	cc4a           	add.n	a12, a12, a4
    25eb:	5d9cc2        	l16si	a12, a12, 186
    25ee:	0008e0        	callx8	a8
    25f1:	7f95b2        	l16si	a11, a5, 254
    25f4:	06ad           	mov.n	a10, a6
    25f6:	03c8           	l32i.n	a12, a3, 0
    25f8:	4d0c           	movi.n	a13, 4
    25fa:	f70881        	l32r	a8, 21c (2688 <Fill_sbco>)
    25fd:	cc4a           	add.n	a12, a12, a4
    25ff:	5e9cc2        	l16si	a12, a12, 188
    2602:	0008e0        	callx8	a8
    2605:	4158           	l32i.n	a5, a1, 16
    2607:	03d8           	l32i.n	a13, a3, 0
    2609:	51a8           	l32i.n	a10, a1, 20
    260b:	f70581        	l32r	a8, 220 (26c4 <Fill_sbco_v2>)
    260e:	dd4a           	add.n	a13, a13, a4
    2610:	989db2        	l16si	a11, a13, 0x130
    2613:	9c9dc2        	l16si	a12, a13, 0x138
    2616:	a09dd2        	l16si	a13, a13, 0x140
    2619:	21b8b0        	srai	a11, a11, 8
    261c:	21c8c0        	srai	a12, a12, 8
    261f:	21d8d0        	srai	a13, a13, 8
    2622:	0008e0        	callx8	a8
    2625:	03d8           	l32i.n	a13, a3, 0
    2627:	05ad           	mov.n	a10, a5
    2629:	f6fd81        	l32r	a8, 220 (26c4 <Fill_sbco_v2>)
    262c:	dd4a           	add.n	a13, a13, a4
    262e:	989db2        	l16si	a11, a13, 0x130
    2631:	9c9dc2        	l16si	a12, a13, 0x138
    2634:	a09dd2        	l16si	a13, a13, 0x140
    2637:	0008e0        	callx8	a8
    263a:	03d8           	l32i.n	a13, a3, 0
    263c:	07ad           	mov.n	a10, a7
    263e:	f6f881        	l32r	a8, 220 (26c4 <Fill_sbco_v2>)
    2641:	dd4a           	add.n	a13, a13, a4
    2643:	999db2        	l16si	a11, a13, 0x132
    2646:	9d9dc2        	l16si	a12, a13, 0x13a
    2649:	a19dd2        	l16si	a13, a13, 0x142
    264c:	21b8b0        	srai	a11, a11, 8
    264f:	21c8c0        	srai	a12, a12, 8
    2652:	21d8d0        	srai	a13, a13, 8
    2655:	0008e0        	callx8	a8
    2658:	03d8           	l32i.n	a13, a3, 0
    265a:	06ad           	mov.n	a10, a6
    265c:	f6f181        	l32r	a8, 220 (26c4 <Fill_sbco_v2>)
    265f:	dd4a           	add.n	a13, a13, a4
    2661:	999db2        	l16si	a11, a13, 0x132
    2664:	9d9dc2        	l16si	a12, a13, 0x13a
    2667:	a19dd2        	l16si	a13, a13, 0x142
    266a:	0008e0        	callx8	a8
    266d:	3c0c           	movi.n	a12, 3
    266f:	f69581        	l32r	a8, c4 (c738 <xt_memcpy>)
    2672:	03b8           	l32i.n	a11, a3, 0
    2674:	3dd2a2        	addmi	a10, a2, 0x3d00
    2677:	52caa2        	addi	a10, a10, 82
    267a:	03dbb2        	addmi	a11, a11, 0x300
    267d:	88cbb2        	addi	a11, a11, -120
    2680:	0008e0        	callx8	a8
    2683:	f01d           	retw.n

00002685 <SBAEC_INIT_inear+0x155>:
    2685:	000000                                        ...

00002688 <Fill_sbco>:
    2688:	004136        	entry	a1, 32
    268b:	115232        	s16i	a3, a2, 34
    268e:	125252        	s16i	a5, a2, 36
    2691:	118400        	slli	a8, a4, 16
    2694:	f6e661        	l32r	a6, 22c (7fff <two_mic_WB_NR_NSN_proc+0x133>)
    2697:	105262        	s16i	a6, a2, 32
    269a:	5289           	s32i.n	a8, a2, 20
    269c:	4289           	s32i.n	a8, a2, 16
    269e:	f01d           	retw.n

000026a0 <dt_ratio_thrd_form>:
    26a0:	004136        	entry	a1, 32
    26a3:	f6e331        	l32r	a3, 230 (6666 <beam1_proc+0x4e>)
    26a6:	742020        	extui	a2, a2, 0, 8
    26a9:	d12230        	mul16s	a2, a2, a3
    26ac:	48a132        	movi	a3, 0x148
    26af:	40c222        	addi	a2, a2, 64
    26b2:	212720        	srai	a2, a2, 7
    26b5:	822230        	mull	a2, a2, a3
    26b8:	f6df31        	l32r	a3, 234 (cd080 <_end+0xbdb20>)
    26bb:	223a           	add.n	a2, a2, a3
    26bd:	212820        	srai	a2, a2, 8
    26c0:	a22d           	ae_clamps16	a2, a2
    26c2:	f01d           	retw.n

000026c4 <Fill_sbco_v2>:
    26c4:	004136        	entry	a1, 32
    26c7:	04ad           	mov.n	a10, a4
    26c9:	f6db81        	l32r	a8, 238 (26a0 <dt_ratio_thrd_form>)
    26cc:	749030        	extui	a9, a3, 0, 8
    26cf:	1a5292        	s16i	a9, a2, 52
    26d2:	0008e0        	callx8	a8
    26d5:	f6d9b1        	l32r	a11, 23c (d9a0 <T_aec_min_gain_42>)
    26d8:	1952a2        	s16i	a10, a2, 50
    26db:	74a050        	extui	a10, a5, 0, 8
    26de:	90aab0        	addx2	a10, a10, a11
    26e1:	2aad           	ae_l16si.n	a10, a10, 0
    26e3:	1852a2        	s16i	a10, a2, 48
    26e6:	f01d           	retw.n

000026e8 <Fill_CH_MEM_WB>:
    26e8:	004136        	entry	a1, 32
    26eb:	8188           	l32i.n	a8, a1, 32
    26ed:	a279           	s32i.n	a7, a2, 40
    26ef:	02d6b2        	addmi	a11, a6, 0x200
    26f2:	799be2        	l16si	a14, a11, 242
    26f5:	769bc2        	l16si	a12, a11, 236
    26f8:	789ba2        	l16si	a10, a11, 240
    26fb:	779bb2        	l16si	a11, a11, 238
    26fe:	909c70        	addx2	a9, a12, a7
    2701:	a399           	s32i.n	a9, a3, 40
    2703:	90db90        	addx2	a13, a11, a9
    2706:	a4d9           	s32i.n	a13, a4, 40
    2708:	90dad0        	addx2	a13, a10, a13
    270b:	a5d9           	s32i.n	a13, a5, 40
    270d:	90eed0        	addx2	a14, a14, a13
    2710:	90cce0        	addx2	a12, a12, a14
    2713:	90bbc0        	addx2	a11, a11, a12
    2716:	90aab0        	addx2	a10, a10, a11
    2719:	b2e9           	s32i.n	a14, a2, 44
    271b:	a2f8           	l32i.n	a15, a2, 40
    271d:	a4e8           	l32i.n	a14, a4, 40
    271f:	b3c9           	s32i.n	a12, a3, 44
    2721:	b4b9           	s32i.n	a11, a4, 44
    2723:	28c8c2        	addi	a12, a8, 40
    2726:	50c8b2        	addi	a11, a8, 80
    2729:	b5a9           	s32i.n	a10, a5, 44
    272b:	106392        	s32i	a9, a3, 64
    272e:	64c8a2        	addi	a10, a8, 100
    2731:	78c892        	addi	a9, a8, 120
    2734:	1062f2        	s32i	a15, a2, 64
    2737:	1064e2        	s32i	a14, a4, 64
    273a:	1065d2        	s32i	a13, a5, 64
    273d:	116382        	s32i	a8, a3, 68
    2740:	1363c2        	s32i	a12, a3, 76
    2743:	01d882        	addmi	a8, a8, 0x100
    2746:	1162b2        	s32i	a11, a2, 68
    2749:	8cc8c2        	addi	a12, a8, -116
    274c:	a0c8b2        	addi	a11, a8, -96
    274f:	1164a2        	s32i	a10, a4, 68
    2752:	136292        	s32i	a9, a2, 76
    2755:	c8c8a2        	addi	a10, a8, -56
    2758:	f0c892        	addi	a9, a8, -16
    275b:	1364c2        	s32i	a12, a4, 76
    275e:	884b           	addi.n	a8, a8, 4
    2760:	1365b2        	s32i	a11, a5, 76
    2763:	1263a2        	s32i	a10, a3, 72
    2766:	126292        	s32i	a9, a2, 72
    2769:	126482        	s32i	a8, a4, 72
    276c:	f01d           	retw.n

0000276e <Fill_CH_MEM_WB+0x86>:
	...

00002770 <common_x_pow>:
    2770:	006136        	entry	a1, 48
    2773:	f6b591        	l32r	a9, 248 (ec30 <immediate_num>)
    2776:	36c434        	ae_cvtq48a32s	aeq3, a4
    2779:	fe84bec33f 	{ ae_cvtq48a32s	aeq0, a3; ae_absq56	aeq2, aeq3 }
    277e:	065864        	ae_absq56	aeq1, aeq0
    2781:	d65413622f 	{ or	a6, a2, a2; ae_ltq56s	b0, aeq1, aeq2 }
    2786:	f6ae51        	l32r	a5, 240 (200000 <_end+0x1f0aa0>)
    2789:	441904        	ae_lp16x2f.i	aep1, a9, 0
    278c:	200076        	bf	b0, 27b0 <common_x_pow+0x40>
    278f:	fb36fec57f 	{ ae_cvtq48a32s	aeq1, a5; ae_subq56	aeq3, aeq2, aeq1 }
    2794:	d65d80012f 	{ movi	a2, 1; ae_ltq56s	b6, aeq1, aeq3 }
    2799:	f6aa81        	l32r	a8, 244 (2aaa00 <_end+0x29b4a0>)
    279c:	ff0462088f 	{ ae_movpa24x2	aep0, a8, a8; ae_movq56	aeq3, aeq0 }
    27a1:	080676        	bf	b6, 27ad <common_x_pow+0x3d>
    27a4:	030a14        	ae_mulfq32sp16s.l	aeq1, aeq0, aep0
    27a7:	06d934        	ae_roundsq32asym	aeq3, aeq1
    27aa:	ffffc6        	j	27ad <common_x_pow+0x3d>

000027ad <common_x_pow+0x3d>:
    27ad:	000046        	j	27b2 <common_x_pow+0x42>

000027b0 <common_x_pow+0x40>:
    27b0:	020c           	movi.n	a2, 0

000027b2 <common_x_pow+0x42>:
    27b2:	608624        	ae_lq32f.i	aeq2, a6, 8
    27b5:	0f243d263f 	{ ae_lq32f.i	aeq1, a6, 12; ae_mulzaafq32sp16s.lh	aeq2, aeq2, aep1, aeq0, aep1 }
    27ba:	c11974        	ae_mulzaafq32sp16s.lh	aeq1, aeq1, aep1, aeq3, aep1
    27bd:	06a934        	ae_roundsq32asym	aeq2, aeq2
    27c0:	fe2c79a62f 	{ ae_sq32f.i	aeq2, a6, 8; ae_roundsq32asym	aeq2, aeq1 }
    27c5:	622634        	ae_sq32f.i	aeq2, a6, 12
    27c8:	f01d           	retw.n

000027ca <common_x_pow+0x5a>:
	...

000027cc <ref_gain_adapt>:
    27cc:	004136        	entry	a1, 32
    27cf:	f69c91        	l32r	a9, 240 (200000 <_end+0x1f0aa0>)
    27d2:	5378           	l32i.n	a7, a3, 20
    27d4:	f69e81        	l32r	a8, 24c (ec34 <immediate_num+0x4>)
    27d7:	360734        	ae_cvtq48a32s	aeq0, a7
    27da:	0205d6        	bgez	a5, 27fe <ref_gain_adapt+0x32>
    27dd:	440804        	ae_lp16x2f.i	aep0, a8, 0
    27e0:	059262        	l16si	a6, a2, 10
    27e3:	368434        	ae_cvtq48a32s	aeq2, a4
    27e6:	038a84        	ae_mulfq32sp16s.h	aeq3, aeq2, aep0
    27e9:	116600        	slli	a6, a6, 16
    27ec:	364634        	ae_cvtq48a32s	aeq1, a6
    27ef:	09b104        	ae_ltq56s	b0, aeq1, aeq3
    27f2:	1e0076        	bf	b0, 2814 <ref_gain_adapt+0x48>
    27f5:	a10004        	ae_mulzaafq32sp16s.ll	aeq0, aeq0, aep0, aeq0, aep0

000027f8 <ref_gain_adapt+0x2c>:
    27f8:	060934        	ae_roundsq32asym	aeq0, aeq0
    27fb:	368704        	ae_trunca32q48	a7, aeq0

000027fe <ref_gain_adapt+0x32>:
    27fe:	608344        	ae_lq32f.i	aeq2, a3, 16
    2801:	539790        	max	a9, a7, a9
    2804:	5399           	s32i.n	a9, a3, 20
    2806:	440844        	ae_lp16x2f.i	aep0, a8, 16
    2809:	c18084        	ae_mulzaafq32sp16s.lh	aeq2, aeq2, aep0, aeq0, aep0
    280c:	066934        	ae_roundsq32asym	aeq1, aeq2
    280f:	621344        	ae_sq32f.i	aeq1, a3, 16
    2812:	f01d           	retw.n

00002814 <ref_gain_adapt+0x48>:
    2814:	440814        	ae_lp16x2f.i	aep0, a8, 4
    2817:	038a84        	ae_mulfq32sp16s.h	aeq3, aeq2, aep0
    281a:	09b114        	ae_ltq56s	b1, aeq1, aeq3
    281d:	050176        	bf	b1, 2826 <ref_gain_adapt+0x5a>
    2820:	a10004        	ae_mulzaafq32sp16s.ll	aeq0, aeq0, aep0, aeq0, aep0
    2823:	fff446        	j	27f8 <ref_gain_adapt+0x2c>

00002826 <ref_gain_adapt+0x5a>:
    2826:	440824        	ae_lp16x2f.i	aep0, a8, 8
    2829:	038a44        	ae_mulfq32sp16s.h	aeq3, aeq1, aep0
    282c:	09b224        	ae_ltq56s	b2, aeq2, aeq3
    282f:	d5e36d183f 	{ ae_lp16x2f.i	aep1, a8, 12; ae_mulfq32sp16s.l	aeq3, aeq1, aep0 }
    2834:	c00276        	bf	b2, 27f8 <ref_gain_adapt+0x2c>
    2837:	09a334        	ae_ltq56s	b3, aeq3, aeq2
    283a:	02d2b2        	addmi	a11, a2, 0x200
    283d:	3a0c           	movi.n	a10, 3
    283f:	051376        	bt	b3, 2848 <ref_gain_adapt+0x7c>
    2842:	d60bb2        	l8ui	a11, a11, 214
    2845:	af0ab7        	bnone	a10, a11, 27f8 <ref_gain_adapt+0x2c>

00002848 <ref_gain_adapt+0x7c>:
    2848:	031214        	ae_mulfq32sp16s.l	aeq0, aeq0, aep1
    284b:	ffea46        	j	27f8 <ref_gain_adapt+0x2c>

0000284e <ref_gain_adapt+0x82>:
	...

00002850 <aec_post_calc>:
    2850:	006136        	entry	a1, 48
    2853:	f67f91        	l32r	a9, 250 (80000 <_end+0x70aa0>)
    2856:	f633a1        	l32r	a10, 124 (10000 <_end+0xaa0>)
    2859:	5d4466        	bnei	a4, 4, 28ba <aec_post_calc+0x6a>
    285c:	364934        	ae_cvtq48a32s	aeq1, a9
    285f:	20c2d2        	addi	a13, a2, 32
    2862:	400d04        	ae_lp16f.i	aep0, a13, 0
    2865:	d4e3f023be 	{ l32i	a11, a3, 8; ae_mulfq32sp16u.l	aeq1, aeq1, aep0 }
    286a:	360a34        	ae_cvtq48a32s	aeq0, a10
    286d:	621104        	ae_sq32f.i	aeq1, a1, 0
    2870:	d4e2b001ce 	{ l32i	a12, a1, 0; ae_mulfq32sp16u.l	aeq0, aeq0, aep0 }
    2875:	620104        	ae_sq32f.i	aeq0, a1, 0
    2878:	53bbc0        	max	a11, a11, a12

0000287b <aec_post_calc+0x2b>:
    287b:	01c8           	l32i.n	a12, a1, 0
    287d:	33a8           	l32i.n	a10, a3, 12
    287f:	f67581        	l32r	a8, 254 (a7e0 <airoha_divide_limit_1>)
    2882:	53aac0        	max	a10, a10, a12
    2885:	43aba0        	min	a10, a11, a10
    2888:	0008e0        	callx8	a8
    288b:	4c2244        	ae_lp24.i	aep2, a2, 16
    288e:	379aa4        	ae_truncp24a32x2	aep1, a10, a10
    2891:	60c364        	ae_lq32f.i	aeq3, a3, 24
    2894:	019a34        	ae_mulafp24s.ll	aeq3, aep1, aep2
    2897:	fe3c7d037f 	{ ae_lq32f.i	aeq0, a3, 28; ae_roundsq32asym	aeq2, aeq3 }
    289c:	622364        	ae_sq32f.i	aeq2, a3, 24
    289f:	1792e2        	l16si	a14, a2, 46
    28a2:	0292d2        	l16si	a13, a2, 4
    28a5:	403274        	ae_lp16f.i	aep3, a2, 14
    28a8:	f866a162fe 	{ l16si	a15, a2, 44; ae_movp48	aep0, aep1 }
    28ad:	2bade7        	bge	a13, a14, 28dc <aec_post_calc+0x8c>
    28b0:	0a9292        	l16si	a9, a2, 20
    28b3:	411fe6        	bgei	a15, 1, 28f8 <aec_post_calc+0xa8>
    28b6:	001006        	j	28fa <aec_post_calc+0xaa>

000028b9 <aec_post_calc+0x69>:
	...

000028ba <aec_post_calc+0x6a>:
    28ba:	364934        	ae_cvtq48a32s	aeq1, a9
    28bd:	1ec2d2        	addi	a13, a2, 30
    28c0:	401d04        	ae_lp16f.i	aep1, a13, 0
    28c3:	d4e7f023be 	{ l32i	a11, a3, 8; ae_mulfq32sp16u.l	aeq1, aeq1, aep1 }
    28c8:	360a34        	ae_cvtq48a32s	aeq0, a10
    28cb:	621104        	ae_sq32f.i	aeq1, a1, 0
    28ce:	d4e6b001ce 	{ l32i	a12, a1, 0; ae_mulfq32sp16u.l	aeq0, aeq0, aep1 }
    28d3:	620104        	ae_sq32f.i	aeq0, a1, 0
    28d6:	53bbc0        	max	a11, a11, a12
    28d9:	ffe786        	j	287b <aec_post_calc+0x2b>

000028dc <aec_post_calc+0x8c>:
    28dc:	0b9292        	l16si	a9, a2, 22
    28df:	e90b           	addi.n	a14, a9, -1
    28e1:	05ae76        	loopgtz	a14, 28ea <aec_post_calc+0x9a>
    28e4:	018174        	ae_mulfp24s.ll	aeq2, aep0, aep1
    28e7:	1bad04        	ae_roundsp24q48asym	aep0, aeq2

000028ea <aec_post_calc+0x9a>:
    28ea:	070b34        	ae_maxp24s	aep3, aep0, aep3
    28ed:	013234        	ae_mulafp24s.ll	aeq0, aep3, aep2
    28f0:	06c934        	ae_roundsq32asym	aeq3, aeq0
    28f3:	623374        	ae_sq32f.i	aeq3, a3, 28
    28f6:	f01d           	retw.n

000028f8 <aec_post_calc+0xa8>:
    28f8:	992b           	addi.n	a9, a9, 2

000028fa <aec_post_calc+0xaa>:
    28fa:	031694        	wur.ae_sar	a9
    28fd:	0b1084        	ae_sllssp24s	aep0, aep1
    2900:	fff986        	j	28ea <aec_post_calc+0x9a>

00002903 <aec_post_calc+0xb3>:
	...

00002904 <aec_post_calc_sb>:
    2904:	006136        	entry	a1, 48
    2907:	f65381        	l32r	a8, 254 (a7e0 <airoha_divide_limit_1>)
    290a:	33c8           	l32i.n	a12, a3, 12
    290c:	f606d1        	l32r	a13, 124 (10000 <_end+0xaa0>)
    290f:	f650e1        	l32r	a14, 250 (80000 <_end+0x70aa0>)
    2912:	00a1f2        	movi	a15, 0x100
    2915:	300ff4        	ae_cvtp24a16x2.ll	aep0, a15, a15
    2918:	364e34        	ae_cvtq48a32s	aeq1, a14
    291b:	d4e3f023ae 	{ l32i	a10, a3, 8; ae_mulfq32sp16u.l	aeq1, aeq1, aep0 }
    2920:	360d34        	ae_cvtq48a32s	aeq0, a13
    2923:	d4e2b9910f 	{ ae_sq32f.i	aeq1, a1, 0; ae_mulfq32sp16u.l	aeq0, aeq0, aep0 }
    2928:	01b8           	l32i.n	a11, a1, 0
    292a:	620104        	ae_sq32f.i	aeq0, a1, 0
    292d:	01d8           	l32i.n	a13, a1, 0
    292f:	53aab0        	max	a10, a10, a11
    2932:	0abd           	mov.n	a11, a10
    2934:	53ccd0        	max	a12, a12, a13
    2937:	43aac0        	min	a10, a10, a12
    293a:	0008e0        	callx8	a8
    293d:	4c2244        	ae_lp24.i	aep2, a2, 16
    2940:	379aa4        	ae_truncp24a32x2	aep1, a10, a10
    2943:	60c364        	ae_lq32f.i	aeq3, a3, 24
    2946:	019a34        	ae_mulafp24s.ll	aeq3, aep1, aep2
    2949:	30c3c2        	addi	a12, a3, 48
    294c:	fe3c61c39e 	{ l16si	a9, a3, 56; ae_roundsq32asym	aeq2, aeq3 }
    2951:	622364        	ae_sq32f.i	aeq2, a3, 24
    2954:	029282        	l16si	a8, a2, 4
    2957:	1b93a2        	l16si	a10, a3, 54
    295a:	f866bd437f 	{ ae_lq32f.i	aeq2, a3, 28; ae_movp48	aep0, aep1 }
    295f:	09a897        	bge	a8, a9, 296c <aec_post_calc_sb+0x68>
    2962:	0a9292        	l16si	a9, a2, 20
    2965:	221ae6        	bgei	a10, 1, 298b <aec_post_calc_sb+0x87>
    2968:	000846        	j	298d <aec_post_calc_sb+0x89>

0000296b <aec_post_calc_sb+0x67>:
	...

0000296c <aec_post_calc_sb+0x68>:
    296c:	1a9392        	l16si	a9, a3, 52
    296f:	b90b           	addi.n	a11, a9, -1
    2971:	05ab76        	loopgtz	a11, 297a <aec_post_calc_sb+0x76>
    2974:	010174        	ae_mulfp24s.ll	aeq0, aep0, aep1
    2977:	1b8d04        	ae_roundsp24q48asym	aep0, aeq0

0000297a <aec_post_calc_sb+0x76>:
    297a:	401c04        	ae_lp16f.i	aep1, a12, 0
    297d:	070914        	ae_maxp24s	aep1, aep0, aep1
    2980:	019234        	ae_mulafp24s.ll	aeq2, aep1, aep2
    2983:	066934        	ae_roundsq32asym	aeq1, aeq2
    2986:	621374        	ae_sq32f.i	aeq1, a3, 28
    2989:	f01d           	retw.n

0000298b <aec_post_calc_sb+0x87>:
    298b:	992b           	addi.n	a9, a9, 2

0000298d <aec_post_calc_sb+0x89>:
    298d:	031694        	wur.ae_sar	a9
    2990:	0b1084        	ae_sllssp24s	aep0, aep1
    2993:	fff8c6        	j	297a <aec_post_calc_sb+0x76>

00002996 <aec_post_calc_sb+0x92>:
	...

00002998 <aec_post_calc_FB>:
    2998:	004136        	entry	a1, 32
    299b:	f62e81        	l32r	a8, 254 (a7e0 <airoha_divide_limit_1>)
    299e:	f62eb1        	l32r	a11, 258 (1000 <PD_Noise_Est+0x4dc>)
    29a1:	33c8           	l32i.n	a12, a3, 12
    29a3:	23a8           	l32i.n	a10, a3, 8
    29a5:	00a2d2        	movi	a13, 0x200
    29a8:	53ccd0        	max	a12, a12, a13
    29ab:	53aab0        	max	a10, a10, a11
    29ae:	0abd           	mov.n	a11, a10
    29b0:	43aac0        	min	a10, a10, a12
    29b3:	0008e0        	callx8	a8
    29b6:	4c2244        	ae_lp24.i	aep2, a2, 16
    29b9:	379aa4        	ae_truncp24a32x2	aep1, a10, a10
    29bc:	604364        	ae_lq32f.i	aeq1, a3, 24
    29bf:	011a34        	ae_mulafp24s.ll	aeq1, aep1, aep2
    29c2:	fc2c4322be 	{ addi	a11, a2, 50; ae_roundsq32asym	aeq0, aeq1 }
    29c7:	620364        	ae_sq32f.i	aeq0, a3, 24
    29ca:	1c92f2        	l16si	a15, a2, 56
    29cd:	0292e2        	l16si	a14, a2, 4
    29d0:	600374        	ae_lq32f.i	aeq0, a3, 28
    29d3:	f866a1d28e 	{ l16si	a8, a2, 58; ae_movp48	aep0, aep1 }
    29d8:	08aef7        	bge	a14, a15, 29e4 <aec_post_calc_FB+0x4c>
    29db:	0a9292        	l16si	a9, a2, 20
    29de:	2118e6        	bgei	a8, 1, 2a03 <aec_post_calc_FB+0x6b>
    29e1:	000806        	j	2a05 <aec_post_calc_FB+0x6d>

000029e4 <aec_post_calc_FB+0x4c>:
    29e4:	0b9292        	l16si	a9, a2, 22
    29e7:	a90b           	addi.n	a10, a9, -1
    29e9:	05aa76        	loopgtz	a10, 29f2 <aec_post_calc_FB+0x5a>
    29ec:	018174        	ae_mulfp24s.ll	aeq2, aep0, aep1
    29ef:	1bad04        	ae_roundsp24q48asym	aep0, aeq2

000029f2 <aec_post_calc_FB+0x5a>:
    29f2:	401b04        	ae_lp16f.i	aep1, a11, 0
    29f5:	070914        	ae_maxp24s	aep1, aep0, aep1
    29f8:	011234        	ae_mulafp24s.ll	aeq0, aep1, aep2
    29fb:	06c934        	ae_roundsq32asym	aeq3, aeq0
    29fe:	623374        	ae_sq32f.i	aeq3, a3, 28
    2a01:	f01d           	retw.n

00002a03 <aec_post_calc_FB+0x6b>:
    2a03:	992b           	addi.n	a9, a9, 2

00002a05 <aec_post_calc_FB+0x6d>:
    2a05:	031694        	wur.ae_sar	a9
    2a08:	0b1084        	ae_sllssp24s	aep0, aep1
    2a0b:	fff8c6        	j	29f2 <aec_post_calc_FB+0x5a>

00002a0e <aec_post_calc_FB+0x76>:
	...

00002a10 <aec_post_calc_FB_sb>:
    2a10:	004136        	entry	a1, 32
    2a13:	f61081        	l32r	a8, 254 (a7e0 <airoha_divide_limit_1>)
    2a16:	f610b1        	l32r	a11, 258 (1000 <PD_Noise_Est+0x4dc>)
    2a19:	33c8           	l32i.n	a12, a3, 12
    2a1b:	23a8           	l32i.n	a10, a3, 8
    2a1d:	00a2d2        	movi	a13, 0x200
    2a20:	53ccd0        	max	a12, a12, a13
    2a23:	53aab0        	max	a10, a10, a11
    2a26:	0abd           	mov.n	a11, a10
    2a28:	43aac0        	min	a10, a10, a12
    2a2b:	0008e0        	callx8	a8
    2a2e:	4c2244        	ae_lp24.i	aep2, a2, 16
    2a31:	379aa4        	ae_truncp24a32x2	aep1, a10, a10
    2a34:	604364        	ae_lq32f.i	aeq1, a3, 24
    2a37:	e247c303be 	{ addi	a11, a3, 48; ae_mulafp24s.ll	aeq1, aep1, aep2 }
    2a3c:	1b9382        	l16si	a8, a3, 54
    2a3f:	fc2c61c3fe 	{ l16si	a15, a3, 56; ae_roundsq32asym	aeq0, aeq1 }
    2a44:	620364        	ae_sq32f.i	aeq0, a3, 24
    2a47:	0292e2        	l16si	a14, a2, 4
    2a4a:	600374        	ae_lq32f.i	aeq0, a3, 28
    2a4d:	f866a0a29e 	{ l16si	a9, a2, 20; ae_movp48	aep0, aep1 }
    2a52:	06aef7        	bge	a14, a15, 2a5c <aec_post_calc_FB_sb+0x4c>
    2a55:	2218e6        	bgei	a8, 1, 2a7b <aec_post_calc_FB_sb+0x6b>
    2a58:	000846        	j	2a7d <aec_post_calc_FB_sb+0x6d>

00002a5b <aec_post_calc_FB_sb+0x4b>:
	...

00002a5c <aec_post_calc_FB_sb+0x4c>:
    2a5c:	1a9392        	l16si	a9, a3, 52
    2a5f:	a90b           	addi.n	a10, a9, -1
    2a61:	05aa76        	loopgtz	a10, 2a6a <aec_post_calc_FB_sb+0x5a>
    2a64:	018174        	ae_mulfp24s.ll	aeq2, aep0, aep1
    2a67:	1bad04        	ae_roundsp24q48asym	aep0, aeq2

00002a6a <aec_post_calc_FB_sb+0x5a>:
    2a6a:	401b04        	ae_lp16f.i	aep1, a11, 0
    2a6d:	070914        	ae_maxp24s	aep1, aep0, aep1
    2a70:	011234        	ae_mulafp24s.ll	aeq0, aep1, aep2
    2a73:	06c934        	ae_roundsq32asym	aeq3, aeq0
    2a76:	623374        	ae_sq32f.i	aeq3, a3, 28
    2a79:	f01d           	retw.n

00002a7b <aec_post_calc_FB_sb+0x6b>:
    2a7b:	992b           	addi.n	a9, a9, 2

00002a7d <aec_post_calc_FB_sb+0x6d>:
    2a7d:	031694        	wur.ae_sar	a9
    2a80:	0b1084        	ae_sllssp24s	aep0, aep1
    2a83:	fff8c6        	j	2a6a <aec_post_calc_FB_sb+0x5a>

00002a86 <aec_post_calc_FB_sb+0x76>:
	...

00002a88 <subband_aec_block>:
    2a88:	008136        	entry	a1, 64
    2a8b:	069d           	mov.n	a9, a6
    2a8d:	1023d2        	l32i	a13, a3, 64
    2a90:	4e0c           	movi.n	a14, 4
    2a92:	60c344        	ae_lq32f.i	aeq3, a3, 16
    2a95:	119382        	l16si	a8, a3, 34
    2a98:	1223c2        	l32i	a12, a3, 72
    2a9b:	ba22b2        	l32i	a11, a2, 0x2e8
    2a9e:	2a0c           	movi.n	a10, 2
    2aa0:	a3f8           	l32i.n	a15, a3, 40
    2aa2:	f3f6f0        	wur.ae_cbegin0	a15
    2aa5:	d2a4a0        	quos	a10, a4, a10
    2aa8:	fccbb2        	addi	a11, a11, -4
    2aab:	440c04        	ae_lp16x2f.i	aep0, a12, 0
    2aae:	fc249188ff 	{ addx2	a8, a8, a15; ae_zeroq56	aeq0 }
    2ab3:	f3f780        	wur.ae_cend0	a8
    2ab6:	19aa76        	loopgtz	a10, 2ad3 <subband_aec_block+0x4b>
    2ab9:	a180f4        	ae_mulzaafq32sp16s.ll	aeq2, aeq3, aep0, aeq3, aep0
    2abc:	b108f4        	ae_mulzaafq32sp16s.hh	aeq1, aeq3, aep0, aeq3, aep0
    2abf:	f9739abdef 	{ ae_lp16x2f.c	aep3, a13, a14; ae_roundsp16q48asym	aep2, aeq2 }
    2ac4:	f86bed8c1f 	{ ae_lp16x2f.iu	aep0, a12, 4; ae_roundsp16q48asym	aep1, aeq1 }
    2ac9:	f06e3e125f 	{ ae_selp24.hl	aep1, aep1, aep2; ae_mulssfp24s.hh.ll	aeq0, aep3, aep3 }
    2ace:	e224339b1f 	{ ae_sp16x2f.iu	aep1, a11, 4; ae_mulaafp24s.hh.ll	aeq0, aep1, aep1 }

00002ad3 <subband_aec_block+0x4b>:
    2ad3:	31a9           	s32i.n	a10, a1, 12
    2ad5:	35c234        	ae_sraiq56	aeq3, aeq0, 8
    2ad8:	618304        	ae_lq56.i	aeq2, a3, 0
    2adb:	faf63092be 	{ l32i	a11, a2, 36; ae_addq56	aeq2, aeq2, aeq3 }
    2ae0:	fc80fecb7f 	{ ae_cvtq48a32s	aeq1, a11; ae_satq48s	aeq0, aeq2 }
    2ae5:	f86b14219f 	{ s32i.n	a9, a1, 8; ae_maxq56s	aeq0, aeq0, aeq1 }
    2aea:	630304        	ae_sq56s.i	aeq0, a3, 0
    2aed:	0145d6        	bgez	a5, 2b05 <subband_aec_block+0x7d>
    2af0:	1093a2        	l16si	a10, a3, 32
    2af3:	f5da81        	l32r	a8, 25c (a6d8 <airoha_divide>)
    2af6:	368b04        	ae_trunca32q48	a11, aeq0
    2af9:	11aa70        	slli	a10, a10, 9
    2afc:	0008e0        	callx8	a8
    2aff:	0061b2        	s32i	a11, a1, 0
    2b02:	0161a2        	s32i	a10, a1, 4

00002b05 <subband_aec_block+0x7d>:
    2b05:	270c           	movi.n	a7, 2
    2b07:	1023a2        	l32i	a10, a3, 64
    2b0a:	119362        	l16si	a6, a3, 34
    2b0d:	132392        	l32i	a9, a3, 76
    2b10:	ba22d2        	l32i	a13, a2, 0x2e8
    2b13:	0b23c2        	l32i	a12, a3, 44
    2b16:	1123e2        	l32i	a14, a3, 68
    2b19:	fecdd2        	addi	a13, a13, -2
    2b1c:	feccc2        	addi	a12, a12, -2
    2b1f:	feceb2        	addi	a11, a14, -2
    2b22:	fec9f2        	addi	a15, a9, -2
    2b25:	6014a6        	blti	a4, 1, 2b89 <subband_aec_block+0x101>
    2b28:	00a0e2        	movi	a14, 0

00002b2b <subband_aec_block+0xa3>:
    2b2b:	0c9d           	mov.n	a9, a12
    2b2d:	40dd14        	ae_lp16f.iu	aep5, a13, 2
    2b30:	fc24e2da7f 	{ ae_sp16f.l.c	aep5, a10, a7; nop }
    2b35:	40cb14        	ae_lp16f.iu	aep4, a11, 2
    2b38:	fc8c2c891f 	{ ae_lp16f.iu	aep0, a9, 2; ae_cvtq48p24s.l	aeq0, aep4 }
    2b3d:	09a676        	loopgtz	a6, 2b4a <subband_aec_block+0xc2>
    2b40:	fc24d96a7f 	{ ae_lp16f.c	aep6, a10, a7; nop }
    2b45:	eec1ac891f 	{ ae_lp16f.iu	aep0, a9, 2; ae_mulsfp24s.ll	aeq0, aep0, aep6 }

00002b4a <subband_aec_block+0xc2>:
    2b4a:	f863801eee 	{ addi	a14, a14, 1; ae_roundsp16q48asym	aep0, aeq0 }
    2b4f:	428f14        	ae_sp16f.l.iu	aep0, a15, 2
    2b52:	02a5d6        	bgez	a5, 2b80 <subband_aec_block+0xf8>
    2b55:	002192        	l32i	a9, a1, 0
    2b58:	364934        	ae_cvtq48a32s	aeq1, a9
    2b5b:	d4e370118e 	{ l32i	a8, a1, 4; ae_mulfq32sp16s.l	aeq1, aeq1, aep0 }
    2b60:	209cc0        	or	a9, a12, a12
    2b63:	fc24fe980f 	{ ae_slaasq56s	aeq0, aeq1, a8; nop }
    2b68:	f967ac891f 	{ ae_lp16f.iu	aep0, a9, 2; ae_roundsp24q48asym	aep2, aeq0 }
    2b6d:	0fa676        	loopgtz	a6, 2b80 <subband_aec_block+0xf8>

00002b70 <subband_aec_block+0xe8>:
    2b70:	fe0c190a7f 	{ ae_lp16f.c	aep0, a10, a7; ae_cvtq48p24s.l	aeq2, aep0 }
    2b75:	01a034        	ae_mulafp24s.ll	aeq2, aep2, aep0
    2b78:	fb73ec891f 	{ ae_lp16f.iu	aep0, a9, 2; ae_roundsp16q48asym	aep7, aeq2 }
    2b7d:	4279f4        	ae_sp16f.l.i	aep7, a9, -2
    2b80:	a794e7        	bne	a4, a14, 2b2b <subband_aec_block+0xa3>
    2b83:	1123e2        	l32i	a14, a3, 68
    2b86:	132392        	l32i	a9, a3, 76

00002b89 <subband_aec_block+0x101>:
    2b89:	31b8           	l32i.n	a11, a1, 12
    2b8b:	1063a2        	s32i	a10, a3, 64
    2b8e:	fcc992        	addi	a9, a9, -4
    2b91:	fd248fceae 	{ addi	a10, a14, -4; ae_zeroq56	aeq1 }
    2b96:	fe0c7f113f 	{ ae_movq56	aeq0, aeq1; ae_movq56	aeq2, aeq1 }
    2b9b:	f03d           	nop.n
    2b9d:	0dab76        	loopgtz	a11, 2bae <subband_aec_block+0x126>
    2ba0:	449a14        	ae_lp16x2f.iu	aep1, a10, 4
    2ba3:	e2242da91f 	{ ae_lp16x2f.iu	aep2, a9, 4; ae_mulaafp24s.hh.ll	aeq0, aep1, aep1 }
    2ba8:	05a204        	ae_mulaafp24s.hh.ll	aeq2, aep2, aep2
    2bab:	051a04        	ae_mulaafp24s.hh.ll	aeq1, aep1, aep2

00002bae <subband_aec_block+0x126>:
    2bae:	21c8           	l32i.n	a12, a1, 8
    2bb0:	114ca6        	blti	a12, 4, 2bc5 <subband_aec_block+0x13d>
    2bb3:	35e134        	ae_sraiq56	aeq3, aeq2, 4
    2bb6:	01efc4        	ae_subq56	aeq3, aeq2, aeq3
    2bb9:	09b004        	ae_ltq56s	b0, aeq0, aeq3
    2bbc:	030460        	rsr.br	a6
    2bbf:	046060        	extui	a6, a6, 0, 1
    2bc2:	000046        	j	2bc7 <subband_aec_block+0x13f>

00002bc5 <subband_aec_block+0x13d>:
    2bc5:	060c           	movi.n	a6, 0

00002bc7 <subband_aec_block+0x13f>:
    2bc7:	03ad           	mov.n	a10, a3
    2bc9:	f5a581        	l32r	a8, 260 (2770 <common_x_pow>)
    2bcc:	35c134        	ae_sraiq56	aeq3, aeq0, 4
    2bcf:	fd3c7b118f 	{ ae_sraiq56	aeq2, aeq1, 4; ae_roundsq32asym	aeq1, aeq3 }
    2bd4:	fc347f1bef 	{ ae_trunca32q48	a11, aeq1; ae_roundsq32asym	aeq0, aeq2 }
    2bd9:	368c04        	ae_trunca32q48	a12, aeq0
    2bdc:	0008e0        	callx8	a8
    2bdf:	9a6a           	add.n	a9, a10, a6
    2be1:	c98c           	beqz.n	a9, 2bf1 <subband_aec_block+0x169>
    2be3:	04cd           	mov.n	a12, a4
    2be5:	f53781        	l32r	a8, c4 (c738 <xt_memcpy>)
    2be8:	1323a2        	l32i	a10, a3, 76
    2beb:	1123b2        	l32i	a11, a3, 68
    2bee:	0008e0        	callx8	a8

00002bf1 <subband_aec_block+0x169>:
    2bf1:	2d0c           	movi.n	a13, 2
    2bf3:	b3c8           	l32i.n	a12, a3, 44
    2bf5:	0d92a2        	l16si	a10, a2, 26
    2bf8:	fc24a1139e 	{ l16si	a9, a3, 34; ae_zeroq56	aeq0 }
    2bfd:	630124        	ae_sq56s.i	aeq0, a1, 16
    2c00:	11baf0        	slli	a11, a10, 1
    2c03:	9099c0        	addx2	a9, a9, a12
    2c06:	d2aad0        	quos	a10, a10, a13
    2c09:	8aad           	ae_sext16	a10, a10
    2c0b:	c099b0        	sub	a9, a9, a11
    2c0e:	fcc992        	addi	a9, a9, -4
    2c11:	08aa76        	loopgtz	a10, 2c1d <subband_aec_block+0x195>
    2c14:	44b914        	ae_lp16x2f.iu	aep3, a9, 4
    2c17:	053304        	ae_mulaafp24s.hh.ll	aeq0, aep3, aep3
    2c1a:	630124        	ae_sq56s.i	aeq0, a1, 16

00002c1d <subband_aec_block+0x195>:
    2c1d:	f58d81        	l32r	a8, 254 (a7e0 <airoha_divide_limit_1>)
    2c20:	33a8           	l32i.n	a10, a3, 12
    2c22:	610124        	ae_lq56.i	aeq0, a1, 16
    2c25:	3540b4        	ae_sraiq56	aeq1, aeq0, 2
    2c28:	fc2c4000bf 	{ movi	a11, 0; ae_roundsq32asym	aeq0, aeq1 }
    2c2d:	53aab0        	max	a10, a10, a11
    2c30:	630124        	ae_sq56s.i	aeq0, a1, 16
    2c33:	23b8           	l32i.n	a11, a3, 8
    2c35:	0008e0        	callx8	a8
    2c38:	610124        	ae_lq56.i	aeq0, a1, 16
    2c3b:	0492f2        	l16si	a15, a2, 8
    2c3e:	f57be1        	l32r	a14, 22c (7fff <two_mic_WB_NR_NSN_proc+0x133>)
    2c41:	3180a0        	srai	a8, a10, 16
    2c44:	1293b2        	l16si	a11, a3, 36
    2c47:	c0ee80        	sub	a14, a14, a8
    2c4a:	53eef0        	max	a14, a14, a15
    2c4d:	256b17        	bbci	a11, 1, 2c76 <subband_aec_block+0x1ee>
    2c50:	05dd           	mov.n	a13, a5
    2c52:	02ad           	mov.n	a10, a2
    2c54:	03bd           	mov.n	a11, a3
    2c56:	039292        	l16si	a9, a2, 6
    2c59:	368404        	ae_trunca32q48	a4, aeq0
    2c5c:	f58281        	l32r	a8, 264 (27cc <ref_gain_adapt>)
    2c5f:	8299e0        	mull	a9, a9, a14
    2c62:	04cd           	mov.n	a12, a4
    2c64:	40d992        	addmi	a9, a9, 0x4000
    2c67:	219f90        	srai	a9, a9, 15
    2c6a:	105392        	s16i	a9, a3, 32
    2c6d:	0008e0        	callx8	a8
    2c70:	1293b2        	l16si	a11, a3, 36
    2c73:	000146        	j	2c7c <subband_aec_block+0x1f4>

00002c76 <subband_aec_block+0x1ee>:
    2c76:	1053e2        	s16i	a14, a3, 32
    2c79:	368404        	ae_trunca32q48	a4, aeq0

00002c7c <subband_aec_block+0x1f4>:
    2c7c:	0592a2        	l16si	a10, a2, 10
    2c7f:	11aa00        	slli	a10, a10, 16
    2c82:	54aa47        	bge	a10, a4, 2cda <subband_aec_block+0x252>
    2c85:	f578a1        	l32r	a10, 268 (ec48 <immediate_num+0x18>)
    2c88:	0692c2        	l16si	a12, a2, 12
    2c8b:	20bb70        	or	a11, a11, a7
    2c8e:	1253b2        	s16i	a11, a3, 36
    2c91:	11cc00        	slli	a12, a12, 16
    2c94:	05ac47        	bge	a12, a4, 2c9d <subband_aec_block+0x215>
    2c97:	403a04        	ae_lp16f.i	aep3, a10, 0
    2c9a:	000086        	j	2ca0 <subband_aec_block+0x218>

00002c9d <subband_aec_block+0x215>:
    2c9d:	403a14        	ae_lp16f.i	aep3, a10, 2

00002ca0 <subband_aec_block+0x218>:
    2ca0:	b3e8           	l32i.n	a14, a3, 44
    2ca2:	0d92d2        	l16si	a13, a2, 26
    2ca5:	1193a2        	l16si	a10, a3, 34
    2ca8:	2f0c           	movi.n	a15, 2
    2caa:	11cdf0        	slli	a12, a13, 1
    2cad:	90aae0        	addx2	a10, a10, a14
    2cb0:	d2ddf0        	quos	a13, a13, a15
    2cb3:	8ddd           	ae_sext16	a13, a13
    2cb5:	c0aac0        	sub	a10, a10, a12
    2cb8:	feca92        	addi	a9, a10, -2
    2cbb:	440a04        	ae_lp16x2f.i	aep0, a10, 0
    2cbe:	181da6        	blti	a13, 1, 2cda <subband_aec_block+0x252>
    2cc1:	12ad76        	loopgtz	a13, 2cd7 <subband_aec_block+0x24f>
    2cc4:	018b54        	ae_mulfp24s.hl	aeq3, aep0, aep3
    2cc7:	018374        	ae_mulfp24s.ll	aeq2, aep0, aep3
    2cca:	fa7bed8a1f 	{ ae_lp16x2f.iu	aep0, a10, 4; ae_roundsp16q48asym	aep5, aeq3 }
    2ccf:	fa73b2d91f 	{ ae_sp16f.l.iu	aep5, a9, 2; ae_roundsp16q48asym	aep4, aeq2 }
    2cd4:	42c914        	ae_sp16f.l.iu	aep4, a9, 2

00002cd7 <subband_aec_block+0x24f>:
    2cd7:	1293b2        	l16si	a11, a3, 36
    2cda:	146b07        	bbci	a11, 0, 2cf2 <subband_aec_block+0x26a>
    2cdd:	02d282        	addmi	a8, a2, 0x200
    2ce0:	7a9882        	l16si	a8, a8, 244
    2ce3:	311866        	bnei	a8, 1, 2d18 <subband_aec_block+0x290>
    2ce6:	f56181        	l32r	a8, 26c (2904 <aec_post_calc_sb>)
    2ce9:	02ad           	mov.n	a10, a2
    2ceb:	03bd           	mov.n	a11, a3
    2ced:	0008e0        	callx8	a8
    2cf0:	f01d           	retw.n

00002cf2 <subband_aec_block+0x26a>:
    2cf2:	206b27        	bbci	a11, 2, 2d16 <subband_aec_block+0x28e>
    2cf5:	02d292        	addmi	a9, a2, 0x200
    2cf8:	7a9992        	l16si	a9, a9, 244
    2cfb:	0b1966        	bnei	a9, 1, 2d0a <subband_aec_block+0x282>
    2cfe:	f55c81        	l32r	a8, 270 (2a10 <aec_post_calc_FB_sb>)
    2d01:	02ad           	mov.n	a10, a2
    2d03:	03bd           	mov.n	a11, a3
    2d05:	0008e0        	callx8	a8
    2d08:	f01d           	retw.n

00002d0a <subband_aec_block+0x282>:
    2d0a:	02ad           	mov.n	a10, a2
    2d0c:	f55a81        	l32r	a8, 274 (2998 <aec_post_calc_FB>)
    2d0f:	03bd           	mov.n	a11, a3
    2d11:	21c8           	l32i.n	a12, a1, 8
    2d13:	0008e0        	callx8	a8
    2d16:	f01d           	retw.n

00002d18 <subband_aec_block+0x290>:
    2d18:	03bd           	mov.n	a11, a3
    2d1a:	f55781        	l32r	a8, 278 (2850 <aec_post_calc>)
    2d1d:	02ad           	mov.n	a10, a2
    2d1f:	21c8           	l32i.n	a12, a1, 8
    2d21:	0008e0        	callx8	a8
    2d24:	f01d           	retw.n

00002d26 <subband_aec_block+0x29e>:
	...

00002d28 <subband_aec_mid_channel>:
    2d28:	008136        	entry	a1, 64
    2d2b:	102392        	l32i	a9, a3, 64
    2d2e:	60c344        	ae_lq32f.i	aeq3, a3, 16
    2d31:	460c           	movi.n	a6, 4
    2d33:	2159           	s32i.n	a5, a1, 8
    2d35:	0aa082        	movi	a8, 10
    2d38:	1193c2        	l16si	a12, a3, 34
    2d3b:	0a23d2        	l32i	a13, a3, 40
    2d3e:	ba22b2        	l32i	a11, a2, 0x2e8
    2d41:	f3f6d0        	wur.ae_cbegin0	a13
    2d44:	a0ccd0        	addx4	a12, a12, a13
    2d47:	1223d2        	l32i	a13, a3, 72
    2d4a:	fccbb2        	addi	a11, a11, -4
    2d4d:	f3f7c0        	wur.ae_cend0	a12
    2d50:	fc24ad0d0f 	{ ae_lp16x2f.i	aep0, a13, 0; ae_zeroq56	aeq0 }
    2d55:	19a876        	loopgtz	a8, 2d72 <subband_aec_mid_channel+0x4a>
    2d58:	a180f4        	ae_mulzaafq32sp16s.ll	aeq2, aeq3, aep0, aeq3, aep0
    2d5b:	b108f4        	ae_mulzaafq32sp16s.hh	aeq1, aeq3, aep0, aeq3, aep0
    2d5e:	f9739ab96f 	{ ae_lp16x2f.c	aep3, a9, a6; ae_roundsp16q48asym	aep2, aeq2 }
    2d63:	f86bed8d1f 	{ ae_lp16x2f.iu	aep0, a13, 4; ae_roundsp16q48asym	aep1, aeq1 }
    2d68:	f06e3e125f 	{ ae_selp24.hl	aep1, aep1, aep2; ae_mulssfp24s.hh.ll	aeq0, aep3, aep3 }
    2d6d:	e224339b1f 	{ ae_sp16x2f.iu	aep1, a11, 4; ae_mulaafp24s.hh.ll	aeq0, aep1, aep1 }

00002d72 <subband_aec_mid_channel+0x4a>:
    2d72:	92e8           	l32i.n	a14, a2, 36
    2d74:	35c1b4        	ae_sraiq56	aeq3, aeq0, 6
    2d77:	618304        	ae_lq56.i	aeq2, a3, 0
    2d7a:	01abc4        	ae_addq56	aeq2, aeq2, aeq3
    2d7d:	11eee0        	slli	a14, a14, 2
    2d80:	fc80fece7f 	{ ae_cvtq48a32s	aeq1, a14; ae_satq48s	aeq0, aeq2 }
    2d85:	0110c4        	ae_maxq56s	aeq0, aeq0, aeq1
    2d88:	630304        	ae_sq56s.i	aeq0, a3, 0
    2d8b:	0154d6        	bgez	a4, 2da4 <subband_aec_mid_channel+0x7c>
    2d8e:	1093a2        	l16si	a10, a3, 32
    2d91:	f53281        	l32r	a8, 25c (a6d8 <airoha_divide>)
    2d94:	368b04        	ae_trunca32q48	a11, aeq0
    2d97:	11aa50        	slli	a10, a10, 11
    2d9a:	0008e0        	callx8	a8
    2d9d:	0bed           	mov.n	a14, a11
    2d9f:	0add           	mov.n	a13, a10
    2da1:	ffffc6        	j	2da4 <subband_aec_mid_channel+0x7c>

00002da4 <subband_aec_mid_channel+0x7c>:
    2da4:	102392        	l32i	a9, a3, 64
    2da7:	119352        	l16si	a5, a3, 34
    2daa:	a70c           	movi.n	a7, 10
    2dac:	11e9           	s32i.n	a14, a1, 4
    2dae:	01d9           	s32i.n	a13, a1, 0
    2db0:	b3c8           	l32i.n	a12, a3, 44
    2db2:	1123f2        	l32i	a15, a3, 68
    2db5:	1323a2        	l32i	a10, a3, 76
    2db8:	ba22b2        	l32i	a11, a2, 0x2e8
    2dbb:	fccff2        	addi	a15, a15, -4
    2dbe:	fecaa2        	addi	a10, a10, -2
    2dc1:	fccbb2        	addi	a11, a11, -4
    2dc4:	fecc82        	addi	a8, a12, -2
    2dc7:	3189           	s32i.n	a8, a1, 12

00002dc9 <subband_aec_mid_channel+0xa1>:
    2dc9:	44db14        	ae_lp16x2f.iu	aep5, a11, 4
    2dcc:	fc24e4596f 	{ ae_sp16x2f.c	aep5, a9, a6; nop }
    2dd1:	44cf14        	ae_lp16x2f.iu	aep4, a15, 4
    2dd4:	fd8413dccf 	{ or	a13, a12, a12; ae_cvtq48p24s.h	aeq1, aep4 }
    2dd9:	fc8c2d0c0f 	{ ae_lp16x2f.i	aep0, a12, 0; ae_cvtq48p24s.l	aeq0, aep4 }
    2dde:	0ca576        	loopgtz	a5, 2dee <subband_aec_mid_channel+0xc6>
    2de1:	fc24dae96f 	{ ae_lp16x2f.c	aep6, a9, a6; nop }
    2de6:	050ec4        	ae_mulssfp24s.hh.ll	aeq1, aep0, aep6
    2de9:	eec02d8d1f 	{ ae_lp16x2f.iu	aep0, a13, 4; ae_mulsafp24s.hl.lh	aeq0, aep0, aep6 }

00002dee <subband_aec_mid_channel+0xc6>:
    2dee:	f86b8ff77e 	{ addi	a7, a7, -1; ae_roundsp16q48asym	aep0, aeq1 }
    2df3:	f863f28a1f 	{ ae_sp16f.l.iu	aep0, a10, 2; ae_roundsp16q48asym	aep1, aeq0 }
    2df8:	429a14        	ae_sp16f.l.iu	aep1, a10, 2
    2dfb:	0444d6        	bgez	a4, 2e43 <subband_aec_mid_channel+0x11b>
    2dfe:	0121d2        	l32i	a13, a1, 4
    2e01:	368d34        	ae_cvtq48a32s	aeq2, a13
    2e04:	038a94        	ae_mulfq32sp16s.l	aeq3, aeq2, aep0
    2e07:	d7e630018e 	{ l32i	a8, a1, 0; ae_mulfq32sp16s.l	aeq2, aeq2, aep1 }
    2e0c:	fc24feb80f 	{ ae_slaasq56s	aeq0, aeq3, a8; nop }
    2e11:	fc24fea84f 	{ ae_slaasq56s	aeq1, aeq2, a8; nop }
    2e16:	fa6fb031ee 	{ l32i	a14, a1, 12; ae_roundsp24q48asym	aep4, aeq1 }
    2e1b:	f967d3dccf 	{ or	a13, a12, a12; ae_roundsp24q48asym	aep3, aeq0 }
    2e20:	dd8ced0c0f 	{ ae_lp16x2f.i	aep0, a12, 0; ae_selp24.hl	aep3, aep3, aep4 }
    2e25:	1aa576        	loopgtz	a5, 2e43 <subband_aec_mid_channel+0x11b>
    2e28:	0ac084        	ae_cvtq48p24s.l	aeq3, aep0
    2e2b:	fc041af96f 	{ ae_lp16x2f.c	aep7, a9, a6; ae_cvtq48p24s.h	aeq0, aep0 }
    2e30:	053704        	ae_mulaafp24s.hh.ll	aeq0, aep3, aep7
    2e33:	05bf54        	ae_mulasfp24s.hl.lh	aeq3, aep3, aep7
    2e36:	fb63ad8d1f 	{ ae_lp16x2f.iu	aep0, a13, 4; ae_roundsp16q48asym	aep6, aeq0 }
    2e3b:	fa7bf2ee1f 	{ ae_sp16f.l.iu	aep6, a14, 2; ae_roundsp16q48asym	aep5, aeq3 }
    2e40:	42de14        	ae_sp16f.l.iu	aep5, a14, 2
    2e43:	f82756        	bnez	a7, 2dc9 <subband_aec_mid_channel+0xa1>
    2e46:	0aa0e2        	movi	a14, 10
    2e49:	1123f2        	l32i	a15, a3, 68
    2e4c:	106392        	s32i	a9, a3, 64
    2e4f:	fe24b1339e 	{ l32i	a9, a3, 76; ae_zeroq56	aeq2 }
    2e54:	632124        	ae_sq56s.i	aeq2, a1, 16
    2e57:	fd146d0f0f 	{ ae_lp16x2f.i	aep0, a15, 0; ae_movq56	aeq1, aeq2 }
    2e5c:	fc146d190f 	{ ae_lp16x2f.i	aep1, a9, 0; ae_movq56	aeq0, aeq2 }
    2e61:	10ae76        	loopgtz	a14, 2e75 <subband_aec_mid_channel+0x14d>
    2e64:	050004        	ae_mulaafp24s.hh.ll	aeq0, aep0, aep0
    2e67:	050904        	ae_mulaafp24s.hh.ll	aeq1, aep0, aep1

00002e6a <subband_aec_mid_channel+0x142>:
    2e6a:	eb202d991f 	{ ae_lp16x2f.iu	aep1, a9, 4; ae_mulasfp24s.hl.lh	aeq2, aep0, aep1 }
    2e6f:	630124        	ae_sq56s.i	aeq0, a1, 16
    2e72:	448f14        	ae_lp16x2f.iu	aep0, a15, 4

00002e75 <subband_aec_mid_channel+0x14d>:
    2e75:	f48881        	l32r	a8, 98 (948 <HIFI_sqrt>)
    2e78:	35a134        	ae_sraiq56	aeq2, aeq2, 4
    2e7b:	f877fb114f 	{ ae_sraiq56	aeq1, aeq1, 4; ae_roundsp24q48asym	aep1, aeq2 }
    2e80:	1b9d04        	ae_roundsp24q48asym	aep0, aeq1
    2e83:	dc20bda12f 	{ ae_lq56.i	aeq1, a1, 16; ae_selp24.hl	aep0, aep0, aep1 }
    2e88:	f002bb118f 	{ ae_sraiq56	aeq2, aeq1, 4; ae_mulzaafp24s.hh.ll	aeq0, aep0, aep0 }
    2e8d:	fd344000af 	{ movi	a10, 0; ae_roundsq32asym	aeq1, aeq2 }
    2e92:	ff247a112f 	{ ae_sq56s.i	aeq1, a1, 16; ae_roundsq32asym	aeq3, aeq0 }
    2e97:	36bb04        	ae_trunca32q48	a11, aeq3
    2e9a:	0008e0        	callx8	a8
    2e9d:	f4f081        	l32r	a8, 260 (2770 <common_x_pow>)
    2ea0:	614124        	ae_lq56.i	aeq1, a1, 16
    2ea3:	368b34        	ae_cvtq48a32s	aeq2, a11
    2ea6:	fc24feaa0f 	{ ae_slaasq56s	aeq0, aeq2, a10; nop }
    2eab:	369b04        	ae_trunca32q48	a11, aeq1
    2eae:	ff2453a33f 	{ or	a10, a3, a3; ae_roundsq32asym	aeq3, aeq0 }
    2eb3:	36bc04        	ae_trunca32q48	a12, aeq3
    2eb6:	0008e0        	callx8	a8
    2eb9:	da8c           	beqz.n	a10, 2eca <subband_aec_mid_channel+0x1a2>
    2ebb:	1323a2        	l32i	a10, a3, 76
    2ebe:	f48181        	l32r	a8, c4 (c738 <xt_memcpy>)
    2ec1:	1123b2        	l32i	a11, a3, 68
    2ec4:	14a0c2        	movi	a12, 20
    2ec7:	0008e0        	callx8	a8

00002eca <subband_aec_mid_channel+0x1a2>:
    2eca:	0d92a2        	l16si	a10, a2, 26
    2ecd:	119392        	l16si	a9, a3, 34
    2ed0:	fc24b0b3be 	{ l32i	a11, a3, 44; ae_zeroq56	aeq0 }
    2ed5:	630134        	ae_sq56s.i	aeq0, a1, 24
    2ed8:	c099a0        	sub	a9, a9, a10
    2edb:	a099b0        	addx4	a9, a9, a11
    2ede:	fcc992        	addi	a9, a9, -4
    2ee1:	08aa76        	loopgtz	a10, 2eed <subband_aec_mid_channel+0x1c5>
    2ee4:	44a914        	ae_lp16x2f.iu	aep2, a9, 4
    2ee7:	052204        	ae_mulaafp24s.hh.ll	aeq0, aep2, aep2
    2eea:	630134        	ae_sq56s.i	aeq0, a1, 24

00002eed <subband_aec_mid_channel+0x1c5>:
    2eed:	33a8           	l32i.n	a10, a3, 12
    2eef:	f4d981        	l32r	a8, 254 (a7e0 <airoha_divide_limit_1>)
    2ef2:	61c134        	ae_lq56.i	aeq3, a1, 24
    2ef5:	3530b4        	ae_sraiq56	aeq0, aeq3, 2
    2ef8:	ff247023be 	{ l32i	a11, a3, 8; ae_roundsq32asym	aeq3, aeq0 }
    2efd:	633134        	ae_sq56s.i	aeq3, a1, 24
    2f00:	0008e0        	callx8	a8
    2f03:	610134        	ae_lq56.i	aeq0, a1, 24
    2f06:	1293b2        	l16si	a11, a3, 36
    2f09:	f4c8e1        	l32r	a14, 22c (7fff <two_mic_WB_NR_NSN_proc+0x133>)
    2f0c:	0492f2        	l16si	a15, a2, 8
    2f0f:	3160a0        	srai	a6, a10, 16
    2f12:	c0ee60        	sub	a14, a14, a6
    2f15:	53eef0        	max	a14, a14, a15
    2f18:	260c           	movi.n	a6, 2
    2f1a:	266b17        	bbci	a11, 1, 2f44 <subband_aec_mid_channel+0x21c>
    2f1d:	02ad           	mov.n	a10, a2
    2f1f:	03bd           	mov.n	a11, a3
    2f21:	04dd           	mov.n	a13, a4
    2f23:	039292        	l16si	a9, a2, 6
    2f26:	368404        	ae_trunca32q48	a4, aeq0
    2f29:	f4ce81        	l32r	a8, 264 (27cc <ref_gain_adapt>)
    2f2c:	8299e0        	mull	a9, a9, a14
    2f2f:	04cd           	mov.n	a12, a4
    2f31:	40d992        	addmi	a9, a9, 0x4000
    2f34:	219f90        	srai	a9, a9, 15
    2f37:	105392        	s16i	a9, a3, 32
    2f3a:	0008e0        	callx8	a8
    2f3d:	1293b2        	l16si	a11, a3, 36
    2f40:	000186        	j	2f4a <subband_aec_mid_channel+0x222>

00002f43 <subband_aec_mid_channel+0x21b>:
	...

00002f44 <subband_aec_mid_channel+0x21c>:
    2f44:	1053e2        	s16i	a14, a3, 32
    2f47:	368404        	ae_trunca32q48	a4, aeq0

00002f4a <subband_aec_mid_channel+0x222>:
    2f4a:	0592a2        	l16si	a10, a2, 10
    2f4d:	11aa00        	slli	a10, a10, 16
    2f50:	4aaa47        	bge	a10, a4, 2f9e <subband_aec_mid_channel+0x276>
    2f53:	f4c5a1        	l32r	a10, 268 (ec48 <immediate_num+0x18>)
    2f56:	0692c2        	l16si	a12, a2, 12
    2f59:	20bb60        	or	a11, a11, a6
    2f5c:	1253b2        	s16i	a11, a3, 36
    2f5f:	11cc00        	slli	a12, a12, 16
    2f62:	05ac47        	bge	a12, a4, 2f6b <subband_aec_mid_channel+0x243>
    2f65:	401a04        	ae_lp16f.i	aep1, a10, 0
    2f68:	000086        	j	2f6e <subband_aec_mid_channel+0x246>

00002f6b <subband_aec_mid_channel+0x243>:
    2f6b:	401a14        	ae_lp16f.i	aep1, a10, 2

00002f6e <subband_aec_mid_channel+0x246>:
    2f6e:	0d92d2        	l16si	a13, a2, 26
    2f71:	1193a2        	l16si	a10, a3, 34
    2f74:	b3c8           	l32i.n	a12, a3, 44
    2f76:	c0aad0        	sub	a10, a10, a13
    2f79:	a0aac0        	addx4	a10, a10, a12
    2f7c:	feca92        	addi	a9, a10, -2
    2f7f:	440a04        	ae_lp16x2f.i	aep0, a10, 0
    2f82:	181da6        	blti	a13, 1, 2f9e <subband_aec_mid_channel+0x276>
    2f85:	12ad76        	loopgtz	a13, 2f9b <subband_aec_mid_channel+0x273>
    2f88:	018154        	ae_mulfp24s.hl	aeq2, aep0, aep1
    2f8b:	010974        	ae_mulfp24s.ll	aeq1, aep0, aep1
    2f8e:	fa73ad8a1f 	{ ae_lp16x2f.iu	aep0, a10, 4; ae_roundsp16q48asym	aep4, aeq2 }
    2f93:	f96bf2c91f 	{ ae_sp16f.l.iu	aep4, a9, 2; ae_roundsp16q48asym	aep3, aeq1 }
    2f98:	42b914        	ae_sp16f.l.iu	aep3, a9, 2

00002f9b <subband_aec_mid_channel+0x273>:
    2f9b:	1293b2        	l16si	a11, a3, 36
    2f9e:	146b07        	bbci	a11, 0, 2fb6 <subband_aec_mid_channel+0x28e>
    2fa1:	02d2b2        	addmi	a11, a2, 0x200
    2fa4:	7a9bb2        	l16si	a11, a11, 244
    2fa7:	311b66        	bnei	a11, 1, 2fdc <subband_aec_mid_channel+0x2b4>
    2faa:	f4b081        	l32r	a8, 26c (2904 <aec_post_calc_sb>)
    2fad:	02ad           	mov.n	a10, a2
    2faf:	03bd           	mov.n	a11, a3
    2fb1:	0008e0        	callx8	a8
    2fb4:	f01d           	retw.n

00002fb6 <subband_aec_mid_channel+0x28e>:
    2fb6:	206b27        	bbci	a11, 2, 2fda <subband_aec_mid_channel+0x2b2>
    2fb9:	02d292        	addmi	a9, a2, 0x200
    2fbc:	7a9992        	l16si	a9, a9, 244
    2fbf:	0b1966        	bnei	a9, 1, 2fce <subband_aec_mid_channel+0x2a6>
    2fc2:	f4ab81        	l32r	a8, 270 (2a10 <aec_post_calc_FB_sb>)
    2fc5:	02ad           	mov.n	a10, a2
    2fc7:	03bd           	mov.n	a11, a3
    2fc9:	0008e0        	callx8	a8
    2fcc:	f01d           	retw.n

00002fce <subband_aec_mid_channel+0x2a6>:
    2fce:	02ad           	mov.n	a10, a2
    2fd0:	f4a981        	l32r	a8, 274 (2998 <aec_post_calc_FB>)
    2fd3:	03bd           	mov.n	a11, a3
    2fd5:	21c8           	l32i.n	a12, a1, 8
    2fd7:	0008e0        	callx8	a8
    2fda:	f01d           	retw.n

00002fdc <subband_aec_mid_channel+0x2b4>:
    2fdc:	03bd           	mov.n	a11, a3
    2fde:	f4a681        	l32r	a8, 278 (2850 <aec_post_calc>)
    2fe1:	02ad           	mov.n	a10, a2
    2fe3:	21c8           	l32i.n	a12, a1, 8
    2fe5:	0008e0        	callx8	a8
    2fe8:	f01d           	retw.n

00002fea <subband_aec_mid_channel+0x2c2>:
	...

00002fec <dt_detect>:
    2fec:	004136        	entry	a1, 32
    2fef:	0c9242        	l16si	a4, a2, 24
    2ff2:	179262        	l16si	a6, a2, 46
    2ff5:	189282        	l16si	a8, a2, 48
    2ff8:	114400        	slli	a4, a4, 16
    2ffb:	19a437        	bge	a4, a3, 3018 <dt_detect+0x2c>
    2ffe:	054c           	movi.n	a5, 64
    3000:	14a587        	bge	a5, a8, 3018 <dt_detect+0x2c>
    3003:	169232        	l16si	a3, a2, 44
    3006:	0e9252        	l16si	a5, a2, 28
    3009:	662b           	addi.n	a6, a6, 2
    300b:	334b           	addi.n	a3, a3, 4
    300d:	433350        	min	a3, a3, a5
    3010:	833d           	ae_sext16	a3, a3
    3012:	165232        	s16i	a3, a2, 44
    3015:	0002c6        	j	3024 <dt_detect+0x38>

00003018 <dt_detect+0x2c>:
    3018:	660b           	addi.n	a6, a6, -1
    301a:	030c           	movi.n	a3, 0
    301c:	0e9252        	l16si	a5, a2, 28
    301f:	040c           	movi.n	a4, 0
    3021:	165242        	s16i	a4, a2, 44

00003024 <dt_detect+0x38>:
    3024:	538630        	max	a8, a6, a3
    3027:	438850        	min	a8, a8, a5
    302a:	175282        	s16i	a8, a2, 46
    302d:	f01d           	retw.n

0000302f <dt_detect+0x43>:
	...

00003030 <dt_detect_sb>:
    3030:	004136        	entry	a1, 32
    3033:	199352        	l16si	a5, a3, 50
    3036:	1c9372        	l16si	a7, a3, 56
    3039:	064c           	movi.n	a6, 64
    303b:	115500        	slli	a5, a5, 16
    303e:	1aa547        	bge	a5, a4, 305c <dt_detect_sb+0x2c>
    3041:	189282        	l16si	a8, a2, 48
    3044:	14a687        	bge	a6, a8, 305c <dt_detect_sb+0x2c>
    3047:	1b9342        	l16si	a4, a3, 54
    304a:	0e9252        	l16si	a5, a2, 28
    304d:	772b           	addi.n	a7, a7, 2
    304f:	444b           	addi.n	a4, a4, 4
    3051:	434450        	min	a4, a4, a5
    3054:	844d           	ae_sext16	a4, a4
    3056:	1b5342        	s16i	a4, a3, 54
    3059:	000206        	j	3065 <dt_detect_sb+0x35>

0000305c <dt_detect_sb+0x2c>:
    305c:	770b           	addi.n	a7, a7, -1
    305e:	040c           	movi.n	a4, 0
    3060:	050c           	movi.n	a5, 0
    3062:	1b5352        	s16i	a5, a3, 54

00003065 <dt_detect_sb+0x35>:
    3065:	0e9282        	l16si	a8, a2, 28
    3068:	536740        	max	a6, a7, a4
    306b:	436680        	min	a6, a6, a8
    306e:	1c5362        	s16i	a6, a3, 56
    3071:	f01d           	retw.n

00003073 <dt_detect_sb+0x43>:
	...

00003074 <dt_detect_FB>:
    3074:	004136        	entry	a1, 32
    3077:	1a9242        	l16si	a4, a2, 52
    307a:	1c9262        	l16si	a6, a2, 56
    307d:	189282        	l16si	a8, a2, 48
    3080:	114400        	slli	a4, a4, 16
    3083:	19a437        	bge	a4, a3, 30a0 <dt_detect_FB+0x2c>
    3086:	054c           	movi.n	a5, 64
    3088:	14a587        	bge	a5, a8, 30a0 <dt_detect_FB+0x2c>
    308b:	1d9232        	l16si	a3, a2, 58
    308e:	1b9252        	l16si	a5, a2, 54
    3091:	662b           	addi.n	a6, a6, 2
    3093:	334b           	addi.n	a3, a3, 4
    3095:	433350        	min	a3, a3, a5
    3098:	833d           	ae_sext16	a3, a3
    309a:	1d5232        	s16i	a3, a2, 58
    309d:	0002c6        	j	30ac <dt_detect_FB+0x38>

000030a0 <dt_detect_FB+0x2c>:
    30a0:	660b           	addi.n	a6, a6, -1
    30a2:	030c           	movi.n	a3, 0
    30a4:	1b9252        	l16si	a5, a2, 54
    30a7:	040c           	movi.n	a4, 0
    30a9:	1d5242        	s16i	a4, a2, 58

000030ac <dt_detect_FB+0x38>:
    30ac:	538630        	max	a8, a6, a3
    30af:	438850        	min	a8, a8, a5
    30b2:	1c5282        	s16i	a8, a2, 56
    30b5:	f01d           	retw.n

000030b7 <dt_detect_FB+0x43>:
	...

000030b8 <dt_detect_FB_sb>:
    30b8:	004136        	entry	a1, 32
    30bb:	199352        	l16si	a5, a3, 50
    30be:	1c9372        	l16si	a7, a3, 56
    30c1:	064c           	movi.n	a6, 64
    30c3:	115500        	slli	a5, a5, 16
    30c6:	1aa547        	bge	a5, a4, 30e4 <dt_detect_FB_sb+0x2c>
    30c9:	189282        	l16si	a8, a2, 48
    30cc:	1b9252        	l16si	a5, a2, 54
    30cf:	11a687        	bge	a6, a8, 30e4 <dt_detect_FB_sb+0x2c>
    30d2:	1b9342        	l16si	a4, a3, 54
    30d5:	772b           	addi.n	a7, a7, 2
    30d7:	444b           	addi.n	a4, a4, 4
    30d9:	434450        	min	a4, a4, a5
    30dc:	844d           	ae_sext16	a4, a4
    30de:	1b5342        	s16i	a4, a3, 54
    30e1:	000206        	j	30ed <dt_detect_FB_sb+0x35>

000030e4 <dt_detect_FB_sb+0x2c>:
    30e4:	770b           	addi.n	a7, a7, -1
    30e6:	040c           	movi.n	a4, 0
    30e8:	050c           	movi.n	a5, 0
    30ea:	1b5352        	s16i	a5, a3, 54

000030ed <dt_detect_FB_sb+0x35>:
    30ed:	1b9282        	l16si	a8, a2, 54
    30f0:	536740        	max	a6, a7, a4
    30f3:	436680        	min	a6, a6, a8
    30f6:	1c5362        	s16i	a6, a3, 56
    30f9:	f01d           	retw.n

000030fb <dt_detect_FB_sb+0x43>:
	...

000030fc <aec_sub_post>:
    30fc:	004136        	entry	a1, 32
    30ff:	325d           	ae_l16si.n	a5, a2, 2
    3101:	02d262        	addmi	a6, a2, 0x200
    3104:	7c9662        	l16si	a6, a6, 248
    3107:	24dc           	bnez.n	a4, 311d <aec_sub_post+0x21>
    3109:	50c292        	addi	a9, a2, 80
    310c:	01d272        	addmi	a7, a2, 0x100
    310f:	a0c782        	addi	a8, a7, -96
    3112:	074d           	mov.n	a4, a7
    3114:	40c442        	addi	a4, a4, 64
    3117:	f0c772        	addi	a7, a7, -16
    311a:	0004c6        	j	3131 <aec_sub_post+0x35>

0000311d <aec_sub_post+0x21>:
    311d:	02d282        	addmi	a8, a2, 0x200
    3120:	03d242        	addmi	a4, a2, 0x300
    3123:	80c442        	addi	a4, a4, -128
    3126:	90c892        	addi	a9, a8, -112
    3129:	087d           	mov.n	a7, a8
    312b:	30c772        	addi	a7, a7, 48
    312e:	e0c882        	addi	a8, a8, -32

00003131 <aec_sub_post+0x35>:
    3131:	67a567        	bge	a5, a6, 319c <aec_sub_post+0xa0>
    3134:	f43e21        	l32r	a2, 22c (7fff <two_mic_WB_NR_NSN_proc+0x133>)
    3137:	1d5922        	s16i	a2, a9, 58
    313a:	1d5822        	s16i	a2, a8, 58
    313d:	1d5722        	s16i	a2, a7, 58

00003140 <aec_sub_post+0x44>:
    3140:	8e5c           	movi.n	a14, 88
    3142:	00a152        	movi	a5, 0x100
    3145:	ac3c           	movi.n	a12, 58
    3147:	6ea0a2        	movi	a10, 110
    314a:	1d5422        	s16i	a2, a4, 58
    314d:	601304        	ae_lq32f.iu	aeq0, a3, 0
    3150:	1d99b2        	l16si	a11, a9, 58
    3153:	300bb4        	ae_cvtp24a16x2.ll	aep0, a11, a11
    3156:	08aa76        	loopgtz	a10, 3162 <aec_sub_post+0x66>
    3159:	030204        	ae_mulfq32sp16s.h	aeq0, aeq0, aep0
    315c:	624304        	ae_sq32f.iu	aeq0, a3, 0
    315f:	601314        	ae_lq32f.iu	aeq0, a3, 4

00003162 <aec_sub_post+0x66>:
    3162:	1d98d2        	l16si	a13, a8, 58
    3165:	300dd4        	ae_cvtp24a16x2.ll	aep0, a13, a13
    3168:	08ac76        	loopgtz	a12, 3174 <aec_sub_post+0x78>
    316b:	030a04        	ae_mulfq32sp16s.h	aeq1, aeq0, aep0
    316e:	625304        	ae_sq32f.iu	aeq1, a3, 0
    3171:	601314        	ae_lq32f.iu	aeq0, a3, 4
    3174:	1d97f2        	l16si	a15, a7, 58
    3177:	300ff4        	ae_cvtp24a16x2.ll	aep0, a15, a15
    317a:	08ae76        	loopgtz	a14, 3186 <aec_sub_post+0x8a>
    317d:	038204        	ae_mulfq32sp16s.h	aeq2, aeq0, aep0
    3180:	626304        	ae_sq32f.iu	aeq2, a3, 0
    3183:	601314        	ae_lq32f.iu	aeq0, a3, 4
    3186:	1d9482        	l16si	a8, a4, 58
    3189:	300884        	ae_cvtp24a16x2.ll	aep0, a8, a8
    318c:	f03d           	nop.n
    318e:	08a576        	loopgtz	a5, 319a <aec_sub_post+0x9e>
    3191:	038a04        	ae_mulfq32sp16s.h	aeq3, aeq0, aep0
    3194:	627304        	ae_sq32f.iu	aeq3, a3, 0
    3197:	601314        	ae_lq32f.iu	aeq0, a3, 4
    319a:	f01d           	retw.n

0000319c <aec_sub_post+0xa0>:
    319c:	79c8           	l32i.n	a12, a9, 28
    319e:	7428           	l32i.n	a2, a4, 28
    31a0:	77a8           	l32i.n	a10, a7, 28
    31a2:	78b8           	l32i.n	a11, a8, 28
    31a4:	312020        	srai	a2, a2, 16
    31a7:	31a0a0        	srai	a10, a10, 16
    31aa:	31b0b0        	srai	a11, a11, 16
    31ad:	31c0c0        	srai	a12, a12, 16
    31b0:	1d59c2        	s16i	a12, a9, 58
    31b3:	1d58b2        	s16i	a11, a8, 58
    31b6:	1d57a2        	s16i	a10, a7, 58
    31b9:	ffe0c6        	j	3140 <aec_sub_post+0x44>

000031bc <mixed_main_noise>:
    31bc:	008136        	entry	a1, 64
    31bf:	01d2b2        	addmi	a11, a2, 0x100
    31c2:	3159           	s32i.n	a5, a1, 12
    31c4:	1c0c           	movi.n	a12, 1
    31c6:	2091a2        	l16si	a10, a1, 64
    31c9:	090c           	movi.n	a9, 0
    31cb:	839c60        	moveqz	a9, a12, a6
    31ce:	1b1a26        	beqi	a10, 1, 31ed <mixed_main_noise+0x31>
    31d1:	fecad2        	addi	a13, a10, -2
    31d4:	08ad16        	beqz	a13, 3262 <mixed_main_noise+0xa6>
    31d7:	fdcae2        	addi	a14, a10, -3
    31da:	094e16        	beqz	a14, 3272 <mixed_main_noise+0xb6>
    31dd:	dd9b52        	l16si	a5, a11, 0x1ba
    31e0:	bd92f2        	l16si	a15, a2, 0x17a
    31e3:	80a022        	movi	a2, 128
    31e6:	935f90        	movnez	a5, a15, a9
    31e9:	000346        	j	31fa <mixed_main_noise+0x3e>

000031ec <mixed_main_noise+0x30>:
	...

000031ed <mixed_main_noise+0x31>:
    31ed:	459282        	l16si	a8, a2, 138
    31f0:	e59252        	l16si	a5, a2, 0x1ca
    31f3:	773c           	movi.n	a7, 55
    31f5:	320c           	movi.n	a2, 3
    31f7:	935890        	movnez	a5, a8, a9

000031fa <mixed_main_noise+0x3e>:
    31fa:	c07720        	sub	a7, a7, a2
    31fd:	c90c           	movi.n	a9, 12
    31ff:	b03230        	addx8	a3, a2, a3
    3202:	605304        	ae_lq32f.iu	aeq1, a3, 0
    3205:	510194        	ae_lp24f.x	aep0, a1, a9
    3208:	f40991        	l32r	a9, 22c (7fff <two_mic_WB_NR_NSN_proc+0x133>)
    320b:	2c1666        	bnei	a6, 1, 323b <mixed_main_noise+0x7f>
    320e:	87ad           	ae_sext16	a10, a7
    3210:	c0b950        	sub	a11, a9, a5
    3213:	301bb4        	ae_cvtp24a16x2.ll	aep1, a11, a11
    3216:	011074        	ae_mulfp24s.ll	aeq0, aep1, aep0
    3219:	a02240        	addx4	a2, a2, a4
    321c:	f8423d120f 	{ ae_lq32f.iu	aeq0, a2, 0; ae_truncp24q48x2	aep0, aeq0, aeq0 }
    3221:	14aa76        	loopgtz	a10, 3239 <mixed_main_noise+0x7d>
    3224:	080b24        	ae_mulafq32sp24s.l	aeq1, aeq0, aep0
    3227:	625304        	ae_sq32f.iu	aeq1, a3, 0
    322a:	609314        	ae_lq32f.iu	aeq2, a3, 4
    322d:	088324        	ae_mulafq32sp24s.l	aeq2, aeq0, aep0
    3230:	626304        	ae_sq32f.iu	aeq2, a3, 0
    3233:	605314        	ae_lq32f.iu	aeq1, a3, 4
    3236:	601214        	ae_lq32f.iu	aeq0, a2, 4

00003239 <mixed_main_noise+0x7d>:
    3239:	f01d           	retw.n

0000323b <mixed_main_noise+0x7f>:
    323b:	b02240        	addx8	a2, a2, a4
    323e:	11c7f0        	slli	a12, a7, 1
    3241:	c0d950        	sub	a13, a9, a5
    3244:	302dd4        	ae_cvtp24a16x2.ll	aep2, a13, a13
    3247:	01a874        	ae_mulfp24s.ll	aeq3, aep2, aep0
    324a:	8ccd           	ae_sext16	a12, a12
    324c:	f8de3d120f 	{ ae_lq32f.iu	aeq0, a2, 0; ae_truncp24q48x2	aep0, aeq3, aeq3 }
    3251:	0bac76        	loopgtz	a12, 3260 <mixed_main_noise+0xa4>
    3254:	080b24        	ae_mulafq32sp24s.l	aeq1, aeq0, aep0
    3257:	625304        	ae_sq32f.iu	aeq1, a3, 0
    325a:	605314        	ae_lq32f.iu	aeq1, a3, 4
    325d:	601214        	ae_lq32f.iu	aeq0, a2, 4

00003260 <mixed_main_noise+0xa4>:
    3260:	f01d           	retw.n

00003262 <mixed_main_noise+0xa6>:
    3262:	8d9b52        	l16si	a5, a11, 0x11a
    3265:	6d92e2        	l16si	a14, a2, 218
    3268:	475c           	movi.n	a7, 84
    326a:	723c           	movi.n	a2, 55
    326c:	935e90        	movnez	a5, a14, a9
    326f:	ffe1c6        	j	31fa <mixed_main_noise+0x3e>

00003272 <mixed_main_noise+0xb6>:
    3272:	b59b52        	l16si	a5, a11, 0x16a
    3275:	9592f2        	l16si	a15, a2, 0x12a
    3278:	80a072        	movi	a7, 128
    327b:	425c           	movi.n	a2, 84
    327d:	935f90        	movnez	a5, a15, a9
    3280:	ffdd86        	j	31fa <mixed_main_noise+0x3e>

00003283 <mixed_main_noise+0xc7>:
	...

00003284 <subband_comfort_noise>:
    3284:	006136        	entry	a1, 48
    3287:	fcc392        	addi	a9, a3, -4
    328a:	fc2480068f 	{ movi	a8, 6; ae_zeroq56	aeq0 }
    328f:	02a876        	loopgtz	a8, 3295 <subband_comfort_noise+0x11>
    3292:	624914        	ae_sq32f.iu	aeq0, a9, 4

00003295 <subband_comfort_noise+0x11>:
    3295:	02ad           	mov.n	a10, a2
    3297:	03bd           	mov.n	a11, a3
    3299:	04cd           	mov.n	a12, a4
    329b:	301554        	ae_cvtp24a16x2.ll	aep1, a5, a5
    329e:	02d2d2        	addmi	a13, a2, 0x200
    32a1:	7b9dd2        	l16si	a13, a13, 246
    32a4:	300dd4        	ae_cvtp24a16x2.ll	aep0, a13, a13
    32a7:	ea21d3e77f 	{ or	a14, a7, a7; ae_mulfp24s.ll	aeq1, aep0, aep1 }
    32ac:	06fd           	mov.n	a15, a6
    32ae:	355094        	ae_slliq56	aeq1, aeq1, 2
    32b1:	fc04c0019f 	{ movi	a9, 1; ae_satq48s	aeq0, aeq1 }
    32b6:	368504        	ae_trunca32q48	a5, aeq0
    32b9:	f3f081        	l32r	a8, 27c (31bc <mixed_main_noise>)
    32bc:	0199           	s32i.n	a9, a1, 0
    32be:	05dd           	mov.n	a13, a5
    32c0:	0008e0        	callx8	a8
    32c3:	02ad           	mov.n	a10, a2
    32c5:	03bd           	mov.n	a11, a3
    32c7:	04cd           	mov.n	a12, a4
    32c9:	05dd           	mov.n	a13, a5
    32cb:	07ed           	mov.n	a14, a7
    32cd:	06fd           	mov.n	a15, a6
    32cf:	f3eb81        	l32r	a8, 27c (31bc <mixed_main_noise>)
    32d2:	290c           	movi.n	a9, 2
    32d4:	0199           	s32i.n	a9, a1, 0
    32d6:	0008e0        	callx8	a8
    32d9:	02ad           	mov.n	a10, a2
    32db:	03bd           	mov.n	a11, a3
    32dd:	04cd           	mov.n	a12, a4
    32df:	05dd           	mov.n	a13, a5
    32e1:	07ed           	mov.n	a14, a7
    32e3:	06fd           	mov.n	a15, a6
    32e5:	f3e581        	l32r	a8, 27c (31bc <mixed_main_noise>)
    32e8:	390c           	movi.n	a9, 3
    32ea:	0199           	s32i.n	a9, a1, 0
    32ec:	0008e0        	callx8	a8
    32ef:	07ed           	mov.n	a14, a7
    32f1:	05dd           	mov.n	a13, a5
    32f3:	04cd           	mov.n	a12, a4
    32f5:	02ad           	mov.n	a10, a2
    32f7:	03bd           	mov.n	a11, a3
    32f9:	06fd           	mov.n	a15, a6
    32fb:	f3e081        	l32r	a8, 27c (31bc <mixed_main_noise>)
    32fe:	490c           	movi.n	a9, 4
    3300:	0199           	s32i.n	a9, a1, 0
    3302:	0008e0        	callx8	a8
    3305:	b09630        	addx8	a9, a6, a3
    3308:	fc248fc99e 	{ addi	a9, a9, -4; ae_zeroq56	aeq0 }
    330d:	0ef6e6        	bgei	a6, 0x100, 331f <subband_comfort_noise+0x9b>
    3310:	11b6f0        	slli	a11, a6, 1
    3313:	00a2a2        	movi	a10, 0x200
    3316:	c0aab0        	sub	a10, a10, a11
    3319:	02aa76        	loopgtz	a10, 331f <subband_comfort_noise+0x9b>
    331c:	624914        	ae_sq32f.iu	aeq0, a9, 4

0000331f <subband_comfort_noise+0x9b>:
    331f:	f01d           	retw.n

00003321 <subband_comfort_noise+0x9d>:
    3321:	00000000 36000000                                .......

00003328 <get_aec_nr_memsize>:
    3328:	004136        	entry	a1, 32
    332b:	f3d521        	l32r	a2, 280 (9068 <NR_vad2+0x128>)
    332e:	f01d           	retw.n

00003330 <get_txnr_pitch_last>:
    3330:	004136        	entry	a1, 32
    3333:	f35a21        	l32r	a2, 9c (f554 <p_ecnr_mem>)
    3336:	0228           	l32i.n	a2, a2, 0
    3338:	1ad232        	addmi	a3, a2, 0x1a00
    333b:	329332        	l16si	a3, a3, 100
    333e:	0c2366        	bnei	a3, 2, 334e <get_txnr_pitch_last+0x1e>
    3341:	37d222        	addmi	a2, a2, 0x3700
    3344:	2a2222        	l32i	a2, a2, 168

00003347 <get_txnr_pitch_last+0x17>:
    3347:	130c           	movi.n	a3, 1
    3349:	932320        	movnez	a2, a3, a2
    334c:	f01d           	retw.n

0000334e <get_txnr_pitch_last+0x1e>:
    334e:	55d222        	addmi	a2, a2, 0x5500
    3351:	6228           	l32i.n	a2, a2, 24
    3353:	fffc06        	j	3347 <get_txnr_pitch_last+0x17>

00003356 <get_txnr_pitch_last+0x26>:
	...

00003358 <sb_ana_init>:
    3358:	004136        	entry	a1, 32
    335b:	0b0c           	movi.n	a11, 0
    335d:	ec1c           	movi.n	a12, 30
    335f:	f35781        	l32r	a8, bc (c720 <xt_memset>)
    3362:	a24b           	addi.n	a10, a2, 4
    3364:	02a9           	s32i.n	a10, a2, 0
    3366:	0008e0        	callx8	a8
    3369:	f01d           	retw.n

0000336b <sb_ana_init+0x13>:
	...

0000336c <sb_syn_init>:
    336c:	004136        	entry	a1, 32
    336f:	0b0c           	movi.n	a11, 0
    3371:	cc3c           	movi.n	a12, 60
    3373:	f35281        	l32r	a8, bc (c720 <xt_memset>)
    3376:	a24b           	addi.n	a10, a2, 4
    3378:	02a9           	s32i.n	a10, a2, 0
    337a:	0008e0        	callx8	a8
    337d:	f01d           	retw.n

0000337f <sb_syn_init+0x13>:
	...

00003380 <AVC_init>:
    3380:	004136        	entry	a1, 32
    3383:	f34f81        	l32r	a8, c0 (f55c <aec_nr_para>)
    3386:	f34c51        	l32r	a5, b8 (8000 <two_mic_WB_NR_NSN_proc+0x134>)
    3389:	0888           	l32i.n	a8, a8, 0
    338b:	030c           	movi.n	a3, 0
    338d:	2239           	s32i.n	a3, a2, 8
    338f:	1e1842        	l16ui	a4, a8, 60
    3392:	1f1892        	l16ui	a9, a8, 62
    3395:	025292        	s16i	a9, a2, 4
    3398:	201882        	l16ui	a8, a8, 64
    339b:	035282        	s16i	a8, a2, 6
    339e:	c05540        	sub	a5, a5, a4
    33a1:	115500        	slli	a5, a5, 16
    33a4:	445a           	add.n	a4, a4, a5
    33a6:	0249           	s32i.n	a4, a2, 0
    33a8:	f01d           	retw.n

000033aa <AVC_init+0x2a>:
	...

000033ac <HP_coef_setup>:
    33ac:	004136        	entry	a1, 32
    33af:	02ad           	mov.n	a10, a2
    33b1:	f34481        	l32r	a8, c4 (c738 <xt_memcpy>)
    33b4:	03bd           	mov.n	a11, a3
    33b6:	4c0c           	movi.n	a12, 4
    33b8:	0008e0        	callx8	a8
    33bb:	a2cb           	addi.n	a10, a2, 12
    33bd:	f34181        	l32r	a8, c4 (c738 <xt_memcpy>)
    33c0:	b38b           	addi.n	a11, a3, 8
    33c2:	ac0c           	movi.n	a12, 10
    33c4:	0008e0        	callx8	a8
    33c7:	1cc3b2        	addi	a11, a3, 28
    33ca:	f33e81        	l32r	a8, c4 (c738 <xt_memcpy>)
    33cd:	24c2a2        	addi	a10, a2, 36
    33d0:	8c0c           	movi.n	a12, 8
    33d2:	0008e0        	callx8	a8
    33d5:	7298           	l32i.n	a9, a2, 28
    33d7:	12a8           	l32i.n	a10, a2, 4
    33d9:	22a9           	s32i.n	a10, a2, 8
    33db:	8299           	s32i.n	a9, a2, 32
    33dd:	f01d           	retw.n

000033df <HP_coef_setup+0x33>:
	...

000033e0 <tx_ref_vad_init>:
    33e0:	004136        	entry	a1, 32
    33e3:	02ad           	mov.n	a10, a2
    33e5:	f33581        	l32r	a8, bc (c720 <xt_memset>)
    33e8:	0b0c           	movi.n	a11, 0
    33ea:	ec0c           	movi.n	a12, 14
    33ec:	0008e0        	callx8	a8
    33ef:	02ad           	mov.n	a10, a2
    33f1:	f33481        	l32r	a8, c4 (c738 <xt_memcpy>)
    33f4:	03d3b2        	addmi	a11, a3, 0x300
    33f7:	7c0c           	movi.n	a12, 7
    33f9:	0008e0        	callx8	a8
    33fc:	f01d           	retw.n

000033fe <tx_ref_vad_init+0x1e>:
	...

00003400 <Voice_WB_TX_Init>:
    3400:	004136        	entry	a1, 32
    3403:	02ad           	mov.n	a10, a2
    3405:	06cd           	mov.n	a12, a6
    3407:	f32521        	l32r	a2, 9c (f554 <p_ecnr_mem>)
    340a:	f39e81        	l32r	a8, 284 (b560 <TX_ECNR_PARA_init>)
    340d:	05bd           	mov.n	a11, a5
    340f:	0249           	s32i.n	a4, a2, 0
    3411:	0008e0        	callx8	a8
    3414:	f32b41        	l32r	a4, c0 (f55c <aec_nr_para>)
    3417:	02a8           	l32i.n	a10, a2, 0
    3419:	f39b81        	l32r	a8, 288 (33ac <HP_coef_setup>)
    341c:	04b8           	l32i.n	a11, a4, 0
    341e:	18daa2        	addmi	a10, a10, 0x1800
    3421:	e8caa2        	addi	a10, a10, -24
    3424:	01dbb2        	addmi	a11, a11, 0x100
    3427:	bb8b           	addi.n	a11, a11, 8
    3429:	0008e0        	callx8	a8
    342c:	0b0c           	movi.n	a11, 0
    342e:	02a8           	l32i.n	a10, a2, 0
    3430:	8c0c           	movi.n	a12, 8
    3432:	f32281        	l32r	a8, bc (c720 <xt_memset>)
    3435:	18daa2        	addmi	a10, a10, 0x1800
    3438:	54caa2        	addi	a10, a10, 84
    343b:	0008e0        	callx8	a8
    343e:	0b0c           	movi.n	a11, 0
    3440:	02a8           	l32i.n	a10, a2, 0
    3442:	4c0c           	movi.n	a12, 4
    3444:	f31e81        	l32r	a8, bc (c720 <xt_memset>)
    3447:	18daa2        	addmi	a10, a10, 0x1800
    344a:	64caa2        	addi	a10, a10, 100
    344d:	0008e0        	callx8	a8
    3450:	0b0c           	movi.n	a11, 0
    3452:	02a8           	l32i.n	a10, a2, 0
    3454:	f0a0c2        	movi	a12, 240
    3457:	f31981        	l32r	a8, bc (c720 <xt_memset>)
    345a:	18daa2        	addmi	a10, a10, 0x1800
    345d:	6ccaa2        	addi	a10, a10, 108
    3460:	0008e0        	callx8	a8
    3463:	02a8           	l32i.n	a10, a2, 0
    3465:	f38981        	l32r	a8, 28c (3358 <sb_ana_init>)
    3468:	40daa2        	addmi	a10, a10, 0x4000
    346b:	30caa2        	addi	a10, a10, 48
    346e:	0008e0        	callx8	a8
    3471:	02a8           	l32i.n	a10, a2, 0
    3473:	f38681        	l32r	a8, 28c (3358 <sb_ana_init>)
    3476:	40daa2        	addmi	a10, a10, 0x4000
    3479:	70caa2        	addi	a10, a10, 112
    347c:	0008e0        	callx8	a8
    347f:	02a8           	l32i.n	a10, a2, 0
    3481:	f38381        	l32r	a8, 290 (336c <sb_syn_init>)
    3484:	41daa2        	addmi	a10, a10, 0x4100
    3487:	30caa2        	addi	a10, a10, 48
    348a:	0008e0        	callx8	a8
    348d:	02b8           	l32i.n	a11, a2, 0
    348f:	04d8           	l32i.n	a13, a4, 0
    3491:	f38081        	l32r	a8, 294 (22c0 <SBAEC_INIT>)
    3494:	19dba2        	addmi	a10, a11, 0x1900
    3497:	0d98           	l32i.n	a9, a13, 0
    3499:	17dbe2        	addmi	a14, a11, 0x1700
    349c:	331df2        	l16ui	a15, a13, 102
    349f:	2adbc2        	addmi	a12, a11, 0x2a00
    34a2:	40ccc2        	addi	a12, a12, 64
    34a5:	8e5ef2        	s16i	a15, a14, 0x11c
    34a8:	341dd2        	l16ui	a13, a13, 104
    34ab:	78c992        	addi	a9, a9, 120
    34ae:	2cdbb2        	addmi	a11, a11, 0x2c00
    34b1:	20cbb2        	addi	a11, a11, 32
    34b4:	78c9f2        	addi	a15, a9, 120
    34b7:	50c952        	addi	a5, a9, 80
    34ba:	8f5ed2        	s16i	a13, a14, 0x11e
    34bd:	5d6a92        	s32i	a9, a10, 0x174
    34c0:	666ac2        	s32i	a12, a10, 0x198
    34c3:	5e6a52        	s32i	a5, a10, 0x178
    34c6:	5f6af2        	s32i	a15, a10, 0x17c
    34c9:	676ab2        	s32i	a11, a10, 0x19c
    34cc:	78cfc2        	addi	a12, a15, 120
    34cf:	50cfd2        	addi	a13, a15, 80
    34d2:	28cfe2        	addi	a14, a15, 40
    34d5:	606ae2        	s32i	a14, a10, 0x180
    34d8:	616ad2        	s32i	a13, a10, 0x184
    34db:	626ac2        	s32i	a12, a10, 0x188
    34de:	78cc92        	addi	a9, a12, 120
    34e1:	50ccb2        	addi	a11, a12, 80
    34e4:	656ab2        	s32i	a11, a10, 0x194
    34e7:	646a92        	s32i	a9, a10, 0x190
    34ea:	28ccc2        	addi	a12, a12, 40
    34ed:	636ac2        	s32i	a12, a10, 0x18c
    34f0:	0008e0        	callx8	a8
    34f3:	f36981        	l32r	a8, 298 (79c0 <WB_TX_NR_init>)
    34f6:	0008e0        	callx8	a8
    34f9:	02a8           	l32i.n	a10, a2, 0
    34fb:	f36881        	l32r	a8, 29c (3380 <AVC_init>)
    34fe:	32daa2        	addmi	a10, a10, 0x3200
    3501:	80caa2        	addi	a10, a10, -128
    3504:	0008e0        	callx8	a8
    3507:	1b0c           	movi.n	a11, 1
    3509:	f365d1        	l32r	a13, 2a0 (f558 <avc_vol>)
    350c:	02a8           	l32i.n	a10, a2, 0
    350e:	f365c1        	l32r	a12, 2a4 (2000 <pitch_by_harmonic+0x4e4>)
    3511:	6dcd           	ae_s16i.n	a12, a13, 0
    3513:	1ada92        	addmi	a9, a10, 0x1a00
    3516:	7c0c           	movi.n	a12, 7
    3518:	3459b2        	s16i	a11, a9, 104
    351b:	4cc992        	addi	a9, a9, 76
    351e:	00a4b2        	movi	a11, 0x400
    3521:	02ac76        	loopgtz	a12, 3527 <Voice_WB_TX_Init+0x127>
    3524:	09c9b4        	ae_s16ip	a11, a9, 2

00003527 <Voice_WB_TX_Init+0x127>:
    3527:	0b0c           	movi.n	a11, 0
    3529:	70a0c2        	movi	a12, 112
    352c:	f2e481        	l32r	a8, bc (c720 <xt_memset>)
    352f:	30daa2        	addmi	a10, a10, 0x3000
    3532:	40caa2        	addi	a10, a10, 64
    3535:	0008e0        	callx8	a8
    3538:	0b0c           	movi.n	a11, 0
    353a:	02a8           	l32i.n	a10, a2, 0
    353c:	0c3c           	movi.n	a12, 48
    353e:	f2df81        	l32r	a8, bc (c720 <xt_memset>)
    3541:	31daa2        	addmi	a10, a10, 0x3100
    3544:	20caa2        	addi	a10, a10, 32
    3547:	0008e0        	callx8	a8
    354a:	02a8           	l32i.n	a10, a2, 0
    354c:	1adab2        	addmi	a11, a10, 0x1a00
    354f:	329bb2        	l16si	a11, a11, 100
    3552:	252b66        	bnei	a11, 2, 357b <Voice_WB_TX_Init+0x17b>
    3555:	f35481        	l32r	a8, 2a8 (596c <TWO_MIC_WB_init>)
    3558:	04a8           	l32i.n	a10, a4, 0
    355a:	0008e0        	callx8	a8
    355d:	02a8           	l32i.n	a10, a2, 0
    355f:	f34b81        	l32r	a8, 28c (3358 <sb_ana_init>)
    3562:	41daa2        	addmi	a10, a10, 0x4100
    3565:	b0caa2        	addi	a10, a10, -80
    3568:	0008e0        	callx8	a8
    356b:	02a8           	l32i.n	a10, a2, 0
    356d:	f34881        	l32r	a8, 290 (336c <sb_syn_init>)
    3570:	42daa2        	addmi	a10, a10, 0x4200
    3573:	accaa2        	addi	a10, a10, -84
    3576:	0008e0        	callx8	a8
    3579:	02a8           	l32i.n	a10, a2, 0

0000357b <Voice_WB_TX_Init+0x17b>:
    357b:	f34c81        	l32r	a8, 2ac (70e8 <FLASH_REF_GAIN_Preload>)
    357e:	03bd           	mov.n	a11, a3
    3580:	0008e0        	callx8	a8
    3583:	02a8           	l32i.n	a10, a2, 0
    3585:	04b8           	l32i.n	a11, a4, 0
    3587:	f34a81        	l32r	a8, 2b0 (33e0 <tx_ref_vad_init>)
    358a:	6edaa2        	addmi	a10, a10, 0x6e00
    358d:	34caa2        	addi	a10, a10, 52
    3590:	0008e0        	callx8	a8
    3593:	f01d           	retw.n

00003595 <Voice_WB_TX_Init+0x195>:
    3595:	000000                                        ...

00003598 <mic240_delay>:
    3598:	004136        	entry	a1, 32
    359b:	02ad           	mov.n	a10, a2
    359d:	f2c981        	l32r	a8, c4 (c738 <xt_memcpy>)
    35a0:	04bd           	mov.n	a11, a4
    35a2:	05cd           	mov.n	a12, a5
    35a4:	0008e0        	callx8	a8
    35a7:	03bd           	mov.n	a11, a3
    35a9:	90a520        	addx2	a10, a5, a2
    35ac:	f0a0c2        	movi	a12, 240
    35af:	f2c581        	l32r	a8, c4 (c738 <xt_memcpy>)
    35b2:	c0cc50        	sub	a12, a12, a5
    35b5:	1125f0        	slli	a2, a5, 1
    35b8:	0008e0        	callx8	a8
    35bb:	05cd           	mov.n	a12, a5
    35bd:	04ad           	mov.n	a10, a4
    35bf:	c0b320        	sub	a11, a3, a2
    35c2:	f2c081        	l32r	a8, c4 (c738 <xt_memcpy>)
    35c5:	02dbb2        	addmi	a11, a11, 0x200
    35c8:	e0cbb2        	addi	a11, a11, -32
    35cb:	0008e0        	callx8	a8
    35ce:	f01d           	retw.n

000035d0 <sbiir>:
    35d0:	004136        	entry	a1, 32
    35d3:	4c1404        	ae_lp24.i	aep1, a4, 0
    35d6:	5c7304        	ae_lp24x2f.i	aep7, a3, 0
    35d9:	fdec2c020f 	{ ae_lp16f.i	aep0, a2, 0; ae_cvtq48p24s.l	aeq1, aep7 }
    35de:	fee43e079f 	{ ae_selp24.hl	aep2, aep0, aep7; ae_cvtq48p24s.h	aeq2, aep7 }
    35e3:	059244        	ae_mulasfp24s.hh.ll	aeq2, aep1, aep2
    35e6:	5c3314        	ae_lp24x2f.i	aep3, a3, 8
    35e9:	fa77b4030f 	{ ae_sp24f.l.i	aep0, a3, 0; ae_roundsp24q48asym	aep4, aeq2 }
    35ee:	df71b1541f 	{ ae_lp24.i	aep5, a4, 4; ae_selp24.lh	aep6, aep4, aep3 }
    35f3:	055e44        	ae_mulasfp24s.hh.ll	aeq1, aep5, aep6
    35f6:	0a0b84        	ae_cvtq48p24s.h	aeq0, aep3
    35f9:	f86ff4431f 	{ ae_sp24f.l.i	aep4, a3, 4; ae_roundsp24q48asym	aep1, aeq1 }
    35fe:	dd6671242f 	{ ae_lp24.i	aep2, a4, 8; ae_selp24.ll	aep3, aep1, aep3 }
    3603:	052344        	ae_mulasfp24s.hh.ll	aeq0, aep2, aep3
    3606:	f867b4132f 	{ ae_sp24f.l.i	aep1, a3, 8; ae_roundsp24q48asym	aep0, aeq0 }
    360b:	520334        	ae_sp24f.l.i	aep0, a3, 12
    360e:	348204        	ae_movap24s.l	a2, aep0
    3611:	f01d           	retw.n

00003613 <sbiir+0x43>:
	...

00003614 <tx_downsample_by2>:
    3614:	008136        	entry	a1, 64
    3617:	fec332        	addi	a3, a3, -2
    361a:	440404        	ae_lp16x2f.i	aep0, a4, 0
    361d:	0169           	s32i.n	a6, a1, 0
    361f:	f32581        	l32r	a8, 2b4 (ee4c <wb_r01+0xc>)
    3622:	fec272        	addi	a7, a2, -2
    3625:	10c5a2        	addi	a10, a5, 16
    3628:	600604        	ae_lq32f.i	aeq0, a6, 0
    362b:	630124        	ae_sq56s.i	aeq0, a1, 16
    362e:	21a9           	s32i.n	a10, a1, 8
    3630:	020c           	movi.n	a2, 0
    3632:	1189           	s32i.n	a8, a1, 4
    3634:	056d           	mov.n	a6, a5

00003636 <tx_downsample_by2+0x22>:
    3636:	06bd           	mov.n	a11, a6
    3638:	614124        	ae_lq56.i	aeq1, a1, 16
    363b:	e20053a44f 	{ or	a10, a4, a4; ae_mulaafp24s.hh.ll	aeq1, aep0, aep0 }
    3640:	11c8           	l32i.n	a12, a1, 4
    3642:	631124        	ae_sq56s.i	aeq1, a1, 16
    3645:	fff8a5        	call8	35d0 <sbiir>
    3648:	21b8           	l32i.n	a11, a1, 8
    364a:	0a5d           	mov.n	a5, a10
    364c:	f31bc1        	l32r	a12, 2b8 (ee40 <wb_r01>)
    364f:	a42b           	addi.n	a10, a4, 2
    3651:	fff7e5        	call8	35d0 <sbiir>
    3654:	4e1c           	movi.n	a14, 20
    3656:	221b           	addi.n	a2, a2, 1
    3658:	f5aa           	add.n	a15, a5, a10
    365a:	c08a50        	sub	a8, a10, a5
    365d:	218180        	srai	a8, a8, 1
    3660:	21f1f0        	srai	a15, a15, 1
    3663:	39bf84        	ae_movpa24x2	aep3, a15, a8
    3666:	f9eead841f 	{ ae_lp16x2f.iu	aep0, a4, 4; ae_roundsp16asym	aep2, aep3 }
    366b:	dc4972a31f 	{ ae_sp16f.l.iu	aep2, a3, 2; ae_selp24.hh	aep1, aep2, aep2 }
    3670:	429714        	ae_sp16f.l.iu	aep1, a7, 2
    3673:	bf92e7        	bne	a2, a14, 3636 <tx_downsample_by2+0x22>
    3676:	0198           	l32i.n	a9, a1, 0
    3678:	61c124        	ae_lq56.i	aeq3, a1, 16
    367b:	06b934        	ae_roundsq32asym	aeq2, aeq3
    367e:	622904        	ae_sq32f.i	aeq2, a9, 0
    3681:	f01d           	retw.n

00003683 <tx_downsample_by2+0x6f>:
	...

00003684 <tx_upsample_by2>:
    3684:	00a136        	entry	a1, 80
    3687:	401204        	ae_lp16f.i	aep1, a2, 0
    368a:	400304        	ae_lp16f.i	aep0, a3, 0
    368d:	1169           	s32i.n	a6, a1, 4
    368f:	f30981        	l32r	a8, 2b4 (ee4c <wb_r01+0xc>)
    3692:	fcc472        	addi	a7, a4, -4
    3695:	10c5a2        	addi	a10, a5, 16
    3698:	c12b           	addi.n	a12, a1, 2
    369a:	600604        	ae_lq32f.i	aeq0, a6, 0
    369d:	630134        	ae_sq56s.i	aeq0, a1, 24
    36a0:	21c9           	s32i.n	a12, a1, 8
    36a2:	31a9           	s32i.n	a10, a1, 12
    36a4:	040c           	movi.n	a4, 0
    36a6:	4189           	s32i.n	a8, a1, 16
    36a8:	056d           	mov.n	a6, a5

000036aa <tx_upsample_by2+0x26>:
    36aa:	06bd           	mov.n	a11, a6
    36ac:	f303c1        	l32r	a12, 2b8 (ee40 <wb_r01>)
    36af:	d9053da13f 	{ ae_lq56.i	aeq1, a1, 24; ae_addsp24s	aep2, aep1, aep0 }
    36b4:	e24bf021ae 	{ l32i	a10, a1, 8; ae_mulafp24s.ll	aeq1, aep2, aep2 }
    36b9:	dc06b2210f 	{ ae_sp16f.l.i	aep2, a1, 0; ae_subsp24s	aep0, aep1, aep0 }
    36be:	420114        	ae_sp16f.l.i	aep0, a1, 2
    36c1:	631134        	ae_sq56s.i	aeq1, a1, 24
    36c4:	fff0a5        	call8	35d0 <sbiir>
    36c7:	31b8           	l32i.n	a11, a1, 12
    36c9:	0a5d           	mov.n	a5, a10
    36cb:	41c8           	l32i.n	a12, a1, 16
    36cd:	01ad           	mov.n	a10, a1
    36cf:	fff025        	call8	35d0 <sbiir>
    36d2:	442b           	addi.n	a4, a4, 2
    36d4:	782c           	movi.n	a8, 39
    36d6:	408314        	ae_lp16f.iu	aep0, a3, 2
    36d9:	39c5a4        	ae_movpa24x2	aep4, a5, a10
    36dc:	f9f2ec921f 	{ ae_lp16f.iu	aep1, a2, 2; ae_roundsp16asym	aep3, aep4 }
    36e1:	46b714        	ae_sp16x2f.iu	aep3, a7, 4
    36e4:	c2a847        	bge	a8, a4, 36aa <tx_upsample_by2+0x26>
    36e7:	1198           	l32i.n	a9, a1, 4
    36e9:	61c134        	ae_lq56.i	aeq3, a1, 24
    36ec:	06b934        	ae_roundsq32asym	aeq2, aeq3
    36ef:	622904        	ae_sq32f.i	aeq2, a9, 0
    36f2:	f01d           	retw.n

000036f4 <emph_filter_N>:
    36f4:	004136        	entry	a1, 32
    36f7:	442304        	ae_lp16x2f.i	aep2, a3, 0
    36fa:	02a062        	movi	a6, 2
    36fd:	440404        	ae_lp16x2f.i	aep0, a4, 0
    3700:	d26560        	quos	a6, a5, a6
    3703:	fcc252        	addi	a5, a2, -4
    3706:	fec222        	addi	a2, a2, -2
    3709:	23a676        	loopgtz	a6, 3730 <emph_filter_N+0x3c>
    370c:	44b514        	ae_lp16x2f.iu	aep3, a5, 4
    370f:	0a4b84        	ae_cvtq48p24s.h	aeq1, aep3
    3712:	0a0384        	ae_cvtq48p24s.l	aeq0, aep3
    3715:	012304        	ae_mulafp24s.hh	aeq0, aep2, aep3
    3718:	012804        	ae_mulafp24s.hh	aeq1, aep2, aep0
    371b:	e2087e384f 	{ ae_selp24.hh	aep5, aep3, aep0; ae_mulaafp24s.hh.ll	aeq1, aep2, aep0 }
    3720:	052504        	ae_mulaafp24s.hh.ll	aeq0, aep2, aep5
    3723:	1b9f44        	ae_roundsp16q48asym	aep4, aeq1
    3726:	f863f2c21f 	{ ae_sp16f.l.iu	aep4, a2, 2; ae_roundsp16q48asym	aep1, aeq0 }
    372b:	dc6db2921f 	{ ae_sp16f.l.iu	aep1, a2, 2; ae_selp24.lh	aep0, aep3, aep3 }

00003730 <emph_filter_N+0x3c>:
    3730:	460404        	ae_sp16x2f.i	aep0, a4, 0
    3733:	f01d           	retw.n

00003735 <emph_filter_N+0x41>:
    3735:	000000                                        ...

00003738 <deemph_filter_N>:
    3738:	004136        	entry	a1, 32
    373b:	600414        	ae_lq32f.i	aeq0, a4, 4
    373e:	400204        	ae_lp16f.i	aep0, a2, 0
    3741:	f2de61        	l32r	a6, 2bc (ec60 <immediate_num+0x30>)
    3744:	442304        	ae_lp16x2f.i	aep2, a3, 0
    3747:	604404        	ae_lq32f.i	aeq1, a4, 0
    374a:	9949ad360f 	{ ae_lp16x2f.i	aep3, a6, 0; ae_mulzssfq32sp16s.hh	aeq2, aeq1, aep2, aeq1, aep2 }
    374f:	14a576        	loopgtz	a5, 3767 <deemph_filter_N+0x2f>
    3752:	03a414        	ae_mulsfq32sp16s.l	aeq2, aeq0, aep2
    3755:	0583c4        	ae_mulssfp24s.hh.ll	aeq2, aep0, aep3
    3758:	fd347f113f 	{ ae_movq56	aeq0, aeq1; ae_roundsq32asym	aeq1, aeq2 }
    375d:	f86bec821f 	{ ae_lp16f.iu	aep0, a2, 2; ae_roundsp16q48asym	aep1, aeq1 }
    3762:	9949b212ff 	{ ae_sp16f.l.i	aep1, a2, -2; ae_mulzssfq32sp16s.hh	aeq2, aeq1, aep2, aeq1, aep2 }

00003767 <deemph_filter_N+0x2f>:
    3767:	621404        	ae_sq32f.i	aeq1, a4, 0
    376a:	620414        	ae_sq32f.i	aeq0, a4, 4
    376d:	f01d           	retw.n

0000376f <deemph_filter_N+0x37>:
	...

00003770 <analy_3band>:
    3770:	006136        	entry	a1, 48
    3773:	7f0c           	movi.n	a15, 7
    3775:	f2d2e1        	l32r	a14, 2c0 (ee5c <wb_r01+0x1c>)
    3778:	fcc4b2        	addi	a11, a4, -4
    377b:	f2d2d1        	l32r	a13, 2c4 (ee9c <sb_g10+0x3c>)
    377e:	24c2c2        	addi	a12, a2, 36
    3781:	834b           	addi.n	a8, a3, 4
    3783:	fec692        	addi	a9, a6, -2
    3786:	fec5a2        	addi	a10, a5, -2
    3789:	40c372        	addi	a7, a3, 64
    378c:	450c           	movi.n	a5, 4
    378e:	f3f770        	wur.ae_cend0	a7
    3791:	fcc262        	addi	a6, a2, -4
    3794:	f3f680        	wur.ae_cbegin0	a8
    3797:	0328           	l32i.n	a2, a3, 0
    3799:	ff24934ddf 	{ or	a4, a13, a13; ae_zeroq56	aeq3 }
    379e:	fd1c538eef 	{ or	a8, a14, a14; ae_movq56	aeq1, aeq3 }

000037a3 <analy_3band+0x33>:
    37a3:	443614        	ae_lp16x2f.i	aep3, a6, 4
    37a6:	fc24e4325f 	{ ae_sp16x2f.c	aep3, a2, a5; nop }
    37ab:	fc24da925f 	{ ae_lp16x2f.c	aep1, a2, a5; nop }
    37b0:	44a814        	ae_lp16x2f.iu	aep2, a8, 4
    37b3:	eb29ad841f 	{ ae_lp16x2f.iu	aep0, a4, 4; ae_mulfp24s.ll	aeq2, aep2, aep1 }
    37b8:	ea2180466e 	{ addi	a6, a6, 4; ae_mulfp24s.ll	aeq0, aep0, aep1 }
    37bd:	27af76        	loopgtz	a15, 37e8 <analy_3band+0x78>
    37c0:	fc24da825f 	{ ae_lp16x2f.c	aep0, a2, a5; nop }
    37c5:	449414        	ae_lp16x2f.iu	aep1, a4, 4
    37c8:	011034        	ae_mulafp24s.ll	aeq0, aep1, aep0
    37cb:	e2066df81f 	{ ae_lp16x2f.iu	aep7, a8, 4; ae_mulafp24s.hh	aeq1, aep1, aep0 }
    37d0:	e31f9ad25f 	{ ae_lp16x2f.c	aep5, a2, a5; ae_mulafp24s.ll	aeq2, aep7, aep0 }
    37d5:	e31e6de81f 	{ ae_lp16x2f.iu	aep6, a8, 4; ae_mulafp24s.hh	aeq3, aep7, aep0 }
    37da:	01ed04        	ae_mulafp24s.hh	aeq3, aep6, aep5
    37dd:	e3bbadc41f 	{ ae_lp16x2f.iu	aep4, a4, 4; ae_mulafp24s.ll	aeq2, aep6, aep5 }
    37e2:	014d04        	ae_mulafp24s.hh	aeq1, aep4, aep5
    37e5:	014534        	ae_mulafp24s.ll	aeq0, aep4, aep5

000037e8 <analy_3band+0x78>:
    37e8:	7f0c           	movi.n	a15, 7
    37ea:	f963d34ddf 	{ or	a4, a13, a13; ae_roundsp16q48asym	aep3, aeq0 }
    37ef:	f8f6138eef 	{ or	a8, a14, a14; ae_addq56	aeq0, aeq2, aeq3 }
    37f4:	f96bbb001f 	{ ae_sraiq56	aeq0, aeq0, 1; ae_roundsp16q48asym	aep2, aeq1 }
    37f9:	f867f2b91f 	{ ae_sp16f.l.iu	aep3, a9, 2; ae_roundsp24q48asym	aep1, aeq0 }
    37fe:	f8b6f2a91f 	{ ae_sp16f.l.iu	aep2, a9, 2; ae_subq56	aeq0, aeq2, aeq3 }
    3803:	ff24bb001f 	{ ae_sraiq56	aeq0, aeq0, 1; ae_zeroq56	aeq3 }
    3808:	f863b49b1f 	{ ae_sp24f.l.iu	aep1, a11, 4; ae_roundsp16q48asym	aep0, aeq0 }
    380d:	fd1c728a1f 	{ ae_sp16f.l.iu	aep0, a10, 2; ae_movq56	aeq1, aeq3 }
    3812:	8d96c7        	bne	a6, a12, 37a3 <analy_3band+0x33>
    3815:	0329           	s32i.n	a2, a3, 0
    3817:	f01d           	retw.n

00003819 <analy_3band+0xa9>:
    3819:	000000                                        ...

0000381c <synth_3band>:
    381c:	004136        	entry	a1, 32
    381f:	080c           	movi.n	a8, 0
    3821:	7cc572        	addi	a7, a5, 124
    3824:	b54b           	addi.n	a11, a5, 4
    3826:	fec692        	addi	a9, a6, -2
    3829:	fec2c2        	addi	a12, a2, -2
    382c:	fcc4a2        	addi	a10, a4, -4
    382f:	fec3d2        	addi	a13, a3, -2
    3832:	0548           	l32i.n	a4, a5, 0
    3834:	f2a531        	l32r	a3, 2c8 (eee0 <sb_h2ir_v2>)
    3837:	f2a521        	l32r	a2, 2cc (ee60 <sb_g10>)
    383a:	fe2480046f 	{ movi	a6, 4; ae_zeroq56	aeq2 }
    383f:	f3f6b0        	wur.ae_cbegin0	a11
    3842:	f3f770        	wur.ae_cend0	a7
    3845:	fd147f213f 	{ ae_movq56	aeq0, aeq2; ae_movq56	aeq1, aeq2 }

0000384a <synth_3band+0x2e>:
    384a:	40cd14        	ae_lp16f.iu	aep4, a13, 2
    384d:	40bc14        	ae_lp16f.iu	aep3, a12, 2
    3850:	dd8e80188e 	{ addi	a8, a8, 1; ae_subsp24s	aep2, aep3, aep4 }
    3855:	d88d400fef 	{ movi	a14, 15; ae_addsp24s	aep1, aep3, aep4 }
    385a:	dc466d8a1f 	{ ae_lp16x2f.iu	aep0, a10, 4; ae_selp24.ll	aep1, aep1, aep2 }
    385f:	fc24e4146f 	{ ae_sp16x2f.c	aep1, a4, a6; nop }
    3864:	fc24e4046f 	{ ae_sp16x2f.c	aep0, a4, a6; nop }
    3869:	441204        	ae_lp16x2f.i	aep1, a2, 0
    386c:	440304        	ae_lp16x2f.i	aep0, a3, 0
    386f:	16ae76        	loopgtz	a14, 3889 <synth_3band+0x6d>
    3872:	fc24dae46f 	{ ae_lp16x2f.c	aep6, a4, a6; nop }
    3877:	011e04        	ae_mulafp24s.hh	aeq1, aep1, aep6
    387a:	e2c79ad46f 	{ ae_lp16x2f.c	aep5, a4, a6; ae_mulafp24s.ll	aeq0, aep1, aep6 }
    387f:	eea0ad921f 	{ ae_lp16x2f.iu	aep1, a2, 4; ae_mulsfp24s.hl	aeq0, aep0, aep5 }
    3884:	e2a2ed831f 	{ ae_lp16x2f.iu	aep0, a3, 4; ae_mulafp24s.lh	aeq1, aep0, aep5 }

00003889 <synth_3band+0x6d>:
    3889:	fb6bcc422e 	{ addi	a2, a2, -60; ae_roundsp16q48asym	aep7, aeq1 }
    388e:	f8638c433e 	{ addi	a3, a3, -60; ae_roundsp16q48asym	aep0, aeq0 }
    3893:	fc1472891f 	{ ae_sp16f.l.iu	aep0, a9, 2; ae_movq56	aeq0, aeq2 }
    3898:	fd1472f91f 	{ ae_sp16f.l.iu	aep7, a9, 2; ae_movq56	aeq1, aeq2 }
    389d:	a99866        	bnei	a8, 10, 384a <synth_3band+0x2e>
    38a0:	0549           	s32i.n	a4, a5, 0
    38a2:	f01d           	retw.n

000038a4 <biquad_2cascade_24bitTx>:
    38a4:	004136        	entry	a1, 32
    38a7:	542304        	ae_lp24x2.i	aep2, a3, 0
    38aa:	541314        	ae_lp24x2.i	aep1, a3, 8
    38ad:	18c482        	addi	a8, a4, 24
    38b0:	540324        	ae_lp24x2.i	aep0, a3, 16
    38b3:	fcc242        	addi	a4, a2, -4
    38b6:	fec522        	addi	a2, a5, -2
    38b9:	40a676        	loopgtz	a6, 38fd <biquad_2cascade_24bitTx+0x59>
    38bc:	5468d4        	ae_lp24x2.i	aep6, a8, -24
    38bf:	50f414        	ae_lp24f.iu	aep7, a4, 4
    38c2:	5438e4        	ae_lp24x2.i	aep3, a8, -16
    38c5:	f14ebe72af 	{ ae_selp24.lh	aep2, aep7, aep2; ae_mulzaafp24s.hh.ll	aeq2, aep3, aep2 }
    38ca:	e3583058ff 	{ ae_lp24x2.i	aep5, a8, -8; ae_mulaafp24s.hh.ll	aeq2, aep6, aep2 }
    38cf:	01d184        	ae_mulsfp24s.hh	aeq2, aep5, aep1
    38d2:	f13630481f 	{ ae_lp24x2.i	aep4, a8, 8; ae_mulssfp24s.hh.ll	aeq2, aep5, aep1 }
    38d7:	044904        	ae_mulzaafp24s.hh.ll	aeq1, aep4, aep1
    38da:	1bad34        	ae_roundsp24q48asym	aep3, aeq2
    38dd:	dc2df0780f 	{ ae_lp24x2.i	aep7, a8, 0; ae_selp24.lh	aep1, aep3, aep1 }
    38e2:	e23c70682f 	{ ae_lp24x2.i	aep6, a8, 16; ae_mulaafp24s.hh.ll	aeq1, aep7, aep1 }
    38e7:	016884        	ae_mulsfp24s.hh	aeq1, aep6, aep0
    38ea:	0568c4        	ae_mulssfp24s.hh.ll	aeq1, aep6, aep0
    38ed:	fa6fb1586f 	{ ae_lp24.i	aep5, a8, 24; ae_roundsp24q48asym	aep4, aeq1 }
    38f2:	045404        	ae_mulzaafp24s.hh.ll	aeq0, aep5, aep4
    38f5:	1b8f34        	ae_roundsp16q48asym	aep3, aeq0
    38f8:	dc11b2b21f 	{ ae_sp16f.l.iu	aep3, a2, 2; ae_selp24.lh	aep0, aep4, aep0 }

000038fd <biquad_2cascade_24bitTx+0x59>:
    38fd:	562304        	ae_sp24x2s.i	aep2, a3, 0
    3900:	561314        	ae_sp24x2s.i	aep1, a3, 8
    3903:	560324        	ae_sp24x2s.i	aep0, a3, 16
    3906:	f01d           	retw.n

00003908 <conv_24_to_16>:
    3908:	004136        	entry	a1, 32
    390b:	f8c252        	addi	a5, a2, -8
    390e:	540c           	movi.n	a4, 5
    3910:	fcc322        	addi	a2, a3, -4
    3913:	f03d           	nop.n
    3915:	08a476        	loopgtz	a4, 3921 <conv_24_to_16+0x19>
    3918:	5c9514        	ae_lp24x2f.iu	aep1, a5, 8
    391b:	091184        	ae_roundsp16asym	aep0, aep1
    391e:	468214        	ae_sp16x2f.iu	aep0, a2, 4

00003921 <conv_24_to_16+0x19>:
    3921:	f01d           	retw.n

00003923 <conv_24_to_16+0x1b>:
	...

00003924 <gain_after_ec>:
    3924:	00c136        	entry	a1, 96
    3927:	4159           	s32i.n	a5, a1, 16
    3929:	f1dc81        	l32r	a8, 9c (f554 <p_ecnr_mem>)
    392c:	07bd           	mov.n	a11, a7
    392e:	3149           	s32i.n	a4, a1, 12
    3930:	04fd           	mov.n	a15, a4
    3932:	05ed           	mov.n	a14, a5
    3934:	069d           	mov.n	a9, a6
    3936:	fec2d2        	addi	a13, a2, -2
    3939:	fec3c2        	addi	a12, a3, -2
    393c:	61c9           	s32i.n	a12, a1, 24
    393e:	51d9           	s32i.n	a13, a1, 20
    3940:	2199           	s32i.n	a9, a1, 8
    3942:	440e04        	ae_lp16x2f.i	aep0, a14, 0
    3945:	441f04        	ae_lp16x2f.i	aep1, a15, 0
    3948:	561154        	ae_sp24x2s.i	aep1, a1, 40
    394b:	560164        	ae_sp24x2s.i	aep0, a1, 48
    394e:	0d3d           	mov.n	a3, a13
    3950:	0c2d           	mov.n	a2, a12
    3952:	054d           	mov.n	a4, a5
    3954:	fecf62        	addi	a6, a15, -2
    3957:	fece72        	addi	a7, a14, -2
    395a:	1179           	s32i.n	a7, a1, 4
    395c:	0888           	l32i.n	a8, a8, 0
    395e:	0169           	s32i.n	a6, a1, 0
    3960:	0f5d           	mov.n	a5, a15
    3962:	1ad882        	addmi	a8, a8, 0x1a00
    3965:	5ac882        	addi	a8, a8, 90
    3968:	402804        	ae_lp16f.i	aep2, a8, 0
    396b:	562144        	ae_sp24x2s.i	aep2, a1, 32
    396e:	6bac           	beqz.n	a11, 3998 <gain_after_ec+0x74>
    3970:	f23b81        	l32r	a8, 25c (a6d8 <airoha_divide>)
    3973:	f1d1a1        	l32r	a10, b8 (8000 <two_mic_WB_NR_NSN_proc+0x134>)
    3976:	0008e0        	callx8	a8
    3979:	540164        	ae_lp24x2.i	aep0, a1, 48
    397c:	541154        	ae_lp24x2.i	aep1, a1, 40
    397f:	61c8           	l32i.n	a12, a1, 24
    3981:	41e8           	l32i.n	a14, a1, 16
    3983:	542144        	ae_lp24x2.i	aep2, a1, 32
    3986:	360b34        	ae_cvtq48a32s	aeq0, a11
    3989:	d4ea3031fe 	{ l32i	a15, a1, 12; ae_mulfq32sp16s.l	aeq0, aeq0, aep2 }
    398e:	51d8           	l32i.n	a13, a1, 20
    3990:	340a94        	ae_sllaq56	aeq0, aeq0, a10
    3993:	f967b0219e 	{ l32i	a9, a1, 8; ae_roundsp24q48asym	aep2, aeq0 }

00003998 <gain_after_ec+0x74>:
    3998:	0dbd           	mov.n	a11, a13
    399a:	0cad           	mov.n	a10, a12
    399c:	a80c           	movi.n	a8, 10
    399e:	47a876        	loopgtz	a8, 39e9 <gain_after_ec+0xc5>
    39a1:	ea09acfb1f 	{ ae_lp16f.iu	aep7, a11, 2; ae_mulfp24s.ll	aeq0, aep2, aep0 }
    39a6:	e828ecda1f 	{ ae_lp16f.iu	aep5, a10, 2; ae_mulfp24s.hh	aeq1, aep2, aep1 }
    39ab:	eb29ad951f 	{ ae_lp16x2f.iu	aep1, a5, 4; ae_mulfp24s.ll	aeq2, aep2, aep1 }
    39b0:	350114        	ae_slliq56	aeq0, aeq0, 4
    39b3:	e908faa18f 	{ ae_slliq56	aeq2, aeq2, 4; ae_mulfp24s.hh	aeq3, aep2, aep0 }
    39b8:	faf3ba914f 	{ ae_slliq56	aeq1, aeq1, 4; ae_roundsp16q48sym	aep4, aeq2 }
    39bd:	fbebbab1cf 	{ ae_slliq56	aeq3, aeq3, 4; ae_roundsp16q48sym	aep6, aeq1 }
    39c2:	eaa9f2e61f 	{ ae_sp16f.l.iu	aep6, a6, 2; ae_mulfp24s.ll	aeq1, aep2, aep5 }
    39c7:	ebe9b2c61f 	{ ae_sp16f.l.iu	aep4, a6, 2; ae_mulfp24s.ll	aeq2, aep2, aep7 }
    39cc:	355114        	ae_slliq56	aeq1, aeq1, 4
    39cf:	35a114        	ae_slliq56	aeq2, aeq2, 4
    39d2:	f9fbed841f 	{ ae_lp16x2f.iu	aep0, a4, 4; ae_roundsp16q48sym	aep3, aeq3 }
    39d7:	fbe3b2b71f 	{ ae_sp16f.l.iu	aep3, a7, 2; ae_roundsp16q48sym	aep6, aeq0 }
    39dc:	faf3b2e71f 	{ ae_sp16f.l.iu	aep6, a7, 2; ae_roundsp16q48sym	aep4, aeq2 }
    39e1:	f9ebf2c31f 	{ ae_sp16f.l.iu	aep4, a3, 2; ae_roundsp16q48sym	aep3, aeq1 }
    39e6:	42b214        	ae_sp16f.l.iu	aep3, a2, 2

000039e9 <gain_after_ec+0xc5>:
    39e9:	a90b           	addi.n	a10, a9, -1
    39eb:	081a56        	bnez	a10, 3a70 <gain_after_ec+0x14c>
    39ee:	1178           	l32i.n	a7, a1, 4
    39f0:	0168           	l32i.n	a6, a1, 0
    39f2:	f1aa91        	l32r	a9, 9c (f554 <p_ecnr_mem>)
    39f5:	a80c           	movi.n	a8, 10
    39f7:	0e4d           	mov.n	a4, a14
    39f9:	441e04        	ae_lp16x2f.i	aep1, a14, 0
    39fc:	0f5d           	mov.n	a5, a15
    39fe:	440f04        	ae_lp16x2f.i	aep0, a15, 0
    3a01:	0c2d           	mov.n	a2, a12
    3a03:	0d3d           	mov.n	a3, a13
    3a05:	f235c1        	l32r	a12, 2dc (1a62 <Pitch_by_Corel+0x5be>)
    3a08:	02ad           	mov.n	a10, a2
    3a0a:	f233d1        	l32r	a13, 2d8 (1a60 <Pitch_by_Corel+0x5bc>)
    3a0d:	03bd           	mov.n	a11, a3
    3a0f:	f230f1        	l32r	a15, 2d0 (1a5c <Pitch_by_Corel+0x5b8>)
    3a12:	f230e1        	l32r	a14, 2d4 (1a5e <Pitch_by_Corel+0x5ba>)
    3a15:	57a876        	loopgtz	a8, 3a70 <gain_after_ec+0x14c>
    3a18:	0988           	l32i.n	a8, a9, 0
    3a1a:	40da14        	ae_lp16f.iu	aep5, a10, 2
    3a1d:	4148e4        	ae_lp16f.x	aep4, a8, a14
    3a20:	ea31d9f8cf 	{ ae_lp16f.x	aep7, a8, a12; ae_mulfp24s.ll	aeq1, aep4, aep1 }
    3a25:	eb1dacab1f 	{ ae_lp16f.iu	aep2, a11, 2; ae_mulfp24s.ll	aeq2, aep7, aep0 }

00003a2a <gain_after_ec+0x106>:
    3a2a:	e91ced851f 	{ ae_lp16x2f.iu	aep0, a5, 4; ae_mulfp24s.hh	aeq3, aep7, aep0 }
    3a2f:	355094        	ae_slliq56	aeq1, aeq1, 2
    3a32:	35f094        	ae_slliq56	aeq3, aeq3, 2
    3a35:	fbfbbaa0af 	{ ae_slliq56	aeq2, aeq2, 2; ae_roundsp16q48sym	aep6, aeq3 }
    3a3a:	f9f3f2e61f 	{ ae_sp16f.l.iu	aep6, a6, 2; ae_roundsp16q48sym	aep3, aeq2 }
    3a3f:	e830b2b61f 	{ ae_sp16f.l.iu	aep3, a6, 2; ae_mulfp24s.hh	aeq0, aep4, aep1 }
    3a44:	0988           	l32i.n	a8, a9, 0
    3a46:	350094        	ae_slliq56	aeq0, aeq0, 2
    3a49:	449414        	ae_lp16x2f.iu	aep1, a4, 4
    3a4c:	fbe399c8df 	{ ae_lp16f.x	aep4, a8, a13; ae_roundsp16q48sym	aep6, aeq0 }
    3a51:	f9ebd9f8ff 	{ ae_lp16f.x	aep7, a8, a15; ae_roundsp16q48sym	aep3, aeq1 }
    3a56:	eb5df2e71f 	{ ae_sp16f.l.iu	aep6, a7, 2; ae_mulfp24s.ll	aeq3, aep7, aep2 }
    3a5b:	ebb1b2b71f 	{ ae_sp16f.l.iu	aep3, a7, 2; ae_mulfp24s.ll	aeq2, aep4, aep5 }
    3a60:	35f094        	ae_slliq56	aeq3, aeq3, 2
    3a63:	f9fbbaa0af 	{ ae_slliq56	aeq2, aeq2, 2; ae_roundsp16q48sym	aep2, aeq3 }
    3a68:	fbf3f2a31f 	{ ae_sp16f.l.iu	aep2, a3, 2; ae_roundsp16q48sym	aep7, aeq2 }
    3a6d:	42f214        	ae_sp16f.l.iu	aep7, a2, 2

00003a70 <gain_after_ec+0x14c>:
    3a70:	f01d           	retw.n

00003a72 <gain_after_ec+0x14e>:
	...

00003a74 <adjust_phase>:
    3a74:	004136        	entry	a1, 32
    3a77:	301334        	ae_cvtp24a16x2.ll	aep1, a3, a3
    3a7a:	360234        	ae_cvtq48a32s	aeq0, a2
    3a7d:	a11104        	ae_mulzaafq32sp16s.ll	aeq0, aeq0, aep1, aeq0, aep1
    3a80:	1b8f04        	ae_roundsp16q48asym	aep0, aeq0
    3a83:	0002d4        	ae_cvta32p24.l	a2, aep0
    3a86:	f01d           	retw.n

00003a88 <adjust_bib_state>:
    3a88:	004136        	entry	a1, 32
    3a8b:	fcc242        	addi	a4, a2, -4
    3a8e:	600204        	ae_lq32f.i	aeq0, a2, 0
    3a91:	830c           	movi.n	a3, 8
    3a93:	f03d           	nop.n
    3a95:	0aa376        	loopgtz	a3, 3aa3 <adjust_bib_state+0x1b>
    3a98:	350074        	ae_sraiq56	aeq0, aeq0, 1
    3a9b:	f867bd121f 	{ ae_lq32f.iu	aeq0, a2, 4; ae_roundsp24q48asym	aep0, aeq0 }
    3aa0:	528414        	ae_sp24f.l.iu	aep0, a4, 4

00003aa3 <adjust_bib_state+0x1b>:
    3aa3:	f01d           	retw.n

00003aa5 <adjust_bib_state+0x1d>:
    3aa5:	000000                                        ...

00003aa8 <aec_post_prcs>:
    3aa8:	004136        	entry	a1, 32
    3aab:	159282        	l16si	a8, a2, 42
    3aae:	03d272        	addmi	a7, a2, 0x300
    3ab1:	28c292        	addi	a9, a2, 40
    3ab4:	f20b51        	l32r	a5, 2e0 (7fffff <_end+0x7f0a9f>)
    3ab7:	39b554        	ae_movpa24x2	aep3, a5, a5
    3aba:	406904        	ae_lp16f.i	aep6, a9, 0
    3abd:	d2c762        	addi	a6, a7, -46
    3ac0:	302884        	ae_cvtp24a16x2.ll	aep2, a8, a8
    3ac3:	d4c772        	addi	a7, a7, -44
    3ac6:	149282        	l16si	a8, a2, 40
    3ac9:	155282        	s16i	a8, a2, 42
    3acc:	400704        	ae_lp16f.i	aep0, a7, 0
    3acf:	de5aec760f 	{ ae_lp16f.i	aep7, a6, 0; ae_subsp24s	aep5, aep6, aep2 }
    3ad4:	ea1d8fe42e 	{ addi	a2, a4, -2; ae_mulfp24s.ll	aeq0, aep7, aep0 }
    3ad9:	ce3440004f 	{ movi	a4, 0; ae_sraip24	aep5, aep5, 4 }
    3ade:	fa67ac030f 	{ ae_lp16f.i	aep0, a3, 0; ae_roundsp24q48asym	aep4, aeq0 }

00003ae3 <aec_post_prcs+0x3b>:
    3ae3:	07a524        	ae_addsp24s	aep2, aep2, aep5
    3ae6:	07b294        	ae_subsp24s	aep1, aep3, aep2
    3ae9:	011c74        	ae_mulfp24s.ll	aeq1, aep1, aep4
    3aec:	441b           	addi.n	a4, a4, 1
    3aee:	355094        	ae_slliq56	aeq1, aeq1, 2
    3af1:	fd2c400f9f 	{ movi	a9, 15; ae_roundsq32asym	aeq1, aeq1 }
    3af6:	12a976        	loopgtz	a9, 3b0c <aec_post_prcs+0x64>
    3af9:	01a874        	ae_mulfp24s.ll	aeq3, aep2, aep0
