
Build/lib/pisplit_ecnr_inear_position_independent.splitload.lib:     file format elf32-xtensa-le


Disassembly of section .text:

00000000 <_init-0x420>:
       0:	0000a684 00008820 0000d784 00000428     .... .......(...
      10:	0000a778 0000d778 00000450 00001000     x...x...P.......
      20:	0000a3f0 0000ab10 7fffffff 0000ab80     ................
      30:	80000000 000094d0 00009540 00010000     ........@.......
      40:	00001922 ffff54e0 00008000 000054e0     "....T.......T..
      50:	00000b1f 00007fff 00006488 00004001     .........d...@..
      60:	0000c001 ffffc000 ffff8000 ffff4000     .............@..
      70:	ffffb49b 00004000 0000ffff ffff0000     .....@..........
      80:	00002688 000241f8 00009570 00002c5d     .&...A..p...],..
      90:	00029973 00009580 ffff7fff 7fffff00     s...............
      a0:	0000d560 00000db0 00000930 00000d40     `.......0...@...
      b0:	00000ccd 00000b00 0000fffe fffeffff     ................
      c0:	000049af 00000f70 00008808 ffffb800     .I..p...........
      d0:	0000d5b0 00006a4d ffff8400 00000e39     ....Mj......9...
      e0:	0000d5f0 0000d5d0 0000b3a0 00004800     .............H..
      f0:	0015cc64 007af1aa 00004938 00800000     d.....z.8I......
     100:	00000cd0 00000eb8 00001004 01000000     ................
     110:	0019999a 00002d78 000008d8 fffe7961     ....x-......ay..
     120:	0000d610 6a4d3c26 0000b4fa ffffb4fa     ....&<Mj........
     130:	ffffcb05 c0000000 000088b0 00001f1c     ................
     140:	00001944 00001aa4 000028dc 00003664     D........(..d6..
     150:	00003ab4 00001d20 00001414 00001320     .:.. ....... ...
     160:	00000800 0000195c 00001488 00002914     ....\........)..
     170:	00001b60 00003df8 000022d4 00001abc     `....=..."......
     180:	00001350 00002da0 000030c0 00003ae0     P....-...0...:..
     190:	00003684 00001d54 00000f14 00003224     .6..T.......$2..
     1a0:	0000d780 0000958c 00005738 000095a8     ........8W......
     1b0:	000057f4 000095c8 00006220 000095e8     .W...... b......
     1c0:	00006974 00009604 00006f04 00009618     ti.......o......
     1d0:	000068b0 00009630 00006c68 00009644     .h..0...hl..D...
     1e0:	00006910 0000965c 000069b4 0000967c     .i..\....i..|...
     1f0:	000069e0 00009698 00000824 000096a8     .i......$.......
     200:	00005740 000096c4 000069d8 000096e8     @W.......i......
     210:	000069e8 00009708 000069f0 00009728     .i.......i..(...
     220:	000057dc 0000aa40 00009740 00008710     .W..@...@.......
     230:	00009b40 00009f40 0000a688 00004d28     @...@.......(M..
     240:	00004d10 00200000 002aaa00 0000aa80     .M.... ...*.....
     250:	0000aa84 00080000 00007e78 00007d60     ........x~..`}..
     260:	00004da0 0000aa98 00004f08 00004e30     .M.......O..0N..
     270:	00004ff4 00000840 0000a890 00003ca8     .O..@........<..
     280:	0000049c 000057a8 00005754 00005768     .....W..TW..hW..
     290:	0000a788 00004a68 00006cf8 0000577c     ....hJ...l..|W..
     2a0:	0000d788 00002000 00003cd8 0000ac9c     ..... ...<......
     2b0:	0000aab0 0000acac 0000acec 0000ad30     ............0...
     2c0:	0000acb0 007fffff 00011111 0000a780     ................
     2d0:	000059bc 0000689c 00005e3c 00005c18     .Y...h..<^...\..
     2e0:	000059f8 00005cc4 00005fc4 0000509c     .Y...\..._...P..
     2f0:	00005380 00005ff8 00005d98 00005b54     .S..._...]..T[..
     300:	000060c4 000056a0 000056ec 00003ec0     .`...V...V...>..
     310:	7fff0000 0000615c 000060e0 00005c64     ....\a...`..d\..
     320:	0000a88a 00006f40 0000a830 00006ca8     ....@o..0....l..
     330:	00007f80 00000918 00006aa0 00006a20     .........j.. j..
     340:	00006a50 0000b070 0000a768 0000a868     Pj..p...h...h...
     350:	b8000000 40000000 000007a8 00009600     .......@........
     360:	00006ab0 0000a864 00006d08 0000a86c     .j..d....m..l...
     370:	00007074 000072f4 0000746c 000075bc     tp...r..lt...u..
     380:	000076c8 00007784 00007a40 0000b290     .v...w..@z......
     390:	00006d5c 00006f90 0000a444 0000a448     \m...o..D...H...
     3a0:	0000ae10 0000ae40 00000898 0000aaf8     ....@...........
     3b0:	0000aafc 00006fe8 000e38e4 0000adf0     .....o...8......
     3c0:	0000ae30 00124925 00007048 00007768     0...%I..Hp..hw..
     3d0:	0000a442 0000aaf0 80000001 00005a82     B............Z..
     3e0:	0000a634 0000809c 0000a33c 00007f10     4.......<.......
     3f0:	00007e98 000080bc 000082a0 000082cc     .~..............
     400:	000082fc 00008358 0000832c 0000a340     ....X...,...@...
     410:	000083a0 000083cc 000085d0 000086a0     ................

00000420 <_init>:
     420:	008136        	entry	a1, 64
     423:	f01d           	retw.n

00000425 <_init+0x5>:
     425:	000000                                        ...

00000428 <share_tmp_buffer>:
     428:	004136        	entry	a1, 32
     42b:	fef541        	l32r	a4, 0 (a684 <fftorder_512_12b+0x244>)
     42e:	60d282        	addmi	a8, a2, 0x6000
     431:	68d232        	addmi	a3, a2, 0x6800
     434:	50d292        	addmi	a9, a2, 0x5000
     437:	a0c992        	addi	a9, a9, -96
     43a:	a0c882        	addi	a8, a8, -96
     43d:	a0c332        	addi	a3, a3, -96
     440:	424a           	add.n	a4, a2, a4
     442:	7e6492        	s32i	a9, a4, 0x1f8
     445:	806432        	s32i	a3, a4, 0x200
     448:	7f6482        	s32i	a8, a4, 0x1fc
     44b:	f01d           	retw.n

0000044d <share_tmp_buffer+0x25>:
     44d:	000000                                        ...

00000450 <common_ECNR_PARA_init_v2>:
     450:	004136        	entry	a1, 32
     453:	a28b           	addi.n	a10, a2, 8
     455:	feeb81        	l32r	a8, 4 (8820 <xt_memcpy>)
     458:	b32b           	addi.n	a11, a3, 2
     45a:	79a0c2        	movi	a12, 121
     45d:	0008e0        	callx8	a8
     460:	5c0c           	movi.n	a12, 5
     462:	01d3b2        	addmi	a11, a3, 0x100
     465:	01d2a2        	addmi	a10, a2, 0x100
     468:	fee781        	l32r	a8, 4 (8820 <xt_memcpy>)
     46b:	fccaa2        	addi	a10, a10, -4
     46e:	f4cbb2        	addi	a11, a11, -12
     471:	0008e0        	callx8	a8
     474:	60a0c2        	movi	a12, 96
     477:	01d2a2        	addmi	a10, a2, 0x100
     47a:	01d3b2        	addmi	a11, a3, 0x100
     47d:	fee181        	l32r	a8, 4 (8820 <xt_memcpy>)
     480:	fecbb2        	addi	a11, a11, -2
     483:	aa8b           	addi.n	a10, a10, 8
     485:	0008e0        	callx8	a8
     488:	fee091        	l32r	a9, 8 (d784 <p_ecnr_mem>)
     48b:	0998           	l32i.n	a9, a9, 0
     48d:	29d992        	addmi	a9, a9, 0x2900
     490:	7fd992        	addmi	a9, a9, 0x7f00
     493:	1f2992        	l32i	a9, a9, 124
     496:	0299           	s32i.n	a9, a2, 0
     498:	f01d           	retw.n

0000049a <common_ECNR_PARA_init_v2+0x4a>:
	...

0000049c <TX_ECNR_PARA_init>:
     49c:	006136        	entry	a1, 48
     49f:	0129           	s32i.n	a2, a1, 0
     4a1:	fed921        	l32r	a2, 8 (d784 <p_ecnr_mem>)
     4a4:	feda81        	l32r	a8, c (428 <share_tmp_buffer>)
     4a7:	0022a2        	l32i	a10, a2, 0
     4aa:	0008e0        	callx8	a8
     4ad:	03bd           	mov.n	a11, a3
     4af:	fed8c1        	l32r	a12, 10 (a778 <fftorder_512_12b+0x338>)
     4b2:	02a8           	l32i.n	a10, a2, 0
     4b4:	fed981        	l32r	a8, 18 (450 <common_ECNR_PARA_init_v2>)
     4b7:	fed771        	l32r	a7, 14 (d778 <__bss_start>)
     4ba:	aaca           	add.n	a10, a10, a12
     4bc:	412aa2        	l32i	a10, a10, 0x104
     4bf:	07a9           	s32i.n	a10, a7, 0
     4c1:	0008e0        	callx8	a8
     4c4:	02e8           	l32i.n	a14, a2, 0
     4c6:	b42b           	addi.n	a11, a4, 2
     4c8:	07d8           	l32i.n	a13, a7, 0
     4ca:	c8a342        	movi	a4, 0x3c8
     4cd:	02dee2        	addmi	a14, a14, 0x200
     4d0:	041dc2        	l16ui	a12, a13, 8
     4d3:	405ec2        	s16i	a12, a14, 128
     4d6:	01e8           	l32i.n	a14, a1, 0
     4d8:	02dda2        	addmi	a10, a13, 0x200
     4db:	c8caa2        	addi	a10, a10, -56
     4de:	2b1e16        	beqz	a14, 793 <TX_ECNR_PARA_init+0x2f7>
     4e1:	80a0c2        	movi	a12, 128
     4e4:	fec881        	l32r	a8, 4 (8820 <xt_memcpy>)
     4e7:	821d92        	l16ui	a9, a13, 0x104
     4ea:	025d92        	s16i	a9, a13, 4
     4ed:	0008e0        	callx8	a8
     4f0:	07d8           	l32i.n	a13, a7, 0
     4f2:	feca91        	l32r	a9, 1c (1000 <inv_mel_filter+0x90>)
     4f5:	80a0a2        	movi	a10, 128
     4f8:	03dd82        	addmi	a8, a13, 0x300
     4fb:	c8c882        	addi	a8, a8, -56
     4fe:	028a76        	loop	a10, 504 <TX_ECNR_PARA_init+0x68>
     501:	09c894        	ae_s16ip	a9, a8, 2

00000504 <TX_ECNR_PARA_init+0x68>:
     504:	4c0c           	movi.n	a12, 4
     506:	febf81        	l32r	a8, 4 (8820 <xt_memcpy>)
     509:	02a8           	l32i.n	a10, a2, 0
     50b:	02ddb2        	addmi	a11, a13, 0x200
     50e:	bacbb2        	addi	a11, a11, -70
     511:	02daa2        	addmi	a10, a10, 0x200
     514:	70caa2        	addi	a10, a10, 112
     517:	0008e0        	callx8	a8
     51a:	b52b           	addi.n	a11, a5, 2
     51c:	00a1c2        	movi	a12, 0x100
     51f:	febce1        	l32r	a14, 10 (a778 <fftorder_512_12b+0x338>)
     522:	07a8           	l32i.n	a10, a7, 0
     524:	0022d2        	l32i	a13, a2, 0
     527:	feb781        	l32r	a8, 4 (8820 <xt_memcpy>)
     52a:	db1a92        	l16ui	a9, a10, 0x1b6
     52d:	80dde0        	add	a13, a13, a14
     530:	04daa2        	addmi	a10, a10, 0x400
     533:	48caa2        	addi	a10, a10, 72
     536:	7f5d92        	s16i	a9, a13, 254
     539:	0008e0        	callx8	a8
     53c:	b62b           	addi.n	a11, a6, 2
     53e:	07a8           	l32i.n	a10, a7, 0
     540:	feb181        	l32r	a8, 4 (8820 <xt_memcpy>)
     543:	0c4c           	movi.n	a12, 64
     545:	aa4a           	add.n	a10, a10, a4
     547:	0008e0        	callx8	a8
     54a:	cc1c           	movi.n	a12, 28
     54c:	feae81        	l32r	a8, 4 (8820 <xt_memcpy>)
     54f:	07a8           	l32i.n	a10, a7, 0
     551:	02d3b2        	addmi	a11, a3, 0x200
     554:	becbb2        	addi	a11, a11, -66
     557:	06daa2        	addmi	a10, a10, 0x600
     55a:	48caa2        	addi	a10, a10, 72
     55d:	0008e0        	callx8	a8
     560:	e0a542        	movi	a4, 0x5e0
     563:	8c3c           	movi.n	a12, 56
     565:	fea781        	l32r	a8, 4 (8820 <xt_memcpy>)
     568:	07a8           	l32i.n	a10, a7, 0
     56a:	01d322        	addmi	a2, a3, 0x100
     56d:	02d3b2        	addmi	a11, a3, 0x200
     570:	f6cbb2        	addi	a11, a11, -10
     573:	78c222        	addi	a2, a2, 120
     576:	01d292        	addmi	a9, a2, 0x100
     579:	1609e2        	l8ui	a14, a9, 22
     57c:	1709f2        	l8ui	a15, a9, 23
     57f:	180952        	l8ui	a5, a9, 24
     582:	06dad2        	addmi	a13, a10, 0x600
     585:	190992        	l8ui	a9, a9, 25
     588:	07daa2        	addmi	a10, a10, 0x700
     58b:	88caa2        	addi	a10, a10, -120
     58e:	119980        	slli	a9, a9, 8
     591:	209950        	or	a9, a9, a5
     594:	119980        	slli	a9, a9, 8
     597:	2099f0        	or	a9, a9, a15
     59a:	119980        	slli	a9, a9, 8
     59d:	2099e0        	or	a9, a9, a14
     5a0:	206d92        	s32i	a9, a13, 128
     5a3:	0008e0        	callx8	a8
     5a6:	07a8           	l32i.n	a10, a7, 0
     5a8:	f102b2        	l8ui	a11, a2, 241
     5ab:	02d2e2        	addmi	a14, a2, 0x200
     5ae:	01d262        	addmi	a6, a2, 0x100
     5b1:	760682        	l8ui	a8, a6, 118
     5b4:	6306f2        	l8ui	a15, a6, 99
     5b7:	620652        	l8ui	a5, a6, 98
     5ba:	8ccee2        	addi	a14, a14, -116
     5bd:	11ff80        	slli	a15, a15, 8
     5c0:	20ff50        	or	a15, a15, a5
     5c3:	770652        	l8ui	a5, a6, 119
     5c6:	030ed2        	l8ui	a13, a14, 3
     5c9:	11bb80        	slli	a11, a11, 8
     5cc:	115580        	slli	a5, a5, 8
     5cf:	205580        	or	a5, a5, a8
     5d2:	750682        	l8ui	a8, a6, 117
     5d5:	ca4a           	add.n	a12, a10, a4
     5d7:	115580        	slli	a5, a5, 8
     5da:	205580        	or	a5, a5, a8
     5dd:	610682        	l8ui	a8, a6, 97
     5e0:	07daa2        	addmi	a10, a10, 0x700
     5e3:	11ff80        	slli	a15, a15, 8
     5e6:	20ff80        	or	a15, a15, a8
     5e9:	600682        	l8ui	a8, a6, 96
     5ec:	740662        	l8ui	a6, a6, 116
     5ef:	aa4b           	addi.n	a10, a10, 4
     5f1:	115580        	slli	a5, a5, 8
     5f4:	205560        	or	a5, a5, a6
     5f7:	020e62        	l8ui	a6, a14, 2
     5fa:	11dd80        	slli	a13, a13, 8
     5fd:	11ff80        	slli	a15, a15, 8
     600:	20dd60        	or	a13, a13, a6
     603:	010e62        	l8ui	a6, a14, 1
     606:	11dd80        	slli	a13, a13, 8
     609:	000ee2        	l8ui	a14, a14, 0
     60c:	20dd60        	or	a13, a13, a6
     60f:	11dd80        	slli	a13, a13, 8
     612:	20dde0        	or	a13, a13, a14
     615:	296cd2        	s32i	a13, a12, 164
     618:	f002d2        	l8ui	a13, a2, 240
     61b:	20ff80        	or	a15, a15, a8
     61e:	fe7981        	l32r	a8, 4 (8820 <xt_memcpy>)
     621:	20bbd0        	or	a11, a11, a13
     624:	ef02d2        	l8ui	a13, a2, 239
     627:	466c52        	s32i	a5, a12, 0x118
     62a:	11bb80        	slli	a11, a11, 8
     62d:	20bbd0        	or	a11, a11, a13
     630:	ee02d2        	l8ui	a13, a2, 238
     633:	486cf2        	s32i	a15, a12, 0x120
     636:	11bb80        	slli	a11, a11, 8
     639:	20bbd0        	or	a11, a11, a13
     63c:	476cb2        	s32i	a11, a12, 0x11c
     63f:	06a0c2        	movi	a12, 6
     642:	02d3b2        	addmi	a11, a3, 0x200
     645:	6acbb2        	addi	a11, a11, 106
     648:	0008e0        	callx8	a8
     64b:	07a8           	l32i.n	a10, a7, 0
     64d:	7fc2b2        	addi	a11, a2, 127
     650:	01d2f2        	addmi	a15, a2, 0x100
     653:	7a0f92        	l8ui	a9, a15, 122
     656:	660f82        	l8ui	a8, a15, 102
     659:	7b0fe2        	l8ui	a14, a15, 123
     65c:	810bc2        	l8ui	a12, a11, 129
     65f:	670fd2        	l8ui	a13, a15, 103
     662:	820bb2        	l8ui	a11, a11, 130
     665:	11ee80        	slli	a14, a14, 8
     668:	11dd80        	slli	a13, a13, 8
     66b:	11bb80        	slli	a11, a11, 8
     66e:	20dd80        	or	a13, a13, a8
     671:	20ee90        	or	a14, a14, a9
     674:	790f82        	l8ui	a8, a15, 121
     677:	11ee80        	slli	a14, a14, 8
     67a:	650f92        	l8ui	a9, a15, 101
     67d:	20bbc0        	or	a11, a11, a12
     680:	11dd80        	slli	a13, a13, 8
     683:	ca4a           	add.n	a12, a10, a4
     685:	11bb80        	slli	a11, a11, 8
     688:	07daa2        	addmi	a10, a10, 0x700
     68b:	1ccaa2        	addi	a10, a10, 28
     68e:	20dd90        	or	a13, a13, a9
     691:	20ee80        	or	a14, a14, a8
     694:	11ee80        	slli	a14, a14, 8
     697:	640f82        	l8ui	a8, a15, 100
     69a:	780ff2        	l8ui	a15, a15, 120
     69d:	11dd80        	slli	a13, a13, 8
     6a0:	20dd80        	or	a13, a13, a8
     6a3:	20eef0        	or	a14, a14, a15
     6a6:	4c6ce2        	s32i	a14, a12, 0x130
     6a9:	4e6cd2        	s32i	a13, a12, 0x138
     6ac:	ff02e2        	l8ui	a14, a2, 255
     6af:	fe5581        	l32r	a8, 4 (8820 <xt_memcpy>)
     6b2:	fe02d2        	l8ui	a13, a2, 254
     6b5:	20bbe0        	or	a11, a11, a14
     6b8:	11bb80        	slli	a11, a11, 8
     6bb:	20bbd0        	or	a11, a11, a13
     6be:	4d6cb2        	s32i	a11, a12, 0x134
     6c1:	2c0c           	movi.n	a12, 2
     6c3:	02d3b2        	addmi	a11, a3, 0x200
     6c6:	7acbb2        	addi	a11, a11, 122
     6c9:	0008e0        	callx8	a8
     6cc:	2c0c           	movi.n	a12, 2
     6ce:	fe4d81        	l32r	a8, 4 (8820 <xt_memcpy>)
     6d1:	07a8           	l32i.n	a10, a7, 0
     6d3:	03d3b2        	addmi	a11, a3, 0x300
     6d6:	8acbb2        	addi	a11, a11, -118
     6d9:	07daa2        	addmi	a10, a10, 0x700
     6dc:	20caa2        	addi	a10, a10, 32
     6df:	0008e0        	callx8	a8
     6e2:	3c0c           	movi.n	a12, 3
     6e4:	fe4881        	l32r	a8, 4 (8820 <xt_memcpy>)
     6e7:	07a8           	l32i.n	a10, a7, 0
     6e9:	03d3b2        	addmi	a11, a3, 0x300
     6ec:	e4cbb2        	addi	a11, a11, -28
     6ef:	07daa2        	addmi	a10, a10, 0x700
     6f2:	24caa2        	addi	a10, a10, 36
     6f5:	0008e0        	callx8	a8
     6f8:	9c0c           	movi.n	a12, 9
     6fa:	fe4281        	l32r	a8, 4 (8820 <xt_memcpy>)
     6fd:	07a8           	l32i.n	a10, a7, 0
     6ff:	03d3b2        	addmi	a11, a3, 0x300
     702:	92cbb2        	addi	a11, a11, -110
     705:	07daa2        	addmi	a10, a10, 0x700
     708:	2ccaa2        	addi	a10, a10, 44
     70b:	0008e0        	callx8	a8
     70e:	2c0c           	movi.n	a12, 2
     710:	fe3d81        	l32r	a8, 4 (8820 <xt_memcpy>)
     713:	07a8           	l32i.n	a10, a7, 0
     715:	03d3b2        	addmi	a11, a3, 0x300
     718:	01d292        	addmi	a9, a2, 0x100
     71b:	1009e2        	l8ui	a14, a9, 16
     71e:	e0cbb2        	addi	a11, a11, -32
     721:	110992        	l8ui	a9, a9, 17
     724:	80da40        	add	a13, a10, a4
     727:	07daa2        	addmi	a10, a10, 0x700
     72a:	40caa2        	addi	a10, a10, 64
     72d:	119980        	slli	a9, a9, 8
     730:	2099e0        	or	a9, a9, a14
     733:	899d           	ae_sext16	a9, a9
     735:	af5d92        	s16i	a9, a13, 0x15e
     738:	0008e0        	callx8	a8
     73b:	2c0c           	movi.n	a12, 2
     73d:	fe3181        	l32r	a8, 4 (8820 <xt_memcpy>)
     740:	07a8           	l32i.n	a10, a7, 0
     742:	03d3b2        	addmi	a11, a3, 0x300
     745:	bb8b           	addi.n	a11, a11, 8
     747:	07daa2        	addmi	a10, a10, 0x700
     74a:	44caa2        	addi	a10, a10, 68
     74d:	0008e0        	callx8	a8
     750:	6c0c           	movi.n	a12, 6
     752:	fe2c81        	l32r	a8, 4 (8820 <xt_memcpy>)
     755:	07a8           	l32i.n	a10, a7, 0
     757:	03d3b2        	addmi	a11, a3, 0x300
     75a:	bbcb           	addi.n	a11, a11, 12
     75c:	07daa2        	addmi	a10, a10, 0x700
     75f:	48caa2        	addi	a10, a10, 72
     762:	0008e0        	callx8	a8
     765:	5c0c           	movi.n	a12, 5
     767:	fe2781        	l32r	a8, 4 (8820 <xt_memcpy>)
     76a:	07a8           	l32i.n	a10, a7, 0
     76c:	02d3b2        	addmi	a11, a3, 0x200
     76f:	7ecbb2        	addi	a11, a11, 126
     772:	07daa2        	addmi	a10, a10, 0x700
     775:	54caa2        	addi	a10, a10, 84
     778:	0008e0        	callx8	a8
     77b:	ac1c           	movi.n	a12, 26
     77d:	fe2181        	l32r	a8, 4 (8820 <xt_memcpy>)
     780:	07a8           	l32i.n	a10, a7, 0
     782:	03d3b2        	addmi	a11, a3, 0x300
     785:	a4cbb2        	addi	a11, a11, -92
     788:	07daa2        	addmi	a10, a10, 0x700
     78b:	60caa2        	addi	a10, a10, 96
     78e:	0008e0        	callx8	a8
     791:	f01d           	retw.n

00000793 <TX_ECNR_PARA_init+0x2f7>:
     793:	00a1c2        	movi	a12, 0x100
     796:	fe1b81        	l32r	a8, 4 (8820 <xt_memcpy>)
     799:	811d92        	l16ui	a9, a13, 0x102
     79c:	025d92        	s16i	a9, a13, 4
     79f:	0008e0        	callx8	a8
     7a2:	07d8           	l32i.n	a13, a7, 0
     7a4:	ff5706        	j	504 <TX_ECNR_PARA_init+0x68>

000007a7 <TX_ECNR_PARA_init+0x30b>:
	...

000007a8 <RX_ECNR_PARA_init>:
     7a8:	004136        	entry	a1, 32
     7ab:	fe1761        	l32r	a6, 8 (d784 <p_ecnr_mem>)
     7ae:	fe1781        	l32r	a8, c (428 <share_tmp_buffer>)
     7b1:	0020f0        	nop
     7b4:	06a8           	l32i.n	a10, a6, 0
     7b6:	0008e0        	callx8	a8
     7b9:	fe1551        	l32r	a5, 10 (a778 <fftorder_512_12b+0x338>)
     7bc:	06a8           	l32i.n	a10, a6, 0
     7be:	03bd           	mov.n	a11, a3
     7c0:	fe1681        	l32r	a8, 18 (450 <common_ECNR_PARA_init_v2>)
     7c3:	fe1431        	l32r	a3, 14 (d778 <__bss_start>)
     7c6:	aa5a           	add.n	a10, a10, a5
     7c8:	412aa2        	l32i	a10, a10, 0x104
     7cb:	03a9           	s32i.n	a10, a3, 0
     7cd:	0008e0        	callx8	a8
     7d0:	03a8           	l32i.n	a10, a3, 0
     7d2:	b42b           	addi.n	a11, a4, 2
     7d4:	02daa2        	addmi	a10, a10, 0x200
     7d7:	c8caa2        	addi	a10, a10, -56
     7da:	b2ac           	beqz.n	a2, 809 <RX_ECNR_PARA_init+0x61>
     7dc:	fe0a81        	l32r	a8, 4 (8820 <xt_memcpy>)
     7df:	80a0c2        	movi	a12, 128
     7e2:	0008e0        	callx8	a8
     7e5:	03b8           	l32i.n	a11, a3, 0
     7e7:	fe0d91        	l32r	a9, 1c (1000 <inv_mel_filter+0x90>)
     7ea:	80a0a2        	movi	a10, 128
     7ed:	03db82        	addmi	a8, a11, 0x300
     7f0:	c8c882        	addi	a8, a8, -56
     7f3:	f03d           	nop.n
     7f5:	028a76        	loop	a10, 7fb <RX_ECNR_PARA_init+0x53>
     7f8:	09c894        	ae_s16ip	a9, a8, 2

000007fb <RX_ECNR_PARA_init+0x53>:
     7fb:	06a8           	l32i.n	a10, a6, 0
     7fd:	da1b92        	l16ui	a9, a11, 0x1b4
     800:	aa5a           	add.n	a10, a10, a5
     802:	990b           	addi.n	a9, a9, -1
     804:	7e5a92        	s16i	a9, a10, 252
     807:	f01d           	retw.n

00000809 <RX_ECNR_PARA_init+0x61>:
     809:	fdfe81        	l32r	a8, 4 (8820 <xt_memcpy>)
     80c:	00a1c2        	movi	a12, 0x100
     80f:	0008e0        	callx8	a8
     812:	0398           	l32i.n	a9, a3, 0
     814:	06a8           	l32i.n	a10, a6, 0
     816:	da1992        	l16ui	a9, a9, 0x1b4
     819:	aa5a           	add.n	a10, a10, a5
     81b:	990b           	addi.n	a9, a9, -1
     81d:	7e5a92        	s16i	a9, a10, 252
     820:	f01d           	retw.n

00000822 <RX_ECNR_PARA_init+0x7a>:
	...

00000824 <EQ_update>:
     824:	004136        	entry	a1, 32
     827:	03bd           	mov.n	a11, a3
     829:	fdf7c1        	l32r	a12, 8 (d784 <p_ecnr_mem>)
     82c:	fdfda1        	l32r	a10, 20 (a3f0 <ROOTS_512_Q16+0xb0>)
     82f:	fdf581        	l32r	a8, 4 (8820 <xt_memcpy>)
     832:	0c29           	s32i.n	a2, a12, 0
     834:	a2aa           	add.n	a10, a2, a10
     836:	00a1c2        	movi	a12, 0x100
     839:	0008e0        	callx8	a8
     83c:	f01d           	retw.n

0000083e <EQ_update+0x1a>:
	...

00000840 <HIFI_sqrt>:
     840:	006136        	entry	a1, 48
     843:	070c           	movi.n	a7, 0
     845:	4913a6        	blti	a3, 1, 892 <HIFI_sqrt+0x52>
     848:	fdf751        	l32r	a5, 24 (ab10 <TABLE_SQRT>)
     84b:	40e380        	nsa	a8, a3
     84e:	401800        	ssl	a8
     851:	c02280        	sub	a2, a2, a8
     854:	a16300        	sll	a6, a3
     857:	043020        	extui	a3, a2, 0, 1
     85a:	400300        	ssr	a3
     85d:	b16060        	sra	a6, a6
     860:	416960        	srli	a6, a6, 9
     863:	314060        	srai	a4, a6, 16
     866:	f0c442        	addi	a4, a4, -16
     869:	534470        	max	a4, a4, a7
     86c:	904450        	addx2	a4, a4, a5
     86f:	245d           	ae_l16si.n	a5, a4, 0
     871:	344d           	ae_l16si.n	a4, a4, 2
     873:	300664        	ae_cvtp24a16x2.ll	aep0, a6, a6
     876:	c04450        	sub	a4, a4, a5
     879:	115500        	slli	a5, a5, 16
     87c:	114400        	slli	a4, a4, 16
     87f:	364434        	ae_cvtq48a32s	aeq1, a4
     882:	360534        	ae_cvtq48a32s	aeq0, a5
     885:	d4e110223f 	{ add	a2, a2, a3; ae_mulaq32sp16u.l	aeq0, aeq1, aep0 }
     88a:	212120        	srai	a2, a2, 1
     88d:	368304        	ae_trunca32q48	a3, aeq0
     890:	f01d           	retw.n

00000892 <HIFI_sqrt+0x52>:
     892:	072d           	mov.n	a2, a7
     894:	023d           	mov.n	a3, a2
     896:	f01d           	retw.n

00000898 <Log2_norm>:
     898:	004136        	entry	a1, 32
     89b:	3212a6        	blti	a2, 1, 8d1 <Log2_norm+0x39>
     89e:	046c           	movi.n	a4, -32
     8a0:	2da437        	bge	a4, a3, 8d1 <Log2_norm+0x39>
     8a3:	052c           	movi.n	a5, 32
     8a5:	04a537        	bge	a5, a3, 8ad <Log2_norm+0x15>
     8a8:	fde021        	l32r	a2, 28 (7fffffff <_end+0x7fff2873>)
     8ab:	f01d           	retw.n

000008ad <Log2_norm+0x15>:
     8ad:	fddf41        	l32r	a4, 2c (ab80 <TABLE_LOG2_1530>)
     8b0:	558820        	extui	a8, a2, 24, 6
     8b3:	1188e0        	slli	a8, a8, 2
     8b6:	603484        	ae_lq32f.xu	aeq0, a4, a8
     8b9:	604414        	ae_lq32f.i	aeq1, a4, 4
     8bc:	f92ae2022f 	{ ae_movpa24x2	aep0, a2, a2; ae_subq56	aeq1, aeq1, aeq0 }
     8c1:	030174        	ae_mulaq32sp16u.l	aeq0, aeq1, aep0
     8c4:	368204        	ae_trunca32q48	a2, aeq0
     8c7:	014360        	slli	a4, a3, 26
     8ca:	212520        	srai	a2, a2, 5
     8cd:	224a           	add.n	a2, a2, a4
     8cf:	f01d           	retw.n

000008d1 <Log2_norm+0x39>:
     8d1:	fdd721        	l32r	a2, 30 (80000000 <_end+0x7fff2874>)
     8d4:	f01d           	retw.n

000008d6 <Log2_norm+0x3e>:
	...

000008d8 <HIFI_sqrt_ie>:
     8d8:	006136        	entry	a1, 48
     8db:	070c           	movi.n	a7, 0
     8dd:	4913a6        	blti	a3, 1, 92a <HIFI_sqrt_ie+0x52>
     8e0:	fdd551        	l32r	a5, 34 (94d0 <TABLE_IE_43>)
     8e3:	40e380        	nsa	a8, a3
     8e6:	401800        	ssl	a8
     8e9:	c02280        	sub	a2, a2, a8
     8ec:	a16300        	sll	a6, a3
     8ef:	043020        	extui	a3, a2, 0, 1
     8f2:	400300        	ssr	a3
     8f5:	b16060        	sra	a6, a6
     8f8:	416960        	srli	a6, a6, 9
     8fb:	314060        	srai	a4, a6, 16
     8fe:	f0c442        	addi	a4, a4, -16
     901:	534470        	max	a4, a4, a7
     904:	904450        	addx2	a4, a4, a5
     907:	245d           	ae_l16si.n	a5, a4, 0
     909:	344d           	ae_l16si.n	a4, a4, 2
     90b:	300664        	ae_cvtp24a16x2.ll	aep0, a6, a6
     90e:	c04450        	sub	a4, a4, a5
     911:	115500        	slli	a5, a5, 16
     914:	114400        	slli	a4, a4, 16
     917:	364434        	ae_cvtq48a32s	aeq1, a4
     91a:	360534        	ae_cvtq48a32s	aeq0, a5
     91d:	d4e110223f 	{ add	a2, a2, a3; ae_mulaq32sp16u.l	aeq0, aeq1, aep0 }
     922:	212120        	srai	a2, a2, 1
     925:	368304        	ae_trunca32q48	a3, aeq0
     928:	f01d           	retw.n

0000092a <HIFI_sqrt_ie+0x52>:
     92a:	072d           	mov.n	a2, a7
     92c:	023d           	mov.n	a3, a2
     92e:	f01d           	retw.n

00000930 <fxexp>:
     930:	006136        	entry	a1, 48
     933:	fdc141        	l32r	a4, 38 (9540 <K_VAL_45>)
     936:	fdbc31        	l32r	a3, 28 (7fffffff <_end+0x7fff2873>)
     939:	368234        	ae_cvtq48a32s	aeq2, a2
     93c:	fc24bd340f 	{ ae_lq32f.iu	aeq1, a4, 0; ae_zeroq56	aeq0 }
     941:	0169c4        	ae_addq56	aeq1, aeq2, aeq1
     944:	064944        	ae_satq48s	aeq1, aeq1
     947:	098504        	ae_leq56s	b0, aeq1, aeq0
     94a:	36c334        	ae_cvtq48a32s	aeq3, a3
     94d:	601414        	ae_lq32f.iu	aeq0, a4, 4
     950:	040076        	bf	b0, 958 <fxexp+0x28>
     953:	fe0c7b33cf 	{ ae_sraiq56	aeq3, aeq3, 12; ae_movq56	aeq2, aeq1 }

00000958 <fxexp+0x28>:
     958:	0168c4        	ae_addq56	aeq1, aeq2, aeq0
     95b:	0a1084        	ae_zeroq56	aeq0
     95e:	064944        	ae_satq48s	aeq1, aeq1
     961:	098514        	ae_leq56s	b1, aeq1, aeq0
     964:	601414        	ae_lq32f.iu	aeq0, a4, 4
     967:	0020f0        	nop
     96a:	040176        	bf	b1, 972 <fxexp+0x42>
     96d:	fe0c7b32cf 	{ ae_sraiq56	aeq3, aeq3, 8; ae_movq56	aeq2, aeq1 }

00000972 <fxexp+0x42>:
     972:	0168c4        	ae_addq56	aeq1, aeq2, aeq0
     975:	0a1084        	ae_zeroq56	aeq0
     978:	064944        	ae_satq48s	aeq1, aeq1
     97b:	098524        	ae_leq56s	b2, aeq1, aeq0
     97e:	601414        	ae_lq32f.iu	aeq0, a4, 4
     981:	f03d           	nop.n
     983:	040276        	bf	b2, 98b <fxexp+0x5b>
     986:	fe0c7b31cf 	{ ae_sraiq56	aeq3, aeq3, 4; ae_movq56	aeq2, aeq1 }

0000098b <fxexp+0x5b>:
     98b:	0168c4        	ae_addq56	aeq1, aeq2, aeq0
     98e:	0a1084        	ae_zeroq56	aeq0
     991:	064944        	ae_satq48s	aeq1, aeq1
     994:	098534        	ae_leq56s	b3, aeq1, aeq0
     997:	601414        	ae_lq32f.iu	aeq0, a4, 4
     99a:	040376        	bf	b3, 9a2 <fxexp+0x72>
     99d:	fe0c7b30ef 	{ ae_sraiq56	aeq3, aeq3, 2; ae_movq56	aeq2, aeq1 }

000009a2 <fxexp+0x72>:
     9a2:	0168c4        	ae_addq56	aeq1, aeq2, aeq0
     9a5:	0a1084        	ae_zeroq56	aeq0
     9a8:	064944        	ae_satq48s	aeq1, aeq1
     9ab:	098544        	ae_leq56s	b4, aeq1, aeq0
     9ae:	601414        	ae_lq32f.iu	aeq0, a4, 4
     9b1:	040476        	bf	b4, 9b9 <fxexp+0x89>
     9b4:	fe0c7b30df 	{ ae_sraiq56	aeq3, aeq3, 1; ae_movq56	aeq2, aeq1 }

000009b9 <fxexp+0x89>:
     9b9:	0168c4        	ae_addq56	aeq1, aeq2, aeq0
     9bc:	0a1084        	ae_zeroq56	aeq0
     9bf:	064944        	ae_satq48s	aeq1, aeq1
     9c2:	098554        	ae_leq56s	b5, aeq1, aeq0
     9c5:	ff7c7d141f 	{ ae_lq32f.iu	aeq0, a4, 4; ae_truncq32	aeq3, aeq3 }
     9ca:	0a0576        	bf	b5, 9d8 <fxexp+0xa8>
     9cd:	35b0b4        	ae_sraiq56	aeq2, aeq3, 2
     9d0:	06aa34        	ae_truncq32	aeq2, aeq2
     9d3:	fbbaff11bf 	{ ae_movq56	aeq2, aeq1; ae_subq56	aeq3, aeq3, aeq2 }

000009d8 <fxexp+0xa8>:
     9d8:	0168c4        	ae_addq56	aeq1, aeq2, aeq0
     9db:	0a1084        	ae_zeroq56	aeq0
     9de:	064944        	ae_satq48s	aeq1, aeq1
     9e1:	098564        	ae_leq56s	b6, aeq1, aeq0
     9e4:	601414        	ae_lq32f.iu	aeq0, a4, 4
     9e7:	0a0676        	bf	b6, 9f5 <fxexp+0xc5>
     9ea:	35b0f4        	ae_sraiq56	aeq2, aeq3, 3
     9ed:	06aa34        	ae_truncq32	aeq2, aeq2
     9f0:	fbbaff11bf 	{ ae_movq56	aeq2, aeq1; ae_subq56	aeq3, aeq3, aeq2 }

000009f5 <fxexp+0xc5>:
     9f5:	0168c4        	ae_addq56	aeq1, aeq2, aeq0
     9f8:	0a1084        	ae_zeroq56	aeq0
     9fb:	064944        	ae_satq48s	aeq1, aeq1
     9fe:	098574        	ae_leq56s	b7, aeq1, aeq0
     a01:	601414        	ae_lq32f.iu	aeq0, a4, 4
     a04:	0a0776        	bf	b7, a12 <fxexp+0xe2>
     a07:	35b134        	ae_sraiq56	aeq2, aeq3, 4
     a0a:	06aa34        	ae_truncq32	aeq2, aeq2
     a0d:	fbbaff11bf 	{ ae_movq56	aeq2, aeq1; ae_subq56	aeq3, aeq3, aeq2 }

00000a12 <fxexp+0xe2>:
     a12:	0168c4        	ae_addq56	aeq1, aeq2, aeq0
     a15:	0a1084        	ae_zeroq56	aeq0
     a18:	064944        	ae_satq48s	aeq1, aeq1
     a1b:	098584        	ae_leq56s	b8, aeq1, aeq0
     a1e:	601414        	ae_lq32f.iu	aeq0, a4, 4
     a21:	0a0876        	bf	b8, a2f <fxexp+0xff>
     a24:	35b174        	ae_sraiq56	aeq2, aeq3, 5
     a27:	06aa34        	ae_truncq32	aeq2, aeq2
     a2a:	fbbaff11bf 	{ ae_movq56	aeq2, aeq1; ae_subq56	aeq3, aeq3, aeq2 }

00000a2f <fxexp+0xff>:
     a2f:	0168c4        	ae_addq56	aeq1, aeq2, aeq0
     a32:	0a1084        	ae_zeroq56	aeq0
     a35:	064944        	ae_satq48s	aeq1, aeq1
     a38:	098594        	ae_leq56s	b9, aeq1, aeq0
     a3b:	601414        	ae_lq32f.iu	aeq0, a4, 4
     a3e:	0a0976        	bf	b9, a4c <fxexp+0x11c>
     a41:	35b1b4        	ae_sraiq56	aeq2, aeq3, 6
     a44:	06aa34        	ae_truncq32	aeq2, aeq2
     a47:	fbbaff11bf 	{ ae_movq56	aeq2, aeq1; ae_subq56	aeq3, aeq3, aeq2 }

00000a4c <fxexp+0x11c>:
     a4c:	0168c4        	ae_addq56	aeq1, aeq2, aeq0
     a4f:	0a1084        	ae_zeroq56	aeq0
     a52:	064944        	ae_satq48s	aeq1, aeq1
     a55:	0985a4        	ae_leq56s	b10, aeq1, aeq0
     a58:	601414        	ae_lq32f.iu	aeq0, a4, 4
     a5b:	0a0a76        	bf	b10, a69 <fxexp+0x139>
     a5e:	35b1f4        	ae_sraiq56	aeq2, aeq3, 7
     a61:	06aa34        	ae_truncq32	aeq2, aeq2
     a64:	fbbaff11bf 	{ ae_movq56	aeq2, aeq1; ae_subq56	aeq3, aeq3, aeq2 }

00000a69 <fxexp+0x139>:
     a69:	0168c4        	ae_addq56	aeq1, aeq2, aeq0
     a6c:	0a1084        	ae_zeroq56	aeq0
     a6f:	064944        	ae_satq48s	aeq1, aeq1
     a72:	098504        	ae_leq56s	b0, aeq1, aeq0
     a75:	fd7181        	l32r	a8, 3c (10000 <_end+0x2874>)
     a78:	360834        	ae_cvtq48a32s	aeq0, a8
     a7b:	260076        	bf	b0, aa5 <fxexp+0x175>
     a7e:	0118c4        	ae_addq56	aeq0, aeq1, aeq0
     a81:	fc00fb328f 	{ ae_sraiq56	aeq2, aeq3, 8; ae_satq48s	aeq0, aeq0 }
     a86:	06aa34        	ae_truncq32	aeq2, aeq2
     a89:	fabafa832f 	{ ae_slliq56	aeq0, aeq0, 14; ae_subq56	aeq2, aeq3, aeq2 }
     a8e:	060844        	ae_satq48s	aeq0, aeq0
     a91:	098c04        	ae_truncp24q48x2	aep0, aeq0, aeq0
     a94:	0885a4        	ae_mulfq32sp24s.l	aeq2, aeq2, aep0
     a97:	062934        	ae_roundsq32asym	aeq0, aeq2
     a9a:	350054        	ae_slliq56	aeq0, aeq0, 1
     a9d:	068844        	ae_satq48s	aeq2, aeq0
     aa0:	36a204        	ae_trunca32q48	a2, aeq2
     aa3:	f01d           	retw.n

00000aa5 <fxexp+0x175>:
     aa5:	fd6591        	l32r	a9, 3c (10000 <_end+0x2874>)
     aa8:	360934        	ae_cvtq48a32s	aeq0, a9
     aab:	0128c4        	ae_addq56	aeq0, aeq2, aeq0
     aae:	064844        	ae_satq48s	aeq1, aeq0
     ab1:	355394        	ae_slliq56	aeq1, aeq1, 14
     ab4:	060944        	ae_satq48s	aeq0, aeq1
     ab7:	098c14        	ae_truncp24q48x2	aep1, aeq0, aeq0
     aba:	081de4        	ae_mulfq32sp24s.l	aeq1, aeq3, aep1
     abd:	061934        	ae_roundsq32asym	aeq0, aeq1
     ac0:	350054        	ae_slliq56	aeq0, aeq0, 1
     ac3:	064844        	ae_satq48s	aeq1, aeq0
     ac6:	369204        	ae_trunca32q48	a2, aeq1
     ac9:	f01d           	retw.n

00000acb <fxexp+0x19b>:
	...

00000acc <fxarctan2>:
     acc:	004136        	entry	a1, 32
     acf:	0a9237        	bne	a2, a3, add <fxarctan2+0x11>
     ad2:	0212e6        	bgei	a2, 1, ad8 <fxarctan2+0xc>
     ad5:	003846        	j	bba <fxarctan2+0xee>
     ad8:	fd5a21        	l32r	a2, 40 (1922 <fn_st_noise_est+0x49a>)
     adb:	f01d           	retw.n

00000add <fxarctan2+0x11>:
     add:	fd5b71        	l32r	a7, 4c (54e0 <subband_aec_mid_channel+0x160>)
     ae0:	fd5a61        	l32r	a6, 48 (8000 <xtensa_fft8_32b+0xf0>)
     ae3:	fd5891        	l32r	a9, 44 (ffff54e0 <_end+0xfffe7d54>)
     ae6:	605120        	abs	a5, a2
     ae9:	604130        	abs	a4, a3
     aec:	604040        	neg	a4, a4
     aef:	605050        	neg	a5, a5
     af2:	855d           	ae_sext16	a5, a5
     af4:	844d           	ae_sext16	a4, a4
     af6:	4ea457        	bge	a4, a5, b48 <fxarctan2+0x7c>
     af9:	fd55c1        	l32r	a12, 50 (b1f <fxarctan2+0x53>)
     afc:	118210        	slli	a8, a2, 15
     aff:	d28830        	quos	a8, a8, a3
     b02:	888d           	ae_sext16	a8, a8
     b04:	60b180        	abs	a11, a8
     b07:	60b0b0        	neg	a11, a11
     b0a:	d1bbc0        	mul16s	a11, a11, a12
     b0d:	fd5151        	l32r	a5, 54 (7fff <xtensa_fft8_32b+0xef>)
     b10:	11bbf0        	slli	a11, a11, 1
     b13:	bb6a           	add.n	a11, a11, a6
     b15:	31b0b0        	srai	a11, a11, 16
     b18:	0227b7        	blt	a7, a11, b1e <fxarctan2+0x52>
     b1b:	002a46        	j	bc8 <fxarctan2+0xfc>

00000b1e <fxarctan2+0x52>:
     b1e:	d18580        	mul16s	a8, a5, a8
     b21:	908860        	addx2	a8, a8, a6
     b24:	318080        	srai	a8, a8, 16
     b27:	087d           	mov.n	a7, a8
     b29:	07f3d6        	bgez	a3, bac <fxarctan2+0xe0>
     b2c:	135296        	bltz	a2, c65 <fxarctan2+0x199>
     b2f:	fd4a41        	l32r	a4, 58 (6488 <Voice_WB_TX_Inear_Prcs+0x268>)
     b32:	0218e6        	bgei	a8, 1, b38 <fxarctan2+0x6c>
     b35:	005706        	j	c95 <fxarctan2+0x1c9>
     b38:	fd4721        	l32r	a2, 54 (7fff <xtensa_fft8_32b+0xef>)

00000b3b <fxarctan2+0x6f>:
     b3b:	d12240        	mul16s	a2, a2, a4
     b3e:	902260        	addx2	a2, a2, a6
     b41:	312020        	srai	a2, a2, 16
     b44:	f01d           	retw.n

00000b46 <fxarctan2+0x7a>:
	...

00000b48 <fxarctan2+0x7c>:
     b48:	fd45c1        	l32r	a12, 5c (4001 <inear_ast_nr_proc+0x141>)
     b4b:	fd41d1        	l32r	a13, 50 (b1f <fxarctan2+0x53>)
     b4e:	11b310        	slli	a11, a3, 15
     b51:	d2bb20        	quos	a11, a11, a2
     b54:	8b3d           	ae_sext16	a3, a11
     b56:	60a130        	abs	a10, a3
     b59:	60a0a0        	neg	a10, a10
     b5c:	d1aad0        	mul16s	a10, a10, a13
     b5f:	fd40d1        	l32r	a13, 60 (c001 <M_norm64+0x81>)
     b62:	11aaf0        	slli	a10, a10, 1
     b65:	aa6a           	add.n	a10, a10, a6
     b67:	31a0a0        	srai	a10, a10, 16
     b6a:	63a7a7        	bge	a7, a10, bd1 <fxarctan2+0x105>
     b6d:	117310        	slli	a7, a3, 15
     b70:	c07730        	sub	a7, a7, a3
     b73:	1177f0        	slli	a7, a7, 1
     b76:	776a           	add.n	a7, a7, a6
     b78:	317070        	srai	a7, a7, 16
     b7b:	0c9296        	bltz	a2, c48 <fxarctan2+0x17c>
     b7e:	fd3981        	l32r	a8, 64 (ffffc000 <_end+0xfffee874>)
     b81:	022877        	blt	a8, a7, b87 <fxarctan2+0xbb>
     b84:	0020c6        	j	c0b <fxarctan2+0x13f>
     b87:	02a7d7        	bge	a7, a13, b8d <fxarctan2+0xc1>
     b8a:	002686        	j	c28 <fxarctan2+0x15c>

00000b8d <fxarctan2+0xc1>:
     b8d:	fd3241        	l32r	a4, 58 (6488 <Voice_WB_TX_Inear_Prcs+0x268>)
     b90:	fd3621        	l32r	a2, 68 (ffff8000 <_end+0xfffea874>)
     b93:	d12240        	mul16s	a2, a2, a4
     b96:	902260        	addx2	a2, a2, a6
     b99:	312020        	srai	a2, a2, 16
     b9c:	f01d           	retw.n

00000b9e <fxarctan2+0xd2>:
	...

00000ba0 <fxarctan2+0xd4>:
     ba0:	fd3391        	l32r	a9, 6c (ffff4000 <_end+0xfffe6874>)
     ba3:	02a937        	bge	a9, a3, ba9 <fxarctan2+0xdd>
     ba6:	004786        	j	cc8 <fxarctan2+0x1fc>

00000ba9 <fxarctan2+0xdd>:
     ba9:	fd2a71        	l32r	a7, 54 (7fff <xtensa_fft8_32b+0xef>)

00000bac <fxarctan2+0xe0>:
     bac:	fd2b21        	l32r	a2, 58 (6488 <Voice_WB_TX_Inear_Prcs+0x268>)
     baf:	d12720        	mul16s	a2, a7, a2
     bb2:	902260        	addx2	a2, a2, a6
     bb5:	312020        	srai	a2, a2, 16
     bb8:	f01d           	retw.n

00000bba <fxarctan2+0xee>:
     bba:	fd2d31        	l32r	a3, 70 (ffffb49b <_end+0xfffedd0f>)
     bbd:	040c           	movi.n	a4, 0
     bbf:	b33420        	movgez	a3, a4, a2
     bc2:	032d           	mov.n	a2, a3
     bc4:	f01d           	retw.n

00000bc6 <fxarctan2+0xfa>:
	...

00000bc8 <fxarctan2+0xfc>:
     bc8:	5029b7        	blt	a9, a11, c1c <fxarctan2+0x150>
     bcb:	fd2751        	l32r	a5, 68 (ffff8000 <_end+0xfffea874>)
     bce:	ffd306        	j	b1e <fxarctan2+0x52>

00000bd1 <fxarctan2+0x105>:
     bd1:	1c29a7        	blt	a9, a10, bf1 <fxarctan2+0x125>
     bd4:	113310        	slli	a3, a3, 15
     bd7:	603030        	neg	a3, a3
     bda:	1133f0        	slli	a3, a3, 1
     bdd:	336a           	add.n	a3, a3, a6
     bdf:	313030        	srai	a3, a3, 16
     be2:	0bb296        	bltz	a2, ca1 <fxarctan2+0x1d5>
     be5:	fd1f41        	l32r	a4, 64 (ffffc000 <_end+0xfffee874>)
     be8:	1fa437        	bge	a4, a3, c0b <fxarctan2+0x13f>
     beb:	9ea3d7        	bge	a3, a13, b8d <fxarctan2+0xc1>
     bee:	000e06        	j	c2a <fxarctan2+0x15e>

00000bf1 <fxarctan2+0x125>:
     bf1:	2bda32        	addmi	a3, a10, 0x2b00
     bf4:	1fc332        	addi	a3, a3, 31
     bf7:	d133b0        	mul16s	a3, a3, a11
     bfa:	1133f0        	slli	a3, a3, 1
     bfd:	336a           	add.n	a3, a3, a6
     bff:	313030        	srai	a3, a3, 16
     c02:	f9a296        	bltz	a2, ba0 <fxarctan2+0xd4>
     c05:	fd1741        	l32r	a4, 64 (ffffc000 <_end+0xfffee874>)
     c08:	342437        	blt	a4, a3, c40 <fxarctan2+0x174>

00000c0b <fxarctan2+0x13f>:
     c0b:	fd1341        	l32r	a4, 58 (6488 <Voice_WB_TX_Inear_Prcs+0x268>)
     c0e:	fd1121        	l32r	a2, 54 (7fff <xtensa_fft8_32b+0xef>)
     c11:	d12240        	mul16s	a2, a2, a4
     c14:	902260        	addx2	a2, a2, a6
     c17:	312020        	srai	a2, a2, 16
     c1a:	f01d           	retw.n

00000c1c <fxarctan2+0x150>:
     c1c:	2bdb52        	addmi	a5, a11, 0x2b00
     c1f:	1fc552        	addi	a5, a5, 31
     c22:	855d           	ae_sext16	a5, a5
     c24:	ffbd86        	j	b1e <fxarctan2+0x52>

00000c27 <fxarctan2+0x15b>:
	...

00000c28 <fxarctan2+0x15c>:
     c28:	073d           	mov.n	a3, a7

00000c2a <fxarctan2+0x15e>:
     c2a:	fd1221        	l32r	a2, 74 (4000 <inear_ast_nr_proc+0x140>)
     c2d:	fd0a41        	l32r	a4, 58 (6488 <Voice_WB_TX_Inear_Prcs+0x268>)
     c30:	c02230        	sub	a2, a2, a3
     c33:	822d           	ae_sext16	a2, a2
     c35:	d12240        	mul16s	a2, a2, a4
     c38:	902260        	addx2	a2, a2, a6
     c3b:	312020        	srai	a2, a2, 16
     c3e:	f01d           	retw.n

00000c40 <fxarctan2+0x174>:
     c40:	e623d7        	blt	a3, a13, c2a <fxarctan2+0x15e>
     c43:	ffd186        	j	b8d <fxarctan2+0xc1>

00000c46 <fxarctan2+0x17a>:
	...

00000c48 <fxarctan2+0x17c>:
     c48:	fd0941        	l32r	a4, 6c (ffff4000 <_end+0xfffe6874>)
     c4b:	022477        	blt	a4, a7, c51 <fxarctan2+0x185>
     c4e:	ffd5c6        	j	ba9 <fxarctan2+0xdd>
     c51:	5b27c7        	blt	a7, a12, cb0 <fxarctan2+0x1e4>

00000c54 <fxarctan2+0x188>:
     c54:	fd0121        	l32r	a2, 58 (6488 <Voice_WB_TX_Inear_Prcs+0x268>)
     c57:	fd0471        	l32r	a7, 68 (ffff8000 <_end+0xfffea874>)
     c5a:	d12720        	mul16s	a2, a7, a2
     c5d:	902260        	addx2	a2, a2, a6
     c60:	312020        	srai	a2, a2, 16
     c63:	f01d           	retw.n

00000c65 <fxarctan2+0x199>:
     c65:	fd0451        	l32r	a5, 78 (ffff <_end+0x2873>)
     c68:	10a587        	bge	a5, a8, c7c <fxarctan2+0x1b0>
     c6b:	fcfb41        	l32r	a4, 58 (6488 <Voice_WB_TX_Inear_Prcs+0x268>)
     c6e:	fcf921        	l32r	a2, 54 (7fff <xtensa_fft8_32b+0xef>)
     c71:	d12240        	mul16s	a2, a2, a4
     c74:	902260        	addx2	a2, a2, a6
     c77:	312020        	srai	a2, a2, 16
     c7a:	f01d           	retw.n

00000c7c <fxarctan2+0x1b0>:
     c7c:	fcf741        	l32r	a4, 58 (6488 <Voice_WB_TX_Inear_Prcs+0x268>)
     c7f:	fcfa21        	l32r	a2, 68 (ffff8000 <_end+0xfffea874>)
     c82:	80d892        	addmi	a9, a8, 0xffff8000
     c85:	899d           	ae_sext16	a9, a9
     c87:	b32980        	movgez	a2, a9, a8
     c8a:	d12240        	mul16s	a2, a2, a4
     c8d:	902260        	addx2	a2, a2, a6
     c90:	312020        	srai	a2, a2, 16
     c93:	f01d           	retw.n

00000c95 <fxarctan2+0x1c9>:
     c95:	fcf951        	l32r	a5, 7c (ffff0000 <_end+0xfffe2874>)
     c98:	212587        	blt	a5, a8, cbd <fxarctan2+0x1f1>
     c9b:	fcf321        	l32r	a2, 68 (ffff8000 <_end+0xfffea874>)
     c9e:	ffa646        	j	b3b <fxarctan2+0x6f>

00000ca1 <fxarctan2+0x1d5>:
     ca1:	fcf281        	l32r	a8, 6c (ffff4000 <_end+0xfffe6874>)
     ca4:	022837        	blt	a8, a3, caa <fxarctan2+0x1de>
     ca7:	ffbf86        	j	ba9 <fxarctan2+0xdd>
     caa:	a6a3c7        	bge	a3, a12, c54 <fxarctan2+0x188>
     cad:	000046        	j	cb2 <fxarctan2+0x1e6>

00000cb0 <fxarctan2+0x1e4>:
     cb0:	073d           	mov.n	a3, a7

00000cb2 <fxarctan2+0x1e6>:
     cb2:	fcec71        	l32r	a7, 64 (ffffc000 <_end+0xfffee874>)
     cb5:	c07730        	sub	a7, a7, a3
     cb8:	877d           	ae_sext16	a7, a7
     cba:	ffbb86        	j	bac <fxarctan2+0xe0>

00000cbd <fxarctan2+0x1f1>:
     cbd:	fce521        	l32r	a2, 54 (7fff <xtensa_fft8_32b+0xef>)
     cc0:	282a           	add.n	a2, a8, a2
     cc2:	822d           	ae_sext16	a2, a2
     cc4:	ff9cc6        	j	b3b <fxarctan2+0x6f>

00000cc7 <fxarctan2+0x1fb>:
	...

00000cc8 <fxarctan2+0x1fc>:
     cc8:	e623c7        	blt	a3, a12, cb2 <fxarctan2+0x1e6>
     ccb:	ffe146        	j	c54 <fxarctan2+0x188>

00000cce <fxarctan2+0x202>:
	...

00000cd0 <fxsqrt_ie>:
     cd0:	004136        	entry	a1, 32
     cd3:	063216        	beqz	a2, d3a <fxsqrt_ie+0x6a>
     cd6:	fcdc31        	l32r	a3, 48 (8000 <xtensa_fft8_32b+0xf0>)
     cd9:	fcd661        	l32r	a6, 34 (94d0 <TABLE_IE_43>)
     cdc:	090c           	movi.n	a9, 0
     cde:	f40c           	movi.n	a4, 15
     ce0:	40e280        	nsa	a8, a2
     ce3:	401800        	ssl	a8
     ce6:	c04480        	sub	a4, a4, a8
     ce9:	a17200        	sll	a7, a2
     cec:	044040        	extui	a4, a4, 0, 1
     cef:	400400        	ssr	a4
     cf2:	c04480        	sub	a4, a4, a8
     cf5:	b17070        	sra	a7, a7
     cf8:	417970        	srli	a7, a7, 9
     cfb:	44fb           	addi.n	a4, a4, 15
     cfd:	315070        	srai	a5, a7, 16
     d00:	f0c552        	addi	a5, a5, -16
     d03:	535590        	max	a5, a5, a9
     d06:	905560        	addx2	a5, a5, a6
     d09:	256d           	ae_l16si.n	a6, a5, 0
     d0b:	355d           	ae_l16si.n	a5, a5, 2
     d0d:	214140        	srai	a4, a4, 1
     d10:	300774        	ae_cvtp24a16x2.ll	aep0, a7, a7
     d13:	c05560        	sub	a5, a5, a6
     d16:	116600        	slli	a6, a6, 16
     d19:	115500        	slli	a5, a5, 16
     d1c:	36c534        	ae_cvtq48a32s	aeq3, a5
     d1f:	368634        	ae_cvtq48a32s	aeq2, a6
     d22:	d7e13ec37f 	{ ae_cvtq48a32s	aeq1, a3; ae_mulaq32sp16u.l	aeq2, aeq3, aep0 }
     d27:	f9c442        	addi	a4, a4, -7
     d2a:	fc24fea40f 	{ ae_slaasq56s	aeq0, aeq2, a4; nop }
     d2f:	0109c4        	ae_addq56	aeq0, aeq0, aeq1
     d32:	368204        	ae_trunca32q48	a2, aeq0
     d35:	312020        	srai	a2, a2, 16
     d38:	f01d           	retw.n

00000d3a <fxsqrt_ie+0x6a>:
     d3a:	020c           	movi.n	a2, 0
     d3c:	f01d           	retw.n

00000d3e <fxsqrt_ie+0x6e>:
	...

00000d40 <fxlog10>:
     d40:	004136        	entry	a1, 32
     d43:	061216        	beqz	a2, da8 <fxlog10+0x68>
     d46:	530c           	movi.n	a3, 5
     d48:	fccf81        	l32r	a8, 84 (241f8 <_end+0x16a6c>)
     d4b:	fcb9b1        	l32r	a11, 30 (80000000 <_end+0x7fff2874>)
     d4e:	fccc91        	l32r	a9, 80 (2688 <fn_calc_jnd_gain+0x3b4>)
     d51:	04d296        	bltz	a2, da2 <fxlog10+0x62>
     d54:	40e250        	nsa	a5, a2
     d57:	551b           	addi.n	a5, a5, 1
     d59:	855d           	ae_sext16	a5, a5

00000d5b <fxlog10+0x1b>:
     d5b:	401500        	ssl	a5
     d5e:	d19590        	mul16s	a9, a5, a9
     d61:	a1a200        	sll	a10, a2
     d64:	fcc921        	l32r	a2, 88 (9570 <log_coef_49>)
     d67:	aaba           	add.n	a10, a10, a11
     d69:	c08890        	sub	a8, a8, a9
     d6c:	118880        	slli	a8, a8, 8
     d6f:	f5a0a0        	extui	a10, a10, 16, 16
     d72:	301aa4        	ae_cvtp24a16x2.ll	aep1, a10, a10
     d75:	360834        	ae_cvtq48a32s	aeq0, a8
     d78:	408204        	ae_lp16f.iu	aep0, a2, 0
     d7b:	350214        	ae_slliq56	aeq0, aeq0, 8
     d7e:	fcbfa1        	l32r	a10, 7c (ffff0000 <_end+0xfffe2874>)
     d81:	f966becabf 	{ ae_cvtq48a32s	aeq2, a10; ae_movp48	aep2, aep1 }
     d86:	0a8376        	loop	a3, d94 <fxlog10+0x54>
     d89:	011a74        	ae_mulfp24s.ll	aeq1, aep1, aep2
     d8c:	e6232c821f 	{ ae_lp16f.iu	aep0, a2, 2; ae_mulap24s.ll	aeq0, aep0, aep1 }
     d91:	1b9f14        	ae_roundsp16q48asym	aep1, aeq1

00000d94 <fxlog10+0x54>:
     d94:	3540f4        	ae_sraiq56	aeq1, aeq0, 3
     d97:	0161e4        	ae_andq56	aeq1, aeq1, aeq2
     d9a:	1b9f04        	ae_roundsp16q48asym	aep0, aeq1
     d9d:	360224        	ae_trunca16p24s.l	a2, aep0
     da0:	f01d           	retw.n

00000da2 <fxlog10+0x62>:
     da2:	050c           	movi.n	a5, 0
     da4:	ffecc6        	j	d5b <fxlog10+0x1b>

00000da7 <fxlog10+0x67>:
	...

00000da8 <fxlog10+0x68>:
     da8:	fcb021        	l32r	a2, 68 (ffff8000 <_end+0xfffea874>)
     dab:	f01d           	retw.n

00000dad <fxlog10+0x6d>:
     dad:	000000                                        ...

00000db0 <fxln>:
     db0:	004136        	entry	a1, 32
     db3:	061216        	beqz	a2, e18 <fxln+0x68>
     db6:	530c           	movi.n	a3, 5
     db8:	fcb681        	l32r	a8, 90 (29973 <_end+0x1c1e7>)
     dbb:	fc9db1        	l32r	a11, 30 (80000000 <_end+0x7fff2874>)
     dbe:	fcb391        	l32r	a9, 8c (2c5d <fn_win_detection+0x349>)
     dc1:	04d296        	bltz	a2, e12 <fxln+0x62>
     dc4:	40e250        	nsa	a5, a2
     dc7:	551b           	addi.n	a5, a5, 1
     dc9:	855d           	ae_sext16	a5, a5

00000dcb <fxln+0x1b>:
     dcb:	401500        	ssl	a5
     dce:	d19590        	mul16s	a9, a5, a9
     dd1:	a1a200        	sll	a10, a2
     dd4:	fcb021        	l32r	a2, 94 (9580 <ln_coef_51>)
     dd7:	aaba           	add.n	a10, a10, a11
     dd9:	c08890        	sub	a8, a8, a9
     ddc:	118880        	slli	a8, a8, 8
     ddf:	f5a0a0        	extui	a10, a10, 16, 16
     de2:	301aa4        	ae_cvtp24a16x2.ll	aep1, a10, a10
     de5:	360834        	ae_cvtq48a32s	aeq0, a8
     de8:	408204        	ae_lp16f.iu	aep0, a2, 0
     deb:	350214        	ae_slliq56	aeq0, aeq0, 8
     dee:	fca3a1        	l32r	a10, 7c (ffff0000 <_end+0xfffe2874>)
     df1:	f966becabf 	{ ae_cvtq48a32s	aeq2, a10; ae_movp48	aep2, aep1 }
     df6:	0a8376        	loop	a3, e04 <fxln+0x54>
     df9:	011a74        	ae_mulfp24s.ll	aeq1, aep1, aep2
     dfc:	e6232c821f 	{ ae_lp16f.iu	aep0, a2, 2; ae_mulap24s.ll	aeq0, aep0, aep1 }
     e01:	1b9f14        	ae_roundsp16q48asym	aep1, aeq1

00000e04 <fxln+0x54>:
     e04:	3540f4        	ae_sraiq56	aeq1, aeq0, 3
     e07:	0161e4        	ae_andq56	aeq1, aeq1, aeq2
     e0a:	1b9f04        	ae_roundsp16q48asym	aep0, aeq1
     e0d:	360224        	ae_trunca16p24s.l	a2, aep0
     e10:	f01d           	retw.n

00000e12 <fxln+0x62>:
     e12:	050c           	movi.n	a5, 0
     e14:	ffecc6        	j	dcb <fxln+0x1b>

00000e17 <fxln+0x67>:
	...

00000e18 <fxln+0x68>:
     e18:	fc9421        	l32r	a2, 68 (ffff8000 <_end+0xfffea874>)
     e1b:	f01d           	retw.n

00000e1d <fxln+0x6d>:
     e1d:	000000                                        ...

00000e20 <_saturate16>:
     e20:	004136        	entry	a1, 32
     e23:	fc8c81        	l32r	a8, 54 (7fff <xtensa_fft8_32b+0xef>)
     e26:	fc9c31        	l32r	a3, 98 (ffff7fff <_end+0xfffea873>)
     e29:	0b2827        	blt	a8, a2, e38 <_saturate16+0x18>
     e2c:	042327        	blt	a3, a2, e34 <_saturate16+0x14>
     e2f:	fc8e21        	l32r	a2, 68 (ffff8000 <_end+0xfffea874>)
     e32:	f01d           	retw.n

00000e34 <_saturate16+0x14>:
     e34:	822d           	ae_sext16	a2, a2
     e36:	f01d           	retw.n

00000e38 <_saturate16+0x18>:
     e38:	082d           	mov.n	a2, a8
     e3a:	f01d           	retw.n

00000e3c <_saturate32>:
     e3c:	004136        	entry	a1, 32
     e3f:	fc7a71        	l32r	a7, 28 (7fffffff <_end+0x7fff2873>)
     e42:	060c           	movi.n	a6, 0
     e44:	003396        	bltz	a3, e4b <_saturate32+0xf>
     e47:	939c           	beqz.n	a3, e64 <_saturate32+0x28>

00000e49 <_saturate32+0xd>:
     e49:	160c           	movi.n	a6, 1

00000e4b <_saturate32+0xf>:
     e4b:	368c           	beqz.n	a6, e52 <_saturate32+0x16>
     e4d:	fc7621        	l32r	a2, 28 (7fffffff <_end+0x7fff2873>)
     e50:	f01d           	retw.n

00000e52 <_saturate32+0x16>:
     e52:	fc7571        	l32r	a7, 28 (7fffffff <_end+0x7fff2873>)
     e55:	060c           	movi.n	a6, 0
     e57:	00f396        	bltz	a3, e6a <_saturate32+0x2e>

00000e5a <_saturate32+0x1e>:
     e5a:	fc7531        	l32r	a3, 30 (80000000 <_end+0x7fff2874>)
     e5d:	833260        	moveqz	a3, a2, a6
     e60:	032d           	mov.n	a2, a3
     e62:	f01d           	retw.n

00000e64 <_saturate32+0x28>:
     e64:	e3b727        	bgeu	a7, a2, e4b <_saturate32+0xf>
     e67:	fff786        	j	e49 <_saturate32+0xd>

00000e6a <_saturate32+0x2e>:
     e6a:	040326        	beqi	a3, -1, e72 <_saturate32+0x36>

00000e6d <_saturate32+0x31>:
     e6d:	fc7021        	l32r	a2, 30 (80000000 <_end+0x7fff2874>)
     e70:	f01d           	retw.n

00000e72 <_saturate32+0x36>:
     e72:	e43727        	bltu	a7, a2, e5a <_saturate32+0x1e>
     e75:	fffd06        	j	e6d <_saturate32+0x31>

00000e78 <_saturate24>:
     e78:	004136        	entry	a1, 32
     e7b:	fc8871        	l32r	a7, 9c (7fffff00 <_end+0x7fff2774>)
     e7e:	00a062        	movi	a6, 0
     e81:	003396        	bltz	a3, e88 <_saturate24+0x10>
     e84:	a39c           	beqz.n	a3, ea2 <_saturate24+0x2a>

00000e86 <_saturate24+0xe>:
     e86:	160c           	movi.n	a6, 1

00000e88 <_saturate24+0x10>:
     e88:	368c           	beqz.n	a6, e8f <_saturate24+0x17>
     e8a:	fc8421        	l32r	a2, 9c (7fffff00 <_end+0x7fff2774>)
     e8d:	f01d           	retw.n

00000e8f <_saturate24+0x17>:
     e8f:	fc6671        	l32r	a7, 28 (7fffffff <_end+0x7fff2873>)
     e92:	00a062        	movi	a6, 0
     e95:	00f396        	bltz	a3, ea8 <_saturate24+0x30>

00000e98 <_saturate24+0x20>:
     e98:	fc6631        	l32r	a3, 30 (80000000 <_end+0x7fff2874>)
     e9b:	833260        	moveqz	a3, a2, a6
     e9e:	032d           	mov.n	a2, a3
     ea0:	f01d           	retw.n

00000ea2 <_saturate24+0x2a>:
     ea2:	e2b727        	bgeu	a7, a2, e88 <_saturate24+0x10>
     ea5:	fff746        	j	e86 <_saturate24+0xe>

00000ea8 <_saturate24+0x30>:
     ea8:	040326        	beqi	a3, -1, eb0 <_saturate24+0x38>

00000eab <_saturate24+0x33>:
     eab:	fc6121        	l32r	a2, 30 (80000000 <_end+0x7fff2874>)
     eae:	f01d           	retw.n

00000eb0 <_saturate24+0x38>:
     eb0:	e43727        	bltu	a7, a2, e98 <_saturate24+0x20>
     eb3:	fffd06        	j	eab <_saturate24+0x33>

00000eb6 <_saturate24+0x3e>:
	...

00000eb8 <mel_filter>:
     eb8:	004136        	entry	a1, 32
     ebb:	fcc3a2        	addi	a10, a3, -4
     ebe:	fc78d1        	l32r	a13, a0 (d560 <all_amt_tab>)
     ec1:	02cd           	mov.n	a12, a2
     ec3:	a0b440        	addx4	a11, a4, a4
     ec6:	b0bbd0        	addx8	a11, a11, a13
     ec9:	2b2d           	ae_l16si.n	a2, a11, 0
     ecb:	7b88           	l32i.n	a8, a11, 28
     ecd:	022bb2        	l32i	a11, a11, 8
     ed0:	3d12a6        	blti	a2, 1, f11 <mel_filter+0x59>
     ed3:	90d280        	addx2	a13, a2, a8
     ed6:	fe2480007f 	{ movi	a7, 0; ae_zeroq56	aeq2 }
     edb:	fc145137bf 	{ addx2	a3, a7, a11; ae_movq56	aeq0, aeq2 }

00000ee0 <mel_filter+0x28>:
     ee0:	28ed           	ae_l16si.n	a14, a8, 0
     ee2:	029892        	l16si	a9, a8, 4
     ee5:	408304        	ae_lp16f.iu	aep0, a3, 0
     ee8:	a02ec0        	addx4	a2, a14, a12
     eeb:	c099e0        	sub	a9, a9, a14
     eee:	224b           	addi.n	a2, a2, 4
     ef0:	605204        	ae_lq32f.iu	aeq1, a2, 0
     ef3:	990b           	addi.n	a9, a9, -1
     ef5:	07a976        	loopgtz	a9, f00 <mel_filter+0x48>
     ef8:	f483bd321f 	{ ae_lq32f.iu	aeq1, a2, 4; ae_mulafq32sp16s.l	aeq0, aeq1, aep0 }
     efd:	408314        	ae_lp16f.iu	aep0, a3, 2

00000f00 <mel_filter+0x48>:
     f00:	882b           	addi.n	a8, a8, 2
     f02:	779a           	add.n	a7, a7, a9
     f04:	f8679137bf 	{ addx2	a3, a7, a11; ae_roundsp24q48asym	aep0, aeq0 }
     f09:	fc14748a1f 	{ ae_sp24f.l.iu	aep0, a10, 4; ae_movq56	aeq0, aeq2 }
     f0e:	ce98d7        	bne	a8, a13, ee0 <mel_filter+0x28>

00000f11 <mel_filter+0x59>:
     f11:	f01d           	retw.n

00000f13 <mel_filter+0x5b>:
	...

00000f14 <mel_filter16>:
     f14:	004136        	entry	a1, 32
     f17:	fec3a2        	addi	a10, a3, -2
     f1a:	fc61d1        	l32r	a13, a0 (d560 <all_amt_tab>)
     f1d:	02cd           	mov.n	a12, a2
     f1f:	a0b440        	addx4	a11, a4, a4
     f22:	b0bbd0        	addx8	a11, a11, a13
     f25:	2b2d           	ae_l16si.n	a2, a11, 0
     f27:	7b88           	l32i.n	a8, a11, 28
     f29:	2bb8           	l32i.n	a11, a11, 8
     f2b:	3d12a6        	blti	a2, 1, f6c <mel_filter16+0x58>
     f2e:	90d280        	addx2	a13, a2, a8
     f31:	fe2480007f 	{ movi	a7, 0; ae_zeroq56	aeq2 }
     f36:	fc145137bf 	{ addx2	a3, a7, a11; ae_movq56	aeq0, aeq2 }

00000f3b <mel_filter16+0x27>:
     f3b:	28ed           	ae_l16si.n	a14, a8, 0
     f3d:	029892        	l16si	a9, a8, 4
     f40:	409304        	ae_lp16f.iu	aep1, a3, 0
     f43:	902ec0        	addx2	a2, a14, a12
     f46:	c099e0        	sub	a9, a9, a14
     f49:	222b           	addi.n	a2, a2, 2
     f4b:	408204        	ae_lp16f.iu	aep0, a2, 0
     f4e:	990b           	addi.n	a9, a9, -1
     f50:	07a976        	loopgtz	a9, f5b <mel_filter16+0x47>
     f53:	e223ac821f 	{ ae_lp16f.iu	aep0, a2, 2; ae_mulafp24s.ll	aeq0, aep0, aep1 }
     f58:	409314        	ae_lp16f.iu	aep1, a3, 2

00000f5b <mel_filter16+0x47>:
     f5b:	882b           	addi.n	a8, a8, 2
     f5d:	779a           	add.n	a7, a7, a9
     f5f:	f8e39137bf 	{ addx2	a3, a7, a11; ae_roundsp16q48sym	aep0, aeq0 }
     f64:	fc14728a1f 	{ ae_sp16f.l.iu	aep0, a10, 2; ae_movq56	aeq0, aeq2 }
     f69:	ce98d7        	bne	a8, a13, f3b <mel_filter16+0x27>

00000f6c <mel_filter16+0x58>:
     f6c:	f01d           	retw.n

00000f6e <mel_filter16+0x5a>:
	...

00000f70 <inv_mel_filter>:
     f70:	004136        	entry	a1, 32
     f73:	fc4b71        	l32r	a7, a0 (d560 <all_amt_tab>)
     f76:	a05440        	addx4	a5, a4, a4
     f79:	03dd           	mov.n	a13, a3
     f7b:	028d           	mov.n	a8, a2
     f7d:	02d332        	addmi	a3, a3, 0x200
     f80:	020c           	movi.n	a2, 0
     f82:	b05570        	addx8	a5, a5, a7
     f85:	1598           	l32i.n	a9, a5, 4
     f87:	0225c2        	l32i	a12, a5, 8
     f8a:	254d           	ae_l16si.n	a4, a5, 0
     f8c:	072572        	l32i	a7, a5, 28
     f8f:	632d           	ae_s16i.n	a2, a3, 0
     f91:	fccd22        	addi	a2, a13, -4
     f94:	fc2080803f 	{ movi	a3, 128; ae_zerop48	aep0 }
     f99:	028376        	loop	a3, f9f <inv_mel_filter+0x2f>
     f9c:	468214        	ae_sp16x2f.iu	aep0, a2, 4

00000f9f <inv_mel_filter+0x2f>:
     f9f:	509904        	ae_lp24f.iu	aep1, a9, 0
     fa2:	40a804        	ae_lp16f.iu	aep2, a8, 0
     fa5:	408c04        	ae_lp16f.iu	aep0, a12, 0
     fa8:	5414a6        	blti	a4, 1, 1000 <inv_mel_filter+0x90>
     fab:	ea4591e47f 	{ addx2	a14, a4, a7; ae_mulfp24s.ll	aeq0, aep1, aep2 }

00000fb0 <inv_mel_filter+0x40>:
     fb0:	27bd           	ae_l16si.n	a11, a7, 0
     fb2:	0297a2        	l16si	a10, a7, 4
     fb5:	02c772        	addi	a7, a7, 2
     fb8:	01cbb2        	addi	a11, a11, 1
     fbb:	8bbd           	ae_sext16	a11, a11
     fbd:	f967912bdf 	{ addx2	a2, a11, a13; ae_roundsp24q48asym	aep2, aeq0 }
     fc2:	ea09ec920f 	{ ae_lp16f.iu	aep1, a2, 0; ae_mulfp24s.ll	aeq1, aep2, aep0 }
     fc7:	29aba7        	bge	a11, a10, ff4 <inv_mel_filter+0x84>
     fca:	1b9d44        	ae_roundsp24q48asym	aep4, aeq1
     fcd:	c952554abf 	{ sub	a4, a10, a11; ae_sllisp24s	aep3, aep4, 8 }
     fd2:	d82d0ff44e 	{ addi	a4, a4, -1; ae_addsp24s	aep0, aep3, aep1 }
     fd7:	428204        	ae_sp16f.l.iu	aep0, a2, 0
     fda:	408c14        	ae_lp16f.iu	aep0, a12, 2
     fdd:	13a476        	loopgtz	a4, ff4 <inv_mel_filter+0x84>
     fe0:	ea09ac921f 	{ ae_lp16f.iu	aep1, a2, 2; ae_mulfp24s.ll	aeq0, aep2, aep0 }
     fe5:	1b8d04        	ae_roundsp24q48asym	aep0, aeq0
     fe8:	0b8404        	ae_sllisp24s	aep0, aep0, 8
     feb:	078104        	ae_addsp24s	aep0, aep0, aep1
     fee:	428204        	ae_sp16f.l.iu	aep0, a2, 0
     ff1:	408c14        	ae_lp16f.iu	aep0, a12, 2

00000ff4 <inv_mel_filter+0x84>:
     ff4:	40a814        	ae_lp16f.iu	aep2, a8, 2
     ff7:	509914        	ae_lp24f.iu	aep1, a9, 4
     ffa:	011274        	ae_mulfp24s.ll	aeq0, aep1, aep2
     ffd:	af97e7        	bne	a7, a14, fb0 <inv_mel_filter+0x40>

00001000 <inv_mel_filter+0x90>:
    1000:	f01d           	retw.n

00001002 <inv_mel_filter+0x92>:
	...

00001004 <calc_amt>:
    1004:	012136        	entry	a1, 144
    1007:	7149           	s32i.n	a4, a1, 28
    1009:	8169           	s32i.n	a6, a1, 32
    100b:	6159           	s32i.n	a5, a1, 24
    100d:	b129           	s32i.n	a2, a1, 44
    100f:	039d           	mov.n	a9, a3
    1011:	fd248781be 	{ addi	a11, a1, 120; ae_zeroq56	aeq1 }
    1016:	631bc4        	ae_sq56s.i	aeq1, a11, -32
    1019:	fc2131        	l32r	a3, a0 (d560 <all_amt_tab>)
    101c:	0199           	s32i.n	a9, a1, 0
    101e:	a02660        	addx4	a2, a6, a6
    1021:	b02230        	addx8	a2, a2, a3
    1024:	4258           	l32i.n	a5, a2, 16
    1026:	8238           	l32i.n	a3, a2, 32
    1028:	5288           	l32i.n	a8, a2, 20
    102a:	3268           	l32i.n	a6, a2, 12
    102c:	6278           	l32i.n	a7, a2, 24
    102e:	2179           	s32i.n	a7, a1, 8
    1030:	3169           	s32i.n	a6, a1, 12
    1032:	1189           	s32i.n	a8, a1, 4
    1034:	4139           	s32i.n	a3, a1, 16
    1036:	228d           	ae_l16si.n	a8, a2, 0
    1038:	b138           	l32i.n	a3, a1, 44
    103a:	9268           	l32i.n	a6, a2, 36
    103c:	087d           	mov.n	a7, a8
    103e:	601304        	ae_lq32f.iu	aeq0, a3, 0
    1041:	630bd4        	ae_sq56s.i	aeq0, a11, -24
    1044:	fc20a0122e 	{ l16si	a2, a2, 2; ae_zerop48	aep0 }
    1049:	4018a6        	blti	a8, 1, 108d <calc_amt+0x89>
    104c:	040c           	movi.n	a4, 0
    104e:	560be4        	ae_sp24x2s.i	aep0, a11, -16

00001051 <calc_amt+0x4d>:
    1051:	fc1481        	l32r	a8, a4 (db0 <fxln>)
    1054:	78c1a2        	addi	a10, a1, 120
    1057:	61cad4        	ae_lq56.i	aeq3, a10, -24
    105a:	35f2f4        	ae_sraiq56	aeq3, aeq3, 11
    105d:	fe3c770aef 	{ ae_sp24x2s.i	aep0, a10, -16; ae_roundsq32asym	aeq2, aeq3 }
    1062:	36aa04        	ae_trunca32q48	a10, aeq2
    1065:	0008e0        	callx8	a8
    1068:	441b           	addi.n	a4, a4, 1
    106a:	301aa4        	ae_cvtp24a16x2.ll	aep1, a10, a10
    106d:	78c1f2        	addi	a15, a1, 120
    1070:	540fe4        	ae_lp24x2.i	aep0, a15, -16
    1073:	610fd4        	ae_lq56.i	aeq0, a15, -24
    1076:	cc447dafcf 	{ ae_lq56.i	aeq1, a15, -32; ae_sraip24	aep1, aep1, 8 }
    107b:	fa6a3d131f 	{ ae_lq32f.iu	aeq0, a3, 4; ae_addq56	aeq2, aeq1, aeq0 }
    1080:	fd80fa0fdf 	{ ae_sq56s.i	aeq0, a15, -24; ae_satq48s	aeq1, aeq2 }
    1085:	d8213a1fcf 	{ ae_sq56s.i	aeq1, a15, -32; ae_addsp24s	aep0, aep0, aep1 }
    108a:	c39747        	bne	a7, a4, 1051 <calc_amt+0x4d>

0000108d <calc_amt+0x89>:
    108d:	fc0681        	l32r	a8, a8 (930 <fxexp>)
    1090:	302224        	ae_cvtp24a16x2.ll	aep2, a2, a2
    1093:	ea418781ae 	{ addi	a10, a1, 120; ae_mulfp24s.ll	aeq0, aep0, aep2 }
    1098:	61cac4        	ae_lq56.i	aeq3, a10, -32
    109b:	d7eb3b020f 	{ ae_sraiq56	aeq0, aeq0, 8; ae_mulfq32sp16s.l	aeq2, aeq3, aep2 }
    10a0:	fd2447819e 	{ addi	a9, a1, 120; ae_roundsq32asym	aeq1, aeq0 }
    10a5:	355154        	ae_slliq56	aeq1, aeq1, 5
    10a8:	fc347f1aef 	{ ae_trunca32q48	a10, aeq1; ae_roundsq32asym	aeq0, aeq2 }
    10ad:	35c114        	ae_slliq56	aeq3, aeq0, 4
    10b0:	6339c4        	ae_sq56s.i	aeq3, a9, -32
    10b3:	0008e0        	callx8	a8
    10b6:	78c1b2        	addi	a11, a1, 120
    10b9:	614bc4        	ae_lq56.i	aeq1, a11, -32
    10bc:	369904        	ae_trunca32q48	a9, aeq1
    10bf:	257916        	beqz	a9, 131a <calc_amt+0x316>
    10c2:	052a97        	blt	a10, a9, 10cb <calc_amt+0xc7>
    10c5:	fbe3e1        	l32r	a14, 54 (7fff <xtensa_fft8_32b+0xef>)
    10c8:	000986        	j	10f2 <calc_amt+0xee>

000010cb <calc_amt+0xc7>:
    10cb:	364934        	ae_cvtq48a32s	aeq1, a9
    10ce:	36ca34        	ae_cvtq48a32s	aeq3, a10
    10d1:	40e980        	nsa	a8, a9
    10d4:	888d           	ae_sext16	a8, a8
    10d6:	fc24feb88f 	{ ae_slaasq56s	aeq2, aeq3, a8; nop }
    10db:	fc80cf188e 	{ addi	a8, a8, -15; ae_satq48s	aeq0, aeq2 }
    10e0:	fc24fe98cf 	{ ae_slaasq56s	aeq3, aeq1, a8; nop }
    10e5:	fe84ff0eef 	{ ae_trunca32q48	a14, aeq0; ae_satq48s	aeq2, aeq3 }
    10ea:	36af04        	ae_trunca32q48	a15, aeq2
    10ed:	d2eef0        	quos	a14, a14, a15
    10f0:	aeed           	ae_clamps16	a14, a14

000010f2 <calc_amt+0xee>:
    10f2:	fbee81        	l32r	a8, ac (d40 <fxlog10>)
    10f5:	364e34        	ae_cvtq48a32s	aeq1, a14
    10f8:	355054        	ae_slliq56	aeq1, aeq1, 1
    10fb:	060944        	ae_satq48s	aeq0, aeq1
    10fe:	368a04        	ae_trunca32q48	a10, aeq0
    1101:	0008e0        	callx8	a8
    1104:	a0caa0        	addx4	a12, a10, a10
    1107:	3aadd2        	movi	a13, 0xfffffd3a
    110a:	304dd4        	ae_cvtp24a16x2.ll	aep4, a13, a13
    110d:	11ccf0        	slli	a12, a12, 1
    1110:	360c34        	ae_cvtq48a32s	aeq0, a12
    1113:	034214        	ae_mulfq32sp16s.l	aeq0, aeq0, aep4
    1116:	78c1b2        	addi	a11, a1, 120
    1119:	36c4d4        	ae_sllisq56s	aeq3, aeq0, 19
    111c:	fe84d3955f 	{ or	a9, a5, a5; ae_satq48s	aeq2, aeq3 }
    1121:	f9f3ec890f 	{ ae_lp16f.iu	aep0, a9, 0; ae_roundsp16q48sym	aep3, aeq2 }
    1126:	563bb4        	ae_sp24x2s.i	aep3, a11, -40
    1129:	363a24        	ae_trunca16p24s.l	a10, aep3
    112c:	91a9           	s32i.n	a10, a1, 36
    112e:	0217e6        	bgei	a7, 1, 1134 <calc_amt+0x130>
    1131:	007586        	j	130b <calc_amt+0x307>
    1134:	0138           	l32i.n	a3, a1, 0
    1136:	3158           	l32i.n	a5, a1, 12
    1138:	7128           	l32i.n	a2, a1, 28
    113a:	78c182        	addi	a8, a1, 120
    113d:	fbdcb1        	l32r	a11, b0 (ccd <fxarctan2+0x201>)
    1140:	fbdda1        	l32r	a10, b4 (b00 <fxarctan2+0x34>)
    1143:	21c8           	l32i.n	a12, a1, 8
    1145:	064d           	mov.n	a4, a6
    1147:	41e8           	l32i.n	a14, a1, 16
    1149:	d1e9           	s32i.n	a14, a1, 52
    114b:	1168           	l32i.n	a6, a1, 4
    114d:	e1c9           	s32i.n	a12, a1, 56
    114f:	306ab4        	ae_cvtp24a16x2.ll	aep6, a10, a11
    1152:	5668a4        	ae_sp24x2s.i	aep6, a8, -48
    1155:	90d7c0        	addx2	a13, a7, a12
    1158:	fc2494a1df 	{ s32i.n	a13, a1, 40; ae_zeroq56	aeq0 }
    115d:	fbbd71        	l32r	a7, 54 (7fff <xtensa_fft8_32b+0xef>)
    1160:	002386        	j	11f2 <calc_amt+0x1ee>

00001163 <calc_amt+0x15f>:
    1163:	360e34        	ae_cvtq48a32s	aeq0, a14
    1166:	368f34        	ae_cvtq48a32s	aeq2, a15
    1169:	40ee90        	nsa	a9, a14
    116c:	899d           	ae_sext16	a9, a9
    116e:	fc24fea94f 	{ ae_slaasq56s	aeq1, aeq2, a9; nop }
    1173:	ff04cf199e 	{ addi	a9, a9, -15; ae_satq48s	aeq3, aeq1 }
    1178:	fc24fe898f 	{ ae_slaasq56s	aeq2, aeq0, a9; nop }
    117d:	fd80ff3eef 	{ ae_trunca32q48	a14, aeq3; ae_satq48s	aeq1, aeq2 }
    1182:	369804        	ae_trunca32q48	a8, aeq1
    1185:	d2ee80        	quos	a14, a14, a8
    1188:	aeed           	ae_clamps16	a14, a14

0000118a <calc_amt+0x186>:
    118a:	fbc681        	l32r	a8, a4 (db0 <fxln>)
    118d:	404300        	ssai	3
    1190:	31cfe0        	srai	a12, a14, 31
    1193:	be4b           	addi.n	a11, a14, 4
    1195:	62abe0        	saltu	a10, a11, a14
    1198:	aaca           	add.n	a10, a10, a12
    119a:	81aab0        	src	a10, a10, a11
    119d:	0008e0        	callx8	a8
    11a0:	fbc281        	l32r	a8, a8 (930 <fxexp>)
    11a3:	360a34        	ae_cvtq48a32s	aeq0, a10
    11a6:	350154        	ae_slliq56	aeq0, aeq0, 5
    11a9:	06c844        	ae_satq48s	aeq3, aeq0
    11ac:	36ba04        	ae_trunca32q48	a10, aeq3
    11af:	0008e0        	callx8	a8
    11b2:	5198           	l32i.n	a9, a1, 20
    11b4:	334b           	addi.n	a3, a3, 4
    11b6:	364a34        	ae_cvtq48a32s	aeq1, a10
    11b9:	fbebe002ee 	{ l16si	a14, a2, 0; ae_roundsp16q48sym	aep7, aeq1 }
    11be:	367f24        	ae_trunca16p24s.l	a15, aep7
    11c1:	78c182        	addi	a8, a1, 120
    11c4:	540894        	ae_lp24x2.i	aep0, a8, -56
    11c7:	fc2490eeff 	{ add	a14, a14, a15; ae_zeroq56	aeq0 }
    11cc:	0227e7        	blt	a7, a14, 11d2 <calc_amt+0x1ce>
    11cf:	004906        	j	12f7 <calc_amt+0x2f3>
    11d2:	fba0e1        	l32r	a14, 54 (7fff <xtensa_fft8_32b+0xef>)

000011d5 <calc_amt+0x1d1>:
    11d5:	662b           	addi.n	a6, a6, 2
    11d7:	552b           	addi.n	a5, a5, 2
    11d9:	444b           	addi.n	a4, a4, 4
    11db:	09c2e4        	ae_s16ip	a14, a2, 2
    11de:	e1a8           	l32i.n	a10, a1, 56
    11e0:	d1c8           	l32i.n	a12, a1, 52
    11e2:	a1b8           	l32i.n	a11, a1, 40
    11e4:	aa2b           	addi.n	a10, a10, 2
    11e6:	cc2b           	addi.n	a12, a12, 2
    11e8:	d1c9           	s32i.n	a12, a1, 52
    11ea:	e1a9           	s32i.n	a10, a1, 56
    11ec:	c0aab0        	sub	a10, a10, a11
    11ef:	118a16        	beqz	a10, 130b <calc_amt+0x307>

000011f2 <calc_amt+0x1ee>:
    11f2:	e188           	l32i.n	a8, a1, 56
    11f4:	b1a8           	l32i.n	a10, a1, 44
    11f6:	288d           	ae_l16si.n	a8, a8, 0
    11f8:	a088a0        	addx4	a8, a8, a10
    11fb:	26ad           	ae_l16si.n	a10, a6, 0
    11fd:	605804        	ae_lq32f.iu	aeq1, a8, 0
    1200:	07aa76        	loopgtz	a10, 120b <calc_amt+0x207>
    1203:	f403bd381f 	{ ae_lq32f.iu	aeq1, a8, 4; ae_mulafq32sp16s.h	aeq0, aeq1, aep0 }
    1208:	408914        	ae_lp16f.iu	aep0, a9, 2

0000120b <calc_amt+0x207>:
    120b:	fba881        	l32r	a8, ac (d40 <fxlog10>)
    120e:	404b00        	ssai	11
    1211:	91b8           	l32i.n	a11, a1, 36
    1213:	fb90e1        	l32r	a14, 54 (7fff <xtensa_fft8_32b+0xef>)
    1216:	78c1f2        	addi	a15, a1, 120
    1219:	5199           	s32i.n	a9, a1, 20
    121b:	78c1a2        	addi	a10, a1, 120
    121e:	d198           	l32i.n	a9, a1, 52
    1220:	560a94        	ae_sp24x2s.i	aep0, a10, -56
    1223:	fd24705fbf 	{ ae_lp24x2.i	aep5, a15, -40; ae_roundsq32asym	aeq1, aeq0 }
    1228:	369a04        	ae_trunca32q48	a10, aeq1
    122b:	299d           	ae_l16si.n	a9, a9, 0
    122d:	304ee4        	ae_cvtp24a16x2.ll	aep4, a14, a14
    1230:	31cfa0        	srai	a12, a10, 31
    1233:	d199b0        	mul16s	a9, a9, a11
    1236:	04dab2        	addmi	a11, a10, 0x400
    1239:	360934        	ae_cvtq48a32s	aeq0, a9
    123c:	ddb2fa801f 	{ ae_slliq56	aeq0, aeq0, 1; ae_subsp24s	aep3, aep4, aep5 }
    1241:	ff00f02faf 	{ ae_lp24x2.i	aep2, a15, -48; ae_satq48s	aeq3, aeq0 }
    1246:	00ba24        	ae_mulafs32p16s.lh	aeq3, aep3, aep2
    1249:	62aba0        	saltu	a10, a11, a10
    124c:	1bbe14        	ae_roundsp16q48sym	aep1, aeq3
    124f:	eb4710aacf 	{ add	a10, a10, a12; ae_mulfs32p16s.ll	aeq2, aep1, aep2 }
    1254:	81aab0        	src	a10, a10, a11
    1257:	1bae04        	ae_roundsp16q48sym	aep0, aeq2
    125a:	360924        	ae_trunca16p24s.l	a9, aep0
    125d:	c199           	s32i.n	a9, a1, 48
    125f:	0008e0        	callx8	a8
    1262:	c1e8           	l32i.n	a14, a1, 48
    1264:	0afd           	mov.n	a15, a10
    1266:	fb9481        	l32r	a8, b8 (fffe <_end+0x2872>)
    1269:	11eed0        	slli	a14, a14, 3
    126c:	0ea7e7        	bge	a7, a14, 127e <calc_amt+0x27a>
    126f:	fb79e1        	l32r	a14, 54 (7fff <xtensa_fft8_32b+0xef>)
    1272:	2528a7        	blt	a8, a10, 129b <calc_amt+0x297>
    1275:	320ae6        	bgei	a10, -1, 12ab <calc_amt+0x2a7>

00001278 <calc_amt+0x274>:
    1278:	fb7ce1        	l32r	a14, 68 (ffff8000 <_end+0xfffea874>)
    127b:	000c46        	j	12b0 <calc_amt+0x2ac>

0000127e <calc_amt+0x27a>:
    127e:	fb8691        	l32r	a9, 98 (ffff7fff <_end+0xfffea873>)
    1281:	0e29e7        	blt	a9, a14, 1293 <calc_amt+0x28f>
    1284:	fb79e1        	l32r	a14, 68 (ffff8000 <_end+0xfffea874>)
    1287:	010ad6        	bgez	a10, 129b <calc_amt+0x297>
    128a:	fb8cb1        	l32r	a11, bc (fffeffff <_end+0xfffe2873>)
    128d:	1a2ba7        	blt	a11, a10, 12ab <calc_amt+0x2a7>
    1290:	fff906        	j	1278 <calc_amt+0x274>

00001293 <calc_amt+0x28f>:
    1293:	8eed           	ae_sext16	a14, a14
    1295:	c0aae0        	sub	a10, a10, a14
    1298:	05a7a7        	bge	a7, a10, 12a1 <calc_amt+0x29d>

0000129b <calc_amt+0x297>:
    129b:	fb6ee1        	l32r	a14, 54 (7fff <xtensa_fft8_32b+0xef>)
    129e:	000386        	j	12b0 <calc_amt+0x2ac>

000012a1 <calc_amt+0x29d>:
    12a1:	fb7dc1        	l32r	a12, 98 (ffff7fff <_end+0xfffea873>)
    12a4:	f03d           	nop.n
    12a6:	f03d           	nop.n
    12a8:	ccaca7        	bge	a12, a10, 1278 <calc_amt+0x274>
    12ab:	c0efe0        	sub	a14, a15, a14
    12ae:	8eed           	ae_sext16	a14, a14

000012b0 <calc_amt+0x2ac>:
    12b0:	fb84a1        	l32r	a10, c0 (49af <real_512_ifft+0x77>)
    12b3:	fb7d81        	l32r	a8, a8 (930 <fxexp>)
    12b6:	d1aea0        	mul16s	a10, a14, a10
    12b9:	404900        	ssai	9
    12bc:	31cfa0        	srai	a12, a10, 31
    12bf:	01dab2        	addmi	a11, a10, 0x100
    12c2:	62aba0        	saltu	a10, a11, a10
    12c5:	aaca           	add.n	a10, a10, a12
    12c7:	81aab0        	src	a10, a10, a11
    12ca:	0008e0        	callx8	a8
    12cd:	406504        	ae_lp16f.i	aep6, a5, 0
    12d0:	364a34        	ae_cvtq48a32s	aeq1, a10
    12d3:	036a54        	ae_mulfq32sp16s.l	aeq1, aeq1, aep6
    12d6:	361054        	ae_sllisq56s	aeq0, aeq1, 1
    12d9:	06c844        	ae_satq48s	aeq3, aeq0
    12dc:	fe3c7004fe 	{ l32i	a15, a4, 0; ae_roundsq32asym	aeq2, aeq3 }
    12e1:	36a804        	ae_trunca32q48	a8, aeq2
    12e4:	03e8           	l32i.n	a14, a3, 0
    12e6:	53ff80        	max	a15, a15, a8
    12e9:	9e9c           	beqz.n	a14, 1306 <calc_amt+0x302>
    12eb:	02afe7        	bge	a15, a14, 12f1 <calc_amt+0x2ed>
    12ee:	ff9c46        	j	1163 <calc_amt+0x15f>
    12f1:	fb58e1        	l32r	a14, 54 (7fff <xtensa_fft8_32b+0xef>)
    12f4:	ffa486        	j	118a <calc_amt+0x186>

000012f7 <calc_amt+0x2f3>:
    12f7:	fb68a1        	l32r	a10, 98 (ffff7fff <_end+0xfffea873>)
    12fa:	02aae7        	bge	a10, a14, 1300 <calc_amt+0x2fc>
    12fd:	ffb506        	j	11d5 <calc_amt+0x1d1>
    1300:	fb5ae1        	l32r	a14, 68 (ffff8000 <_end+0xfffea874>)
    1303:	ffb386        	j	11d5 <calc_amt+0x1d1>

00001306 <calc_amt+0x302>:
    1306:	0e0c           	movi.n	a14, 0
    1308:	ff9f86        	j	118a <calc_amt+0x186>

0000130b <calc_amt+0x307>:
    130b:	71a8           	l32i.n	a10, a1, 28
    130d:	fb6d81        	l32r	a8, c4 (f70 <inv_mel_filter>)
    1310:	61b8           	l32i.n	a11, a1, 24
    1312:	0821c2        	l32i	a12, a1, 32
    1315:	0008e0        	callx8	a8
    1318:	f01d           	retw.n

0000131a <calc_amt+0x316>:
    131a:	0e0c           	movi.n	a14, 0
    131c:	ff7486        	j	10f2 <calc_amt+0xee>

0000131f <calc_amt+0x31b>:
	...

00001320 <fn_ini_fb_noise_est>:
    1320:	004136        	entry	a1, 32
    1323:	02ad           	mov.n	a10, a2
    1325:	fb6881        	l32r	a8, c8 (8808 <xt_memset>)
    1328:	0b0c           	movi.n	a11, 0
    132a:	0ea2c2        	movi	a12, 0x20e
    132d:	0008e0        	callx8	a8
    1330:	03bd           	mov.n	a11, a3
    1332:	fb3481        	l32r	a8, 4 (8820 <xt_memcpy>)
    1335:	02ad           	mov.n	a10, a2
    1337:	cc0c           	movi.n	a12, 12
    1339:	0008e0        	callx8	a8
    133c:	18c282        	addi	a8, a2, 24
    133f:	00a192        	movi	a9, 0x100
    1342:	01a1a2        	movi	a10, 0x101
    1345:	028a76        	loop	a10, 134b <fn_ini_fb_noise_est+0x2b>
    1348:	09e894        	ae_s32ip	a9, a8, 4

0000134b <fn_ini_fb_noise_est+0x2b>:
    134b:	f01d           	retw.n

0000134d <fn_ini_fb_noise_est+0x2d>:
    134d:	000000                                        ...

00001350 <fn_fb_noise_est>:
    1350:	004136        	entry	a1, 32
    1353:	509304        	ae_lp24f.iu	aep1, a3, 0
    1356:	027d           	mov.n	a7, a2
    1358:	18c282        	addi	a8, a2, 24
    135b:	082d           	mov.n	a2, a8
    135d:	508204        	ae_lp24f.iu	aep0, a2, 0
    1360:	076416        	beqz	a4, 13da <fn_fb_noise_est+0x8a>
    1363:	2738           	l32i.n	a3, a7, 8
    1365:	213830        	srai	a3, a3, 8
    1368:	399334        	ae_movpa24x2	aep1, a3, a3
    136b:	81a032        	movi	a3, 129
    136e:	0b8376        	loop	a3, 137d <fn_fb_noise_est+0x2d>
    1371:	010144        	ae_mulfp24s.hh	aeq0, aep0, aep1
    1374:	1b8d04        	ae_roundsp24q48asym	aep0, aeq0
    1377:	528204        	ae_sp24f.l.iu	aep0, a2, 0
    137a:	508214        	ae_lp24f.iu	aep0, a2, 4

0000137d <fn_fb_noise_est+0x2d>:
    137d:	032762        	l32i	a6, a7, 12
    1380:	80a032        	movi	a3, 128
    1383:	216860        	srai	a6, a6, 8
    1386:	399664        	ae_movpa24x2	aep1, a6, a6
    1389:	0b8376        	loop	a3, 1398 <fn_fb_noise_est+0x48>
    138c:	010144        	ae_mulfp24s.hh	aeq0, aep0, aep1
    138f:	1b8d04        	ae_roundsp24q48asym	aep0, aeq0
    1392:	528204        	ae_sp24f.l.iu	aep0, a2, 0
    1395:	508214        	ae_lp24f.iu	aep0, a2, 4

00001398 <fn_fb_noise_est+0x48>:
    1398:	fcc522        	addi	a2, a5, -4
    139b:	4798           	l32i.n	a9, a7, 16
    139d:	508804        	ae_lp24f.iu	aep0, a8, 0
    13a0:	80a042        	movi	a4, 128
    13a3:	219890        	srai	a9, a9, 8
    13a6:	39a994        	ae_movpa24x2	aep2, a9, a9
    13a9:	0e8476        	loop	a4, 13bb <fn_fb_noise_est+0x6b>
    13ac:	010274        	ae_mulfp24s.ll	aeq0, aep0, aep2
    13af:	1b8d14        	ae_roundsp24q48asym	aep1, aeq0
    13b2:	079014        	ae_addsp24s	aep1, aep1, aep0
    13b5:	529214        	ae_sp24f.l.iu	aep1, a2, 4
    13b8:	508814        	ae_lp24f.iu	aep0, a8, 4

000013bb <fn_fb_noise_est+0x6b>:
    13bb:	57a8           	l32i.n	a10, a7, 20
    13bd:	81a042        	movi	a4, 129
    13c0:	21a8a0        	srai	a10, a10, 8
    13c3:	39aaa4        	ae_movpa24x2	aep2, a10, a10
    13c6:	0e8476        	loop	a4, 13d8 <fn_fb_noise_est+0x88>
    13c9:	010274        	ae_mulfp24s.ll	aeq0, aep0, aep2
    13cc:	1b8d14        	ae_roundsp24q48asym	aep1, aeq0
    13cf:	079014        	ae_addsp24s	aep1, aep1, aep0
    13d2:	529214        	ae_sp24f.l.iu	aep1, a2, 4
    13d5:	508814        	ae_lp24f.iu	aep0, a8, 4
    13d8:	f01d           	retw.n

000013da <fn_fb_noise_est+0x8a>:
    13da:	17d8           	l32i.n	a13, a7, 4
    13dc:	07c8           	l32i.n	a12, a7, 0
    13de:	0020f0        	nop
    13e1:	21d8d0        	srai	a13, a13, 8
    13e4:	21c8c0        	srai	a12, a12, 8
    13e7:	39acd4        	ae_movpa24x2	aep2, a12, a13
    13ea:	010244        	ae_mulfp24s.hh	aeq0, aep0, aep2
    13ed:	011234        	ae_mulafp24s.ll	aeq0, aep1, aep2
    13f0:	f967c1004f 	{ movi	a4, 0x100; ae_roundsp24q48asym	aep3, aeq0 }
    13f5:	52b204        	ae_sp24f.l.iu	aep3, a2, 0
    13f8:	f86aee821f 	{ ae_lp24f.iu	aep0, a2, 4; ae_movp48	aep1, aep2 }
    13fd:	108476        	loop	a4, 1411 <fn_fb_noise_est+0xc1>
    1400:	e820ae831f 	{ ae_lp24f.iu	aep0, a3, 4; ae_mulfp24s.hh	aeq0, aep0, aep1 }
    1405:	010134        	ae_mulafp24s.ll	aeq0, aep0, aep1
    1408:	1b8d04        	ae_roundsp24q48asym	aep0, aeq0
    140b:	528204        	ae_sp24f.l.iu	aep0, a2, 0
    140e:	508214        	ae_lp24f.iu	aep0, a2, 4

00001411 <fn_fb_noise_est+0xc1>:
    1411:	ffe0c6        	j	1398 <fn_fb_noise_est+0x48>

00001414 <fn_ini_st_noise_est>:
    1414:	004136        	entry	a1, 32
    1417:	02ad           	mov.n	a10, a2
    1419:	fb2b81        	l32r	a8, c8 (8808 <xt_memset>)
    141c:	00a0b2        	movi	a11, 0
    141f:	5ea3c2        	movi	a12, 0x35e
    1422:	0008e0        	callx8	a8
    1425:	0a0c           	movi.n	a10, 0
    1427:	98a4d2        	movi	a13, 0x498
    142a:	fb2891        	l32r	a9, cc (ffffb800 <_end+0xfffee074>)
    142d:	9c0c           	movi.n	a12, 9
    142f:	06d2b2        	addmi	a11, a2, 0x600
    1432:	6ccbb2        	addi	a11, a11, 108
    1435:	2eac76        	loopgtz	a12, 1467 <fn_ini_st_noise_est+0x53>
    1438:	ca2a           	add.n	a12, a10, a2
    143a:	0b99           	s32i.n	a9, a11, 0
    143c:	30caa2        	addi	a10, a10, 48
    143f:	bb4b           	addi.n	a11, a11, 4
    1441:	ccda           	add.n	a12, a12, a13
    1443:	09ec94        	ae_s32ip	a9, a12, 4
    1446:	09ec94        	ae_s32ip	a9, a12, 4
    1449:	09ec94        	ae_s32ip	a9, a12, 4
    144c:	09ec94        	ae_s32ip	a9, a12, 4
    144f:	09ec94        	ae_s32ip	a9, a12, 4
    1452:	09ec94        	ae_s32ip	a9, a12, 4
    1455:	09ec94        	ae_s32ip	a9, a12, 4
    1458:	09ec94        	ae_s32ip	a9, a12, 4
    145b:	09ec94        	ae_s32ip	a9, a12, 4
    145e:	09ec94        	ae_s32ip	a9, a12, 4
    1461:	09ec94        	ae_s32ip	a9, a12, 4
    1464:	09ec94        	ae_s32ip	a9, a12, 4

00001467 <fn_ini_st_noise_est+0x53>:
    1467:	03bd           	mov.n	a11, a3
    1469:	fae681        	l32r	a8, 4 (8820 <xt_memcpy>)
    146c:	02ad           	mov.n	a10, a2
    146e:	14a0c2        	movi	a12, 20
    1471:	0008e0        	callx8	a8
    1474:	28c282        	addi	a8, a2, 40
    1477:	00a192        	movi	a9, 0x100
    147a:	eda0a2        	movi	a10, 237
    147d:	028a76        	loop	a10, 1483 <fn_ini_st_noise_est+0x6f>
    1480:	09e894        	ae_s32ip	a9, a8, 4
    1483:	f01d           	retw.n

00001485 <fn_ini_st_noise_est+0x71>:
    1485:	000000                                        ...

00001488 <fn_st_noise_est>:
    1488:	00e136        	entry	a1, 112
    148b:	d139           	s32i.n	a3, a1, 52
    148d:	faee71        	l32r	a7, 48 (8000 <xtensa_fft8_32b+0xf0>)
    1490:	0b0c           	movi.n	a11, 0
    1492:	03d282        	addmi	a8, a2, 0x300
    1495:	a149           	s32i.n	a4, a1, 40
    1497:	04a0d2        	movi	a13, 4
    149a:	fb0d41        	l32r	a4, d0 (d5b0 <sb_ptn>)
    149d:	39bdd4        	ae_movpa24x2	aep3, a13, a13
    14a0:	0b6182        	s32i	a8, a1, 44
    14a3:	0c61b2        	s32i	a11, a1, 48
    14a6:	206880        	or	a6, a8, a8
    14a9:	00a0b2        	movi	a11, 0
    14ac:	fd2082488e 	{ addi	a8, a8, 36; ae_zerop48	aep2 }
    14b1:	106182        	s32i	a8, a1, 64

000014b4 <fn_st_noise_est+0x2c>:
    14b4:	24ad           	ae_l16si.n	a10, a4, 0
    14b6:	349d           	ae_l16si.n	a9, a4, 2
    14b8:	d188           	l32i.n	a8, a1, 52
    14ba:	01b9           	s32i.n	a11, a1, 0
    14bc:	c099a0        	sub	a9, a9, a10
    14bf:	a08a80        	addx4	a8, a10, a8
    14c2:	508804        	ae_lp24f.iu	aep0, a8, 0
    14c5:	0aa976        	loopgtz	a9, 14d3 <fn_st_noise_est+0x4b>
    14c8:	d8616e881f 	{ ae_lp24f.iu	aep0, a8, 4; ae_addsp24s	aep1, aep0, aep3 }
    14cd:	0f1194        	ae_sraip24	aep1, aep1, 3
    14d0:	07a124        	ae_addsp24s	aep2, aep2, aep1

000014d3 <fn_st_noise_est+0x4b>:
    14d3:	522104        	ae_sp24f.l.i	aep2, a1, 0
    14d6:	0021a2        	l32i	a10, a1, 0
    14d9:	faf481        	l32r	a8, ac (d40 <fxlog10>)
    14dc:	0020f0        	nop
    14df:	21a8a0        	srai	a10, a10, 8
    14e2:	0008e0        	callx8	a8
    14e5:	fafbc1        	l32r	a12, d4 (6a4d <fill_vad_thrd_Nbands+0x2d>)
    14e8:	f03d           	nop.n
    14ea:	f03d           	nop.n
    14ec:	d1cac0        	mul16s	a12, a10, a12
    14ef:	5d2692        	l32i	a9, a6, 0x174
    14f2:	90cc70        	addx2	a12, a12, a7
    14f5:	31c0c0        	srai	a12, a12, 16
    14f8:	11ac00        	slli	a10, a12, 16
    14fb:	4b66c2        	s32i	a12, a6, 0x12c
    14fe:	228d           	ae_l16si.n	a8, a2, 0
    1500:	323d           	ae_l16si.n	a3, a2, 2
    1502:	31b0c0        	srai	a11, a12, 16
    1505:	7299c0        	salt	a9, a9, a12
    1508:	933890        	movnez	a3, a8, a9
    150b:	833d           	ae_sext16	a3, a3
    150d:	ff92e5        	call8	e3c <_saturate32>
    1510:	4b26e2        	l32i	a14, a6, 0x12c
    1513:	5d26d2        	l32i	a13, a6, 0x174
    1516:	205aa0        	or	a5, a10, a10
    1519:	f03d           	nop.n
    151b:	c0ade0        	sub	a10, a13, a14
    151e:	ff9025        	call8	e20 <_saturate16>
    1521:	d1d3a0        	mul16s	a13, a3, a10
    1524:	31cf50        	srai	a12, a5, 31
    1527:	90ad50        	addx2	a10, a13, a5
    152a:	62ba50        	saltu	a11, a10, a5
    152d:	11ddf0        	slli	a13, a13, 1
    1530:	31dfd0        	srai	a13, a13, 31
    1533:	80ccd0        	add	a12, a12, a13
    1536:	80bbc0        	add	a11, a11, a12
    1539:	ff9025        	call8	e3c <_saturate32>
    153c:	5426c2        	l32i	a12, a6, 0x150
    153f:	4b2692        	l32i	a9, a6, 0x12c
    1542:	80da70        	add	a13, a10, a7
    1545:	31d0d0        	srai	a13, a13, 16
    1548:	5d66d2        	s32i	a13, a6, 0x174
    154b:	029282        	l16si	a8, a2, 4
    154e:	039232        	l16si	a3, a2, 6
    1551:	31b090        	srai	a11, a9, 16
    1554:	11a900        	slli	a10, a9, 16
    1557:	7299c0        	salt	a9, a9, a12
    155a:	933890        	movnez	a3, a8, a9
    155d:	833d           	ae_sext16	a3, a3
    155f:	ff8de5        	call8	e3c <_saturate32>
    1562:	4b26f2        	l32i	a15, a6, 0x12c
    1565:	5426e2        	l32i	a14, a6, 0x150
    1568:	0a5d           	mov.n	a5, a10
    156a:	c0aef0        	sub	a10, a14, a15
    156d:	ff8b25        	call8	e20 <_saturate16>
    1570:	d1d3a0        	mul16s	a13, a3, a10
    1573:	31cf50        	srai	a12, a5, 31
    1576:	90ad50        	addx2	a10, a13, a5
    1579:	62ba50        	saltu	a11, a10, a5
    157c:	11ddf0        	slli	a13, a13, 1
    157f:	31dfd0        	srai	a13, a13, 31
    1582:	ccda           	add.n	a12, a12, a13
    1584:	bbca           	add.n	a11, a11, a12
    1586:	ff8b65        	call8	e3c <_saturate32>
    1589:	ba7a           	add.n	a11, a10, a7
    158b:	5d26a2        	l32i	a10, a6, 0x174
    158e:	31b0b0        	srai	a11, a11, 16
    1591:	5466b2        	s32i	a11, a6, 0x150
    1594:	c0aab0        	sub	a10, a10, a11
    1597:	ff88a5        	call8	e20 <_saturate16>
    159a:	0492c2        	l16si	a12, a2, 8
    159d:	0baca7        	bge	a12, a10, 15ac <fn_st_noise_est+0x124>
    15a0:	c1b8           	l32i.n	a11, a1, 48
    15a2:	0592a2        	l16si	a10, a2, 10
    15a5:	aaba           	add.n	a10, a10, a11
    15a7:	ff87a5        	call8	e20 <_saturate16>
    15aa:	c1a9           	s32i.n	a10, a1, 48

000015ac <fn_st_noise_est+0x124>:
    15ac:	442b           	addi.n	a4, a4, 2
    15ae:	0b0c           	movi.n	a11, 0
    15b0:	664b           	addi.n	a6, a6, 4
    15b2:	1021c2        	l32i	a12, a1, 64
    15b5:	4d0c           	movi.n	a13, 4
    15b7:	39bdd4        	ae_movpa24x2	aep3, a13, a13
    15ba:	fd2095c6cf 	{ sub	a12, a6, a12; ae_zerop48	aep2 }
    15bf:	ef1c56        	bnez	a12, 14b4 <fn_st_noise_est+0x2c>
    15c2:	069242        	l16si	a4, a2, 12
    15c5:	c188           	l32i.n	a8, a1, 48
    15c7:	079232        	l16si	a3, a2, 14
    15ca:	060c           	movi.n	a6, 0
    15cc:	726680        	salt	a6, a6, a8
    15cf:	933460        	movnez	a3, a4, a6
    15d2:	833d           	ae_sext16	a3, a3
    15d4:	b168           	l32i.n	a6, a1, 44
    15d6:	940c           	movi.n	a4, 9
    15d8:	000346        	j	15e9 <fn_st_noise_est+0x161>

000015db <fn_st_noise_est+0x153>:
    15db:	fabfb1        	l32r	a11, d8 (ffff8400 <_end+0xfffeac74>)

000015de <fn_st_noise_est+0x156>:
    15de:	d266b2        	s32i	a11, a6, 0x348
    15e1:	440b           	addi.n	a4, a4, -1
    15e3:	04c662        	addi	a6, a6, 4
    15e6:	077416        	beqz	a4, 1661 <fn_st_noise_est+0x1d9>

000015e9 <fn_st_noise_est+0x161>:
    15e9:	4b26a2        	l32i	a10, a6, 0x12c
    15ec:	404010        	ssai	16
    15ef:	f03d           	nop.n
    15f1:	31bfa0        	srai	a11, a10, 31
    15f4:	81bba0        	src	a11, a11, a10
    15f7:	11aa00        	slli	a10, a10, 16
    15fa:	ff8425        	call8	e3c <_saturate32>
    15fd:	4b26d2        	l32i	a13, a6, 0x12c
    1600:	d226c2        	l32i	a12, a6, 0x348
    1603:	0a5d           	mov.n	a5, a10
    1605:	c0acd0        	sub	a10, a12, a13
    1608:	ff8165        	call8	e20 <_saturate16>
    160b:	4159           	s32i.n	a5, a1, 16
    160d:	d1a3a0        	mul16s	a10, a3, a10
    1610:	31cf50        	srai	a12, a5, 31
    1613:	e1c9           	s32i.n	a12, a1, 56
    1615:	11daf0        	slli	a13, a10, 1
    1618:	90aa50        	addx2	a10, a10, a5
    161b:	31dfd0        	srai	a13, a13, 31
    161e:	ccda           	add.n	a12, a12, a13
    1620:	62ba50        	saltu	a11, a10, a5
    1623:	bbca           	add.n	a11, a11, a12
    1625:	ff8165        	call8	e3c <_saturate32>
    1628:	faac81        	l32r	a8, d8 (ffff8400 <_end+0xfffeac74>)
    162b:	ba7a           	add.n	a11, a10, a7
    162d:	31b0b0        	srai	a11, a11, 16
    1630:	a72b87        	blt	a11, a8, 15db <fn_st_noise_est+0x153>
    1633:	4b26b2        	l32i	a11, a6, 0x12c
    1636:	d226a2        	l32i	a10, a6, 0x348
    1639:	4158           	l32i.n	a5, a1, 16
    163b:	c0aab0        	sub	a10, a10, a11
    163e:	ff7e25        	call8	e20 <_saturate16>
    1641:	d1d3a0        	mul16s	a13, a3, a10
    1644:	e1c8           	l32i.n	a12, a1, 56
    1646:	90ad50        	addx2	a10, a13, a5
    1649:	62ba50        	saltu	a11, a10, a5
    164c:	11ddf0        	slli	a13, a13, 1
    164f:	31dfd0        	srai	a13, a13, 31
    1652:	ccda           	add.n	a12, a12, a13
    1654:	bbca           	add.n	a11, a11, a12
    1656:	ff7e65        	call8	e3c <_saturate32>
    1659:	ba7a           	add.n	a11, a10, a7
    165b:	31b0b0        	srai	a11, a11, 16
    165e:	ffdf06        	j	15de <fn_st_noise_est+0x156>

00001661 <fn_st_noise_est+0x1d9>:
    1661:	06d2b2        	addmi	a11, a2, 0x600
    1664:	5a9b82        	l16si	a8, a11, 180
    1667:	b8cb92        	addi	a9, a11, -72
    166a:	f199           	s32i.n	a9, a1, 60
    166c:	881b           	addi.n	a8, a8, 1
    166e:	888d           	ae_sext16	a8, a8
    1670:	5a5b82        	s16i	a8, a11, 180
    1673:	06a8a6        	blti	a8, 12, 167d <fn_st_noise_est+0x1f5>
    1676:	080c           	movi.n	a8, 0
    1678:	0a0c           	movi.n	a10, 0
    167a:	5a5ba2        	s16i	a10, a11, 180

0000167d <fn_st_noise_est+0x1f5>:
    167d:	180816        	beqz	a8, 1801 <fn_st_noise_est+0x379>
    1680:	090c           	movi.n	a9, 0
    1682:	f1e8           	l32i.n	a14, a1, 60
    1684:	9ca2f2        	movi	a15, 0x29c
    1687:	0b21a2        	l32i	a10, a1, 44
    168a:	09a082        	movi	a8, 9
    168d:	198876        	loop	a8, 16aa <fn_st_noise_est+0x222>
    1690:	7f9e82        	l16si	a8, a14, 254
    1693:	d22ab2        	l32i	a11, a10, 0x348
    1696:	aa4b           	addi.n	a10, a10, 4
    1698:	889a           	add.n	a8, a8, a9
    169a:	a08820        	addx4	a8, a8, a2
    169d:	88fa           	add.n	a8, a8, a15
    169f:	7f28c2        	l32i	a12, a8, 0x1fc
    16a2:	99cb           	addi.n	a9, a9, 12
    16a4:	43bcb0        	min	a11, a12, a11
    16a7:	7f68b2        	s32i	a11, a8, 0x1fc

000016aa <fn_st_noise_est+0x222>:
    16aa:	b168           	l32i.n	a6, a1, 44
    16ac:	040c           	movi.n	a4, 0

000016ae <fn_st_noise_est+0x226>:
    16ae:	db26b2        	l32i	a11, a6, 0x36c
    16b1:	d226a2        	l32i	a10, a6, 0x348
    16b4:	c0aab0        	sub	a10, a10, a11
    16b7:	ff76a5        	call8	e20 <_saturate16>
    16ba:	fa88b1        	l32r	a11, dc (e39 <_saturate16+0x19>)
    16bd:	d1aab0        	mul16s	a10, a10, a11
    16c0:	90aa70        	addx2	a10, a10, a7
    16c3:	31a0a0        	srai	a10, a10, 16
    16c6:	a4aa           	add.n	a10, a4, a10
    16c8:	ff7565        	call8	e20 <_saturate16>
    16cb:	1021c2        	l32i	a12, a1, 64
    16ce:	0a4d           	mov.n	a4, a10
    16d0:	664b           	addi.n	a6, a6, 4
    16d2:	d896c7        	bne	a6, a12, 16ae <fn_st_noise_est+0x226>
    16d5:	b168           	l32i.n	a6, a1, 44
    16d7:	fa8331        	l32r	a3, e4 (d5d0 <score_bands>)
    16da:	fa8171        	l32r	a7, e0 (d5f0 <vad_thrd_bands>)
    16dd:	f1e8           	l32i.n	a14, a1, 60
    16df:	0d0c           	movi.n	a13, 0
    16e1:	099792        	l16si	a9, a7, 18
    16e4:	080c           	movi.n	a8, 0
    16e6:	fa5bf1        	l32r	a15, 54 (7fff <xtensa_fft8_32b+0xef>)
    16e9:	c09a90        	sub	a9, a10, a9
    16ec:	728890        	salt	a8, a8, a9
    16ef:	93df80        	movnez	a13, a15, a8
    16f2:	805ed2        	s16i	a13, a14, 0x100

000016f5 <fn_st_noise_est+0x26d>:
    16f5:	db26b2        	l32i	a11, a6, 0x36c
    16f8:	d226a2        	l32i	a10, a6, 0x348
    16fb:	c0aab0        	sub	a10, a10, a11
    16fe:	ff7225        	call8	e20 <_saturate16>
    1701:	27cd           	ae_l16si.n	a12, a7, 0
    1703:	c0aac0        	sub	a10, a10, a12
    1706:	ff71a5        	call8	e20 <_saturate16>
    1709:	e466a2        	s32i	a10, a6, 0x390
    170c:	101aa6        	blti	a10, 1, 1720 <fn_st_noise_est+0x298>
    170f:	f1b8           	l32i.n	a11, a1, 60
    1711:	23ad           	ae_l16si.n	a10, a3, 0
    1713:	809bb2        	l16si	a11, a11, 0x100
    1716:	aaba           	add.n	a10, a10, a11
    1718:	ff7065        	call8	e20 <_saturate16>
    171b:	f1c8           	l32i.n	a12, a1, 60
    171d:	805ca2        	s16i	a10, a12, 0x100

00001720 <fn_st_noise_est+0x298>:
    1720:	332b           	addi.n	a3, a3, 2
    1722:	1021d2        	l32i	a13, a1, 64
    1725:	772b           	addi.n	a7, a7, 2
    1727:	664b           	addi.n	a6, a6, 4
    1729:	c896d7        	bne	a6, a13, 16f5 <fn_st_noise_est+0x26d>
    172c:	f188           	l32i.n	a8, a1, 60
    172e:	0892e2        	l16si	a14, a2, 16
    1731:	809882        	l16si	a8, a8, 0x100
    1734:	0228e7        	blt	a8, a14, 173a <fn_st_noise_est+0x2b2>
    1737:	002246        	j	17c4 <fn_st_noise_est+0x33c>
    173a:	0a9292        	l16si	a9, a2, 20
    173d:	042987        	blt	a9, a8, 1745 <fn_st_noise_est+0x2bd>
    1740:	62b8           	l32i.n	a11, a2, 24
    1742:	000306        	j	1752 <fn_st_noise_est+0x2ca>

00001745 <fn_st_noise_est+0x2bd>:
    1745:	72a8           	l32i.n	a10, a2, 28
    1747:	0992c2        	l16si	a12, a2, 18
    174a:	82b8           	l32i.n	a11, a2, 32
    174c:	72cc80        	salt	a12, a12, a8
    174f:	83bac0        	moveqz	a11, a10, a12

00001752 <fn_st_noise_est+0x2ca>:
    1752:	b168           	l32i.n	a6, a1, 44
    1754:	fa5f41        	l32r	a4, d0 (d5b0 <sb_ptn>)
    1757:	21f8b0        	srai	a15, a11, 8
    175a:	00af72        	movi	a7, 0xffffff00

0000175d <fn_st_noise_est+0x2d5>:
    175d:	e426d2        	l32i	a13, a6, 0x390
    1760:	1021c2        	l32i	a12, a1, 64
    1763:	664b           	addi.n	a6, a6, 4
    1765:	561de6        	bgei	a13, 1, 17bf <fn_st_noise_est+0x337>
    1768:	24ed           	ae_l16si.n	a14, a4, 0
    176a:	34dd           	ae_l16si.n	a13, a4, 2
    176c:	d198           	l32i.n	a9, a1, 52
    176e:	a0ae20        	addx4	a10, a14, a2
    1771:	24ca82        	addi	a8, a10, 36
    1774:	a09e90        	addx4	a9, a14, a9
    1777:	605904        	ae_lq32f.iu	aeq1, a9, 0
    177a:	28caa2        	addi	a10, a10, 40
    177d:	601a04        	ae_lq32f.iu	aeq0, a10, 0
    1780:	3baed7        	bge	a14, a13, 17bf <fn_st_noise_est+0x337>
    1783:	36c734        	ae_cvtq48a32s	aeq3, a7
    1786:	01b1e4        	ae_andq56	aeq2, aeq1, aeq3
    1789:	010ec4        	ae_subq56	aeq0, aeq0, aeq2
    178c:	f942621fff 	{ ae_movpa24x2	aep1, a15, a15; ae_truncp24q48x2	aep3, aeq0, aeq0 }
    1791:	013934        	ae_mulafp24s.ll	aeq1, aep3, aep1
    1794:	c0bde0        	sub	a11, a13, a14
    1797:	f96f8ffbbe 	{ addi	a11, a11, -1; ae_roundsp24q48asym	aep2, aeq1 }
    179c:	52a814        	ae_sp24f.l.iu	aep2, a8, 4
    179f:	601914        	ae_lq32f.iu	aeq0, a9, 4
    17a2:	0020f0        	nop
    17a5:	16ab76        	loopgtz	a11, 17bf <fn_st_noise_est+0x337>
    17a8:	f95b3d5a1f 	{ ae_lq32f.iu	aeq2, a10, 4; ae_andq56	aeq1, aeq0, aeq3 }
    17ad:	016dc4        	ae_subq56	aeq1, aeq2, aeq1
    17b0:	099d04        	ae_truncp24q48x2	aep0, aeq1, aeq1
    17b3:	010134        	ae_mulafp24s.ll	aeq0, aep0, aep1
    17b6:	1b8d04        	ae_roundsp24q48asym	aep0, aeq0
    17b9:	528814        	ae_sp24f.l.iu	aep0, a8, 4
    17bc:	601914        	ae_lq32f.iu	aeq0, a9, 4
    17bf:	442b           	addi.n	a4, a4, 2
    17c1:	9896c7        	bne	a6, a12, 175d <fn_st_noise_est+0x2d5>

000017c4 <fn_st_noise_est+0x33c>:
    17c4:	9298           	l32i.n	a9, a2, 36
    17c6:	a188           	l32i.n	a8, a1, 40
    17c8:	eda0a2        	movi	a10, 237
    17cb:	219890        	srai	a9, a9, 8
    17ce:	fcc882        	addi	a8, a8, -4
    17d1:	39a994        	ae_movpa24x2	aep2, a9, a9
    17d4:	28c292        	addi	a9, a2, 40
    17d7:	508904        	ae_lp24f.iu	aep0, a9, 0
    17da:	0e8a76        	loop	a10, 17ec <fn_st_noise_est+0x364>
    17dd:	010274        	ae_mulfp24s.ll	aeq0, aep0, aep2
    17e0:	1b8d14        	ae_roundsp24q48asym	aep1, aeq0
    17e3:	079014        	ae_addsp24s	aep1, aep1, aep0
    17e6:	529814        	ae_sp24f.l.iu	aep1, a8, 4
    17e9:	508914        	ae_lp24f.iu	aep0, a9, 4

000017ec <fn_st_noise_est+0x364>:
    17ec:	a188           	l32i.n	a8, a1, 40
    17ee:	090c           	movi.n	a9, 0
    17f0:	14a0a2        	movi	a10, 20
    17f3:	04d882        	addmi	a8, a8, 0x400
    17f6:	b4c882        	addi	a8, a8, -76
    17f9:	028a76        	loop	a10, 17ff <fn_st_noise_est+0x377>
    17fc:	09e894        	ae_s32ip	a9, a8, 4
    17ff:	f01d           	retw.n

00001801 <fn_st_noise_est+0x379>:
    1801:	f1a8           	l32i.n	a10, a1, 60
    1803:	7f9a92        	l16si	a9, a10, 254
    1806:	991b           	addi.n	a9, a9, 1
    1808:	899d           	ae_sext16	a9, a9
    180a:	7f5a92        	s16i	a9, a10, 254
    180d:	07a9a6        	blti	a9, 12, 1818 <fn_st_noise_est+0x390>
    1810:	f1b8           	l32i.n	a11, a1, 60
    1812:	00a0a2        	movi	a10, 0
    1815:	7f5ba2        	s16i	a10, a11, 254

00001818 <fn_st_noise_est+0x390>:
    1818:	b168           	l32i.n	a6, a1, 44
    181a:	03d2d2        	addmi	a13, a2, 0x300
    181d:	9c0c           	movi.n	a12, 9
    181f:	e1ab           	addi.n	a14, a1, 10
    1821:	0f0c           	movi.n	a15, 0
    1823:	61f9           	s32i.n	a15, a1, 24
    1825:	91e9           	s32i.n	a14, a1, 36
    1827:	71c9           	s32i.n	a12, a1, 28
    1829:	9ccdd2        	addi	a13, a13, -100
    182c:	51d9           	s32i.n	a13, a1, 20
    182e:	002246        	j	18bb <fn_st_noise_est+0x433>

00001831 <fn_st_noise_est+0x3a9>:
    1831:	0591a2        	l16si	a10, a1, 10
    1834:	0491b2        	l16si	a11, a1, 8
    1837:	31dfa0        	srai	a13, a10, 31
    183a:	31cfb0        	srai	a12, a11, 31
    183d:	80aba0        	add	a10, a11, a10
    1840:	80ccd0        	add	a12, a12, a13
    1843:	62bab0        	saltu	a11, a10, a11
    1846:	80bbc0        	add	a11, a11, a12
    1849:	ff5f25        	call8	e3c <_saturate32>
    184c:	0691b2        	l16si	a11, a1, 12
    184f:	31dfa0        	srai	a13, a10, 31
    1852:	31cfb0        	srai	a12, a11, 31
    1855:	ccda           	add.n	a12, a12, a13
    1857:	abaa           	add.n	a10, a11, a10
    1859:	62bab0        	saltu	a11, a10, a11
    185c:	bbca           	add.n	a11, a11, a12
    185e:	ff5de5        	call8	e3c <_saturate32>
    1861:	0791b2        	l16si	a11, a1, 14
    1864:	31dfa0        	srai	a13, a10, 31
    1867:	31cfb0        	srai	a12, a11, 31
    186a:	ccda           	add.n	a12, a12, a13
    186c:	abaa           	add.n	a10, a11, a10
    186e:	62bab0        	saltu	a11, a10, a11
    1871:	bbca           	add.n	a11, a11, a12
    1873:	ff5ca5        	call8	e3c <_saturate32>
    1876:	5158           	l32i.n	a5, a1, 20
    1878:	6138           	l32i.n	a3, a1, 24
    187a:	7148           	l32i.n	a4, a1, 28
    187c:	404200        	ssai	2
    187f:	31cfa0        	srai	a12, a10, 31
    1882:	ba2b           	addi.n	a11, a10, 2
    1884:	62aba0        	saltu	a10, a11, a10
    1887:	80aac0        	add	a10, a10, a12
    188a:	81aab0        	src	a10, a10, a11
    188d:	ff5925        	call8	e20 <_saturate16>
    1890:	d226d2        	l32i	a13, a6, 0x348
    1893:	440b           	addi.n	a4, a4, -1
    1895:	db66a2        	s32i	a10, a6, 0x36c
    1898:	f1e8           	l32i.n	a14, a1, 60
    189a:	30c552        	addi	a5, a5, 48
    189d:	5159           	s32i.n	a5, a1, 20
    189f:	7f9ee2        	l16si	a14, a14, 254
    18a2:	7149           	s32i.n	a4, a1, 28
    18a4:	664b           	addi.n	a6, a6, 4
    18a6:	ee3a           	add.n	a14, a14, a3
    18a8:	a0ee20        	addx4	a14, a14, a2
    18ab:	8138           	l32i.n	a3, a1, 32
    18ad:	6139           	s32i.n	a3, a1, 24
    18af:	03dee2        	addmi	a14, a14, 0x300
    18b2:	9ccee2        	addi	a14, a14, -100
    18b5:	7f6ed2        	s32i	a13, a14, 0x1fc
    18b8:	dee416        	beqz	a4, 16aa <fn_st_noise_est+0x222>

000018bb <fn_st_noise_est+0x433>:
    18bb:	5148           	l32i.n	a4, a1, 20
    18bd:	f9e581        	l32r	a8, 54 (7fff <xtensa_fft8_32b+0xef>)
    18c0:	065182        	s16i	a8, a1, 12
    18c3:	7f2442        	l32i	a4, a4, 0x1fc
    18c6:	075142        	s16i	a4, a1, 14
    18c9:	6148           	l32i.n	a4, a1, 24
    18cb:	055182        	s16i	a8, a1, 10
    18ce:	045182        	s16i	a8, a1, 8
    18d1:	341b           	addi.n	a3, a4, 1
    18d3:	a03320        	addx4	a3, a3, a2
    18d6:	44cb           	addi.n	a4, a4, 12
    18d8:	8149           	s32i.n	a4, a1, 32
    18da:	03d332        	addmi	a3, a3, 0x300
    18dd:	9cc332        	addi	a3, a3, -100
    18e0:	a04420        	addx4	a4, a4, a2
    18e3:	03d442        	addmi	a4, a4, 0x300
    18e6:	9cc442        	addi	a4, a4, -100

000018e9 <fn_st_noise_est+0x461>:
    18e9:	079192        	l16si	a9, a1, 14
    18ec:	7f2382        	l32i	a8, a3, 0x1fc
    18ef:	0691a2        	l16si	a10, a1, 12
    18f2:	142897        	blt	a8, a9, 190a <fn_st_noise_est+0x482>
    18f5:	2828a7        	blt	a8, a10, 1921 <fn_st_noise_est+0x499>
    18f8:	0591d2        	l16si	a13, a1, 10
    18fb:	0491a2        	l16si	a10, a1, 8
    18fe:	34a8d7        	bge	a8, a13, 1936 <fn_st_noise_est+0x4ae>
    1901:	0451d2        	s16i	a13, a1, 8
    1904:	055182        	s16i	a8, a1, 10
    1907:	000c46        	j	193c <fn_st_noise_est+0x4b4>

0000190a <fn_st_noise_est+0x482>:
    190a:	a18b           	addi.n	a10, a1, 8
    190c:	f9be81        	l32r	a8, 4 (8820 <xt_memcpy>)
    190f:	0921b2        	l32i	a11, a1, 36
    1912:	03a0c2        	movi	a12, 3
    1915:	0008e0        	callx8	a8
    1918:	7f2392        	l32i	a9, a3, 0x1fc
    191b:	075192        	s16i	a9, a1, 14
    191e:	000686        	j	193c <fn_st_noise_est+0x4b4>

00001921 <fn_st_noise_est+0x499>:
    1921:	a18b           	addi.n	a10, a1, 8
    1923:	f9b881        	l32r	a8, 4 (8820 <xt_memcpy>)
    1926:	91b8           	l32i.n	a11, a1, 36
    1928:	2c0c           	movi.n	a12, 2
    192a:	0008e0        	callx8	a8
    192d:	7f2392        	l32i	a9, a3, 0x1fc
    1930:	065192        	s16i	a9, a1, 12
    1933:	000146        	j	193c <fn_st_noise_est+0x4b4>

00001936 <fn_st_noise_est+0x4ae>:
    1936:	43a8a0        	min	a10, a8, a10
    1939:	0451a2        	s16i	a10, a1, 8
    193c:	334b           	addi.n	a3, a3, 4
    193e:	a79347        	bne	a3, a4, 18e9 <fn_st_noise_est+0x461>
    1941:	ffbb06        	j	1831 <fn_st_noise_est+0x3a9>

00001944 <fn_ini_analysis_frame>:
    1944:	004136        	entry	a1, 32
    1947:	02ad           	mov.n	a10, a2
    1949:	f9df81        	l32r	a8, c8 (8808 <xt_memset>)
    194c:	0b0c           	movi.n	a11, 0
    194e:	c8a3c2        	movi	a12, 0x3c8
    1951:	0008e0        	callx8	a8
    1954:	07d292        	addmi	a9, a2, 0x700
    1957:	226932        	s32i	a3, a9, 136
    195a:	f01d           	retw.n

0000195c <fn_analysis_frame>:
    195c:	004136        	entry	a1, 32
    195f:	78a082        	movi	a8, 120
    1962:	f0a0b2        	movi	a11, 240
    1965:	a50b           	addi.n	a10, a5, -1
    1967:	07d2d2        	addmi	a13, a2, 0x700
    196a:	222dd2        	l32i	a13, a13, 136
    196d:	04d292        	addmi	a9, a2, 0x400
    1970:	c4c992        	addi	a9, a9, -60
    1973:	08dd52        	addmi	a5, a13, 0x800
    1976:	0afa16        	beqz	a10, 1a29 <fn_analysis_frame+0xcd>
    1979:	fcc3e2        	addi	a14, a3, -4
    197c:	301664        	ae_cvtp24a16x2.ll	aep1, a6, a6
    197f:	08ad           	mov.n	a10, a8
    1981:	238a76        	loop	a10, 19a8 <fn_analysis_frame+0x4c>
    1984:	448e14        	ae_lp16x2f.iu	aep0, a14, 4
    1987:	0a4084        	ae_cvtq48p24s.l	aeq1, aep0
    198a:	031a54        	ae_mulfq32sp16s.l	aeq1, aeq1, aep1
    198d:	0a0884        	ae_cvtq48p24s.h	aeq0, aep0
    1990:	d4e63ad14f 	{ ae_sllisq56s	aeq1, aeq1, 4; ae_mulfq32sp16s.l	aeq0, aeq0, aep1 }
    1995:	064944        	ae_satq48s	aeq1, aeq1
    1998:	fc2c7ac14f 	{ ae_sllisq56s	aeq1, aeq0, 4; ae_roundsq32asym	aeq0, aeq1 }
    199d:	fd04f9c92f 	{ ae_sq32f.iu	aeq0, a9, 8; ae_satq48s	aeq1, aeq1 }
    19a2:	065934        	ae_roundsq32asym	aeq1, aeq1
    19a5:	6219f4        	ae_sq32f.i	aeq1, a9, -4

000019a8 <fn_analysis_frame+0x4c>:
    19a8:	fccd82        	addi	a8, a13, -4
    19ab:	f9cfa1        	l32r	a10, e8 (b3a0 <window>)
    19ae:	328b           	addi.n	a3, a2, 8
    19b0:	209330        	or	a9, a3, a3
    19b3:	601904        	ae_lq32f.iu	aeq0, a9, 0
    19b6:	448a04        	ae_lp16x2f.iu	aep0, a10, 0
    19b9:	1a8b76        	loop	a11, 19d7 <fn_analysis_frame+0x7b>
    19bc:	030204        	ae_mulfq32sp16s.h	aeq0, aeq0, aep0
    19bf:	060934        	ae_roundsq32asym	aeq0, aeq0
    19c2:	620814        	ae_sq32f.i	aeq0, a8, 4
    19c5:	600914        	ae_lq32f.i	aeq0, a9, 4
    19c8:	030214        	ae_mulfq32sp16s.l	aeq0, aeq0, aep0
    19cb:	060934        	ae_roundsq32asym	aeq0, aeq0
    19ce:	624824        	ae_sq32f.iu	aeq0, a8, 8
    19d1:	601924        	ae_lq32f.iu	aeq0, a9, 8
    19d4:	448a14        	ae_lp16x2f.iu	aep0, a10, 4

000019d7 <fn_analysis_frame+0x7b>:
    19d7:	090c           	movi.n	a9, 0
    19d9:	0a2c           	movi.n	a10, 32
    19db:	08dd82        	addmi	a8, a13, 0x800
    19de:	80c882        	addi	a8, a8, -128
    19e1:	028a76        	loop	a10, 19e7 <fn_analysis_frame+0x8b>
    19e4:	09e894        	ae_s32ip	a9, a8, 4
    19e7:	f9c181        	l32r	a8, ec (4800 <real_512_fft>)
    19ea:	0dad           	mov.n	a10, a13
    19ec:	05bd           	mov.n	a11, a5
    19ee:	0008e0        	callx8	a8
    19f1:	f8c482        	addi	a8, a4, -8
    19f4:	01a1d2        	movi	a13, 0x101
    19f7:	fccab2        	addi	a11, a10, -4
    19fa:	059d           	mov.n	a9, a5
    19fc:	5c8904        	ae_lp24x2f.iu	aep0, a9, 0
    19ff:	8bbd           	ae_sext16	a11, a11
    1a01:	021be6        	bgei	a11, 1, 1a07 <fn_analysis_frame+0xab>
    1a04:	002146        	j	1a8d <fn_analysis_frame+0x131>
    1a07:	0316b4        	wur.ae_sar	a11
    1a0a:	088d76        	loop	a13, 1a16 <fn_analysis_frame+0xba>
    1a0d:	0b0084        	ae_sllssp24s	aep0, aep0
    1a10:	5e8814        	ae_sp24x2f.iu	aep0, a8, 8
    1a13:	5c8914        	ae_lp24x2f.iu	aep0, a9, 8

00001a16 <fn_analysis_frame+0xba>:
    1a16:	03ad           	mov.n	a10, a3
    1a18:	e0a1c2        	movi	a12, 0x1e0
    1a1b:	f97a81        	l32r	a8, 4 (8820 <xt_memcpy>)
    1a1e:	04d2b2        	addmi	a11, a2, 0x400
    1a21:	c8cbb2        	addi	a11, a11, -56
    1a24:	0008e0        	callx8	a8
    1a27:	f01d           	retw.n

00001a29 <fn_analysis_frame+0xcd>:
    1a29:	303664        	ae_cvtp24a16x2.ll	aep3, a6, a6
    1a2c:	448304        	ae_lp16x2f.iu	aep0, a3, 0
    1a2f:	12c8           	l32i.n	a12, a2, 4
    1a31:	02e8           	l32i.n	a14, a2, 0
    1a33:	f9afa1        	l32r	a10, f0 (15cc64 <_end+0x14f4d8>)
    1a36:	f9aff1        	l32r	a15, f4 (7af1aa <_end+0x7a1a1e>)
    1a39:	39cfa4        	ae_movpa24x2	aep4, a15, a10
    1a3c:	21e8e0        	srai	a14, a14, 8
    1a3f:	08ad           	mov.n	a10, a8
    1a41:	21c8c0        	srai	a12, a12, 8
    1a44:	208990        	or	a8, a9, a9
    1a47:	399ce4        	ae_movpa24x2	aep1, a12, a14
    1a4a:	209330        	or	a9, a3, a3
    1a4d:	338a76        	loop	a10, 1a84 <fn_analysis_frame+0x128>
    1a50:	fc043e018f 	{ ae_selp24.hh	aep2, aep0, aep1; ae_cvtq48p24s.h	aeq0, aep0 }
    1a55:	0a4084        	ae_cvtq48p24s.l	aeq1, aep0
    1a58:	054a84        	ae_mulsafp24s.hh.ll	aeq1, aep4, aep2
    1a5b:	ec303e006f 	{ ae_selp24.lh	aep1, aep0, aep0; ae_mulsafp24s.hh.ll	aeq0, aep4, aep1 }
    1a60:	065934        	ae_roundsq32asym	aeq1, aeq1
    1a63:	033a54        	ae_mulfq32sp16s.l	aeq1, aeq1, aep3
    1a66:	060934        	ae_roundsq32asym	aeq0, aeq0
    1a69:	d4ee7ad10f 	{ ae_sllisq56s	aeq0, aeq1, 4; ae_mulfq32sp16s.l	aeq1, aeq0, aep3 }
    1a6e:	060844        	ae_satq48s	aeq0, aeq0
    1a71:	fd247ad10f 	{ ae_sllisq56s	aeq0, aeq1, 4; ae_roundsq32asym	aeq1, aeq0 }
    1a76:	fc00f9d82f 	{ ae_sq32f.iu	aeq1, a8, 8; ae_satq48s	aeq0, aeq0 }
    1a7b:	060934        	ae_roundsq32asym	aeq0, aeq0
    1a7e:	6208f4        	ae_sq32f.i	aeq0, a8, -4
    1a81:	448914        	ae_lp16x2f.iu	aep0, a9, 4

00001a84 <fn_analysis_frame+0x128>:
    1a84:	1a9184        	ae_selp24.lh	aep0, aep1, aep1
    1a87:	5e0204        	ae_sp24x2f.i	aep0, a2, 0
    1a8a:	ffc686        	j	19a8 <fn_analysis_frame+0x4c>

00001a8d <fn_analysis_frame+0x131>:
    1a8d:	60c0b0        	neg	a12, a11
    1a90:	0316c4        	wur.ae_sar	a12
    1a93:	f03d           	nop.n
    1a95:	088d76        	loop	a13, 1aa1 <fn_analysis_frame+0x145>
    1a98:	0b0384        	ae_srasp24	aep0, aep0
    1a9b:	5e8814        	ae_sp24x2f.iu	aep0, a8, 8
    1a9e:	5c8914        	ae_lp24x2f.iu	aep0, a9, 8

00001aa1 <fn_analysis_frame+0x145>:
    1aa1:	ffdc46        	j	1a16 <fn_analysis_frame+0xba>

00001aa4 <fn_ini_syn_frame>:
    1aa4:	004136        	entry	a1, 32
    1aa7:	02ad           	mov.n	a10, a2
    1aa9:	f98781        	l32r	a8, c8 (8808 <xt_memset>)
    1aac:	0b0c           	movi.n	a11, 0
    1aae:	e8a1c2        	movi	a12, 0x1e8
    1ab1:	0008e0        	callx8	a8
    1ab4:	f26232        	s32i	a3, a2, 0x3c8
    1ab7:	f01d           	retw.n

00001ab9 <fn_ini_syn_frame+0x15>:
    1ab9:	000000                                        ...

00001abc <fn_syn_frame>:
    1abc:	004136        	entry	a1, 32
    1abf:	03ad           	mov.n	a10, a3
    1ac1:	f98d81        	l32r	a8, f8 (4938 <real_512_ifft>)
    1ac4:	f22232        	l32i	a3, a2, 0x3c8
    1ac7:	20b440        	or	a11, a4, a4
    1aca:	0008e0        	callx8	a8
    1acd:	fcc382        	addi	a8, a3, -4
    1ad0:	f0a0e2        	movi	a14, 240
    1ad3:	ba4b           	addi.n	a11, a10, 4
    1ad5:	049d           	mov.n	a9, a4
    1ad7:	f984a1        	l32r	a10, e8 (b3a0 <window>)
    1ada:	601904        	ae_lq32f.iu	aeq0, a9, 0
    1add:	8bbd           	ae_sext16	a11, a11
    1adf:	448a04        	ae_lp16x2f.iu	aep0, a10, 0
    1ae2:	651ba6        	blti	a11, 1, 1b4b <fn_syn_frame+0x8f>
    1ae5:	2a8e76        	loop	a14, 1b13 <fn_syn_frame+0x57>
    1ae8:	fc24fe8b0f 	{ ae_slaasq56s	aeq0, aeq0, a11; nop }
    1aed:	030204        	ae_mulfq32sp16s.h	aeq0, aeq0, aep0
    1af0:	060844        	ae_satq48s	aeq0, aeq0
    1af3:	098c14        	ae_truncp24q48x2	aep1, aeq0, aeq0
    1af6:	521814        	ae_sp24f.l.i	aep1, a8, 4
    1af9:	600914        	ae_lq32f.i	aeq0, a9, 4
    1afc:	fc24fe8b0f 	{ ae_slaasq56s	aeq0, aeq0, a11; nop }
    1b01:	030214        	ae_mulfq32sp16s.l	aeq0, aeq0, aep0
    1b04:	060844        	ae_satq48s	aeq0, aeq0
    1b07:	098c14        	ae_truncp24q48x2	aep1, aeq0, aeq0
    1b0a:	529824        	ae_sp24f.l.iu	aep1, a8, 8
    1b0d:	601924        	ae_lq32f.iu	aeq0, a9, 8
    1b10:	448a14        	ae_lp16x2f.iu	aep0, a10, 4

00001b13 <fn_syn_frame+0x57>:
    1b13:	f8c482        	addi	a8, a4, -8
    1b16:	78a0b2        	movi	a11, 120
    1b19:	20a330        	or	a10, a3, a3
    1b1c:	08c292        	addi	a9, a2, 8
    1b1f:	5c8904        	ae_lp24x2f.iu	aep0, a9, 0
    1b22:	5c9a04        	ae_lp24x2f.iu	aep1, a10, 0
    1b25:	0b8b76        	loop	a11, 1b34 <fn_syn_frame+0x78>
    1b28:	078104        	ae_addsp24s	aep0, aep0, aep1
    1b2b:	5e8814        	ae_sp24x2f.iu	aep0, a8, 8
    1b2e:	5c8914        	ae_lp24x2f.iu	aep0, a9, 8
    1b31:	5c9a14        	ae_lp24x2f.iu	aep1, a10, 8

00001b34 <fn_syn_frame+0x78>:
    1b34:	6d1526        	beqi	a5, 1, 1ba5 <fn_syn_frame+0xe9>

00001b37 <fn_syn_frame+0x7b>:
    1b37:	78a0a2        	movi	a10, 120
    1b3a:	04d382        	addmi	a8, a3, 0x400
    1b3d:	b8c882        	addi	a8, a8, -72
    1b40:	058a76        	loop	a10, 1b49 <fn_syn_frame+0x8d>
    1b43:	5c8814        	ae_lp24x2f.iu	aep0, a8, 8
    1b46:	5e8214        	ae_sp24x2f.iu	aep0, a2, 8

00001b49 <fn_syn_frame+0x8d>:
    1b49:	f01d           	retw.n

00001b4b <fn_syn_frame+0x8f>:
    1b4b:	fc24fe8b0f 	{ ae_slaasq56s	aeq0, aeq0, a11; nop }
    1b50:	06c934        	ae_roundsq32asym	aeq3, aeq0
    1b53:	038ac4        	ae_mulfq32sp16s.h	aeq3, aeq3, aep0
    1b56:	1bbd24        	ae_roundsp24q48asym	aep2, aeq3
    1b59:	522304        	ae_sp24f.l.i	aep2, a3, 0
    1b5c:	608914        	ae_lq32f.i	aeq2, a9, 4
    1b5f:	fc24feab4f 	{ ae_slaasq56s	aeq1, aeq2, a11; nop }
    1b64:	061934        	ae_roundsq32asym	aeq0, aeq1
    1b67:	030214        	ae_mulfq32sp16s.l	aeq0, aeq0, aep0
    1b6a:	f867c0efcf 	{ movi	a12, 239; ae_roundsp24q48asym	aep1, aeq0 }
    1b6f:	529824        	ae_sp24f.l.iu	aep1, a8, 8
    1b72:	601924        	ae_lq32f.iu	aeq0, a9, 8
    1b75:	298c76        	loop	a12, 1ba2 <fn_syn_frame+0xe6>
    1b78:	fc24fe8b0f 	{ ae_slaasq56s	aeq0, aeq0, a11; nop }
    1b7d:	fc246d8a1f 	{ ae_lp16x2f.iu	aep0, a10, 4; ae_roundsq32asym	aeq0, aeq0 }
    1b82:	030204        	ae_mulfq32sp16s.h	aeq0, aeq0, aep0
    1b85:	1b8d14        	ae_roundsp24q48asym	aep1, aeq0
    1b88:	521814        	ae_sp24f.l.i	aep1, a8, 4
    1b8b:	600914        	ae_lq32f.i	aeq0, a9, 4
    1b8e:	fc24fe8b0f 	{ ae_slaasq56s	aeq0, aeq0, a11; nop }
    1b93:	060934        	ae_roundsq32asym	aeq0, aeq0
    1b96:	030214        	ae_mulfq32sp16s.l	aeq0, aeq0, aep0
    1b99:	1b8d14        	ae_roundsp24q48asym	aep1, aeq0
    1b9c:	529824        	ae_sp24f.l.iu	aep1, a8, 8
    1b9f:	601924        	ae_lq32f.iu	aeq0, a9, 8

00001ba2 <fn_syn_frame+0xe6>:
    1ba2:	ffdb46        	j	1b13 <fn_syn_frame+0x57>

00001ba5 <fn_syn_frame+0xe9>:
    1ba5:	f92061        	l32r	a6, 28 (7fffffff <_end+0x7fff2873>)
    1ba8:	f955a1        	l32r	a10, fc (800000 <_end+0x7f2874>)
    1bab:	404010        	ssai	16
    1bae:	04b8           	l32i.n	a11, a4, 0
    1bb0:	f950e1        	l32r	a14, f0 (15cc64 <_end+0x14f4d8>)
    1bb3:	02d8           	l32i.n	a13, a2, 0
    1bb5:	12f8           	l32i.n	a15, a2, 4
    1bb7:	f94f51        	l32r	a5, f4 (7af1aa <_end+0x7a1a1e>)
    1bba:	21d8d0        	srai	a13, a13, 8
    1bbd:	21f8f0        	srai	a15, a15, 8
    1bc0:	82cf50        	mull	a12, a15, a5
    1bc3:	829de0        	mull	a9, a13, a14
    1bc6:	b2ff50        	mulsh	a15, a15, a5
    1bc9:	b2dde0        	mulsh	a13, a13, a14
    1bcc:	050c           	movi.n	a5, 0
    1bce:	31efb0        	srai	a14, a11, 31
    1bd1:	81eeb0        	src	a14, a14, a11
    1bd4:	058d           	mov.n	a8, a5
    1bd6:	11bb00        	slli	a11, a11, 16
    1bd9:	404f10        	ssai	31
    1bdc:	81dd90        	src	a13, a13, a9
    1bdf:	81ffc0        	src	a15, a15, a12
    1be2:	eefa           	add.n	a14, a14, a15
    1be4:	1199f0        	slli	a9, a9, 1
    1be7:	11ccf0        	slli	a12, a12, 1
    1bea:	404810        	ssai	24
    1bed:	cbca           	add.n	a12, a11, a12
    1bef:	62bcb0        	saltu	a11, a12, a11
    1bf2:	c09c90        	sub	a9, a12, a9
    1bf5:	bbea           	add.n	a11, a11, a14
    1bf7:	80e9a0        	add	a14, a9, a10
    1bfa:	62cc90        	saltu	a12, a12, a9
    1bfd:	c0bbd0        	sub	a11, a11, a13
    1c00:	c0bbc0        	sub	a11, a11, a12
    1c03:	629e90        	saltu	a9, a14, a9
    1c06:	8099b0        	add	a9, a9, a11
    1c09:	81e9e0        	src	a14, a9, a14
    1c0c:	f924b1        	l32r	a11, 9c (7fffff00 <_end+0x7fff2774>)
    1c0f:	319890        	srai	a9, a9, 24
    1c12:	8199e0        	src	a9, a9, a14
    1c15:	11ee80        	slli	a14, a14, 8
    1c18:	004996        	bltz	a9, 1c20 <fn_syn_frame+0x164>
    1c1b:	0e4916        	beqz	a9, 1d03 <fn_syn_frame+0x247>

00001c1e <fn_syn_frame+0x162>:
    1c1e:	180c           	movi.n	a8, 1

00001c20 <fn_syn_frame+0x164>:
    1c20:	0b9816        	beqz	a8, 1cdd <fn_syn_frame+0x221>
    1c23:	f91e91        	l32r	a9, 9c (7fffff00 <_end+0x7fff2774>)

00001c26 <fn_syn_frame+0x16a>:
    1c26:	404010        	ssai	16
    1c29:	14c8           	l32i.n	a12, a4, 4
    1c2b:	0499           	s32i.n	a9, a4, 0
    1c2d:	218890        	srai	a8, a9, 8
    1c30:	f93191        	l32r	a9, f4 (7af1aa <_end+0x7a1a1e>)
    1c33:	12e8           	l32i.n	a14, a2, 4
    1c35:	f92ef1        	l32r	a15, f0 (15cc64 <_end+0x14f4d8>)
    1c38:	82d890        	mull	a13, a8, a9
    1c3b:	21e8e0        	srai	a14, a14, 8
    1c3e:	b28890        	mulsh	a8, a8, a9
    1c41:	829ef0        	mull	a9, a14, a15
    1c44:	b2eef0        	mulsh	a14, a14, a15
    1c47:	31ffc0        	srai	a15, a12, 31
    1c4a:	81ffc0        	src	a15, a15, a12
    1c4d:	11cc00        	slli	a12, a12, 16
    1c50:	404f10        	ssai	31
    1c53:	81ee90        	src	a14, a14, a9
    1c56:	8188d0        	src	a8, a8, a13
    1c59:	1199f0        	slli	a9, a9, 1
    1c5c:	ff8a           	add.n	a15, a15, a8
    1c5e:	11ddf0        	slli	a13, a13, 1
    1c61:	080c           	movi.n	a8, 0
    1c63:	404810        	ssai	24
    1c66:	dcda           	add.n	a13, a12, a13
    1c68:	62cdc0        	saltu	a12, a13, a12
    1c6b:	c09d90        	sub	a9, a13, a9
    1c6e:	a9aa           	add.n	a10, a9, a10
    1c70:	ccfa           	add.n	a12, a12, a15
    1c72:	62dd90        	saltu	a13, a13, a9
    1c75:	c0cce0        	sub	a12, a12, a14
    1c78:	629a90        	saltu	a9, a10, a9
    1c7b:	c0ccd0        	sub	a12, a12, a13
    1c7e:	8099c0        	add	a9, a9, a12
    1c81:	81a9a0        	src	a10, a9, a10
    1c84:	319890        	srai	a9, a9, 24
    1c87:	8199a0        	src	a9, a9, a10
    1c8a:	11aa80        	slli	a10, a10, 8
    1c8d:	072957        	blt	a9, a5, 1c98 <fn_syn_frame+0x1dc>
    1c90:	c0c950        	sub	a12, a9, a5
    1c93:	075c16        	beqz	a12, 1d0c <fn_syn_frame+0x250>

00001c96 <fn_syn_frame+0x1da>:
    1c96:	180c           	movi.n	a8, 1

00001c98 <fn_syn_frame+0x1dc>:
    1c98:	054816        	beqz	a8, 1cf0 <fn_syn_frame+0x234>
    1c9b:	f90081        	l32r	a8, 9c (7fffff00 <_end+0x7fff2774>)

00001c9e <fn_syn_frame+0x1e2>:
    1c9e:	eea092        	movi	a9, 238
    1ca1:	f913e1        	l32r	a14, f0 (15cc64 <_end+0x14f4d8>)
    1ca4:	1489           	s32i.n	a8, a4, 4
    1ca6:	f913d1        	l32r	a13, f4 (7af1aa <_end+0x7a1a1e>)
    1ca9:	848b           	addi.n	a8, a4, 8
    1cab:	39bde4        	ae_movpa24x2	aep3, a13, a14
    1cae:	50c804        	ae_lp24f.iu	aep4, a8, 0
    1cb1:	5008f4        	ae_lp24f.i	aep0, a8, -4
    1cb4:	fc8c2e18ef 	{ ae_lp24f.i	aep1, a8, -8; ae_cvtq48p24s.l	aeq0, aep4 }
    1cb9:	138976        	loop	a9, 1cd0 <fn_syn_frame+0x214>
    1cbc:	010304        	ae_mulafp24s.hh	aeq0, aep0, aep3
    1cbf:	ee65bf007f 	{ ae_movp48	aep1, aep0; ae_mulsfp24s.ll	aeq0, aep1, aep3 }
    1cc4:	1b8d04        	ae_roundsp24q48asym	aep0, aeq0
    1cc7:	528804        	ae_sp24f.l.iu	aep0, a8, 0
    1cca:	50a814        	ae_lp24f.iu	aep2, a8, 4
    1ccd:	0a0284        	ae_cvtq48p24s.l	aeq0, aep2

00001cd0 <fn_syn_frame+0x214>:
    1cd0:	ee2482        	l32i	a8, a4, 0x3b8
    1cd3:	0289           	s32i.n	a8, a2, 0
    1cd5:	ef24f2        	l32i	a15, a4, 0x3bc
    1cd8:	12f9           	s32i.n	a15, a2, 4
    1cda:	ff9646        	j	1b37 <fn_syn_frame+0x7b>

00001cdd <fn_syn_frame+0x221>:
    1cdd:	080c           	movi.n	a8, 0
    1cdf:	0049d6        	bgez	a9, 1ce7 <fn_syn_frame+0x22b>
    1ce2:	2c0926        	beqi	a9, -1, 1d12 <fn_syn_frame+0x256>

00001ce5 <fn_syn_frame+0x229>:
    1ce5:	180c           	movi.n	a8, 1

00001ce7 <fn_syn_frame+0x22b>:
    1ce7:	f8d291        	l32r	a9, 30 (80000000 <_end+0x7fff2874>)
    1cea:	839e80        	moveqz	a9, a14, a8
    1ced:	ffcd46        	j	1c26 <fn_syn_frame+0x16a>

00001cf0 <fn_syn_frame+0x234>:
    1cf0:	0b0c           	movi.n	a11, 0
    1cf2:	0049d6        	bgez	a9, 1cfa <fn_syn_frame+0x23e>
    1cf5:	1f0926        	beqi	a9, -1, 1d18 <fn_syn_frame+0x25c>

00001cf8 <fn_syn_frame+0x23c>:
    1cf8:	1b0c           	movi.n	a11, 1

00001cfa <fn_syn_frame+0x23e>:
    1cfa:	f8cd81        	l32r	a8, 30 (80000000 <_end+0x7fff2874>)
    1cfd:	838ab0        	moveqz	a8, a10, a11
    1d00:	ffe686        	j	1c9e <fn_syn_frame+0x1e2>

00001d03 <fn_syn_frame+0x247>:
    1d03:	023be7        	bltu	a11, a14, 1d09 <fn_syn_frame+0x24d>
    1d06:	ffc586        	j	1c20 <fn_syn_frame+0x164>
    1d09:	ffc446        	j	1c1e <fn_syn_frame+0x162>

00001d0c <fn_syn_frame+0x250>:
    1d0c:	88bba7        	bgeu	a11, a10, 1c98 <fn_syn_frame+0x1dc>
    1d0f:	ffe0c6        	j	1c96 <fn_syn_frame+0x1da>

00001d12 <fn_syn_frame+0x256>:
    1d12:	d136e7        	bltu	a6, a14, 1ce7 <fn_syn_frame+0x22b>
    1d15:	fff306        	j	1ce5 <fn_syn_frame+0x229>

00001d18 <fn_syn_frame+0x25c>:
    1d18:	de36a7        	bltu	a6, a10, 1cfa <fn_syn_frame+0x23e>
    1d1b:	fff646        	j	1cf8 <fn_syn_frame+0x23c>

00001d1e <fn_syn_frame+0x262>:
	...

00001d20 <fn_ini_calc_sup_gain>:
    1d20:	004136        	entry	a1, 32
    1d23:	02ad           	mov.n	a10, a2
    1d25:	f8e881        	l32r	a8, c8 (8808 <xt_memset>)
    1d28:	00a0b2        	movi	a11, 0
    1d2b:	08a2c2        	movi	a12, 0x208
    1d2e:	0008e0        	callx8	a8
    1d31:	03bd           	mov.n	a11, a3
    1d33:	f8b481        	l32r	a8, 4 (8820 <xt_memcpy>)
    1d36:	02ad           	mov.n	a10, a2
    1d38:	4c0c           	movi.n	a12, 4
    1d3a:	0008e0        	callx8	a8
    1d3d:	828b           	addi.n	a8, a2, 8
    1d3f:	00a192        	movi	a9, 0x100
    1d42:	01a1a2        	movi	a10, 0x101
    1d45:	028a76        	loop	a10, 1d4b <fn_ini_calc_sup_gain+0x2b>
    1d48:	09e894        	ae_s32ip	a9, a8, 4

00001d4b <fn_ini_calc_sup_gain+0x2b>:
    1d4b:	04d292        	addmi	a9, a2, 0x400
    1d4e:	3949           	s32i.n	a4, a9, 12
    1d50:	f01d           	retw.n

00001d52 <fn_ini_calc_sup_gain+0x32>:
	...

00001d54 <fn_calc_sup_gain>:
    1d54:	012136        	entry	a1, 144
    1d57:	9129           	s32i.n	a2, a1, 36
    1d59:	029d           	mov.n	a9, a2
    1d5b:	22ad           	ae_l16si.n	a10, a2, 0
    1d5d:	998b           	addi.n	a9, a9, 8
    1d5f:	f8bd21        	l32r	a2, 54 (7fff <xtensa_fft8_32b+0xef>)
    1d62:	0a2a56        	bnez	a10, 1e08 <fn_calc_sup_gain+0xb4>
    1d65:	01a1a2        	movi	a10, 0x101
    1d68:	91e8           	l32i.n	a14, a1, 36
    1d6a:	04bd           	mov.n	a11, a4
    1d6c:	03cd           	mov.n	a12, a3
    1d6e:	20d990        	or	a13, a9, a9
    1d71:	609d04        	ae_lq32f.iu	aeq2, a13, 0
    1d74:	601c04        	ae_lq32f.iu	aeq0, a12, 0
    1d77:	605b04        	ae_lq32f.iu	aeq1, a11, 0
    1d7a:	029ef2        	l16si	a15, a14, 4
    1d7d:	3eed           	ae_l16si.n	a14, a14, 2
    1d7f:	300ef4        	ae_cvtp24a16x2.ll	aep0, a14, a15
    1d82:	560154        	ae_sp24x2s.i	aep0, a1, 40
    1d85:	7daa76        	loopgtz	a10, 1e06 <fn_calc_sup_gain+0xb2>
    1d88:	01e9c4        	ae_addq56	aeq3, aeq2, aeq1
    1d8b:	ff84f0215f 	{ ae_lp24x2.i	aep2, a1, 40; ae_satq48s	aeq3, aeq3 }
    1d90:	03aac4        	ae_mulfq32sp16s.h	aeq3, aeq3, aep2
    1d93:	03a814        	ae_mulafq32sp16s.l	aeq3, aeq0, aep2
    1d96:	f87ff0919e 	{ l32i	a9, a1, 36; ae_roundsp24q48asym	aep1, aeq3 }
    1d9b:	009ad4        	ae_cvta32p24.h	a10, aep1
    1d9e:	369e04        	ae_trunca32q48	a14, aeq1
    1da1:	fa4260399e 	{ l16si	a9, a9, 6; ae_truncp24q48x2	aep5, aeq0, aeq0 }
    1da6:	7a8c           	beqz.n	a10, 1db1 <fn_calc_sup_gain+0x5d>
    1da8:	0a2ea7        	blt	a14, a10, 1db6 <fn_calc_sup_gain+0x62>
    1dab:	f8aaa1        	l32r	a10, 54 (7fff <xtensa_fft8_32b+0xef>)
    1dae:	000ac6        	j	1ddd <fn_calc_sup_gain+0x89>

00001db1 <fn_calc_sup_gain+0x5d>:
    1db1:	0a0c           	movi.n	a10, 0
    1db3:	000986        	j	1ddd <fn_calc_sup_gain+0x89>

00001db6 <fn_calc_sup_gain+0x62>:
    1db6:	364a34        	ae_cvtq48a32s	aeq1, a10
    1db9:	36ce34        	ae_cvtq48a32s	aeq3, a14
    1dbc:	40ea80        	nsa	a8, a10
    1dbf:	888d           	ae_sext16	a8, a8
    1dc1:	fc24feb88f 	{ ae_slaasq56s	aeq2, aeq3, a8; nop }
    1dc6:	ff80cf188e 	{ addi	a8, a8, -15; ae_satq48s	aeq3, aeq2 }
    1dcb:	fc24fe988f 	{ ae_slaasq56s	aeq2, aeq1, a8; nop }
    1dd0:	fd80ff3aef 	{ ae_trunca32q48	a10, aeq3; ae_satq48s	aeq1, aeq2 }
    1dd5:	369f04        	ae_trunca32q48	a15, aeq1
    1dd8:	d2aaf0        	quos	a10, a10, a15
    1ddb:	aaad           	ae_clamps16	a10, a10
    1ddd:	c0e2a0        	sub	a14, a2, a10
    1de0:	8eed           	ae_sext16	a14, a14
    1de2:	5399e0        	max	a9, a9, a14
    1de5:	306994        	ae_cvtp24a16x2.ll	aep6, a9, a9
    1de8:	01e644        	ae_mulfp24s.hh	aeq2, aep6, aep6
    1deb:	1bad44        	ae_roundsp24q48asym	aep4, aeq2
    1dee:	014d44        	ae_mulfp24s.hh	aeq1, aep4, aep5
    1df1:	09c594        	ae_s16ip	a9, a5, 2
    1df4:	1b9d34        	ae_roundsp24q48asym	aep3, aeq1
    1df7:	0a0384        	ae_cvtq48p24s.l	aeq0, aep3
    1dfa:	624d04        	ae_sq32f.iu	aeq0, a13, 0
    1dfd:	609d14        	ae_lq32f.iu	aeq2, a13, 4
    1e00:	601c14        	ae_lq32f.iu	aeq0, a12, 4
    1e03:	605b14        	ae_lq32f.iu	aeq1, a11, 4

00001e06 <fn_calc_sup_gain+0xb2>:
    1e06:	f01d           	retw.n

00001e08 <fn_calc_sup_gain+0xb4>:
    1e08:	ba0b           	addi.n	a11, a10, -1
    1e0a:	1bdb16        	beqz	a11, 1fcb <fn_calc_sup_gain+0x277>
    1e0d:	01a162        	movi	a6, 0x101
    1e10:	508304        	ae_lp24f.iu	aep0, a3, 0
    1e13:	509404        	ae_lp24f.iu	aep1, a4, 0
    1e16:	91c8           	l32i.n	a12, a1, 36
    1e18:	097d           	mov.n	a7, a9
    1e1a:	f88be1        	l32r	a14, 48 (8000 <xtensa_fft8_32b+0xf0>)
    1e1d:	364e34        	ae_cvtq48a32s	aeq1, a14
    1e20:	50a704        	ae_lp24f.iu	aep2, a7, 0
    1e23:	029cd2        	l16si	a13, a12, 4
    1e26:	fc2c201cce 	{ l16si	a12, a12, 2; ae_cvtq48p24s.l	aeq0, aep1 }
    1e2b:	fe0c18fcdf 	{ ae_cvtp24a16x2.ll	aep7, a12, a13; ae_cvtq48p24s.l	aeq2, aep0 }
    1e30:	fa32f7715f 	{ ae_sp24x2s.i	aep7, a1, 40; ae_subq56	aeq2, aeq2, aeq0 }

00001e35 <fn_calc_sup_gain+0xe1>:
    1e35:	06ca44        	ae_satq48s	aeq3, aeq2
    1e38:	0a9084        	ae_zeroq56	aeq2
    1e3b:	09a304        	ae_ltq56s	b0, aeq3, aeq2
    1e3e:	0304d0        	rsr.br	a13
    1e41:	04d0d0        	extui	a13, a13, 0, 1
    1e44:	1dcc           	bnez.n	a13, 1e49 <fn_calc_sup_gain+0xf5>
    1e46:	06bb34        	ae_movq56	aeq2, aeq3

00001e49 <fn_calc_sup_gain+0xf5>:
    1e49:	35a234        	ae_sraiq56	aeq2, aeq2, 8
    1e4c:	09a414        	ae_leq56s	b1, aeq0, aeq2
    1e4f:	364c04        	ae_nsaq56s	a12, aeq0
    1e52:	f880a1        	l32r	a10, 54 (7fff <xtensa_fft8_32b+0xef>)
    1e55:	020176        	bf	b1, 1e5b <fn_calc_sup_gain+0x107>
    1e58:	000806        	j	1e7c <fn_calc_sup_gain+0x128>

00001e5b <fn_calc_sup_gain+0x107>:
    1e5b:	f8ccc2        	addi	a12, a12, -8
    1e5e:	8ccd           	ae_sext16	a12, a12
    1e60:	fc24feaccf 	{ ae_slaasq56s	aeq3, aeq2, a12; nop }
    1e65:	fe84cf1cce 	{ addi	a12, a12, -15; ae_satq48s	aeq2, aeq3 }
    1e6a:	fc24fe8ccf 	{ ae_slaasq56s	aeq3, aeq0, a12; nop }
    1e6f:	fe84ff2aef 	{ ae_trunca32q48	a10, aeq2; ae_satq48s	aeq2, aeq3 }
    1e74:	36ab04        	ae_trunca32q48	a11, aeq2
    1e77:	d2aab0        	quos	a10, a10, a11
    1e7a:	aaad           	ae_clamps16	a10, a10

00001e7c <fn_calc_sup_gain+0x128>:
    1e7c:	11ea80        	slli	a14, a10, 8
    1e7f:	f87591        	l32r	a9, 54 (7fff <xtensa_fft8_32b+0xef>)
    1e82:	0a8284        	ae_cvtq48p24s.l	aeq2, aep2
    1e85:	35a234        	ae_sraiq56	aeq2, aeq2, 8
    1e88:	09a424        	ae_leq56s	b2, aeq0, aeq2
    1e8b:	543154        	ae_lp24x2.i	aep3, a1, 40
    1e8e:	302aa4        	ae_cvtp24a16x2.ll	aep2, a10, a10
    1e91:	020276        	bf	b2, 1e97 <fn_calc_sup_gain+0x143>
    1e94:	0008c6        	j	1ebb <fn_calc_sup_gain+0x167>

00001e97 <fn_calc_sup_gain+0x143>:
    1e97:	364c04        	ae_nsaq56s	a12, aeq0
    1e9a:	f8ccc2        	addi	a12, a12, -8
    1e9d:	8ccd           	ae_sext16	a12, a12
    1e9f:	fc24feaccf 	{ ae_slaasq56s	aeq3, aeq2, a12; nop }
    1ea4:	fe84cf1cce 	{ addi	a12, a12, -15; ae_satq48s	aeq2, aeq3 }
    1ea9:	fc24fe8ccf 	{ ae_slaasq56s	aeq3, aeq0, a12; nop }
    1eae:	fe84ff29ef 	{ ae_trunca32q48	a9, aeq2; ae_satq48s	aeq2, aeq3 }
    1eb3:	36ab04        	ae_trunca32q48	a11, aeq2
    1eb6:	d299b0        	quos	a9, a9, a11
    1eb9:	a99d           	ae_clamps16	a9, a9

00001ebb <fn_calc_sup_gain+0x167>:
    1ebb:	304994        	ae_cvtp24a16x2.ll	aep4, a9, a9
    1ebe:	01c344        	ae_mulfp24s.hh	aeq2, aep4, aep3
    1ec1:	01a334        	ae_mulafp24s.ll	aeq2, aep2, aep3
    1ec4:	f864a1        	l32r	a10, 54 (7fff <xtensa_fft8_32b+0xef>)
    1ec7:	1bad14        	ae_roundsp24q48asym	aep1, aeq2
    1eca:	019144        	ae_mulfp24s.hh	aeq2, aep1, aep1
    1ecd:	fc2c0781fe 	{ addi	a15, a1, 120; ae_cvtq48p24s.l	aeq0, aep1 }
    1ed2:	ff347ecebf 	{ ae_cvtq48a32s	aeq2, a14; ae_roundsq32asym	aeq3, aeq2 }
    1ed7:	fa763b020f 	{ ae_sraiq56	aeq0, aeq0, 8; ae_addq56	aeq2, aeq2, aeq1 }
    1edc:	fbe63a3fcf 	{ ae_sq56s.i	aeq3, a15, -32; ae_addq56	aeq3, aeq0, aeq3 }
    1ee1:	ff84fa016f 	{ ae_sq56s.i	aeq0, a1, 48; ae_satq48s	aeq3, aeq3 }
    1ee6:	f8663b32cf 	{ ae_sraiq56	aeq3, aeq3, 8; ae_addq56	aeq0, aeq0, aeq1 }
    1eeb:	ff3c7f2caf 	{ ae_nsaq56s	a12, aeq2; ae_roundsq32asym	aeq3, aeq3 }
    1ef0:	d5da3a017f 	{ ae_sq56s.i	aeq0, a1, 56; ae_leq56s	b8, aeq2, aeq3 }
    1ef5:	610fc4        	ae_lq56.i	aeq0, a15, -32
    1ef8:	f8ccc2        	addi	a12, a12, -8
    1efb:	050876        	bf	b8, 1f04 <fn_calc_sup_gain+0x1b0>
    1efe:	560f94        	ae_sp24x2s.i	aep0, a15, -56
    1f01:	000906        	j	1f29 <fn_calc_sup_gain+0x1d5>

00001f04 <fn_calc_sup_gain+0x1b0>:
    1f04:	8ccd           	ae_sext16	a12, a12
    1f06:	fc24febccf 	{ ae_slaasq56s	aeq3, aeq3, a12; nop }
    1f0b:	ff84cf1cce 	{ addi	a12, a12, -15; ae_satq48s	aeq3, aeq3 }
    1f10:	36ba04        	ae_trunca32q48	a10, aeq3
    1f13:	fc24feaccf 	{ ae_slaasq56s	aeq3, aeq2, a12; nop }
    1f18:	06cb44        	ae_satq48s	aeq3, aeq3
    1f1b:	36bb04        	ae_trunca32q48	a11, aeq3
    1f1e:	560f94        	ae_sp24x2s.i	aep0, a15, -56
    1f21:	0020f0        	nop
    1f24:	d2aab0        	quos	a10, a10, a11
    1f27:	aaad           	ae_clamps16	a10, a10

00001f29 <fn_calc_sup_gain+0x1d5>:
    1f29:	f87581        	l32r	a8, 100 (cd0 <fxsqrt_ie>)
    1f2c:	3580f4        	ae_sraiq56	aeq2, aeq0, 3
    1f2f:	364a34        	ae_cvtq48a32s	aeq1, a10
    1f32:	fc347a915f 	{ ae_slliq56	aeq1, aeq1, 5; ae_roundsq32asym	aeq0, aeq2 }
    1f37:	0109c4        	ae_addq56	aeq0, aeq0, aeq1
    1f3a:	368a04        	ae_trunca32q48	a10, aeq0
    1f3d:	0008e0        	callx8	a8
    1f40:	f842c1        	l32r	a12, 48 (8000 <xtensa_fft8_32b+0xf0>)
    1f43:	61c164        	ae_lq56.i	aeq3, a1, 48
    1f46:	119a70        	slli	a9, a10, 9
    1f49:	360934        	ae_cvtq48a32s	aeq0, a9
    1f4c:	fb7a3d817f 	{ ae_lq56.i	aeq0, a1, 56; ae_addq56	aeq3, aeq3, aeq0 }
    1f51:	350054        	ae_slliq56	aeq0, aeq0, 1
    1f54:	fe00c781be 	{ addi	a11, a1, 120; ae_satq48s	aeq2, aeq0 }
    1f59:	fc84f00b9f 	{ ae_lp24x2.i	aep0, a11, -56; ae_satq48s	aeq0, aeq3 }
    1f5e:	d5c27ecc7f 	{ ae_cvtq48a32s	aeq1, a12; ae_leq56s	b9, aeq2, aeq0 }
    1f63:	f83ca1        	l32r	a10, 54 (7fff <xtensa_fft8_32b+0xef>)
    1f66:	366c04        	ae_nsaq56s	a12, aeq2
    1f69:	040976        	bf	b9, 1f71 <fn_calc_sup_gain+0x21d>
    1f6c:	652d           	ae_s16i.n	a2, a5, 0
    1f6e:	000886        	j	1f94 <fn_calc_sup_gain+0x240>

00001f71 <fn_calc_sup_gain+0x21d>:
    1f71:	f8ccc2        	addi	a12, a12, -8
    1f74:	8ccd           	ae_sext16	a12, a12
    1f76:	fc24fe8ccf 	{ ae_slaasq56s	aeq3, aeq0, a12; nop }
    1f7b:	fc84cf1cce 	{ addi	a12, a12, -15; ae_satq48s	aeq0, aeq3 }
    1f80:	fc24feaccf 	{ ae_slaasq56s	aeq3, aeq2, a12; nop }
    1f85:	fc84ff0aef 	{ ae_trunca32q48	a10, aeq0; ae_satq48s	aeq0, aeq3 }
    1f8a:	368b04        	ae_trunca32q48	a11, aeq0
    1f8d:	d2aab0        	quos	a10, a10, a11
    1f90:	aaad           	ae_clamps16	a10, a10
    1f92:	65ad           	ae_s16i.n	a10, a5, 0

00001f94 <fn_calc_sup_gain+0x240>:
    1f94:	91b8           	l32i.n	a11, a1, 36
    1f96:	039bb2        	l16si	a11, a11, 6
    1f99:	660b           	addi.n	a6, a6, -1
    1f9b:	03aab7        	bge	a10, a11, 1fa2 <fn_calc_sup_gain+0x24e>
    1f9e:	65bd           	ae_s16i.n	a11, a5, 0
    1fa0:	0bad           	mov.n	a10, a11

00001fa2 <fn_calc_sup_gain+0x24e>:
    1fa2:	307aa4        	ae_cvtp24a16x2.ll	aep7, a10, a10
    1fa5:	01f774        	ae_mulfp24s.ll	aeq2, aep7, aep7
    1fa8:	1bad64        	ae_roundsp24q48asym	aep6, aeq2
    1fab:	016074        	ae_mulfp24s.ll	aeq0, aep6, aep0
    1fae:	1b8d54        	ae_roundsp24q48asym	aep5, aeq0
    1fb1:	52d704        	ae_sp24f.l.iu	aep5, a7, 0
    1fb4:	509414        	ae_lp24f.iu	aep1, a4, 4
    1fb7:	fc2c2e831f 	{ ae_lp24f.iu	aep0, a3, 4; ae_cvtq48p24s.l	aeq0, aep1 }
    1fbc:	fe0c00255e 	{ addi	a5, a5, 2; ae_cvtq48p24s.l	aeq2, aep0 }
    1fc1:	fa32eea71f 	{ ae_lp24f.iu	aep2, a7, 4; ae_subq56	aeq2, aeq2, aeq0 }
    1fc6:	e6b656        	bnez	a6, 1e35 <fn_calc_sup_gain+0xe1>
    1fc9:	f01d           	retw.n

00001fcb <fn_calc_sup_gain+0x277>:
    1fcb:	1199           	s32i.n	a9, a1, 4
    1fcd:	f81e71        	l32r	a7, 48 (8000 <xtensa_fft8_32b+0xf0>)
    1fd0:	f84b61        	l32r	a6, fc (800000 <_end+0x7f2874>)
    1fd3:	01a1e2        	movi	a14, 0x101
    1fd6:	61e9           	s32i.n	a14, a1, 24

00001fd8 <fn_calc_sup_gain+0x284>:
    1fd8:	04a8           	l32i.n	a10, a4, 0
    1fda:	03b8           	l32i.n	a11, a3, 0
    1fdc:	31dfa0        	srai	a13, a10, 31
    1fdf:	c0aba0        	sub	a10, a11, a10
    1fe2:	62cba0        	saltu	a12, a11, a10
    1fe5:	31bfb0        	srai	a11, a11, 31
    1fe8:	c0bbd0        	sub	a11, a11, a13
    1feb:	c0bbc0        	sub	a11, a11, a12
    1fee:	fee4e5        	call8	e3c <_saturate32>
    1ff1:	11f8           	l32i.n	a15, a1, 4
    1ff3:	04b8           	l32i.n	a11, a4, 0
    1ff5:	0c0c           	movi.n	a12, 0
    1ff7:	0ff8           	l32i.n	a15, a15, 0
    1ff9:	fb8c           	beqz.n	a11, 200c <fn_calc_sup_gain+0x2b8>
    1ffb:	0d0c           	movi.n	a13, 0
    1ffd:	53ada0        	max	a10, a13, a10
    2000:	21a8a0        	srai	a10, a10, 8
    2003:	0a2ab7        	blt	a10, a11, 2011 <fn_calc_sup_gain+0x2bd>
    2006:	f813a1        	l32r	a10, 54 (7fff <xtensa_fft8_32b+0xef>)
    2009:	000ac6        	j	2038 <fn_calc_sup_gain+0x2e4>

0000200c <fn_calc_sup_gain+0x2b8>:
    200c:	0a0c           	movi.n	a10, 0
    200e:	000986        	j	2038 <fn_calc_sup_gain+0x2e4>

00002011 <fn_calc_sup_gain+0x2bd>:
    2011:	368b34        	ae_cvtq48a32s	aeq2, a11
    2014:	360a34        	ae_cvtq48a32s	aeq0, a10
    2017:	40ebe0        	nsa	a14, a11
    201a:	8eed           	ae_sext16	a14, a14
    201c:	fc24fe8ecf 	{ ae_slaasq56s	aeq3, aeq0, a14; nop }
    2021:	fd84cf1eee 	{ addi	a14, a14, -15; ae_satq48s	aeq1, aeq3 }
    2026:	fc24feae0f 	{ ae_slaasq56s	aeq0, aeq2, a14; nop }
    202b:	ff00ff1aef 	{ ae_trunca32q48	a10, aeq1; ae_satq48s	aeq3, aeq0 }
    2030:	36bd04        	ae_trunca32q48	a13, aeq3
    2033:	d2aad0        	quos	a10, a10, a13
    2036:	aaad           	ae_clamps16	a10, a10
    2038:	71a9           	s32i.n	a10, a1, 28
    203a:	21a8f0        	srai	a10, a15, 8
    203d:	7b8c           	beqz.n	a11, 2048 <fn_calc_sup_gain+0x2f4>
    203f:	0a2ab7        	blt	a10, a11, 204d <fn_calc_sup_gain+0x2f9>
    2042:	f804a1        	l32r	a10, 54 (7fff <xtensa_fft8_32b+0xef>)
    2045:	000ac6        	j	2074 <fn_calc_sup_gain+0x320>

00002048 <fn_calc_sup_gain+0x2f4>:
    2048:	0a0c           	movi.n	a10, 0
    204a:	000986        	j	2074 <fn_calc_sup_gain+0x320>

0000204d <fn_calc_sup_gain+0x2f9>:
    204d:	360b34        	ae_cvtq48a32s	aeq0, a11
    2050:	368a34        	ae_cvtq48a32s	aeq2, a10
    2053:	40ebe0        	nsa	a14, a11
    2056:	8eed           	ae_sext16	a14, a14
    2058:	fc24feae4f 	{ ae_slaasq56s	aeq1, aeq2, a14; nop }
    205d:	ff04cf1eee 	{ addi	a14, a14, -15; ae_satq48s	aeq3, aeq1 }
    2062:	fc24fe8e8f 	{ ae_slaasq56s	aeq2, aeq0, a14; nop }
    2067:	fd80ff3aef 	{ ae_trunca32q48	a10, aeq3; ae_satq48s	aeq1, aeq2 }
    206c:	369d04        	ae_trunca32q48	a13, aeq1
    206f:	d2aad0        	quos	a10, a10, a13
    2072:	aaad           	ae_clamps16	a10, a10
    2074:	91f8           	l32i.n	a15, a1, 36
    2076:	404f10        	ssai	31
    2079:	118a00        	slli	a8, a10, 16
    207c:	3fed           	ae_l16si.n	a14, a15, 2
    207e:	218880        	srai	a8, a8, 8
    2081:	029ff2        	l16si	a15, a15, 4
    2084:	11ee00        	slli	a14, a14, 16
    2087:	21e8e0        	srai	a14, a14, 8
    208a:	82de80        	mull	a13, a14, a8
    208d:	b2ee80        	mulsh	a14, a14, a8
    2090:	7188           	l32i.n	a8, a1, 28
    2092:	11ff00        	slli	a15, a15, 16
    2095:	21f8f0        	srai	a15, a15, 8
    2098:	118800        	slli	a8, a8, 16
    209b:	218880        	srai	a8, a8, 8
    209e:	82bf80        	mull	a11, a15, a8
    20a1:	b2ff80        	mulsh	a15, a15, a8
    20a4:	81eed0        	src	a14, a14, a13
    20a7:	81ffb0        	src	a15, a15, a11
    20aa:	404810        	ssai	24
    20ad:	eefa           	add.n	a14, a14, a15
    20af:	11bbf0        	slli	a11, a11, 1
    20b2:	90bdb0        	addx2	a11, a13, a11
    20b5:	ab6a           	add.n	a10, a11, a6
    20b7:	11ddf0        	slli	a13, a13, 1
    20ba:	62dbd0        	saltu	a13, a11, a13
    20bd:	ddea           	add.n	a13, a13, a14
    20bf:	62bab0        	saltu	a11, a10, a11
    20c2:	cdca           	add.n	a12, a13, a12
    20c4:	bbca           	add.n	a11, a11, a12
    20c6:	81aba0        	src	a10, a11, a10
    20c9:	31b8b0        	srai	a11, a11, 24
    20cc:	81bba0        	src	a11, a11, a10
    20cf:	11aa80        	slli	a10, a10, 8
    20d2:	feda65        	call8	e78 <_saturate24>
    20d5:	404700        	ssai	7
    20d8:	2128a0        	srai	a2, a10, 8
    20db:	82ba20        	mull	a11, a10, a2
    20de:	b2ca20        	mulsh	a12, a10, a2
    20e1:	319f20        	srai	a9, a2, 31
    20e4:	8199           	s32i.n	a9, a1, 32
    20e6:	81bcb0        	src	a11, a12, a11
    20e9:	404010        	ssai	16
    20ec:	80ab70        	add	a10, a11, a7
    20ef:	21c7c0        	srai	a12, a12, 7
    20f2:	62bab0        	saltu	a11, a10, a11
    20f5:	bbca           	add.n	a11, a11, a12
    20f7:	81aba0        	src	a10, a11, a10
    20fa:	31b0b0        	srai	a11, a11, 16
    20fd:	fed3e5        	call8	e3c <_saturate32>
    2100:	81d8           	l32i.n	a13, a1, 32
    2102:	21a9           	s32i.n	a10, a1, 8
    2104:	c27a           	add.n	a12, a2, a7
    2106:	62bc20        	saltu	a11, a12, a2
    2109:	20acc0        	or	a10, a12, a12
    210c:	80bbd0        	add	a11, a11, a13
    210f:	fed2e5        	call8	e3c <_saturate32>
    2112:	71b8           	l32i.n	a11, a1, 28
    2114:	31a9           	s32i.n	a10, a1, 12
    2116:	11fb80        	slli	a15, a11, 8
    2119:	31b8b0        	srai	a11, a11, 24
    211c:	0fad           	mov.n	a10, a15
    211e:	fed1e5        	call8	e3c <_saturate32>
    2121:	0acd           	mov.n	a12, a10
    2123:	aa7a           	add.n	a10, a10, a7
    2125:	62bac0        	saltu	a11, a10, a12
    2128:	31cfc0        	srai	a12, a12, 31
    212b:	bbca           	add.n	a11, a11, a12
    212d:	fed0e5        	call8	e3c <_saturate32>
    2130:	81e8           	l32i.n	a14, a1, 32
    2132:	21c8           	l32i.n	a12, a1, 8
    2134:	01a9           	s32i.n	a10, a1, 0
    2136:	51c9           	s32i.n	a12, a1, 20
    2138:	dc2a           	add.n	a13, a12, a2
    213a:	62bdc0        	saltu	a11, a13, a12
    213d:	0dad           	mov.n	a10, a13
    213f:	31cfc0        	srai	a12, a12, 31
    2142:	41c9           	s32i.n	a12, a1, 16
    2144:	ccea           	add.n	a12, a12, a14
    2146:	bbca           	add.n	a11, a11, a12
    2148:	fecf25        	call8	e3c <_saturate32>
    214b:	0abd           	mov.n	a11, a10
    214d:	31cfa0        	srai	a12, a10, 31
    2150:	ccca           	add.n	a12, a12, a12
    2152:	aaaa           	add.n	a10, a10, a10
    2154:	62bab0        	saltu	a11, a10, a11
    2157:	bbca           	add.n	a11, a11, a12
    2159:	fece25        	call8	e3c <_saturate32>
    215c:	01b8           	l32i.n	a11, a1, 0
    215e:	404800        	ssai	8
    2161:	31dfa0        	srai	a13, a10, 31
    2164:	5b9c           	beqz.n	a11, 217d <fn_calc_sup_gain+0x429>
    2166:	01dac2        	addmi	a12, a10, 0x100
    2169:	80ccc2        	addi	a12, a12, -128
    216c:	62aca0        	saltu	a10, a12, a10
    216f:	aada           	add.n	a10, a10, a13
    2171:	81aac0        	src	a10, a10, a12
    2174:	0a2ab7        	blt	a10, a11, 2182 <fn_calc_sup_gain+0x42e>
    2177:	f7b7a1        	l32r	a10, 54 (7fff <xtensa_fft8_32b+0xef>)
    217a:	000ac6        	j	21a9 <fn_calc_sup_gain+0x455>

0000217d <fn_calc_sup_gain+0x429>:
    217d:	0a0c           	movi.n	a10, 0
    217f:	000986        	j	21a9 <fn_calc_sup_gain+0x455>

00002182 <fn_calc_sup_gain+0x42e>:
    2182:	368b34        	ae_cvtq48a32s	aeq2, a11
    2185:	360a34        	ae_cvtq48a32s	aeq0, a10
    2188:	40ebd0        	nsa	a13, a11
    218b:	8ddd           	ae_sext16	a13, a13
    218d:	fc24fe8dcf 	{ ae_slaasq56s	aeq3, aeq0, a13; nop }
    2192:	fd84cf1dde 	{ addi	a13, a13, -15; ae_satq48s	aeq1, aeq3 }
    2197:	fc24fead0f 	{ ae_slaasq56s	aeq0, aeq2, a13; nop }
    219c:	ff00ff1aef 	{ ae_trunca32q48	a10, aeq1; ae_satq48s	aeq3, aeq0 }
    21a1:	36bc04        	ae_trunca32q48	a12, aeq3
    21a4:	d2aac0        	quos	a10, a10, a12
    21a7:	aaad           	ae_clamps16	a10, a10
    21a9:	31bba0        	srai	a11, a10, 27
    21ac:	11eab0        	slli	a14, a10, 5
    21af:	0ead           	mov.n	a10, a14
    21b1:	fec8a5        	call8	e3c <_saturate32>
    21b4:	404300        	ssai	3
    21b7:	4188           	l32i.n	a8, a1, 16
    21b9:	51e8           	l32i.n	a14, a1, 20
    21bb:	0abd           	mov.n	a11, a10
    21bd:	31cfb0        	srai	a12, a11, 31
    21c0:	fe4b           	addi.n	a15, a14, 4
    21c2:	62efe0        	saltu	a14, a15, a14
    21c5:	ee8a           	add.n	a14, a14, a8
    21c7:	81eef0        	src	a14, a14, a15
    21ca:	aaea           	add.n	a10, a10, a14
    21cc:	31dfe0        	srai	a13, a14, 31
    21cf:	ccda           	add.n	a12, a12, a13
    21d1:	62bab0        	saltu	a11, a10, a11
    21d4:	80bbc0        	add	a11, a11, a12
    21d7:	fec665        	call8	e3c <_saturate32>
    21da:	f7c981        	l32r	a8, 100 (cd0 <fxsqrt_ie>)
    21dd:	0008e0        	callx8	a8
    21e0:	0abd           	mov.n	a11, a10
    21e2:	11aa70        	slli	a10, a10, 9
    21e5:	31b7b0        	srai	a11, a11, 23
    21e8:	fec525        	call8	e3c <_saturate32>
    21eb:	0abd           	mov.n	a11, a10
    21ed:	81d8           	l32i.n	a13, a1, 32
    21ef:	aa2a           	add.n	a10, a10, a2
    21f1:	31cfb0        	srai	a12, a11, 31
    21f4:	ccda           	add.n	a12, a12, a13
    21f6:	62bab0        	saltu	a11, a10, a11
    21f9:	bbca           	add.n	a11, a11, a12
    21fb:	fec425        	call8	e3c <_saturate32>
    21fe:	31b8           	l32i.n	a11, a1, 12
    2200:	0a2d           	mov.n	a2, a10
    2202:	31cfb0        	srai	a12, a11, 31
    2205:	ebba           	add.n	a14, a11, a11
    2207:	0ead           	mov.n	a10, a14
    2209:	ccca           	add.n	a12, a12, a12
    220b:	62beb0        	saltu	a11, a14, a11
    220e:	bbca           	add.n	a11, a11, a12
    2210:	fec2a5        	call8	e3c <_saturate32>
    2213:	7a8c           	beqz.n	a10, 221e <fn_calc_sup_gain+0x4ca>
    2215:	0a22a7        	blt	a2, a10, 2223 <fn_calc_sup_gain+0x4cf>
    2218:	f78fa1        	l32r	a10, 54 (7fff <xtensa_fft8_32b+0xef>)
    221b:	000ac6        	j	224a <fn_calc_sup_gain+0x4f6>

0000221e <fn_calc_sup_gain+0x4ca>:
    221e:	0a0c           	movi.n	a10, 0
    2220:	000986        	j	224a <fn_calc_sup_gain+0x4f6>

00002223 <fn_calc_sup_gain+0x4cf>:
    2223:	360a34        	ae_cvtq48a32s	aeq0, a10
    2226:	368234        	ae_cvtq48a32s	aeq2, a2
    2229:	40eac0        	nsa	a12, a10
    222c:	8ccd           	ae_sext16	a12, a12
    222e:	fc24feac4f 	{ ae_slaasq56s	aeq1, aeq2, a12; nop }
    2233:	ff04cf1cce 	{ addi	a12, a12, -15; ae_satq48s	aeq3, aeq1 }
    2238:	fc24fe8c8f 	{ ae_slaasq56s	aeq2, aeq0, a12; nop }
    223d:	fd80ff3aef 	{ ae_trunca32q48	a10, aeq3; ae_satq48s	aeq1, aeq2 }
    2242:	369b04        	ae_trunca32q48	a11, aeq1
    2245:	d2aab0        	quos	a10, a10, a11
    2248:	aaad           	ae_clamps16	a10, a10
    224a:	91b8           	l32i.n	a11, a1, 36
    224c:	65ad           	ae_s16i.n	a10, a5, 0
    224e:	039bb2        	l16si	a11, a11, 6
    2251:	0c0c           	movi.n	a12, 0
    2253:	03aab7        	bge	a10, a11, 225a <fn_calc_sup_gain+0x506>
    2256:	0bad           	mov.n	a10, a11
    2258:	65bd           	ae_s16i.n	a11, a5, 0

0000225a <fn_calc_sup_gain+0x506>:
    225a:	404f10        	ssai	31
    225d:	11da00        	slli	a13, a10, 16
    2260:	21d8d0        	srai	a13, a13, 8
    2263:	82add0        	mull	a10, a13, a13
    2266:	b2ddd0        	mulsh	a13, a13, a13
    2269:	11baf0        	slli	a11, a10, 1
    226c:	81dda0        	src	a13, a13, a10
    226f:	cdca           	add.n	a12, a13, a12
    2271:	90aa60        	addx2	a10, a10, a6
    2274:	62bab0        	saltu	a11, a10, a11
    2277:	404810        	ssai	24
    227a:	bbca           	add.n	a11, a11, a12
    227c:	81aba0        	src	a10, a11, a10
    227f:	31b8b0        	srai	a11, a11, 24
    2282:	81bba0        	src	a11, a11, a10
    2285:	11aa80        	slli	a10, a10, 8
    2288:	febee5        	call8	e78 <_saturate24>
    228b:	1128           	l32i.n	a2, a1, 4
    228d:	03c8           	l32i.n	a12, a3, 0
    228f:	404f10        	ssai	31
    2292:	21d8a0        	srai	a13, a10, 8
    2295:	21c8c0        	srai	a12, a12, 8
    2298:	82acd0        	mull	a10, a12, a13
    229b:	b2ccd0        	mulsh	a12, a12, a13
    229e:	11baf0        	slli	a11, a10, 1
    22a1:	81cca0        	src	a12, a12, a10
    22a4:	90aa60        	addx2	a10, a10, a6
    22a7:	62bab0        	saltu	a11, a10, a11
    22aa:	404810        	ssai	24
    22ad:	bbca           	add.n	a11, a11, a12
    22af:	81aba0        	src	a10, a11, a10
    22b2:	31b8b0        	srai	a11, a11, 24
    22b5:	81bba0        	src	a11, a11, a10
    22b8:	11aa80        	slli	a10, a10, 8
    22bb:	febbe5        	call8	e78 <_saturate24>
    22be:	444b           	addi.n	a4, a4, 4
    22c0:	334b           	addi.n	a3, a3, 4
    22c2:	552b           	addi.n	a5, a5, 2
    22c4:	61d8           	l32i.n	a13, a1, 24
    22c6:	09e2a4        	ae_s32ip	a10, a2, 4
    22c9:	1129           	s32i.n	a2, a1, 4
    22cb:	dd0b           	addi.n	a13, a13, -1
    22cd:	61d9           	s32i.n	a13, a1, 24
    22cf:	d05d56        	bnez	a13, 1fd8 <fn_calc_sup_gain+0x284>
    22d2:	f01d           	retw.n

000022d4 <fn_calc_jnd_gain>:
    22d4:	018136        	entry	a1, 192
    22d7:	06cd           	mov.n	a12, a6
    22d9:	f77181        	l32r	a8, a0 (d560 <all_amt_tab>)
    22dc:	a07660        	addx4	a7, a6, a6
    22df:	03ad           	mov.n	a10, a3
    22e1:	05dd           	mov.n	a13, a5
    22e3:	21d9           	s32i.n	a13, a1, 8
    22e5:	065d           	mov.n	a5, a6
    22e7:	04d232        	addmi	a3, a2, 0x400
    22ea:	3338           	l32i.n	a3, a3, 12
    22ec:	b07780        	addx8	a7, a7, a8
    22ef:	277d           	ae_l16si.n	a7, a7, 0
    22f1:	02d3b2        	addmi	a11, a3, 0x200
    22f4:	f78481        	l32r	a8, 104 (eb8 <mel_filter>)
    22f7:	04d362        	addmi	a6, a3, 0x400
    22fa:	0361b2        	s32i	a11, a1, 12
    22fd:	0008e0        	callx8	a8
    2300:	04ad           	mov.n	a10, a4
    2302:	f78081        	l32r	a8, 104 (eb8 <mel_filter>)
    2305:	03bd           	mov.n	a11, a3
    2307:	05cd           	mov.n	a12, a5
    2309:	0008e0        	callx8	a8
    230c:	229d           	ae_l16si.n	a9, a2, 0
    230e:	a28b           	addi.n	a10, a2, 8
    2310:	51a9           	s32i.n	a10, a1, 20
    2312:	1ef916        	beqz	a9, 2505 <fn_calc_jnd_gain+0x231>
    2315:	166172        	s32i	a7, a1, 88
    2318:	1169           	s32i.n	a6, a1, 4
    231a:	c90b           	addi.n	a12, a9, -1
    231c:	28fc16        	beqz	a12, 25af <fn_calc_jnd_gain+0x2db>
    231f:	0139           	s32i.n	a3, a1, 0
    2321:	176152        	s32i	a5, a1, 92
    2324:	162192        	l32i	a9, a1, 88
    2327:	3178           	l32i.n	a7, a1, 12
    2329:	78c1d2        	addi	a13, a1, 120
    232c:	0292f2        	l16si	a15, a2, 4
    232f:	32ed           	ae_l16si.n	a14, a2, 2
    2331:	034d           	mov.n	a4, a3
    2333:	0a6d           	mov.n	a6, a10
    2335:	50a604        	ae_lp24f.iu	aep2, a6, 0
    2338:	509404        	ae_lp24f.iu	aep1, a4, 0
    233b:	300ef4        	ae_cvtp24a16x2.ll	aep0, a14, a15
    233e:	560d94        	ae_sp24x2s.i	aep0, a13, -56
    2341:	508704        	ae_lp24f.iu	aep0, a7, 0
    2344:	0219e6        	bgei	a9, 1, 234a <fn_calc_jnd_gain+0x76>
    2347:	006a06        	j	24f3 <fn_calc_jnd_gain+0x21f>
    234a:	fd2c30113e 	{ l32i	a3, a1, 4; ae_cvtq48p24s.l	aeq1, aep1 }
    234f:	f73e81        	l32r	a8, 48 (8000 <xtensa_fft8_32b+0xf0>)
    2352:	fe0c3ec83f 	{ ae_cvtq48a32s	aeq0, a8; ae_cvtq48p24s.l	aeq2, aep0 }
    2357:	fa36d1593f 	{ addx2	a5, a9, a3; ae_subq56	aeq2, aeq2, aeq1 }

0000235c <fn_calc_jnd_gain+0x88>:
    235c:	06ca44        	ae_satq48s	aeq3, aeq2
    235f:	0a9084        	ae_zeroq56	aeq2
    2362:	09a304        	ae_ltq56s	b0, aeq3, aeq2
    2365:	030490        	rsr.br	a9
    2368:	049090        	extui	a9, a9, 0, 1
    236b:	19cc           	bnez.n	a9, 2370 <fn_calc_jnd_gain+0x9c>
    236d:	06bb34        	ae_movq56	aeq2, aeq3

00002370 <fn_calc_jnd_gain+0x9c>:
    2370:	35a234        	ae_sraiq56	aeq2, aeq2, 8
    2373:	09a514        	ae_leq56s	b1, aeq1, aeq2
    2376:	365904        	ae_nsaq56s	a9, aeq1
    2379:	f736f1        	l32r	a15, 54 (7fff <xtensa_fft8_32b+0xef>)
    237c:	020176        	bf	b1, 2382 <fn_calc_jnd_gain+0xae>
    237f:	000806        	j	23a3 <fn_calc_jnd_gain+0xcf>

00002382 <fn_calc_jnd_gain+0xae>:
    2382:	f8c992        	addi	a9, a9, -8
    2385:	899d           	ae_sext16	a9, a9
    2387:	fc24fea9cf 	{ ae_slaasq56s	aeq3, aeq2, a9; nop }
    238c:	fe84cf199e 	{ addi	a9, a9, -15; ae_satq48s	aeq2, aeq3 }
    2391:	fc24fe99cf 	{ ae_slaasq56s	aeq3, aeq1, a9; nop }
    2396:	fe84ff2fef 	{ ae_trunca32q48	a15, aeq2; ae_satq48s	aeq2, aeq3 }
    239b:	36a804        	ae_trunca32q48	a8, aeq2
    239e:	d2ff80        	quos	a15, a15, a8
    23a1:	affd           	ae_clamps16	a15, a15

000023a3 <fn_calc_jnd_gain+0xcf>:
    23a3:	fe4c3f1baf 	{ ae_nsaq56s	a11, aeq1; ae_cvtq48p24s.l	aeq2, aep2 }
    23a8:	35a234        	ae_sraiq56	aeq2, aeq2, 8
    23ab:	09a524        	ae_leq56s	b2, aeq1, aeq2
    23ae:	f72991        	l32r	a9, 54 (7fff <xtensa_fft8_32b+0xef>)
    23b1:	f8cbb2        	addi	a11, a11, -8
    23b4:	020276        	bf	b2, 23ba <fn_calc_jnd_gain+0xe6>
    23b7:	000746        	j	23d8 <fn_calc_jnd_gain+0x104>

000023ba <fn_calc_jnd_gain+0xe6>:
    23ba:	8bbd           	ae_sext16	a11, a11
    23bc:	fc24feabcf 	{ ae_slaasq56s	aeq3, aeq2, a11; nop }
    23c1:	fe84cf1bbe 	{ addi	a11, a11, -15; ae_satq48s	aeq2, aeq3 }
    23c6:	fc24fe9bcf 	{ ae_slaasq56s	aeq3, aeq1, a11; nop }
    23cb:	fe84ff29ef 	{ ae_trunca32q48	a9, aeq2; ae_satq48s	aeq2, aeq3 }
    23d0:	36aa04        	ae_trunca32q48	a10, aeq2
    23d3:	d299a0        	quos	a9, a9, a10
    23d6:	a99d           	ae_clamps16	a9, a9

000023d8 <fn_calc_jnd_gain+0x104>:
    23d8:	304994        	ae_cvtp24a16x2.ll	aep4, a9, a9
    23db:	78c1b2        	addi	a11, a1, 120
    23de:	543b94        	ae_lp24x2.i	aep3, a11, -56
    23e1:	e97098afff 	{ ae_cvtp24a16x2.ll	aep2, a15, a15; ae_mulfp24s.hh	aeq2, aep4, aep3 }
    23e6:	01a334        	ae_mulafp24s.ll	aeq2, aep2, aep3
    23e9:	118f80        	slli	a8, a15, 8
    23ec:	1bad14        	ae_roundsp24q48asym	aep1, aeq2
    23ef:	019144        	ae_mulfp24s.hh	aeq2, aep1, aep1
    23f2:	0a4184        	ae_cvtq48p24s.l	aeq1, aep1
    23f5:	ff347ec8bf 	{ ae_cvtq48a32s	aeq2, a8; ae_roundsq32asym	aeq3, aeq2 }
    23fa:	fa723b124f 	{ ae_sraiq56	aeq1, aeq1, 8; ae_addq56	aeq2, aeq2, aeq0 }
    23ff:	fbee3a3b1f 	{ ae_sq56s.i	aeq3, a11, 8; ae_addq56	aeq3, aeq1, aeq3 }
    2404:	ff84fa1baf 	{ ae_sq56s.i	aeq1, a11, -48; ae_satq48s	aeq3, aeq3 }
    2409:	f96a3b32cf 	{ ae_sraiq56	aeq3, aeq3, 8; ae_addq56	aeq1, aeq1, aeq0 }
    240e:	ff3c7f29af 	{ ae_nsaq56s	a9, aeq2; ae_roundsq32asym	aeq3, aeq3 }
    2413:	d5da3a1bbf 	{ ae_sq56s.i	aeq1, a11, -40; ae_leq56s	b8, aeq2, aeq3 }
    2418:	614b14        	ae_lq56.i	aeq1, a11, 8
    241b:	f8c992        	addi	a9, a9, -8
    241e:	080876        	bf	b8, 242a <fn_calc_jnd_gain+0x156>
    2421:	f70cf1        	l32r	a15, 54 (7fff <xtensa_fft8_32b+0xef>)
    2424:	560be4        	ae_sp24x2s.i	aep0, a11, -16
    2427:	000846        	j	244c <fn_calc_jnd_gain+0x178>

0000242a <fn_calc_jnd_gain+0x156>:
    242a:	899d           	ae_sext16	a9, a9
    242c:	fc24feb9cf 	{ ae_slaasq56s	aeq3, aeq3, a9; nop }
    2431:	ff84cf199e 	{ addi	a9, a9, -15; ae_satq48s	aeq3, aeq3 }
    2436:	36bf04        	ae_trunca32q48	a15, aeq3
    2439:	fc24fea9cf 	{ ae_slaasq56s	aeq3, aeq2, a9; nop }
    243e:	06cb44        	ae_satq48s	aeq3, aeq3
    2441:	36b804        	ae_trunca32q48	a8, aeq3
    2444:	560be4        	ae_sp24x2s.i	aep0, a11, -16
    2447:	d2ff80        	quos	a15, a15, a8
    244a:	affd           	ae_clamps16	a15, a15

0000244c <fn_calc_jnd_gain+0x178>:
    244c:	f72d81        	l32r	a8, 100 (cd0 <fxsqrt_ie>)
    244f:	3590f4        	ae_sraiq56	aeq2, aeq1, 3
    2452:	364f34        	ae_cvtq48a32s	aeq1, a15
    2455:	fc347a915f 	{ ae_slliq56	aeq1, aeq1, 5; ae_roundsq32asym	aeq0, aeq2 }
    245a:	0109c4        	ae_addq56	aeq0, aeq0, aeq1
    245d:	368a04        	ae_trunca32q48	a10, aeq0
    2460:	0008e0        	callx8	a8
    2463:	f6f9d1        	l32r	a13, 48 (8000 <xtensa_fft8_32b+0xf0>)
    2466:	78c1c2        	addi	a12, a1, 120
    2469:	11ba70        	slli	a11, a10, 9
    246c:	364b34        	ae_cvtq48a32s	aeq1, a11
    246f:	61cca4        	ae_lq56.i	aeq3, a12, -48
    2472:	fb7e3dacbf 	{ ae_lq56.i	aeq1, a12, -40; ae_addq56	aeq3, aeq3, aeq1 }
    2477:	355054        	ae_slliq56	aeq1, aeq1, 1
    247a:	068944        	ae_satq48s	aeq2, aeq1
    247d:	fd84ff29af 	{ ae_nsaq56s	a9, aeq2; ae_satq48s	aeq1, aeq3 }
    2482:	d5ca7ecd3f 	{ ae_cvtq48a32s	aeq0, a13; ae_leq56s	b9, aeq2, aeq1 }
    2487:	540ce4        	ae_lp24x2.i	aep0, a12, -16
    248a:	f8c992        	addi	a9, a9, -8
    248d:	0a0976        	bf	b9, 249b <fn_calc_jnd_gain+0x1c7>
    2490:	f6f1f1        	l32r	a15, 54 (7fff <xtensa_fft8_32b+0xef>)
    2493:	f6f0e1        	l32r	a14, 54 (7fff <xtensa_fft8_32b+0xef>)
    2496:	63ed           	ae_s16i.n	a14, a3, 0
    2498:	0007c6        	j	24bb <fn_calc_jnd_gain+0x1e7>

0000249b <fn_calc_jnd_gain+0x1c7>:
    249b:	899d           	ae_sext16	a9, a9
    249d:	fc24fe99cf 	{ ae_slaasq56s	aeq3, aeq1, a9; nop }
    24a2:	fd84cf199e 	{ addi	a9, a9, -15; ae_satq48s	aeq1, aeq3 }
    24a7:	fc24fea9cf 	{ ae_slaasq56s	aeq3, aeq2, a9; nop }
    24ac:	fd84ff1fef 	{ ae_trunca32q48	a15, aeq1; ae_satq48s	aeq1, aeq3 }
    24b1:	369804        	ae_trunca32q48	a8, aeq1
    24b4:	d2ff80        	quos	a15, a15, a8
    24b7:	affd           	ae_clamps16	a15, a15
    24b9:	63fd           	ae_s16i.n	a15, a3, 0

000024bb <fn_calc_jnd_gain+0x1e7>:
    24bb:	0392e2        	l16si	a14, a2, 6
    24be:	03afe7        	bge	a15, a14, 24c5 <fn_calc_jnd_gain+0x1f1>
    24c1:	0efd           	mov.n	a15, a14
    24c3:	63ed           	ae_s16i.n	a14, a3, 0

000024c5 <fn_calc_jnd_gain+0x1f1>:
    24c5:	307ff4        	ae_cvtp24a16x2.ll	aep7, a15, a15
    24c8:	01f774        	ae_mulfp24s.ll	aeq2, aep7, aep7
    24cb:	1bad64        	ae_roundsp24q48asym	aep6, aeq2
    24ce:	016874        	ae_mulfp24s.ll	aeq1, aep6, aep0
    24d1:	fa6fc0233e 	{ addi	a3, a3, 2; ae_roundsp24q48asym	aep5, aeq1 }
    24d6:	52d604        	ae_sp24f.l.iu	aep5, a6, 0
    24d9:	509414        	ae_lp24f.iu	aep1, a4, 4
    24dc:	fd2c2e871f 	{ ae_lp24f.iu	aep0, a7, 4; ae_cvtq48p24s.l	aeq1, aep1 }
    24e1:	fe0c15a35f 	{ sub	a10, a3, a5; ae_cvtq48p24s.l	aeq2, aep0 }
    24e6:	fa36eea61f 	{ ae_lp24f.iu	aep2, a6, 4; ae_subq56	aeq2, aeq2, aeq1 }
    24eb:	e6da56        	bnez	a10, 235c <fn_calc_jnd_gain+0x88>
    24ee:	172152        	l32i	a5, a1, 92
    24f1:	0138           	l32i.n	a3, a1, 0

000024f3 <fn_calc_jnd_gain+0x21f>:
    24f3:	51a8           	l32i.n	a10, a1, 20
    24f5:	11c8           	l32i.n	a12, a1, 4
    24f7:	21d8           	l32i.n	a13, a1, 8
    24f9:	f70381        	l32r	a8, 108 (1004 <calc_amt>)
    24fc:	05ed           	mov.n	a14, a5
    24fe:	03bd           	mov.n	a11, a3
    2500:	0008e0        	callx8	a8
    2503:	f01d           	retw.n

00002505 <fn_calc_jnd_gain+0x231>:
    2505:	064d           	mov.n	a4, a6
    2507:	51e8           	l32i.n	a14, a1, 20
    2509:	31c8           	l32i.n	a12, a1, 12
    250b:	78c192        	addi	a9, a1, 120
    250e:	0292b2        	l16si	a11, a2, 4
    2511:	32ad           	ae_l16si.n	a10, a2, 2
    2513:	300ab4        	ae_cvtp24a16x2.ll	aep0, a10, a11
    2516:	560994        	ae_sp24x2s.i	aep0, a9, -56
    2519:	601c04        	ae_lq32f.iu	aeq0, a12, 0
    251c:	609e04        	ae_lq32f.iu	aeq2, a14, 0
    251f:	20b330        	or	a11, a3, a3
    2522:	605b04        	ae_lq32f.iu	aeq1, a11, 0
    2525:	81a776        	loopgtz	a7, 25aa <fn_calc_jnd_gain+0x2d6>
    2528:	fb760781de 	{ addi	a13, a1, 120; ae_addq56	aeq3, aeq2, aeq1 }
    252d:	ff84f02d9f 	{ ae_lp24x2.i	aep2, a13, -56; ae_satq48s	aeq3, aeq3 }
    2532:	03aac4        	ae_mulfq32sp16s.h	aeq3, aeq3, aep2
    2535:	03a814        	ae_mulafq32sp16s.l	aeq3, aeq0, aep2
    2538:	f87fe032ae 	{ l16si	a10, a2, 6; ae_roundsp24q48asym	aep1, aeq3 }
    253d:	009fd4        	ae_cvta32p24.h	a15, aep1
    2540:	fa427f17ef 	{ ae_trunca32q48	a7, aeq1; ae_truncp24q48x2	aep5, aeq0, aeq0 }
    2545:	f6c3d1        	l32r	a13, 54 (7fff <xtensa_fft8_32b+0xef>)
    2548:	7f8c           	beqz.n	a15, 2553 <fn_calc_jnd_gain+0x27f>
    254a:	0a27f7        	blt	a7, a15, 2558 <fn_calc_jnd_gain+0x284>
    254d:	f6c1f1        	l32r	a15, 54 (7fff <xtensa_fft8_32b+0xef>)
    2550:	000b46        	j	2581 <fn_calc_jnd_gain+0x2ad>

00002553 <fn_calc_jnd_gain+0x27f>:
    2553:	0f0c           	movi.n	a15, 0
    2555:	000a06        	j	2581 <fn_calc_jnd_gain+0x2ad>

00002558 <fn_calc_jnd_gain+0x284>:
    2558:	364f34        	ae_cvtq48a32s	aeq1, a15
    255b:	36c734        	ae_cvtq48a32s	aeq3, a7
    255e:	40ef90        	nsa	a9, a15
    2561:	899d           	ae_sext16	a9, a9
    2563:	fc24feb98f 	{ ae_slaasq56s	aeq2, aeq3, a9; nop }
    2568:	ff80cf199e 	{ addi	a9, a9, -15; ae_satq48s	aeq3, aeq2 }
    256d:	fc24fe998f 	{ ae_slaasq56s	aeq2, aeq1, a9; nop }
    2572:	fd80ff3fef 	{ ae_trunca32q48	a15, aeq3; ae_satq48s	aeq1, aeq2 }
    2577:	369804        	ae_trunca32q48	a8, aeq1
    257a:	f03d           	nop.n
    257c:	d2ff80        	quos	a15, a15, a8
    257f:	affd           	ae_clamps16	a15, a15
    2581:	c0ddf0        	sub	a13, a13, a15
    2584:	8ddd           	ae_sext16	a13, a13
    2586:	53aad0        	max	a10, a10, a13
    2589:	306aa4        	ae_cvtp24a16x2.ll	aep6, a10, a10
    258c:	01e644        	ae_mulfp24s.hh	aeq2, aep6, aep6
    258f:	1bad44        	ae_roundsp24q48asym	aep4, aeq2
    2592:	014d44        	ae_mulfp24s.hh	aeq1, aep4, aep5
    2595:	09c4a4        	ae_s16ip	a10, a4, 2
    2598:	1b9d34        	ae_roundsp24q48asym	aep3, aeq1
    259b:	0a0384        	ae_cvtq48p24s.l	aeq0, aep3
    259e:	624e04        	ae_sq32f.iu	aeq0, a14, 0
    25a1:	609e14        	ae_lq32f.iu	aeq2, a14, 4
    25a4:	601c14        	ae_lq32f.iu	aeq0, a12, 4
    25a7:	605b14        	ae_lq32f.iu	aeq1, a11, 4

000025aa <fn_calc_jnd_gain+0x2d6>:
    25aa:	1169           	s32i.n	a6, a1, 4
    25ac:	ffd0c6        	j	24f3 <fn_calc_jnd_gain+0x21f>

000025af <fn_calc_jnd_gain+0x2db>:
    25af:	0139           	s32i.n	a3, a1, 0
    25b1:	176152        	s32i	a5, a1, 92
    25b4:	0217e6        	bgei	a7, 1, 25ba <fn_calc_jnd_gain+0x2e6>
    25b7:	ffce06        	j	24f3 <fn_calc_jnd_gain+0x21f>
    25ba:	f6d041        	l32r	a4, fc (800000 <_end+0x7f2874>)
    25bd:	b1a9           	s32i.n	a10, a1, 44
    25bf:	3168           	l32i.n	a6, a1, 12
    25c1:	1138           	l32i.n	a3, a1, 4
    25c3:	e169           	s32i.n	a6, a1, 56
    25c5:	0168           	l32i.n	a6, a1, 0
    25c7:	905730        	addx2	a5, a7, a3
    25ca:	f69f71        	l32r	a7, 48 (8000 <xtensa_fft8_32b+0xf0>)

000025cd <fn_calc_jnd_gain+0x2f9>:
    25cd:	e1b8           	l32i.n	a11, a1, 56
    25cf:	06a8           	l32i.n	a10, a6, 0
    25d1:	0bb8           	l32i.n	a11, a11, 0
    25d3:	31dfa0        	srai	a13, a10, 31
    25d6:	c0aba0        	sub	a10, a11, a10
    25d9:	62cba0        	saltu	a12, a11, a10
    25dc:	31bfb0        	srai	a11, a11, 31
    25df:	c0bbd0        	sub	a11, a11, a13
    25e2:	c0bbc0        	sub	a11, a11, a12
    25e5:	fe8565        	call8	e3c <_saturate32>
    25e8:	06e8           	l32i.n	a14, a6, 0
    25ea:	0f0c           	movi.n	a15, 0
    25ec:	53ffa0        	max	a15, a15, a10
    25ef:	ae8c           	beqz.n	a14, 25fd <fn_calc_jnd_gain+0x329>
    25f1:	21f8f0        	srai	a15, a15, 8
    25f4:	0a2fe7        	blt	a15, a14, 2602 <fn_calc_jnd_gain+0x32e>
    25f7:	f697f1        	l32r	a15, 54 (7fff <xtensa_fft8_32b+0xef>)
    25fa:	000ac6        	j	2629 <fn_calc_jnd_gain+0x355>

000025fd <fn_calc_jnd_gain+0x329>:
    25fd:	0f0c           	movi.n	a15, 0
    25ff:	000986        	j	2629 <fn_calc_jnd_gain+0x355>

00002602 <fn_calc_jnd_gain+0x32e>:
    2602:	368e34        	ae_cvtq48a32s	aeq2, a14
    2605:	360f34        	ae_cvtq48a32s	aeq0, a15
    2608:	40ee90        	nsa	a9, a14
    260b:	899d           	ae_sext16	a9, a9
    260d:	fc24fe89cf 	{ ae_slaasq56s	aeq3, aeq0, a9; nop }
    2612:	fd84cf199e 	{ addi	a9, a9, -15; ae_satq48s	aeq1, aeq3 }
    2617:	fc24fea90f 	{ ae_slaasq56s	aeq0, aeq2, a9; nop }
    261c:	ff00ff1fef 	{ ae_trunca32q48	a15, aeq1; ae_satq48s	aeq3, aeq0 }
    2621:	36b804        	ae_trunca32q48	a8, aeq3
    2624:	d2ff80        	quos	a15, a15, a8
    2627:	affd           	ae_clamps16	a15, a15
    2629:	b1a8           	l32i.n	a10, a1, 44
    262b:	0aa8           	l32i.n	a10, a10, 0
    262d:	a1f9           	s32i.n	a15, a1, 40
    262f:	21f8a0        	srai	a15, a10, 8
    2632:	7e8c           	beqz.n	a14, 263d <fn_calc_jnd_gain+0x369>
    2634:	0a2fe7        	blt	a15, a14, 2642 <fn_calc_jnd_gain+0x36e>
    2637:	f687f1        	l32r	a15, 54 (7fff <xtensa_fft8_32b+0xef>)
    263a:	000b46        	j	266b <fn_calc_jnd_gain+0x397>

0000263d <fn_calc_jnd_gain+0x369>:
    263d:	0f0c           	movi.n	a15, 0
    263f:	000a06        	j	266b <fn_calc_jnd_gain+0x397>

00002642 <fn_calc_jnd_gain+0x36e>:
    2642:	360e34        	ae_cvtq48a32s	aeq0, a14
    2645:	368f34        	ae_cvtq48a32s	aeq2, a15
    2648:	40ee90        	nsa	a9, a14
    264b:	899d           	ae_sext16	a9, a9
    264d:	fc24fea94f 	{ ae_slaasq56s	aeq1, aeq2, a9; nop }
    2652:	ff04cf199e 	{ addi	a9, a9, -15; ae_satq48s	aeq3, aeq1 }
    2657:	fc24fe898f 	{ ae_slaasq56s	aeq2, aeq0, a9; nop }
    265c:	fd80ff3fef 	{ ae_trunca32q48	a15, aeq3; ae_satq48s	aeq1, aeq2 }
    2661:	369804        	ae_trunca32q48	a8, aeq1
    2664:	f03d           	nop.n
    2666:	d2ff80        	quos	a15, a15, a8
    2669:	affd           	ae_clamps16	a15, a15
    266b:	404f10        	ssai	31
    266e:	11ef00        	slli	a14, a15, 16
    2671:	32dd           	ae_l16si.n	a13, a2, 2
    2673:	a1f8           	l32i.n	a15, a1, 40
    2675:	21e8e0        	srai	a14, a14, 8
    2678:	11dd00        	slli	a13, a13, 16
    267b:	21d8d0        	srai	a13, a13, 8
    267e:	82cde0        	mull	a12, a13, a14
    2681:	b2dde0        	mulsh	a13, a13, a14
    2684:	0292e2        	l16si	a14, a2, 4
    2687:	11ff00        	slli	a15, a15, 16
    268a:	21f8f0        	srai	a15, a15, 8
    268d:	11ee00        	slli	a14, a14, 16
    2690:	21e8e0        	srai	a14, a14, 8
    2693:	82bef0        	mull	a11, a14, a15
    2696:	b2eef0        	mulsh	a14, a14, a15
    2699:	81ddc0        	src	a13, a13, a12
    269c:	81eeb0        	src	a14, a14, a11
    269f:	404810        	ssai	24
    26a2:	ddea           	add.n	a13, a13, a14
    26a4:	11bbf0        	slli	a11, a11, 1
    26a7:	90bcb0        	addx2	a11, a12, a11
    26aa:	ab4a           	add.n	a10, a11, a4
    26ac:	11ccf0        	slli	a12, a12, 1
    26af:	62cbc0        	saltu	a12, a11, a12
    26b2:	ccda           	add.n	a12, a12, a13
    26b4:	62bab0        	saltu	a11, a10, a11
    26b7:	bbca           	add.n	a11, a11, a12
    26b9:	81aba0        	src	a10, a11, a10
    26bc:	31b8b0        	srai	a11, a11, 24
    26bf:	81bba0        	src	a11, a11, a10
    26c2:	11aa80        	slli	a10, a10, 8
    26c5:	fe7b25        	call8	e78 <_saturate24>
    26c8:	404700        	ssai	7
    26cb:	21f8a0        	srai	a15, a10, 8
    26ce:	82baf0        	mull	a11, a10, a15
    26d1:	b2caf0        	mulsh	a12, a10, a15
    26d4:	d1f9           	s32i.n	a15, a1, 52
    26d6:	81bcb0        	src	a11, a12, a11
    26d9:	31fff0        	srai	a15, a15, 31
    26dc:	c1f9           	s32i.n	a15, a1, 48
    26de:	404010        	ssai	16
    26e1:	ab7a           	add.n	a10, a11, a7
    26e3:	21c7c0        	srai	a12, a12, 7
    26e6:	62bab0        	saltu	a11, a10, a11
    26e9:	bbca           	add.n	a11, a11, a12
    26eb:	81aba0        	src	a10, a11, a10
    26ee:	31b0b0        	srai	a11, a11, 16
    26f1:	fe74a5        	call8	e3c <_saturate32>
    26f4:	d1b8           	l32i.n	a11, a1, 52
    26f6:	c1d8           	l32i.n	a13, a1, 48
    26f8:	61a9           	s32i.n	a10, a1, 24
    26fa:	cb7a           	add.n	a12, a11, a7
    26fc:	0cad           	mov.n	a10, a12
    26fe:	62bcb0        	saltu	a11, a12, a11
    2701:	bbda           	add.n	a11, a11, a13
    2703:	fe73a5        	call8	e3c <_saturate32>
    2706:	a1b8           	l32i.n	a11, a1, 40
    2708:	71a9           	s32i.n	a10, a1, 28
    270a:	11cb80        	slli	a12, a11, 8
    270d:	31b8b0        	srai	a11, a11, 24
    2710:	0cad           	mov.n	a10, a12
    2712:	fe72a5        	call8	e3c <_saturate32>
    2715:	0acd           	mov.n	a12, a10
    2717:	aa7a           	add.n	a10, a10, a7
    2719:	62bac0        	saltu	a11, a10, a12
    271c:	31cfc0        	srai	a12, a12, 31
    271f:	bbca           	add.n	a11, a11, a12
    2721:	fe71a5        	call8	e3c <_saturate32>
    2724:	c1e8           	l32i.n	a14, a1, 48
    2726:	d1d8           	l32i.n	a13, a1, 52
    2728:	61c8           	l32i.n	a12, a1, 24
    272a:	41a9           	s32i.n	a10, a1, 16
    272c:	91c9           	s32i.n	a12, a1, 36
    272e:	dcda           	add.n	a13, a12, a13
    2730:	62bdc0        	saltu	a11, a13, a12
    2733:	0dad           	mov.n	a10, a13
    2735:	31cfc0        	srai	a12, a12, 31
    2738:	81c9           	s32i.n	a12, a1, 32
    273a:	ccea           	add.n	a12, a12, a14
    273c:	bbca           	add.n	a11, a11, a12
    273e:	fe6fe5        	call8	e3c <_saturate32>
    2741:	0abd           	mov.n	a11, a10
    2743:	31cfa0        	srai	a12, a10, 31
    2746:	ccca           	add.n	a12, a12, a12
    2748:	aaaa           	add.n	a10, a10, a10
    274a:	62bab0        	saltu	a11, a10, a11
    274d:	bbca           	add.n	a11, a11, a12
    274f:	fe6ee5        	call8	e3c <_saturate32>
    2752:	41f8           	l32i.n	a15, a1, 16
    2754:	404800        	ssai	8
    2757:	319fa0        	srai	a9, a10, 31
    275a:	5f9c           	beqz.n	a15, 2773 <fn_calc_jnd_gain+0x49f>
    275c:	01da82        	addmi	a8, a10, 0x100
    275f:	80c882        	addi	a8, a8, -128
    2762:	62e8a0        	saltu	a14, a8, a10
    2765:	ee9a           	add.n	a14, a14, a9
    2767:	81ee80        	src	a14, a14, a8
    276a:	0a2ef7        	blt	a14, a15, 2778 <fn_calc_jnd_gain+0x4a4>
    276d:	f639f1        	l32r	a15, 54 (7fff <xtensa_fft8_32b+0xef>)
    2770:	000bc6        	j	27a3 <fn_calc_jnd_gain+0x4cf>

00002773 <fn_calc_jnd_gain+0x49f>:
    2773:	0f0c           	movi.n	a15, 0
    2775:	000a86        	j	27a3 <fn_calc_jnd_gain+0x4cf>

00002778 <fn_calc_jnd_gain+0x4a4>:
    2778:	368f34        	ae_cvtq48a32s	aeq2, a15
    277b:	360e34        	ae_cvtq48a32s	aeq0, a14
    277e:	40ef90        	nsa	a9, a15
    2781:	899d           	ae_sext16	a9, a9
    2783:	fc24fe89cf 	{ ae_slaasq56s	aeq3, aeq0, a9; nop }
    2788:	fd84cf199e 	{ addi	a9, a9, -15; ae_satq48s	aeq1, aeq3 }
    278d:	fc24fea90f 	{ ae_slaasq56s	aeq0, aeq2, a9; nop }
    2792:	ff00ff1fef 	{ ae_trunca32q48	a15, aeq1; ae_satq48s	aeq3, aeq0 }
    2797:	36b804        	ae_trunca32q48	a8, aeq3
    279a:	f03d           	nop.n
    279c:	f03d           	nop.n
    279e:	d2ff80        	quos	a15, a15, a8
    27a1:	affd           	ae_clamps16	a15, a15
    27a3:	11afb0        	slli	a10, a15, 5
    27a6:	31bbf0        	srai	a11, a15, 27
    27a9:	fe6925        	call8	e3c <_saturate32>
    27ac:	404300        	ssai	3
    27af:	8188           	l32i.n	a8, a1, 32
    27b1:	91e8           	l32i.n	a14, a1, 36
    27b3:	0abd           	mov.n	a11, a10
    27b5:	31cfb0        	srai	a12, a11, 31
    27b8:	fe4b           	addi.n	a15, a14, 4
    27ba:	62efe0        	saltu	a14, a15, a14
    27bd:	ee8a           	add.n	a14, a14, a8
    27bf:	81eef0        	src	a14, a14, a15
    27c2:	aaea           	add.n	a10, a10, a14
    27c4:	31dfe0        	srai	a13, a14, 31
    27c7:	80ccd0        	add	a12, a12, a13
    27ca:	62bab0        	saltu	a11, a10, a11
    27cd:	bbca           	add.n	a11, a11, a12
    27cf:	fe66e5        	call8	e3c <_saturate32>
    27d2:	f64b81        	l32r	a8, 100 (cd0 <fxsqrt_ie>)
    27d5:	f03d           	nop.n
    27d7:	0008e0        	callx8	a8
    27da:	0abd           	mov.n	a11, a10
    27dc:	11aa70        	slli	a10, a10, 9
    27df:	31b7b0        	srai	a11, a11, 23
    27e2:	fe65a5        	call8	e3c <_saturate32>
    27e5:	0abd           	mov.n	a11, a10
    27e7:	c1d8           	l32i.n	a13, a1, 48
    27e9:	d1a8           	l32i.n	a10, a1, 52
    27eb:	31cfb0        	srai	a12, a11, 31
    27ee:	ccda           	add.n	a12, a12, a13
    27f0:	abaa           	add.n	a10, a11, a10
    27f2:	62bab0        	saltu	a11, a10, a11
    27f5:	bbca           	add.n	a11, a11, a12
    27f7:	fe6465        	call8	e3c <_saturate32>
    27fa:	71b8           	l32i.n	a11, a1, 28
    27fc:	1861a2        	s32i	a10, a1, 96
    27ff:	31dfb0        	srai	a13, a11, 31
    2802:	cbba           	add.n	a12, a11, a11
    2804:	0cad           	mov.n	a10, a12
    2806:	ddda           	add.n	a13, a13, a13
    2808:	62bcb0        	saltu	a11, a12, a11
    280b:	bbda           	add.n	a11, a11, a13
    280d:	fe62e5        	call8	e3c <_saturate32>
    2810:	1821f2        	l32i	a15, a1, 96
    2813:	7a8c           	beqz.n	a10, 281e <fn_calc_jnd_gain+0x54a>
    2815:	0a2fa7        	blt	a15, a10, 2823 <fn_calc_jnd_gain+0x54f>
    2818:	f60ff1        	l32r	a15, 54 (7fff <xtensa_fft8_32b+0xef>)
    281b:	000b86        	j	284d <fn_calc_jnd_gain+0x579>

0000281e <fn_calc_jnd_gain+0x54a>:
    281e:	0f0c           	movi.n	a15, 0
    2820:	000a46        	j	284d <fn_calc_jnd_gain+0x579>

00002823 <fn_calc_jnd_gain+0x54f>:
    2823:	360a34        	ae_cvtq48a32s	aeq0, a10
    2826:	368f34        	ae_cvtq48a32s	aeq2, a15
    2829:	40ea90        	nsa	a9, a10
    282c:	899d           	ae_sext16	a9, a9
    282e:	fc24fea94f 	{ ae_slaasq56s	aeq1, aeq2, a9; nop }
    2833:	ff04cf199e 	{ addi	a9, a9, -15; ae_satq48s	aeq3, aeq1 }
    2838:	fc24fe898f 	{ ae_slaasq56s	aeq2, aeq0, a9; nop }
    283d:	fd80ff3fef 	{ ae_trunca32q48	a15, aeq3; ae_satq48s	aeq1, aeq2 }
    2842:	369804        	ae_trunca32q48	a8, aeq1
    2845:	0020f0        	nop
    2848:	d2ff80        	quos	a15, a15, a8
    284b:	affd           	ae_clamps16	a15, a15
    284d:	63fd           	ae_s16i.n	a15, a3, 0
    284f:	0392e2        	l16si	a14, a2, 6
    2852:	03afe7        	bge	a15, a14, 2859 <fn_calc_jnd_gain+0x585>
    2855:	0efd           	mov.n	a15, a14
    2857:	63ed           	ae_s16i.n	a14, a3, 0

00002859 <fn_calc_jnd_gain+0x585>:
    2859:	404f10        	ssai	31
    285c:	11cf00        	slli	a12, a15, 16
    285f:	21c8c0        	srai	a12, a12, 8
    2862:	82acc0        	mull	a10, a12, a12
    2865:	b2ccc0        	mulsh	a12, a12, a12
    2868:	11baf0        	slli	a11, a10, 1
    286b:	81cca0        	src	a12, a12, a10
    286e:	90aa40        	addx2	a10, a10, a4
    2871:	62bab0        	saltu	a11, a10, a11
    2874:	404810        	ssai	24
    2877:	bbca           	add.n	a11, a11, a12
    2879:	81aba0        	src	a10, a11, a10
    287c:	31b8b0        	srai	a11, a11, 24
    287f:	81bba0        	src	a11, a11, a10
    2882:	11aa80        	slli	a10, a10, 8
    2885:	fe5f25        	call8	e78 <_saturate24>
    2888:	e1c8           	l32i.n	a12, a1, 56
    288a:	0cc8           	l32i.n	a12, a12, 0
    288c:	404f10        	ssai	31
    288f:	21d8a0        	srai	a13, a10, 8
    2892:	21c8c0        	srai	a12, a12, 8
    2895:	82acd0        	mull	a10, a12, a13
    2898:	b2ccd0        	mulsh	a12, a12, a13
    289b:	11baf0        	slli	a11, a10, 1
    289e:	81cca0        	src	a12, a12, a10
    28a1:	90aa40        	addx2	a10, a10, a4
    28a4:	62bab0        	saltu	a11, a10, a11
    28a7:	404810        	ssai	24
    28aa:	bbca           	add.n	a11, a11, a12
    28ac:	81aba0        	src	a10, a11, a10
    28af:	31b8b0        	srai	a11, a11, 24
    28b2:	81bba0        	src	a11, a11, a10
    28b5:	11aa80        	slli	a10, a10, 8
    28b8:	fe5be5        	call8	e78 <_saturate24>
    28bb:	664b           	addi.n	a6, a6, 4
    28bd:	b1f8           	l32i.n	a15, a1, 44
    28bf:	e1e8           	l32i.n	a14, a1, 56
    28c1:	332b           	addi.n	a3, a3, 2
    28c3:	c0d350        	sub	a13, a3, a5
    28c6:	ee4b           	addi.n	a14, a14, 4
    28c8:	09efa4        	ae_s32ip	a10, a15, 4
    28cb:	b1f9           	s32i.n	a15, a1, 44
    28cd:	e1e9           	s32i.n	a14, a1, 56
    28cf:	cfad56        	bnez	a13, 25cd <fn_calc_jnd_gain+0x2f9>
    28d2:	172152        	l32i	a5, a1, 92
    28d5:	0138           	l32i.n	a3, a1, 0
    28d7:	ff0606        	j	24f3 <fn_calc_jnd_gain+0x21f>

000028da <fn_calc_jnd_gain+0x606>:
	...

000028dc <fn_ini_win_detection>:
    28dc:	004136        	entry	a1, 32
    28df:	02ad           	mov.n	a10, a2
    28e1:	f5f981        	l32r	a8, c8 (8808 <xt_memset>)
    28e4:	0b0c           	movi.n	a11, 0
    28e6:	64a2c2        	movi	a12, 0x264
    28e9:	0008e0        	callx8	a8
    28ec:	03bd           	mov.n	a11, a3
    28ee:	f5c581        	l32r	a8, 4 (8820 <xt_memcpy>)
    28f1:	02ad           	mov.n	a10, a2
    28f3:	8c1c           	movi.n	a12, 24
    28f5:	0008e0        	callx8	a8
    28f8:	f605c1        	l32r	a12, 10c (1000000 <_end+0xff2874>)
    28fb:	92b8           	l32i.n	a11, a2, 36
    28fd:	0292a2        	l16si	a10, a2, 4
    2900:	03d292        	addmi	a9, a2, 0x300
    2903:	bbca           	add.n	a11, a11, a12
    2905:	6e69b2        	s32i	a11, a9, 0x1b8
    2908:	1952a2        	s16i	a10, a2, 50
    290b:	1852a2        	s16i	a10, a2, 48
    290e:	706942        	s32i	a4, a9, 0x1c0
    2911:	f01d           	retw.n

00002913 <fn_ini_win_detection+0x37>:
	...

00002914 <fn_win_detection>:
    2914:	00c136        	entry	a1, 96
    2917:	4129           	s32i.n	a2, a1, 16
    2919:	3169           	s32i.n	a6, a1, 12
    291b:	026172        	s32i	a7, a1, 8
    291e:	00a092        	movi	a9, 0
    2921:	10c582        	addi	a8, a5, 16
    2924:	04a0a2        	movi	a10, 4
    2927:	39baa4        	ae_movpa24x2	aep3, a10, a10
    292a:	5c8804        	ae_lp24x2f.iu	aep0, a8, 0
    292d:	006192        	s32i	a9, a1, 0
    2930:	fd20803e9f 	{ movi	a9, 62; ae_zerop48	aep2 }
    2935:	0a8976        	loop	a9, 2943 <fn_win_detection+0x2f>
    2938:	d8616f881f 	{ ae_lp24x2f.iu	aep0, a8, 8; ae_addsp24s	aep1, aep0, aep3 }
    293d:	0f1194        	ae_sraip24	aep1, aep1, 3
    2940:	07a124        	ae_addsp24s	aep2, aep2, aep1

00002943 <fn_win_detection+0x2f>:
    2943:	1aaa94        	ae_selp24.hh	aep1, aep2, aep2
    2946:	07a104        	ae_addsp24s	aep0, aep2, aep1
    2949:	520104        	ae_sp24f.l.i	aep0, a1, 0
    294c:	0021a2        	l32i	a10, a1, 0
    294f:	f5d781        	l32r	a8, ac (d40 <fxlog10>)
    2952:	f03d           	nop.n
    2954:	21a8a0        	srai	a10, a10, 8
    2957:	0008e0        	callx8	a8
    295a:	41b8           	l32i.n	a11, a1, 16
    295c:	f5de81        	l32r	a8, d4 (6a4d <fill_vad_thrd_Nbands+0x2d>)
    295f:	f5ba51        	l32r	a5, 48 (8000 <xtensa_fft8_32b+0xf0>)
    2962:	029b22        	l16si	a2, a11, 4
    2965:	d18a80        	mul16s	a8, a10, a8
    2968:	189bb2        	l16si	a11, a11, 48
    296b:	1188f0        	slli	a8, a8, 1
    296e:	808850        	add	a8, a8, a5
    2971:	318080        	srai	a8, a8, 16
    2974:	532280        	max	a2, a2, a8
    2977:	822d           	ae_sext16	a2, a2
    2979:	c0a2b0        	sub	a10, a2, a11
    297c:	20ab27        	bge	a11, a2, 29a0 <fn_win_detection+0x8c>
    297f:	fe4a25        	call8	e20 <_saturate16>
    2982:	41c8           	l32i.n	a12, a1, 16
    2984:	039cb2        	l16si	a11, a12, 6
    2987:	d1bba0        	mul16s	a11, a11, a10
    298a:	189ca2        	l16si	a10, a12, 48
    298d:	90bb50        	addx2	a11, a11, a5
    2990:	31b0b0        	srai	a11, a11, 16
    2993:	aaba           	add.n	a10, a10, a11
    2995:	fe48a5        	call8	e20 <_saturate16>
    2998:	41c8           	l32i.n	a12, a1, 16
    299a:	185ca2        	s16i	a10, a12, 48
    299d:	000746        	j	29be <fn_win_detection+0xaa>

000029a0 <fn_win_detection+0x8c>:
    29a0:	fe47e5        	call8	e20 <_saturate16>
    29a3:	41c8           	l32i.n	a12, a1, 16
    29a5:	049cb2        	l16si	a11, a12, 8
    29a8:	d1bba0        	mul16s	a11, a11, a10
    29ab:	189ca2        	l16si	a10, a12, 48
    29ae:	90bb50        	addx2	a11, a11, a5
    29b1:	31b0b0        	srai	a11, a11, 16
    29b4:	aaba           	add.n	a10, a10, a11
    29b6:	fe46a5        	call8	e20 <_saturate16>
    29b9:	41c8           	l32i.n	a12, a1, 16
    29bb:	185ca2        	s16i	a10, a12, 48

000029be <fn_win_detection+0xaa>:
    29be:	41d8           	l32i.n	a13, a1, 16
    29c0:	199dd2        	l16si	a13, a13, 50
    29c3:	c0a2d0        	sub	a10, a2, a13
    29c6:	20ad27        	bge	a13, a2, 29ea <fn_win_detection+0xd6>
    29c9:	fe4565        	call8	e20 <_saturate16>
    29cc:	41c8           	l32i.n	a12, a1, 16
    29ce:	059cb2        	l16si	a11, a12, 10
    29d1:	d1bba0        	mul16s	a11, a11, a10
    29d4:	199ca2        	l16si	a10, a12, 50
    29d7:	90bb50        	addx2	a11, a11, a5
    29da:	31b0b0        	srai	a11, a11, 16
    29dd:	aaba           	add.n	a10, a10, a11
    29df:	fe4425        	call8	e20 <_saturate16>
    29e2:	41c8           	l32i.n	a12, a1, 16
    29e4:	195ca2        	s16i	a10, a12, 50
    29e7:	000746        	j	2a08 <fn_win_detection+0xf4>

000029ea <fn_win_detection+0xd6>:
    29ea:	fe4365        	call8	e20 <_saturate16>
    29ed:	41c8           	l32i.n	a12, a1, 16
    29ef:	069cb2        	l16si	a11, a12, 12
    29f2:	d1bba0        	mul16s	a11, a11, a10
    29f5:	199ca2        	l16si	a10, a12, 50
    29f8:	90bb50        	addx2	a11, a11, a5
    29fb:	31b0b0        	srai	a11, a11, 16
    29fe:	aaba           	add.n	a10, a10, a11
    2a00:	fe41e5        	call8	e20 <_saturate16>
    2a03:	41c8           	l32i.n	a12, a1, 16
    2a05:	195ca2        	s16i	a10, a12, 50

00002a08 <fn_win_detection+0xf4>:
    2a08:	41a8           	l32i.n	a10, a1, 16
    2a0a:	189ab2        	l16si	a11, a10, 48
    2a0d:	2aad           	ae_l16si.n	a10, a10, 0
    2a0f:	aaba           	add.n	a10, a10, a11
    2a11:	fe40e5        	call8	e20 <_saturate16>
    2a14:	41b8           	l32i.n	a11, a1, 16
    2a16:	199bb2        	l16si	a11, a11, 50
    2a19:	0eaab7        	bge	a10, a11, 2a2b <fn_win_detection+0x117>
    2a1c:	41d8           	l32i.n	a13, a1, 16
    2a1e:	1c0c           	movi.n	a12, 1
    2a20:	0e0c           	movi.n	a14, 0
    2a22:	1b5de2        	s16i	a14, a13, 54
    2a25:	1a5dc2        	s16i	a12, a13, 52
    2a28:	000506        	j	2a40 <fn_win_detection+0x12c>

00002a2b <fn_win_detection+0x117>:
    2a2b:	41a8           	l32i.n	a10, a1, 16
    2a2d:	1a9af2        	l16si	a15, a10, 52
    2a30:	1b9aa2        	l16si	a10, a10, 54
    2a33:	ffcff2        	addi	a15, a15, -1
    2a36:	2d3f16        	beqz	a15, 2d0d <fn_win_detection+0x3f9>

00002a39 <fn_win_detection+0x125>:
    2a39:	41c8           	l32i.n	a12, a1, 16
    2a3b:	ba1b           	addi.n	a11, a10, 1
    2a3d:	1b5cb2        	s16i	a11, a12, 54

00002a40 <fn_win_detection+0x12c>:
    2a40:	4178           	l32i.n	a7, a1, 16
    2a42:	31a8           	l32i.n	a10, a1, 12
    2a44:	076d           	mov.n	a6, a7
    2a46:	47c8           	l32i.n	a12, a7, 16
    2a48:	9788           	l32i.n	a8, a7, 36
    2a4a:	77b8           	l32i.n	a11, a7, 28
    2a4c:	38c752        	addi	a5, a7, 56
    2a4f:	1a9792        	l16si	a9, a7, 52
    2a52:	02d722        	addmi	a2, a7, 0x200
    2a55:	6a9d           	ae_s16i.n	a9, a10, 0
    2a57:	0a0c           	movi.n	a10, 0
    2a59:	5ca274        	ae_lp24x2f.iu	aep2, a2, 56
    2a5c:	509504        	ae_lp24f.iu	aep1, a5, 0
    2a5f:	21b8b0        	srai	a11, a11, 8
    2a62:	218e80        	srai	a8, a8, 14
    2a65:	21c8c0        	srai	a12, a12, 8
    2a68:	398cc4        	ae_movpa24x2	aep0, a12, a12
    2a6b:	04d882        	addmi	a8, a8, 0x400
    2a6e:	5189           	s32i.n	a8, a1, 20
    2a70:	560144        	ae_sp24x2s.i	aep0, a1, 32
    2a73:	0c0c           	movi.n	a12, 0
    2a75:	01c9           	s32i.n	a12, a1, 0
    2a77:	39fbc4        	ae_movpa24x2	aep7, a11, a12
    2a7a:	567134        	ae_sp24x2s.i	aep7, a1, 24
    2a7d:	04bd           	mov.n	a11, a4
    2a7f:	5cbb04        	ae_lp24x2f.iu	aep3, a11, 0
    2a82:	03cd           	mov.n	a12, a3
    2a84:	03d742        	addmi	a4, a7, 0x300
    2a87:	3cc442        	addi	a4, a4, 60
    2a8a:	5ccc04        	ae_lp24x2f.iu	aep4, a12, 0
    2a8d:	01d732        	addmi	a3, a7, 0x100
    2a90:	074c           	movi.n	a7, 64
    2a92:	38c332        	addi	a3, a3, 56
    2a95:	508304        	ae_lp24f.iu	aep0, a3, 0

00002a98 <fn_win_detection+0x184>:
    2a98:	545134        	ae_lp24x2.i	aep5, a1, 24
    2a9b:	07b574        	ae_addsp24s	aep7, aep3, aep5
    2a9e:	07c564        	ae_addsp24s	aep6, aep4, aep5
    2aa1:	04e604        	ae_mulzaafp24s.hh.ll	aeq2, aep6, aep6
    2aa4:	047704        	ae_mulzaafp24s.hh.ll	aeq0, aep7, aep7
    2aa7:	046f04        	ae_mulzaafp24s.hh.ll	aeq1, aep6, aep7
    2aaa:	f7f8fac20f 	{ ae_sllisq56s	aeq0, aeq0, 8; ae_mulzsafp24s.hl.lh	aeq3, aep6, aep7 }
    2aaf:	060844        	ae_satq48s	aeq0, aeq0
    2ab2:	fa67fae20f 	{ ae_sllisq56s	aeq0, aeq2, 8; ae_roundsp24q48asym	aep5, aeq0 }
    2ab7:	068844        	ae_satq48s	aeq2, aeq0
    2aba:	df16baf20f 	{ ae_sllisq56s	aeq0, aeq3, 8; ae_subsp24s	aep6, aep5, aep0 }
    2abf:	fd00fad2cf 	{ ae_sllisq56s	aeq3, aeq1, 8; ae_satq48s	aeq1, aeq0 }
    2ac4:	1bad74        	ae_roundsp24q48asym	aep7, aeq2
    2ac7:	07f1d4        	ae_subsp24s	aep5, aep7, aep1
    2aca:	fc84f0714f 	{ ae_lp24x2.i	aep7, a1, 32; ae_satq48s	aeq0, aeq3 }
    2acf:	01d744        	ae_mulfp24s.hh	aeq2, aep5, aep7
    2ad2:	01ef44        	ae_mulfp24s.hh	aeq3, aep6, aep7
    2ad5:	1b8d54        	ae_roundsp24q48asym	aep5, aeq0
    2ad8:	07d2e4        	ae_subsp24s	aep6, aep5, aep2
    2adb:	016744        	ae_mulfp24s.hh	aeq0, aep6, aep7
    2ade:	1b9d54        	ae_roundsp24q48asym	aep5, aeq1
    2ae1:	07d2e4        	ae_subsp24s	aep6, aep5, aep2
    2ae4:	016f64        	ae_mulfp24s.lh	aeq1, aep6, aep7
    2ae7:	1bbd54        	ae_roundsp24q48asym	aep5, aeq3
    2aea:	078504        	ae_addsp24s	aep0, aep0, aep5
    2aed:	1bad74        	ae_roundsp24q48asym	aep7, aeq2
    2af0:	1b9d64        	ae_roundsp24q48asym	aep6, aeq1
    2af3:	07a664        	ae_addsp24s	aep6, aep2, aep6
    2af6:	079754        	ae_addsp24s	aep5, aep1, aep7
    2af9:	01d874        	ae_mulfp24s.ll	aeq3, aep5, aep0
    2afc:	1b8d74        	ae_roundsp24q48asym	aep7, aeq0
    2aff:	07a774        	ae_addsp24s	aep7, aep2, aep7
    2b02:	dfdcc100ff 	{ movi	a15, 0x100; ae_selp24.hl	aep7, aep7, aep6 }
    2b07:	fe3c76f20f 	{ ae_sp24x2f.iu	aep7, a2, 0; ae_roundsq32asym	aeq2, aeq3 }
    2b0c:	36ad04        	ae_trunca32q48	a13, aeq2
    2b0f:	52d504        	ae_sp24f.l.iu	aep5, a5, 0
    2b12:	f1fef4830f 	{ ae_sp24f.l.iu	aep0, a3, 0; ae_mulzaafp24s.hh.ll	aeq3, aep7, aep7 }
    2b17:	4aafd7        	bge	a15, a13, 2b65 <fn_win_detection+0x251>
    2b1a:	3dcc           	bnez.n	a13, 2b21 <fn_win_detection+0x20d>
    2b1c:	0e0c           	movi.n	a14, 0
    2b1e:	000dc6        	j	2b59 <fn_win_detection+0x245>

00002b21 <fn_win_detection+0x20d>:
    2b21:	067934        	ae_roundsq32asym	aeq1, aeq3
    2b24:	369e04        	ae_trunca32q48	a14, aeq1
    2b27:	364d34        	ae_cvtq48a32s	aeq1, a13
    2b2a:	36ce34        	ae_cvtq48a32s	aeq3, a14
    2b2d:	052ed7        	blt	a14, a13, 2b36 <fn_win_detection+0x222>
    2b30:	f549e1        	l32r	a14, 54 (7fff <xtensa_fft8_32b+0xef>)
    2b33:	000886        	j	2b59 <fn_win_detection+0x245>

00002b36 <fn_win_detection+0x222>:
    2b36:	40ed80        	nsa	a8, a13
    2b39:	888d           	ae_sext16	a8, a8
    2b3b:	fc24feb88f 	{ ae_slaasq56s	aeq2, aeq3, a8; nop }
    2b40:	fc80cf188e 	{ addi	a8, a8, -15; ae_satq48s	aeq0, aeq2 }
    2b45:	fc24fe98cf 	{ ae_slaasq56s	aeq3, aeq1, a8; nop }
    2b4a:	fe84ff0eef 	{ ae_trunca32q48	a14, aeq0; ae_satq48s	aeq2, aeq3 }
    2b4f:	36af04        	ae_trunca32q48	a15, aeq2
    2b52:	f03d           	nop.n
    2b54:	d2eef0        	quos	a14, a14, a15
    2b57:	aeed           	ae_clamps16	a14, a14
    2b59:	11a9           	s32i.n	a10, a1, 4
    2b5b:	b1b9           	s32i.n	a11, a1, 44
    2b5d:	a1c9           	s32i.n	a12, a1, 40
    2b5f:	7e54e2        	s16i	a14, a4, 252
    2b62:	000286        	j	2b70 <fn_win_detection+0x25c>

00002b65 <fn_win_detection+0x251>:
    2b65:	a1c9           	s32i.n	a12, a1, 40
    2b67:	b1b9           	s32i.n	a11, a1, 44
    2b69:	11a9           	s32i.n	a10, a1, 4
    2b6b:	51e8           	l32i.n	a14, a1, 20
    2b6d:	7e54e2        	s16i	a14, a4, 252

00002b70 <fn_win_detection+0x25c>:
    2b70:	01c8           	l32i.n	a12, a1, 0
    2b72:	11ae00        	slli	a10, a14, 16
    2b75:	00afb2        	movi	a11, 0xffffff00
    2b78:	21a8a0        	srai	a10, a10, 8
    2b7b:	10aab0        	and	a10, a10, a11
    2b7e:	acaa           	add.n	a10, a12, a10
    2b80:	62bac0        	saltu	a11, a10, a12
    2b83:	31cfc0        	srai	a12, a12, 31
    2b86:	bbca           	add.n	a11, a11, a12
    2b88:	fe2ee5        	call8	e78 <_saturate24>
    2b8b:	11c8           	l32i.n	a12, a1, 4
    2b8d:	e6b8           	l32i.n	a11, a6, 56
    2b8f:	01a9           	s32i.n	a10, a1, 0
    2b91:	31efc0        	srai	a14, a12, 31
    2b94:	31dfb0        	srai	a13, a11, 31
    2b97:	cbca           	add.n	a12, a11, a12
    2b99:	0cad           	mov.n	a10, a12
    2b9b:	ddea           	add.n	a13, a13, a14
    2b9d:	62bcb0        	saltu	a11, a12, a11
    2ba0:	bbda           	add.n	a11, a11, a13
    2ba2:	fe2d65        	call8	e78 <_saturate24>
    2ba5:	664b           	addi.n	a6, a6, 4
    2ba7:	442b           	addi.n	a4, a4, 2
    2ba9:	5ca214        	ae_lp24x2f.iu	aep2, a2, 8
    2bac:	509514        	ae_lp24f.iu	aep1, a5, 4
    2baf:	508314        	ae_lp24f.iu	aep0, a3, 4
    2bb2:	a1c8           	l32i.n	a12, a1, 40
    2bb4:	b1b8           	l32i.n	a11, a1, 44
    2bb6:	770b           	addi.n	a7, a7, -1
    2bb8:	5ccc14        	ae_lp24x2f.iu	aep4, a12, 8
    2bbb:	5cbb14        	ae_lp24x2f.iu	aep3, a11, 8
    2bbe:	ed6756        	bnez	a7, 2a98 <fn_win_detection+0x184>
    2bc1:	00aff2        	movi	a15, 0xffffff00
    2bc4:	21e6a0        	srai	a14, a10, 6
    2bc7:	10eef0        	and	a14, a14, a15
    2bca:	41f8           	l32i.n	a15, a1, 16
    2bcc:	aff8           	l32i.n	a15, a15, 40
    2bce:	050c           	movi.n	a5, 0
    2bd0:	f54b41        	l32r	a4, fc (800000 <_end+0x7f2874>)
    2bd3:	02aef7        	bge	a14, a15, 2bd9 <fn_win_detection+0x2c5>
    2bd6:	002046        	j	2c5b <fn_win_detection+0x347>
    2bd9:	4138           	l32i.n	a3, a1, 16
    2bdb:	03d332        	addmi	a3, a3, 0x300
    2bde:	6e23c2        	l32i	a12, a3, 0x1b8
    2be1:	309182        	l16si	a8, a1, 96
    2be4:	c0c332        	addi	a3, a3, -64
    2be7:	0cad           	mov.n	a10, a12
    2be9:	791866        	bnei	a8, 1, 2c66 <fn_win_detection+0x352>
    2bec:	0188           	l32i.n	a8, a1, 0
    2bee:	31dfc0        	srai	a13, a12, 31
    2bf1:	f03d           	nop.n
    2bf3:	31bf80        	srai	a11, a8, 31
    2bf6:	c0a8c0        	sub	a10, a8, a12
    2bf9:	c0bbd0        	sub	a11, a11, a13
    2bfc:	62d8a0        	saltu	a13, a8, a10
    2bff:	c0bbd0        	sub	a11, a11, a13
    2c02:	022c87        	blt	a12, a8, 2c08 <fn_win_detection+0x2f4>
    2c05:	0046c6        	j	2d24 <fn_win_detection+0x410>
    2c08:	fe26e5        	call8	e78 <_saturate24>
    2c0b:	41c8           	l32i.n	a12, a1, 16
    2c0d:	5cc8           	l32i.n	a12, a12, 20
    2c0f:	404f10        	ssai	31
    2c12:	21d8a0        	srai	a13, a10, 8
    2c15:	21c8c0        	srai	a12, a12, 8
    2c18:	82acd0        	mull	a10, a12, a13
    2c1b:	b2ccd0        	mulsh	a12, a12, a13
    2c1e:	11baf0        	slli	a11, a10, 1
    2c21:	81cca0        	src	a12, a12, a10
    2c24:	cc5a           	add.n	a12, a12, a5
    2c26:	90aa40        	addx2	a10, a10, a4
    2c29:	62bab0        	saltu	a11, a10, a11
    2c2c:	404810        	ssai	24
    2c2f:	bbca           	add.n	a11, a11, a12
    2c31:	81aba0        	src	a10, a11, a10
    2c34:	31b8b0        	srai	a11, a11, 24
    2c37:	81bba0        	src	a11, a11, a10
    2c3a:	11aa80        	slli	a10, a10, 8
    2c3d:	fe23a5        	call8	e78 <_saturate24>
    2c40:	7e23b2        	l32i	a11, a3, 0x1f8
    2c43:	31dfa0        	srai	a13, a10, 31
    2c46:	31cfb0        	srai	a12, a11, 31
    2c49:	ccda           	add.n	a12, a12, a13
    2c4b:	abaa           	add.n	a10, a11, a10
    2c4d:	62bab0        	saltu	a11, a10, a11
    2c50:	bbca           	add.n	a11, a11, a12
    2c52:	fe2265        	call8	e78 <_saturate24>
    2c55:	7e63a2        	s32i	a10, a3, 0x1f8
    2c58:	000286        	j	2c66 <fn_win_detection+0x352>

00002c5b <fn_win_detection+0x347>:
    2c5b:	41a8           	l32i.n	a10, a1, 16
    2c5d:	03daa2        	addmi	a10, a10, 0x300
    2c60:	c0ca32        	addi	a3, a10, -64
    2c63:	6e2aa2        	l32i	a10, a10, 0x1b8

00002c66 <fn_win_detection+0x352>:
    2c66:	41b8           	l32i.n	a11, a1, 16
    2c68:	8bb8           	l32i.n	a11, a11, 32
    2c6a:	08aab7        	bge	a10, a11, 2c76 <fn_win_detection+0x362>
    2c6d:	21d8           	l32i.n	a13, a1, 8
    2c6f:	2c0c           	movi.n	a12, 2
    2c71:	6dcd           	ae_s16i.n	a12, a13, 0
    2c73:	000286        	j	2c81 <fn_win_detection+0x36d>

00002c76 <fn_win_detection+0x362>:
    2c76:	41e8           	l32i.n	a14, a1, 16
    2c78:	9ee8           	l32i.n	a14, a14, 36
    2c7a:	21f8           	l32i.n	a15, a1, 8
    2c7c:	72eae0        	salt	a14, a10, a14
    2c7f:	6fed           	ae_s16i.n	a14, a15, 0

00002c81 <fn_win_detection+0x36d>:
    2c81:	01b8           	l32i.n	a11, a1, 0
    2c83:	7f23a2        	l32i	a10, a3, 0x1fc
    2c86:	1f2ab7        	blt	a10, a11, 2ca9 <fn_win_detection+0x395>
    2c89:	7f63b2        	s32i	a11, a3, 0x1fc
    2c8c:	0bad           	mov.n	a10, a11

00002c8e <fn_win_detection+0x37a>:
    2c8e:	41f8           	l32i.n	a15, a1, 16
    2c90:	bff8           	l32i.n	a15, a15, 44
    2c92:	062fa7        	blt	a15, a10, 2c9c <fn_win_detection+0x388>
    2c95:	802382        	l32i	a8, a3, 0x200
    2c98:	08b9           	s32i.n	a11, a8, 0
    2c9a:	f01d           	retw.n

00002c9c <fn_win_detection+0x388>:
    2c9c:	31c8           	l32i.n	a12, a1, 12
    2c9e:	802392        	l32i	a9, a3, 0x200
    2ca1:	0a0c           	movi.n	a10, 0
    2ca3:	6cad           	ae_s16i.n	a10, a12, 0
    2ca5:	09b9           	s32i.n	a11, a9, 0
    2ca7:	f01d           	retw.n

00002ca9 <fn_win_detection+0x395>:
    2ca9:	31dfa0        	srai	a13, a10, 31
    2cac:	c0aba0        	sub	a10, a11, a10
    2caf:	62cba0        	saltu	a12, a11, a10
    2cb2:	31bfb0        	srai	a11, a11, 31
    2cb5:	c0bbd0        	sub	a11, a11, a13
    2cb8:	c0bbc0        	sub	a11, a11, a12
    2cbb:	fe1be5        	call8	e78 <_saturate24>
    2cbe:	f514d1        	l32r	a13, 110 (19999a <_end+0x18c20e>)
    2cc1:	404f10        	ssai	31
    2cc4:	21c8a0        	srai	a12, a10, 8
    2cc7:	82bcd0        	mull	a11, a12, a13
    2cca:	b2ccd0        	mulsh	a12, a12, a13
    2ccd:	90ab40        	addx2	a10, a11, a4
    2cd0:	81ccb0        	src	a12, a12, a11
    2cd3:	cc5a           	add.n	a12, a12, a5
    2cd5:	11bbf0        	slli	a11, a11, 1
    2cd8:	62bab0        	saltu	a11, a10, a11
    2cdb:	404810        	ssai	24
    2cde:	80bbc0        	add	a11, a11, a12
    2ce1:	81aba0        	src	a10, a11, a10
    2ce4:	31b8b0        	srai	a11, a11, 24
    2ce7:	81bba0        	src	a11, a11, a10
    2cea:	11aa80        	slli	a10, a10, 8
    2ced:	fe18a5        	call8	e78 <_saturate24>
    2cf0:	7f23b2        	l32i	a11, a3, 0x1fc
    2cf3:	31dfa0        	srai	a13, a10, 31
    2cf6:	31cfb0        	srai	a12, a11, 31
    2cf9:	ccda           	add.n	a12, a12, a13
    2cfb:	abaa           	add.n	a10, a11, a10
    2cfd:	62bab0        	saltu	a11, a10, a11
    2d00:	bbca           	add.n	a11, a11, a12
    2d02:	fe1765        	call8	e78 <_saturate24>
    2d05:	7f63a2        	s32i	a10, a3, 0x1fc
    2d08:	01b8           	l32i.n	a11, a1, 0
    2d0a:	ffe006        	j	2c8e <fn_win_detection+0x37a>

00002d0d <fn_win_detection+0x3f9>:
    2d0d:	41e8           	l32i.n	a14, a1, 16
    2d0f:	3eed           	ae_l16si.n	a14, a14, 2
    2d11:	022ea7        	blt	a14, a10, 2d17 <fn_win_detection+0x403>
    2d14:	ff4846        	j	2a39 <fn_win_detection+0x125>
    2d17:	4188           	l32i.n	a8, a1, 16
    2d19:	0f0c           	movi.n	a15, 0
    2d1b:	1a58f2        	s16i	a15, a8, 52
    2d1e:	1b58f2        	s16i	a15, a8, 54
    2d21:	ff46c6        	j	2a40 <fn_win_detection+0x12c>

00002d24 <fn_win_detection+0x410>:
    2d24:	fe1525        	call8	e78 <_saturate24>
    2d27:	41c8           	l32i.n	a12, a1, 16
    2d29:	6cc8           	l32i.n	a12, a12, 24
    2d2b:	404f10        	ssai	31
    2d2e:	21d8a0        	srai	a13, a10, 8
    2d31:	21c8c0        	srai	a12, a12, 8
    2d34:	82acd0        	mull	a10, a12, a13
    2d37:	b2ccd0        	mulsh	a12, a12, a13
    2d3a:	11baf0        	slli	a11, a10, 1
    2d3d:	81cca0        	src	a12, a12, a10
    2d40:	cc5a           	add.n	a12, a12, a5
    2d42:	90aa40        	addx2	a10, a10, a4
    2d45:	62bab0        	saltu	a11, a10, a11
    2d48:	404810        	ssai	24
    2d4b:	bbca           	add.n	a11, a11, a12
    2d4d:	81aba0        	src	a10, a11, a10
    2d50:	31b8b0        	srai	a11, a11, 24
    2d53:	81bba0        	src	a11, a11, a10
    2d56:	11aa80        	slli	a10, a10, 8
    2d59:	fe11e5        	call8	e78 <_saturate24>
    2d5c:	7e23b2        	l32i	a11, a3, 0x1f8
    2d5f:	31dfa0        	srai	a13, a10, 31
    2d62:	31cfb0        	srai	a12, a11, 31
    2d65:	ccda           	add.n	a12, a12, a13
    2d67:	abaa           	add.n	a10, a11, a10
    2d69:	62bab0        	saltu	a11, a10, a11
    2d6c:	bbca           	add.n	a11, a11, a12
    2d6e:	fe10a5        	call8	e78 <_saturate24>
    2d71:	7e63a2        	s32i	a10, a3, 0x1f8
    2d74:	ffbb86        	j	2c66 <fn_win_detection+0x352>

00002d77 <fn_win_detection+0x463>:
	...

00002d78 <fn_calc_pow>:
    2d78:	004136        	entry	a1, 32
    2d7b:	fcc362        	addi	a6, a3, -4
    2d7e:	5c8204        	ae_lp24x2f.iu	aep0, a2, 0
    2d81:	c04540        	sub	a4, a5, a4
    2d84:	023d           	mov.n	a3, a2
    2d86:	202660        	or	a2, a6, a6
    2d89:	11a476        	loopgtz	a4, 2d9e <fn_calc_pow+0x26>
    2d8c:	040004        	ae_mulzaafp24s.hh.ll	aeq0, aep0, aep0
    2d8f:	360114        	ae_sllisq56s	aeq0, aeq0, 4
    2d92:	060844        	ae_satq48s	aeq0, aeq0
    2d95:	060934        	ae_roundsq32asym	aeq0, aeq0
    2d98:	624214        	ae_sq32f.iu	aeq0, a2, 4
    2d9b:	5c8314        	ae_lp24x2f.iu	aep0, a3, 8

00002d9e <fn_calc_pow+0x26>:
    2d9e:	f01d           	retw.n

00002da0 <fn_low_bin_noise_est>:
    2da0:	014136        	entry	a1, 160
    2da3:	f4aca1        	l32r	a10, 54 (7fff <xtensa_fft8_32b+0xef>)
    2da6:	f4bd71        	l32r	a7, 9c (7fffff00 <_end+0x7fff2774>)
    2da9:	fb7c           	movi.n	a11, -1
    2dab:	f149           	s32i.n	a4, a1, 60
    2dad:	e139           	s32i.n	a3, a1, 56
    2daf:	05cd           	mov.n	a12, a5
    2db1:	02fd           	mov.n	a15, a2
    2db3:	f4d251        	l32r	a5, fc (800000 <_end+0x7f2874>)
    2db6:	b1c9           	s32i.n	a12, a1, 44
    2db8:	020c           	movi.n	a2, 0
    2dba:	04dfd2        	addmi	a13, a15, 0x400
    2dbd:	c1d9           	s32i.n	a13, a1, 48
    2dbf:	80cd62        	addi	a6, a13, -128
    2dc2:	272d32        	l32i	a3, a13, 156
    2dc5:	439d82        	l16si	a8, a13, 134
    2dc8:	3d9dd2        	l16si	a13, a13, 122
    2dcb:	024d           	mov.n	a4, a2
    2dcd:	048580        	extui	a8, a8, 5, 1
    2dd0:	b0ed30        	addx8	a14, a13, a3
    2dd3:	16b816        	beqz	a8, 2f42 <fn_low_bin_noise_est+0x1a2>
    2dd6:	61e9           	s32i.n	a14, a1, 24
    2dd8:	d139           	s32i.n	a3, a1, 52
    2dda:	021de6        	bgei	a13, 1, 2de0 <fn_low_bin_noise_est+0x40>
    2ddd:	006546        	j	2f76 <fn_low_bin_noise_est+0x1d6>
    2de0:	20e220        	or	a14, a2, a2
    2de3:	03dff2        	addmi	a15, a15, 0x300
    2de6:	fccff2        	addi	a15, a15, -4
    2de9:	d18076        	loop	a0, 2ebe <fn_low_bin_noise_est+0x11e>
    2dec:	7e9f92        	l16si	a9, a15, 252
    2def:	0cd8           	l32i.n	a13, a12, 0
    2df1:	404b10        	ssai	27
    2df4:	119900        	slli	a9, a9, 16
    2df7:	21d8d0        	srai	a13, a13, 8
    2dfa:	219890        	srai	a9, a9, 8
    2dfd:	828d90        	mull	a8, a13, a9
    2e00:	b2dd90        	mulsh	a13, a13, a9
    2e03:	166192        	s32i	a9, a1, 88
    2e06:	81dd80        	src	a13, a13, a8
    2e09:	1188b0        	slli	a8, a8, 5
    2e0c:	1a6182        	s32i	a8, a1, 104
    2e0f:	0a2da7        	blt	a13, a10, 2e1d <fn_low_bin_noise_est+0x7d>
    2e12:	029da7        	bne	a13, a10, 2e18 <fn_low_bin_noise_est+0x78>
    2e15:	0438b7        	bltu	a8, a11, 2e1d <fn_low_bin_noise_est+0x7d>

00002e18 <fn_low_bin_noise_est+0x78>:
    2e18:	0add           	mov.n	a13, a10
    2e1a:	1a61b2        	s32i	a11, a1, 104

00002e1d <fn_low_bin_noise_est+0x7d>:
    2e1d:	1a2182        	l32i	a8, a1, 104
    2e20:	404810        	ssai	24
    2e23:	dd4a           	add.n	a13, a13, a4
    2e25:	985a           	add.n	a9, a8, a5
    2e27:	628980        	saltu	a8, a9, a8
    2e2a:	88da           	add.n	a8, a8, a13
    2e2c:	819890        	src	a9, a8, a9
    2e2f:	0d0c           	movi.n	a13, 0
    2e31:	318880        	srai	a8, a8, 24
    2e34:	818890        	src	a8, a8, a9
    2e37:	176182        	s32i	a8, a1, 92
    2e3a:	119980        	slli	a9, a9, 8
    2e3d:	146192        	s32i	a9, a1, 80
    2e40:	042827        	blt	a8, a2, 2e48 <fn_low_bin_noise_est+0xa8>
    2e43:	7a1827        	beq	a8, a2, 2ec1 <fn_low_bin_noise_est+0x121>

00002e46 <fn_low_bin_noise_est+0xa6>:
    2e46:	1d0c           	movi.n	a13, 1

00002e48 <fn_low_bin_noise_est+0xa8>:
    2e48:	07bd16        	beqz	a13, 2ec7 <fn_low_bin_noise_est+0x127>
    2e4b:	f494d1        	l32r	a13, 9c (7fffff00 <_end+0x7fff2774>)

00002e4e <fn_low_bin_noise_est+0xae>:
    2e4e:	03d9           	s32i.n	a13, a3, 0
    2e50:	1cd8           	l32i.n	a13, a12, 4
    2e52:	162192        	l32i	a9, a1, 88
    2e55:	21d8d0        	srai	a13, a13, 8
    2e58:	828d90        	mull	a8, a13, a9
    2e5b:	b2dd90        	mulsh	a13, a13, a9
    2e5e:	404b10        	ssai	27
    2e61:	81dd80        	src	a13, a13, a8
    2e64:	1188b0        	slli	a8, a8, 5
    2e67:	1b6182        	s32i	a8, a1, 108
    2e6a:	0a2da7        	blt	a13, a10, 2e78 <fn_low_bin_noise_est+0xd8>
    2e6d:	029da7        	bne	a13, a10, 2e73 <fn_low_bin_noise_est+0xd3>
    2e70:	002246        	j	2efd <fn_low_bin_noise_est+0x15d>

00002e73 <fn_low_bin_noise_est+0xd3>:
    2e73:	0add           	mov.n	a13, a10
    2e75:	1b61b2        	s32i	a11, a1, 108

00002e78 <fn_low_bin_noise_est+0xd8>:
    2e78:	1b2192        	l32i	a9, a1, 108
    2e7b:	404810        	ssai	24
    2e7e:	dd4a           	add.n	a13, a13, a4
    2e80:	895a           	add.n	a8, a9, a5
    2e82:	629890        	saltu	a9, a8, a9
    2e85:	99da           	add.n	a9, a9, a13
    2e87:	818980        	src	a8, a9, a8
    2e8a:	0d0c           	movi.n	a13, 0
    2e8c:	319890        	srai	a9, a9, 24
    2e8f:	819980        	src	a9, a9, a8
    2e92:	186192        	s32i	a9, a1, 96
    2e95:	118880        	slli	a8, a8, 8
    2e98:	156182        	s32i	a8, a1, 84
    2e9b:	042927        	blt	a9, a2, 2ea3 <fn_low_bin_noise_est+0x103>
    2e9e:	641927        	beq	a9, a2, 2f06 <fn_low_bin_noise_est+0x166>

00002ea1 <fn_low_bin_noise_est+0x101>:
    2ea1:	1d0c           	movi.n	a13, 1

00002ea3 <fn_low_bin_noise_est+0x103>:
    2ea3:	ff2b           	addi.n	a15, a15, 2
    2ea5:	cc8b           	addi.n	a12, a12, 8
    2ea7:	061d16        	beqz	a13, 2f0c <fn_low_bin_noise_est+0x16c>
    2eaa:	f47cd1        	l32r	a13, 9c (7fffff00 <_end+0x7fff2774>)

00002ead <fn_low_bin_noise_est+0x10d>:
    2ead:	13d9           	s32i.n	a13, a3, 4
    2eaf:	7d96d2        	l16si	a13, a6, 250
    2eb2:	ee1b           	addi.n	a14, a14, 1
    2eb4:	338b           	addi.n	a3, a3, 8
    2eb6:	022ed7        	blt	a14, a13, 2ebc <fn_low_bin_noise_est+0x11c>
    2eb9:	002dc6        	j	2f74 <fn_low_bin_noise_est+0x1d4>
    2ebc:	f03d           	nop.n

00002ebe <fn_low_bin_noise_est+0x11e>:
    2ebe:	ffc9c6        	j	2de9 <fn_low_bin_noise_est+0x49>

00002ec1 <fn_low_bin_noise_est+0x121>:
    2ec1:	83b797        	bgeu	a7, a9, 2e48 <fn_low_bin_noise_est+0xa8>
    2ec4:	ffdf86        	j	2e46 <fn_low_bin_noise_est+0xa6>

00002ec7 <fn_low_bin_noise_est+0x127>:
    2ec7:	142182        	l32i	a8, a1, 80
    2eca:	f45791        	l32r	a9, 28 (7fffffff <_end+0x7fff2873>)
    2ecd:	1199           	s32i.n	a9, a1, 4
    2ecf:	0189           	s32i.n	a8, a1, 0
    2ed1:	172182        	l32i	a8, a1, 92
    2ed4:	090c           	movi.n	a9, 0
    2ed6:	8199           	s32i.n	a9, a1, 32
    2ed8:	00d8d6        	bgez	a8, 2ee9 <fn_low_bin_noise_est+0x149>
    2edb:	060866        	bnei	a8, -1, 2ee5 <fn_low_bin_noise_est+0x145>
    2ede:	01d8           	l32i.n	a13, a1, 0
    2ee0:	1198           	l32i.n	a9, a1, 4
    2ee2:	0339d7        	bltu	a9, a13, 2ee9 <fn_low_bin_noise_est+0x149>

00002ee5 <fn_low_bin_noise_est+0x145>:
    2ee5:	180c           	movi.n	a8, 1
    2ee7:	8189           	s32i.n	a8, a1, 32

00002ee9 <fn_low_bin_noise_est+0x149>:
    2ee9:	8188           	l32i.n	a8, a1, 32
    2eeb:	1d6122        	s32i	a2, a1, 116
    2eee:	f450d1        	l32r	a13, 30 (80000000 <_end+0x7fff2874>)
    2ef1:	142122        	l32i	a2, a1, 80
    2ef4:	83d280        	moveqz	a13, a2, a8
    2ef7:	1d2122        	l32i	a2, a1, 116
    2efa:	ffd406        	j	2e4e <fn_low_bin_noise_est+0xae>

00002efd <fn_low_bin_noise_est+0x15d>:
    2efd:	02b8b7        	bgeu	a8, a11, 2f03 <fn_low_bin_noise_est+0x163>
    2f00:	ffdd06        	j	2e78 <fn_low_bin_noise_est+0xd8>
    2f03:	ffdb06        	j	2e73 <fn_low_bin_noise_est+0xd3>

00002f06 <fn_low_bin_noise_est+0x166>:
    2f06:	99b787        	bgeu	a7, a8, 2ea3 <fn_low_bin_noise_est+0x103>
    2f09:	ffe506        	j	2ea1 <fn_low_bin_noise_est+0x101>

00002f0c <fn_low_bin_noise_est+0x16c>:
    2f0c:	080c           	movi.n	a8, 0
    2f0e:	f446d1        	l32r	a13, 28 (7fffffff <_end+0x7fff2873>)
    2f11:	152192        	l32i	a9, a1, 84
    2f14:	2199           	s32i.n	a9, a1, 8
    2f16:	182192        	l32i	a9, a1, 96
    2f19:	31d9           	s32i.n	a13, a1, 12
    2f1b:	9189           	s32i.n	a8, a1, 36
    2f1d:	00d9d6        	bgez	a9, 2f2e <fn_low_bin_noise_est+0x18e>
    2f20:	060966        	bnei	a9, -1, 2f2a <fn_low_bin_noise_est+0x18a>
    2f23:	21d8           	l32i.n	a13, a1, 8
    2f25:	3198           	l32i.n	a9, a1, 12
    2f27:	0339d7        	bltu	a9, a13, 2f2e <fn_low_bin_noise_est+0x18e>

00002f2a <fn_low_bin_noise_est+0x18a>:
    2f2a:	180c           	movi.n	a8, 1
    2f2c:	9189           	s32i.n	a8, a1, 36

00002f2e <fn_low_bin_noise_est+0x18e>:
    2f2e:	9188           	l32i.n	a8, a1, 36
    2f30:	1d6122        	s32i	a2, a1, 116
    2f33:	f43fd1        	l32r	a13, 30 (80000000 <_end+0x7fff2874>)
    2f36:	152122        	l32i	a2, a1, 84
    2f39:	83d280        	moveqz	a13, a2, a8
    2f3c:	1d2122        	l32i	a2, a1, 116
    2f3f:	ffda86        	j	2ead <fn_low_bin_noise_est+0x10d>

00002f42 <fn_low_bin_noise_est+0x1a2>:
    2f42:	c1c8           	l32i.n	a12, a1, 48
    2f44:	3e9cc2        	l16si	a12, a12, 124
    2f47:	61e9           	s32i.n	a14, a1, 24
    2f49:	71c9           	s32i.n	a12, a1, 28
    2f4b:	021ce6        	bgei	a12, 1, 2f51 <fn_low_bin_noise_est+0x1b1>
    2f4e:	005886        	j	30b4 <fn_low_bin_noise_est+0x314>
    2f51:	03fd           	mov.n	a15, a3
    2f53:	71d8           	l32i.n	a13, a1, 28
    2f55:	b1c8           	l32i.n	a12, a1, 44
    2f57:	20e220        	or	a14, a2, a2
    2f5a:	11ddf0        	slli	a13, a13, 1
    2f5d:	108076        	loop	a0, 2f71 <fn_low_bin_noise_est+0x1d1>
    2f60:	ee1b           	addi.n	a14, a14, 1
    2f62:	0c88           	l32i.n	a8, a12, 0
    2f64:	09ef84        	ae_s32ip	a8, a15, 4
    2f67:	cc4b           	addi.n	a12, a12, 4
    2f69:	022ed7        	blt	a14, a13, 2f6f <fn_low_bin_noise_est+0x1cf>
    2f6c:	0022c6        	j	2ffb <fn_low_bin_noise_est+0x25b>
    2f6f:	f03d           	nop.n

00002f71 <fn_low_bin_noise_est+0x1d1>:
    2f71:	fffa06        	j	2f5d <fn_low_bin_noise_est+0x1bd>

00002f74 <fn_low_bin_noise_est+0x1d4>:
    2f74:	d138           	l32i.n	a3, a1, 52

00002f76 <fn_low_bin_noise_est+0x1d6>:
    2f76:	f57c           	movi.n	a5, -1
    2f78:	61b8           	l32i.n	a11, a1, 24
    2f7a:	f46681        	l32r	a8, 114 (2d78 <fn_calc_pow>)
    2f7d:	0c0c           	movi.n	a12, 0
    2f7f:	03ad           	mov.n	a10, a3
    2f81:	0008e0        	callx8	a8
    2f84:	7d9692        	l16si	a9, a6, 250
    2f87:	6e19a6        	blti	a9, 1, 2ff9 <fn_low_bin_noise_est+0x259>
    2f8a:	e138           	l32i.n	a3, a1, 56
    2f8c:	61b8           	l32i.n	a11, a1, 24
    2f8e:	f148           	l32i.n	a4, a1, 60
    2f90:	0e0c           	movi.n	a14, 0
    2f92:	3c8076        	loop	a0, 2fd2 <fn_low_bin_noise_est+0x232>
    2f95:	0bd8           	l32i.n	a13, a11, 0
    2f97:	04f8           	l32i.n	a15, a4, 0
    2f99:	0a0c           	movi.n	a10, 0
    2f9b:	318fd0        	srai	a8, a13, 31
    2f9e:	31cff0        	srai	a12, a15, 31
    2fa1:	c0dfd0        	sub	a13, a15, a13
    2fa4:	62ffd0        	saltu	a15, a15, a13
    2fa7:	c0cc80        	sub	a12, a12, a8
    2faa:	c0ccf0        	sub	a12, a12, a15
    2fad:	042c27        	blt	a12, a2, 2fb5 <fn_low_bin_noise_est+0x215>
    2fb0:	211c27        	beq	a12, a2, 2fd5 <fn_low_bin_noise_est+0x235>

00002fb3 <fn_low_bin_noise_est+0x213>:
    2fb3:	1a0c           	movi.n	a10, 1

00002fb5 <fn_low_bin_noise_est+0x215>:
    2fb5:	2aac           	beqz.n	a10, 2fdb <fn_low_bin_noise_est+0x23b>
    2fb7:	f43991        	l32r	a9, 9c (7fffff00 <_end+0x7fff2774>)

00002fba <fn_low_bin_noise_est+0x21a>:
    2fba:	0399           	s32i.n	a9, a3, 0
    2fbc:	bb4b           	addi.n	a11, a11, 4
    2fbe:	7d9682        	l16si	a8, a6, 250
    2fc1:	444b           	addi.n	a4, a4, 4
    2fc3:	ee1b           	addi.n	a14, a14, 1
    2fc5:	0419e6        	bgei	a9, 1, 2fcd <fn_low_bin_noise_est+0x22d>
    2fc8:	00a1f2        	movi	a15, 0x100
    2fcb:	03f9           	s32i.n	a15, a3, 0

00002fcd <fn_low_bin_noise_est+0x22d>:
    2fcd:	334b           	addi.n	a3, a3, 4
    2fcf:	26ae87        	bge	a14, a8, 2ff9 <fn_low_bin_noise_est+0x259>

00002fd2 <fn_low_bin_noise_est+0x232>:
    2fd2:	ffef06        	j	2f92 <fn_low_bin_noise_est+0x1f2>

00002fd5 <fn_low_bin_noise_est+0x235>:
    2fd5:	dcb7d7        	bgeu	a7, a13, 2fb5 <fn_low_bin_noise_est+0x215>
    2fd8:	fff5c6        	j	2fb3 <fn_low_bin_noise_est+0x213>

00002fdb <fn_low_bin_noise_est+0x23b>:
    2fdb:	f41391        	l32r	a9, 28 (7fffffff <_end+0x7fff2873>)
    2fde:	0a0c           	movi.n	a10, 0
    2fe0:	0425c7        	blt	a5, a12, 2fe8 <fn_low_bin_noise_est+0x248>
    2fe3:	0a1c57        	beq	a12, a5, 2ff1 <fn_low_bin_noise_est+0x251>

00002fe6 <fn_low_bin_noise_est+0x246>:
    2fe6:	1a0c           	movi.n	a10, 1

00002fe8 <fn_low_bin_noise_est+0x248>:
    2fe8:	f41291        	l32r	a9, 30 (80000000 <_end+0x7fff2874>)
    2feb:	839da0        	moveqz	a9, a13, a10
    2fee:	fff206        	j	2fba <fn_low_bin_noise_est+0x21a>

00002ff1 <fn_low_bin_noise_est+0x251>:
    2ff1:	09cd           	mov.n	a12, a9
    2ff3:	f13cd7        	bltu	a12, a13, 2fe8 <fn_low_bin_noise_est+0x248>
    2ff6:	fffb06        	j	2fe6 <fn_low_bin_noise_est+0x246>

00002ff9 <fn_low_bin_noise_est+0x259>:
    2ff9:	f01d           	retw.n

00002ffb <fn_low_bin_noise_est+0x25b>:
    2ffb:	7d96d2        	l16si	a13, a6, 250
    2ffe:	f03d           	nop.n
    3000:	f03d           	nop.n
    3002:	11fdf0        	slli	a15, a13, 1
    3005:	022ef7        	blt	a14, a15, 300b <fn_low_bin_noise_est+0x26b>
    3008:	ffda86        	j	2f76 <fn_low_bin_noise_est+0x1d6>

0000300b <fn_low_bin_noise_est+0x26b>:
    300b:	b1c8           	l32i.n	a12, a1, 44
    300d:	d139           	s32i.n	a3, a1, 52
    300f:	a0fe30        	addx4	a15, a14, a3
    3012:	a0cec0        	addx4	a12, a14, a12
    3015:	5f8076        	loop	a0, 3078 <fn_low_bin_noise_est+0x2d8>
    3018:	7c9632        	l16si	a3, a6, 248
    301b:	0cd8           	l32i.n	a13, a12, 0
    301d:	404b10        	ssai	27
    3020:	113300        	slli	a3, a3, 16
    3023:	21d8d0        	srai	a13, a13, 8
    3026:	213830        	srai	a3, a3, 8
    3029:	82bd30        	mull	a11, a13, a3
    302c:	b2dd30        	mulsh	a13, a13, a3
    302f:	f37c           	movi.n	a3, -1
    3031:	81ddb0        	src	a13, a13, a11
    3034:	11bbb0        	slli	a11, a11, 5
    3037:	404810        	ssai	24
    303a:	062da7        	blt	a13, a10, 3044 <fn_low_bin_noise_est+0x2a4>
    303d:	3a1da7        	beq	a13, a10, 307b <fn_low_bin_noise_est+0x2db>

00003040 <fn_low_bin_noise_est+0x2a0>:
    3040:	03bd           	mov.n	a11, a3
    3042:	0add           	mov.n	a13, a10

00003044 <fn_low_bin_noise_est+0x2a4>:
    3044:	dd4a           	add.n	a13, a13, a4
    3046:	3b5a           	add.n	a3, a11, a5
    3048:	62b3b0        	saltu	a11, a3, a11
    304b:	bbda           	add.n	a11, a11, a13
    304d:	813b30        	src	a3, a11, a3
    3050:	0d0c           	movi.n	a13, 0
    3052:	31b8b0        	srai	a11, a11, 24
    3055:	81bb30        	src	a11, a11, a3
    3058:	113380        	slli	a3, a3, 8
    305b:	042b27        	blt	a11, a2, 3063 <fn_low_bin_noise_est+0x2c3>
    305e:	1f1b27        	beq	a11, a2, 3081 <fn_low_bin_noise_est+0x2e1>

00003061 <fn_low_bin_noise_est+0x2c1>:
    3061:	1d0c           	movi.n	a13, 1

00003063 <fn_low_bin_noise_est+0x2c3>:
    3063:	0dac           	beqz.n	a13, 3087 <fn_low_bin_noise_est+0x2e7>
    3065:	f40dd1        	l32r	a13, 9c (7fffff00 <_end+0x7fff2774>)

00003068 <fn_low_bin_noise_est+0x2c8>:
    3068:	09efd4        	ae_s32ip	a13, a15, 4
    306b:	7d96d2        	l16si	a13, a6, 250
    306e:	cc4b           	addi.n	a12, a12, 4
    3070:	ee1b           	addi.n	a14, a14, 1
    3072:	118df0        	slli	a8, a13, 1
    3075:	36ae87        	bge	a14, a8, 30af <fn_low_bin_noise_est+0x30f>

00003078 <fn_low_bin_noise_est+0x2d8>:
    3078:	ffe646        	j	3015 <fn_low_bin_noise_est+0x275>

0000307b <fn_low_bin_noise_est+0x2db>:
    307b:	c53b37        	bltu	a11, a3, 3044 <fn_low_bin_noise_est+0x2a4>
    307e:	ffef86        	j	3040 <fn_low_bin_noise_est+0x2a0>

00003081 <fn_low_bin_noise_est+0x2e1>:
    3081:	deb737        	bgeu	a7, a3, 3063 <fn_low_bin_noise_est+0x2c3>
    3084:	fff646        	j	3061 <fn_low_bin_noise_est+0x2c1>

00003087 <fn_low_bin_noise_est+0x2e7>:
    3087:	f3e8d1        	l32r	a13, 28 (7fffffff <_end+0x7fff2873>)
    308a:	f97c           	movi.n	a9, -1
    308c:	00a082        	movi	a8, 0
    308f:	1c6182        	s32i	a8, a1, 112
    3092:	007bd6        	bgez	a11, 309d <fn_low_bin_noise_est+0x2fd>
    3095:	100b26        	beqi	a11, -1, 30a9 <fn_low_bin_noise_est+0x309>

00003098 <fn_low_bin_noise_est+0x2f8>:
    3098:	1b0c           	movi.n	a11, 1
    309a:	1c61b2        	s32i	a11, a1, 112

0000309d <fn_low_bin_noise_est+0x2fd>:
    309d:	1c2182        	l32i	a8, a1, 112
    30a0:	f3e4d1        	l32r	a13, 30 (80000000 <_end+0x7fff2874>)
    30a3:	83d380        	moveqz	a13, a3, a8
    30a6:	ffef86        	j	3068 <fn_low_bin_noise_est+0x2c8>

000030a9 <fn_low_bin_noise_est+0x309>:
    30a9:	f03d37        	bltu	a13, a3, 309d <fn_low_bin_noise_est+0x2fd>
    30ac:	fffa06        	j	3098 <fn_low_bin_noise_est+0x2f8>

000030af <fn_low_bin_noise_est+0x30f>:
    30af:	d138           	l32i.n	a3, a1, 52
    30b1:	ffb046        	j	2f76 <fn_low_bin_noise_est+0x1d6>

000030b4 <fn_low_bin_noise_est+0x314>:
    30b4:	021de6        	bgei	a13, 1, 30ba <fn_low_bin_noise_est+0x31a>
    30b7:	ffaec6        	j	2f76 <fn_low_bin_noise_est+0x1d6>
    30ba:	02ed           	mov.n	a14, a2
    30bc:	ffd2c6        	j	300b <fn_low_bin_noise_est+0x26b>

000030bf <fn_low_bin_noise_est+0x31f>:
	...

000030c0 <fn_low_bin_compensate_phase>:
    30c0:	008136        	entry	a1, 64
    30c3:	045d           	mov.n	a5, a4
    30c5:	03d282        	addmi	a8, a2, 0x300
    30c8:	5c8304        	ae_lp24x2f.iu	aep0, a3, 0
    30cb:	560124        	ae_sp24x2s.i	aep0, a1, 16
    30ce:	7cc892        	addi	a9, a8, 124
    30d1:	bd9882        	l16si	a8, a8, 0x17a
    30d4:	2199           	s32i.n	a9, a1, 8
    30d6:	5c8504        	ae_lp24x2f.iu	aep0, a5, 0
    30d9:	0218e6        	bgei	a8, 1, 30df <fn_low_bin_compensate_phase+0x1f>
    30dc:	005086        	j	3222 <fn_low_bin_compensate_phase+0x162>
    30df:	00a062        	movi	a6, 0

000030e2 <fn_low_bin_compensate_phase+0x22>:
    30e2:	048004        	ae_mulzaafp24s.hh.ll	aeq2, aep0, aep0
    30e5:	f40681        	l32r	a8, 100 (cd0 <fxsqrt_ie>)
    30e8:	366054        	ae_sllisq56s	aeq1, aeq2, 1
    30eb:	060944        	ae_satq48s	aeq0, aeq1
    30ee:	1b8d14        	ae_roundsp24q48asym	aep1, aeq0
    30f1:	4e1104        	ae_sp24s.l.i	aep1, a1, 0
    30f4:	01a8           	l32i.n	a10, a1, 0
    30f6:	0008e0        	callx8	a8
    30f9:	f3cbf1        	l32r	a15, 28 (7fffffff <_end+0x7fff2873>)
    30fc:	04b8           	l32i.n	a11, a4, 0
    30fe:	01ead0        	slli	a14, a10, 19
    3101:	21cda0        	srai	a12, a10, 13
    3104:	0a0c           	movi.n	a10, 0
    3106:	003c96        	bltz	a12, 310d <fn_low_bin_compensate_phase+0x4d>
    3109:	1c9c           	beqz.n	a12, 311e <fn_low_bin_compensate_phase+0x5e>

0000310b <fn_low_bin_compensate_phase+0x4b>:
    310b:	1a0c           	movi.n	a10, 1

0000310d <fn_low_bin_compensate_phase+0x4d>:
    310d:	3a9c           	beqz.n	a10, 3124 <fn_low_bin_compensate_phase+0x64>
    310f:	f3c6a1        	l32r	a10, 28 (7fffffff <_end+0x7fff2873>)
    3112:	4b2ba7        	blt	a11, a10, 3161 <fn_low_bin_compensate_phase+0xa1>
    3115:	f3c4a1        	l32r	a10, 28 (7fffffff <_end+0x7fff2873>)

00003118 <fn_low_bin_compensate_phase+0x58>:
    3118:	f3cf21        	l32r	a2, 54 (7fff <xtensa_fft8_32b+0xef>)
    311b:	001b06        	j	318b <fn_low_bin_compensate_phase+0xcb>

0000311e <fn_low_bin_compensate_phase+0x5e>:
    311e:	ebbfe7        	bgeu	a15, a14, 310d <fn_low_bin_compensate_phase+0x4d>
    3121:	fff986        	j	310b <fn_low_bin_compensate_phase+0x4b>

00003124 <fn_low_bin_compensate_phase+0x64>:
    3124:	f3c1f1        	l32r	a15, 28 (7fffffff <_end+0x7fff2873>)
    3127:	00a0a2        	movi	a10, 0
    312a:	004cd6        	bgez	a12, 3132 <fn_low_bin_compensate_phase+0x72>
    312d:	0b0c26        	beqi	a12, -1, 313c <fn_low_bin_compensate_phase+0x7c>

00003130 <fn_low_bin_compensate_phase+0x70>:
    3130:	1a0c           	movi.n	a10, 1

00003132 <fn_low_bin_compensate_phase+0x72>:
    3132:	ca8c           	beqz.n	a10, 3142 <fn_low_bin_compensate_phase+0x82>
    3134:	631ba6        	blti	a11, 1, 319b <fn_low_bin_compensate_phase+0xdb>
    3137:	1a0c           	movi.n	a10, 1
    3139:	fff6c6        	j	3118 <fn_low_bin_compensate_phase+0x58>

0000313c <fn_low_bin_compensate_phase+0x7c>:
    313c:	f23fe7        	bltu	a15, a14, 3132 <fn_low_bin_compensate_phase+0x72>
    313f:	fffb46        	j	3130 <fn_low_bin_compensate_phase+0x70>

00003142 <fn_low_bin_compensate_phase+0x82>:
    3142:	1a0c           	movi.n	a10, 1
    3144:	53aae0        	max	a10, a10, a14
    3147:	4a8c           	beqz.n	a10, 314f <fn_low_bin_compensate_phase+0x8f>
    3149:	172ba7        	blt	a11, a10, 3164 <fn_low_bin_compensate_phase+0xa4>
    314c:	fff206        	j	3118 <fn_low_bin_compensate_phase+0x58>

0000314f <fn_low_bin_compensate_phase+0x8f>:
    314f:	14b8           	l32i.n	a11, a4, 4
    3151:	3a8c           	beqz.n	a10, 3158 <fn_low_bin_compensate_phase+0x98>
    3153:	020c           	movi.n	a2, 0
    3155:	000dc6        	j	3190 <fn_low_bin_compensate_phase+0xd0>

00003158 <fn_low_bin_compensate_phase+0x98>:
    3158:	020c           	movi.n	a2, 0

0000315a <fn_low_bin_compensate_phase+0x9a>:
    315a:	027d           	mov.n	a7, a2
    315c:	020c           	movi.n	a2, 0
    315e:	0019c6        	j	31c9 <fn_low_bin_compensate_phase+0x109>

00003161 <fn_low_bin_compensate_phase+0xa1>:
    3161:	f3b1a1        	l32r	a10, 28 (7fffffff <_end+0x7fff2873>)

00003164 <fn_low_bin_compensate_phase+0xa4>:
    3164:	368a34        	ae_cvtq48a32s	aeq2, a10
    3167:	360b34        	ae_cvtq48a32s	aeq0, a11
    316a:	40ea90        	nsa	a9, a10
    316d:	899d           	ae_sext16	a9, a9
    316f:	fc24fe89cf 	{ ae_slaasq56s	aeq3, aeq0, a9; nop }
    3174:	fd84cf199e 	{ addi	a9, a9, -15; ae_satq48s	aeq1, aeq3 }
    3179:	fc24fea90f 	{ ae_slaasq56s	aeq0, aeq2, a9; nop }
    317e:	ff00ff12ef 	{ ae_trunca32q48	a2, aeq1; ae_satq48s	aeq3, aeq0 }
    3183:	36b804        	ae_trunca32q48	a8, aeq3
    3186:	d22280        	quos	a2, a2, a8
    3189:	a22d           	ae_clamps16	a2, a2

0000318b <fn_low_bin_compensate_phase+0xcb>:
    318b:	14b8           	l32i.n	a11, a4, 4
    318d:	fc9a16        	beqz	a10, 315a <fn_low_bin_compensate_phase+0x9a>

00003190 <fn_low_bin_compensate_phase+0xd0>:
    3190:	027d           	mov.n	a7, a2
    3192:	0a2ba7        	blt	a11, a10, 31a0 <fn_low_bin_compensate_phase+0xe0>
    3195:	f3af21        	l32r	a2, 54 (7fff <xtensa_fft8_32b+0xef>)
    3198:	000b46        	j	31c9 <fn_low_bin_compensate_phase+0x109>

0000319b <fn_low_bin_compensate_phase+0xdb>:
    319b:	1a0c           	movi.n	a10, 1
    319d:	fff0c6        	j	3164 <fn_low_bin_compensate_phase+0xa4>

000031a0 <fn_low_bin_compensate_phase+0xe0>:
    31a0:	360a34        	ae_cvtq48a32s	aeq0, a10
    31a3:	368b34        	ae_cvtq48a32s	aeq2, a11
    31a6:	40ea90        	nsa	a9, a10
    31a9:	899d           	ae_sext16	a9, a9
    31ab:	fc24fea94f 	{ ae_slaasq56s	aeq1, aeq2, a9; nop }
    31b0:	ff04cf199e 	{ addi	a9, a9, -15; ae_satq48s	aeq3, aeq1 }
    31b5:	fc24fe898f 	{ ae_slaasq56s	aeq2, aeq0, a9; nop }
    31ba:	fd80ff32ef 	{ ae_trunca32q48	a2, aeq3; ae_satq48s	aeq1, aeq2 }
    31bf:	369804        	ae_trunca32q48	a8, aeq1
    31c2:	f03d           	nop.n
    31c4:	d22280        	quos	a2, a2, a8
    31c7:	a22d           	ae_clamps16	a2, a2
    31c9:	543124        	ae_lp24x2.i	aep3, a1, 16
    31cc:	043b04        	ae_mulzaafp24s.hh.ll	aeq1, aep3, aep3
    31cf:	f3cc81        	l32r	a8, 100 (cd0 <fxsqrt_ie>)
    31d2:	361054        	ae_sllisq56s	aeq0, aeq1, 1
    31d5:	06c844        	ae_satq48s	aeq3, aeq0
    31d8:	f97f80419e 	{ addi	a9, a1, 4; ae_roundsp24q48asym	aep2, aeq3 }
    31dd:	4e2904        	ae_sp24s.l.i	aep2, a9, 0
    31e0:	11a8           	l32i.n	a10, a1, 4
    31e2:	0008e0        	callx8	a8
    31e5:	301774        	ae_cvtp24a16x2.ll	aep1, a7, a7
    31e8:	307aa4        	ae_cvtp24a16x2.ll	aep7, a10, a10
    31eb:	eb3dd8822f 	{ ae_cvtp24a16x2.ll	aep0, a2, a2; ae_mulfp24s.ll	aeq3, aep7, aep1 }
    31f0:	01f074        	ae_mulfp24s.ll	aeq2, aep7, aep0
    31f3:	3670d4        	ae_sllisq56s	aeq1, aeq3, 3
    31f6:	fe04fae03f 	{ ae_sllisq56s	aeq0, aeq2, 3; ae_satq48s	aeq2, aeq1 }
    31fb:	06c844        	ae_satq48s	aeq3, aeq0
    31fe:	fb7f80844e 	{ addi	a4, a4, 8; ae_roundsp24q48asym	aep6, aeq3 }
    3203:	fa77c0166e 	{ addi	a6, a6, 1; ae_roundsp24q48asym	aep5, aeq2 }
    3208:	ded57021ae 	{ l32i	a10, a1, 8; ae_selp24.hh	aep5, aep5, aep6 }
    320d:	5ed304        	ae_sp24x2f.iu	aep5, a3, 0
    3210:	5c8514        	ae_lp24x2f.iu	aep0, a5, 8
    3213:	7f9aa2        	l16si	a10, a10, 254
    3216:	5cc314        	ae_lp24x2f.iu	aep4, a3, 8
    3219:	564124        	ae_sp24x2s.i	aep4, a1, 16
    321c:	02a6a7        	bge	a6, a10, 3222 <fn_low_bin_compensate_phase+0x162>
    321f:	ffafc6        	j	30e2 <fn_low_bin_compensate_phase+0x22>

00003222 <fn_low_bin_compensate_phase+0x162>:
    3222:	f01d           	retw.n

00003224 <fn_calc_zp_gain>:
    3224:	00e136        	entry	a1, 112
    3227:	5c8304        	ae_lp24x2f.iu	aep0, a3, 0
    322a:	070c           	movi.n	a7, 0
    322c:	f129           	s32i.n	a2, a1, 60
    322e:	116152        	s32i	a5, a1, 68
    3231:	048d           	mov.n	a8, a4
    3233:	0cd262        	addmi	a6, a2, 0xc00
    3236:	664b           	addi.n	a6, a6, 4
    3238:	01a142        	movi	a4, 0x101
    323b:	750c           	movi.n	a5, 7
    323d:	6189           	s32i.n	a8, a1, 24
    323f:	fcc222        	addi	a2, a2, -4
    3242:	7129           	s32i.n	a2, a1, 28

00003244 <fn_calc_zp_gain+0x20>:
    3244:	048804        	ae_mulzaafp24s.hh.ll	aeq3, aep0, aep0
    3247:	36b054        	ae_sllisq56s	aeq2, aeq3, 1
    324a:	066934        	ae_roundsq32asym	aeq1, aeq2
    324d:	369b04        	ae_trunca32q48	a11, aeq1
    3250:	f3b281        	l32r	a8, 118 (8d8 <HIFI_sqrt_ie>)
    3253:	40ebc0        	nsa	a12, a11
    3256:	8ccd           	ae_sext16	a12, a12
    3258:	c0a5c0        	sub	a10, a5, a12
    325b:	401c00        	ssl	a12
    325e:	a1bb00        	sll	a11, a11
    3261:	0008e0        	callx8	a8
    3264:	771b           	addi.n	a7, a7, 1
    3266:	40ebd0        	nsa	a13, a11
    3269:	fc248fea8e 	{ addi	a8, a10, -2; ae_zeroq56	aeq0 }
    326e:	888d           	ae_sext16	a8, a8
    3270:	8ddd           	ae_sext16	a13, a13
    3272:	05ad87        	bge	a13, a8, 327b <fn_calc_zp_gain+0x57>
    3275:	f36ce1        	l32r	a14, 28 (7fffffff <_end+0x7fff2873>)
    3278:	0002c6        	j	3287 <fn_calc_zp_gain+0x63>

0000327b <fn_calc_zp_gain+0x57>:
    327b:	1d18a6        	blti	a8, 1, 329c <fn_calc_zp_gain+0x78>
    327e:	401800        	ssl	a8
    3281:	a1eb00        	sll	a14, a11

00003284 <fn_calc_zp_gain+0x60>:
    3284:	0a1084        	ae_zeroq56	aeq0

00003287 <fn_calc_zp_gain+0x63>:
    3287:	364e34        	ae_cvtq48a32s	aeq1, a14
    328a:	625614        	ae_sq32f.iu	aeq1, a6, 4
    328d:	625214        	ae_sq32f.iu	aeq1, a2, 4
    3290:	624614        	ae_sq32f.iu	aeq0, a6, 4
    3293:	5c8314        	ae_lp24x2f.iu	aep0, a3, 8
    3296:	aa9747        	bne	a7, a4, 3244 <fn_calc_zp_gain+0x20>
    3299:	0002c6        	j	32a8 <fn_calc_zp_gain+0x84>

0000329c <fn_calc_zp_gain+0x78>:
    329c:	609080        	neg	a9, a8
    329f:	400900        	ssr	a9
    32a2:	b1e0b0        	sra	a14, a11
    32a5:	fff6c6        	j	3284 <fn_calc_zp_gain+0x60>

000032a8 <fn_calc_zp_gain+0x84>:
    32a8:	f1a8           	l32i.n	a10, a1, 60
    32aa:	f39381        	l32r	a8, f8 (4938 <real_512_ifft>)
    32ad:	0020f0        	nop
    32b0:	04dab2        	addmi	a11, a10, 0x400
    32b3:	0cdaa2        	addmi	a10, a10, 0xc00
    32b6:	08cbb2        	addi	a11, a11, 8
    32b9:	0961b2        	s32i	a11, a1, 36
    32bc:	08caa2        	addi	a10, a10, 8
    32bf:	0c61a2        	s32i	a10, a1, 48
    32c2:	0008e0        	callx8	a8
    32c5:	00a2d2        	movi	a13, 0x200
    32c8:	533c           	movi.n	a3, 53
    32ca:	f394e1        	l32r	a14, 11c (fffe7961 <_end+0xfffda1d5>)
    32cd:	9188           	l32i.n	a8, a1, 36
    32cf:	feca92        	addi	a9, a10, -2
    32d2:	899d           	ae_sext16	a9, a9
    32d4:	601804        	ae_lq32f.iu	aeq0, a8, 0
    32d7:	0219e6        	bgei	a9, 1, 32dd <fn_calc_zp_gain+0xb9>
    32da:	00d586        	j	3634 <fn_calc_zp_gain+0x410>
    32dd:	0d8d76        	loop	a13, 32ee <fn_calc_zp_gain+0xca>
    32e0:	fc24fe890f 	{ ae_slaasq56s	aeq0, aeq0, a9; nop }
    32e5:	060844        	ae_satq48s	aeq0, aeq0
    32e8:	624804        	ae_sq32f.iu	aeq0, a8, 0
    32eb:	601814        	ae_lq32f.iu	aeq0, a8, 4

000032ee <fn_calc_zp_gain+0xca>:
    32ee:	573c           	movi.n	a7, 53
    32f0:	f35941        	l32r	a4, 54 (7fff <xtensa_fft8_32b+0xef>)
    32f3:	0f21f2        	l32i	a15, a1, 60
    32f6:	0f2182        	l32i	a8, a1, 60
    32f9:	f38961        	l32r	a6, 120 (d610 <scale_tab>)
    32fc:	6ba0a2        	movi	a10, 107
    32ff:	03d882        	addmi	a8, a8, 0x300
    3302:	e0c882        	addi	a8, a8, -32
    3305:	0daa76        	loopgtz	a10, 3316 <fn_calc_zp_gain+0xf2>
    3308:	7f2892        	l32i	a9, a8, 0x1fc
    330b:	884b           	addi.n	a8, a8, 4
    330d:	03ae97        	bge	a14, a9, 3314 <fn_calc_zp_gain+0xf0>
    3310:	09ed           	mov.n	a14, a9
    3312:	073d           	mov.n	a3, a7

00003314 <fn_calc_zp_gain+0xf0>:
    3314:	771b           	addi.n	a7, a7, 1

00003316 <fn_calc_zp_gain+0xf2>:
    3316:	f344e1        	l32r	a14, 28 (7fffffff <_end+0x7fff2873>)
    3319:	070c           	movi.n	a7, 0
    331b:	02df82        	addmi	a8, a15, 0x200
    331e:	491c           	movi.n	a9, 20
    3320:	a0f3f0        	addx4	a15, a3, a15
    3323:	88cb           	addi.n	a8, a8, 12
    3325:	903360        	addx2	a3, a3, a6
    3328:	02dff2        	addmi	a15, a15, 0x200
    332b:	ffcb           	addi.n	a15, a15, 12

0000332d <fn_calc_zp_gain+0x109>:
    332d:	1a3916        	beqz	a9, 34d4 <fn_calc_zp_gain+0x2b0>
    3330:	1a0996        	bltz	a9, 34d4 <fn_calc_zp_gain+0x2b0>
    3333:	17a976        	loopgtz	a9, 334e <fn_calc_zp_gain+0x12a>
    3336:	030190        	rsr.lend	a9
    3339:	130090        	wsr.lbeg	a9
    333c:	86c992        	addi	a9, a9, -122
    333f:	02d992        	addmi	a9, a9, 0x200
    3342:	130190        	wsr.lend	a9
    3345:	002000        	isync
    3348:	030290        	rsr.lcount	a9
    334b:	01c992        	addi	a9, a9, 1
    334e:	23bd           	ae_l16si.n	a11, a3, 0
    3350:	26cd           	ae_l16si.n	a12, a6, 0
    3352:	090c           	movi.n	a9, 0
    3354:	112b10        	slli	a2, a11, 15
    3357:	31a3c0        	srai	a10, a12, 19
    335a:	31b1b0        	srai	a11, a11, 17
    335d:	11cc30        	slli	a12, a12, 13
    3360:	0461c2        	s32i	a12, a1, 16
    3363:	042a77        	blt	a10, a7, 336b <fn_calc_zp_gain+0x147>
    3366:	421a77        	beq	a10, a7, 33ac <fn_calc_zp_gain+0x188>

00003369 <fn_calc_zp_gain+0x145>:
    3369:	190c           	movi.n	a9, 1

0000336b <fn_calc_zp_gain+0x147>:
    336b:	064916        	beqz	a9, 33d3 <fn_calc_zp_gain+0x1af>
    336e:	090c           	movi.n	a9, 0
    3370:	042b77        	blt	a11, a7, 3378 <fn_calc_zp_gain+0x154>
    3373:	3b1b77        	beq	a11, a7, 33b2 <fn_calc_zp_gain+0x18e>

00003376 <fn_calc_zp_gain+0x152>:
    3376:	190c           	movi.n	a9, 1

00003378 <fn_calc_zp_gain+0x154>:
    3378:	c9bc           	beqz.n	a9, 33b8 <fn_calc_zp_gain+0x194>
    337a:	f32b91        	l32r	a9, 28 (7fffffff <_end+0x7fff2873>)

0000337d <fn_calc_zp_gain+0x159>:
    337d:	0f2916        	beqz	a9, 3473 <fn_calc_zp_gain+0x24f>

00003380 <fn_calc_zp_gain+0x15c>:
    3380:	f33591        	l32r	a9, 54 (7fff <xtensa_fft8_32b+0xef>)

00003383 <fn_calc_zp_gain+0x15f>:
    3383:	7f2fa2        	l32i	a10, a15, 0x1fc
    3386:	fb7c           	movi.n	a11, -1
    3388:	8229a0        	mull	a2, a9, a10
    338b:	b299a0        	mulsh	a9, a9, a10
    338e:	404d10        	ssai	29
    3391:	819920        	src	a9, a9, a2
    3394:	1122d0        	slli	a2, a2, 3
    3397:	02a947        	bge	a9, a4, 339d <fn_calc_zp_gain+0x179>
    339a:	0043c6        	j	34ad <fn_calc_zp_gain+0x289>
    339d:	c0c940        	sub	a12, a9, a4
    33a0:	104c56        	bnez	a12, 34a8 <fn_calc_zp_gain+0x284>
    33a3:	02b2b7        	bgeu	a2, a11, 33a9 <fn_calc_zp_gain+0x185>
    33a6:	0040c6        	j	34ad <fn_calc_zp_gain+0x289>
    33a9:	003ec6        	j	34a8 <fn_calc_zp_gain+0x284>

000033ac <fn_calc_zp_gain+0x188>:
    33ac:	bbbec7        	bgeu	a14, a12, 336b <fn_calc_zp_gain+0x147>
    33af:	ffed86        	j	3369 <fn_calc_zp_gain+0x145>

000033b2 <fn_calc_zp_gain+0x18e>:
    33b2:	c2be27        	bgeu	a14, a2, 3378 <fn_calc_zp_gain+0x154>
    33b5:	ffef46        	j	3376 <fn_calc_zp_gain+0x152>

000033b8 <fn_calc_zp_gain+0x194>:
    33b8:	0a0c           	movi.n	a10, 0
    33ba:	f31bd1        	l32r	a13, 28 (7fffffff <_end+0x7fff2873>)
    33bd:	009bd6        	bgez	a11, 33ca <fn_calc_zp_gain+0x1a6>
    33c0:	040b66        	bnei	a11, -1, 33c8 <fn_calc_zp_gain+0x1a4>
    33c3:	0d9d           	mov.n	a9, a13
    33c5:	013927        	bltu	a9, a2, 33ca <fn_calc_zp_gain+0x1a6>

000033c8 <fn_calc_zp_gain+0x1a4>:
    33c8:	1a0c           	movi.n	a10, 1

000033ca <fn_calc_zp_gain+0x1a6>:
    33ca:	f31991        	l32r	a9, 30 (80000000 <_end+0x7fff2874>)
    33cd:	8392a0        	moveqz	a9, a2, a10
    33d0:	ffea46        	j	337d <fn_calc_zp_gain+0x159>

000033d3 <fn_calc_zp_gain+0x1af>:
    33d3:	4198           	l32i.n	a9, a1, 16
    33d5:	0d0c           	movi.n	a13, 0
    33d7:	f314c1        	l32r	a12, 28 (7fffffff <_end+0x7fff2873>)
    33da:	a1c9           	s32i.n	a12, a1, 40
    33dc:	51d9           	s32i.n	a13, a1, 20
    33de:	fc7c           	movi.n	a12, -1
    33e0:	00cad6        	bgez	a10, 33f0 <fn_calc_zp_gain+0x1cc>
    33e3:	050a66        	bnei	a10, -1, 33ec <fn_calc_zp_gain+0x1c8>
    33e6:	0a21a2        	l32i	a10, a1, 40
    33e9:	033a97        	bltu	a10, a9, 33f0 <fn_calc_zp_gain+0x1cc>

000033ec <fn_calc_zp_gain+0x1c8>:
    33ec:	1c0c           	movi.n	a12, 1
    33ee:	51c9           	s32i.n	a12, a1, 20

000033f0 <fn_calc_zp_gain+0x1cc>:
    33f0:	51a8           	l32i.n	a10, a1, 20
    33f2:	042a16        	beqz	a10, 3438 <fn_calc_zp_gain+0x214>
    33f5:	f30ea1        	l32r	a10, 30 (80000000 <_end+0x7fff2874>)
    33f8:	090c           	movi.n	a9, 0
    33fa:	072b77        	blt	a11, a7, 3405 <fn_calc_zp_gain+0x1e1>
    33fd:	029b77        	bne	a11, a7, 3403 <fn_calc_zp_gain+0x1df>
    3400:	01be27        	bgeu	a14, a2, 3405 <fn_calc_zp_gain+0x1e1>

00003403 <fn_calc_zp_gain+0x1df>:
    3403:	190c           	movi.n	a9, 1

00003405 <fn_calc_zp_gain+0x1e1>:
    3405:	498c           	beqz.n	a9, 340d <fn_calc_zp_gain+0x1e9>
    3407:	f30891        	l32r	a9, 28 (7fffffff <_end+0x7fff2873>)
    340a:	000786        	j	342c <fn_calc_zp_gain+0x208>

0000340d <fn_calc_zp_gain+0x1e9>:
    340d:	f30691        	l32r	a9, 28 (7fffffff <_end+0x7fff2873>)
    3410:	0d0c           	movi.n	a13, 0
    3412:	31d9           	s32i.n	a13, a1, 12
    3414:	00cbd6        	bgez	a11, 3424 <fn_calc_zp_gain+0x200>
    3417:	050b66        	bnei	a11, -1, 3420 <fn_calc_zp_gain+0x1fc>
    341a:	20b990        	or	a11, a9, a9
    341d:	033b27        	bltu	a11, a2, 3424 <fn_calc_zp_gain+0x200>

00003420 <fn_calc_zp_gain+0x1fc>:
    3420:	1c0c           	movi.n	a12, 1
    3422:	31c9           	s32i.n	a12, a1, 12

00003424 <fn_calc_zp_gain+0x200>:
    3424:	31d8           	l32i.n	a13, a1, 12
    3426:	f30291        	l32r	a9, 30 (80000000 <_end+0x7fff2874>)
    3429:	8392d0        	moveqz	a9, a2, a13

0000342c <fn_calc_zp_gain+0x208>:
    342c:	043916        	beqz	a9, 3473 <fn_calc_zp_gain+0x24f>
    342f:	f300b1        	l32r	a11, 30 (80000000 <_end+0x7fff2874>)
    3432:	482b97        	blt	a11, a9, 347e <fn_calc_zp_gain+0x25a>
    3435:	ffd1c6        	j	3380 <fn_calc_zp_gain+0x15c>

00003438 <fn_calc_zp_gain+0x214>:
    3438:	09ad           	mov.n	a10, a9
    343a:	00a092        	movi	a9, 0
    343d:	072b77        	blt	a11, a7, 3448 <fn_calc_zp_gain+0x224>
    3440:	029b77        	bne	a11, a7, 3446 <fn_calc_zp_gain+0x222>
    3443:	01be27        	bgeu	a14, a2, 3448 <fn_calc_zp_gain+0x224>

00003446 <fn_calc_zp_gain+0x222>:
    3446:	190c           	movi.n	a9, 1

00003448 <fn_calc_zp_gain+0x224>:
    3448:	798c           	beqz.n	a9, 3453 <fn_calc_zp_gain+0x22f>
    344a:	f2f791        	l32r	a9, 28 (7fffffff <_end+0x7fff2873>)
    344d:	2d2a97        	blt	a10, a9, 347e <fn_calc_zp_gain+0x25a>
    3450:	ffcb06        	j	3380 <fn_calc_zp_gain+0x15c>

00003453 <fn_calc_zp_gain+0x22f>:
    3453:	f2f591        	l32r	a9, 28 (7fffffff <_end+0x7fff2873>)
    3456:	0d0c           	movi.n	a13, 0
    3458:	11d9           	s32i.n	a13, a1, 4
    345a:	00bbd6        	bgez	a11, 3469 <fn_calc_zp_gain+0x245>
    345d:	040b66        	bnei	a11, -1, 3465 <fn_calc_zp_gain+0x241>
    3460:	09bd           	mov.n	a11, a9
    3462:	033b27        	bltu	a11, a2, 3469 <fn_calc_zp_gain+0x245>

00003465 <fn_calc_zp_gain+0x241>:
    3465:	1c0c           	movi.n	a12, 1
    3467:	11c9           	s32i.n	a12, a1, 4

00003469 <fn_calc_zp_gain+0x245>:
    3469:	11d8           	l32i.n	a13, a1, 4
    346b:	f2f191        	l32r	a9, 30 (80000000 <_end+0x7fff2874>)
    346e:	8392d0        	moveqz	a9, a2, a13
    3471:	39cc           	bnez.n	a9, 3478 <fn_calc_zp_gain+0x254>

00003473 <fn_calc_zp_gain+0x24f>:
    3473:	090c           	movi.n	a9, 0
    3475:	ffc286        	j	3383 <fn_calc_zp_gain+0x15f>

00003478 <fn_calc_zp_gain+0x254>:
    3478:	022a97        	blt	a10, a9, 347e <fn_calc_zp_gain+0x25a>
    347b:	ffc046        	j	3380 <fn_calc_zp_gain+0x15c>
    347e:	364934        	ae_cvtq48a32s	aeq1, a9
    3481:	36ca34        	ae_cvtq48a32s	aeq3, a10
    3484:	40e9c0        	nsa	a12, a9
    3487:	8ccd           	ae_sext16	a12, a12
    3489:	fc24febc8f 	{ ae_slaasq56s	aeq2, aeq3, a12; nop }
    348e:	fc80cf1cce 	{ addi	a12, a12, -15; ae_satq48s	aeq0, aeq2 }
    3493:	fc24fe9ccf 	{ ae_slaasq56s	aeq3, aeq1, a12; nop }
    3498:	fe84ff09ef 	{ ae_trunca32q48	a9, aeq0; ae_satq48s	aeq2, aeq3 }
    349d:	36ab04        	ae_trunca32q48	a11, aeq2
    34a0:	d299b0        	quos	a9, a9, a11
    34a3:	a99d           	ae_clamps16	a9, a9
    34a5:	ffb686        	j	3383 <fn_calc_zp_gain+0x15f>

000034a8 <fn_calc_zp_gain+0x284>:
    34a8:	0b2d           	mov.n	a2, a11
    34aa:	209440        	or	a9, a4, a4

000034ad <fn_calc_zp_gain+0x289>:
    34ad:	f2e6b1        	l32r	a11, 48 (8000 <xtensa_fft8_32b+0xf0>)
    34b0:	404010        	ssai	16
    34b3:	b2ba           	add.n	a11, a2, a11
    34b5:	622b20        	saltu	a2, a11, a2
    34b8:	229a           	add.n	a2, a2, a9
    34ba:	090c           	movi.n	a9, 0
    34bc:	81b2b0        	src	a11, a2, a11
    34bf:	312020        	srai	a2, a2, 16
    34c2:	042277        	blt	a2, a7, 34ca <fn_calc_zp_gain+0x2a6>
    34c5:	1f1277        	beq	a2, a7, 34e8 <fn_calc_zp_gain+0x2c4>

000034c8 <fn_calc_zp_gain+0x2a4>:
    34c8:	190c           	movi.n	a9, 1

000034ca <fn_calc_zp_gain+0x2a6>:
    34ca:	ff4b           	addi.n	a15, a15, 4
    34cc:	332b           	addi.n	a3, a3, 2
    34ce:	662b           	addi.n	a6, a6, 2
    34d0:	a99c           	beqz.n	a9, 34ee <fn_calc_zp_gain+0x2ca>

000034d2 <fn_calc_zp_gain+0x2ae>:
    34d2:	884b           	addi.n	a8, a8, 4

000034d4 <fn_calc_zp_gain+0x2b0>:
    34d4:	f188           	l32i.n	a8, a1, 60
    34d6:	71a8           	l32i.n	a10, a1, 28
    34d8:	3b0c           	movi.n	a11, 3
    34da:	02d882        	addmi	a8, a8, 0x200
    34dd:	0adaa2        	addmi	a10, a10, 0xa00
    34e0:	aacb           	addi.n	a10, a10, 12
    34e2:	10c882        	addi	a8, a8, 16
    34e5:	000d86        	j	351f <fn_calc_zp_gain+0x2fb>

000034e8 <fn_calc_zp_gain+0x2c4>:
    34e8:	debeb7        	bgeu	a14, a11, 34ca <fn_calc_zp_gain+0x2a6>
    34eb:	fff646        	j	34c8 <fn_calc_zp_gain+0x2a4>

000034ee <fn_calc_zp_gain+0x2ca>:
    34ee:	fc7c           	movi.n	a12, -1
    34f0:	f2ce91        	l32r	a9, 28 (7fffffff <_end+0x7fff2873>)
    34f3:	0a0c           	movi.n	a10, 0
    34f5:	b199           	s32i.n	a9, a1, 44
    34f7:	7f2892        	l32i	a9, a8, 0x1fc
    34fa:	00a2d6        	bgez	a2, 3508 <fn_calc_zp_gain+0x2e4>
    34fd:	050266        	bnei	a2, -1, 3506 <fn_calc_zp_gain+0x2e2>
    3500:	0b21d2        	l32i	a13, a1, 44
    3503:	013db7        	bltu	a13, a11, 3508 <fn_calc_zp_gain+0x2e4>

00003506 <fn_calc_zp_gain+0x2e2>:
    3506:	1a0c           	movi.n	a10, 1

00003508 <fn_calc_zp_gain+0x2e4>:
    3508:	aa8c           	beqz.n	a10, 3516 <fn_calc_zp_gain+0x2f2>
    350a:	f2c9a1        	l32r	a10, 30 (80000000 <_end+0x7fff2874>)
    350d:	f2c8b1        	l32r	a11, 30 (80000000 <_end+0x7fff2874>)
    3510:	beaa97        	bge	a10, a9, 34d2 <fn_calc_zp_gain+0x2ae>
    3513:	000086        	j	3519 <fn_calc_zp_gain+0x2f5>

00003516 <fn_calc_zp_gain+0x2f2>:
    3516:	b8ab97        	bge	a11, a9, 34d2 <fn_calc_zp_gain+0x2ae>

00003519 <fn_calc_zp_gain+0x2f5>:
    3519:	7f68b2        	s32i	a11, a8, 0x1fc
    351c:	ffec86        	j	34d2 <fn_calc_zp_gain+0x2ae>

0000351f <fn_calc_zp_gain+0x2fb>:
    351f:	290c           	movi.n	a9, 2
    3521:	0aab76        	loopgtz	a11, 352f <fn_calc_zp_gain+0x30b>
    3524:	7f28c2        	l32i	a12, a8, 0x1fc
    3527:	fccaa2        	addi	a10, a10, -4
    352a:	806ac2        	s32i	a12, a10, 0x200
    352d:	884b           	addi.n	a8, a8, 4
    352f:	358976        	loop	a9, 3568 <fn_calc_zp_gain+0x344>
    3532:	7f2892        	l32i	a9, a8, 0x1fc
    3535:	20c882        	addi	a8, a8, 32
    3538:	e0caa2        	addi	a10, a10, -32
    353b:	876a92        	s32i	a9, a10, 0x21c
    353e:	782892        	l32i	a9, a8, 0x1e0
    3541:	866a92        	s32i	a9, a10, 0x218
    3544:	792892        	l32i	a9, a8, 0x1e4
    3547:	856a92        	s32i	a9, a10, 0x214
    354a:	7a2892        	l32i	a9, a8, 0x1e8
    354d:	846a92        	s32i	a9, a10, 0x210
    3550:	7b2892        	l32i	a9, a8, 0x1ec
    3553:	836a92        	s32i	a9, a10, 0x20c
    3556:	7c2892        	l32i	a9, a8, 0x1f0
    3559:	826a92        	s32i	a9, a10, 0x208
    355c:	7d2892        	l32i	a9, a8, 0x1f4
    355f:	816a92        	s32i	a9, a10, 0x204
    3562:	7e2892        	l32i	a9, a8, 0x1f8
    3565:	806a92        	s32i	a9, a10, 0x200

00003568 <fn_calc_zp_gain+0x344>:
    3568:	f2e181        	l32r	a8, ec (4800 <real_512_fft>)
    356b:	91a8           	l32i.n	a10, a1, 36
    356d:	c1b8           	l32i.n	a11, a1, 48
    356f:	0008e0        	callx8	a8
    3572:	0a9d           	mov.n	a9, a10
    3574:	c168           	l32i.n	a6, a1, 48
    3576:	02a282        	movi	a8, 0x202
    3579:	6148           	l32i.n	a4, a1, 24
    357b:	601604        	ae_lq32f.iu	aeq0, a6, 0
    357e:	021ae6        	bgei	a10, 1, 3584 <fn_calc_zp_gain+0x360>
    3581:	003146        	j	364a <fn_calc_zp_gain+0x426>
    3584:	08ad           	mov.n	a10, a8
    3586:	0d8a76        	loop	a10, 3597 <fn_calc_zp_gain+0x373>
    3589:	fc24fe890f 	{ ae_slaasq56s	aeq0, aeq0, a9; nop }
    358e:	060844        	ae_satq48s	aeq0, aeq0
    3591:	624604        	ae_sq32f.iu	aeq0, a6, 0
    3594:	601614        	ae_lq32f.iu	aeq0, a6, 4

00003597 <fn_calc_zp_gain+0x373>:
    3597:	c168           	l32i.n	a6, a1, 48
    3599:	01a132        	movi	a3, 0x101
    359c:	f128           	l32i.n	a2, a1, 60
    359e:	5c8604        	ae_lp24x2f.iu	aep0, a6, 0

000035a1 <fn_calc_zp_gain+0x37d>:
    35a1:	048004        	ae_mulzaafp24s.hh.ll	aeq2, aep0, aep0
    35a4:	366054        	ae_sllisq56s	aeq1, aeq2, 1
    35a7:	061934        	ae_roundsq32asym	aeq0, aeq1
    35aa:	368b04        	ae_trunca32q48	a11, aeq0
    35ad:	f2da81        	l32r	a8, 118 (8d8 <HIFI_sqrt_ie>)
    35b0:	40ebc0        	nsa	a12, a11
    35b3:	8ccd           	ae_sext16	a12, a12
    35b5:	c0a5c0        	sub	a10, a5, a12
    35b8:	401c00        	ssl	a12
    35bb:	a1bb00        	sll	a11, a11
    35be:	0008e0        	callx8	a8
    35c1:	0288           	l32i.n	a8, a2, 0
    35c3:	40ebd0        	nsa	a13, a11
    35c6:	feca92        	addi	a9, a10, -2
    35c9:	899d           	ae_sext16	a9, a9
    35cb:	8ddd           	ae_sext16	a13, a13
    35cd:	06ad97        	bge	a13, a9, 35d7 <fn_calc_zp_gain+0x3b3>
    35d0:	28dc           	bnez.n	a8, 35e6 <fn_calc_zp_gain+0x3c2>

000035d2 <fn_calc_zp_gain+0x3ae>:
    35d2:	090c           	movi.n	a9, 0
    35d4:	000446        	j	35e9 <fn_calc_zp_gain+0x3c5>

000035d7 <fn_calc_zp_gain+0x3b3>:
    35d7:	2319a6        	blti	a9, 1, 35fe <fn_calc_zp_gain+0x3da>
    35da:	401900        	ssl	a9
    35dd:	a19b00        	sll	a9, a11

000035e0 <fn_calc_zp_gain+0x3bc>:
    35e0:	fee816        	beqz	a8, 35d2 <fn_calc_zp_gain+0x3ae>
    35e3:	232987        	blt	a9, a8, 360a <fn_calc_zp_gain+0x3e6>

000035e6 <fn_calc_zp_gain+0x3c2>:
    35e6:	f29b91        	l32r	a9, 54 (7fff <xtensa_fft8_32b+0xef>)

000035e9 <fn_calc_zp_gain+0x3c5>:
    35e9:	1121a2        	l32i	a10, a1, 68
    35ec:	224b           	addi.n	a2, a2, 4
    35ee:	330b           	addi.n	a3, a3, -1
    35f0:	53aa90        	max	a10, a10, a9
    35f3:	09c4a4        	ae_s16ip	a10, a4, 2
    35f6:	5c8614        	ae_lp24x2f.iu	aep0, a6, 8
    35f9:	fa4356        	bnez	a3, 35a1 <fn_calc_zp_gain+0x37d>
    35fc:	f01d           	retw.n

000035fe <fn_calc_zp_gain+0x3da>:
    35fe:	60c090        	neg	a12, a9
    3601:	400c00        	ssr	a12
    3604:	b190b0        	sra	a9, a11
    3607:	fff546        	j	35e0 <fn_calc_zp_gain+0x3bc>

0000360a <fn_calc_zp_gain+0x3e6>:
    360a:	368834        	ae_cvtq48a32s	aeq2, a8
    360d:	360934        	ae_cvtq48a32s	aeq0, a9
    3610:	40e8b0        	nsa	a11, a8
    3613:	8bbd           	ae_sext16	a11, a11
    3615:	fc24fe8bcf 	{ ae_slaasq56s	aeq3, aeq0, a11; nop }
    361a:	fd84cf1bbe 	{ addi	a11, a11, -15; ae_satq48s	aeq1, aeq3 }
    361f:	fc24feab0f 	{ ae_slaasq56s	aeq0, aeq2, a11; nop }
    3624:	ff00ff19ef 	{ ae_trunca32q48	a9, aeq1; ae_satq48s	aeq3, aeq0 }
    3629:	36ba04        	ae_trunca32q48	a10, aeq3
    362c:	d299a0        	quos	a9, a9, a10
    362f:	a99d           	ae_clamps16	a9, a9
    3631:	ffed06        	j	35e9 <fn_calc_zp_gain+0x3c5>

00003634 <fn_calc_zp_gain+0x410>:
    3634:	f03d           	nop.n
    3636:	0d8d76        	loop	a13, 3647 <fn_calc_zp_gain+0x423>
    3639:	fc24fe890f 	{ ae_slaasq56s	aeq0, aeq0, a9; nop }
    363e:	060934        	ae_roundsq32asym	aeq0, aeq0
    3641:	624804        	ae_sq32f.iu	aeq0, a8, 0
    3644:	601814        	ae_lq32f.iu	aeq0, a8, 4

00003647 <fn_calc_zp_gain+0x423>:
    3647:	ff28c6        	j	32ee <fn_calc_zp_gain+0xca>

0000364a <fn_calc_zp_gain+0x426>:
    364a:	08ad           	mov.n	a10, a8
    364c:	f03d           	nop.n
    364e:	0d8a76        	loop	a10, 365f <fn_calc_zp_gain+0x43b>
    3651:	fc24fe890f 	{ ae_slaasq56s	aeq0, aeq0, a9; nop }
    3656:	060934        	ae_roundsq32asym	aeq0, aeq0
    3659:	624604        	ae_sq32f.iu	aeq0, a6, 0
    365c:	601614        	ae_lq32f.iu	aeq0, a6, 4

0000365f <fn_calc_zp_gain+0x43b>:
    365f:	ffcd06        	j	3597 <fn_calc_zp_gain+0x373>

00003662 <fn_calc_zp_gain+0x43e>:
	...

00003664 <fn_ini_pitch_detection>:
    3664:	004136        	entry	a1, 32
    3667:	02ad           	mov.n	a10, a2
    3669:	f29781        	l32r	a8, c8 (8808 <xt_memset>)
    366c:	0b0c           	movi.n	a11, 0
    366e:	12a0c2        	movi	a12, 18
    3671:	0008e0        	callx8	a8
    3674:	03bd           	mov.n	a11, a3
    3676:	f26381        	l32r	a8, 4 (8820 <xt_memcpy>)
    3679:	02ad           	mov.n	a10, a2
    367b:	ec0c           	movi.n	a12, 14
    367d:	0008e0        	callx8	a8
    3680:	8249           	s32i.n	a4, a2, 32
    3682:	f01d           	retw.n

00003684 <fn_pitch_detection>:
    3684:	008136        	entry	a1, 64
    3687:	f26871        	l32r	a7, 28 (7fffffff <_end+0x7fff2873>)
    368a:	8298           	l32i.n	a9, a2, 32
    368c:	0a9282        	l16si	a8, a2, 20
    368f:	6199           	s32i.n	a9, a1, 24
    3691:	08d992        	addmi	a9, a9, 0x800
    3694:	3199           	s32i.n	a9, a1, 12
    3696:	0218e6        	bgei	a8, 1, 369c <fn_pitch_detection+0x18>
    3699:	00c246        	j	39a6 <fn_pitch_detection+0x322>
    369c:	f26b61        	l32r	a6, 48 (8000 <xtensa_fft8_32b+0xf0>)
    369f:	f2a1a1        	l32r	a10, 124 (6a4d3c26 <_end+0x6a4c649a>)
    36a2:	f2a0c1        	l32r	a12, 124 (6a4d3c26 <_end+0x6a4c649a>)
    36a5:	f270b1        	l32r	a11, 68 (ffff8000 <_end+0xfffea874>)
    36a8:	f26b91        	l32r	a9, 54 (7fff <xtensa_fft8_32b+0xef>)
    36ab:	404f10        	ssai	31
    36ae:	828bc0        	mull	a8, a11, a12
    36b1:	8259a0        	mull	a5, a9, a10
    36b4:	b2bbc0        	mulsh	a11, a11, a12
    36b7:	b299a0        	mulsh	a9, a9, a10
    36ba:	81bb80        	src	a11, a11, a8
    36bd:	404010        	ssai	16
    36c0:	1188f0        	slli	a8, a8, 1
    36c3:	a86a           	add.n	a10, a8, a6
    36c5:	628a80        	saltu	a8, a10, a8
    36c8:	88ba           	add.n	a8, a8, a11
    36ca:	81a8a0        	src	a10, a8, a10
    36cd:	21a9           	s32i.n	a10, a1, 8
    36cf:	318080        	srai	a8, a8, 16
    36d2:	404f10        	ssai	31
    36d5:	819950        	src	a9, a9, a5
    36d8:	1189           	s32i.n	a8, a1, 4
    36da:	404010        	ssai	16
    36dd:	1155f0        	slli	a5, a5, 1
    36e0:	656a           	add.n	a6, a5, a6
    36e2:	625650        	saltu	a5, a6, a5
    36e5:	559a           	add.n	a5, a5, a9
    36e7:	816560        	src	a6, a5, a6
    36ea:	5169           	s32i.n	a6, a1, 20
    36ec:	315050        	srai	a5, a5, 16
    36ef:	4159           	s32i.n	a5, a1, 16
    36f1:	6168           	l32i.n	a6, a1, 24
    36f3:	050c           	movi.n	a5, 0
    36f5:	000506        	j	370d <fn_pitch_detection+0x89>

000036f8 <fn_pitch_detection+0x74>:
    36f8:	5bbc           	beqz.n	a11, 3731 <fn_pitch_detection+0xad>

000036fa <fn_pitch_detection+0x76>:
    36fa:	190c           	movi.n	a9, 1

000036fc <fn_pitch_detection+0x78>:
    36fc:	79bc           	beqz.n	a9, 3737 <fn_pitch_detection+0xb3>

000036fe <fn_pitch_detection+0x7a>:
    36fe:	f24a91        	l32r	a9, 28 (7fffffff <_end+0x7fff2873>)

00003701 <fn_pitch_detection+0x7d>:
    3701:	0a92e2        	l16si	a14, a2, 20
    3704:	09e694        	ae_s32ip	a9, a6, 4
    3707:	0225e7        	blt	a5, a14, 370d <fn_pitch_detection+0x89>
    370a:	003946        	j	37f3 <fn_pitch_detection+0x16f>

0000370d <fn_pitch_detection+0x89>:
    370d:	03a8           	l32i.n	a10, a3, 0
    370f:	f26781        	l32r	a8, ac (d40 <fxlog10>)
    3712:	01caa2        	addi	a10, a10, 1
    3715:	0008e0        	callx8	a8
    3718:	f28481        	l32r	a8, 128 (b4fa <window+0x15a>)
    371b:	334b           	addi.n	a3, a3, 4
    371d:	551b           	addi.n	a5, a5, 1
    371f:	34a8a7        	bge	a8, a10, 3757 <fn_pitch_detection+0xd3>
    3722:	090c           	movi.n	a9, 0
    3724:	41b8           	l32i.n	a11, a1, 16
    3726:	f24b81        	l32r	a8, 54 (7fff <xtensa_fft8_32b+0xef>)
    3729:	51a8           	l32i.n	a10, a1, 20
    372b:	fc9bd6        	bgez	a11, 36f8 <fn_pitch_detection+0x74>
    372e:	fff286        	j	36fc <fn_pitch_detection+0x78>

00003731 <fn_pitch_detection+0xad>:
    3731:	c7b7a7        	bgeu	a7, a10, 36fc <fn_pitch_detection+0x78>
    3734:	fff086        	j	36fa <fn_pitch_detection+0x76>

00003737 <fn_pitch_detection+0xb3>:
    3737:	f23cf1        	l32r	a15, 28 (7fffffff <_end+0x7fff2873>)
    373a:	41e8           	l32i.n	a14, a1, 16
    373c:	51b8           	l32i.n	a11, a1, 20
    373e:	090c           	movi.n	a9, 0
    3740:	004ed6        	bgez	a14, 3748 <fn_pitch_detection+0xc4>
    3743:	0a0e26        	beqi	a14, -1, 3751 <fn_pitch_detection+0xcd>

00003746 <fn_pitch_detection+0xc2>:
    3746:	190c           	movi.n	a9, 1

00003748 <fn_pitch_detection+0xc4>:
    3748:	0a2916        	beqz	a9, 37ee <fn_pitch_detection+0x16a>

0000374b <fn_pitch_detection+0xc7>:
    374b:	f23991        	l32r	a9, 30 (80000000 <_end+0x7fff2874>)
    374e:	ffebc6        	j	3701 <fn_pitch_detection+0x7d>

00003751 <fn_pitch_detection+0xcd>:
    3751:	f33fb7        	bltu	a15, a11, 3748 <fn_pitch_detection+0xc4>
    3754:	fffb86        	j	3746 <fn_pitch_detection+0xc2>

00003757 <fn_pitch_detection+0xd3>:
    3757:	f275f1        	l32r	a15, 12c (ffffb4fa <_end+0xfffedd6e>)
    375a:	11b8           	l32i.n	a11, a1, 4
    375c:	f24381        	l32r	a8, 68 (ffff8000 <_end+0xfffea874>)
    375f:	332fa7        	blt	a15, a10, 3796 <fn_pitch_detection+0x112>
    3762:	090c           	movi.n	a9, 0
    3764:	21a8           	l32i.n	a10, a1, 8
    3766:	003b96        	bltz	a11, 376d <fn_pitch_detection+0xe9>
    3769:	db9c           	beqz.n	a11, 378a <fn_pitch_detection+0x106>

0000376b <fn_pitch_detection+0xe7>:
    376b:	190c           	movi.n	a9, 1

0000376d <fn_pitch_detection+0xe9>:
    376d:	f8d956        	bnez	a9, 36fe <fn_pitch_detection+0x7a>
    3770:	f22ef1        	l32r	a15, 28 (7fffffff <_end+0x7fff2873>)
    3773:	11d8           	l32i.n	a13, a1, 4
    3775:	21b8           	l32i.n	a11, a1, 8
    3777:	00a092        	movi	a9, 0
    377a:	004dd6        	bgez	a13, 3782 <fn_pitch_detection+0xfe>
    377d:	0f0d26        	beqi	a13, -1, 3790 <fn_pitch_detection+0x10c>

00003780 <fn_pitch_detection+0xfc>:
    3780:	190c           	movi.n	a9, 1

00003782 <fn_pitch_detection+0xfe>:
    3782:	fc5956        	bnez	a9, 374b <fn_pitch_detection+0xc7>
    3785:	2198           	l32i.n	a9, a1, 8
    3787:	ffdd86        	j	3701 <fn_pitch_detection+0x7d>

0000378a <fn_pitch_detection+0x106>:
    378a:	dfb7a7        	bgeu	a7, a10, 376d <fn_pitch_detection+0xe9>
    378d:	fff686        	j	376b <fn_pitch_detection+0xe7>

00003790 <fn_pitch_detection+0x10c>:
    3790:	ee3fb7        	bltu	a15, a11, 3782 <fn_pitch_detection+0xfe>
    3793:	fffa46        	j	3780 <fn_pitch_detection+0xfc>

00003796 <fn_pitch_detection+0x112>:
    3796:	f26681        	l32r	a8, 130 (ffffcb05 <_end+0xfffef379>)
    3799:	404f10        	ssai	31
    379c:	f262d1        	l32r	a13, 124 (6a4d3c26 <_end+0x6a4c649a>)
    379f:	8a8a           	add.n	a8, a10, a8
    37a1:	f229a1        	l32r	a10, 48 (8000 <xtensa_fft8_32b+0xf0>)
    37a4:	888d           	ae_sext16	a8, a8
    37a6:	8298d0        	mull	a9, a8, a13
    37a9:	b2d8d0        	mulsh	a13, a8, a13
    37ac:	11c9f0        	slli	a12, a9, 1
    37af:	81dd90        	src	a13, a13, a9
    37b2:	9099a0        	addx2	a9, a9, a10
    37b5:	404010        	ssai	16
    37b8:	0a0c           	movi.n	a10, 0
    37ba:	62c9c0        	saltu	a12, a9, a12
    37bd:	ccda           	add.n	a12, a12, a13
    37bf:	819c90        	src	a9, a12, a9
    37c2:	31c0c0        	srai	a12, a12, 16
    37c5:	003c96        	bltz	a12, 37cc <fn_pitch_detection+0x148>
    37c8:	6c9c           	beqz.n	a12, 37e2 <fn_pitch_detection+0x15e>

000037ca <fn_pitch_detection+0x146>:
    37ca:	1a0c           	movi.n	a10, 1

000037cc <fn_pitch_detection+0x148>:
    37cc:	f2ea56        	bnez	a10, 36fe <fn_pitch_detection+0x7a>
    37cf:	f216b1        	l32r	a11, 28 (7fffffff <_end+0x7fff2873>)
    37d2:	0a0c           	movi.n	a10, 0
    37d4:	004cd6        	bgez	a12, 37dc <fn_pitch_detection+0x158>
    37d7:	0d0c26        	beqi	a12, -1, 37e8 <fn_pitch_detection+0x164>

000037da <fn_pitch_detection+0x156>:
    37da:	1a0c           	movi.n	a10, 1

000037dc <fn_pitch_detection+0x158>:
    37dc:	f6ba56        	bnez	a10, 374b <fn_pitch_detection+0xc7>
    37df:	ffc786        	j	3701 <fn_pitch_detection+0x7d>

000037e2 <fn_pitch_detection+0x15e>:
    37e2:	e6b797        	bgeu	a7, a9, 37cc <fn_pitch_detection+0x148>
    37e5:	fff846        	j	37ca <fn_pitch_detection+0x146>

000037e8 <fn_pitch_detection+0x164>:
    37e8:	f03b97        	bltu	a11, a9, 37dc <fn_pitch_detection+0x158>
    37eb:	fffac6        	j	37da <fn_pitch_detection+0x156>

000037ee <fn_pitch_detection+0x16a>:
    37ee:	5198           	l32i.n	a9, a1, 20
    37f0:	ffc346        	j	3701 <fn_pitch_detection+0x7d>

000037f3 <fn_pitch_detection+0x16f>:
    37f3:	618d           	ae_s16i.n	a8, a1, 0
    37f5:	00a1e2        	movi	a14, 0x100
    37f8:	02ae57        	bge	a14, a5, 37fe <fn_pitch_detection+0x17a>
    37fb:	0066c6        	j	399a <fn_pitch_detection+0x316>

000037fe <fn_pitch_detection+0x17a>:
    37fe:	f24d91        	l32r	a9, 134 (c0000000 <_end+0xbfff2874>)
    3801:	062182        	l32i	a8, a1, 24
    3804:	01a1a2        	movi	a10, 0x101
    3807:	c0aa50        	sub	a10, a10, a5
    380a:	a08580        	addx4	a8, a5, a8
    380d:	02aa76        	loopgtz	a10, 3813 <fn_pitch_detection+0x18f>
    3810:	09e894        	ae_s32ip	a9, a8, 4

00003813 <fn_pitch_detection+0x18f>:
    3813:	01a152        	movi	a5, 0x101

00003816 <fn_pitch_detection+0x192>:
    3816:	1195e0        	slli	a9, a5, 2
    3819:	6188           	l32i.n	a8, a1, 24
    381b:	00a2e2        	movi	a14, 0x200
    381e:	c0ee50        	sub	a14, a14, a5
    3821:	a06580        	addx4	a6, a5, a8
    3824:	c08890        	sub	a8, a8, a9
    3827:	06d882        	addmi	a8, a8, 0x600
    382a:	2490e0        	extui	a9, a14, 0, 3
    382d:	08a976        	loopgtz	a9, 3839 <fn_pitch_detection+0x1b5>
    3830:	fcc882        	addi	a8, a8, -4
    3833:	8128f2        	l32i	a15, a8, 0x204
    3836:	09e6f4        	ae_s32ip	a15, a6, 4

00003839 <fn_pitch_detection+0x1b5>:
    3839:	2193e0        	srai	a9, a14, 3
    383c:	f03d           	nop.n
    383e:	32a976        	loopgtz	a9, 3874 <fn_pitch_detection+0x1f0>
    3841:	802892        	l32i	a9, a8, 0x200
    3844:	e0c882        	addi	a8, a8, -32
    3847:	09e694        	ae_s32ip	a9, a6, 4
    384a:	872892        	l32i	a9, a8, 0x21c
    384d:	09e694        	ae_s32ip	a9, a6, 4
    3850:	862892        	l32i	a9, a8, 0x218
    3853:	09e694        	ae_s32ip	a9, a6, 4
    3856:	852892        	l32i	a9, a8, 0x214
    3859:	09e694        	ae_s32ip	a9, a6, 4
