
Build/lib/pisplit_ecnr_position_independent.splitload.lib:     file format elf32-xtensa-le


Disassembly of section .text:

00000000 <_init-0x668>:
       0:	0000ca90 0000ac80 00002f30 0000ac9c     ........0/......
      10:	00002fec 0000acb4 00003a40 0000accc     ./......@:......
      20:	00004470 0000ace8 00006a94 0000acfc     pD.......j......
      30:	000043bc 0000ad14 00006790 0000ad28     .C.......g..(...
      40:	00004418 0000ad40 000044e4 0000ad60     .D..@....D..`...
      50:	000061e4 0000ad7c 00009bd4 0000ad8c     .a..|...........
      60:	00002f38 0000ada8 0000454c 0000c130     8/......LE..0...
      70:	0000bb75 00001930 00000808 0000ca94     u...0...........
      80:	89442379 0000c500 0000c200 7fffffff     y#D.............
      90:	0000c270 80000000 00008000 00009dc8     p...............
      a0:	0000ca9c 00009de0 000a0000 dacccccd     ................
      b0:	00009e7c fc000000 c1600000 00009d34     |.........`.4...
      c0:	00b33333 ff4ccccd 00800000 00004000     33....L......@..
      d0:	00005b33 00000988 7fff0000 7e1401ec     3[.............~
      e0:	7fe70019 00004920 00009bf0 000008a0     .... I..........
      f0:	0000c4e0 33334ccd 00147ae1 00000900     .....L33.z......
     100:	000022f8 00078000 00010000 002ccccd     ."............,.
     110:	00466666 00533333 005851ec 005ae148     ffF.33S..QX.H.Z.
     120:	005ccccd 00600000 fffe0000 0000828f     ..\...`.........
     130:	00030000 00020000 0000c148 004ccccd     ........H.....L.
     140:	006ccccd 0059999a 00733333 00003fff     ..l...Y.33s..?..
     150:	00000fc4 0070a3d7 0039999a 005d70a4     ......p...9..p].
     160:	00014000 007e147b 00666666 000ccccd     .@..{.~.fff.....
     170:	00100000 007fbe77 000051fc 000051b8     ....w....Q...Q..
     180:	0000145c 000aaaab 00009eb0 000051e0     \............Q..
     190:	02000000 01000000 00000860 05000000     ........`.......
     1a0:	00002188 0c000000 00435e51 0099999a     .!......Q^C.....
     1b0:	00cccccd 0159999a 13ffffff 0a8f5c28     ......Y.....(\..
     1c0:	2eb851ec 1f000000 0bffffff 005a8200     .Q............Z.
     1d0:	cccd0000 00400000 199a0000 33330000     ......@.......33
     1e0:	3d710000 e6660000 f3330000 c28f0000     ..q=..f...3.....
     1f0:	0ccd0000 00002658 00002640 00001928     ....X&..@&..(...
     200:	00007fff 0000fff7 00200000 002aaa00     .......... ...*.
     210:	0000c170 0000c174 00080000 00008c40     p...t.......@...
     220:	00008b28 000026d0 0000c188 00002838     (....&......8(..
     230:	00002760 00006af8 00009adc 00002fb8     `'...j......./..
     240:	00001834 00002f64 00002f78 00002440     4...d/..x/..@$..
     250:	00006824 00002f8c 0000ca98 00002000     $h.../....... ..
     260:	000060c8 00004654 0000c38c 0000c1a0     .`..TF..........
     270:	0000c39c 0000c3dc 0000c420 0000c3a0     ........ .......
     280:	00001a26 00001a2a 00001a24 00001a28     &...*...$...(...
     290:	007fffff 00011111 0000317c 00001830     ........|1..0...
     2a0:	000033d8 000031b8 00003484 000035fc     .3...1...4...5..
     2b0:	00003784 00002924 00002bd8 000037b8     .7..$)...+...7..
     2c0:	00004a10 00004d60 000038cc 0000503c     .J..`M...8..<P..
     2d0:	00004eec 0000544c 000039f4 000055f8     .N..LT...9...U..
     2e0:	00005968 00005b58 00003558 00003314     hY..X[..X5...3..
     2f0:	000038e0 00002ee4 000023f8 00006864     .8.......#..dh..
     300:	0000397c 00003900 00003424 000052f4     |9...9..$4...R..
     310:	00007990 00006ad4 000043a8 000067d4     .y...j...C...g..
     320:	10000000 00001000 000045f0 0000c18c     .........E......
     330:	40000000 0e390000 3eb80000 18000000     ...@..9....>....
     340:	0d330000 00006000 00001770 00004600     ..3..`..p....F..
     350:	00004644 0000461c 00006bd8 0000fffe     DF...F...k......
     360:	ffff8000 ffff0000 000ccccc 00393e4b     ............K>9.
     370:	00155555 00175e97 00004560 00004ebc     UU...^..`E...N..
     380:	000049b0 00004950 3fff0000 c0010000     .I..PI.....?....
     390:	0000c1a8 0000c198 00006ccd 0000c19c     .........l......
     3a0:	00007efa 00000fff 00007e00 00004666     .~.......~..fF..
     3b0:	00003b00 00004a3d 000043d7 00007fae     .;..=J...C......
     3c0:	0000c190 00000800 000055aa 00006a90     .........U...j..
     3d0:	00005f14 00006a80 00005a5a 00005fec     ._...j..ZZ..._..
     3e0:	00004470 00007f80 0000b610 0000b7f0     pD..............
     3f0:	0000ba00 007fff00 0000af50 0000add0     ........P.......
     400:	0000b160 0000b3b0 0000b1f0 0000b5c0     `...............
     410:	00000920 00006360 000062e0 00006310      ...`c...b...c..
     420:	0000c760 ffffb800 b8000000 000008b0     `...............
     430:	0000c540 00006370 00009b68 00006514     @...pc..h....e..
     440:	00006a6c 00007b24 00007da4 00007f1c     lj..${...}......
     450:	0000806c 00008190 000084b0 00008808     l...............
     460:	00001af0 00001b48 00000720 0000c980     ....H... .......
     470:	000068f0 00006b24 00038e39 0000bb32     .h..$k..9...2...
     480:	00009488 7f5c00a4 7ff00010 0000979c     ......\.........
     490:	20000000 0000c402 00007af8 0000c4f2     ... .....z......
     4a0:	2666599a 46666666 1e666666 30000000     .Yf&fffFfff....0
     4b0:	7ccd0333 00007000 23333333 40004000     3..|.p..333#.@.@
     4c0:	7eb80148 00333333 1ccccccd 1b333333     H..~333.....333.
     4d0:	00005000 599a2666 00266666 00001999     .P..f&.Yff&.....
     4e0:	6666199a 00003334 007ccccd 7fbe0042     ..ff43....|.B...
     4f0:	7f1b00e5 00006b78 04000000 034ccccd     ....xk........L.
     500:	fe800000 003fffff ffa66666 50000000     ......?.ff.....P
     510:	0000c400 ff800000 0059999b 04cccccd     ..........Y.....
     520:	01eb851f 0000e666 00500000 6ccd1333     ....f.....P.3..l
     530:	00007c28 00007998 0000e000 00007666     (|...y......fv..
     540:	5999999a 799a0666 0000228e 00000999     ...Yf..y."......
     550:	0000c1e0 00480000 00006ca8 75c30a3d     ......H..l..=..u
     560:	0000bb34 0000bb38 0000c530 0000c1e8     4...8...0.......
     570:	0000c1ec 000e38e4 0000c520 00124925     .....8.. ...%I..
     580:	000009e0 00000fb4 00008248 00008264     ........H...d...
     590:	00008360 80000001 00005a82 0000bd24     `........Z..$...
     5a0:	00008e64 0000ba2c 00008cd8 00008c60     d...,.......`...
     5b0:	00008e84 00009068 00009094 000090c4     ....h...........
     5c0:	00009120 000090f4 0000ba30 00009194      .......0.......
     5d0:	00009168 00009398 00009444 00003333     h.......D...33..
     5e0:	0000599a ffe66666 003eb852 00333334     .Y..ff..R.>.433.
     5f0:	00266667 0019999a ffc147ae ffcccccc     gf&......G......
     600:	fff33333 ffd99999 ffe00000 ffc00000     33..............
     610:	06400000 016db22c 00028f5d 11000000     ..@.,.m.].......
     620:	0effffff 077fffff 0021eb86 15000000     ..........!.....
     630:	00666667 cb333333 0000977c fb333333     gff.333.|...333.
     640:	f4000000 04cccccc 00009550 13000000     ........P.......
     650:	00009640 000096b8 0399999a 02999999     @...............
     660:	00009a98 7ff00000                       ........

00000668 <_init>:
     668:	008136        	entry	a1, 64
     66b:	f01d           	retw.n

0000066d <_init+0x5>:
     66d:	000000                                        ...

00000670 <_start>:
     670:	004136        	entry	a1, 32
     673:	fe64a1        	l32r	a10, 4 (ac80 <_DYNAMIC+0xba0>)
     676:	fe6231        	l32r	a3, 0 (ca90 <__bss_start>)
     679:	0288           	l32i.n	a8, a2, 0
     67b:	fe63b1        	l32r	a11, 8 (2f30 <get_aec_nr_memsize>)
     67e:	0389           	s32i.n	a8, a3, 0
     680:	0008e0        	callx8	a8
     683:	0388           	l32i.n	a8, a3, 0
     685:	fe61a1        	l32r	a10, c (ac9c <_DYNAMIC+0xbbc>)
     688:	fe62b1        	l32r	a11, 10 (2fec <Voice_WB_TX_Init>)
     68b:	0008e0        	callx8	a8
     68e:	002382        	l32i	a8, a3, 0
     691:	fe60a1        	l32r	a10, 14 (acb4 <_DYNAMIC+0xbd4>)
     694:	fe61b1        	l32r	a11, 18 (3a40 <Voice_WB_TX_Prcs>)
     697:	0008e0        	callx8	a8
     69a:	0388           	l32i.n	a8, a3, 0
     69c:	fe60a1        	l32r	a10, 1c (accc <_DYNAMIC+0xbec>)
     69f:	fe60b1        	l32r	a11, 20 (4470 <EC_REF_GAIN_READBACK>)
     6a2:	0008e0        	callx8	a8
     6a5:	0388           	l32i.n	a8, a3, 0
     6a7:	fe5fa1        	l32r	a10, 24 (ace8 <_DYNAMIC+0xc08>)
     6aa:	fe5fb1        	l32r	a11, 28 (6a94 <NB_RX_NR_init>)
     6ad:	0008e0        	callx8	a8
     6b0:	0388           	l32i.n	a8, a3, 0
     6b2:	fe5ea1        	l32r	a10, 2c (acfc <_DYNAMIC+0xc1c>)
     6b5:	fe5eb1        	l32r	a11, 30 (43bc <Voice_NB_RX_Prcs>)
     6b8:	0008e0        	callx8	a8
     6bb:	0388           	l32i.n	a8, a3, 0
     6bd:	fe5da1        	l32r	a10, 34 (ad14 <_DYNAMIC+0xc34>)
     6c0:	fe5eb1        	l32r	a11, 38 (6790 <WB_RX_NR_init>)
     6c3:	0008e0        	callx8	a8
     6c6:	002382        	l32i	a8, a3, 0
     6c9:	fe5ca1        	l32r	a10, 3c (ad28 <_DYNAMIC+0xc48>)
     6cc:	fe5db1        	l32r	a11, 40 (4418 <Voice_WB_RX_Prcs>)
     6cf:	0008e0        	callx8	a8
     6d2:	0388           	l32i.n	a8, a3, 0
     6d4:	fe5ca1        	l32r	a10, 44 (ad40 <_DYNAMIC+0xc60>)
     6d7:	fe5cb1        	l32r	a11, 48 (44e4 <EC_PreLim_Coef_READBACK>)
     6da:	0008e0        	callx8	a8
     6dd:	0388           	l32i.n	a8, a3, 0
     6df:	fe5ba1        	l32r	a10, 4c (ad60 <_DYNAMIC+0xc80>)
     6e2:	fe5bb1        	l32r	a11, 50 (61e4 <AEC_NR_Write_FLASH>)
     6e5:	0008e0        	callx8	a8
     6e8:	0388           	l32i.n	a8, a3, 0
     6ea:	fe5aa1        	l32r	a10, 54 (ad7c <_DYNAMIC+0xc9c>)
     6ed:	fe5ab1        	l32r	a11, 58 (9bd4 <EQ_update>)
     6f0:	0008e0        	callx8	a8
     6f3:	0388           	l32i.n	a8, a3, 0
     6f5:	fe59a1        	l32r	a10, 5c (ad8c <_DYNAMIC+0xcac>)
     6f8:	fe5ab1        	l32r	a11, 60 (2f38 <get_txnr_pitch_last>)
     6fb:	0008e0        	callx8	a8
     6fe:	0388           	l32i.n	a8, a3, 0
     700:	fe59a1        	l32r	a10, 64 (ada8 <_DYNAMIC+0xcc8>)
     703:	fe59b1        	l32r	a11, 68 (454c <DaulMIC_power_Coef_READBACK>)
     706:	0008e0        	callx8	a8
     709:	fe5821        	l32r	a2, 6c (c130 <export_parameter_array>)
     70c:	f01d           	retw.n

0000070e <_start+0x9e>:
	...

00000710 <my_rand>:
     710:	004136        	entry	a1, 32
     713:	fe5731        	l32r	a3, 70 (bb75 <fftorder_512_12b+0x45>)
     716:	d12230        	mul16s	a2, a2, a3
     719:	822d           	ae_sext16	a2, a2
     71b:	f01d           	retw.n

0000071d <my_rand+0xd>:
     71d:	000000                                        ...

00000720 <comfort_noise_gen_wb>:
     720:	008136        	entry	a1, 64
     723:	1129           	s32i.n	a2, a1, 4
     725:	fcc3a2        	addi	a10, a3, -4
     728:	09d292        	addmi	a9, a2, 0x900
     72b:	fc20a1599e 	{ l16si	a9, a9, 42; ae_zerop48	aep0 }
     730:	468a14        	ae_sp16x2f.iu	aep0, a10, 4
     733:	468a14        	ae_sp16x2f.iu	aep0, a10, 4
     736:	468a14        	ae_sp16x2f.iu	aep0, a10, 4
     739:	5a2b           	addi.n	a5, a10, 2
     73b:	0199           	s32i.n	a9, a1, 0
     73d:	030c           	movi.n	a3, 0
     73f:	fe4d71        	l32r	a7, 74 (1930 <Pitch_by_Corel+0x4d4>)
     742:	024d           	mov.n	a4, a2
     744:	028d           	mov.n	a8, a2
     746:	0ed862        	addmi	a6, a8, 0xe00
     749:	f4c662        	addi	a6, a6, -12
     74c:	04d222        	addmi	a2, a2, 0x400
     74f:	11d882        	addmi	a8, a8, 0x1100
     752:	4c28b2        	l32i	a11, a8, 0x130
     755:	360b34        	ae_cvtq48a32s	aeq0, a11
     758:	f9420b822e 	{ addi	a2, a2, -72; ae_truncp24q48x2	aep2, aeq0, aeq0 }
     75d:	f88803888e 	{ addi	a8, a8, 56; ae_mulfq32sp24s.l	aeq0, aeq0, aep2 }
     762:	026182        	s32i	a8, a1, 8
     765:	f84277212f 	{ ae_sp24x2s.i	aep2, a1, 16; ae_truncp24q48x2	aep1, aeq0, aeq0 }
     76a:	561134        	ae_sp24x2s.i	aep1, a1, 24

0000076d <comfort_noise_gen_wb+0x4d>:
     76d:	fe4281        	l32r	a8, 78 (808 <HIFI_sqrt>)
     770:	01a8           	l32i.n	a10, a1, 0
     772:	6824b2        	l32i	a11, a4, 0x1a0
     775:	0008e0        	callx8	a8
     778:	fe41d1        	l32r	a13, 7c (ca94 <p_ecnr_mem>)
     77b:	444b           	addi.n	a4, a4, 4
     77d:	2198           	l32i.n	a9, a1, 8
     77f:	0de8           	l32i.n	a14, a13, 0
     781:	0bfd           	mov.n	a15, a11
     783:	fe3fb1        	l32r	a11, 80 (89442379 <_end+0x894358d9>)
     786:	ee7a           	add.n	a14, a14, a7
     788:	7f9ec2        	l16si	a12, a14, 254
     78b:	360f34        	ae_cvtq48a32s	aeq0, a15
     78e:	819992        	l16si	a9, a9, 0x102
     791:	82bcb0        	mull	a11, a12, a11
     794:	7f5eb2        	s16i	a11, a14, 254
     797:	409614        	ae_lp16f.iu	aep1, a6, 2
     79a:	1f2397        	blt	a3, a9, 7bd <comfort_noise_gen_wb+0x9d>
     79d:	11f8           	l32i.n	a15, a1, 4
     79f:	350ff2        	l8ui	a15, a15, 53
     7a2:	fe3881        	l32r	a8, 84 (c500 <wb_sb_ptn>)
     7a5:	14a3f7        	bge	a3, a15, 7bd <comfort_noise_gen_wb+0x9d>
     7a8:	089882        	l16si	a8, a8, 16
     7ab:	543124        	ae_lp24x2.i	aep3, a1, 16
     7ae:	544134        	ae_lp24x2.i	aep4, a1, 24
     7b1:	05a387        	bge	a3, a8, 7ba <comfort_noise_gen_wb+0x9a>
     7b4:	083524        	ae_mulfq32sp24s.l	aeq0, aeq0, aep3
     7b7:	000086        	j	7bd <comfort_noise_gen_wb+0x9d>

000007ba <comfort_noise_gen_wb+0x9a>:
     7ba:	084524        	ae_mulfq32sp24s.l	aeq0, aeq0, aep4
     7bd:	fe2c91        	l32r	a9, 70 (bb75 <fftorder_512_12b+0x45>)
     7c0:	f03d           	nop.n
     7c2:	829c90        	mull	a9, a12, a9
     7c5:	3079b4        	ae_cvtp24a16x2.ll	aep7, a9, a11
     7c8:	037a14        	ae_mulfq32sp16s.l	aeq1, aeq0, aep7
     7cb:	03fa04        	ae_mulfq32sp16s.h	aeq3, aeq0, aep7
     7ce:	031a54        	ae_mulfq32sp16s.l	aeq1, aeq1, aep1
     7d1:	039ad4        	ae_mulfq32sp16s.l	aeq3, aeq3, aep1
     7d4:	fc24fe9a8f 	{ ae_slaasq56s	aeq2, aeq1, a10; nop }
     7d9:	fc24feba4f 	{ ae_slaasq56s	aeq1, aeq3, a10; nop }
     7de:	fbf380133e 	{ addi	a3, a3, 1; ae_roundsp16q48sym	aep6, aeq2 }
     7e3:	faebf2e51f 	{ ae_sp16f.l.iu	aep6, a5, 2; ae_roundsp16q48sym	aep5, aeq1 }
     7e8:	42d514        	ae_sp16f.l.iu	aep5, a5, 2
     7eb:	021427        	beq	a4, a2, 7f1 <comfort_noise_gen_wb+0xd1>
     7ee:	ffdec6        	j	76d <comfort_noise_gen_wb+0x4d>
     7f1:	fec582        	addi	a8, a5, -2
     7f4:	fc20800f9f 	{ movi	a9, 15; ae_zerop48	aep0 }
     7f9:	028976        	loop	a9, 7ff <comfort_noise_gen_wb+0xdf>
     7fc:	468814        	ae_sp16x2f.iu	aep0, a8, 4

000007ff <comfort_noise_gen_wb+0xdf>:
     7ff:	f01d           	retw.n

00000801 <comfort_noise_gen_wb+0xe1>:
     801:	00000000 36000000                                .......

00000808 <HIFI_sqrt>:
     808:	006136        	entry	a1, 48
     80b:	070c           	movi.n	a7, 0
     80d:	4913a6        	blti	a3, 1, 85a <HIFI_sqrt+0x52>
     810:	fe1e51        	l32r	a5, 88 (c200 <TABLE_SQRT>)
     813:	40e380        	nsa	a8, a3
     816:	401800        	ssl	a8
     819:	c02280        	sub	a2, a2, a8
     81c:	a16300        	sll	a6, a3
     81f:	043020        	extui	a3, a2, 0, 1
     822:	400300        	ssr	a3
     825:	b16060        	sra	a6, a6
     828:	416960        	srli	a6, a6, 9
     82b:	314060        	srai	a4, a6, 16
     82e:	f0c442        	addi	a4, a4, -16
     831:	534470        	max	a4, a4, a7
     834:	904450        	addx2	a4, a4, a5
     837:	245d           	ae_l16si.n	a5, a4, 0
     839:	344d           	ae_l16si.n	a4, a4, 2
     83b:	300664        	ae_cvtp24a16x2.ll	aep0, a6, a6
     83e:	c04450        	sub	a4, a4, a5
     841:	115500        	slli	a5, a5, 16
     844:	114400        	slli	a4, a4, 16
     847:	364434        	ae_cvtq48a32s	aeq1, a4
     84a:	360534        	ae_cvtq48a32s	aeq0, a5
     84d:	d4e110223f 	{ add	a2, a2, a3; ae_mulaq32sp16u.l	aeq0, aeq1, aep0 }
     852:	212120        	srai	a2, a2, 1
     855:	368304        	ae_trunca32q48	a3, aeq0
     858:	f01d           	retw.n

0000085a <HIFI_sqrt+0x52>:
     85a:	072d           	mov.n	a2, a7
     85c:	023d           	mov.n	a3, a2
     85e:	f01d           	retw.n

00000860 <Log2_norm>:
     860:	004136        	entry	a1, 32
     863:	3212a6        	blti	a2, 1, 899 <Log2_norm+0x39>
     866:	046c           	movi.n	a4, -32
     868:	2da437        	bge	a4, a3, 899 <Log2_norm+0x39>
     86b:	052c           	movi.n	a5, 32
     86d:	04a537        	bge	a5, a3, 875 <Log2_norm+0x15>
     870:	fe0721        	l32r	a2, 8c (7fffffff <_end+0x7fff355f>)
     873:	f01d           	retw.n

00000875 <Log2_norm+0x15>:
     875:	fe0641        	l32r	a4, 90 (c270 <TABLE_LOG2_1530>)
     878:	558820        	extui	a8, a2, 24, 6
     87b:	1188e0        	slli	a8, a8, 2
     87e:	603484        	ae_lq32f.xu	aeq0, a4, a8
     881:	604414        	ae_lq32f.i	aeq1, a4, 4
     884:	f92ae2022f 	{ ae_movpa24x2	aep0, a2, a2; ae_subq56	aeq1, aeq1, aeq0 }
     889:	030174        	ae_mulaq32sp16u.l	aeq0, aeq1, aep0
     88c:	368204        	ae_trunca32q48	a2, aeq0
     88f:	014360        	slli	a4, a3, 26
     892:	212520        	srai	a2, a2, 5
     895:	224a           	add.n	a2, a2, a4
     897:	f01d           	retw.n

00000899 <Log2_norm+0x39>:
     899:	fdfe21        	l32r	a2, 94 (80000000 <_end+0x7fff3560>)
     89c:	f01d           	retw.n

0000089e <Log2_norm+0x3e>:
	...

000008a0 <COMPL_S16x2_fun>:
     8a0:	004136        	entry	a1, 32
     8a3:	fdfd31        	l32r	a3, 98 (8000 <NR_vad2+0xe4>)
     8a6:	c03320        	sub	a3, a3, a2
     8a9:	113300        	slli	a3, a3, 16
     8ac:	223a           	add.n	a2, a2, a3
     8ae:	f01d           	retw.n

000008b0 <PD_INIT>:
     8b0:	004136        	entry	a1, 32
     8b3:	fdf241        	l32r	a4, 7c (ca94 <p_ecnr_mem>)
     8b6:	0b0c           	movi.n	a11, 0
     8b8:	0438           	l32i.n	a3, a4, 0
     8ba:	f0a2c2        	movi	a12, 0x2f0
     8bd:	fdf781        	l32r	a8, 9c (9dc8 <xt_memset>)
     8c0:	52d332        	addmi	a3, a3, 0x5200
     8c3:	b8c332        	addi	a3, a3, -72
     8c6:	03ad           	mov.n	a10, a3
     8c8:	0008e0        	callx8	a8
     8cb:	fdf551        	l32r	a5, a0 (ca9c <aec_nr_para>)
     8ce:	03ad           	mov.n	a10, a3
     8d0:	05b8           	l32i.n	a11, a5, 0
     8d2:	7c0c           	movi.n	a12, 7
     8d4:	fdf481        	l32r	a8, a4 (9de0 <xt_memcpy>)
     8d7:	01dbb2        	addmi	a11, a11, 0x100
     8da:	a4cbb2        	addi	a11, a11, -92
     8dd:	0008e0        	callx8	a8
     8e0:	03d3c2        	addmi	a12, a3, 0x300
     8e3:	01d3d2        	addmi	a13, a3, 0x100
     8e6:	05e8           	l32i.n	a14, a5, 0
     8e8:	05d392        	addmi	a9, a3, 0x500
     8eb:	998b           	addi.n	a9, a9, 8
     8ed:	04d352        	addmi	a5, a3, 0x400
     8f0:	50c582        	addi	a8, a5, 80
     8f3:	a8c5f2        	addi	a15, a5, -88
     8f6:	c79ea2        	l16si	a10, a14, 0x18e
     8f9:	c89eb2        	l16si	a11, a14, 0x190
     8fc:	0853b2        	s16i	a11, a3, 16
     8ff:	0753a2        	s16i	a10, a3, 14
     902:	38cdb2        	addi	a11, a13, 56
     905:	02d3a2        	addmi	a10, a3, 0x200
     908:	58cdd2        	addi	a13, a13, 88
     90b:	58caa2        	addi	a10, a10, 88
     90e:	f66bf2        	s32i	a15, a11, 0x3d8
     911:	f56bc2        	s32i	a12, a11, 0x3d4
     914:	f76b82        	s32i	a8, a11, 0x3dc
     917:	f26b92        	s32i	a9, a11, 0x3c8
     91a:	180c           	movi.n	a8, 1
     91c:	f46ba2        	s32i	a10, a11, 0x3d0
     91f:	fde291        	l32r	a9, a8 (a0000 <_end+0x93560>)
     922:	8a2c           	movi.n	a10, 40
     924:	956392        	s32i	a9, a3, 0x254
     927:	556392        	s32i	a9, a3, 0x154
     92a:	8c5582        	s16i	a8, a5, 0x118
     92d:	fdd791        	l32r	a9, 8c (7fffffff <_end+0x7fff355f>)
     930:	68c552        	addi	a5, a5, 104
     933:	0d8d           	mov.n	a8, a13
     935:	028a76        	loop	a10, 93b <PD_INIT+0x8b>
     938:	09e894        	ae_s32ip	a9, a8, 4

0000093b <PD_INIT+0x8b>:
     93b:	3c0c           	movi.n	a12, 3
     93d:	fdd981        	l32r	a8, a4 (9de0 <xt_memcpy>)
     940:	779e92        	l16si	a9, a14, 238
     943:	769ef2        	l16si	a15, a14, 236
     946:	0478           	l32i.n	a7, a4, 0
     948:	2765d2        	s32i	a13, a5, 156
     94b:	01deb2        	addmi	a11, a14, 0x100
     94e:	06d3a2        	addmi	a10, a3, 0x600
     951:	d0caa2        	addi	a10, a10, -48
     954:	f2cbb2        	addi	a11, a11, -14
     957:	0d0c           	movi.n	a13, 0
     959:	29d762        	addmi	a6, a7, 0x2900
     95c:	c0c662        	addi	a6, a6, -64
     95f:	19d772        	addmi	a7, a7, 0x1900
     962:	9b57d2        	s16i	a13, a7, 0x136
     965:	5a6722        	s32i	a2, a7, 0x168
     968:	5b6762        	s32i	a6, a7, 0x16c
     96b:	b055f2        	s16i	a15, a5, 0x160
     96e:	b15592        	s16i	a9, a5, 0x162
     971:	0008e0        	callx8	a8
     974:	0cd282        	addmi	a8, a2, 0xc00
     977:	08d292        	addmi	a9, a2, 0x800
     97a:	566592        	s32i	a9, a5, 0x158
     97d:	b8c882        	addi	a8, a8, -72
     980:	556582        	s32i	a8, a5, 0x154
     983:	f01d           	retw.n

00000985 <PD_INIT+0xd5>:
     985:	000000                                        ...

00000988 <wind_noise_alpha>:
     988:	004136        	entry	a1, 32
     98b:	fdc371        	l32r	a7, 98 (8000 <NR_vad2+0xe4>)
     98e:	02ad           	mov.n	a10, a2
     990:	039d           	mov.n	a9, a3
     992:	952d           	ae_zext16	a2, a5
     994:	943d           	ae_zext16	a3, a4
     996:	823630        	mull	a3, a6, a3
     999:	822620        	mull	a2, a6, a2
     99c:	f43e30        	extui	a3, a3, 14, 16
     99f:	f42e20        	extui	a2, a2, 14, 16
     9a2:	c08730        	sub	a8, a7, a3
     9a5:	c07720        	sub	a7, a7, a2
     9a8:	118800        	slli	a8, a8, 16
     9ab:	338a           	add.n	a3, a3, a8
     9ad:	117700        	slli	a7, a7, 16
     9b0:	805270        	add	a5, a2, a7
     9b3:	2119a6        	blti	a9, 1, 9d8 <wind_noise_alpha+0x50>
     9b6:	202aa0        	or	a2, a10, a10
     9b9:	02a976        	loopgtz	a9, 9bf <wind_noise_alpha+0x37>
     9bc:	09e234        	ae_s32ip	a3, a2, 4

000009bf <wind_noise_alpha+0x37>:
     9bf:	29a072        	movi	a7, 41
     9c2:	0f2797        	blt	a7, a9, 9d5 <wind_noise_alpha+0x4d>

000009c5 <wind_noise_alpha+0x3d>:
     9c5:	a029a0        	addx4	a2, a9, a10
     9c8:	a42c           	movi.n	a4, 42
     9ca:	c04490        	sub	a4, a4, a9
     9cd:	02a476        	loopgtz	a4, 9d3 <wind_noise_alpha+0x4b>
     9d0:	09e254        	ae_s32ip	a5, a2, 4

000009d3 <wind_noise_alpha+0x4b>:
     9d3:	f01d           	retw.n

000009d5 <wind_noise_alpha+0x4d>:
     9d5:	f01d           	retw.n

000009d7 <wind_noise_alpha+0x4f>:
	...

000009d8 <wind_noise_alpha+0x50>:
     9d8:	090c           	movi.n	a9, 0
     9da:	fff9c6        	j	9c5 <wind_noise_alpha+0x3d>

000009dd <wind_noise_alpha+0x55>:
     9dd:	000000                                        ...

000009e0 <PD_Noise_Est>:
     9e0:	00a136        	entry	a1, 80
     9e3:	5129           	s32i.n	a2, a1, 20
     9e5:	fda5c1        	l32r	a12, 7c (ca94 <p_ecnr_mem>)
     9e8:	11d2b2        	addmi	a11, a2, 0x1100
     9eb:	2ccba2        	addi	a10, a11, 44
     9ee:	462b92        	l32i	a9, a11, 0x118
     9f1:	71a9           	s32i.n	a10, a1, 28
     9f3:	0ca8           	l32i.n	a10, a12, 0
     9f5:	10c992        	addi	a9, a9, 16
     9f8:	601914        	ae_lq32f.iu	aeq0, a9, 4
     9fb:	605914        	ae_lq32f.iu	aeq1, a9, 4
     9fe:	52da82        	addmi	a8, a10, 0x5200
     a01:	b8c882        	addi	a8, a8, -72
     a04:	6189           	s32i.n	a8, a1, 24
     a06:	f8663d591f 	{ ae_lq32f.iu	aeq2, a9, 4; ae_addq56	aeq0, aeq0, aeq1 }
     a0b:	f8e23d591f 	{ ae_lq32f.iu	aeq2, a9, 4; ae_addq56	aeq0, aeq0, aeq2 }
     a10:	010ac4        	ae_addq56	aeq0, aeq0, aeq2
     a13:	3540b4        	ae_sraiq56	aeq1, aeq0, 2
     a16:	04d842        	addmi	a4, a8, 0x400
     a19:	08dd           	mov.n	a13, a8
     a1b:	06ddf2        	addmi	a15, a13, 0x600
     a1e:	d8cff2        	addi	a15, a15, -40
     a21:	58da82        	addmi	a8, a10, 0x5800
     a24:	94c882        	addi	a8, a8, -108
     a27:	621804        	ae_sq32f.i	aeq1, a8, 0
     a2a:	60cf04        	ae_lq32f.i	aeq3, a15, 0
     a2d:	fb7e0000ef 	{ movi	a14, 0; ae_addq56	aeq3, aeq3, aeq1 }
     a32:	35f074        	ae_sraiq56	aeq3, aeq3, 1
     a35:	623f04        	ae_sq32f.i	aeq3, a15, 0
     a38:	e654e2        	s16i	a14, a4, 0x1cc
     a3b:	add8           	l32i.n	a13, a13, 40
     a3d:	e79492        	l16si	a9, a4, 0x1ce
     a40:	7124a2        	l32i	a10, a4, 0x1c4
     a43:	131da6        	blti	a13, 1, a5a <PD_Noise_Est+0x7a>
     a46:	162aa6        	blti	a10, 2, a60 <PD_Noise_Est+0x80>
     a49:	e594b2        	l16si	a11, a4, 0x1ca
     a4c:	f0c992        	addi	a9, a9, -16
     a4f:	11bbf0        	slli	a11, a11, 1
     a52:	4399b0        	min	a9, a9, a11
     a55:	0004c6        	j	a6c <PD_Noise_Est+0x8c>

00000a58 <PD_Noise_Est+0x78>:
	...

00000a5a <PD_Noise_Est+0x7a>:
     a5a:	021ae6        	bgei	a10, 1, a60 <PD_Noise_Est+0x80>
     a5d:	013106        	j	f25 <PD_Noise_Est+0x545>

00000a60 <PD_Noise_Est+0x80>:
     a60:	7724d2        	l32i	a13, a4, 0x1dc
     a63:	021de6        	bgei	a13, 1, a69 <PD_Noise_Est+0x89>
     a66:	0123c6        	j	ef9 <PD_Noise_Est+0x519>
     a69:	f8c992        	addi	a9, a9, -8

00000a6c <PD_Noise_Est+0x8c>:
     a6c:	0cd8           	l32i.n	a13, a12, 0
     a6e:	ff3c           	movi.n	a15, 63
     a70:	0e0c           	movi.n	a14, 0
     a72:	53e9e0        	max	a14, a9, a14
     a75:	43eef0        	min	a14, a14, a15
     a78:	e754e2        	s16i	a14, a4, 0x1ce
     a7b:	19ddd2        	addmi	a13, a13, 0x1900
     a7e:	989de2        	l16si	a14, a13, 0x130
     a81:	34cdb2        	addi	a11, a13, 52
     a84:	9b9dd2        	l16si	a13, a13, 0x136
     a87:	3c1e96        	bltz	a14, e4c <PD_Noise_Est+0x46c>
     a8a:	61f8           	l32i.n	a15, a1, 24
     a8c:	aff8           	l32i.n	a15, a15, 40
     a8e:	021fe6        	bgei	a15, 1, a94 <PD_Noise_Est+0xb4>
     a91:	010606        	j	ead <PD_Noise_Est+0x4cd>
     a94:	51c8           	l32i.n	a12, a1, 20
     a96:	149ca2        	l16si	a10, a12, 40
     a99:	139cc2        	l16si	a12, a12, 38
     a9c:	022ca7        	blt	a12, a10, aa2 <PD_Noise_Est+0xc2>
     a9f:	00cf46        	j	de0 <PD_Noise_Est+0x400>
     aa2:	d8cdd2        	addi	a13, a13, -40

00000aa5 <PD_Noise_Est+0xc5>:
     aa5:	ffa0e2        	movi	a14, 255
     aa8:	0f0c           	movi.n	a15, 0
     aaa:	53ddf0        	max	a13, a13, a15
     aad:	43dde0        	min	a13, a13, a14
     ab0:	61e8           	l32i.n	a14, a1, 24
     ab2:	aee8           	l32i.n	a14, a14, 40
     ab4:	815bd2        	s16i	a13, a11, 0x102
     ab7:	021ee6        	bgei	a14, 1, abd <PD_Noise_Est+0xdd>
     aba:	00e4c6        	j	e51 <PD_Noise_Est+0x471>
     abd:	5188           	l32i.n	a8, a1, 20
     abf:	149892        	l16si	a9, a8, 40
     ac2:	139882        	l16si	a8, a8, 38
     ac5:	022897        	blt	a8, a9, acb <PD_Noise_Est+0xeb>
     ac8:	004f06        	j	c08 <PD_Noise_Est+0x228>
     acb:	5198           	l32i.n	a9, a1, 20
     acd:	5a0c           	movi.n	a10, 5
     acf:	e654a2        	s16i	a10, a4, 0x1cc
     ad2:	01d992        	addmi	a9, a9, 0x100
     ad5:	78c992        	addi	a9, a9, 120
     ad8:	601914        	ae_lq32f.iu	aeq0, a9, 4
     adb:	605914        	ae_lq32f.iu	aeq1, a9, 4
     ade:	f8663d591f 	{ ae_lq32f.iu	aeq2, a9, 4; ae_addq56	aeq0, aeq0, aeq1 }
     ae3:	f8e23d591f 	{ ae_lq32f.iu	aeq2, a9, 4; ae_addq56	aeq0, aeq0, aeq2 }
     ae8:	010ac4        	ae_addq56	aeq0, aeq0, aeq2
     aeb:	35c0b4        	ae_sraiq56	aeq3, aeq0, 2
     aee:	fd6fb1        	l32r	a11, ac (dacccccd <_end+0xdacc022d>)
     af1:	364b34        	ae_cvtq48a32s	aeq1, a11
     af4:	099704        	ae_leq56s	b0, aeq3, aeq1
     af7:	021076        	bt	b0, afd <PD_Noise_Est+0x11d>
     afa:	00f486        	j	ed0 <PD_Noise_Est+0x4f0>
     afd:	050c           	movi.n	a5, 0
     aff:	030c           	movi.n	a3, 0

00000b01 <PD_Noise_Est+0x121>:
     b01:	6168           	l32i.n	a6, a1, 24
     b03:	a668           	l32i.n	a6, a6, 40
     b05:	fd6a81        	l32r	a8, b0 (9e7c <__floatsidf>)
     b08:	fd6b21        	l32r	a2, b4 (fc000000 <_end+0xfbff3560>)
     b0b:	662b           	addi.n	a6, a6, 2
     b0d:	216260        	srai	a6, a6, 2
     b10:	262a           	add.n	a2, a6, a2
     b12:	027d           	mov.n	a7, a2
     b14:	02ad           	mov.n	a10, a2
     b16:	0008e0        	callx8	a8
     b19:	fd6881        	l32r	a8, bc (9d34 <__ltdf2>)
     b1c:	fd67d1        	l32r	a13, b8 (c1600000 <_end+0xc15f3560>)
     b1f:	0c0c           	movi.n	a12, 0
     b21:	0008e0        	callx8	a8
     b24:	926a           	add.n	a9, a2, a6
     b26:	fd6621        	l32r	a2, c0 (b33333 <_end+0xb26893>)
     b29:	fd66c1        	l32r	a12, c4 (ff4ccccd <_end+0xff4c022d>)
     b2c:	a379a0        	movltz	a7, a9, a10
     b2f:	02a727        	bge	a7, a2, b35 <PD_Noise_Est+0x155>
     b32:	00b486        	j	e08 <PD_Noise_Est+0x428>
     b35:	0a0c           	movi.n	a10, 0
     b37:	f7ca           	add.n	a15, a7, a12
     b39:	0b0c           	movi.n	a11, 0
     b3b:	6f24d2        	l32i	a13, a4, 0x1bc
     b3e:	7024e2        	l32i	a14, a4, 0x1c0
     b41:	168076        	loop	a0, b5b <PD_Noise_Est+0x17b>
     b44:	bb1b           	addi.n	a11, a11, 1
     b46:	9aea           	add.n	a9, a10, a14
     b48:	cdaa           	add.n	a12, a13, a10
     b4a:	0c39           	s32i.n	a3, a12, 0
     b4c:	0988           	l32i.n	a8, a9, 0
     b4e:	aa4b           	addi.n	a10, a10, 4
     b50:	01cb80        	slli	a12, a11, 24
     b53:	1188f0        	slli	a8, a8, 1
     b56:	0989           	s32i.n	a8, a9, 0
     b58:	042fc7        	blt	a15, a12, b60 <PD_Noise_Est+0x180>

00000b5b <PD_Noise_Est+0x17b>:
     b5b:	fff886        	j	b41 <PD_Noise_Est+0x161>

00000b5e <PD_Noise_Est+0x17e>:
	...

00000b60 <PD_Noise_Est+0x180>:
     b60:	fd49e1        	l32r	a14, 84 (c500 <wb_sb_ptn>)
     b63:	61a8           	l32i.n	a10, a1, 24
     b65:	6f24d2        	l32i	a13, a4, 0x1bc
     b68:	e694c2        	l16si	a12, a4, 0x1cc
     b6b:	059aa2        	l16si	a10, a10, 10
     b6e:	a0dbd0        	addx4	a13, a11, a13
     b71:	90cce0        	addx2	a12, a12, a14
     b74:	2ccd           	ae_l16si.n	a12, a12, 0
     b76:	0d59           	s32i.n	a5, a13, 0
     b78:	11aae0        	slli	a10, a10, 2
     b7b:	bc2b           	addi.n	a11, a12, 2
     b7d:	01bb80        	slli	a11, a11, 24
     b80:	02ab77        	bge	a11, a7, b86 <PD_Noise_Est+0x1a6>
     b83:	002046        	j	c08 <PD_Noise_Est+0x228>
     b86:	41a9           	s32i.n	a10, a1, 16
     b88:	fd4fd1        	l32r	a13, c4 (ff4ccccd <_end+0xff4c022d>)
     b8b:	fd4fc1        	l32r	a12, c8 (800000 <_end+0x7f3560>)
     b8e:	272a           	add.n	a2, a7, a2
     b90:	d7da           	add.n	a13, a7, a13
     b92:	77ca           	add.n	a7, a7, a12
     b94:	cbca           	add.n	a12, a11, a12
     b96:	81c9           	s32i.n	a12, a1, 32
     b98:	000406        	j	bac <PD_Noise_Est+0x1cc>

00000b9b <PD_Noise_Est+0x1bb>:
	...

00000b9d <PD_Noise_Est+0x1bd>:
     b9d:	11abe0        	slli	a10, a11, 2

00000ba0 <PD_Noise_Est+0x1c0>:
     ba0:	6f24f2        	l32i	a15, a4, 0x1bc
     ba3:	81e8           	l32i.n	a14, a1, 32
     ba5:	ffaa           	add.n	a15, a15, a10
     ba7:	0f59           	s32i.n	a5, a15, 0
     ba9:	5b2e77        	blt	a14, a7, c08 <PD_Noise_Est+0x228>

00000bac <PD_Noise_Est+0x1cc>:
     bac:	4198           	l32i.n	a9, a1, 16
     bae:	0b0c           	movi.n	a11, 0
     bb0:	7024a2        	l32i	a10, a4, 0x1c0
     bb3:	6f24e2        	l32i	a14, a4, 0x1bc
     bb6:	31f870        	srai	a15, a7, 24
     bb9:	a0afa0        	addx4	a10, a15, a10
     bbc:	a0cfe0        	addx4	a12, a15, a14
     bbf:	0cb9           	s32i.n	a11, a12, 0
     bc1:	0a99           	s32i.n	a9, a10, 0
     bc3:	cf1b           	addi.n	a12, a15, 1
     bc5:	0cbd           	mov.n	a11, a12
     bc7:	018c80        	slli	a8, a12, 24
     bca:	11ace0        	slli	a10, a12, 2
     bcd:	08a827        	bge	a8, a2, bd9 <PD_Noise_Est+0x1f9>
     bd0:	bf2b           	addi.n	a11, a15, 2
     bd2:	aa4b           	addi.n	a10, a10, 4
     bd4:	a08ce0        	addx4	a8, a12, a14
     bd7:	0859           	s32i.n	a5, a8, 0

00000bd9 <PD_Noise_Est+0x1f9>:
     bd9:	226a           	add.n	a2, a2, a6
     bdb:	776a           	add.n	a7, a7, a6
     bdd:	019b80        	slli	a9, a11, 24
     be0:	dd6a           	add.n	a13, a13, a6
     be2:	ba2d97        	blt	a13, a9, ba0 <PD_Noise_Est+0x1c0>
     be5:	6f24f2        	l32i	a15, a4, 0x1bc
     be8:	7024e2        	l32i	a14, a4, 0x1c0
     beb:	168076        	loop	a0, c05 <PD_Noise_Est+0x225>
     bee:	bb1b           	addi.n	a11, a11, 1
     bf0:	9aea           	add.n	a9, a10, a14
     bf2:	cfaa           	add.n	a12, a15, a10
     bf4:	0c39           	s32i.n	a3, a12, 0
     bf6:	0988           	l32i.n	a8, a9, 0
     bf8:	aa4b           	addi.n	a10, a10, 4
     bfa:	01cb80        	slli	a12, a11, 24
     bfd:	1188f0        	slli	a8, a8, 1
     c00:	0989           	s32i.n	a8, a9, 0
     c02:	972dc7        	blt	a13, a12, b9d <PD_Noise_Est+0x1bd>

00000c05 <PD_Noise_Est+0x225>:
     c05:	fff886        	j	beb <PD_Noise_Est+0x20b>

00000c08 <PD_Noise_Est+0x228>:
     c08:	51a8           	l32i.n	a10, a1, 20
     c0a:	171aa2        	l16ui	a10, a10, 46
     c0d:	4d1c           	movi.n	a13, 20
     c0f:	02bda7        	bgeu	a13, a10, c15 <PD_Noise_Est+0x235>
     c12:	002f06        	j	cd2 <PD_Noise_Est+0x2f2>
     c15:	027ab6        	bltui	a10, 7, c1b <PD_Noise_Est+0x23b>
     c18:	007346        	j	de9 <PD_Noise_Est+0x409>
     c1b:	51a8           	l32i.n	a10, a1, 20
     c1d:	09daa2        	addmi	a10, a10, 0x900
     c20:	18caa2        	addi	a10, a10, 24

00000c23 <PD_Noise_Est+0x243>:
     c23:	e694b2        	l16si	a11, a4, 0x1cc
     c26:	2add           	ae_l16si.n	a13, a10, 0
     c28:	8c0c           	movi.n	a12, 8
     c2a:	02acb7        	bge	a12, a11, c30 <PD_Noise_Est+0x250>
     c2d:	002846        	j	cd2 <PD_Noise_Est+0x2f2>
     c30:	115be0        	slli	a5, a11, 2
     c33:	fd19e1        	l32r	a14, 98 (8000 <NR_vad2+0xe4>)
     c36:	fd1361        	l32r	a6, 84 (c500 <wb_sb_ptn>)
     c39:	120c           	movi.n	a2, 1
     c3b:	472c           	movi.n	a7, 36
     c3d:	906b60        	addx2	a6, a11, a6

00000c40 <PD_Noise_Est+0x260>:
     c40:	7188           	l32i.n	a8, a1, 28
     c42:	3b2882        	l32i	a8, a8, 236
     c45:	885a           	add.n	a8, a8, a5
     c47:	0888           	l32i.n	a8, a8, 0
     c49:	7b18e6        	bgei	a8, 1, cc8 <PD_Noise_Est+0x2e8>
     c4c:	36ad           	ae_l16si.n	a10, a6, 2
     c4e:	26cd           	ae_l16si.n	a12, a6, 0
     c50:	74aca7        	bge	a12, a10, cc8 <PD_Noise_Est+0x2e8>
     c53:	6f24f2        	l32i	a15, a4, 0x1bc
     c56:	c09ac0        	sub	a9, a10, a12
     c59:	11ace0        	slli	a10, a12, 2
     c5c:	539920        	max	a9, a9, a2
     c5f:	126907        	bbci	a9, 0, c75 <PD_Noise_Est+0x295>
     c62:	a03cf0        	addx4	a3, a12, a15
     c65:	43bd           	ae_l16ui.n	a11, a3, 0
     c67:	aa4b           	addi.n	a10, a10, 4
     c69:	bdba           	add.n	a11, a13, a11
     c6b:	c08eb0        	sub	a8, a14, a11
     c6e:	118800        	slli	a8, a8, 16
     c71:	bb8a           	add.n	a11, a11, a8
     c73:	03b9           	s32i.n	a11, a3, 0

00000c75 <PD_Noise_Est+0x295>:
     c75:	21b190        	srai	a11, a9, 1
     c78:	04cb16        	beqz	a11, cc8 <PD_Noise_Est+0x2e8>
     c7b:	8afa           	add.n	a8, a10, a15
     c7d:	483d           	ae_l16ui.n	a3, a8, 0
     c7f:	ca4b           	addi.n	a12, a10, 4
     c81:	ccfa           	add.n	a12, a12, a15
     c83:	3d3a           	add.n	a3, a13, a3
     c85:	c09e30        	sub	a9, a14, a3
     c88:	119900        	slli	a9, a9, 16
     c8b:	339a           	add.n	a3, a3, a9
     c8d:	0839           	s32i.n	a3, a8, 0
     c8f:	9b0b           	addi.n	a9, a11, -1
     c91:	8a8b           	addi.n	a8, a10, 8
     c93:	4cad           	ae_l16ui.n	a10, a12, 0
     c95:	23a976        	loopgtz	a9, cbc <PD_Noise_Est+0x2dc>
     c98:	98fa           	add.n	a9, a8, a15
     c9a:	adaa           	add.n	a10, a13, a10
     c9c:	c0bea0        	sub	a11, a14, a10
     c9f:	11bb00        	slli	a11, a11, 16
     ca2:	aaba           	add.n	a10, a10, a11
     ca4:	0ca9           	s32i.n	a10, a12, 0
     ca6:	49ad           	ae_l16ui.n	a10, a9, 0
     ca8:	b84b           	addi.n	a11, a8, 4
     caa:	cbfa           	add.n	a12, a11, a15
     cac:	adaa           	add.n	a10, a13, a10
     cae:	c0bea0        	sub	a11, a14, a10
     cb1:	11bb00        	slli	a11, a11, 16
     cb4:	aaba           	add.n	a10, a10, a11
     cb6:	09a9           	s32i.n	a10, a9, 0
     cb8:	4cad           	ae_l16ui.n	a10, a12, 0
     cba:	888b           	addi.n	a8, a8, 8

00000cbc <PD_Noise_Est+0x2dc>:
     cbc:	8daa           	add.n	a8, a13, a10
     cbe:	c09e80        	sub	a9, a14, a8
     cc1:	119900        	slli	a9, a9, 16
     cc4:	889a           	add.n	a8, a8, a9
     cc6:	0c89           	s32i.n	a8, a12, 0
     cc8:	662b           	addi.n	a6, a6, 2
     cca:	554b           	addi.n	a5, a5, 4
     ccc:	c0a570        	sub	a10, a5, a7
     ccf:	f6da56        	bnez	a10, c40 <PD_Noise_Est+0x260>
     cd2:	61a8           	l32i.n	a10, a1, 24
     cd4:	199aa2        	l16si	a10, a10, 50
     cd7:	0b8a96        	bltz	a10, d93 <PD_Noise_Est+0x3b3>
     cda:	51b8           	l32i.n	a11, a1, 20
     cdc:	021bb2        	l16ui	a11, a11, 4
     cdf:	90bbb0        	addx2	a11, a11, a11
     ce2:	11bbe0        	slli	a11, a11, 2
     ce5:	022ab7        	blt	a10, a11, ceb <PD_Noise_Est+0x30b>
     ce8:	0029c6        	j	d93 <PD_Noise_Est+0x3b3>
     ceb:	61c8           	l32i.n	a12, a1, 24
     ced:	acb8           	l32i.n	a11, a12, 40
     cef:	aa1b           	addi.n	a10, a10, 1
     cf1:	195ca2        	s16i	a10, a12, 50
     cf4:	ab8c           	beqz.n	a11, d02 <PD_Noise_Est+0x322>
     cf6:	7624d2        	l32i	a13, a4, 0x1d8
     cf9:	0a8dd6        	bgez	a13, da5 <PD_Noise_Est+0x3c5>
     cfc:	1a9ce2        	l16si	a14, a12, 52
     cff:	0a2e56        	bnez	a14, da5 <PD_Noise_Est+0x3c5>

00000d02 <PD_Noise_Est+0x322>:
     d02:	7124f2        	l32i	a15, a4, 0x1c4
     d05:	022fa6        	blti	a15, 2, d0b <PD_Noise_Est+0x32b>
     d08:	002646        	j	da5 <PD_Noise_Est+0x3c5>
     d0b:	e79492        	l16si	a9, a4, 0x1ce
     d0e:	e59482        	l16si	a8, a4, 0x1ca
     d11:	022897        	blt	a8, a9, d17 <PD_Noise_Est+0x337>
     d14:	002346        	j	da5 <PD_Noise_Est+0x3c5>
     d17:	107a96        	bltz	a10, e22 <PD_Noise_Est+0x442>
     d1a:	fcece1        	l32r	a14, cc (4000 <Voice_WB_TX_Prcs+0x5c0>)

00000d1d <PD_Noise_Est+0x33d>:
     d1d:	40dea2        	addmi	a10, a14, 0x4000
     d20:	aa0b           	addi.n	a10, a10, -1
     d22:	61ad           	ae_s16i.n	a10, a1, 0
     d24:	250b16        	beqz	a11, f78 <PD_Noise_Est+0x598>
     d27:	51c8           	l32i.n	a12, a1, 20
     d29:	080c           	movi.n	a8, 0
     d2b:	401104        	ae_lp16f.i	aep1, a1, 0
     d2e:	1cccc2        	addi	a12, a12, 28
     d31:	400c04        	ae_lp16f.i	aep0, a12, 0
     d34:	e920802a9f 	{ movi	a9, 42; ae_mulfp24s.hh	aeq2, aep0, aep1 }
     d39:	b14b           	addi.n	a11, a1, 4
     d3b:	35a2f4        	ae_sraiq56	aeq2, aeq2, 11
     d3e:	622b04        	ae_sq32f.i	aeq2, a11, 0
     d41:	11a8           	l32i.n	a10, a1, 4
     d43:	7024b2        	l32i	a11, a4, 0x1c0
     d46:	058976        	loop	a9, d4f <PD_Noise_Est+0x36f>
     d49:	9b8a           	add.n	a9, a11, a8
     d4b:	09a9           	s32i.n	a10, a9, 0
     d4d:	884b           	addi.n	a8, a8, 4

00000d4f <PD_Noise_Est+0x36f>:
     d4f:	71b8           	l32i.n	a11, a1, 28
     d51:	869bb2        	l16si	a11, a11, 0x10c

00000d54 <PD_Noise_Est+0x374>:
     d54:	6f24f2        	l32i	a15, a4, 0x1bc
     d57:	fcde81        	l32r	a8, d0 (5b33 <beam1_mid_band+0x1cb>)
     d5a:	51d8           	l32i.n	a13, a1, 20
     d5c:	e594c2        	l16si	a12, a4, 0x1ca
     d5f:	e794a2        	l16si	a10, a4, 0x1ce
     d62:	07ddd2        	addmi	a13, a13, 0x700
     d65:	d18c80        	mul16s	a8, a12, a8
     d68:	11aa30        	slli	a10, a10, 13
     d6b:	02a8a7        	bge	a8, a10, d71 <PD_Noise_Est+0x391>
     d6e:	0078c6        	j	f55 <PD_Noise_Est+0x575>
     d71:	118c20        	slli	a8, a12, 14
     d74:	0228a7        	blt	a8, a10, d7a <PD_Noise_Est+0x39a>
     d77:	007246        	j	f44 <PD_Noise_Est+0x564>
     d7a:	862dc2        	l32i	a12, a13, 0x218
     d7d:	fcd581        	l32r	a8, d4 (988 <wind_noise_alpha>)
     d80:	0fad           	mov.n	a10, a15
     d82:	872dd2        	l32i	a13, a13, 0x21c
     d85:	0008e0        	callx8	a8
     d88:	e894b2        	l16si	a11, a4, 0x1d0
     d8b:	11bb00        	slli	a11, a11, 16
     d8e:	000586        	j	da8 <PD_Noise_Est+0x3c8>

00000d91 <PD_Noise_Est+0x3b1>:
	...

00000d93 <PD_Noise_Est+0x3b3>:
     d93:	61e8           	l32i.n	a14, a1, 24
     d95:	aec8           	l32i.n	a12, a14, 40
     d97:	fd7c           	movi.n	a13, -1
     d99:	195ed2        	s16i	a13, a14, 50
     d9c:	073c16        	beqz	a12, e13 <PD_Noise_Est+0x433>
     d9f:	7624f2        	l32i	a15, a4, 0x1d8
     da2:	067f96        	bltz	a15, e0d <PD_Noise_Est+0x42d>

00000da5 <PD_Noise_Est+0x3c5>:
     da5:	fcccb1        	l32r	a11, d8 (7fff0000 <_end+0x7ffe3560>)

00000da8 <PD_Noise_Est+0x3c8>:
     da8:	fccf81        	l32r	a8, e4 (4920 <siir_safr>)
     dab:	71a8           	l32i.n	a10, a1, 28
     dad:	fccbd1        	l32r	a13, dc (7e1401ec <_end+0x7e13374c>)
     db0:	fcccc1        	l32r	a12, e0 (7fe70019 <_end+0x7fe63579>)
     db3:	21c9           	s32i.n	a12, a1, 8
     db5:	31d9           	s32i.n	a13, a1, 12
     db7:	08c1c2        	addi	a12, a1, 8
     dba:	422aa2        	l32i	a10, a10, 0x108
     dbd:	0008e0        	callx8	a8
     dc0:	6198           	l32i.n	a9, a1, 24
     dc2:	71b8           	l32i.n	a11, a1, 28
     dc4:	a9e8           	l32i.n	a14, a9, 40
     dc6:	426ba2        	s32i	a10, a11, 0x108
     dc9:	1a9992        	l16si	a9, a9, 52
     dcc:	0cde16        	beqz	a14, e9d <PD_Noise_Est+0x4bd>
     dcf:	3d0c           	movi.n	a13, 3
     dd1:	c91b           	addi.n	a12, a9, 1
     dd3:	43ccd0        	min	a12, a12, a13
     dd6:	61d8           	l32i.n	a13, a1, 24
     dd8:	020c           	movi.n	a2, 0
     dda:	1a5dc2        	s16i	a12, a13, 52
     ddd:	f01d           	retw.n

00000ddf <PD_Noise_Est+0x3ff>:
	...

00000de0 <PD_Noise_Est+0x400>:
     de0:	169ca7        	bne	a12, a10, dfa <PD_Noise_Est+0x41a>
     de3:	facdd2        	addi	a13, a13, -6
     de6:	ff2ec6        	j	aa5 <PD_Noise_Est+0xc5>

00000de9 <PD_Noise_Est+0x409>:
     de9:	02bab6        	bltui	a10, 16, def <PD_Noise_Est+0x40f>
     dec:	003f86        	j	eee <PD_Noise_Est+0x50e>
     def:	51a8           	l32i.n	a10, a1, 20
     df1:	09daa2        	addmi	a10, a10, 0x900
     df4:	1ccaa2        	addi	a10, a10, 28
     df7:	ff8a06        	j	c23 <PD_Noise_Est+0x243>

00000dfa <PD_Noise_Est+0x41a>:
     dfa:	fecde2        	addi	a14, a13, -2
     dfd:	fc0b           	addi.n	a15, a12, -1
     dff:	c0faf0        	sub	a15, a10, a15
     e02:	83def0        	moveqz	a13, a14, a15
     e05:	ff2706        	j	aa5 <PD_Noise_Est+0xc5>

00000e08 <PD_Noise_Est+0x428>:
     e08:	0b0c           	movi.n	a11, 0
     e0a:	ff5486        	j	b60 <PD_Noise_Est+0x180>

00000e0d <PD_Noise_Est+0x42d>:
     e0d:	1a9e82        	l16si	a8, a14, 52
     e10:	f91856        	bnez	a8, da5 <PD_Noise_Est+0x3c5>

00000e13 <PD_Noise_Est+0x433>:
     e13:	712492        	l32i	a9, a4, 0x1c4
     e16:	8b29e6        	bgei	a9, 2, da5 <PD_Noise_Est+0x3c5>
     e19:	e794b2        	l16si	a11, a4, 0x1ce
     e1c:	e594a2        	l16si	a10, a4, 0x1ca
     e1f:	82aab7        	bge	a10, a11, da5 <PD_Noise_Est+0x3c5>

00000e22 <PD_Noise_Est+0x442>:
     e22:	7724a2        	l32i	a10, a4, 0x1dc
     e25:	51b8           	l32i.n	a11, a1, 20
     e27:	fcb081        	l32r	a8, e8 (9bf0 <cal_wind_score>)
     e2a:	61c8           	l32i.n	a12, a1, 24
     e2c:	0b9be2        	l16si	a14, a11, 22
     e2f:	0a9bd2        	l16si	a13, a11, 20
     e32:	0c9bb2        	l16si	a11, a11, 24
     e35:	079cc2        	l16si	a12, a12, 14
     e38:	ddea           	add.n	a13, a13, a14
     e3a:	bbda           	add.n	a11, a11, a13
     e3c:	8bbd           	ae_sext16	a11, a11
     e3e:	61bd           	ae_s16i.n	a11, a1, 0
     e40:	0008e0        	callx8	a8
     e43:	61b8           	l32i.n	a11, a1, 24
     e45:	0aed           	mov.n	a14, a10
     e47:	abb8           	l32i.n	a11, a11, 40
     e49:	ffb406        	j	d1d <PD_Noise_Est+0x33d>

00000e4c <PD_Noise_Est+0x46c>:
     e4c:	0d0c           	movi.n	a13, 0
     e4e:	ff14c6        	j	aa5 <PD_Noise_Est+0xc5>

00000e51 <PD_Noise_Est+0x471>:
     e51:	61c8           	l32i.n	a12, a1, 24
     e53:	069cc2        	l16si	a12, a12, 12
     e56:	02adc7        	bge	a13, a12, e5c <PD_Noise_Est+0x47c>
     e59:	ff6ac6        	j	c08 <PD_Noise_Est+0x228>
     e5c:	7024b2        	l32i	a11, a4, 0x1c0
     e5f:	61c8           	l32i.n	a12, a1, 24
     e61:	4c3b04        	ae_lp24.i	aep3, a11, 0
     e64:	402c44        	ae_lp16f.i	aep2, a12, 8
     e67:	02ab74        	ae_mulp24s.ll	aeq3, aep2, aep3
     e6a:	36ba04        	ae_trunca32q48	a10, aeq3
     e6d:	080c           	movi.n	a8, 0
     e6f:	eea092        	movi	a9, 238
     e72:	aa2b           	addi.n	a10, a10, 2
     e74:	21a2a0        	srai	a10, a10, 2
     e77:	058976        	loop	a9, e80 <PD_Noise_Est+0x4a0>
     e7a:	9b8a           	add.n	a9, a11, a8
     e7c:	09a9           	s32i.n	a10, a9, 0
     e7e:	884b           	addi.n	a8, a8, 4

00000e80 <PD_Noise_Est+0x4a0>:
     e80:	61e8           	l32i.n	a14, a1, 24
     e82:	039ee2        	l16si	a14, a14, 6
     e85:	02ade7        	bge	a13, a14, e8b <PD_Noise_Est+0x4ab>
     e88:	ff5f06        	j	c08 <PD_Noise_Est+0x228>
     e8b:	7124f2        	l32i	a15, a4, 0x1c4
     e8e:	6e2fe6        	bgei	a15, 2, f00 <PD_Noise_Est+0x520>
     e91:	fc9681        	l32r	a8, ec (8a0 <COMPL_S16x2_fun>)
     e94:	ea94a2        	l16si	a10, a4, 0x1d4
     e97:	0008e0        	callx8	a8
     e9a:	001ac6        	j	f09 <PD_Noise_Est+0x529>

00000e9d <PD_Noise_Est+0x4bd>:
     e9d:	0b0c           	movi.n	a11, 0
     e9f:	a90b           	addi.n	a10, a9, -1
     ea1:	53aab0        	max	a10, a10, a11
     ea4:	61b8           	l32i.n	a11, a1, 24
     ea6:	020c           	movi.n	a2, 0
     ea8:	1a5ba2        	s16i	a10, a11, 52
     eab:	f01d           	retw.n

00000ead <PD_Noise_Est+0x4cd>:
     ead:	022aa6        	blti	a10, 2, eb3 <PD_Noise_Est+0x4d3>
     eb0:	fefc46        	j	aa5 <PD_Noise_Est+0xc5>
     eb3:	fc8fe1        	l32r	a14, f0 (c4e0 <wb_score_bands>)
     eb6:	51a8           	l32i.n	a10, a1, 20
     eb8:	099ec2        	l16si	a12, a14, 18
     ebb:	3efd           	ae_l16si.n	a15, a14, 2
     ebd:	029ee2        	l16si	a14, a14, 4
     ec0:	171aa2        	l16ui	a10, a10, 46
     ec3:	ffca           	add.n	a15, a15, a12
     ec5:	eefa           	add.n	a14, a14, a15
     ec7:	522ae7        	blt	a10, a14, f1d <PD_Noise_Est+0x53d>
     eca:	dd2b           	addi.n	a13, a13, 2
     ecc:	fef546        	j	aa5 <PD_Noise_Est+0xc5>

00000ecf <PD_Noise_Est+0x4ef>:
	...

00000ed0 <PD_Noise_Est+0x4f0>:
     ed0:	fc8781        	l32r	a8, ec (8a0 <COMPL_S16x2_fun>)
     ed3:	e494a2        	l16si	a10, a4, 0x1c8
     ed6:	0008e0        	callx8	a8
     ed9:	e494b2        	l16si	a11, a4, 0x1c8
     edc:	0a3d           	mov.n	a3, a10
     ede:	fc8381        	l32r	a8, ec (8a0 <COMPL_S16x2_fun>)
     ee1:	ab2b           	addi.n	a10, a11, 2
     ee3:	21a2a0        	srai	a10, a10, 2
     ee6:	0008e0        	callx8	a8
     ee9:	0a5d           	mov.n	a5, a10
     eeb:	ff0486        	j	b01 <PD_Noise_Est+0x121>

00000eee <PD_Noise_Est+0x50e>:
     eee:	51a8           	l32i.n	a10, a1, 20
     ef0:	09daa2        	addmi	a10, a10, 0x900
     ef3:	20caa2        	addi	a10, a10, 32
     ef6:	ff4a46        	j	c23 <PD_Noise_Est+0x243>

00000ef9 <PD_Noise_Est+0x519>:
     ef9:	fec992        	addi	a9, a9, -2
     efc:	fedb06        	j	a6c <PD_Noise_Est+0x8c>

00000eff <PD_Noise_Est+0x51f>:
	...

00000f00 <PD_Noise_Est+0x520>:
     f00:	fc7b81        	l32r	a8, ec (8a0 <COMPL_S16x2_fun>)
     f03:	e994a2        	l16si	a10, a4, 0x1d2
     f06:	0008e0        	callx8	a8

00000f09 <PD_Noise_Est+0x529>:
     f09:	080c           	movi.n	a8, 0
     f0b:	6f24b2        	l32i	a11, a4, 0x1bc
     f0e:	eea092        	movi	a9, 238
     f11:	058976        	loop	a9, f1a <PD_Noise_Est+0x53a>
     f14:	9b8a           	add.n	a9, a11, a8
     f16:	09a9           	s32i.n	a10, a9, 0
     f18:	884b           	addi.n	a8, a8, 4

00000f1a <PD_Noise_Est+0x53a>:
     f1a:	ff3a86        	j	c08 <PD_Noise_Est+0x228>

00000f1d <PD_Noise_Est+0x53d>:
     f1d:	172ac7        	blt	a10, a12, f38 <PD_Noise_Est+0x558>
     f20:	dd1b           	addi.n	a13, a13, 1
     f22:	fedfc6        	j	aa5 <PD_Noise_Est+0xc5>

00000f25 <PD_Noise_Est+0x545>:
     f25:	462bb2        	l32i	a11, a11, 0x118
     f28:	1bd8           	l32i.n	a13, a11, 4
     f2a:	0bb8           	l32i.n	a11, a11, 0
     f2c:	ebda           	add.n	a14, a11, a13
     f2e:	3e1ea6        	blti	a14, 1, f70 <PD_Noise_Est+0x590>
     f31:	992b           	addi.n	a9, a9, 2
     f33:	fecd46        	j	a6c <PD_Noise_Est+0x8c>

00000f36 <PD_Noise_Est+0x556>:
	...

00000f38 <PD_Noise_Est+0x558>:
     f38:	e8cdc2        	addi	a12, a13, -24
     f3b:	fecdd2        	addi	a13, a13, -2
     f3e:	83dca0        	moveqz	a13, a12, a10
     f41:	fed806        	j	aa5 <PD_Noise_Est+0xc5>

00000f44 <PD_Noise_Est+0x564>:
     f44:	872dc2        	l32i	a12, a13, 0x21c
     f47:	fc6381        	l32r	a8, d4 (988 <wind_noise_alpha>)
     f4a:	0fad           	mov.n	a10, a15
     f4c:	882dd2        	l32i	a13, a13, 0x220
     f4f:	0008e0        	callx8	a8
     f52:	ff93c6        	j	da5 <PD_Noise_Est+0x3c5>

00000f55 <PD_Noise_Est+0x575>:
     f55:	0fad           	mov.n	a10, a15
     f57:	fc5f81        	l32r	a8, d4 (988 <wind_noise_alpha>)
     f5a:	862dd2        	l32i	a13, a13, 0x218
     f5d:	fc65c1        	l32r	a12, f4 (33334ccd <_end+0x3332822d>)
     f60:	0008e0        	callx8	a8
     f63:	e894b2        	l16si	a11, a4, 0x1d0
     f66:	d1bbb0        	mul16s	a11, a11, a11
     f69:	11bbf0        	slli	a11, a11, 1
     f6c:	ff8e06        	j	da8 <PD_Noise_Est+0x3c8>

00000f6f <PD_Noise_Est+0x58f>:
	...

00000f70 <PD_Noise_Est+0x590>:
     f70:	361ba6        	blti	a11, 1, faa <PD_Noise_Est+0x5ca>

00000f73 <PD_Noise_Est+0x593>:
     f73:	991b           	addi.n	a9, a9, 1
     f75:	febcc6        	j	a6c <PD_Noise_Est+0x8c>

00000f78 <PD_Noise_Est+0x598>:
     f78:	71b8           	l32i.n	a11, a1, 28
     f7a:	7024d2        	l32i	a13, a4, 0x1c0
     f7d:	400104        	ae_lp16f.i	aep0, a1, 0
     f80:	869bb2        	l16si	a11, a11, 0x10c
     f83:	fccda2        	addi	a10, a13, -4
     f86:	600d04        	ae_lq32f.i	aeq0, a13, 0
     f89:	021be6        	bgei	a11, 1, f8f <PD_Noise_Est+0x5af>
     f8c:	ff7106        	j	d54 <PD_Noise_Est+0x374>
     f8f:	0c0c           	movi.n	a12, 0

00000f91 <PD_Noise_Est+0x5b1>:
     f91:	d4e27071be 	{ l32i	a11, a1, 28; ae_mulfq32sp16s.l	aeq1, aeq0, aep0 }
     f96:	601d14        	ae_lq32f.iu	aeq0, a13, 4
     f99:	355054        	ae_slliq56	aeq1, aeq1, 1
     f9c:	625a14        	ae_sq32f.iu	aeq1, a10, 4
     f9f:	869bb2        	l16si	a11, a11, 0x10c
     fa2:	cc1b           	addi.n	a12, a12, 1
     fa4:	e92cb7        	blt	a12, a11, f91 <PD_Noise_Est+0x5b1>
     fa7:	ff6a46        	j	d54 <PD_Noise_Est+0x374>

00000faa <PD_Noise_Est+0x5ca>:
     faa:	c51de6        	bgei	a13, 1, f73 <PD_Noise_Est+0x593>
     fad:	990b           	addi.n	a9, a9, -1
     faf:	feae46        	j	a6c <PD_Noise_Est+0x8c>

00000fb2 <PD_Noise_Est+0x5d2>:
	...

00000fb4 <PD_Noise_Gain>:
     fb4:	004136        	entry	a1, 32
     fb7:	fc3121        	l32r	a2, 7c (ca94 <p_ecnr_mem>)
     fba:	0228           	l32i.n	a2, a2, 0
     fbc:	57d222        	addmi	a2, a2, 0x5700
     fbf:	429222        	l16si	a2, a2, 132
     fc2:	f01d           	retw.n

00000fc4 <voiced_decision>:
     fc4:	00c136        	entry	a1, 96
     fc7:	fc2d81        	l32r	a8, 7c (ca94 <p_ecnr_mem>)
     fca:	0888           	l32i.n	a8, a8, 0
     fcc:	1ad882        	addmi	a8, a8, 0x1a00
     fcf:	1a2882        	l32i	a8, a8, 104
     fd2:	d139           	s32i.n	a3, a1, 52
     fd4:	7189           	s32i.n	a8, a1, 28
     fd6:	01d892        	addmi	a9, a8, 0x100
     fd9:	ecc962        	addi	a6, a9, -20
     fdc:	9cc9a2        	addi	a10, a9, -100
     fdf:	91a9           	s32i.n	a10, a1, 36
     fe1:	14c992        	addi	a9, a9, 20
     fe4:	7a2c           	movi.n	a10, 39
     fe6:	6199           	s32i.n	a9, a1, 24
     fe8:	090c           	movi.n	a9, 0
     fea:	028a76        	loop	a10, ff0 <voiced_decision+0x2c>
     fed:	09c894        	ae_s16ip	a9, a8, 2

00000ff0 <voiced_decision+0x2c>:
     ff0:	0b0c           	movi.n	a11, 0
     ff2:	61a8           	l32i.n	a10, a1, 24
     ff4:	9188           	l32i.n	a8, a1, 36
     ff6:	069d           	mov.n	a9, a6
     ff8:	4c1c           	movi.n	a12, 20
     ffa:	088c76        	loop	a12, 1006 <voiced_decision+0x42>
     ffd:	09e8b4        	ae_s32ip	a11, a8, 4
    1000:	09c9b4        	ae_s16ip	a11, a9, 2
    1003:	09cab4        	ae_s16ip	a11, a10, 2
    1006:	140c           	movi.n	a4, 1
    1008:	952282        	l32i	a8, a2, 0x254
    100b:	453c           	movi.n	a5, 52
    100d:	fc3a91        	l32r	a9, f8 (147ae1 <_end+0x13b041>)
    1010:	01d2e2        	addmi	a14, a2, 0x100
    1013:	0f0c           	movi.n	a15, 0
    1015:	2a62f2        	s32i	a15, a2, 168
    1018:	accee2        	addi	a14, a14, -84
    101b:	398994        	ae_movpa24x2	aep0, a9, a9
    101e:	60e154        	ae_lq32f.x	aeq3, a1, a5
    1021:	364834        	ae_cvtq48a32s	aeq1, a8
    1024:	00a052        	movi	a5, 0
    1027:	fb017ed49f 	{ ae_sraaq56	aeq2, aeq1, a4; ae_mulfq32sp24s.h	aeq3, aeq3, aep0 }
    102c:	f8ea40279f 	{ movi	a9, 39; ae_addsq56s	aeq0, aeq1, aeq2 }
    1031:	fbe700004f 	{ movi	a4, 0; ae_maxq56s	aeq3, aeq3, aeq0 }
    1036:	623104        	ae_sq32f.i	aeq3, a1, 0
    1039:	15a976        	loopgtz	a9, 1052 <voiced_decision+0x8e>
    103c:	605e14        	ae_lq32f.iu	aeq1, a14, 4
    103f:	099304        	ae_ltq56s	b0, aeq3, aeq1
    1042:	0a0076        	bf	b0, 1050 <voiced_decision+0x8c>
    1045:	f4cef2        	addi	a15, a14, -12
    1048:	0a0c           	movi.n	a10, 0
    104a:	360a34        	ae_cvtq48a32s	aeq0, a10
    104d:	000446        	j	1062 <voiced_decision+0x9e>

00001050 <voiced_decision+0x8c>:
    1050:	441b           	addi.n	a4, a4, 1

00001052 <voiced_decision+0x8e>:
    1052:	c50b           	addi.n	a12, a5, -1
    1054:	8ccd           	ae_sext16	a12, a12
    1056:	0251c2        	s16i	a12, a1, 4
    1059:	351ce6        	bgei	a12, 1, 1092 <voiced_decision+0xce>
    105c:	3f3c16        	beqz	a12, 1453 <voiced_decision+0x48f>
    105f:	00f946        	j	1448 <voiced_decision+0x484>

00001062 <voiced_decision+0x9e>:
    1062:	609f14        	ae_lq32f.iu	aeq2, a15, 4
    1065:	f8e33d5f1f 	{ ae_lq32f.iu	aeq2, a15, 4; ae_maxq56s	aeq0, aeq2, aeq0 }
    106a:	fae33d1f1f 	{ ae_lq32f.iu	aeq0, a15, 4; ae_maxq56s	aeq2, aeq2, aeq0 }
    106f:	f8733d5f1f 	{ ae_lq32f.iu	aeq2, a15, 4; ae_maxq56s	aeq0, aeq0, aeq2 }
    1074:	fae33d1f1f 	{ ae_lq32f.iu	aeq0, a15, 4; ae_maxq56s	aeq2, aeq2, aeq0 }
    1079:	0120c4        	ae_maxq56s	aeq0, aeq0, aeq2
    107c:	098914        	ae_eqq56	b1, aeq1, aeq0
    107f:	cd0176        	bf	b1, 1050 <voiced_decision+0x8c>
    1082:	7198           	l32i.n	a9, a1, 28
    1084:	841b           	addi.n	a8, a4, 1
    1086:	909590        	addx2	a9, a5, a9
    1089:	698d           	ae_s16i.n	a8, a9, 0
    108b:	551b           	addi.n	a5, a5, 1
    108d:	855d           	ae_sext16	a5, a5
    108f:	ffef46        	j	1050 <voiced_decision+0x8c>

00001092 <voiced_decision+0xce>:
    1092:	7138           	l32i.n	a3, a1, 28
    1094:	040c           	movi.n	a4, 0
    1096:	050c           	movi.n	a5, 0
    1098:	fc1971        	l32r	a7, fc (900 <PD_INIT+0x50>)
    109b:	fbffd1        	l32r	a13, 98 (8000 <NR_vad2+0xe4>)
    109e:	360d34        	ae_cvtq48a32s	aeq0, a13
    10a1:	0012c6        	j	10f0 <voiced_decision+0x12c>

000010a4 <voiced_decision+0xe0>:
    10a4:	9c0c           	movi.n	a12, 9
    10a6:	a0ab20        	addx4	a10, a11, a2
    10a9:	fc1581        	l32r	a8, 100 (22f8 <Xfrac_num_pd_td32>)
    10ac:	01daa2        	addmi	a10, a10, 0x100
    10af:	accaa2        	addi	a10, a10, -84
    10b2:	0008e0        	callx8	a8
    10b5:	0291c2        	l16si	a12, a1, 4
    10b8:	21a9           	s32i.n	a10, a1, 8
    10ba:	fbf7d1        	l32r	a13, 98 (8000 <NR_vad2+0xe4>)
    10bd:	360d34        	ae_cvtq48a32s	aeq0, a13

000010c0 <voiced_decision+0xfc>:
    10c0:	332b           	addi.n	a3, a3, 2
    10c2:	441b           	addi.n	a4, a4, 1
    10c4:	9198           	l32i.n	a9, a1, 36
    10c6:	d18b           	addi.n	a13, a1, 8
    10c8:	60cd04        	ae_lq32f.i	aeq3, a13, 0
    10cb:	f8fbc0c1be 	{ addi	a11, a1, 12; ae_roundsp16q48sym	aep1, aeq3 }
    10d0:	a09590        	addx4	a9, a5, a9
    10d3:	421b04        	ae_sp16f.l.i	aep1, a11, 0
    10d6:	069182        	l16si	a8, a1, 12
    10d9:	09a9           	s32i.n	a10, a9, 0
    10db:	909560        	addx2	a9, a5, a6
    10de:	a08820        	addx4	a8, a8, a2
    10e1:	222882        	l32i	a8, a8, 136
    10e4:	551b           	addi.n	a5, a5, 1
    10e6:	855d           	ae_sext16	a5, a5
    10e8:	318080        	srai	a8, a8, 16
    10eb:	698d           	ae_s16i.n	a8, a9, 0
    10ed:	4aa4c7        	bge	a4, a12, 113b <voiced_decision+0x177>

000010f0 <voiced_decision+0x12c>:
    10f0:	23bd           	ae_l16si.n	a11, a3, 0
    10f2:	33ed           	ae_l16si.n	a14, a3, 2
    10f4:	c0eeb0        	sub	a14, a14, a11
    10f7:	a91e66        	bnei	a14, 1, 10a4 <voiced_decision+0xe0>
    10fa:	332b           	addi.n	a3, a3, 2
    10fc:	fd0440144e 	{ addi	a4, a4, 1; ae_movq56	aeq1, aeq0 }
    1101:	1ba4c7        	bge	a4, a12, 1120 <voiced_decision+0x15c>
    1104:	c0fc40        	sub	a15, a12, a4
    1107:	10af76        	loopgtz	a15, 111b <voiced_decision+0x157>
    110a:	239d           	ae_l16si.n	a9, a3, 0
    110c:	338d           	ae_l16si.n	a8, a3, 2
    110e:	c08890        	sub	a8, a8, a9
    1111:	0b1866        	bnei	a8, 1, 1120 <voiced_decision+0x15c>
    1114:	441b           	addi.n	a4, a4, 1
    1116:	f96a40233e 	{ addi	a3, a3, 2; ae_addsq56s	aeq1, aeq1, aeq0 }

0000111b <voiced_decision+0x157>:
    111b:	7138           	l32i.n	a3, a1, 28
    111d:	903430        	addx2	a3, a4, a3
    1120:	39c774        	ae_movpa24x2	aep4, a7, a7
    1123:	403304        	ae_lp16f.i	aep3, a3, 0
    1126:	07b424        	ae_addsp24s	aep2, aep3, aep4
    1129:	0aca84        	ae_cvtq48p24s.h	aeq3, aep2
    112c:	fa5e80818e 	{ addi	a8, a1, 8; ae_subsq56s	aeq2, aeq3, aeq1 }
    1131:	622804        	ae_sq32f.i	aeq2, a8, 0
    1134:	21a8           	l32i.n	a10, a1, 8
    1136:	ffe186        	j	10c0 <voiced_decision+0xfc>

00001139 <voiced_decision+0x175>:
	...

0000113b <voiced_decision+0x177>:
    113b:	449c47        	bne	a12, a4, 1183 <voiced_decision+0x1bf>

0000113e <voiced_decision+0x17a>:
    113e:	71a8           	l32i.n	a10, a1, 28
    1140:	90a4a0        	addx2	a10, a4, a10
    1143:	2aad           	ae_l16si.n	a10, a10, 0
    1145:	9c0c           	movi.n	a12, 9
    1147:	fbee81        	l32r	a8, 100 (22f8 <Xfrac_num_pd_td32>)
    114a:	0abd           	mov.n	a11, a10
    114c:	a0aa20        	addx4	a10, a10, a2
    114f:	01daa2        	addmi	a10, a10, 0x100
    1152:	accaa2        	addi	a10, a10, -84
    1155:	0008e0        	callx8	a8
    1158:	90c560        	addx2	a12, a5, a6
    115b:	91d8           	l32i.n	a13, a1, 36
    115d:	21a9           	s32i.n	a10, a1, 8
    115f:	f18b           	addi.n	a15, a1, 8
    1161:	600f04        	ae_lq32f.i	aeq0, a15, 0
    1164:	fae3c0c1ee 	{ addi	a14, a1, 12; ae_roundsp16q48sym	aep5, aeq0 }
    1169:	425e04        	ae_sp16f.l.i	aep5, a14, 0
    116c:	0691b2        	l16si	a11, a1, 12
    116f:	a0d5d0        	addx4	a13, a5, a13
    1172:	0da9           	s32i.n	a10, a13, 0
    1174:	a0bb20        	addx4	a11, a11, a2
    1177:	222bb2        	l32i	a11, a11, 136
    117a:	551b           	addi.n	a5, a5, 1
    117c:	855d           	ae_sext16	a5, a5
    117e:	31b0b0        	srai	a11, a11, 16
    1181:	6cbd           	ae_s16i.n	a11, a12, 0

00001183 <voiced_decision+0x1bf>:
    1183:	0215e6        	bgei	a5, 1, 1189 <voiced_decision+0x1c5>
    1186:	00b006        	j	144a <voiced_decision+0x486>
    1189:	190c           	movi.n	a9, 1
    118b:	6188           	l32i.n	a8, a1, 24
    118d:	02a576        	loopgtz	a5, 1193 <voiced_decision+0x1cf>
    1190:	09c894        	ae_s16ip	a9, a8, 2

00001193 <voiced_decision+0x1cf>:
    1193:	04d232        	addmi	a3, a2, 0x400
    1196:	1cc332        	addi	a3, a3, 28
    1199:	7e9382        	l16si	a8, a3, 252
    119c:	0218e6        	bgei	a8, 1, 11a2 <voiced_decision+0x1de>
    119f:	0068c6        	j	1346 <voiced_decision+0x382>
    11a2:	9178           	l32i.n	a7, a1, 36
    11a4:	61a8           	l32i.n	a10, a1, 24
    11a6:	090c           	movi.n	a9, 0
    11a8:	040c           	movi.n	a4, 0
    11aa:	10c2d2        	addi	a13, a2, 16
    11ad:	fbd5f1        	l32r	a15, 104 (78000 <_end+0x6b560>)
    11b0:	fbd6e1        	l32r	a14, 108 (10000 <_end+0x3560>)
    11b3:	364e34        	ae_cvtq48a32s	aeq1, a14
    11b6:	398ff4        	ae_movpa24x2	aep0, a15, a15
    11b9:	81d9           	s32i.n	a13, a1, 32
    11bb:	06fd           	mov.n	a15, a6
    11bd:	000486        	j	11d3 <voiced_decision+0x20f>

000011c0 <voiced_decision+0x1fc>:
	...

000011c1 <voiced_decision+0x1fd>:
    11c1:	180c           	movi.n	a8, 1
    11c3:	6a8d           	ae_s16i.n	a8, a10, 0

000011c5 <voiced_decision+0x201>:
    11c5:	774b           	addi.n	a7, a7, 4
    11c7:	aa2b           	addi.n	a10, a10, 2
    11c9:	ff2b           	addi.n	a15, a15, 2
    11cb:	991b           	addi.n	a9, a9, 1
    11cd:	c0b950        	sub	a11, a9, a5
    11d0:	172b16        	beqz	a11, 1346 <voiced_decision+0x382>

000011d3 <voiced_decision+0x20f>:
    11d3:	7e93b2        	l16si	a11, a3, 252
    11d6:	600704        	ae_lq32f.i	aeq0, a7, 0
    11d9:	bb0b           	addi.n	a11, a11, -1
    11db:	35a4b7        	bge	a4, a11, 1214 <voiced_decision+0x250>
    11de:	a0c420        	addx4	a12, a4, a2
    11e1:	030204        	ae_mulfq32sp16s.h	aeq0, aeq0, aep0
    11e4:	03dcc2        	addmi	a12, a12, 0x300
    11e7:	f86b30078e 	{ l32i	a8, a7, 0; ae_maxq56s	aeq0, aeq0, aeq1 }
    11ec:	ff10870cce 	{ addi	a12, a12, 112; ae_negq56	aeq3, aeq0 }
    11f1:	1a8076        	loop	a0, 120f <voiced_decision+0x24b>
    11f4:	7f2ce2        	l32i	a14, a12, 0x1fc
    11f7:	10c1d2        	addi	a13, a1, 16
    11fa:	c0ee80        	sub	a14, a14, a8
    11fd:	41e9           	s32i.n	a14, a1, 16
    11ff:	608d04        	ae_lq32f.i	aeq2, a13, 0
    1202:	09a324        	ae_ltq56s	b2, aeq3, aeq2
    1205:	cc4b           	addi.n	a12, a12, 4
    1207:	201276        	bt	b2, 122b <voiced_decision+0x267>
    120a:	441b           	addi.n	a4, a4, 1
    120c:	0ca4b7        	bge	a4, a11, 121c <voiced_decision+0x258>

0000120f <voiced_decision+0x24b>:
    120f:	fff786        	j	11f1 <voiced_decision+0x22d>

00001212 <voiced_decision+0x24e>:
	...

00001214 <voiced_decision+0x250>:
    1214:	030204        	ae_mulfq32sp16s.h	aeq0, aeq0, aep0
    1217:	f86b30078e 	{ l32i	a8, a7, 0; ae_maxq56s	aeq0, aeq0, aeq1 }

0000121c <voiced_decision+0x258>:
    121c:	a0e420        	addx4	a14, a4, a2
    121f:	03dee2        	addmi	a14, a14, 0x300
    1222:	70cee2        	addi	a14, a14, 112
    1225:	7f2ee2        	l32i	a14, a14, 0x1fc
    1228:	c0ee80        	sub	a14, a14, a8

0000122b <voiced_decision+0x267>:
    122b:	10c1c2        	addi	a12, a1, 16
    122e:	60d1e0        	abs	a13, a14
    1231:	41d9           	s32i.n	a13, a1, 16
    1233:	60cc04        	ae_lq32f.i	aeq3, a12, 0
    1236:	098734        	ae_leq56s	b3, aeq3, aeq0
    1239:	840376        	bf	b3, 11c1 <voiced_decision+0x1fd>
    123c:	fbb4b1        	l32r	a11, 10c (2ccccd <_end+0x2c022d>)
    123f:	407f04        	ae_lp16f.i	aep7, a15, 0
    1242:	42a5e2        	movi	a14, 0x542
    1245:	8188           	l32i.n	a8, a1, 32
    1247:	90c420        	addx2	a12, a4, a2
    124a:	412ce4        	ae_lp16f.x	aep2, a12, a14
    124d:	401804        	ae_lp16f.i	aep1, a8, 0
    1250:	e844ba015f 	{ ae_sq56s.i	aeq0, a1, 40; ae_mulfp24s.hh	aeq0, aep1, aep2 }
    1255:	0a8f84        	ae_cvtq48p24s.h	aeq2, aep7
    1258:	f8e7e26bbf 	{ ae_movpa24x2	aep6, a11, a11; ae_roundsp24q48sym	aep1, aeq0 }
    125d:	016144        	ae_mulfp24s.hh	aeq0, aep6, aep1
    1260:	35a074        	ae_sraiq56	aeq2, aeq2, 1
    1263:	098294        	ae_ltq56s	b9, aeq2, aeq0
    1266:	610154        	ae_lq56.i	aeq0, a1, 40
    1269:	130976        	bf	b9, 1280 <voiced_decision+0x2bc>
    126c:	1c0c           	movi.n	a12, 1
    126e:	6acd           	ae_s16i.n	a12, a10, 0

00001270 <voiced_decision+0x2ac>:
    1270:	7e93e2        	l16si	a14, a3, 252
    1273:	d41b           	addi.n	a13, a4, 1
    1275:	ee0b           	addi.n	a14, a14, -1
    1277:	72e4e0        	salt	a14, a4, a14
    127a:	934de0        	movnez	a4, a13, a14
    127d:	ffd106        	j	11c5 <voiced_decision+0x201>

00001280 <voiced_decision+0x2bc>:
    1280:	fba4e1        	l32r	a14, 110 (466666 <_end+0x459bc6>)
    1283:	39bee4        	ae_movpa24x2	aep3, a14, a14
    1286:	e82cba015f 	{ ae_sq56s.i	aeq0, a1, 40; ae_mulfp24s.hh	aeq0, aep3, aep1 }
    128b:	04dcc2        	addmi	a12, a12, 0x400
    128e:	d6c3c1ccce 	{ addi	a12, a12, 28; ae_ltq56s	b15, aeq2, aeq0 }
    1293:	7f9cc2        	l16si	a12, a12, 254
    1296:	610154        	ae_lq56.i	aeq0, a1, 40
    1299:	0c0f76        	bf	b15, 12a9 <voiced_decision+0x2e5>
    129c:	1b0c           	movi.n	a11, 1
    129e:	fbcc82        	addi	a8, a12, -5
    12a1:	5388b0        	max	a8, a8, a11
    12a4:	6a8d           	ae_s16i.n	a8, a10, 0
    12a6:	fff186        	j	1270 <voiced_decision+0x2ac>

000012a9 <voiced_decision+0x2e5>:
    12a9:	fb9ad1        	l32r	a13, 114 (533333 <_end+0x526893>)
    12ac:	39cdd4        	ae_movpa24x2	aep4, a13, a13
    12af:	e830ba015f 	{ ae_sq56s.i	aeq0, a1, 40; ae_mulfp24s.hh	aeq0, aep4, aep1 }
    12b4:	098254        	ae_ltq56s	b5, aeq2, aeq0
    12b7:	610154        	ae_lq56.i	aeq0, a1, 40
    12ba:	0c0576        	bf	b5, 12ca <voiced_decision+0x306>
    12bd:	180c           	movi.n	a8, 1
    12bf:	fccce2        	addi	a14, a12, -4
    12c2:	53ee80        	max	a14, a14, a8
    12c5:	6aed           	ae_s16i.n	a14, a10, 0
    12c7:	ffe946        	j	1270 <voiced_decision+0x2ac>

000012ca <voiced_decision+0x306>:
    12ca:	fb93b1        	l32r	a11, 118 (5851ec <_end+0x57874c>)
    12cd:	39dbb4        	ae_movpa24x2	aep5, a11, a11
    12d0:	e834ba015f 	{ ae_sq56s.i	aeq0, a1, 40; ae_mulfp24s.hh	aeq0, aep5, aep1 }
    12d5:	0982b4        	ae_ltq56s	b11, aeq2, aeq0
    12d8:	610154        	ae_lq56.i	aeq0, a1, 40
    12db:	0c0b76        	bf	b11, 12eb <voiced_decision+0x327>
    12de:	1e0c           	movi.n	a14, 1
    12e0:	feccd2        	addi	a13, a12, -2
    12e3:	53dde0        	max	a13, a13, a14
    12e6:	6add           	ae_s16i.n	a13, a10, 0
    12e8:	ffe106        	j	1270 <voiced_decision+0x2ac>

000012eb <voiced_decision+0x327>:
    12eb:	fb8c81        	l32r	a8, 11c (5ae148 <_end+0x5a16a8>)
    12ee:	39e884        	ae_movpa24x2	aep6, a8, a8
    12f1:	e838ba015f 	{ ae_sq56s.i	aeq0, a1, 40; ae_mulfp24s.hh	aeq0, aep6, aep1 }
    12f6:	098214        	ae_ltq56s	b1, aeq2, aeq0
    12f9:	610154        	ae_lq56.i	aeq0, a1, 40
    12fc:	0b0176        	bf	b1, 130b <voiced_decision+0x347>
    12ff:	1d0c           	movi.n	a13, 1
    1301:	bc0b           	addi.n	a11, a12, -1
    1303:	53bbd0        	max	a11, a11, a13
    1306:	6abd           	ae_s16i.n	a11, a10, 0
    1308:	ffd906        	j	1270 <voiced_decision+0x2ac>

0000130b <voiced_decision+0x347>:
    130b:	fb85e1        	l32r	a14, 120 (5ccccd <_end+0x5c022d>)
    130e:	39fee4        	ae_movpa24x2	aep7, a14, a14
    1311:	e83cba015f 	{ ae_sq56s.i	aeq0, a1, 40; ae_mulfp24s.hh	aeq0, aep7, aep1 }
    1316:	098274        	ae_ltq56s	b7, aeq2, aeq0
    1319:	610154        	ae_lq56.i	aeq0, a1, 40
    131c:	040776        	bf	b7, 1324 <voiced_decision+0x360>
    131f:	6acd           	ae_s16i.n	a12, a10, 0
    1321:	ffd2c6        	j	1270 <voiced_decision+0x2ac>

00001324 <voiced_decision+0x360>:
    1324:	1d0c           	movi.n	a13, 1
    1326:	fb7fe1        	l32r	a14, 124 (600000 <_end+0x5f3560>)
    1329:	399ee4        	ae_movpa24x2	aep1, a14, a14
    132c:	f9040ffcbe 	{ addi	a11, a12, -1; ae_mulfq32sp24s.h	aeq2, aeq0, aep1 }
    1331:	53bbd0        	max	a11, a11, a13
    1334:	d5d6001c8e 	{ addi	a8, a12, 1; ae_leq56s	b8, aeq3, aeq2 }
    1339:	0d1c           	movi.n	a13, 16
    133b:	4388d0        	min	a8, a8, a13
    133e:	c38b80        	movf	a8, a11, b8
    1341:	6a8d           	ae_s16i.n	a8, a10, 0
    1343:	ffca46        	j	1270 <voiced_decision+0x2ac>

00001346 <voiced_decision+0x382>:
    1346:	61b8           	l32i.n	a11, a1, 24
    1348:	05cd           	mov.n	a12, a5
    134a:	fb5681        	l32r	a8, a4 (9de0 <xt_memcpy>)
    134d:	05d2a2        	addmi	a10, a2, 0x500
    1350:	1acaa2        	addi	a10, a10, 26
    1353:	0008e0        	callx8	a8

00001356 <voiced_decision+0x392>:
    1356:	7e5352        	s16i	a5, a3, 252
    1359:	06fd           	mov.n	a15, a6
    135b:	608104        	ae_lq32f.i	aeq2, a1, 0
    135e:	fb7341        	l32r	a4, 12c (828f <Mel_filter+0x2b>)
    1361:	fb7371        	l32r	a7, 130 (30000 <_end+0x23560>)
    1364:	fb5ab1        	l32r	a11, cc (4000 <Voice_WB_TX_Prcs+0x5c0>)
    1367:	fb7381        	l32r	a8, 134 (20000 <_end+0x13560>)
    136a:	fb6fa1        	l32r	a10, 128 (fffe0000 <_end+0xfffd3560>)
    136d:	fb7291        	l32r	a9, 138 (c148 <export_parameter_array+0x18>)
    1370:	364a34        	ae_cvtq48a32s	aeq1, a10
    1373:	03ad           	mov.n	a10, a3
    1375:	5fa576        	loopgtz	a5, 13d8 <voiced_decision+0x414>
    1378:	7f9ac2        	l16si	a12, a10, 254
    137b:	400f04        	ae_lp16f.i	aep0, a15, 0
    137e:	433ca6        	blti	a12, 3, 13c5 <voiced_decision+0x401>
    1381:	8d0c           	movi.n	a13, 8
    1383:	16adc7        	bge	a13, a12, 139d <voiced_decision+0x3d9>
    1386:	fc043ae0ef 	{ ae_sllisq56s	aeq3, aeq2, 2; ae_cvtq48p24s.h	aeq0, aep0 }
    138b:	06fa14        	ae_subsq56s	aeq3, aeq3, aeq2
    138e:	098394        	ae_ltq56s	b9, aeq3, aeq0
    1391:	080976        	bf	b9, 139d <voiced_decision+0x3d9>
    1394:	360734        	ae_cvtq48a32s	aeq0, a7
    1397:	065804        	ae_addsq56s	aeq1, aeq1, aeq0
    139a:	000c06        	j	13ce <voiced_decision+0x40a>

0000139d <voiced_decision+0x3d9>:
    139d:	176ca6        	blti	a12, 6, 13b8 <voiced_decision+0x3f4>
    13a0:	fc043b20df 	{ ae_sraiq56	aeq3, aeq2, 1; ae_cvtq48p24s.h	aeq0, aep0 }
    13a5:	06fa04        	ae_addsq56s	aeq3, aeq3, aeq2
    13a8:	0983a4        	ae_ltq56s	b10, aeq3, aeq0
    13ab:	090a76        	bf	b10, 13b8 <voiced_decision+0x3f4>
    13ae:	360834        	ae_cvtq48a32s	aeq0, a8
    13b1:	065804        	ae_addsq56s	aeq1, aeq1, aeq0
    13b4:	000586        	j	13ce <voiced_decision+0x40a>

000013b7 <voiced_decision+0x3f3>:
	...

000013b8 <voiced_decision+0x3f4>:
    13b8:	fb54e1        	l32r	a14, 108 (10000 <_end+0x3560>)
    13bb:	36ce34        	ae_cvtq48a32s	aeq3, a14
    13be:	065b04        	ae_addsq56s	aeq1, aeq1, aeq3
    13c1:	000246        	j	13ce <voiced_decision+0x40a>

000013c4 <voiced_decision+0x400>:
	...

000013c5 <voiced_decision+0x401>:
    13c5:	121c26        	beqi	a12, 1, 13db <voiced_decision+0x417>

000013c8 <voiced_decision+0x404>:
    13c8:	360434        	ae_cvtq48a32s	aeq0, a4
    13cb:	065814        	ae_subsq56s	aeq1, aeq1, aeq0

000013ce <voiced_decision+0x40a>:
    13ce:	aa2b           	addi.n	a10, a10, 2
    13d0:	ff2b           	addi.n	a15, a15, 2
    13d2:	14c1c2        	addi	a12, a1, 20
    13d5:	621c04        	ae_sq32f.i	aeq1, a12, 0

000013d8 <voiced_decision+0x414>:
    13d8:	000686        	j	13f6 <voiced_decision+0x432>

000013db <voiced_decision+0x417>:
    13db:	302bb4        	ae_cvtp24a16x2.ll	aep2, a11, a11
    13de:	362054        	ae_sllisq56s	aeq0, aeq2, 1
    13e1:	032084        	ae_mulafq32sp16s.h	aeq0, aeq2, aep2
    13e4:	0ac884        	ae_cvtq48p24s.h	aeq3, aep0
    13e7:	0983b4        	ae_ltq56s	b11, aeq3, aeq0
    13ea:	da0b76        	bf	b11, 13c8 <voiced_decision+0x404>
    13ed:	36c934        	ae_cvtq48a32s	aeq3, a9
    13f0:	065b14        	ae_subsq56s	aeq1, aeq1, aeq3
    13f3:	fff5c6        	j	13ce <voiced_decision+0x40a>

000013f6 <voiced_decision+0x432>:
    13f6:	91b8           	l32i.n	a11, a1, 36
    13f8:	fb2b81        	l32r	a8, a4 (9de0 <xt_memcpy>)
    13fb:	6a2392        	l32i	a9, a3, 0x1a8
    13fe:	8e7c           	movi.n	a14, -8
    1400:	8f0c           	movi.n	a15, 8
    1402:	11c5e0        	slli	a12, a5, 2
    1405:	05d2a2        	addmi	a10, a2, 0x500
    1408:	f9ebc041de 	{ addi	a13, a1, 4; ae_roundsp16q48sym	aep3, aeq1 }
    140d:	423d04        	ae_sp16f.l.i	aep3, a13, 0
    1410:	0291d2        	l16si	a13, a1, 4
    1413:	6ccaa2        	addi	a10, a10, 108
    1416:	41c1c0        	srli	a12, a12, 1
    1419:	43ddf0        	min	a13, a13, a15
    141c:	53dde0        	max	a13, a13, a14
    141f:	51d9           	s32i.n	a13, a1, 20
    1421:	99da           	add.n	a9, a9, a13
    1423:	0d1c           	movi.n	a13, 16
    1425:	4399d0        	min	a9, a9, a13
    1428:	4199           	s32i.n	a9, a1, 16
    142a:	0d0c           	movi.n	a13, 0
    142c:	5399d0        	max	a9, a9, a13
    142f:	6a6392        	s32i	a9, a3, 0x1a8
    1432:	0008e0        	callx8	a8
    1435:	05cd           	mov.n	a12, a5
    1437:	06bd           	mov.n	a11, a6
    1439:	fb1a81        	l32r	a8, a4 (9de0 <xt_memcpy>)
    143c:	05d2a2        	addmi	a10, a2, 0x500
    143f:	42caa2        	addi	a10, a10, 66
    1442:	0008e0        	callx8	a8
    1445:	f01d           	retw.n

00001447 <voiced_decision+0x483>:
	...

00001448 <voiced_decision+0x484>:
    1448:	050c           	movi.n	a5, 0

0000144a <voiced_decision+0x486>:
    144a:	04d232        	addmi	a3, a2, 0x400
    144d:	1cc332        	addi	a3, a3, 28
    1450:	ffc086        	j	1356 <voiced_decision+0x392>

00001453 <voiced_decision+0x48f>:
    1453:	040c           	movi.n	a4, 0
    1455:	050c           	movi.n	a5, 0
    1457:	ff38c6        	j	113e <voiced_decision+0x17a>

0000145a <voiced_decision+0x496>:
	...

0000145c <Pitch_by_Corel>:
    145c:	00e136        	entry	a1, 112
    145f:	aca052        	movi	a5, 172
    1462:	490c           	movi.n	a9, 4
    1464:	05d3c2        	addmi	a12, a3, 0x500
    1467:	03d382        	addmi	a8, a3, 0x300
    146a:	62c242        	addi	a4, a2, 98
    146d:	070c           	movi.n	a7, 0
    146f:	fb33a1        	l32r	a10, 13c (4ccccd <_end+0x4c022d>)
    1472:	39aaa4        	ae_movpa24x2	aep2, a10, a10
    1475:	0179           	s32i.n	a7, a1, 0
    1477:	d149           	s32i.n	a4, a1, 52
    1479:	8028e2        	l32i	a14, a8, 0x200
    147c:	bc8b           	addi.n	a11, a12, 8
    147e:	f3f6b0        	wur.ae_cbegin0	a11
    1481:	18ccc2        	addi	a12, a12, 24
    1484:	f3f7c0        	wur.ae_cend0	a12
    1487:	0e68           	l32i.n	a6, a14, 0
    1489:	8189           	s32i.n	a8, a1, 32
    148b:	040c           	movi.n	a4, 0
    148d:	fcc662        	addi	a6, a6, -4
    1490:	fc24fbae9f 	{ ae_lq32f.c	aeq1, a14, a9; nop }
    1495:	0ef8           	l32i.n	a15, a14, 0
    1497:	fc24fb8e9f 	{ ae_lq32f.c	aeq0, a14, a9; nop }
    149c:	0ed8           	l32i.n	a13, a14, 0
    149e:	fccff2        	addi	a15, a15, -4
    14a1:	fc24fbee9f 	{ ae_lq32f.c	aeq3, a14, a9; nop }
    14a6:	0ec8           	l32i.n	a12, a14, 0
    14a8:	fccdd2        	addi	a13, a13, -4
    14ab:	fc24fbce9f 	{ ae_lq32f.c	aeq2, a14, a9; nop }
    14b0:	fc24fbae9f 	{ ae_lq32f.c	aeq1, a14, a9; nop }
    14b5:	fcccc2        	addi	a12, a12, -4
    14b8:	8068e2        	s32i	a14, a8, 0x200
    14bb:	1184f0        	slli	a8, a4, 1
    14be:	c08280        	sub	a8, a2, a8
    14c1:	fc2485088e 	{ addi	a8, a8, 80; ae_zeroq56	aeq0 }

000014c6 <Pitch_by_Corel+0x6a>:
    14c6:	d198           	l32i.n	a9, a1, 52
    14c8:	608614        	ae_lq32f.i	aeq2, a6, 4
    14cb:	1ea0a2        	movi	a10, 30
    14ce:	409914        	ae_lp16f.iu	aep1, a9, 2
    14d1:	078a76        	loop	a10, 14dc <Pitch_by_Corel+0x80>
    14d4:	408814        	ae_lp16f.iu	aep0, a8, 2
    14d7:	e404ac991f 	{ ae_lp16f.iu	aep1, a9, 2; ae_mulafs56p24s.hh	aeq0, aep1, aep0 }

000014dc <Pitch_by_Corel+0x80>:
    14dc:	a08430        	addx4	a8, a4, a3
    14df:	35c174        	ae_sraiq56	aeq3, aeq0, 5
    14e2:	067934        	ae_roundsq32asym	aeq1, aeq3
    14e5:	fbea7d0f1f 	{ ae_lq32f.i	aeq0, a15, 4; ae_addsq56s	aeq3, aeq1, aeq2 }
    14ea:	f87a7d4d1f 	{ ae_lq32f.i	aeq2, a13, 4; ae_addsq56s	aeq0, aeq3, aeq0 }
    14ef:	fae27d6c1f 	{ ae_lq32f.i	aeq3, a12, 4; ae_addsq56s	aeq2, aeq0, aeq2 }
    14f4:	062b04        	ae_addsq56s	aeq0, aeq2, aeq3
    14f7:	36c194        	ae_sllisq56s	aeq3, aeq0, 6
    14fa:	fe3c50985f 	{ add	a9, a8, a5; ae_roundsq32asym	aeq2, aeq3 }
    14ff:	62a854        	ae_sq32f.x	aeq2, a8, a5
    1502:	09b8           	l32i.n	a11, a9, 0
    1504:	f8690000ef 	{ movi	a14, 0; ae_mulrfq32sp24s.h	aeq0, aeq1, aep2 }
    1509:	53bbe0        	max	a11, a11, a14
    150c:	09b9           	s32i.n	a11, a9, 0
    150e:	624614        	ae_sq32f.iu	aeq0, a6, 4
    1511:	60df14        	ae_lq32f.iu	aeq3, a15, 4
    1514:	0ba7b7        	bge	a7, a11, 1523 <Pitch_by_Corel+0xc7>
    1517:	0824a6        	blti	a4, 2, 1523 <Pitch_by_Corel+0xc7>
    151a:	792c           	movi.n	a9, 39
    151c:	032947        	blt	a9, a4, 1523 <Pitch_by_Corel+0xc7>
    151f:	0b7d           	mov.n	a7, a11
    1521:	01b9           	s32i.n	a11, a1, 0
    1523:	fb6940144e 	{ addi	a4, a4, 1; ae_mulrfq32sp24s.h	aeq3, aeq3, aep2 }
    1528:	844d           	ae_sext16	a4, a4
    152a:	623f04        	ae_sq32f.i	aeq3, a15, 0
    152d:	609d14        	ae_lq32f.iu	aeq2, a13, 4
    1530:	fb680d64ae 	{ addi	a10, a4, -42; ae_mulrfq32sp24s.h	aeq2, aeq2, aep2 }
    1535:	1184f0        	slli	a8, a4, 1
    1538:	622d04        	ae_sq32f.i	aeq2, a13, 0
    153b:	601c14        	ae_lq32f.iu	aeq0, a12, 4
    153e:	f86815828f 	{ sub	a8, a2, a8; ae_mulrfq32sp24s.h	aeq0, aeq0, aep2 }
    1543:	50c882        	addi	a8, a8, 80

00001546 <Pitch_by_Corel+0xea>:
    1546:	fc24b98c0f 	{ ae_sq32f.i	aeq0, a12, 0; ae_zeroq56	aeq0 }
    154b:	f77a56        	bnez	a10, 14c6 <Pitch_by_Corel+0x6a>
    154e:	faef91        	l32r	a9, 10c (2ccccd <_end+0x2c022d>)
    1551:	604104        	ae_lq32f.i	aeq1, a1, 0
    1554:	01d382        	addmi	a8, a3, 0x100
    1557:	54c882        	addi	a8, a8, 84
    155a:	608804        	ae_lq32f.i	aeq2, a8, 0
    155d:	061a14        	ae_subsq56s	aeq0, aeq1, aeq2
    1560:	ff00e2099f 	{ ae_movpa24x2	aep0, a9, a9; ae_satq48s	aeq3, aeq0 }
    1565:	0882d4        	ae_mularfq32sp24s.h	aeq2, aeq3, aep0
    1568:	064a44        	ae_satq48s	aeq1, aeq2
    156b:	621804        	ae_sq32f.i	aeq1, a8, 0
    156e:	8188           	l32i.n	a8, a1, 32
    1570:	02d3f2        	addmi	a15, a3, 0x200
    1573:	5523b2        	l32i	a11, a3, 0x154
    1576:	7e28a2        	l32i	a10, a8, 0x1f8
    1579:	50cff2        	addi	a15, a15, 80
    157c:	0a1392        	l16ui	a9, a3, 20
    157f:	43aab0        	min	a10, a10, a11
    1582:	7e68a2        	s32i	a10, a8, 0x1f8
    1585:	0279f6        	bgeui	a9, 7, 158b <Pitch_by_Corel+0x12f>
    1588:	013746        	j	1a69 <Pitch_by_Corel+0x60d>
    158b:	11a9           	s32i.n	a10, a1, 4
    158d:	080c           	movi.n	a8, 0
    158f:	491c           	movi.n	a9, 20
    1591:	1f8976        	loop	a9, 15b4 <Pitch_by_Corel+0x158>
    1594:	a09830        	addx4	a9, a8, a3
    1597:	881b           	addi.n	a8, a8, 1
    1599:	995a           	add.n	a9, a9, a5
    159b:	888d           	ae_sext16	a8, a8
    159d:	2b2992        	l32i	a9, a9, 172
    15a0:	a0b830        	addx4	a11, a8, a3
    15a3:	881b           	addi.n	a8, a8, 1
    15a5:	bb5a           	add.n	a11, a11, a5
    15a7:	2b2bb2        	l32i	a11, a11, 172
    15aa:	4399a0        	min	a9, a9, a10
    15ad:	888d           	ae_sext16	a8, a8
    15af:	43ab90        	min	a10, a11, a9
    15b2:	11a9           	s32i.n	a10, a1, 4

000015b4 <Pitch_by_Corel+0x158>:
    15b4:	fab6c1        	l32r	a12, 8c (7fffffff <_end+0x7fff355f>)
    15b7:	05d3e2        	addmi	a14, a3, 0x500
    15ba:	fae191        	l32r	a9, 140 (6ccccd <_end+0x6c022d>)
    15bd:	60cf04        	ae_lq32f.i	aeq3, a15, 0
    15c0:	01d382        	addmi	a8, a3, 0x100
    15c3:	02d3a2        	addmi	a10, a3, 0x200
    15c6:	b14b           	addi.n	a11, a1, 4
    15c8:	600b04        	ae_lq32f.i	aeq0, a11, 0
    15cb:	f8caa2        	addi	a10, a10, -8
    15ce:	58c882        	addi	a8, a8, 88
    15d1:	f3f680        	wur.ae_cbegin0	a8
    15d4:	f3f7a0        	wur.ae_cend0	a10
    15d7:	06b814        	ae_subsq56s	aeq2, aeq3, aeq0
    15da:	fd80e2199f 	{ ae_movpa24x2	aep1, a9, a9; ae_satq48s	aeq1, aeq2 }
    15df:	081254        	ae_mularfq32sp24s.h	aeq0, aeq1, aep1
    15e2:	81b8           	l32i.n	a11, a1, 32
    15e4:	ff00c004df 	{ movi	a13, 4; ae_satq48s	aeq3, aeq0 }
    15e9:	623f04        	ae_sq32f.i	aeq3, a15, 0
    15ec:	812ba2        	l32i	a10, a11, 0x204
    15ef:	090c           	movi.n	a9, 0
    15f1:	609ee4        	ae_lq32f.iu	aeq2, a14, -8
    15f4:	fc24f82adf 	{ ae_sq32f.c	aeq2, a10, a13; nop }
    15f9:	816ba2        	s32i	a10, a11, 0x204
    15fc:	7e6bc2        	s32i	a12, a11, 0x1f8
    15ff:	0a5392        	s16i	a9, a3, 20

00001602 <Pitch_by_Corel+0x1a6>:
    1602:	600f04        	ae_lq32f.i	aeq0, a15, 0
    1605:	02d3b2        	addmi	a11, a3, 0x200
    1608:	facfc1        	l32r	a12, 144 (59999a <_end+0x58cefa>)
    160b:	398cc4        	ae_movpa24x2	aep0, a12, a12
    160e:	f800054bbe 	{ addi	a11, a11, 84; ae_mulfq32sp24s.h	aeq0, aeq0, aep0 }
    1613:	604b04        	ae_lq32f.i	aeq1, a11, 0
    1616:	098104        	ae_ltq56s	b0, aeq1, aeq0
    1619:	2179           	s32i.n	a7, a1, 8
    161b:	021076        	bt	b0, 1621 <Pitch_by_Corel+0x1c5>
    161e:	008f86        	j	1860 <Pitch_by_Corel+0x404>
    1621:	9423d2        	l32i	a13, a3, 0x250
    1624:	fac9e1        	l32r	a14, 148 (733333 <_end+0x726893>)
    1627:	398ee4        	ae_movpa24x2	aep0, a14, a14
    162a:	21d9           	s32i.n	a13, a1, 8

0000162c <Pitch_by_Corel+0x1d0>:
    162c:	60cb04        	ae_lq32f.i	aeq3, a11, 0
    162f:	a18b           	addi.n	a10, a1, 8
    1631:	600a04        	ae_lq32f.i	aeq0, a10, 0
    1634:	06b814        	ae_subsq56s	aeq2, aeq3, aeq0
    1637:	064a44        	ae_satq48s	aeq1, aeq2
    163a:	080264        	ae_mulafq32sp24s.h	aeq0, aeq1, aep0
    163d:	fac3f1        	l32r	a15, 14c (3fff <Voice_WB_TX_Prcs+0x5bf>)
    1640:	068844        	ae_satq48s	aeq2, aeq0
    1643:	06e834        	ae_roundsq32sym	aeq3, aeq2
    1646:	623b04        	ae_sq32f.i	aeq3, a11, 0
    1649:	952382        	l32i	a8, a3, 0x254
    164c:	faa0b1        	l32r	a11, cc (4000 <Voice_WB_TX_Prcs+0x5c0>)
    164f:	364b34        	ae_cvtq48a32s	aeq1, a11
    1652:	f97707819e 	{ addi	a9, a1, 120; ae_maxq56s	aeq1, aeq1, aeq2 }
    1657:	6319a4        	ae_sq56s.i	aeq1, a9, -48
    165a:	022f87        	blt	a15, a8, 1660 <Pitch_by_Corel+0x204>
    165d:	9563b2        	s32i	a11, a3, 0x254

00001660 <Pitch_by_Corel+0x204>:
    1660:	fa87a1        	l32r	a10, 7c (ca94 <p_ecnr_mem>)
    1663:	0aa8           	l32i.n	a10, a10, 0
    1665:	07bd           	mov.n	a11, a7
    1667:	faba81        	l32r	a8, 150 (fc4 <voiced_decision>)
    166a:	52daa2        	addmi	a10, a10, 0x5200
    166d:	b8caa2        	addi	a10, a10, -72
    1670:	0008e0        	callx8	a8
    1673:	fa82b1        	l32r	a11, 7c (ca94 <p_ecnr_mem>)
    1676:	080c           	movi.n	a8, 0
    1678:	0bb8           	l32i.n	a11, a11, 0
    167a:	0a0c           	movi.n	a10, 0
    167c:	a90c           	movi.n	a9, 10
    167e:	18dbb2        	addmi	a11, a11, 0x1800
    1681:	6ccbc2        	addi	a12, a11, 108
    1684:	91c9           	s32i.n	a12, a1, 36
    1686:	9a2bb2        	l32i	a11, a11, 0x268
    1689:	088976        	loop	a9, 1695 <Pitch_by_Corel+0x239>
    168c:	a098b0        	addx4	a9, a8, a11
    168f:	881b           	addi.n	a8, a8, 1
    1691:	09a9           	s32i.n	a10, a9, 0
    1693:	888d           	ae_sext16	a8, a8

00001695 <Pitch_by_Corel+0x239>:
    1695:	91a8           	l32i.n	a10, a1, 36
    1697:	7f2aa2        	l32i	a10, a10, 0x1fc
    169a:	080c           	movi.n	a8, 0
    169c:	a92c           	movi.n	a9, 42
    169e:	28caa2        	addi	a10, a10, 40
    16a1:	0c8976        	loop	a9, 16b1 <Pitch_by_Corel+0x255>
    16a4:	909830        	addx2	a9, a8, a3
    16a7:	881b           	addi.n	a8, a8, 1
    16a9:	fc1992        	l16ui	a9, a9, 0x1f8
    16ac:	888d           	ae_sext16	a8, a8
    16ae:	09ca94        	ae_s16ip	a9, a10, 2
    16b1:	e35a           	add.n	a14, a3, a5
    16b3:	91b8           	l32i.n	a11, a1, 36
    16b5:	040c           	movi.n	a4, 0
    16b7:	1023c2        	l32i	a12, a3, 64
    16ba:	834b           	addi.n	a8, a3, 4
    16bc:	a189           	s32i.n	a8, a1, 40
    16be:	63c9           	s32i.n	a12, a3, 24
    16c0:	e149           	s32i.n	a4, a1, 56
    16c2:	7f2bb2        	l32i	a11, a11, 0x1fc
    16c5:	240c           	movi.n	a4, 2
    16c7:	04afc2        	movi	a12, -252
    16ca:	2ccbb2        	addi	a11, a11, 44
    16cd:	80bbc0        	add	a11, a11, a12
    16d0:	26a0c2        	movi	a12, 38

000016d3 <Pitch_by_Corel+0x277>:
    16d3:	12ac16        	beqz	a12, 1801 <Pitch_by_Corel+0x3a5>
    16d6:	127c96        	bltz	a12, 1801 <Pitch_by_Corel+0x3a5>
    16d9:	17ac76        	loopgtz	a12, 16f4 <Pitch_by_Corel+0x298>
    16dc:	0301c0        	rsr.lend	a12
    16df:	1300c0        	wsr.lbeg	a12
    16e2:	0dccc2        	addi	a12, a12, 13
    16e5:	01dcc2        	addmi	a12, a12, 0x100
    16e8:	1301c0        	wsr.lend	a12
    16eb:	002000        	isync
    16ee:	0302c0        	rsr.lcount	a12
    16f1:	01ccc2        	addi	a12, a12, 1
    16f4:	090c           	movi.n	a9, 0
    16f6:	402304        	ae_lp16f.i	aep2, a3, 0
    16f9:	de4b           	addi.n	a13, a14, 4
    16fb:	4e28           	l32i.n	a2, a14, 16
    16fd:	3ea8           	l32i.n	a10, a14, 12
    16ff:	1e78           	l32i.n	a7, a14, 4
    1701:	2e68           	l32i.n	a6, a14, 8
    1703:	0e88           	l32i.n	a8, a14, 0
    1705:	90f430        	addx2	a15, a4, a3
    1708:	fc9fc2        	l16si	a12, a15, 0x1f8
    170b:	539890        	max	a9, a8, a9
    170e:	539790        	max	a9, a7, a9
    1711:	539690        	max	a9, a6, a9
    1714:	539a90        	max	a9, a10, a9
    1717:	539290        	max	a9, a2, a9
    171a:	a0a430        	addx4	a10, a4, a3
    171d:	78c1e2        	addi	a14, a1, 120
    1720:	614ea4        	ae_lq56.i	aeq1, a14, -48
    1723:	d46bfb9a5f 	{ ae_lq32f.x	aeq0, a10, a5; ae_mulfq32sp16u.h	aeq1, aeq1, aep2 }
    1728:	3580f4        	ae_sraiq56	aeq2, aeq0, 3
    172b:	d65453eddf 	{ or	a14, a13, a13; ae_ltq56s	b1, aeq1, aeq2 }
    1730:	da5a           	add.n	a13, a10, a5
    1732:	0a0c           	movi.n	a10, 0
    1734:	021176        	bt	b1, 173a <Pitch_by_Corel+0x2de>
    1737:	002f46        	j	17f8 <Pitch_by_Corel+0x39c>
    173a:	0d88           	l32i.n	a8, a13, 0
    173c:	c08890        	sub	a8, a8, a9
    173f:	0ab856        	bnez	a8, 17ee <Pitch_by_Corel+0x392>
    1742:	a1d8           	l32i.n	a13, a1, 40
    1744:	7e9b92        	l16si	a9, a11, 252
    1747:	608104        	ae_lq32f.i	aeq2, a1, 0
    174a:	404d04        	ae_lp16f.i	aep4, a13, 0
    174d:	043916        	beqz	a9, 1794 <Pitch_by_Corel+0x338>

00001750 <Pitch_by_Corel+0x2f4>:
    1750:	03c2a4        	ae_mulfq32sp16u.h	aeq2, aeq2, aep4
    1753:	fa80a1        	l32r	a10, 154 (70a3d7 <_end+0x6fd937>)
    1756:	03caa4        	ae_mulfq32sp16u.h	aeq3, aeq2, aep4
    1759:	39baa4        	ae_movpa24x2	aep3, a10, a10
    175c:	083ce4        	ae_mulfq32sp24s.h	aeq1, aeq3, aep3
    175f:	fa7e81        	l32r	a8, 158 (39999a <_end+0x38cefa>)
    1762:	d6448fbcde 	{ addi	a13, a12, -5; ae_ltq56s	b2, aeq1, aeq0 }
    1767:	39e884        	ae_movpa24x2	aep6, a8, a8
    176a:	d6c0f091ae 	{ l32i	a10, a1, 36; ae_ltq56s	b3, aeq2, aeq0 }
    176f:	620276        	bf	b2, 17d5 <Pitch_by_Corel+0x379>
    1772:	e188           	l32i.n	a8, a1, 56
    1774:	7f2aa2        	l32i	a10, a10, 0x1fc
    1777:	981b           	addi.n	a9, a8, 1
    1779:	90a8a0        	addx2	a10, a8, a10
    177c:	6a4d           	ae_s16i.n	a4, a10, 0
    177e:	998d           	ae_zext16	a8, a9
    1780:	d6c514e18f 	{ s32i.n	a8, a1, 56; ae_ltq56s	b4, aeq3, aeq0 }
    1785:	220376        	bf	b3, 17ab <Pitch_by_Corel+0x34f>
    1788:	cc2b           	addi.n	a12, a12, 2
    178a:	8ccd           	ae_sext16	a12, a12

0000178c <Pitch_by_Corel+0x330>:
    178c:	4d1c           	movi.n	a13, 20
    178e:	43ccd0        	min	a12, a12, a13
    1791:	0014c6        	j	17e8 <Pitch_by_Corel+0x38c>

00001794 <Pitch_by_Corel+0x338>:
    1794:	7d9b92        	l16si	a9, a11, 250
    1797:	0519a6        	blti	a9, 1, 17a0 <Pitch_by_Corel+0x344>
    179a:	09cd           	mov.n	a12, a9
    179c:	ffec06        	j	1750 <Pitch_by_Corel+0x2f4>

0000179f <Pitch_by_Corel+0x343>:
	...

000017a0 <Pitch_by_Corel+0x344>:
    17a0:	7f9b92        	l16si	a9, a11, 254
    17a3:	a919a6        	blti	a9, 1, 1750 <Pitch_by_Corel+0x2f4>
    17a6:	09cd           	mov.n	a12, a9
    17a8:	ffe906        	j	1750 <Pitch_by_Corel+0x2f4>

000017ab <Pitch_by_Corel+0x34f>:
    17ab:	060476        	bf	b4, 17b5 <Pitch_by_Corel+0x359>
    17ae:	cc1b           	addi.n	a12, a12, 1
    17b0:	8ccd           	ae_sext16	a12, a12
    17b2:	fff586        	j	178c <Pitch_by_Corel+0x330>

000017b5 <Pitch_by_Corel+0x359>:
    17b5:	0d0c           	movi.n	a13, 0
    17b7:	fa64a1        	l32r	a10, 148 (733333 <_end+0x726893>)
    17ba:	39daa4        	ae_movpa24x2	aep5, a10, a10
    17bd:	fa154fec9e 	{ addi	a9, a12, -2; ae_mulfq32sp24s.h	aeq1, aeq3, aep5 }
    17c2:	8c8d           	ae_sext16	a8, a12
    17c4:	d64953c88f 	{ or	a12, a8, a8; ae_ltq56s	b5, aeq0, aeq1 }
    17c9:	53dd90        	max	a13, a13, a9
    17cc:	8ddd           	ae_sext16	a13, a13
    17ce:	d3cd50        	movt	a12, a13, b5
    17d1:	ffedc6        	j	178c <Pitch_by_Corel+0x330>

000017d4 <Pitch_by_Corel+0x378>:
	...

000017d5 <Pitch_by_Corel+0x379>:
    17d5:	608104        	ae_lq32f.i	aeq2, a1, 0
    17d8:	08e4a4        	ae_mulfq32sp24s.h	aeq2, aeq2, aep6
    17db:	d6c18000cf 	{ movi	a12, 0; ae_ltq56s	b6, aeq2, aeq0 }
    17e0:	53ccd0        	max	a12, a12, a13
    17e3:	0d0c           	movi.n	a13, 0
    17e5:	c3cd60        	movf	a12, a13, b6
    17e8:	fc5fc2        	s16i	a12, a15, 0x1f8
    17eb:	000306        	j	17fb <Pitch_by_Corel+0x39f>

000017ee <Pitch_by_Corel+0x392>:
    17ee:	090c           	movi.n	a9, 0
    17f0:	fc5f92        	s16i	a9, a15, 0x1f8
    17f3:	000106        	j	17fb <Pitch_by_Corel+0x39f>

000017f6 <Pitch_by_Corel+0x39a>:
	...

000017f8 <Pitch_by_Corel+0x39c>:
    17f8:	fc5fa2        	s16i	a10, a15, 0x1f8

000017fb <Pitch_by_Corel+0x39f>:
    17fb:	bb2b           	addi.n	a11, a11, 2
    17fd:	441b           	addi.n	a4, a4, 1
    17ff:	844d           	ae_sext16	a4, a4

00001801 <Pitch_by_Corel+0x3a5>:
    1801:	e188           	l32i.n	a8, a1, 56
    1803:	14c192        	addi	a9, a1, 20
    1806:	fa55b1        	l32r	a11, 15c (5d70a4 <_end+0x5ca604>)
    1809:	401304        	ae_lp16f.i	aep1, a3, 0
    180c:	78c1c2        	addi	a12, a1, 120
    180f:	614ca4        	ae_lq56.i	aeq1, a12, -48
    1812:	d467c101ae 	{ addi	a10, a1, 16; ae_mulfq32sp16u.h	aeq1, aeq1, aep1 }
    1817:	400314        	ae_lp16f.i	aep0, a3, 2
    181a:	d463fd010f 	{ ae_lq32f.i	aeq0, a1, 0; ae_mulfq32sp16u.h	aeq1, aeq1, aep0 }
    181f:	39fbb4        	ae_movpa24x2	aep7, a11, a11
    1822:	f97d3b010f 	{ ae_sraiq56	aeq0, aeq0, 4; ae_mulrfq32sp24s.h	aeq2, aeq1, aep7 }
    1827:	621a04        	ae_sq32f.i	aeq1, a10, 0
    182a:	622904        	ae_sq32f.i	aeq2, a9, 0
    182d:	240816        	beqz	a8, 1a71 <Pitch_by_Corel+0x615>
    1830:	098574        	ae_leq56s	b7, aeq1, aeq0
    1833:	021776        	bt	b7, 1839 <Pitch_by_Corel+0x3dd>
    1836:	005446        	j	198b <Pitch_by_Corel+0x52f>

00001839 <Pitch_by_Corel+0x3dd>:
    1839:	600104        	ae_lq32f.i	aeq0, a1, 0
    183c:	9198           	l32i.n	a9, a1, 36
    183e:	e128           	l32i.n	a2, a1, 56
    1840:	fa48d1        	l32r	a13, 160 (14000 <_end+0x7560>)
    1843:	7f2992        	l32i	a9, a9, 0x1fc
    1846:	0212e6        	bgei	a2, 1, 184c <Pitch_by_Corel+0x3f0>
    1849:	00a406        	j	1add <Pitch_by_Corel+0x681>
    184c:	fa3ec1        	l32r	a12, 144 (59999a <_end+0x58cefa>)
    184f:	39acc4        	ae_movpa24x2	aep2, a12, a12
    1852:	f90800004f 	{ movi	a4, 0; ae_mulfq32sp24s.h	aeq2, aeq0, aep2 }
    1857:	78c1b2        	addi	a11, a1, 120
    185a:	632b94        	ae_sq56s.i	aeq2, a11, -56
    185d:	000b06        	j	188d <Pitch_by_Corel+0x431>

00001860 <Pitch_by_Corel+0x404>:
    1860:	60cf04        	ae_lq32f.i	aeq3, a15, 0
    1863:	fa3cd1        	l32r	a13, 154 (70a3d7 <_end+0x6fd937>)
    1866:	39bdd4        	ae_movpa24x2	aep3, a13, a13
    1869:	08bce4        	ae_mulfq32sp24s.h	aeq3, aeq3, aep3
    186c:	09b184        	ae_ltq56s	b8, aeq1, aeq3
    186f:	fa3dc1        	l32r	a12, 164 (7e147b <_end+0x7d49db>)
    1872:	021876        	bt	b8, 1878 <Pitch_by_Corel+0x41c>
    1875:	006cc6        	j	1a2c <Pitch_by_Corel+0x5d0>
    1878:	398cc4        	ae_movpa24x2	aep0, a12, a12
    187b:	9423e2        	l32i	a14, a3, 0x250
    187e:	21e9           	s32i.n	a14, a1, 8
    1880:	ff6a06        	j	162c <Pitch_by_Corel+0x1d0>

00001883 <Pitch_by_Corel+0x427>:
    1883:	441b           	addi.n	a4, a4, 1
    1885:	844d           	ae_sext16	a4, a4
    1887:	c0f420        	sub	a15, a4, a2
    188a:	0cbf16        	beqz	a15, 1959 <Pitch_by_Corel+0x4fd>

0000188d <Pitch_by_Corel+0x431>:
    188d:	90b490        	addx2	a11, a4, a9
    1890:	2bbd           	ae_l16si.n	a11, a11, 0
    1892:	1164f0        	slli	a6, a4, 1
    1895:	78c1e2        	addi	a14, a1, 120
    1898:	907b30        	addx2	a7, a11, a3
    189b:	fc1782        	l16ui	a8, a7, 0x1f8
    189e:	610e94        	ae_lq56.i	aeq0, a14, -56
    18a1:	a0cb30        	addx4	a12, a11, a3
    18a4:	db68b6        	bltui	a8, 6, 1883 <Pitch_by_Corel+0x427>
    18a7:	b1c9           	s32i.n	a12, a1, 44
    18a9:	607c54        	ae_lq32f.xu	aeq1, a12, a5
    18ac:	099094        	ae_ltq56s	b9, aeq0, aeq1
    18af:	c1c9           	s32i.n	a12, a1, 48
    18b1:	ce0976        	bf	b9, 1883 <Pitch_by_Corel+0x427>
    18b4:	0cad           	mov.n	a10, a12
    18b6:	fa1281        	l32r	a8, 100 (22f8 <Xfrac_num_pd_td32>)
    18b9:	21b9           	s32i.n	a11, a1, 8
    18bb:	9c0c           	movi.n	a12, 9
    18bd:	0008e0        	callx8	a8
    18c0:	63c8           	l32i.n	a12, a3, 24
    18c2:	61a9           	s32i.n	a10, a1, 24
    18c4:	fa27d1        	l32r	a13, 160 (14000 <_end+0x7560>)
    18c7:	07dc16        	beqz	a12, 1948 <Pitch_by_Corel+0x4ec>
    18ca:	c09ca0        	sub	a9, a12, a10
    18cd:	77ad97        	bge	a13, a9, 1948 <Pitch_by_Corel+0x4ec>
    18d0:	81c8           	l32i.n	a12, a1, 32
    18d2:	fe1cc2        	l16ui	a12, a12, 0x1fc
    18d5:	90ec30        	addx2	a14, a12, a3
    18d8:	fb1e82        	l16ui	a8, a14, 0x1f6
    18db:	af0c           	movi.n	a15, 10
    18dd:	0cbd           	mov.n	a11, a12
    18df:	08bf87        	bgeu	a15, a8, 18eb <Pitch_by_Corel+0x48f>
    18e2:	bc0b           	addi.n	a11, a12, -1
    18e4:	9bbd           	ae_zext16	a11, a11
    18e6:	0002c6        	j	18f5 <Pitch_by_Corel+0x499>

000018e9 <Pitch_by_Corel+0x48d>:
	...

000018eb <Pitch_by_Corel+0x48f>:
    18eb:	fd1e82        	l16ui	a8, a14, 0x1fa
    18ee:	03bf87        	bgeu	a15, a8, 18f5 <Pitch_by_Corel+0x499>
    18f1:	bc1b           	addi.n	a11, a12, 1
    18f3:	9bbd           	ae_zext16	a11, a11
    18f5:	90eb30        	addx2	a14, a11, a3
    18f8:	fc1ee2        	l16ui	a14, a14, 0x1f8
    18fb:	ac0c           	movi.n	a12, 10
    18fd:	a0bb30        	addx4	a11, a11, a3
    1900:	44bce7        	bgeu	a12, a14, 1948 <Pitch_by_Corel+0x4ec>
    1903:	b1c8           	l32i.n	a12, a1, 44
    1905:	2b2bf2        	l32i	a15, a11, 172
    1908:	2b2cc2        	l32i	a12, a12, 172
    190b:	4188           	l32i.n	a8, a1, 16
    190d:	11acf7        	bge	a12, a15, 1922 <Pitch_by_Corel+0x4c6>

00001910 <Pitch_by_Corel+0x4b4>:
    1910:	f9db91        	l32r	a9, 7c (ca94 <p_ecnr_mem>)
    1913:	0998           	l32i.n	a9, a9, 0
    1915:	18d992        	addmi	a9, a9, 0x1800
    1918:	6cc992        	addi	a9, a9, 108
    191b:	7f2992        	l32i	a9, a9, 0x1fc
    191e:	ffd846        	j	1883 <Pitch_by_Corel+0x427>

00001921 <Pitch_by_Corel+0x4c5>:
	...

00001922 <Pitch_by_Corel+0x4c6>:
    1922:	21f5c0        	srai	a15, a12, 5
    1925:	e72f87        	blt	a15, a8, 1910 <Pitch_by_Corel+0x4b4>
    1928:	fc1792        	l16ui	a9, a7, 0x1f8
    192b:	196966        	bnei	a9, 6, 1948 <Pitch_by_Corel+0x4ec>
    192e:	16aeb6        	bltui	a14, 12, 1948 <Pitch_by_Corel+0x4ec>
    1931:	c1e8           	l32i.n	a14, a1, 48
    1933:	fa0dc1        	l32r	a12, 168 (666666 <_end+0x659bc6>)
    1936:	39ccc4        	ae_movpa24x2	aep4, a12, a12
    1939:	608e04        	ae_lq32f.i	aeq2, a14, 0
    193c:	08c494        	ae_mulrfq32sp24s.h	aeq2, aeq2, aep4
    193f:	60eb54        	ae_lq32f.x	aeq3, a11, a5
    1942:	09b2a4        	ae_ltq56s	b10, aeq2, aeq3
    1945:	c71a76        	bt	b10, 1910 <Pitch_by_Corel+0x4b4>

00001948 <Pitch_by_Corel+0x4ec>:
    1948:	f9cd91        	l32r	a9, 7c (ca94 <p_ecnr_mem>)
    194b:	0998           	l32i.n	a9, a9, 0
    194d:	18d992        	addmi	a9, a9, 0x1800
    1950:	6cc992        	addi	a9, a9, 108
    1953:	7f2992        	l32i	a9, a9, 0x1fc
    1956:	000086        	j	195c <Pitch_by_Corel+0x500>

00001959 <Pitch_by_Corel+0x4fd>:
    1959:	1164f0        	slli	a6, a4, 1

0000195c <Pitch_by_Corel+0x500>:
    195c:	b69a           	add.n	a11, a6, a9
    195e:	2bbd           	ae_l16si.n	a11, a11, 0
    1960:	90cb30        	addx2	a12, a11, a3
    1963:	fc1cc2        	l16ui	a12, a12, 0x1f8
    1966:	027cf6        	bgeui	a12, 7, 196c <Pitch_by_Corel+0x510>
    1969:	0038c6        	j	1a50 <Pitch_by_Corel+0x5f4>

0000196c <Pitch_by_Corel+0x510>:
    196c:	0913e2        	l16ui	a14, a3, 18
    196f:	63c8           	l32i.n	a12, a3, 24
    1971:	9bbd           	ae_zext16	a11, a11
    1973:	0e51b2        	s16i	a11, a1, 28
    1976:	c0fca0        	sub	a15, a12, a10
    1979:	60f1f0        	abs	a15, a15
    197c:	02adf7        	bge	a13, a15, 1982 <Pitch_by_Corel+0x526>
    197f:	004346        	j	1a90 <Pitch_by_Corel+0x634>
    1982:	8e1b           	addi.n	a8, a14, 1
    1984:	095382        	s16i	a8, a3, 18
    1987:	000886        	j	19ad <Pitch_by_Corel+0x551>

0000198a <Pitch_by_Corel+0x52e>:
	...

0000198b <Pitch_by_Corel+0x52f>:
    198b:	0986b4        	ae_leq56s	b11, aeq2, aeq0
    198e:	091392        	l16ui	a9, a3, 18
    1991:	050b76        	bf	b11, 199a <Pitch_by_Corel+0x53e>
    1994:	0229b6        	bltui	a9, 2, 199a <Pitch_by_Corel+0x53e>
    1997:	ffa786        	j	1839 <Pitch_by_Corel+0x3dd>
    199a:	59cc           	bnez.n	a9, 19a3 <Pitch_by_Corel+0x547>
    199c:	81a8           	l32i.n	a10, a1, 32
    199e:	090c           	movi.n	a9, 0
    19a0:	fe5a92        	s16i	a9, a10, 0x1fc

000019a3 <Pitch_by_Corel+0x547>:
    19a3:	0b0c           	movi.n	a11, 0
    19a5:	0953b2        	s16i	a11, a3, 18
    19a8:	0b0c           	movi.n	a11, 0
    19aa:	0e51b2        	s16i	a11, a1, 28

000019ad <Pitch_by_Corel+0x551>:
    19ad:	81c8           	l32i.n	a12, a1, 32
    19af:	fe1cc2        	l16ui	a12, a12, 0x1fc
    19b2:	052c56        	bnez	a12, 1a08 <Pitch_by_Corel+0x5ac>
    19b5:	0c0c           	movi.n	a12, 0
    19b7:	0b0c           	movi.n	a11, 0
    19b9:	040c           	movi.n	a4, 0
    19bb:	bd2c           	movi.n	a13, 43
    19bd:	0e0c           	movi.n	a14, 0
    19bf:	63e9           	s32i.n	a14, a3, 24
    19c1:	10ad76        	loopgtz	a13, 19d5 <Pitch_by_Corel+0x579>
    19c4:	90d430        	addx2	a13, a4, a3
    19c7:	fc1dd2        	l16ui	a13, a13, 0x1f8
    19ca:	03bcd7        	bgeu	a12, a13, 19d1 <Pitch_by_Corel+0x575>
    19cd:	0dcd           	mov.n	a12, a13
    19cf:	04bd           	mov.n	a11, a4

000019d1 <Pitch_by_Corel+0x575>:
    19d1:	441b           	addi.n	a4, a4, 1
    19d3:	844d           	ae_sext16	a4, a4

000019d5 <Pitch_by_Corel+0x579>:
    19d5:	244cb6        	bltui	a12, 4, 19fd <Pitch_by_Corel+0x5a1>

000019d8 <Pitch_by_Corel+0x57c>:
    19d8:	a0ab30        	addx4	a10, a11, a3
    19db:	10c1c2        	addi	a12, a1, 16
    19de:	f9e3d1        	l32r	a13, 16c (ccccd <_end+0xc022d>)
    19e1:	39ddd4        	ae_movpa24x2	aep5, a13, a13
    19e4:	604c04        	ae_lq32f.i	aeq1, a12, 0
    19e7:	085a54        	ae_mularfq32sp24s.h	aeq1, aeq1, aep5
    19ea:	603a54        	ae_lq32f.xu	aeq0, a10, a5
    19ed:	ff04fb010f 	{ ae_sraiq56	aeq0, aeq0, 4; ae_satq48s	aeq3, aeq1 }
    19f2:	0983c4        	ae_ltq56s	b12, aeq3, aeq0
    19f5:	f03d           	nop.n
    19f7:	020c76        	bf	b12, 19fd <Pitch_by_Corel+0x5a1>
    19fa:	003486        	j	1ad0 <Pitch_by_Corel+0x674>
    19fd:	0e0c           	movi.n	a14, 0
    19ff:	73e9           	s32i.n	a14, a3, 28

00001a01 <Pitch_by_Corel+0x5a5>:
    1a01:	0e11b2        	l16ui	a11, a1, 28
    1a04:	000106        	j	1a0c <Pitch_by_Corel+0x5b0>

00001a07 <Pitch_by_Corel+0x5ab>:
	...

00001a08 <Pitch_by_Corel+0x5ac>:
    1a08:	0f0c           	movi.n	a15, 0
    1a0a:	73f9           	s32i.n	a15, a3, 28

00001a0c <Pitch_by_Corel+0x5b0>:
    1a0c:	8188           	l32i.n	a8, a1, 32
    1a0e:	fe58b2        	s16i	a11, a8, 0x1fc
    1a11:	0b9c           	beqz.n	a11, 1a25 <Pitch_by_Corel+0x5c9>
    1a13:	9c0c           	movi.n	a12, 9
    1a15:	f9ba81        	l32r	a8, 100 (22f8 <Xfrac_num_pd_td32>)
    1a18:	a0ab30        	addx4	a10, a11, a3
    1a1b:	aa5a           	add.n	a10, a10, a5
    1a1d:	0008e0        	callx8	a8
    1a20:	1063a2        	s32i	a10, a3, 64
    1a23:	f01d           	retw.n

00001a25 <Pitch_by_Corel+0x5c9>:
    1a25:	0b0c           	movi.n	a11, 0
    1a27:	1063b2        	s32i	a11, a3, 64
    1a2a:	f01d           	retw.n

00001a2c <Pitch_by_Corel+0x5d0>:
    1a2c:	60cf04        	ae_lq32f.i	aeq3, a15, 0
    1a2f:	f9d0e1        	l32r	a14, 170 (100000 <_end+0xf3560>)
    1a32:	39eee4        	ae_movpa24x2	aep6, a14, a14
    1a35:	08ead4        	ae_mularfq32sp24s.h	aeq3, aeq3, aep6
    1a38:	fe84c0c1de 	{ addi	a13, a1, 12; ae_satq48s	aeq2, aeq3 }
    1a3d:	622d04        	ae_sq32f.i	aeq2, a13, 0
    1a40:	31d8           	l32i.n	a13, a1, 12
    1a42:	44ad77        	bge	a13, a7, 1a8a <Pitch_by_Corel+0x62e>
    1a45:	21d9           	s32i.n	a13, a1, 8
    1a47:	f9cbf1        	l32r	a15, 174 (7fbe77 <_end+0x7ef3d7>)
    1a4a:	398ff4        	ae_movpa24x2	aep0, a15, a15
    1a4d:	fef6c6        	j	162c <Pitch_by_Corel+0x1d0>

00001a50 <Pitch_by_Corel+0x5f4>:
    1a50:	091382        	l16ui	a8, a3, 18
    1a53:	58cc           	bnez.n	a8, 1a5c <Pitch_by_Corel+0x600>
    1a55:	81a8           	l32i.n	a10, a1, 32
    1a57:	090c           	movi.n	a9, 0
    1a59:	fe5a92        	s16i	a9, a10, 0x1fc

00001a5c <Pitch_by_Corel+0x600>:
    1a5c:	0b0c           	movi.n	a11, 0
    1a5e:	0953b2        	s16i	a11, a3, 18
    1a61:	0b0c           	movi.n	a11, 0
    1a63:	0e51b2        	s16i	a11, a1, 28
    1a66:	ffd0c6        	j	19ad <Pitch_by_Corel+0x551>

00001a69 <Pitch_by_Corel+0x60d>:
    1a69:	c91b           	addi.n	a12, a9, 1
    1a6b:	0a53c2        	s16i	a12, a3, 20
    1a6e:	fee406        	j	1602 <Pitch_by_Corel+0x1a6>

00001a71 <Pitch_by_Corel+0x615>:
    1a71:	0913d2        	l16ui	a13, a3, 18
    1a74:	5dcc           	bnez.n	a13, 1a7d <Pitch_by_Corel+0x621>
    1a76:	81f8           	l32i.n	a15, a1, 32
    1a78:	0e0c           	movi.n	a14, 0
    1a7a:	fe5fe2        	s16i	a14, a15, 0x1fc

00001a7d <Pitch_by_Corel+0x621>:
    1a7d:	0b0c           	movi.n	a11, 0
    1a7f:	080c           	movi.n	a8, 0
    1a81:	095382        	s16i	a8, a3, 18
    1a84:	0e51b2        	s16i	a11, a1, 28
    1a87:	ffc886        	j	19ad <Pitch_by_Corel+0x551>

00001a8a <Pitch_by_Corel+0x62e>:
    1a8a:	398cc4        	ae_movpa24x2	aep0, a12, a12
    1a8d:	fee6c6        	j	162c <Pitch_by_Corel+0x1d0>

00001a90 <Pitch_by_Corel+0x634>:
    1a90:	2f3eb6        	bltui	a14, 3, 1ac3 <Pitch_by_Corel+0x667>
    1a93:	4191a0        	srli	a9, a10, 1
    1a96:	c09c90        	sub	a9, a12, a9
    1a99:	609190        	abs	a9, a9
    1a9c:	232d97        	blt	a13, a9, 1ac3 <Pitch_by_Corel+0x667>
    1a9f:	18c1f2        	addi	a15, a1, 24
    1aa2:	600f04        	ae_lq32f.i	aeq0, a15, 0
    1aa5:	350074        	ae_sraiq56	aeq0, aeq0, 1
    1aa8:	fbe3c1c1de 	{ addi	a13, a1, 28; ae_roundsp16q48sym	aep7, aeq0 }
    1aad:	427d04        	ae_sp16f.l.i	aep7, a13, 0
    1ab0:	0e11b2        	l16ui	a11, a1, 28
    1ab3:	ce1b           	addi.n	a12, a14, 1
    1ab5:	0953c2        	s16i	a12, a3, 18
    1ab8:	f7cbb2        	addi	a11, a11, -9
    1abb:	9bbd           	ae_zext16	a11, a11
    1abd:	0e51b2        	s16i	a11, a1, 28
    1ac0:	ffba46        	j	19ad <Pitch_by_Corel+0x551>

00001ac3 <Pitch_by_Corel+0x667>:
    1ac3:	8198           	l32i.n	a9, a1, 32
    1ac5:	080c           	movi.n	a8, 0
    1ac7:	fe5982        	s16i	a8, a9, 0x1fc
    1aca:	095382        	s16i	a8, a3, 18
    1acd:	ffb706        	j	19ad <Pitch_by_Corel+0x551>

00001ad0 <Pitch_by_Corel+0x674>:
    1ad0:	f98c81        	l32r	a8, 100 (22f8 <Xfrac_num_pd_td32>)
    1ad3:	9c0c           	movi.n	a12, 9
    1ad5:	0008e0        	callx8	a8
    1ad8:	73a9           	s32i.n	a10, a3, 28
    1ada:	ffc8c6        	j	1a01 <Pitch_by_Corel+0x5a5>

00001add <Pitch_by_Corel+0x681>:
    1add:	29bd           	ae_l16si.n	a11, a9, 0
    1adf:	90ab30        	addx2	a10, a11, a3
    1ae2:	fc1aa2        	l16ui	a10, a10, 0x1f8
    1ae5:	027af6        	bgeui	a10, 7, 1aeb <Pitch_by_Corel+0x68f>
    1ae8:	ffd906        	j	1a50 <Pitch_by_Corel+0x5f4>
    1aeb:	ff9f46        	j	196c <Pitch_by_Corel+0x510>

00001aee <Pitch_by_Corel+0x692>:
	...

00001af0 <PD_TD_prcs>:
    1af0:	004136        	entry	a1, 32
    1af3:	f96231        	l32r	a3, 7c (ca94 <p_ecnr_mem>)
    1af6:	f9a041        	l32r	a4, 178 (51fc <cali_power+0x1c0>)
    1af9:	03b8           	l32i.n	a11, a3, 0
    1afb:	2c3c           	movi.n	a12, 50
    1afd:	f96981        	l32r	a8, a4 (9de0 <xt_memcpy>)
    1b00:	1adb22        	addmi	a2, a11, 0x1a00
    1b03:	1b2222        	l32i	a2, a2, 108
    1b06:	52dbb2        	addmi	a11, a11, 0x5200
    1b09:	fccbb2        	addi	a11, a11, -4
    1b0c:	9cc222        	addi	a2, a2, -100
    1b0f:	20a220        	or	a10, a2, a2
    1b12:	0008e0        	callx8	a8
    1b15:	f99951        	l32r	a5, 17c (51b8 <cali_power+0x17c>)
    1b18:	03b8           	l32i.n	a11, a3, 0
    1b1a:	02ad           	mov.n	a10, a2
    1b1c:	f99981        	l32r	a8, 180 (145c <Pitch_by_Corel>)
    1b1f:	52dbb2        	addmi	a11, a11, 0x5200
    1b22:	b8cbb2        	addi	a11, a11, -72
    1b25:	0008e0        	callx8	a8
    1b28:	03b8           	l32i.n	a11, a3, 0
    1b2a:	f99581        	l32r	a8, 180 (145c <Pitch_by_Corel>)
    1b2d:	3cc2a2        	addi	a10, a2, 60
    1b30:	bb5a           	add.n	a11, a11, a5
    1b32:	0008e0        	callx8	a8
    1b35:	78c2b2        	addi	a11, a2, 120
    1b38:	03a8           	l32i.n	a10, a3, 0
    1b3a:	f95a81        	l32r	a8, a4 (9de0 <xt_memcpy>)
    1b3d:	2c3c           	movi.n	a12, 50
    1b3f:	aa4a           	add.n	a10, a10, a4
    1b41:	0008e0        	callx8	a8
    1b44:	f01d           	retw.n

00001b46 <PD_TD_prcs+0x56>:
	...

00001b48 <pitch_by_harmonic>:
    1b48:	00c136        	entry	a1, 96
    1b4b:	f98e61        	l32r	a6, 184 (aaaab <_end+0x9e00b>)
    1b4e:	024d           	mov.n	a4, a2
    1b50:	f94bd1        	l32r	a13, 7c (ca94 <p_ecnr_mem>)
    1b53:	0258           	l32i.n	a5, a2, 0
    1b55:	0e0c           	movi.n	a14, 0
    1b57:	0dd8           	l32i.n	a13, a13, 0
    1b59:	1452e2        	s16i	a14, a2, 40
    1b5c:	b1d9           	s32i.n	a13, a1, 44
    1b5e:	52dd72        	addmi	a7, a13, 0x5200
    1b61:	50ddd2        	addmi	a13, a13, 0x5000
    1b64:	742dc2        	l32i	a12, a13, 0x1d0
    1b67:	b8c772        	addi	a7, a7, -72
    1b6a:	d4cd22        	addi	a2, a13, -44
    1b6d:	06bc16        	beqz	a12, 1bdc <pitch_by_harmonic+0x94>
    1b70:	f949b1        	l32r	a11, 94 (80000000 <_end+0x7fff3560>)
    1b73:	d5d2c0        	extui	a13, a12, 18, 14
    1b76:	11ac20        	slli	a10, a12, 14
    1b79:	f98381        	l32r	a8, 188 (9eb0 <__udivdi3>)
    1b7c:	0acd           	mov.n	a12, a10
    1b7e:	00a0a2        	movi	a10, 0
    1b81:	0008e0        	callx8	a8
    1b84:	01a9           	s32i.n	a10, a1, 0
    1b86:	02d292        	addmi	a9, a2, 0x200
    1b89:	8322b2        	l32i	a11, a2, 0x20c
    1b8c:	5c0c           	movi.n	a12, 5
    1b8e:	0859c2        	s16i	a12, a9, 16
    1b91:	021be6        	bgei	a11, 1, 1b97 <pitch_by_harmonic+0x4f>
    1b94:	015f46        	j	2115 <pitch_by_harmonic+0x5cd>
    1b97:	f97de1        	l32r	a14, 18c (51e0 <cali_power+0x1a4>)
    1b9a:	b1d8           	l32i.n	a13, a1, 44
    1b9c:	398664        	ae_movpa24x2	aep0, a6, a6
    1b9f:	60ade4        	ae_lq32f.x	aeq2, a13, a14
    1ba2:	fa003d210f 	{ ae_lq32f.i	aeq1, a1, 0; ae_mulfq32sp24s.h	aeq0, aeq2, aep0 }
    1ba7:	06da14        	ae_subsq56s	aeq3, aeq1, aeq2
    1baa:	068b44        	ae_satq48s	aeq2, aeq3
    1bad:	067a24        	ae_abssq56s	aeq1, aeq2
    1bb0:	099004        	ae_ltq56s	b0, aeq0, aeq1
    1bb3:	021076        	bt	b0, 1bb9 <pitch_by_harmonic+0x71>
    1bb6:	014b06        	j	20e6 <pitch_by_harmonic+0x59e>
    1bb9:	0a99f2        	l16si	a15, a9, 20
    1bbc:	483c           	movi.n	a8, 52
    1bbe:	095982        	s16i	a8, a9, 18
    1bc1:	033fa6        	blti	a15, 3, 1bc8 <pitch_by_harmonic+0x80>
    1bc4:	0bad           	mov.n	a10, a11
    1bc6:	01b9           	s32i.n	a11, a1, 0

00001bc8 <pitch_by_harmonic+0x80>:
    1bc8:	219aa0        	srai	a9, a10, 10
    1bcb:	02d2c2        	addmi	a12, a2, 0x200
    1bce:	1b0c           	movi.n	a11, 1
    1bd0:	0d5cb2        	s16i	a11, a12, 26
    1bd3:	826292        	s32i	a9, a2, 0x208
    1bd6:	8162a2        	s32i	a10, a2, 0x204
    1bd9:	002d46        	j	1c92 <pitch_by_harmonic+0x14a>

00001bdc <pitch_by_harmonic+0x94>:
    1bdc:	752dc2        	l32i	a12, a13, 0x1d4
    1bdf:	51ec16        	beqz	a12, 2101 <pitch_by_harmonic+0x5b9>
    1be2:	f92cb1        	l32r	a11, 94 (80000000 <_end+0x7fff3560>)
    1be5:	0a0c           	movi.n	a10, 0
    1be7:	d5d2c0        	extui	a13, a12, 18, 14
    1bea:	f96781        	l32r	a8, 188 (9eb0 <__udivdi3>)
    1bed:	119c20        	slli	a9, a12, 14
    1bf0:	09cd           	mov.n	a12, a9
    1bf2:	0008e0        	callx8	a8
    1bf5:	f965c1        	l32r	a12, 18c (51e0 <cali_power+0x1a4>)
    1bf8:	01a9           	s32i.n	a10, a1, 0
    1bfa:	b1b8           	l32i.n	a11, a1, 44
    1bfc:	f965a1        	l32r	a10, 190 (2000000 <_end+0x1ff3560>)
    1bff:	60c104        	ae_lq32f.i	aeq3, a1, 0
    1c02:	35f074        	ae_sraiq56	aeq3, aeq3, 1
    1c05:	602bc4        	ae_lq32f.x	aeq0, a11, a12
    1c08:	06b814        	ae_subsq56s	aeq2, aeq3, aeq0
    1c0b:	064a44        	ae_satq48s	aeq1, aeq2
    1c0e:	ff0cbeca3f 	{ ae_cvtq48a32s	aeq0, a10; ae_abssq56s	aeq3, aeq1 }
    1c13:	098314        	ae_ltq56s	b1, aeq3, aeq0
    1c16:	0b0176        	bf	b1, 1c25 <pitch_by_harmonic+0xdd>
    1c19:	600104        	ae_lq32f.i	aeq0, a1, 0
    1c1c:	350074        	ae_sraiq56	aeq0, aeq0, 1
    1c1f:	620104        	ae_sq32f.i	aeq0, a1, 0
    1c22:	000a06        	j	1c4e <pitch_by_harmonic+0x106>

00001c25 <pitch_by_harmonic+0xdd>:
    1c25:	f95981        	l32r	a8, 18c (51e0 <cali_power+0x1a4>)
    1c28:	f95be1        	l32r	a14, 194 (1000000 <_end+0xff3560>)
    1c2b:	604104        	ae_lq32f.i	aeq1, a1, 0
    1c2e:	60ab84        	ae_lq32f.x	aeq2, a11, a8
    1c31:	35a074        	ae_sraiq56	aeq2, aeq2, 1
    1c34:	061a14        	ae_subsq56s	aeq0, aeq1, aeq2
    1c37:	06c844        	ae_satq48s	aeq3, aeq0
    1c3a:	fd8cbecebf 	{ ae_cvtq48a32s	aeq2, a14; ae_abssq56s	aeq1, aeq3 }
    1c3f:	09a124        	ae_ltq56s	b2, aeq1, aeq2
    1c42:	080276        	bf	b2, 1c4e <pitch_by_harmonic+0x106>
    1c45:	600104        	ae_lq32f.i	aeq0, a1, 0
    1c48:	36c054        	ae_sllisq56s	aeq3, aeq0, 1
    1c4b:	623104        	ae_sq32f.i	aeq3, a1, 0
    1c4e:	dc2c           	movi.n	a12, 45
    1c50:	3d2c           	movi.n	a13, 35
    1c52:	814b           	addi.n	a8, a1, 4
    1c54:	01a8           	l32i.n	a10, a1, 0
    1c56:	02d2b2        	addmi	a11, a2, 0x200
    1c59:	608104        	ae_lq32f.i	aeq2, a1, 0
    1c5c:	00a7e2        	movi	a14, 0x700
    1c5f:	39aee4        	ae_movpa24x2	aep2, a14, a14
    1c62:	fb0800019f 	{ movi	a9, 1; ae_mulfq32sp24s.h	aeq2, aeq2, aep2 }
    1c67:	0d5b92        	s16i	a9, a11, 26
    1c6a:	8162a2        	s32i	a10, a2, 0x204
    1c6d:	21faa0        	srai	a15, a10, 10
    1c70:	366154        	ae_sllisq56s	aeq1, aeq2, 5
    1c73:	f8ebc009ef 	{ movi	a14, 9; ae_roundsp16q48sym	aep1, aeq1 }
    1c78:	421804        	ae_sp16f.l.i	aep1, a8, 0
    1c7b:	029192        	l16si	a9, a1, 4
    1c7e:	8262f2        	s32i	a15, a2, 0x208
    1c81:	085be2        	s16i	a14, a11, 16
    1c84:	5399d0        	max	a9, a9, a13
    1c87:	899d           	ae_sext16	a9, a9
    1c89:	4399c0        	min	a9, a9, a12
    1c8c:	025192        	s16i	a9, a1, 4
    1c8f:	095b92        	s16i	a9, a11, 18

00001c92 <pitch_by_harmonic+0x14a>:
    1c92:	021ae6        	bgei	a10, 1, 1c98 <pitch_by_harmonic+0x150>
    1c95:	012606        	j	2131 <pitch_by_harmonic+0x5e9>
    1c98:	9149           	s32i.n	a4, a1, 36
    1c9a:	a06350        	addx4	a6, a3, a5
    1c9d:	08d422        	addmi	a2, a4, 0x800
    1ca0:	030c           	movi.n	a3, 0
    1ca2:	2cc222        	addi	a2, a2, 44

00001ca5 <pitch_by_harmonic+0x15d>:
    1ca5:	1143e0        	slli	a4, a3, 2
    1ca8:	a0a350        	addx4	a10, a3, a5
    1cab:	1aa8           	l32i.n	a10, a10, 4
    1cad:	7e92b2        	l16si	a11, a2, 252
    1cb0:	f93a81        	l32r	a8, 198 (860 <Log2_norm>)
    1cb3:	40eac0        	nsa	a12, a10
    1cb6:	c0bbc0        	sub	a11, a11, a12
    1cb9:	401c00        	ssl	a12
    1cbc:	a1aa00        	sll	a10, a10
    1cbf:	0008e0        	callx8	a8
    1cc2:	1b4c           	movi.n	a11, 65
    1cc4:	331b           	addi.n	a3, a3, 1
    1cc6:	846a           	add.n	a8, a4, a6
    1cc8:	08a9           	s32i.n	a10, a8, 0
    1cca:	833d           	ae_sext16	a3, a3
    1ccc:	d593b7        	bne	a3, a11, 1ca5 <pitch_by_harmonic+0x15d>
    1ccf:	04a192        	movi	a9, 0x104
    1cd2:	1797a2        	l16si	a10, a7, 46
    1cd5:	1697b2        	l16si	a11, a7, 44
    1cd8:	080c           	movi.n	a8, 0
    1cda:	1d5782        	s16i	a8, a7, 58
    1cdd:	1c5782        	s16i	a8, a7, 56
    1ce0:	a04b60        	addx4	a4, a11, a6
    1ce3:	c0aab0        	sub	a10, a10, a11
    1ce6:	fcc442        	addi	a4, a4, -4
    1ce9:	84a1b2        	movi	a11, 0x184
    1cec:	8aad           	ae_sext16	a10, a10
    1cee:	c1a9           	s32i.n	a10, a1, 48
    1cf0:	021ae6        	bgei	a10, 1, 1cf6 <pitch_by_harmonic+0x1ae>
    1cf3:	003246        	j	1dc0 <pitch_by_harmonic+0x278>
    1cf6:	050c           	movi.n	a5, 0
    1cf8:	f92921        	l32r	a2, 19c (5000000 <_end+0x4ff3560>)
    1cfb:	8169           	s32i.n	a6, a1, 32
    1cfd:	04ae32        	movi	a3, 0xfffffe04
    1d00:	343a           	add.n	a3, a4, a3
    1d02:	0003c6        	j	1d15 <pitch_by_harmonic+0x1cd>

00001d05 <pitch_by_harmonic+0x1bd>:
    1d05:	444b           	addi.n	a4, a4, 4
    1d07:	334b           	addi.n	a3, a3, 4
    1d09:	c188           	l32i.n	a8, a1, 48
    1d0b:	551b           	addi.n	a5, a5, 1
    1d0d:	855d           	ae_sext16	a5, a5
    1d0f:	c08850        	sub	a8, a8, a5
    1d12:	0a2816        	beqz	a8, 1db8 <pitch_by_harmonic+0x270>

00001d15 <pitch_by_harmonic+0x1cd>:
    1d15:	f92281        	l32r	a8, 1a0 (2188 <XMAX6>)
    1d18:	f4c4a2        	addi	a10, a4, -12
    1d1b:	f03d           	nop.n
    1d1d:	0008e0        	callx8	a8
    1d20:	f92081        	l32r	a8, 1a0 (2188 <XMAX6>)
    1d23:	0a6d           	mov.n	a6, a10
    1d25:	f8c4a2        	addi	a10, a4, -8
    1d28:	0008e0        	callx8	a8
    1d2b:	7f23b2        	l32i	a11, a3, 0x1fc
    1d2e:	8123e2        	l32i	a14, a3, 0x204
    1d31:	7d2392        	l32i	a9, a3, 0x1f4
    1d34:	0216b7        	beq	a6, a11, 1d3a <pitch_by_harmonic+0x1f2>
    1d37:	1f9ab7        	bne	a10, a11, 1d5a <pitch_by_harmonic+0x212>

00001d3a <pitch_by_harmonic+0x1f2>:
    1d3a:	992a           	add.n	a9, a9, a2
    1d3c:	0a29b7        	blt	a9, a11, 1d4a <pitch_by_harmonic+0x202>
    1d3f:	f919d1        	l32r	a13, 1a4 (c000000 <_end+0xbff3560>)
    1d42:	7e23c2        	l32i	a12, a3, 0x1f8
    1d45:	ccda           	add.n	a12, a12, a13
    1d47:	0facb7        	bge	a12, a11, 1d5a <pitch_by_harmonic+0x212>

00001d4a <pitch_by_harmonic+0x202>:
    1d4a:	ee2a           	add.n	a14, a14, a2
    1d4c:	242eb7        	blt	a14, a11, 1d74 <pitch_by_harmonic+0x22c>
    1d4f:	f91581        	l32r	a8, 1a4 (c000000 <_end+0xbff3560>)
    1d52:	8023f2        	l32i	a15, a3, 0x200
    1d55:	ff8a           	add.n	a15, a15, a8
    1d57:	192fb7        	blt	a15, a11, 1d74 <pitch_by_harmonic+0x22c>
    1d5a:	6798           	l32i.n	a9, a7, 24
    1d5c:	53c6a0        	max	a12, a6, a10
    1d5f:	fa2916        	beqz	a9, 1d05 <pitch_by_harmonic+0x1bd>
    1d62:	9f9bc7        	bne	a11, a12, 1d05 <pitch_by_harmonic+0x1bd>
    1d65:	8323e2        	l32i	a14, a3, 0x20c
    1d68:	7b23d2        	l32i	a13, a3, 0x1ec
    1d6b:	43dde0        	min	a13, a13, a14
    1d6e:	93adb7        	bge	a13, a11, 1d05 <pitch_by_harmonic+0x1bd>
    1d71:	000846        	j	1d96 <pitch_by_harmonic+0x24e>

00001d74 <pitch_by_harmonic+0x22c>:
    1d74:	04ad           	mov.n	a10, a4
    1d76:	1697b2        	l16si	a11, a7, 44
    1d79:	f8e181        	l32r	a8, 100 (22f8 <Xfrac_num_pd_td32>)
    1d7c:	1c0c           	movi.n	a12, 1
    1d7e:	bb5a           	add.n	a11, a11, a5
    1d80:	0008e0        	callx8	a8
    1d83:	81d8           	l32i.n	a13, a1, 32
    1d85:	1d97c2        	l16si	a12, a7, 58
    1d88:	a0dcd0        	addx4	a13, a12, a13
    1d8b:	416da2        	s32i	a10, a13, 0x104
    1d8e:	cc1b           	addi.n	a12, a12, 1
    1d90:	1d57c2        	s16i	a12, a7, 58
    1d93:	ffdb86        	j	1d05 <pitch_by_harmonic+0x1bd>

00001d96 <pitch_by_harmonic+0x24e>:
    1d96:	04ad           	mov.n	a10, a4
    1d98:	1697b2        	l16si	a11, a7, 44
    1d9b:	f8d981        	l32r	a8, 100 (22f8 <Xfrac_num_pd_td32>)
    1d9e:	1c0c           	movi.n	a12, 1
    1da0:	bb5a           	add.n	a11, a11, a5
    1da2:	0008e0        	callx8	a8
    1da5:	81d8           	l32i.n	a13, a1, 32
    1da7:	1c97c2        	l16si	a12, a7, 56
    1daa:	a0dcd0        	addx4	a13, a12, a13
    1dad:	616da2        	s32i	a10, a13, 0x184
    1db0:	cc1b           	addi.n	a12, a12, 1
    1db2:	1c57c2        	s16i	a12, a7, 56
    1db5:	ffd306        	j	1d05 <pitch_by_harmonic+0x1bd>

00001db8 <pitch_by_harmonic+0x270>:
    1db8:	04a192        	movi	a9, 0x104
    1dbb:	84a1b2        	movi	a11, 0x184
    1dbe:	8168           	l32i.n	a6, a1, 32

00001dc0 <pitch_by_harmonic+0x278>:
    1dc0:	1d97e2        	l16si	a14, a7, 58
    1dc3:	021ee6        	bgei	a14, 1, 1dc9 <pitch_by_harmonic+0x281>
    1dc6:	00ec86        	j	217c <pitch_by_harmonic+0x634>
    1dc9:	050c           	movi.n	a5, 0
    1dcb:	f8f7e1        	l32r	a14, 1a8 (435e51 <_end+0x4293b1>)
    1dce:	0c0c           	movi.n	a12, 0
    1dd0:	1d0c           	movi.n	a13, 1
    1dd2:	a6ba           	add.n	a10, a6, a11
    1dd4:	a1a9           	s32i.n	a10, a1, 40
    1dd6:	1f57d2        	s16i	a13, a7, 62
    1dd9:	1e57c2        	s16i	a12, a7, 60
    1ddc:	d69a           	add.n	a13, a6, a9
    1dde:	20c7c2        	addi	a12, a7, 32
    1de1:	24c7a2        	addi	a10, a7, 36

00001de4 <pitch_by_harmonic+0x29c>:
    1de4:	f8ecb1        	l32r	a11, 194 (1000000 <_end+0xff3560>)
    1de7:	178076        	loop	a0, 1e02 <pitch_by_harmonic+0x2ba>
    1dea:	030100        	rsr.lend	a0
    1ded:	130000        	wsr.lbeg	a0
    1df0:	bcc002        	addi	a0, a0, -68
    1df3:	02d002        	addmi	a0, a0, 0x200
    1df6:	130100        	wsr.lend	a0
    1df9:	002000        	isync
    1dfc:	030200        	rsr.lcount	a0
    1dff:	01c002        	addi	a0, a0, 1
    1e02:	0215e6        	bgei	a5, 1, 1e08 <pitch_by_harmonic+0x2c0>
    1e05:	003bc6        	j	1ef8 <pitch_by_harmonic+0x3b0>
    1e08:	8798           	l32i.n	a9, a7, 32
    1e0a:	60cdf4        	ae_lq32f.i	aeq3, a13, -4
    1e0d:	608d04        	ae_lq32f.i	aeq2, a13, 0
    1e10:	f9d680812e 	{ addi	a2, a1, 8; ae_subsq56s	aeq1, aeq2, aeq3 }
    1e15:	355064        	ae_srliq56	aeq1, aeq1, 1
    1e18:	621204        	ae_sq32f.i	aeq1, a2, 0
    1e1b:	21f8           	l32i.n	a15, a1, 8
    1e1d:	31cb           	addi.n	a3, a1, 12
    1e1f:	214c90        	srai	a4, a9, 12
    1e22:	d2ff40        	quos	a15, a15, a4
    1e25:	31f9           	s32i.n	a15, a1, 12
    1e27:	608304        	ae_lq32f.i	aeq2, a3, 0
    1e2a:	3623d4        	ae_sllisq56s	aeq0, aeq2, 15
    1e2d:	f9e3fd6c0f 	{ ae_lq32f.i	aeq3, a12, 0; ae_roundsp16q48sym	aep3, aeq0 }
    1e32:	03bbc4        	ae_mulq32sp16s.h	aeq3, aeq3, aep3
    1e35:	369294        	ae_sllisq56s	aeq2, aeq1, 10
    1e38:	3633d4        	ae_sllisq56s	aeq0, aeq3, 15
    1e3b:	06ca14        	ae_subsq56s	aeq3, aeq0, aeq2
    1e3e:	ff84becbbf 	{ ae_cvtq48a32s	aeq2, a11; ae_absq56	aeq3, aeq3 }
    1e43:	09a334        	ae_ltq56s	b3, aeq3, aeq2
    1e46:	10c1f2        	addi	a15, a1, 16
    1e49:	423f04        	ae_sp16f.l.i	aep3, a15, 0
    1e4c:	2b0376        	bf	b3, 1e7b <pitch_by_harmonic+0x333>
    1e4f:	0891f2        	l16si	a15, a1, 16
    1e52:	1b9792        	l16si	a9, a7, 54
    1e55:	361054        	ae_sllisq56s	aeq0, aeq1, 1
    1e58:	99fa           	add.n	a9, a9, a15
    1e5a:	1b5792        	s16i	a9, a7, 54
    1e5d:	60ca04        	ae_lq32f.i	aeq3, a10, 0
    1e60:	06b804        	ae_addsq56s	aeq2, aeq3, aeq0
    1e63:	060a44        	ae_satq48s	aeq0, aeq2
    1e66:	620a04        	ae_sq32f.i	aeq0, a10, 0
    1e69:	1b9782        	l16si	a8, a7, 54
    1e6c:	97f8           	l32i.n	a15, a7, 36
    1e6e:	130c           	movi.n	a3, 1
    1e70:	d2ff80        	quos	a15, a15, a8
    1e73:	11ff60        	slli	a15, a15, 10
    1e76:	87f9           	s32i.n	a15, a7, 32
    1e78:	002006        	j	1efc <pitch_by_harmonic+0x3b4>

00001e7b <pitch_by_harmonic+0x333>:
    1e7b:	7125a6        	blti	a5, 2, 1ef0 <pitch_by_harmonic+0x3a8>
    1e7e:	604de4        	ae_lq32f.i	aeq1, a13, -8
    1e81:	600d04        	ae_lq32f.i	aeq0, a13, 0
    1e84:	06c914        	ae_subsq56s	aeq3, aeq0, aeq1
    1e87:	35f064        	ae_srliq56	aeq3, aeq3, 1
    1e8a:	623204        	ae_sq32f.i	aeq3, a2, 0
    1e8d:	2188           	l32i.n	a8, a1, 8
    1e8f:	f8c1b1        	l32r	a11, 194 (1000000 <_end+0xff3560>)
    1e92:	d28840        	quos	a8, a8, a4
    1e95:	3189           	s32i.n	a8, a1, 12
    1e97:	600304        	ae_lq32f.i	aeq0, a3, 0
    1e9a:	3643d4        	ae_sllisq56s	aeq1, aeq0, 15
    1e9d:	faebbd0c0f 	{ ae_lq32f.i	aeq0, a12, 0; ae_roundsp16q48sym	aep4, aeq1 }
    1ea2:	034304        	ae_mulq32sp16s.h	aeq0, aeq0, aep4
    1ea5:	367294        	ae_sllisq56s	aeq1, aeq3, 10
    1ea8:	3603d4        	ae_sllisq56s	aeq0, aeq0, 15
    1eab:	064914        	ae_subsq56s	aeq1, aeq0, aeq1
    1eae:	065964        	ae_absq56	aeq1, aeq1
    1eb1:	d65500003f 	{ movi	a3, 0; ae_ltq56s	b4, aeq1, aeq2 }
    1eb6:	424f04        	ae_sp16f.l.i	aep4, a15, 0
    1eb9:	09fd           	mov.n	a15, a9
    1ebb:	2e0476        	bf	b4, 1eed <pitch_by_harmonic+0x3a5>
    1ebe:	0891b2        	l16si	a11, a1, 16
    1ec1:	1b9792        	l16si	a9, a7, 54
    1ec4:	36b054        	ae_sllisq56s	aeq2, aeq3, 1
    1ec7:	99ba           	add.n	a9, a9, a11
    1ec9:	1b5792        	s16i	a9, a7, 54
    1ecc:	604a04        	ae_lq32f.i	aeq1, a10, 0
    1ecf:	061a04        	ae_addsq56s	aeq0, aeq1, aeq2
    1ed2:	068844        	ae_satq48s	aeq2, aeq0
    1ed5:	622a04        	ae_sq32f.i	aeq2, a10, 0
    1ed8:	1b9782        	l16si	a8, a7, 54
    1edb:	97f8           	l32i.n	a15, a7, 36
    1edd:	130c           	movi.n	a3, 1
    1edf:	f8adb1        	l32r	a11, 194 (1000000 <_end+0xff3560>)
    1ee2:	d2ff80        	quos	a15, a15, a8
    1ee5:	11ff60        	slli	a15, a15, 10
    1ee8:	87f9           	s32i.n	a15, a7, 32
    1eea:	000386        	j	1efc <pitch_by_harmonic+0x3b4>

00001eed <pitch_by_harmonic+0x3a5>:
    1eed:	0002c6        	j	1efc <pitch_by_harmonic+0x3b4>

00001ef0 <pitch_by_harmonic+0x3a8>:
    1ef0:	09fd           	mov.n	a15, a9
    1ef2:	030c           	movi.n	a3, 0
    1ef4:	000106        	j	1efc <pitch_by_harmonic+0x3b4>

00001ef7 <pitch_by_harmonic+0x3af>:
	...

00001ef8 <pitch_by_harmonic+0x3b0>:
    1ef8:	87f8           	l32i.n	a15, a7, 32
    1efa:	030c           	movi.n	a3, 0

00001efc <pitch_by_harmonic+0x3b4>:
    1efc:	1cc122        	addi	a2, a1, 28
    1eff:	60cc04        	ae_lq32f.i	aeq3, a12, 0
    1f02:	18c142        	addi	a4, a1, 24
    1f05:	14c192        	addi	a9, a1, 20
    1f08:	218bf0        	srai	a8, a15, 11
    1f0b:	a0f560        	addx4	a15, a5, a6
    1f0e:	412ff2        	l32i	a15, a15, 0x104
    1f11:	51f9           	s32i.n	a15, a1, 20
    1f13:	604904        	ae_lq32f.i	aeq1, a9, 0
    1f16:	d28f80        	quos	a8, a15, a8
    1f19:	6189           	s32i.n	a8, a1, 24
    1f1b:	608404        	ae_lq32f.i	aeq2, a4, 0
    1f1e:	3623d4        	ae_sllisq56s	aeq0, aeq2, 15
    1f21:	fae3fad29f 	{ ae_sllisq56s	aeq2, aeq1, 9; ae_roundsp16q48sym	aep5, aeq0 }
    1f26:	fb3572520f 	{ ae_sp16f.l.i	aep5, a2, 0; ae_mulq32sp16s.h	aeq3, aeq3, aep5 }
    1f2b:	0e9192        	l16si	a9, a1, 28
    1f2e:	3673d4        	ae_sllisq56s	aeq1, aeq3, 15
    1f31:	061a14        	ae_subsq56s	aeq0, aeq1, aeq2
    1f34:	061864        	ae_absq56	aeq0, aeq0
    1f37:	461926        	beqi	a9, 1, 1f81 <pitch_by_harmonic+0x439>
    1f3a:	4c2926        	beqi	a9, 2, 1f8a <pitch_by_harmonic+0x442>
    1f3d:	364b34        	ae_cvtq48a32s	aeq1, a11

00001f40 <pitch_by_harmonic+0x3f8>:
    1f40:	438c           	beqz.n	a3, 1f48 <pitch_by_harmonic+0x400>
    1f42:	39eee4        	ae_movpa24x2	aep6, a14, a14
    1f45:	086514        	ae_mulrfq32sp24s.l	aeq0, aeq0, aep6

00001f48 <pitch_by_harmonic+0x400>:
    1f48:	d649404dde 	{ addi	a13, a13, 4; ae_ltq56s	b5, aeq0, aeq1 }
    1f4d:	551b           	addi.n	a5, a5, 1
    1f4f:	855d           	ae_sext16	a5, a5
    1f51:	550576        	bf	b5, 1faa <pitch_by_harmonic+0x462>
    1f54:	3b29a6        	blti	a9, 2, 1f93 <pitch_by_harmonic+0x44b>
    1f57:	1b97f2        	l16si	a15, a7, 54
    1f5a:	14c182        	addi	a8, a1, 20
    1f5d:	608804        	ae_lq32f.i	aeq2, a8, 0
    1f60:	ff9a           	add.n	a15, a15, a9
    1f62:	1b57f2        	s16i	a15, a7, 54
    1f65:	604a04        	ae_lq32f.i	aeq1, a10, 0
    1f68:	061a04        	ae_addsq56s	aeq0, aeq1, aeq2
    1f6b:	06c844        	ae_satq48s	aeq3, aeq0
    1f6e:	623a04        	ae_sq32f.i	aeq3, a10, 0
    1f71:	1b9782        	l16si	a8, a7, 54
    1f74:	97f8           	l32i.n	a15, a7, 36
    1f76:	d2ff80        	quos	a15, a15, a8
    1f79:	11ff60        	slli	a15, a15, 10
    1f7c:	87f9           	s32i.n	a15, a7, 32
    1f7e:	000446        	j	1f93 <pitch_by_harmonic+0x44b>

00001f81 <pitch_by_harmonic+0x439>:
    1f81:	f88a81        	l32r	a8, 1ac (99999a <_end+0x98cefa>)
    1f84:	364834        	ae_cvtq48a32s	aeq1, a8
    1f87:	ffed46        	j	1f40 <pitch_by_harmonic+0x3f8>

00001f8a <pitch_by_harmonic+0x442>:
    1f8a:	f88981        	l32r	a8, 1b0 (cccccd <_end+0xcc022d>)
    1f8d:	364834        	ae_cvtq48a32s	aeq1, a8
    1f90:	ffeb06        	j	1f40 <pitch_by_harmonic+0x3f8>

00001f93 <pitch_by_harmonic+0x44b>:
    1f93:	1e97f2        	l16si	a15, a7, 60
    1f96:	080c           	movi.n	a8, 0
    1f98:	ff1b           	addi.n	a15, a15, 1
    1f9a:	1e57f2        	s16i	a15, a7, 60
    1f9d:	176907        	bbci	a9, 0, 1fb8 <pitch_by_harmonic+0x470>
    1fa0:	1f5782        	s16i	a8, a7, 62
    1fa3:	000446        	j	1fb8 <pitch_by_harmonic+0x470>

00001fa6 <pitch_by_harmonic+0x45e>:
    1fa6:	00000000                                ....

00001faa <pitch_by_harmonic+0x462>:
    1faa:	1c9792        	l16si	a9, a7, 56
    1fad:	a08960        	addx4	a8, a9, a6
    1fb0:	6168f2        	s32i	a15, a8, 0x184
    1fb3:	991b           	addi.n	a9, a9, 1
    1fb5:	1c5792        	s16i	a9, a7, 56

00001fb8 <pitch_by_harmonic+0x470>:
    1fb8:	1d9792        	l16si	a9, a7, 58
    1fbb:	02a597        	bge	a5, a9, 1fc1 <pitch_by_harmonic+0x479>

00001fbe <pitch_by_harmonic+0x476>:
    1fbe:	ff8886        	j	1de4 <pitch_by_harmonic+0x29c>

00001fc1 <pitch_by_harmonic+0x479>:
    1fc1:	91a8           	l32i.n	a10, a1, 36
    1fc3:	1c9782        	l16si	a8, a7, 56
    1fc6:	1e9792        	l16si	a9, a7, 60
    1fc9:	145a92        	s16i	a9, a10, 40
    1fcc:	6918a6        	blti	a8, 1, 2039 <pitch_by_harmonic+0x4f1>
    1fcf:	a1b8           	l32i.n	a11, a1, 40
    1fd1:	050c           	movi.n	a5, 0
    1fd3:	f878d1        	l32r	a13, 1b4 (159999a <_end+0x158cefa>)
    1fd6:	364d34        	ae_cvtq48a32s	aeq1, a13
    1fd9:	598076        	loop	a0, 2036 <pitch_by_harmonic+0x4ee>
    1fdc:	60cc04        	ae_lq32f.i	aeq3, a12, 0
    1fdf:	18c182        	addi	a8, a1, 24
    1fe2:	87a8           	l32i.n	a10, a7, 32
    1fe4:	0b98           	l32i.n	a9, a11, 0
    1fe6:	5199           	s32i.n	a9, a1, 20
    1fe8:	21aba0        	srai	a10, a10, 11
    1feb:	d299a0        	quos	a9, a9, a10
    1fee:	6199           	s32i.n	a9, a1, 24
    1ff0:	608804        	ae_lq32f.i	aeq2, a8, 0
    1ff3:	3623d4        	ae_sllisq56s	aeq0, aeq2, 15
    1ff6:	fbe3c141fe 	{ addi	a15, a1, 20; ae_roundsp16q48sym	aep7, aeq0 }
    1ffb:	fb3d7d0f0f 	{ ae_lq32f.i	aeq0, a15, 0; ae_mulq32sp16s.h	aeq3, aeq3, aep7 }
    2000:	368254        	ae_sllisq56s	aeq2, aeq0, 9
    2003:	3633d4        	ae_sllisq56s	aeq0, aeq3, 15
    2006:	fbc280155e 	{ addi	a5, a5, 1; ae_subsq56s	aeq3, aeq0, aeq2 }
    200b:	ff8481c1ee 	{ addi	a14, a1, 28; ae_absq56	aeq3, aeq3 }
    2010:	d6cd804bbe 	{ addi	a11, a11, 4; ae_ltq56s	b6, aeq3, aeq1 }
    2015:	1c9782        	l16si	a8, a7, 56
    2018:	427e04        	ae_sp16f.l.i	aep7, a14, 0
    201b:	120676        	bf	b6, 2031 <pitch_by_harmonic+0x4e9>
    201e:	1e97e2        	l16si	a14, a7, 60
    2021:	0f0c           	movi.n	a15, 0
    2023:	0e91d2        	l16si	a13, a1, 28
    2026:	ee1b           	addi.n	a14, a14, 1
    2028:	1e57e2        	s16i	a14, a7, 60
    202b:	026d07        	bbci	a13, 0, 2031 <pitch_by_harmonic+0x4e9>
    202e:	1f57f2        	s16i	a15, a7, 62
    2031:	855d           	ae_sext16	a5, a5
    2033:	02a587        	bge	a5, a8, 2039 <pitch_by_harmonic+0x4f1>

00002036 <pitch_by_harmonic+0x4ee>:
    2036:	ffe7c6        	j	1fd9 <pitch_by_harmonic+0x491>

00002039 <pitch_by_harmonic+0x4f1>:
    2039:	1f97b2        	l16si	a11, a7, 62
    203c:	085b16        	beqz	a11, 20c5 <pitch_by_harmonic+0x57d>
    203f:	7798           	l32i.n	a9, a7, 28
    2041:	79bc           	beqz.n	a9, 207c <pitch_by_harmonic+0x534>

00002043 <pitch_by_harmonic+0x4fb>:
    2043:	1e9782        	l16si	a8, a7, 60
    2046:	3b38a6        	blti	a8, 3, 2085 <pitch_by_harmonic+0x53d>

00002049 <pitch_by_harmonic+0x501>:
    2049:	87f8           	l32i.n	a15, a7, 32
    204b:	f85b91        	l32r	a9, 1b8 (13ffffff <_end+0x13ff355f>)
    204e:	3329f7        	blt	a9, a15, 2085 <pitch_by_harmonic+0x53d>
    2051:	1897a2        	l16si	a10, a7, 48
    2054:	1c3aa6        	blti	a10, 3, 2074 <pitch_by_harmonic+0x52c>
    2057:	604c04        	ae_lq32f.i	aeq1, a12, 0
    205a:	f84ad1        	l32r	a13, 184 (aaaab <_end+0x9e00b>)
    205d:	28c7e2        	addi	a14, a7, 40
    2060:	608e04        	ae_lq32f.i	aeq2, a14, 0
    2063:	fbcaa20ddf 	{ ae_movpa24x2	aep0, a13, a13; ae_subsq56s	aeq3, aeq1, aeq2 }
    2068:	0804a4        	ae_mulfq32sp24s.h	aeq0, aeq2, aep0
    206b:	06db64        	ae_absq56	aeq3, aeq3
    206e:	098774        	ae_leq56s	b7, aeq3, aeq0
    2071:	101776        	bt	b7, 2085 <pitch_by_harmonic+0x53d>
    2074:	118ff0        	slli	a8, a15, 1
    2077:	8789           	s32i.n	a8, a7, 32
    2079:	0003c6        	j	208c <pitch_by_harmonic+0x544>

0000207c <pitch_by_harmonic+0x534>:
    207c:	1e97a2        	l16si	a10, a7, 60
    207f:	025aa6        	blti	a10, 5, 2085 <pitch_by_harmonic+0x53d>
    2082:	002946        	j	212b <pitch_by_harmonic+0x5e3>

00002085 <pitch_by_harmonic+0x53d>:
    2085:	0b0c           	movi.n	a11, 0
    2087:	1f57b2        	s16i	a11, a7, 62
    208a:	0b0c           	movi.n	a11, 0
    208c:	5bbc           	beqz.n	a11, 20c5 <pitch_by_harmonic+0x57d>
    208e:	87f8           	l32i.n	a15, a7, 32

00002090 <pitch_by_harmonic+0x548>:
    2090:	281fa6        	blti	a15, 1, 20bc <pitch_by_harmonic+0x574>
    2093:	604c04        	ae_lq32f.i	aeq1, a12, 0
    2096:	f83be1        	l32r	a14, 184 (aaaab <_end+0x9e00b>)
    2099:	28c7d2        	addi	a13, a7, 40
    209c:	608d04        	ae_lq32f.i	aeq2, a13, 0
    209f:	fbcaa21eef 	{ ae_movpa24x2	aep1, a14, a14; ae_subsq56s	aeq3, aeq1, aeq2 }
    20a4:	081594        	ae_mulrfq32sp24s.l	aeq0, aeq2, aep1
    20a7:	06db64        	ae_absq56	aeq3, aeq3
    20aa:	098384        	ae_ltq56s	b8, aeq3, aeq0
    20ad:	0b0876        	bf	b8, 20bc <pitch_by_harmonic+0x574>
    20b0:	189782        	l16si	a8, a7, 48
    20b3:	a7f9           	s32i.n	a15, a7, 40
    20b5:	881b           	addi.n	a8, a8, 1
    20b7:	185782        	s16i	a8, a7, 48
    20ba:	f01d           	retw.n

000020bc <pitch_by_harmonic+0x574>:
    20bc:	a7f9           	s32i.n	a15, a7, 40
    20be:	090c           	movi.n	a9, 0
    20c0:	185792        	s16i	a9, a7, 48
    20c3:	f01d           	retw.n

000020c5 <pitch_by_harmonic+0x57d>:
    20c5:	1e9792        	l16si	a9, a7, 60
    20c8:	3d39a6        	blti	a9, 3, 2109 <pitch_by_harmonic+0x5c1>
    20cb:	87f8           	l32i.n	a15, a7, 32
    20cd:	f83ba1        	l32r	a10, 1bc (a8f5c28 <_end+0xa8e9188>)
    20d0:	05aaf7        	bge	a10, a15, 20d9 <pitch_by_harmonic+0x591>
    20d3:	f83bb1        	l32r	a11, 1c0 (2eb851ec <_end+0x2eb7874c>)
    20d6:	b6abf7        	bge	a11, a15, 2090 <pitch_by_harmonic+0x548>

000020d9 <pitch_by_harmonic+0x591>:
    20d9:	0c0c           	movi.n	a12, 0
    20db:	0d0c           	movi.n	a13, 0
    20dd:	87d9           	s32i.n	a13, a7, 32
    20df:	1857d2        	s16i	a13, a7, 48
    20e2:	a7c9           	s32i.n	a12, a7, 40
    20e4:	f01d           	retw.n

000020e6 <pitch_by_harmonic+0x59e>:
    20e6:	abaa           	add.n	a10, a11, a10
    20e8:	ee3c           	movi.n	a14, 62
    20ea:	2d0c           	movi.n	a13, 2
    20ec:	0d59d2        	s16i	a13, a9, 26
    20ef:	0959e2        	s16i	a14, a9, 18
    20f2:	21aaa0        	srai	a10, a10, 10
    20f5:	8262a2        	s32i	a10, a2, 0x208
    20f8:	11aa70        	slli	a10, a10, 9
    20fb:	8162a2        	s32i	a10, a2, 0x204
    20fe:	fee406        	j	1c92 <pitch_by_harmonic+0x14a>

00002101 <pitch_by_harmonic+0x5b9>:
    2101:	0a0c           	movi.n	a10, 0
    2103:	766da2        	s32i	a10, a13, 0x1d8
    2106:	fee206        	j	1c92 <pitch_by_harmonic+0x14a>

00002109 <pitch_by_harmonic+0x5c1>:
    2109:	332926        	beqi	a9, 2, 2140 <pitch_by_harmonic+0x5f8>
    210c:	0f0c           	movi.n	a15, 0
    210e:	87f9           	s32i.n	a15, a7, 32
    2110:	0f0c           	movi.n	a15, 0
    2112:	ffde86        	j	2090 <pitch_by_harmonic+0x548>

00002115 <pitch_by_harmonic+0x5cd>:
    2115:	218aa0        	srai	a8, a10, 10
    2118:	ec3c           	movi.n	a12, 62
    211a:	1b0c           	movi.n	a11, 1
    211c:	0d59b2        	s16i	a11, a9, 26
    211f:	0959c2        	s16i	a12, a9, 18
    2122:	8162a2        	s32i	a10, a2, 0x204
    2125:	826282        	s32i	a8, a2, 0x208
    2128:	fed986        	j	1c92 <pitch_by_harmonic+0x14a>

0000212b <pitch_by_harmonic+0x5e3>:
    212b:	f14956        	bnez	a9, 2043 <pitch_by_harmonic+0x4fb>
    212e:	ffc5c6        	j	2049 <pitch_by_harmonic+0x501>

00002131 <pitch_by_harmonic+0x5e9>:
    2131:	02d2e2        	addmi	a14, a2, 0x200
    2134:	0d0c           	movi.n	a13, 0
    2136:	8362d2        	s32i	a13, a2, 0x20c
    2139:	0a5ed2        	s16i	a13, a14, 20
    213c:	f01d           	retw.n

0000213e <pitch_by_harmonic+0x5f6>:
	...

00002140 <pitch_by_harmonic+0x5f8>:
    2140:	1897f2        	l16si	a15, a7, 48
    2143:	cfac           	beqz.n	a15, 2173 <pitch_by_harmonic+0x62b>
    2145:	87f8           	l32i.n	a15, a7, 32
    2147:	f81f81        	l32r	a8, 1c4 (1f000000 <_end+0x1eff3560>)
    214a:	2528f7        	blt	a8, a15, 2173 <pitch_by_harmonic+0x62b>
    214d:	f81e91        	l32r	a9, 1c8 (bffffff <_end+0xbff355f>)
    2150:	1fa9f7        	bge	a9, a15, 2173 <pitch_by_harmonic+0x62b>
    2153:	604c04        	ae_lq32f.i	aeq1, a12, 0
    2156:	f80ba1        	l32r	a10, 184 (aaaab <_end+0x9e00b>)
    2159:	28c7b2        	addi	a11, a7, 40
    215c:	608b04        	ae_lq32f.i	aeq2, a11, 0
    215f:	f8caa22aaf 	{ ae_movpa24x2	aep2, a10, a10; ae_subsq56s	aeq0, aeq1, aeq2 }
    2164:	08ad94        	ae_mulrfq32sp24s.l	aeq3, aeq2, aep2
    2167:	061864        	ae_absq56	aeq0, aeq0
    216a:	098394        	ae_ltq56s	b9, aeq3, aeq0
    216d:	021976        	bt	b9, 2173 <pitch_by_harmonic+0x62b>
    2170:	ffc706        	j	2090 <pitch_by_harmonic+0x548>

00002173 <pitch_by_harmonic+0x62b>:
    2173:	0f0c           	movi.n	a15, 0
    2175:	0d0c           	movi.n	a13, 0
    2177:	87d9           	s32i.n	a13, a7, 32
    2179:	ffc4c6        	j	2090 <pitch_by_harmonic+0x548>

0000217c <pitch_by_harmonic+0x634>:
    217c:	0e0c           	movi.n	a14, 0
    217e:	a7e9           	s32i.n	a14, a7, 40
    2180:	1857e2        	s16i	a14, a7, 48
    2183:	f01d           	retw.n

00002185 <pitch_by_harmonic+0x63d>:
    2185:	000000                                        ...

00002188 <XMAX6>:
    2188:	004136        	entry	a1, 32
    218b:	024d           	mov.n	a4, a2
    218d:	5438           	l32i.n	a3, a4, 20
    218f:	4458           	l32i.n	a5, a4, 16
    2191:	1488           	l32i.n	a8, a4, 4
    2193:	0228           	l32i.n	a2, a2, 0
    2195:	2478           	l32i.n	a7, a4, 8
    2197:	3468           	l32i.n	a6, a4, 12
    2199:	532280        	max	a2, a2, a8
    219c:	532270        	max	a2, a2, a7
    219f:	532260        	max	a2, a2, a6
    21a2:	532250        	max	a2, a2, a5
    21a5:	532230        	max	a2, a2, a3
    21a8:	f01d           	retw.n

000021aa <XMAX6+0x22>:
	...

000021ac <Xfrac_num_pd_td16>:
    21ac:	008136        	entry	a1, 64
    21af:	f80791        	l32r	a9, 1cc (5a8200 <_end+0x59b760>)
    21b2:	4002f4        	ae_lp16f.i	aep0, a2, -2
    21b5:	ff042c221f 	{ ae_lp16f.i	aep2, a2, 2; ae_cvtq48p24s.h	aeq3, aep0 }
    21ba:	fd442c120f 	{ ae_lp16f.i	aep1, a2, 0; ae_cvtq48p24s.h	aeq1, aep2 }
    21bf:	fe2414513f 	{ s32i.n	a3, a1, 20; ae_cvtq48p24s.h	aeq2, aep1 }
    21c4:	f856a2199f 	{ ae_movpa24x2	aep1, a9, a9; ae_subsq56s	aeq0, aeq2, aeq1 }
    21c9:	f8044014bf 	{ movi	a11, 20; ae_mulfq32sp24s.h	aeq1, aeq0, aep1 }
    21ce:	f8d6b9810f 	{ ae_sq32f.i	aeq0, a1, 0; ae_subsq56s	aeq0, aeq2, aeq3 }
    21d3:	d64800418e 	{ addi	a8, a1, 4; ae_ltq56s	b0, aeq0, aeq1 }
    21d8:	620804        	ae_sq32f.i	aeq0, a8, 0
    21db:	f9847d210f 	{ ae_lq32f.i	aeq1, a1, 0; ae_mulfq32sp24s.l	aeq3, aeq0, aep1 }
    21e0:	490076        	bf	b0, 222d <Xfrac_num_pd_td16+0x81>
    21e3:	f7e3a1        	l32r	a10, 170 (100000 <_end+0xf3560>)
    21e6:	39baa4        	ae_movpa24x2	aep3, a10, a10
    21e9:	083d64        	ae_mulfq32sp24s.l	aeq1, aeq1, aep3
    21ec:	099014        	ae_ltq56s	b1, aeq0, aeq1
    21ef:	f7ff81        	l32r	a8, 1ec (c28f0000 <_end+0xc28e3560>)
    21f2:	020176        	bf	b1, 21f8 <Xfrac_num_pd_td16+0x4c>
    21f5:	003b06        	j	22e5 <Xfrac_num_pd_td16+0x139>
    21f8:	36d054        	ae_sllisq56s	aeq3, aeq1, 1
    21fb:	fe84c014cf 	{ movi	a12, 20; ae_satq48s	aeq2, aeq3 }
    2200:	d6508081be 	{ addi	a11, a1, 8; ae_ltq56s	b2, aeq0, aeq2 }
    2205:	e43a           	add.n	a14, a4, a3
    2207:	11ee00        	slli	a14, a14, 16
    220a:	021276        	bt	b2, 2210 <Xfrac_num_pd_td16+0x64>
    220d:	0027c6        	j	22b0 <Xfrac_num_pd_td16+0x104>
    2210:	f7f0d1        	l32r	a13, 1d0 (cccd0000 <_end+0xcccc3560>)
    2213:	51e9           	s32i.n	a14, a1, 20
    2215:	6061c4        	ae_lq32f.x	aeq1, a1, a12
    2218:	21d9           	s32i.n	a13, a1, 8
    221a:	608b04        	ae_lq32f.i	aeq2, a11, 0
    221d:	35a3f4        	ae_sraiq56	aeq2, aeq2, 15
    2220:	015ac4        	ae_addq56	aeq1, aeq1, aeq2
    2223:	061834        	ae_roundsq32sym	aeq0, aeq1
    2226:	620b04        	ae_sq32f.i	aeq0, a11, 0
    2229:	2128           	l32i.n	a2, a1, 8
    222b:	f01d           	retw.n

0000222d <Xfrac_num_pd_td16+0x81>:
    222d:	604104        	ae_lq32f.i	aeq1, a1, 0
    2230:	d6ccc0009f 	{ movi	a9, 0; ae_ltq56s	b3, aeq3, aeq1 }
    2235:	f7e7f1        	l32r	a15, 1d4 (400000 <_end+0x3f3560>)
    2238:	39cff4        	ae_movpa24x2	aep4, a15, a15
    223b:	020376        	bf	b3, 2241 <Xfrac_num_pd_td16+0x95>
    223e:	002a06        	j	22ea <Xfrac_num_pd_td16+0x13e>
    2241:	084524        	ae_mulfq32sp24s.l	aeq0, aeq0, aep4
    2244:	d6493b009f 	{ ae_sraiq56	aeq2, aeq0, 1; ae_ltq56s	b4, aeq0, aeq1 }
    2249:	099254        	ae_ltq56s	b5, aeq2, aeq1
    224c:	f7e9a1        	l32r	a10, 1f0 (ccd0000 <_end+0xccc3560>)
    224f:	020476        	bf	b4, 2255 <Xfrac_num_pd_td16+0xa9>
    2252:	002686        	j	22f0 <Xfrac_num_pd_td16+0x144>
    2255:	270576        	bf	b5, 2280 <Xfrac_num_pd_td16+0xd4>
    2258:	4b1c           	movi.n	a11, 20
    225a:	a18b           	addi.n	a10, a1, 8
    225c:	c43a           	add.n	a12, a4, a3
    225e:	f7de51        	l32r	a5, 1d8 (199a0000 <_end+0x19993560>)
    2261:	2159           	s32i.n	a5, a1, 8
    2263:	11cc00        	slli	a12, a12, 16
    2266:	51c9           	s32i.n	a12, a1, 20
    2268:	608a04        	ae_lq32f.i	aeq2, a10, 0
    226b:	35a3f4        	ae_sraiq56	aeq2, aeq2, 15
    226e:	6061b4        	ae_lq32f.x	aeq1, a1, a11
    2271:	015ac4        	ae_addq56	aeq1, aeq1, aeq2
    2274:	061834        	ae_roundsq32sym	aeq0, aeq1
    2277:	620a04        	ae_sq32f.i	aeq0, a10, 0
    227a:	2128           	l32i.n	a2, a1, 8
    227c:	f01d           	retw.n

0000227e <Xfrac_num_pd_td16+0xd2>:
	...

00002280 <Xfrac_num_pd_td16+0xd4>:
    2280:	f7d791        	l32r	a9, 1dc (33330000 <_end+0x33323560>)
    2283:	f7d781        	l32r	a8, 1e0 (3d710000 <_end+0x3d703560>)
    2286:	35c0b4        	ae_sraiq56	aeq3, aeq0, 2
    2289:	099364        	ae_ltq56s	b6, aeq3, aeq1
    228c:	d38960        	movt	a8, a9, b6
    228f:	2189           	s32i.n	a8, a1, 8

00002291 <Xfrac_num_pd_td16+0xe5>:
    2291:	a18b           	addi.n	a10, a1, 8
    2293:	c43a           	add.n	a12, a4, a3
    2295:	11cc00        	slli	a12, a12, 16
    2298:	608a04        	ae_lq32f.i	aeq2, a10, 0
    229b:	35a3f4        	ae_sraiq56	aeq2, aeq2, 15
    229e:	51c9           	s32i.n	a12, a1, 20
    22a0:	6061b4        	ae_lq32f.x	aeq1, a1, a11
    22a3:	015ac4        	ae_addq56	aeq1, aeq1, aeq2
    22a6:	061834        	ae_roundsq32sym	aeq0, aeq1
    22a9:	620a04        	ae_sq32f.i	aeq0, a10, 0
    22ac:	2128           	l32i.n	a2, a1, 8
    22ae:	f01d           	retw.n

000022b0 <Xfrac_num_pd_td16+0x104>:
    22b0:	f7cd51        	l32r	a5, 1e4 (e6660000 <_end+0xe6653560>)
    22b3:	f7cdf1        	l32r	a15, 1e8 (f3330000 <_end+0xf3323560>)
    22b6:	36d094        	ae_sllisq56s	aeq3, aeq1, 2
    22b9:	643a           	add.n	a6, a4, a3
    22bb:	116600        	slli	a6, a6, 16
    22be:	fe84c081de 	{ addi	a13, a1, 8; ae_satq48s	aeq2, aeq3 }
    22c3:	d651c014ef 	{ movi	a14, 20; ae_ltq56s	b7, aeq0, aeq2 }
    22c8:	5169           	s32i.n	a6, a1, 20
    22ca:	60a1e4        	ae_lq32f.x	aeq2, a1, a14
    22cd:	d3f570        	movt	a15, a5, b7
    22d0:	21f9           	s32i.n	a15, a1, 8
    22d2:	60cd04        	ae_lq32f.i	aeq3, a13, 0
    22d5:	35f3f4        	ae_sraiq56	aeq3, aeq3, 15
    22d8:	01abc4        	ae_addq56	aeq2, aeq2, aeq3
    22db:	06e834        	ae_roundsq32sym	aeq3, aeq2
    22de:	623d04        	ae_sq32f.i	aeq3, a13, 0
    22e1:	2128           	l32i.n	a2, a1, 8
    22e3:	f01d           	retw.n

000022e5 <Xfrac_num_pd_td16+0x139>:
    22e5:	2189           	s32i.n	a8, a1, 8
    22e7:	ffe986        	j	2291 <Xfrac_num_pd_td16+0xe5>

000022ea <Xfrac_num_pd_td16+0x13e>:
    22ea:	2199           	s32i.n	a9, a1, 8
    22ec:	ffe846        	j	2291 <Xfrac_num_pd_td16+0xe5>

000022ef <Xfrac_num_pd_td16+0x143>:
	...

000022f0 <Xfrac_num_pd_td16+0x144>:
    22f0:	21a9           	s32i.n	a10, a1, 8
    22f2:	ffe6c6        	j	2291 <Xfrac_num_pd_td16+0xe5>

000022f5 <Xfrac_num_pd_td16+0x149>:
    22f5:	000000                                        ...

000022f8 <Xfrac_num_pd_td32>:
    22f8:	008136        	entry	a1, 64
    22fb:	60c214        	ae_lq32f.i	aeq3, a2, 4
    22fe:	608204        	ae_lq32f.i	aeq2, a2, 0
    2301:	f7b291        	l32r	a9, 1cc (5a8200 <_end+0x59b760>)
    2304:	398994        	ae_movpa24x2	aep0, a9, a9
    2307:	f9d6bd62ff 	{ ae_lq32f.i	aeq3, a2, -4; ae_subsq56s	aeq1, aeq2, aeq3 }
    230c:	f80179910f 	{ ae_sq32f.i	aeq1, a1, 0; ae_mulfq32sp24s.h	aeq1, aeq1, aep0 }
    2311:	f8d694513f 	{ s32i.n	a3, a1, 20; ae_subsq56s	aeq0, aeq2, aeq3 }
    2316:	d64800418e 	{ addi	a8, a1, 4; ae_ltq56s	b0, aeq0, aeq1 }
    231b:	620804        	ae_sq32f.i	aeq0, a8, 0
    231e:	f9807d210f 	{ ae_lq32f.i	aeq1, a1, 0; ae_mulfq32sp24s.l	aeq3, aeq0, aep0 }
    2323:	490076        	bf	b0, 2370 <Xfrac_num_pd_td32+0x78>
    2326:	f792a1        	l32r	a10, 170 (100000 <_end+0xf3560>)
    2329:	398aa4        	ae_movpa24x2	aep0, a10, a10
    232c:	080d64        	ae_mulfq32sp24s.l	aeq1, aeq1, aep0
    232f:	099014        	ae_ltq56s	b1, aeq0, aeq1
    2332:	f7ae81        	l32r	a8, 1ec (c28f0000 <_end+0xc28e3560>)
    2335:	020176        	bf	b1, 233b <Xfrac_num_pd_td32+0x43>
    2338:	003c46        	j	242d <Xfrac_num_pd_td32+0x135>
    233b:	36d054        	ae_sllisq56s	aeq3, aeq1, 1
    233e:	fe84c014cf 	{ movi	a12, 20; ae_satq48s	aeq2, aeq3 }
    2343:	d6508081be 	{ addi	a11, a1, 8; ae_ltq56s	b2, aeq0, aeq2 }
    2348:	e43a           	add.n	a14, a4, a3
    234a:	11ee00        	slli	a14, a14, 16
    234d:	021276        	bt	b2, 2353 <Xfrac_num_pd_td32+0x5b>
    2350:	002906        	j	23f8 <Xfrac_num_pd_td32+0x100>
    2353:	f79fd1        	l32r	a13, 1d0 (cccd0000 <_end+0xcccc3560>)
    2356:	51e9           	s32i.n	a14, a1, 20
    2358:	6061c4        	ae_lq32f.x	aeq1, a1, a12
    235b:	21d9           	s32i.n	a13, a1, 8
    235d:	608b04        	ae_lq32f.i	aeq2, a11, 0
    2360:	35a3f4        	ae_sraiq56	aeq2, aeq2, 15
    2363:	015ac4        	ae_addq56	aeq1, aeq1, aeq2
    2366:	061834        	ae_roundsq32sym	aeq0, aeq1
    2369:	620b04        	ae_sq32f.i	aeq0, a11, 0
    236c:	2128           	l32i.n	a2, a1, 8
    236e:	f01d           	retw.n

00002370 <Xfrac_num_pd_td32+0x78>:
    2370:	604104        	ae_lq32f.i	aeq1, a1, 0
    2373:	d6ccc0009f 	{ movi	a9, 0; ae_ltq56s	b3, aeq3, aeq1 }
    2378:	f797f1        	l32r	a15, 1d4 (400000 <_end+0x3f3560>)
    237b:	399ff4        	ae_movpa24x2	aep1, a15, a15
    237e:	020376        	bf	b3, 2384 <Xfrac_num_pd_td32+0x8c>
    2381:	002b46        	j	2432 <Xfrac_num_pd_td32+0x13a>
    2384:	081524        	ae_mulfq32sp24s.l	aeq0, aeq0, aep1
    2387:	099044        	ae_ltq56s	b4, aeq0, aeq1
    238a:	35c074        	ae_sraiq56	aeq3, aeq0, 1
    238d:	020476        	bf	b4, 2393 <Xfrac_num_pd_td32+0x9b>
    2390:	002906        	j	2438 <Xfrac_num_pd_td32+0x140>
    2393:	fe84c014bf 	{ movi	a11, 20; ae_satq48s	aeq2, aeq3 }
    2398:	d6c94081ae 	{ addi	a10, a1, 8; ae_ltq56s	b5, aeq2, aeq1 }
    239d:	c43a           	add.n	a12, a4, a3
    239f:	11cc00        	slli	a12, a12, 16
    23a2:	1c0576        	bf	b5, 23c2 <Xfrac_num_pd_td32+0xca>
    23a5:	f78c51        	l32r	a5, 1d8 (199a0000 <_end+0x19993560>)
    23a8:	51c9           	s32i.n	a12, a1, 20
    23aa:	6061b4        	ae_lq32f.x	aeq1, a1, a11
    23ad:	2159           	s32i.n	a5, a1, 8
    23af:	608a04        	ae_lq32f.i	aeq2, a10, 0
    23b2:	35a3f4        	ae_sraiq56	aeq2, aeq2, 15
    23b5:	015ac4        	ae_addq56	aeq1, aeq1, aeq2
    23b8:	061834        	ae_roundsq32sym	aeq0, aeq1
    23bb:	620a04        	ae_sq32f.i	aeq0, a10, 0
    23be:	2128           	l32i.n	a2, a1, 8
    23c0:	f01d           	retw.n

000023c2 <Xfrac_num_pd_td32+0xca>:
    23c2:	f78691        	l32r	a9, 1dc (33330000 <_end+0x33323560>)
    23c5:	f78681        	l32r	a8, 1e0 (3d710000 <_end+0x3d703560>)
    23c8:	35c0b4        	ae_sraiq56	aeq3, aeq0, 2
    23cb:	068b44        	ae_satq48s	aeq2, aeq3
    23ce:	099264        	ae_ltq56s	b6, aeq2, aeq1
    23d1:	d38960        	movt	a8, a9, b6
    23d4:	2189           	s32i.n	a8, a1, 8

000023d6 <Xfrac_num_pd_td32+0xde>:
    23d6:	4b1c           	movi.n	a11, 20
    23d8:	a18b           	addi.n	a10, a1, 8
    23da:	c43a           	add.n	a12, a4, a3
    23dc:	11cc00        	slli	a12, a12, 16
    23df:	608a04        	ae_lq32f.i	aeq2, a10, 0
    23e2:	35a3f4        	ae_sraiq56	aeq2, aeq2, 15
    23e5:	51c9           	s32i.n	a12, a1, 20
    23e7:	6061b4        	ae_lq32f.x	aeq1, a1, a11
    23ea:	015ac4        	ae_addq56	aeq1, aeq1, aeq2
    23ed:	061834        	ae_roundsq32sym	aeq0, aeq1
    23f0:	620a04        	ae_sq32f.i	aeq0, a10, 0
    23f3:	2128           	l32i.n	a2, a1, 8
    23f5:	f01d           	retw.n

000023f7 <Xfrac_num_pd_td32+0xff>:
	...

000023f8 <Xfrac_num_pd_td32+0x100>:
    23f8:	f77b51        	l32r	a5, 1e4 (e6660000 <_end+0xe6653560>)
    23fb:	f77bf1        	l32r	a15, 1e8 (f3330000 <_end+0xf3323560>)
    23fe:	36d094        	ae_sllisq56s	aeq3, aeq1, 2
    2401:	643a           	add.n	a6, a4, a3
    2403:	116600        	slli	a6, a6, 16
    2406:	fe84c081de 	{ addi	a13, a1, 8; ae_satq48s	aeq2, aeq3 }
    240b:	d651c014ef 	{ movi	a14, 20; ae_ltq56s	b7, aeq0, aeq2 }
    2410:	5169           	s32i.n	a6, a1, 20
    2412:	60a1e4        	ae_lq32f.x	aeq2, a1, a14
    2415:	d3f570        	movt	a15, a5, b7
    2418:	21f9           	s32i.n	a15, a1, 8
    241a:	60cd04        	ae_lq32f.i	aeq3, a13, 0
    241d:	35f3f4        	ae_sraiq56	aeq3, aeq3, 15
    2420:	01abc4        	ae_addq56	aeq2, aeq2, aeq3
    2423:	06e834        	ae_roundsq32sym	aeq3, aeq2
    2426:	623d04        	ae_sq32f.i	aeq3, a13, 0
    2429:	2128           	l32i.n	a2, a1, 8
    242b:	f01d           	retw.n

0000242d <Xfrac_num_pd_td32+0x135>:
    242d:	2189           	s32i.n	a8, a1, 8
    242f:	ffe8c6        	j	23d6 <Xfrac_num_pd_td32+0xde>

00002432 <Xfrac_num_pd_td32+0x13a>:
    2432:	2199           	s32i.n	a9, a1, 8
    2434:	ffe786        	j	23d6 <Xfrac_num_pd_td32+0xde>

00002437 <Xfrac_num_pd_td32+0x13f>:
	...

00002438 <Xfrac_num_pd_td32+0x140>:
    2438:	f76ea1        	l32r	a10, 1f0 (ccd0000 <_end+0xccc3560>)
    243b:	21a9           	s32i.n	a10, a1, 8
    243d:	ffe546        	j	23d6 <Xfrac_num_pd_td32+0xde>

00002440 <SBAEC_INIT>:
    2440:	008136        	entry	a1, 64
    2443:	f70e51        	l32r	a5, 7c (ca94 <p_ecnr_mem>)
    2446:	0b0c           	movi.n	a11, 0
    2448:	0548           	l32i.n	a4, a5, 0
    244a:	c0a0c2        	movi	a12, 192
    244d:	f71381        	l32r	a8, 9c (9dc8 <xt_memset>)
    2450:	3cd422        	addmi	a2, a4, 0x3c00
    2453:	3dd442        	addmi	a4, a4, 0x3d00
    2456:	40c222        	addi	a2, a2, 64
    2459:	20a220        	or	a10, a2, a2
    245c:	88c462        	addi	a6, a4, -120
    245f:	046162        	s32i	a6, a1, 16
    2462:	c8c472        	addi	a7, a4, -56
    2465:	08c462        	addi	a6, a4, 8
    2468:	48c442        	addi	a4, a4, 72
    246b:	0008e0        	callx8	a8
    246e:	0b0c           	movi.n	a11, 0
    2470:	05a8           	l32i.n	a10, a5, 0
    2472:	c0a4c2        	movi	a12, 0x4c0
    2475:	f70981        	l32r	a8, 9c (9dc8 <xt_memset>)
    2478:	1adaa2        	addmi	a10, a10, 0x1a00
    247b:	78caa2        	addi	a10, a10, 120
    247e:	0008e0        	callx8	a8
    2481:	f70731        	l32r	a3, a0 (ca9c <aec_nr_para>)
    2484:	03b8           	l32i.n	a11, a3, 0
    2486:	8d1c           	movi.n	a13, 24
    2488:	ce0c           	movi.n	a14, 12
    248a:	041bc2        	l16ui	a12, a11, 8
    248d:	01d292        	addmi	a9, a2, 0x100
    2490:	d0c992        	addi	a9, a9, -48
    2493:	10ece0        	and	a14, a12, a14
    2496:	f4cee2        	addi	a14, a14, -12
    2499:	173e16        	beqz	a14, 2610 <SBAEC_INIT+0x1d0>

0000249c <SBAEC_INIT+0x5c>:
    249c:	0e4c           	movi.n	a14, 64
    249e:	04f3c0        	extui	a15, a12, 3, 1
    24a1:	150f56        	bnez	a15, 25f5 <SBAEC_INIT+0x1b5>
    24a4:	e39bc2        	l16si	a12, a11, 0x1c6
    24a7:	17fc16        	beqz	a12, 262a <SBAEC_INIT+0x1ea>
    24aa:	5199           	s32i.n	a9, a1, 20
    24ac:	131ba2        	l16ui	a10, a11, 38
    24af:	34e0c0        	extui	a14, a12, 0, 4
    24b2:	34f4c0        	extui	a15, a12, 4, 4
    24b5:	ff1b           	addi.n	a15, a15, 1
    24b7:	ee1b           	addi.n	a14, a14, 1
    24b9:	11eee0        	slli	a14, a14, 2
    24bc:	11ffd0        	slli	a15, a15, 3
    24bf:	b352f2        	s16i	a15, a2, 0x166
    24c2:	b252e2        	s16i	a14, a2, 0x164
    24c5:	8f8d           	ae_sext16	a8, a15
    24c7:	8eed           	ae_sext16	a14, a14
    24c9:	d81b           	addi.n	a13, a8, 1
    24cb:	b3d880        	movgez	a13, a8, a8
    24ce:	21d1d0        	srai	a13, a13, 1
    24d1:	43aae0        	min	a10, a10, a14
    24d4:	8ddd           	ae_sext16	a13, a13
    24d6:	43aad0        	min	a10, a10, a13
    24d9:	34d8c0        	extui	a13, a12, 8, 4
    24dc:	dd1b           	addi.n	a13, a13, 1
    24de:	11dde0        	slli	a13, a13, 2
    24e1:	b452d2        	s16i	a13, a2, 0x168
    24e4:	8ddd           	ae_sext16	a13, a13
    24e6:	43aad0        	min	a10, a10, a13
    24e9:	34dcc0        	extui	a13, a12, 12, 4
    24ec:	dd1b           	addi.n	a13, a13, 1
    24ee:	11dde0        	slli	a13, a13, 2
    24f1:	b552d2        	s16i	a13, a2, 0x16a
    24f4:	8ddd           	ae_sext16	a13, a13
    24f6:	43aad0        	min	a10, a10, a13
    24f9:	135ba2        	s16i	a10, a11, 38

000024fc <SBAEC_INIT+0xbc>:
    24fc:	bbeb           	addi.n	a11, a11, 14
    24fe:	f6e981        	l32r	a8, a4 (9de0 <xt_memcpy>)
    2501:	a22b           	addi.n	a10, a2, 2
    2503:	ec0c           	movi.n	a12, 14
    2505:	0008e0        	callx8	a8
    2508:	02ed           	mov.n	a14, a2
    250a:	03b8           	l32i.n	a11, a3, 0
    250c:	f73a81        	l32r	a8, 1f4 (2658 <Fill_CH_MEM_WB>)
    250f:	05f8           	l32i.n	a15, a5, 0
    2511:	061ba2        	l16ui	a10, a11, 12
    2514:	d81bc2        	l16ui	a12, a11, 0x1b0
    2517:	d99bd2        	l16si	a13, a11, 0x1b2
    251a:	24df92        	addmi	a9, a15, 0x2400
    251d:	f8c992        	addi	a9, a9, -8
    2520:	1152d2        	s16i	a13, a2, 34
    2523:	1052c2        	s16i	a12, a2, 32
    2526:	1adff2        	addmi	a15, a15, 0x1a00
    2529:	78cff2        	addi	a15, a15, 120
    252c:	06cd           	mov.n	a12, a6
    252e:	04dd           	mov.n	a13, a4
    2530:	c61bb2        	l16ui	a11, a11, 0x18c
    2533:	11aac0        	slli	a10, a10, 4
    2536:	92a9           	s32i.n	a10, a2, 36
    2538:	0f52b2        	s16i	a11, a2, 30
    253b:	41a8           	l32i.n	a10, a1, 16
    253d:	07bd           	mov.n	a11, a7
    253f:	0199           	s32i.n	a9, a1, 0
    2541:	0008e0        	callx8	a8
    2544:	41a8           	l32i.n	a10, a1, 16
    2546:	b292b2        	l16si	a11, a2, 0x164
    2549:	1d0c           	movi.n	a13, 1
    254b:	03c8           	l32i.n	a12, a3, 0
    254d:	05e8           	l32i.n	a14, a5, 0
    254f:	f72a81        	l32r	a8, 1f8 (2640 <Fill_sbco>)
    2552:	169cc2        	l16si	a12, a12, 44
    2555:	19dee2        	addmi	a14, a14, 0x1900
    2558:	552e92        	l32i	a9, a14, 0x154
    255b:	e499           	s32i.n	a9, a4, 56
    255d:	512ee2        	l32i	a14, a14, 0x144
    2560:	d4e9           	s32i.n	a14, a4, 52
    2562:	0008e0        	callx8	a8
    2565:	07ad           	mov.n	a10, a7
    2567:	1d0c           	movi.n	a13, 1
    2569:	03c8           	l32i.n	a12, a3, 0
    256b:	b392e2        	l16si	a14, a2, 0x166
    256e:	f72281        	l32r	a8, 1f8 (2640 <Fill_sbco>)
    2571:	179cc2        	l16si	a12, a12, 46
    2574:	be1b           	addi.n	a11, a14, 1
    2576:	b3bee0        	movgez	a11, a14, a14
    2579:	21b1b0        	srai	a11, a11, 1
    257c:	8bbd           	ae_sext16	a11, a11
    257e:	0008e0        	callx8	a8
    2581:	06ad           	mov.n	a10, a6
    2583:	b492b2        	l16si	a11, a2, 0x168
    2586:	03c8           	l32i.n	a12, a3, 0
    2588:	f71c81        	l32r	a8, 1f8 (2640 <Fill_sbco>)
    258b:	1d0c           	movi.n	a13, 1
    258d:	189cc2        	l16si	a12, a12, 48
    2590:	0008e0        	callx8	a8
    2593:	04ad           	mov.n	a10, a4
    2595:	5168           	l32i.n	a6, a1, 20
    2597:	f71971        	l32r	a7, 1fc (1928 <Pitch_by_Corel+0x4cc>)
    259a:	b592b2        	l16si	a11, a2, 0x16a
    259d:	03c8           	l32i.n	a12, a3, 0
    259f:	f71681        	l32r	a8, 1f8 (2640 <Fill_sbco>)
    25a2:	1d0c           	movi.n	a13, 1
    25a4:	199cc2        	l16si	a12, a12, 50
    25a7:	0008e0        	callx8	a8
    25aa:	05e8           	l32i.n	a14, a5, 0
    25ac:	03f8           	l32i.n	a15, a3, 0
    25ae:	ee7a           	add.n	a14, a14, a7
    25b0:	151fc2        	l16ui	a12, a15, 42
    25b3:	021fb2        	l16ui	a11, a15, 4
    25b6:	041fd2        	l16ui	a13, a15, 8
    25b9:	231fa2        	l16ui	a10, a15, 70
    25bc:	051f92        	l16ui	a9, a15, 10
    25bf:	0480d0        	extui	a8, a13, 0, 1
    25c2:	14d1d0        	extui	a13, a13, 1, 2
    25c5:	a45282        	s16i	a8, a2, 0x148
    25c8:	dc1ff2        	l16ui	a15, a15, 0x1b8
    25cb:	f70d81        	l32r	a8, 200 (7fff <NR_vad2+0xe3>)
    25ce:	7d5ec2        	s16i	a12, a14, 250
    25d1:	825ed2        	s16i	a13, a14, 0x104
    25d4:	62bd           	ae_s16i.n	a11, a2, 0
    25d6:	a652a2        	s16i	a10, a2, 0x14c
    25d9:	a55292        	s16i	a9, a2, 0x14a
    25dc:	155282        	s16i	a8, a2, 42
    25df:	7e46f2        	s8i	a15, a6, 126
    25e2:	03d8           	l32i.n	a13, a3, 0
    25e4:	dc1dd2        	l16ui	a13, a13, 0x1b8
    25e7:	452ee2        	l32i	a14, a14, 0x114
    25ea:	2466e2        	s32i	a14, a6, 144
    25ed:	41d8d0        	srli	a13, a13, 8
    25f0:	7f46d2        	s8i	a13, a6, 127
    25f3:	f01d           	retw.n

000025f5 <SBAEC_INIT+0x1b5>:
    25f5:	b452e2        	s16i	a14, a2, 0x168
    25f8:	5199           	s32i.n	a9, a1, 20
    25fa:	60a0f2        	movi	a15, 96
    25fd:	c0a082        	movi	a8, 192
    2600:	00a1a2        	movi	a10, 0x100
    2603:	b252a2        	s16i	a10, a2, 0x164
    2606:	b35282        	s16i	a8, a2, 0x166
    2609:	b552f2        	s16i	a15, a2, 0x16a
    260c:	ffbb06        	j	24fc <SBAEC_INIT+0xbc>

0000260f <SBAEC_INIT+0x1cf>:
	...

00002610 <SBAEC_INIT+0x1d0>:
    2610:	f6fd81        	l32r	a8, 204 (fff7 <_end+0x3557>)
    2613:	7e1c           	movi.n	a14, 23
    2615:	131bf2        	l16ui	a15, a11, 38
    2618:	10cc80        	and	a12, a12, a8
    261b:	045bc2        	s16i	a12, a11, 8
    261e:	023ef7        	bltu	a14, a15, 2624 <SBAEC_INIT+0x1e4>
    2621:	ff9dc6        	j	249c <SBAEC_INIT+0x5c>
    2624:	135bd2        	s16i	a13, a11, 38
    2627:	ff9c46        	j	249c <SBAEC_INIT+0x5c>

0000262a <SBAEC_INIT+0x1ea>:
    262a:	b252e2        	s16i	a14, a2, 0x164
    262d:	b452d2        	s16i	a13, a2, 0x168
    2630:	5199           	s32i.n	a9, a1, 20
    2632:	0a2c           	movi.n	a10, 32
    2634:	0c3c           	movi.n	a12, 48
    2636:	b352c2        	s16i	a12, a2, 0x166
    2639:	b552a2        	s16i	a10, a2, 0x16a
    263c:	ffaf06        	j	24fc <SBAEC_INIT+0xbc>

0000263f <SBAEC_INIT+0x1ff>:
	...

00002640 <Fill_sbco>:
    2640:	004136        	entry	a1, 32
    2643:	115232        	s16i	a3, a2, 34
    2646:	125252        	s16i	a5, a2, 36
    2649:	118400        	slli	a8, a4, 16
    264c:	f6ed61        	l32r	a6, 200 (7fff <NR_vad2+0xe3>)
    264f:	105262        	s16i	a6, a2, 32
    2652:	5289           	s32i.n	a8, a2, 20
    2654:	4289           	s32i.n	a8, a2, 16
    2656:	f01d           	retw.n

00002658 <Fill_CH_MEM_WB>:
    2658:	004136        	entry	a1, 32
    265b:	8188           	l32i.n	a8, a1, 32
    265d:	b596e2        	l16si	a14, a6, 0x16a
    2660:	b496a2        	l16si	a10, a6, 0x168
    2663:	b296c2        	l16si	a12, a6, 0x164
    2666:	b396b2        	l16si	a11, a6, 0x166
    2669:	a279           	s32i.n	a7, a2, 40
    266b:	909c70        	addx2	a9, a12, a7
    266e:	a399           	s32i.n	a9, a3, 40
    2670:	90db90        	addx2	a13, a11, a9
    2673:	a4d9           	s32i.n	a13, a4, 40
    2675:	90dad0        	addx2	a13, a10, a13
    2678:	a5d9           	s32i.n	a13, a5, 40
    267a:	90eed0        	addx2	a14, a14, a13
    267d:	90cce0        	addx2	a12, a12, a14
    2680:	90bbc0        	addx2	a11, a11, a12
    2683:	90aab0        	addx2	a10, a10, a11
    2686:	b2e9           	s32i.n	a14, a2, 44
    2688:	a2f8           	l32i.n	a15, a2, 40
    268a:	a4e8           	l32i.n	a14, a4, 40
    268c:	b3c9           	s32i.n	a12, a3, 44
    268e:	b4b9           	s32i.n	a11, a4, 44
    2690:	28c8c2        	addi	a12, a8, 40
    2693:	50c8b2        	addi	a11, a8, 80
    2696:	b5a9           	s32i.n	a10, a5, 44
    2698:	c399           	s32i.n	a9, a3, 48
    269a:	64c8a2        	addi	a10, a8, 100
    269d:	78c892        	addi	a9, a8, 120
    26a0:	c2f9           	s32i.n	a15, a2, 48
    26a2:	c4e9           	s32i.n	a14, a4, 48
    26a4:	c5d9           	s32i.n	a13, a5, 48
    26a6:	d389           	s32i.n	a8, a3, 52
    26a8:	f3c9           	s32i.n	a12, a3, 60
    26aa:	01d882        	addmi	a8, a8, 0x100
    26ad:	d2b9           	s32i.n	a11, a2, 52
    26af:	8cc8c2        	addi	a12, a8, -116
    26b2:	a0c8b2        	addi	a11, a8, -96
    26b5:	d4a9           	s32i.n	a10, a4, 52
    26b7:	f299           	s32i.n	a9, a2, 60
    26b9:	c8c8a2        	addi	a10, a8, -56
    26bc:	f0c892        	addi	a9, a8, -16
    26bf:	f4c9           	s32i.n	a12, a4, 60
    26c1:	884b           	addi.n	a8, a8, 4
    26c3:	f5b9           	s32i.n	a11, a5, 60
    26c5:	e3a9           	s32i.n	a10, a3, 56
    26c7:	e299           	s32i.n	a9, a2, 56
    26c9:	e489           	s32i.n	a8, a4, 56
    26cb:	f01d           	retw.n

000026cd <Fill_CH_MEM_WB+0x75>:
    26cd:	000000                                        ...

000026d0 <common_x_pow>:
    26d0:	006136        	entry	a1, 48
    26d3:	36c434        	ae_cvtq48a32s	aeq3, a4
    26d6:	fe84bec33f 	{ ae_cvtq48a32s	aeq0, a3; ae_absq56	aeq2, aeq3 }
    26db:	065864        	ae_absq56	aeq1, aeq0
    26de:	09a104        	ae_ltq56s	b0, aeq1, aeq2
    26e1:	f6c951        	l32r	a5, 208 (200000 <_end+0x1f3560>)
    26e4:	550076        	bf	b0, 273d <common_x_pow+0x6d>
    26e7:	fb36fec57f 	{ ae_cvtq48a32s	aeq1, a5; ae_subq56	aeq3, aeq2, aeq1 }
    26ec:	09b164        	ae_ltq56s	b6, aeq1, aeq3
    26ef:	f6c881        	l32r	a8, 210 (c170 <immediate_num>)
    26f2:	f6c691        	l32r	a9, 20c (2aaa00 <_end+0x29df60>)
    26f5:	240676        	bf	b6, 271d <common_x_pow+0x4d>
    26f8:	440804        	ae_lp16x2f.i	aep0, a8, 0
    26fb:	399994        	ae_movpa24x2	aep1, a9, a9
    26fe:	d5e63d222f 	{ ae_lq32f.i	aeq1, a2, 8; ae_mulfq32sp16s.l	aeq2, aeq0, aep1 }
    2703:	c10844        	ae_mulzaafq32sp16s.lh	aeq1, aeq1, aep0, aeq0, aep0
    2706:	ff347d423f 	{ ae_lq32f.i	aeq2, a2, 12; ae_roundsq32asym	aeq3, aeq2 }
    270b:	c180b4        	ae_mulzaafq32sp16s.lh	aeq2, aeq2, aep0, aeq3, aep0
    270e:	06d934        	ae_roundsq32asym	aeq3, aeq1
    2711:	fd3479b22f 	{ ae_sq32f.i	aeq3, a2, 8; ae_roundsq32asym	aeq1, aeq2 }
    2716:	621234        	ae_sq32f.i	aeq1, a2, 12
    2719:	120c           	movi.n	a2, 1
    271b:	f01d           	retw.n

0000271d <common_x_pow+0x4d>:
    271d:	f6bca1        	l32r	a10, 210 (c170 <immediate_num>)
    2720:	60c224        	ae_lq32f.i	aeq3, a2, 8
    2723:	442a04        	ae_lp16x2f.i	aep2, a10, 0
    2726:	0f497d223f 	{ ae_lq32f.i	aeq1, a2, 12; ae_mulzaafq32sp16s.lh	aeq3, aeq3, aep2, aeq0, aep2 }
    272b:	c12a44        	ae_mulzaafq32sp16s.lh	aeq1, aeq1, aep2, aeq0, aep2
    272e:	06b934        	ae_roundsq32asym	aeq2, aeq3
    2731:	ff2c79a22f 	{ ae_sq32f.i	aeq2, a2, 8; ae_roundsq32asym	aeq3, aeq1 }
    2736:	623234        	ae_sq32f.i	aeq3, a2, 12
    2739:	120c           	movi.n	a2, 1
    273b:	f01d           	retw.n

0000273d <common_x_pow+0x6d>:
    273d:	f6b4b1        	l32r	a11, 210 (c170 <immediate_num>)
    2740:	604224        	ae_lq32f.i	aeq1, a2, 8
    2743:	443b04        	ae_lp16x2f.i	aep3, a11, 0
    2746:	0c6d7d423f 	{ ae_lq32f.i	aeq2, a2, 12; ae_mulzaafq32sp16s.lh	aeq1, aeq1, aep3, aeq0, aep3 }
    274b:	c1b3b4        	ae_mulzaafq32sp16s.lh	aeq2, aeq2, aep3, aeq3, aep3
    274e:	065934        	ae_roundsq32asym	aeq1, aeq1
    2751:	fd3479922f 	{ ae_sq32f.i	aeq1, a2, 8; ae_roundsq32asym	aeq1, aeq2 }
    2756:	621234        	ae_sq32f.i	aeq1, a2, 12
    2759:	020c           	movi.n	a2, 0
    275b:	f01d           	retw.n

0000275d <common_x_pow+0x8d>:
    275d:	000000                                        ...

00002760 <ref_gain_adapt>:
    2760:	004136        	entry	a1, 32
    2763:	f6ac81        	l32r	a8, 214 (c174 <immediate_num+0x4>)
    2766:	5378           	l32i.n	a7, a3, 20
    2768:	360734        	ae_cvtq48a32s	aeq0, a7
    276b:	0395d6        	bgez	a5, 27a8 <ref_gain_adapt+0x48>
    276e:	440804        	ae_lp16x2f.i	aep0, a8, 0
    2771:	059262        	l16si	a6, a2, 10
    2774:	368434        	ae_cvtq48a32s	aeq2, a4
    2777:	038a84        	ae_mulfq32sp16s.h	aeq3, aeq2, aep0
    277a:	116600        	slli	a6, a6, 16
    277d:	364634        	ae_cvtq48a32s	aeq1, a6
    2780:	09b104        	ae_ltq56s	b0, aeq1, aeq3
    2783:	f6a1a1        	l32r	a10, 208 (200000 <_end+0x1f3560>)
    2786:	370076        	bf	b0, 27c1 <ref_gain_adapt+0x61>
    2789:	a10804        	ae_mulzaafq32sp16s.ll	aeq1, aeq0, aep0, aeq0, aep0
    278c:	06d934        	ae_roundsq32asym	aeq3, aeq1
    278f:	36b904        	ae_trunca32q48	a9, aeq3
    2792:	608344        	ae_lq32f.i	aeq2, a3, 16
    2795:	5399a0        	max	a9, a9, a10
    2798:	5399           	s32i.n	a9, a3, 20
    279a:	441844        	ae_lp16x2f.i	aep1, a8, 16
    279d:	c191b4        	ae_mulzaafq32sp16s.lh	aeq2, aeq2, aep1, aeq3, aep1
    27a0:	066934        	ae_roundsq32asym	aeq1, aeq2
    27a3:	621344        	ae_sq32f.i	aeq1, a3, 16
    27a6:	f01d           	retw.n

000027a8 <ref_gain_adapt+0x48>:
    27a8:	f698b1        	l32r	a11, 208 (200000 <_end+0x1f3560>)
    27ab:	60c344        	ae_lq32f.i	aeq3, a3, 16
    27ae:	53b7b0        	max	a11, a7, a11
    27b1:	53b9           	s32i.n	a11, a3, 20
    27b3:	442844        	ae_lp16x2f.i	aep2, a8, 16
    27b6:	c1aac4        	ae_mulzaafq32sp16s.lh	aeq3, aeq3, aep2, aeq0, aep2
    27b9:	06b934        	ae_roundsq32asym	aeq2, aeq3
    27bc:	622344        	ae_sq32f.i	aeq2, a3, 16
    27bf:	f01d           	retw.n

000027c1 <ref_gain_adapt+0x61>:
    27c1:	440814        	ae_lp16x2f.i	aep0, a8, 4
    27c4:	038a84        	ae_mulfq32sp16s.h	aeq3, aeq2, aep0
    27c7:	09b114        	ae_ltq56s	b1, aeq1, aeq3
    27ca:	f68fd1        	l32r	a13, 208 (200000 <_end+0x1f3560>)
    27cd:	3b0176        	bf	b1, 280c <ref_gain_adapt+0xac>
    27d0:	a10004        	ae_mulzaafq32sp16s.ll	aeq0, aeq0, aep0, aeq0, aep0
    27d3:	06c934        	ae_roundsq32asym	aeq3, aeq0
    27d6:	36bc04        	ae_trunca32q48	a12, aeq3
    27d9:	608344        	ae_lq32f.i	aeq2, a3, 16
    27dc:	53ccd0        	max	a12, a12, a13
    27df:	53c9           	s32i.n	a12, a3, 20
    27e1:	443844        	ae_lp16x2f.i	aep3, a8, 16
    27e4:	c1b3b4        	ae_mulzaafq32sp16s.lh	aeq2, aeq2, aep3, aeq3, aep3
    27e7:	066934        	ae_roundsq32asym	aeq1, aeq2
    27ea:	621344        	ae_sq32f.i	aeq1, a3, 16
    27ed:	f01d           	retw.n

000027ef <ref_gain_adapt+0x8f>:
	...

000027f0 <ref_gain_adapt+0x90>:
    27f0:	06c934        	ae_roundsq32asym	aeq3, aeq0
    27f3:	36bc04        	ae_trunca32q48	a12, aeq3
    27f6:	608344        	ae_lq32f.i	aeq2, a3, 16
    27f9:	53ccd0        	max	a12, a12, a13
    27fc:	53c9           	s32i.n	a12, a3, 20
    27fe:	443844        	ae_lp16x2f.i	aep3, a8, 16
    2801:	c1b3b4        	ae_mulzaafq32sp16s.lh	aeq2, aeq2, aep3, aeq3, aep3
    2804:	066934        	ae_roundsq32asym	aeq1, aeq2
    2807:	621344        	ae_sq32f.i	aeq1, a3, 16
    280a:	f01d           	retw.n

0000280c <ref_gain_adapt+0xac>:
    280c:	440824        	ae_lp16x2f.i	aep0, a8, 8
    280f:	038a44        	ae_mulfq32sp16s.h	aeq3, aeq1, aep0
    2812:	09b224        	ae_ltq56s	b2, aeq2, aeq3
    2815:	f67cd1        	l32r	a13, 208 (200000 <_end+0x1f3560>)
    2818:	d5e36d483f 	{ ae_lp16x2f.i	aep4, a8, 12; ae_mulfq32sp16s.l	aeq3, aeq1, aep0 }
    281d:	cf0276        	bf	b2, 27f0 <ref_gain_adapt+0x90>
    2820:	09a334        	ae_ltq56s	b3, aeq3, aeq2
    2823:	01d2f2        	addmi	a15, a2, 0x100
    2826:	3e0c           	movi.n	a14, 3
    2828:	051376        	bt	b3, 2831 <ref_gain_adapt+0xd1>
    282b:	4e0ff2        	l8ui	a15, a15, 78
    282e:	be0ef7        	bnone	a14, a15, 27f0 <ref_gain_adapt+0x90>

00002831 <ref_gain_adapt+0xd1>:
    2831:	034214        	ae_mulfq32sp16s.l	aeq0, aeq0, aep4
    2834:	ffee06        	j	27f0 <ref_gain_adapt+0x90>

00002837 <ref_gain_adapt+0xd7>:
	...

00002838 <aec_post_calc>:
    2838:	006136        	entry	a1, 48
    283b:	f67791        	l32r	a9, 218 (80000 <_end+0x73560>)
    283e:	f632a1        	l32r	a10, 108 (10000 <_end+0x3560>)
    2841:	fcc482        	addi	a8, a4, -4
    2844:	098816        	beqz	a8, 28e0 <aec_post_calc+0xa8>
    2847:	0323c2        	l32i	a12, a3, 12
    284a:	364934        	ae_cvtq48a32s	aeq1, a9
    284d:	1ec2e2        	addi	a14, a2, 30
    2850:	400e04        	ae_lp16f.i	aep0, a14, 0
    2853:	d4e3f023be 	{ l32i	a11, a3, 8; ae_mulfq32sp16u.l	aeq1, aeq1, aep0 }
    2858:	360a34        	ae_cvtq48a32s	aeq0, a10
    285b:	d4e2b9910f 	{ ae_sq32f.i	aeq1, a1, 0; ae_mulfq32sp16u.l	aeq0, aeq0, aep0 }
    2860:	0021d2        	l32i	a13, a1, 0
    2863:	620104        	ae_sq32f.i	aeq0, a1, 0
    2866:	0021a2        	l32i	a10, a1, 0
    2869:	53bbd0        	max	a11, a11, a13
    286c:	53aca0        	max	a10, a12, a10
    286f:	43aba0        	min	a10, a11, a10

00002872 <aec_post_calc+0x3a>:
    2872:	f66a81        	l32r	a8, 21c (8c40 <airoha_divide_limit_1>)
    2875:	0008e0        	callx8	a8
    2878:	4c2244        	ae_lp24.i	aep2, a2, 16
    287b:	378aa4        	ae_truncp24a32x2	aep0, a10, a10
    287e:	60c364        	ae_lq32f.i	aeq3, a3, 24
    2881:	018a34        	ae_mulafp24s.ll	aeq3, aep0, aep2
    2884:	06b934        	ae_roundsq32asym	aeq2, aeq3
    2887:	622364        	ae_sq32f.i	aeq2, a3, 24
    288a:	1792a2        	l16si	a10, a2, 46
    288d:	029292        	l16si	a9, a2, 4
    2890:	604374        	ae_lq32f.i	aeq1, a3, 28
    2893:	1692b2        	l16si	a11, a2, 44
    2896:	1fa9a7        	bge	a9, a10, 28b9 <aec_post_calc+0x81>
    2899:	0a9292        	l16si	a9, a2, 20
    289c:	6b1ba6        	blti	a11, 1, 290b <aec_post_calc+0xd3>
    289f:	c92b           	addi.n	a12, a9, 2
    28a1:	0316c4        	wur.ae_sar	a12
    28a4:	f823ec327f 	{ ae_lp16f.i	aep3, a2, 14; ae_sllssp24s	aep1, aep0 }
    28a9:	071b14        	ae_maxp24s	aep1, aep1, aep3
    28ac:	011a34        	ae_mulafp24s.ll	aeq1, aep1, aep2
    28af:	061934        	ae_roundsq32asym	aeq0, aeq1
    28b2:	620374        	ae_sq32f.i	aeq0, a3, 28
    28b5:	f01d           	retw.n

000028b7 <aec_post_calc+0x7f>:
	...

000028b9 <aec_post_calc+0x81>:
    28b9:	0b92a2        	l16si	a10, a2, 22
    28bc:	404274        	ae_lp16f.i	aep4, a2, 14
    28bf:	f862fd637f 	{ ae_lq32f.i	aeq3, a3, 28; ae_movp48	aep1, aep0 }
    28c4:	0a2aa6        	blti	a10, 2, 28d2 <aec_post_calc+0x9a>
    28c7:	8a0b           	addi.n	a8, a10, -1
    28c9:	05a876        	loopgtz	a8, 28d2 <aec_post_calc+0x9a>
    28cc:	010174        	ae_mulfp24s.ll	aeq0, aep0, aep1
    28cf:	1b8d04        	ae_roundsp24q48asym	aep0, aeq0
    28d2:	070c44        	ae_maxp24s	aep4, aep0, aep4
    28d5:	01ca34        	ae_mulafp24s.ll	aeq3, aep4, aep2
    28d8:	06b934        	ae_roundsq32asym	aeq2, aeq3
    28db:	622374        	ae_sq32f.i	aeq2, a3, 28
    28de:	f01d           	retw.n

000028e0 <aec_post_calc+0xa8>:
    28e0:	33c8           	l32i.n	a12, a3, 12
    28e2:	364934        	ae_cvtq48a32s	aeq1, a9
    28e5:	20c2e2        	addi	a14, a2, 32
    28e8:	405e04        	ae_lp16f.i	aep5, a14, 0
    28eb:	d4f7f023be 	{ l32i	a11, a3, 8; ae_mulfq32sp16u.l	aeq1, aeq1, aep5 }
    28f0:	360a34        	ae_cvtq48a32s	aeq0, a10
    28f3:	d4f6b9910f 	{ ae_sq32f.i	aeq1, a1, 0; ae_mulfq32sp16u.l	aeq0, aeq0, aep5 }
    28f8:	01d8           	l32i.n	a13, a1, 0
    28fa:	620104        	ae_sq32f.i	aeq0, a1, 0
    28fd:	01a8           	l32i.n	a10, a1, 0
    28ff:	53bbd0        	max	a11, a11, a13
    2902:	53aca0        	max	a10, a12, a10
    2905:	43aba0        	min	a10, a11, a10
    2908:	ffd986        	j	2872 <aec_post_calc+0x3a>

0000290b <aec_post_calc+0xd3>:
    290b:	031694        	wur.ae_sar	a9
    290e:	fb23ac727f 	{ ae_lp16f.i	aep7, a2, 14; ae_sllssp24s	aep6, aep0 }
    2913:	dbfa3d637f 	{ ae_lq32f.i	aeq3, a3, 28; ae_maxp24s	aep6, aep6, aep7 }
    2918:	01ea34        	ae_mulafp24s.ll	aeq3, aep6, aep2
    291b:	06b934        	ae_roundsq32asym	aeq2, aeq3
    291e:	622374        	ae_sq32f.i	aeq2, a3, 28
    2921:	f01d           	retw.n

00002923 <aec_post_calc+0xeb>:
	...

00002924 <subband_aec_block>:
    2924:	00a136        	entry	a1, 80
    2927:	4129           	s32i.n	a2, a1, 16
    2929:	5139           	s32i.n	a3, a1, 20
    292b:	2169           	s32i.n	a6, a1, 8
    292d:	c388           	l32i.n	a8, a3, 48
    292f:	60c344        	ae_lq32f.i	aeq3, a3, 16
    2932:	4b0c           	movi.n	a11, 4
    2934:	1193c2        	l16si	a12, a3, 34
    2937:	5822a2        	l32i	a10, a2, 0x160
    293a:	0e2392        	l32i	a9, a3, 56
    293d:	0a23d2        	l32i	a13, a3, 40
    2940:	f3f6d0        	wur.ae_cbegin0	a13
    2943:	440904        	ae_lp16x2f.i	aep0, a9, 0
    2946:	fccaa2        	addi	a10, a10, -4
    2949:	90ccd0        	addx2	a12, a12, a13
    294c:	f3f7c0        	wur.ae_cend0	a12
    294f:	01c4c2        	addi	a12, a4, 1
    2952:	b3c440        	movgez	a12, a4, a4
    2955:	21c1c0        	srai	a12, a12, 1
    2958:	fe249431cf 	{ s32i.n	a12, a1, 12; ae_zeroq56	aeq2 }
    295d:	19ac76        	loopgtz	a12, 297a <subband_aec_block+0x56>
    2960:	12039ab8bf 	{ ae_lp16x2f.c	aep3, a8, a11; ae_mulzaafq32sp16s.ll	aeq0, aeq3, aep0, aeq3, aep0 }
    2965:	0a03ed891f 	{ ae_lp16x2f.iu	aep0, a9, 4; ae_mulzaafq32sp16s.hh	aeq1, aeq3, aep0, aeq3, aep0 }
    296a:	1b8f14        	ae_roundsp16q48asym	aep1, aeq0
    296d:	1b9f24        	ae_roundsp16q48asym	aep2, aeq1
    2970:	f16e3e21df 	{ ae_selp24.hl	aep3, aep2, aep1; ae_mulssfp24s.hh.ll	aeq2, aep3, aep3 }
    2975:	e36c33ba1f 	{ ae_sp16x2f.iu	aep3, a10, 4; ae_mulaafp24s.hh.ll	aeq2, aep3, aep3 }

0000297a <subband_aec_block+0x56>:
    297a:	5198           	l32i.n	a9, a1, 20
    297c:	41a8           	l32i.n	a10, a1, 16
    297e:	35a234        	ae_sraiq56	aeq2, aeq2, 8
    2981:	614904        	ae_lq56.i	aeq1, a9, 0
    2984:	f9ea309aae 	{ l32i	a10, a10, 36; ae_addq56	aeq1, aeq1, aeq2 }
    2989:	ff04feca3f 	{ ae_cvtq48a32s	aeq0, a10; ae_satq48s	aeq3, aeq1 }
    298e:	01c3c4        	ae_maxq56s	aeq3, aeq3, aeq0
    2991:	633904        	ae_sq56s.i	aeq3, a9, 0
    2994:	0125d6        	bgez	a5, 29aa <subband_aec_block+0x86>
    2997:	1099a2        	l16si	a10, a9, 32
    299a:	f62181        	l32r	a8, 220 (8b28 <airoha_divide>)
    299d:	36bb04        	ae_trunca32q48	a11, aeq3
    29a0:	11aa70        	slli	a10, a10, 9
    29a3:	0008e0        	callx8	a8
    29a6:	01b9           	s32i.n	a11, a1, 0
    29a8:	11a9           	s32i.n	a10, a1, 4

000029aa <subband_aec_block+0x86>:
    29aa:	51f8           	l32i.n	a15, a1, 20
    29ac:	270c           	movi.n	a7, 2
    29ae:	4128           	l32i.n	a2, a1, 16
    29b0:	cf88           	l32i.n	a8, a15, 48
    29b2:	ff98           	l32i.n	a9, a15, 60
    29b4:	119f62        	l16si	a6, a15, 34
    29b7:	582222        	l32i	a2, a2, 0x160
    29ba:	6169           	s32i.n	a6, a1, 24
    29bc:	bf68           	l32i.n	a6, a15, 44
    29be:	fec222        	addi	a2, a2, -2
    29c1:	dff8           	l32i.n	a15, a15, 52
    29c3:	fec9c2        	addi	a12, a9, -2
    29c6:	fec662        	addi	a6, a6, -2
    29c9:	fecfd2        	addi	a13, a15, -2
    29cc:	6614a6        	blti	a4, 1, 2a36 <subband_aec_block+0x112>
    29cf:	030c           	movi.n	a3, 0
    29d1:	069d           	mov.n	a9, a6

000029d3 <subband_aec_block+0xaf>:
    29d3:	61b8           	l32i.n	a11, a1, 24
    29d5:	409214        	ae_lp16f.iu	aep1, a2, 2
    29d8:	fc24e2987f 	{ ae_sp16f.l.c	aep1, a8, a7; nop }
    29dd:	408d14        	ae_lp16f.iu	aep0, a13, 2
    29e0:	fc0c2c991f 	{ ae_lp16f.iu	aep1, a9, 2; ae_cvtq48p24s.l	aeq0, aep0 }
    29e5:	09ab76        	loopgtz	a11, 29f2 <subband_aec_block+0xce>
    29e8:	fc24d9087f 	{ ae_lp16f.c	aep0, a8, a7; nop }
    29ed:	ee05ac991f 	{ ae_lp16f.iu	aep1, a9, 2; ae_mulsfp24s.ll	aeq0, aep1, aep0 }

000029f2 <subband_aec_block+0xce>:
    29f2:	f86380133e 	{ addi	a3, a3, 1; ae_roundsp16q48asym	aep0, aeq0 }
    29f7:	428c14        	ae_sp16f.l.iu	aep0, a12, 2
    29fa:	02a5d6        	bgez	a5, 2a28 <subband_aec_block+0x104>
    29fd:	61b8           	l32i.n	a11, a1, 24
    29ff:	0198           	l32i.n	a9, a1, 0
    2a01:	360934        	ae_cvtq48a32s	aeq0, a9
    2a04:	d4e23011fe 	{ l32i	a15, a1, 4; ae_mulfq32sp16s.l	aeq0, aeq0, aep0 }
    2a09:	069d           	mov.n	a9, a6
    2a0b:	fc24fe8fcf 	{ ae_slaasq56s	aeq3, aeq0, a15; nop }
    2a10:	f97fac891f 	{ ae_lp16f.iu	aep0, a9, 2; ae_roundsp24q48asym	aep2, aeq3 }
    2a15:	0fab76        	loopgtz	a11, 2a28 <subband_aec_block+0x104>

00002a18 <subband_aec_block+0xf4>:
    2a18:	fc0c19087f 	{ ae_lp16f.c	aep0, a8, a7; ae_cvtq48p24s.l	aeq0, aep0 }
    2a1d:	e20bac891f 	{ ae_lp16f.iu	aep0, a9, 2; ae_mulafp24s.ll	aeq0, aep2, aep0 }
    2a22:	1b8f14        	ae_roundsp16q48asym	aep1, aeq0
    2a25:	4219f4        	ae_sp16f.l.i	aep1, a9, -2
    2a28:	069d           	mov.n	a9, a6
    2a2a:	a59437        	bne	a4, a3, 29d3 <subband_aec_block+0xaf>
    2a2d:	052192        	l32i	a9, a1, 20
    2a30:	0d29f2        	l32i	a15, a9, 52
    2a33:	0f2992        	l32i	a9, a9, 60

00002a36 <subband_aec_block+0x112>:
    2a36:	51b8           	l32i.n	a11, a1, 20
    2a38:	31a8           	l32i.n	a10, a1, 12
    2a3a:	0a5084        	ae_zeroq56	aeq1
    2a3d:	fc0c54cb8f 	{ s32i.n	a8, a11, 48; ae_movq56	aeq0, aeq1 }
    2a42:	1f1aa6        	blti	a10, 1, 2a65 <subband_aec_block+0x141>
    2a45:	aa0b           	addi.n	a10, a10, -1
    2a47:	fcc992        	addi	a9, a9, -4
    2a4a:	fccf82        	addi	a8, a15, -4
    2a4d:	448814        	ae_lp16x2f.iu	aep0, a8, 4
    2a50:	e2002d991f 	{ ae_lp16x2f.iu	aep1, a9, 4; ae_mulaafp24s.hh.ll	aeq0, aep0, aep0 }
    2a55:	09aa76        	loopgtz	a10, 2a62 <subband_aec_block+0x13e>
    2a58:	e2206d881f 	{ ae_lp16x2f.iu	aep0, a8, 4; ae_mulaafp24s.hh.ll	aeq1, aep0, aep1 }
    2a5d:	e2002d991f 	{ ae_lp16x2f.iu	aep1, a9, 4; ae_mulaafp24s.hh.ll	aeq0, aep0, aep0 }

00002a62 <subband_aec_block+0x13e>:
    2a62:	050904        	ae_mulaafp24s.hh.ll	aeq1, aep0, aep1

00002a65 <subband_aec_block+0x141>:
    2a65:	51a8           	l32i.n	a10, a1, 20
    2a67:	f5ef81        	l32r	a8, 224 (26d0 <common_x_pow>)
    2a6a:	358134        	ae_sraiq56	aeq2, aeq0, 4
    2a6d:	fc347b114f 	{ ae_sraiq56	aeq1, aeq1, 4; ae_roundsq32asym	aeq0, aeq2 }
    2a72:	ff2c7f0bef 	{ ae_trunca32q48	a11, aeq0; ae_roundsq32asym	aeq3, aeq1 }
    2a77:	36bc04        	ae_trunca32q48	a12, aeq3
    2a7a:	0008e0        	callx8	a8
    2a7d:	ca8c           	beqz.n	a10, 2a8d <subband_aec_block+0x169>
    2a7f:	51b8           	l32i.n	a11, a1, 20
    2a81:	04cd           	mov.n	a12, a4
    2a83:	f58881        	l32r	a8, a4 (9de0 <xt_memcpy>)
    2a86:	fba8           	l32i.n	a10, a11, 60
    2a88:	dbb8           	l32i.n	a11, a11, 52
    2a8a:	0008e0        	callx8	a8

00002a8d <subband_aec_block+0x169>:
    2a8d:	4198           	l32i.n	a9, a1, 16
    2a8f:	5188           	l32i.n	a8, a1, 20
    2a91:	0d9992        	l16si	a9, a9, 26
    2a94:	b8a8           	l32i.n	a10, a8, 44
    2a96:	ff24a1188e 	{ l16si	a8, a8, 34; ae_zeroq56	aeq3 }
    2a9b:	633144        	ae_sq56s.i	aeq3, a1, 32
    2a9e:	d91b           	addi.n	a13, a9, 1
    2aa0:	9088a0        	addx2	a8, a8, a10
    2aa3:	b3d990        	movgez	a13, a9, a9
    2aa6:	21d1d0        	srai	a13, a13, 1
    2aa9:	1199f0        	slli	a9, a9, 1
    2aac:	c08890        	sub	a8, a8, a9
    2aaf:	8ddd           	ae_sext16	a13, a13
    2ab1:	181da6        	blti	a13, 1, 2acd <subband_aec_block+0x1a9>
    2ab4:	610144        	ae_lq56.i	aeq0, a1, 32
    2ab7:	9d0b           	addi.n	a9, a13, -1
    2ab9:	fcc882        	addi	a8, a8, -4
    2abc:	448814        	ae_lp16x2f.iu	aep0, a8, 4
    2abf:	04a976        	loopgtz	a9, 2ac7 <subband_aec_block+0x1a3>
    2ac2:	e2002d881f 	{ ae_lp16x2f.iu	aep0, a8, 4; ae_mulaafp24s.hh.ll	aeq0, aep0, aep0 }

00002ac7 <subband_aec_block+0x1a3>:
    2ac7:	050004        	ae_mulaafp24s.hh.ll	aeq0, aep0, aep0
    2aca:	630144        	ae_sq56s.i	aeq0, a1, 32

00002acd <subband_aec_block+0x1a9>:
    2acd:	f5d381        	l32r	a8, 21c (8c40 <airoha_divide_limit_1>)
    2ad0:	0c0c           	movi.n	a12, 0
    2ad2:	51b8           	l32i.n	a11, a1, 20
    2ad4:	610144        	ae_lq56.i	aeq0, a1, 32
    2ad7:	3540b4        	ae_sraiq56	aeq1, aeq0, 2
    2ada:	fc2c703bae 	{ l32i	a10, a11, 12; ae_roundsq32asym	aeq0, aeq1 }
    2adf:	630144        	ae_sq56s.i	aeq0, a1, 32
    2ae2:	2bb8           	l32i.n	a11, a11, 8
    2ae4:	53aac0        	max	a10, a10, a12
    2ae7:	0008e0        	callx8	a8
    2aea:	31a0a0        	srai	a10, a10, 16
    2aed:	51d8           	l32i.n	a13, a1, 20
    2aef:	4198           	l32i.n	a9, a1, 16
    2af1:	f5c381        	l32r	a8, 200 (7fff <NR_vad2+0xe3>)
    2af4:	129dd2        	l16si	a13, a13, 36
    2af7:	049992        	l16si	a9, a9, 8
    2afa:	c088a0        	sub	a8, a8, a10
    2afd:	04e1d0        	extui	a14, a13, 1, 1
    2b00:	538890        	max	a8, a8, a9
    2b03:	09fe56        	bnez	a14, 2ba6 <subband_aec_block+0x282>
    2b06:	51a8           	l32i.n	a10, a1, 20
    2b08:	618144        	ae_lq56.i	aeq2, a1, 32
    2b0b:	36a404        	ae_trunca32q48	a4, aeq2
    2b0e:	105a82        	s16i	a8, a10, 32

00002b11 <subband_aec_block+0x1ed>:
    2b11:	41b8           	l32i.n	a11, a1, 16
    2b13:	059bb2        	l16si	a11, a11, 10
    2b16:	11bb00        	slli	a11, a11, 16
    2b19:	75ab47        	bge	a11, a4, 2b92 <subband_aec_block+0x26e>
    2b1c:	41c8           	l32i.n	a12, a1, 16
    2b1e:	f5c281        	l32r	a8, 228 (c188 <immediate_num+0x18>)
    2b21:	51e8           	l32i.n	a14, a1, 20
    2b23:	069cc2        	l16si	a12, a12, 12
    2b26:	20dd70        	or	a13, a13, a7
    2b29:	125ed2        	s16i	a13, a14, 36
    2b2c:	11cc00        	slli	a12, a12, 16
    2b2f:	05ac47        	bge	a12, a4, 2b38 <subband_aec_block+0x214>
    2b32:	402804        	ae_lp16f.i	aep2, a8, 0
    2b35:	000086        	j	2b3b <subband_aec_block+0x217>

00002b38 <subband_aec_block+0x214>:
    2b38:	402814        	ae_lp16f.i	aep2, a8, 2

00002b3b <subband_aec_block+0x217>:
    2b3b:	4198           	l32i.n	a9, a1, 16
    2b3d:	5188           	l32i.n	a8, a1, 20
    2b3f:	0d9992        	l16si	a9, a9, 26
    2b42:	b8a8           	l32i.n	a10, a8, 44
    2b44:	119882        	l16si	a8, a8, 34
    2b47:	f91b           	addi.n	a15, a9, 1
    2b49:	b3f990        	movgez	a15, a9, a9
    2b4c:	9088a0        	addx2	a8, a8, a10
    2b4f:	1199f0        	slli	a9, a9, 1
    2b52:	21f1f0        	srai	a15, a15, 1
    2b55:	8ffd           	ae_sext16	a15, a15
    2b57:	c08890        	sub	a8, a8, a9
    2b5a:	fec892        	addi	a9, a8, -2
    2b5d:	440804        	ae_lp16x2f.i	aep0, a8, 0
    2b60:	2e1fa6        	blti	a15, 1, 2b92 <subband_aec_block+0x26e>
    2b63:	010254        	ae_mulfp24s.hl	aeq0, aep0, aep2
    2b66:	eb41cfffae 	{ addi	a10, a15, -1; ae_mulfp24s.ll	aeq3, aep0, aep2 }
    2b6b:	f963ed881f 	{ ae_lp16x2f.iu	aep0, a8, 4; ae_roundsp16q48asym	aep3, aeq0 }
    2b70:	f87bf2391f 	{ ae_sp16f.l.i	aep3, a9, 2; ae_roundsp16q48asym	aep1, aeq3 }
    2b75:	11aa76        	loopgtz	a10, 2b8a <subband_aec_block+0x266>
    2b78:	ea40b2992f 	{ ae_sp16f.l.iu	aep1, a9, 4; ae_mulfp24s.hl	aeq0, aep0, aep2 }
    2b7d:	ea41ed881f 	{ ae_lp16x2f.iu	aep0, a8, 4; ae_mulfp24s.ll	aeq1, aep0, aep2 }
    2b82:	1b8f14        	ae_roundsp16q48asym	aep1, aeq0
    2b85:	f86bf2191f 	{ ae_sp16f.l.i	aep1, a9, 2; ae_roundsp16q48asym	aep1, aeq1 }

00002b8a <subband_aec_block+0x266>:
    2b8a:	51d8           	l32i.n	a13, a1, 20
    2b8c:	429924        	ae_sp16f.l.iu	aep1, a9, 4
    2b8f:	129dd2        	l16si	a13, a13, 36
    2b92:	02ed07        	bbsi	a13, 0, 2b98 <subband_aec_block+0x274>
    2b95:	f01d           	retw.n

00002b97 <subband_aec_block+0x273>:
	...

00002b98 <subband_aec_block+0x274>:
    2b98:	41a8           	l32i.n	a10, a1, 16
    2b9a:	f5a481        	l32r	a8, 22c (2838 <aec_post_calc>)
    2b9d:	51b8           	l32i.n	a11, a1, 20
    2b9f:	21c8           	l32i.n	a12, a1, 8
    2ba1:	0008e0        	callx8	a8
    2ba4:	f01d           	retw.n

00002ba6 <subband_aec_block+0x282>:
    2ba6:	05dd           	mov.n	a13, a5
    2ba8:	f5a291        	l32r	a9, 230 (2760 <ref_gain_adapt>)
    2bab:	41e8           	l32i.n	a14, a1, 16
    2bad:	51f8           	l32i.n	a15, a1, 20
    2baf:	614144        	ae_lq56.i	aeq1, a1, 32
    2bb2:	0ead           	mov.n	a10, a14
    2bb4:	039ee2        	l16si	a14, a14, 6
    2bb7:	369404        	ae_trunca32q48	a4, aeq1
    2bba:	0fbd           	mov.n	a11, a15
    2bbc:	82ee80        	mull	a14, a14, a8
    2bbf:	04cd           	mov.n	a12, a4
    2bc1:	40dee2        	addmi	a14, a14, 0x4000
    2bc4:	21efe0        	srai	a14, a14, 15
    2bc7:	105fe2        	s16i	a14, a15, 32
    2bca:	0009e0        	callx8	a9
    2bcd:	51d8           	l32i.n	a13, a1, 20
    2bcf:	129dd2        	l16si	a13, a13, 36
    2bd2:	ffcec6        	j	2b11 <subband_aec_block+0x1ed>

00002bd5 <subband_aec_block+0x2b1>:
    2bd5:	000000                                        ...

00002bd8 <subband_aec_mid_channel>:
    2bd8:	00a136        	entry	a1, 80
    2bdb:	0159           	s32i.n	a5, a1, 0
    2bdd:	c388           	l32i.n	a8, a3, 48
    2bdf:	60c344        	ae_lq32f.i	aeq3, a3, 16
    2be2:	1193b2        	l16si	a11, a3, 34
    2be5:	5822a2        	l32i	a10, a2, 0x160
    2be8:	0e2392        	l32i	a9, a3, 56
    2beb:	0a23c2        	l32i	a12, a3, 40
    2bee:	f3f6c0        	wur.ae_cbegin0	a12
    2bf1:	440904        	ae_lp16x2f.i	aep0, a9, 0
    2bf4:	fccaa2        	addi	a10, a10, -4
    2bf7:	a0bbc0        	addx4	a11, a11, a12
    2bfa:	0aa0c2        	movi	a12, 10
    2bfd:	f3f7b0        	wur.ae_cend0	a11
    2c00:	fe248004bf 	{ movi	a11, 4; ae_zeroq56	aeq2 }
    2c05:	198c76        	loop	a12, 2c22 <subband_aec_mid_channel+0x4a>
    2c08:	12039ab8bf 	{ ae_lp16x2f.c	aep3, a8, a11; ae_mulzaafq32sp16s.ll	aeq0, aeq3, aep0, aeq3, aep0 }
    2c0d:	0a03ed891f 	{ ae_lp16x2f.iu	aep0, a9, 4; ae_mulzaafq32sp16s.hh	aeq1, aeq3, aep0, aeq3, aep0 }
    2c12:	1b8f14        	ae_roundsp16q48asym	aep1, aeq0
    2c15:	1b9f24        	ae_roundsp16q48asym	aep2, aeq1
    2c18:	f16e3e21df 	{ ae_selp24.hl	aep3, aep2, aep1; ae_mulssfp24s.hh.ll	aeq2, aep3, aep3 }
    2c1d:	e36c33ba1f 	{ ae_sp16x2f.iu	aep3, a10, 4; ae_mulaafp24s.hh.ll	aeq2, aep3, aep3 }

00002c22 <subband_aec_mid_channel+0x4a>:
    2c22:	92e8           	l32i.n	a14, a2, 36
    2c24:	3521b4        	ae_sraiq56	aeq0, aeq2, 6
    2c27:	61c304        	ae_lq56.i	aeq3, a3, 0
    2c2a:	01f8c4        	ae_addq56	aeq3, aeq3, aeq0
    2c2d:	11eee0        	slli	a14, a14, 2
    2c30:	fd84fecebf 	{ ae_cvtq48a32s	aeq2, a14; ae_satq48s	aeq1, aeq3 }
    2c35:	0161c4        	ae_maxq56s	aeq1, aeq1, aeq2
    2c38:	631304        	ae_sq56s.i	aeq1, a3, 0
    2c3b:	28d496        	bltz	a4, 2ecc <subband_aec_mid_channel+0x2f4>
    2c3e:	2189           	s32i.n	a8, a1, 8
    2c40:	11f9           	s32i.n	a15, a1, 4

00002c42 <subband_aec_mid_channel+0x6a>:
    2c42:	c388           	l32i.n	a8, a3, 48
    2c44:	1193d2        	l16si	a13, a3, 34
    2c47:	0f0c           	movi.n	a15, 0
    2c49:	4b0c           	movi.n	a11, 4
    2c4b:	582252        	l32i	a5, a2, 0x160
    2c4e:	f368           	l32i.n	a6, a3, 60
    2c50:	d378           	l32i.n	a7, a3, 52
    2c52:	b398           	l32i.n	a9, a3, 44
    2c54:	4199           	s32i.n	a9, a1, 16
    2c56:	fcc772        	addi	a7, a7, -4
    2c59:	fec662        	addi	a6, a6, -2
    2c5c:	fcc552        	addi	a5, a5, -4
    2c5f:	fec992        	addi	a9, a9, -2
    2c62:	3199           	s32i.n	a9, a1, 12

00002c64 <subband_aec_mid_channel+0x8c>:
    2c64:	449514        	ae_lp16x2f.iu	aep1, a5, 4
    2c67:	41a8           	l32i.n	a10, a1, 16
    2c69:	fc24e418bf 	{ ae_sp16x2f.c	aep1, a8, a11; nop }
    2c6e:	448714        	ae_lp16x2f.iu	aep0, a7, 4
    2c71:	fc04139aaf 	{ or	a9, a10, a10; ae_cvtq48p24s.h	aeq0, aep0 }
    2c76:	fd0c2d0a0f 	{ ae_lp16x2f.i	aep0, a10, 0; ae_cvtq48p24s.l	aeq1, aep0 }
    2c7b:	481da6        	blti	a13, 1, 2cc7 <subband_aec_mid_channel+0xef>
    2c7e:	21a1d0        	srai	a10, a13, 1
    2c81:	0e6d07        	bbci	a13, 0, 2c93 <subband_aec_mid_channel+0xbb>
    2c84:	4c0c           	movi.n	a12, 4
    2c86:	fc24daa8cf 	{ ae_lp16x2f.c	aep2, a8, a12; nop }
    2c8b:	0502c4        	ae_mulssfp24s.hh.ll	aeq0, aep0, aep2
    2c8e:	ee406d891f 	{ ae_lp16x2f.iu	aep0, a9, 4; ae_mulsafp24s.hl.lh	aeq1, aep0, aep2 }

00002c93 <subband_aec_mid_channel+0xbb>:
    2c93:	0abc           	beqz.n	a10, 2cc7 <subband_aec_mid_channel+0xef>
    2c95:	ba0b           	addi.n	a11, a10, -1
    2c97:	4a0c           	movi.n	a10, 4
    2c99:	fc24dab8af 	{ ae_lp16x2f.c	aep3, a8, a10; nop }
    2c9e:	ee606d291f 	{ ae_lp16x2f.i	aep2, a9, 4; ae_mulsafp24s.hl.lh	aeq1, aep0, aep3 }
    2ca3:	f0621a88af 	{ ae_lp16x2f.c	aep0, a8, a10; ae_mulssfp24s.hh.ll	aeq0, aep0, aep3 }
    2ca8:	f00a2d992f 	{ ae_lp16x2f.iu	aep1, a9, 8; ae_mulssfp24s.hh.ll	aeq0, aep2, aep0 }
    2cad:	13ab76        	loopgtz	a11, 2cc4 <subband_aec_mid_channel+0xec>
    2cb0:	ee085a88af 	{ ae_lp16x2f.c	aep0, a8, a10; ae_mulsafp24s.hl.lh	aeq1, aep2, aep0 }
    2cb5:	f0062d291f 	{ ae_lp16x2f.i	aep2, a9, 4; ae_mulssfp24s.hh.ll	aeq0, aep1, aep0 }
    2cba:	ee045a88af 	{ ae_lp16x2f.c	aep0, a8, a10; ae_mulsafp24s.hl.lh	aeq1, aep1, aep0 }
    2cbf:	f00a2d992f 	{ ae_lp16x2f.iu	aep1, a9, 8; ae_mulssfp24s.hh.ll	aeq0, aep2, aep0 }

00002cc4 <subband_aec_mid_channel+0xec>:
    2cc4:	052894        	ae_mulsafp24s.hl.lh	aeq1, aep2, aep0

00002cc7 <subband_aec_mid_channel+0xef>:
    2cc7:	f863801ffe 	{ addi	a15, a15, 1; ae_roundsp16q48asym	aep0, aeq0 }
    2ccc:	f96bb2861f 	{ ae_sp16f.l.iu	aep0, a6, 2; ae_roundsp16q48asym	aep2, aeq1 }
    2cd1:	42a614        	ae_sp16f.l.iu	aep2, a6, 2
    2cd4:	0664d6        	bgez	a4, 2d3e <subband_aec_mid_channel+0x166>
    2cd7:	11a8           	l32i.n	a10, a1, 4
    2cd9:	368a34        	ae_cvtq48a32s	aeq2, a10
    2cdc:	d7e27041ee 	{ l32i	a14, a1, 16; ae_mulfq32sp16s.l	aeq3, aeq2, aep0 }
    2ce1:	d7ea30219e 	{ l32i	a9, a1, 8; ae_mulfq32sp16s.l	aeq2, aeq2, aep2 }
    2ce6:	fc24feb90f 	{ ae_slaasq56s	aeq0, aeq3, a9; nop }
    2ceb:	fc24fea94f 	{ ae_slaasq56s	aeq1, aeq2, a9; nop }
    2cf0:	f96ff031ae 	{ l32i	a10, a1, 12; ae_roundsp24q48asym	aep3, aeq1 }
    2cf5:	f967ad0e0f 	{ ae_lp16x2f.i	aep0, a14, 0; ae_roundsp24q48asym	aep2, aeq0 }
    2cfa:	dd68939eef 	{ or	a9, a14, a14; ae_selp24.hl	aep2, aep2, aep3 }
    2cff:	3b1da6        	blti	a13, 1, 2d3e <subband_aec_mid_channel+0x166>
    2d02:	ff0c0004bf 	{ movi	a11, 4; ae_cvtq48p24s.l	aeq3, aep0 }
    2d07:	fc041ad8bf 	{ ae_lp16x2f.c	aep5, a8, a11; ae_cvtq48p24s.h	aeq0, aep0 }
    2d0c:	052504        	ae_mulaafp24s.hh.ll	aeq0, aep2, aep5
    2d0f:	eba84ffdce 	{ addi	a12, a13, -1; ae_mulasfp24s.hl.lh	aeq3, aep2, aep5 }
    2d14:	fa63ad891f 	{ ae_lp16x2f.iu	aep0, a9, 4; ae_roundsp16q48asym	aep4, aeq0 }
    2d19:	f87bf24a1f 	{ ae_sp16f.l.i	aep4, a10, 2; ae_roundsp16q48asym	aep1, aeq3 }
    2d1e:	19ac76        	loopgtz	a12, 2d3b <subband_aec_mid_channel+0x163>
    2d21:	fc0c329a2f 	{ ae_sp16f.l.iu	aep1, a10, 4; ae_cvtq48p24s.l	aeq0, aep0 }
    2d26:	fd041a98bf 	{ ae_lp16x2f.c	aep1, a8, a11; ae_cvtq48p24s.h	aeq1, aep0 }
    2d2b:	e2286d891f 	{ ae_lp16x2f.iu	aep0, a9, 4; ae_mulaafp24s.hh.ll	aeq1, aep2, aep1 }
    2d30:	052154        	ae_mulasfp24s.hl.lh	aeq0, aep2, aep1
    2d33:	1b9f14        	ae_roundsp16q48asym	aep1, aeq1
    2d36:	f863f21a1f 	{ ae_sp16f.l.i	aep1, a10, 2; ae_roundsp16q48asym	aep1, aeq0 }

00002d3b <subband_aec_mid_channel+0x163>:
    2d3b:	429a24        	ae_sp16f.l.iu	aep1, a10, 4
    2d3e:	4b0c           	movi.n	a11, 4
    2d40:	f6cf92        	addi	a9, a15, -10
    2d43:	f1d956        	bnez	a9, 2c64 <subband_aec_mid_channel+0x8c>
    2d46:	aa0c           	movi.n	a10, 10
    2d48:	d398           	l32i.n	a9, a3, 52
    2d4a:	f3b8           	l32i.n	a11, a3, 60
    2d4c:	c389           	s32i.n	a8, a3, 48
    2d4e:	fc24ad090f 	{ ae_lp16x2f.i	aep0, a9, 0; ae_zeroq56	aeq0 }
    2d53:	fe046d1b0f 	{ ae_lp16x2f.i	aep1, a11, 0; ae_movq56	aeq2, aeq0 }
    2d58:	fd04538bbf 	{ or	a8, a11, a11; ae_movq56	aeq1, aeq0 }
    2d5d:	0c8a76        	loop	a10, 2d6d <subband_aec_mid_channel+0x195>
    2d60:	050104        	ae_mulaafp24s.hh.ll	aeq0, aep0, aep1

00002d63 <subband_aec_mid_channel+0x18b>:
    2d63:	ea206d981f 	{ ae_lp16x2f.iu	aep1, a8, 4; ae_mulasfp24s.hl.lh	aeq1, aep0, aep1 }
    2d68:	e3002d891f 	{ ae_lp16x2f.iu	aep0, a9, 4; ae_mulaafp24s.hh.ll	aeq2, aep0, aep0 }

00002d6d <subband_aec_mid_channel+0x195>:
    2d6d:	f4c281        	l32r	a8, 78 (808 <HIFI_sqrt>)
    2d70:	35d134        	ae_sraiq56	aeq3, aeq1, 4
    2d73:	fb7ffb014f 	{ ae_sraiq56	aeq1, aeq0, 4; ae_roundsp24q48asym	aep7, aeq3 }
    2d78:	1b9d64        	ae_roundsp24q48asym	aep6, aeq1
    2d7b:	1aef64        	ae_selp24.hl	aep6, aep6, aep7
    2d7e:	f0dabb218f 	{ ae_sraiq56	aeq2, aeq2, 4; ae_mulzaafp24s.hh.ll	aeq0, aep6, aep6 }
    2d83:	fd344000af 	{ movi	a10, 0; ae_roundsq32asym	aeq1, aeq2 }
    2d88:	ff247a113f 	{ ae_sq56s.i	aeq1, a1, 24; ae_roundsq32asym	aeq3, aeq0 }
    2d8d:	36bb04        	ae_trunca32q48	a11, aeq3
    2d90:	0008e0        	callx8	a8
    2d93:	f52481        	l32r	a8, 224 (26d0 <common_x_pow>)
    2d96:	618134        	ae_lq56.i	aeq2, a1, 24
    2d99:	36cb34        	ae_cvtq48a32s	aeq3, a11
    2d9c:	fc24feba4f 	{ ae_slaasq56s	aeq1, aeq3, a10; nop }
    2da1:	36ab04        	ae_trunca32q48	a11, aeq2
    2da4:	fc2c53a33f 	{ or	a10, a3, a3; ae_roundsq32asym	aeq0, aeq1 }
    2da9:	368c04        	ae_trunca32q48	a12, aeq0
    2dac:	0008e0        	callx8	a8
    2daf:	aa8c           	beqz.n	a10, 2dbd <subband_aec_mid_channel+0x1e5>
    2db1:	f3a8           	l32i.n	a10, a3, 60
    2db3:	f4bc81        	l32r	a8, a4 (9de0 <xt_memcpy>)
    2db6:	d3b8           	l32i.n	a11, a3, 52
    2db8:	4c1c           	movi.n	a12, 20
    2dba:	0008e0        	callx8	a8

00002dbd <subband_aec_mid_channel+0x1e5>:
    2dbd:	0d92a2        	l16si	a10, a2, 26
    2dc0:	119382        	l16si	a8, a3, 34
    2dc3:	fc24b0b39e 	{ l32i	a9, a3, 44; ae_zeroq56	aeq0 }
    2dc8:	630144        	ae_sq56s.i	aeq0, a1, 32
    2dcb:	c088a0        	sub	a8, a8, a10
    2dce:	a08890        	addx4	a8, a8, a9
    2dd1:	181aa6        	blti	a10, 1, 2ded <subband_aec_mid_channel+0x215>
    2dd4:	610144        	ae_lq56.i	aeq0, a1, 32
    2dd7:	9a0b           	addi.n	a9, a10, -1
    2dd9:	fcc882        	addi	a8, a8, -4
    2ddc:	448814        	ae_lp16x2f.iu	aep0, a8, 4
    2ddf:	04a976        	loopgtz	a9, 2de7 <subband_aec_mid_channel+0x20f>
    2de2:	e2002d881f 	{ ae_lp16x2f.iu	aep0, a8, 4; ae_mulaafp24s.hh.ll	aeq0, aep0, aep0 }

00002de7 <subband_aec_mid_channel+0x20f>:
    2de7:	050004        	ae_mulaafp24s.hh.ll	aeq0, aep0, aep0
    2dea:	630144        	ae_sq56s.i	aeq0, a1, 32

00002ded <subband_aec_mid_channel+0x215>:
    2ded:	33a8           	l32i.n	a10, a3, 12
    2def:	f50b81        	l32r	a8, 21c (8c40 <airoha_divide_limit_1>)
    2df2:	614144        	ae_lq56.i	aeq1, a1, 32
    2df5:	3590b4        	ae_sraiq56	aeq2, aeq1, 2
    2df8:	fd347023be 	{ l32i	a11, a3, 8; ae_roundsq32asym	aeq1, aeq2 }
    2dfd:	631144        	ae_sq56s.i	aeq1, a1, 32
    2e00:	0008e0        	callx8	a8
    2e03:	f4ff81        	l32r	a8, 200 (7fff <NR_vad2+0xe3>)
    2e06:	049292        	l16si	a9, a2, 8
    2e09:	31a0a0        	srai	a10, a10, 16
    2e0c:	c088a0        	sub	a8, a8, a10
    2e0f:	1293a2        	l16si	a10, a3, 36
    2e12:	260c           	movi.n	a6, 2
    2e14:	538890        	max	a8, a8, a9
    2e17:	0491a0        	extui	a9, a10, 1, 1
    2e1a:	077956        	bnez	a9, 2e95 <subband_aec_mid_channel+0x2bd>
    2e1d:	105382        	s16i	a8, a3, 32
    2e20:	61c144        	ae_lq56.i	aeq3, a1, 32
    2e23:	36b404        	ae_trunca32q48	a4, aeq3

00002e26 <subband_aec_mid_channel+0x24e>:
    2e26:	0592b2        	l16si	a11, a2, 10
    2e29:	11bb00        	slli	a11, a11, 16
    2e2c:	60ab47        	bge	a11, a4, 2e90 <subband_aec_mid_channel+0x2b8>
    2e2f:	f4fe81        	l32r	a8, 228 (c188 <immediate_num+0x18>)
    2e32:	0692c2        	l16si	a12, a2, 12
    2e35:	20aa60        	or	a10, a10, a6
    2e38:	1253a2        	s16i	a10, a3, 36
    2e3b:	11cc00        	slli	a12, a12, 16
    2e3e:	07ac47        	bge	a12, a4, 2e49 <subband_aec_mid_channel+0x271>
    2e41:	402804        	ae_lp16f.i	aep2, a8, 0
    2e44:	000106        	j	2e4c <subband_aec_mid_channel+0x274>

00002e47 <subband_aec_mid_channel+0x26f>:
	...

00002e49 <subband_aec_mid_channel+0x271>:
    2e49:	402814        	ae_lp16f.i	aep2, a8, 2

00002e4c <subband_aec_mid_channel+0x274>:
    2e4c:	0d92b2        	l16si	a11, a2, 26
    2e4f:	119382        	l16si	a8, a3, 34
    2e52:	b398           	l32i.n	a9, a3, 44
    2e54:	c088b0        	sub	a8, a8, a11
    2e57:	a08890        	addx4	a8, a8, a9
    2e5a:	fec892        	addi	a9, a8, -2
    2e5d:	440804        	ae_lp16x2f.i	aep0, a8, 0
    2e60:	2c1ba6        	blti	a11, 1, 2e90 <subband_aec_mid_channel+0x2b8>
    2e63:	010a54        	ae_mulfp24s.hl	aeq1, aep0, aep2
    2e66:	ea418ffbae 	{ addi	a10, a11, -1; ae_mulfp24s.ll	aeq0, aep0, aep2 }
    2e6b:	f86bed881f 	{ ae_lp16x2f.iu	aep0, a8, 4; ae_roundsp16q48asym	aep1, aeq1 }
    2e70:	f863f2191f 	{ ae_sp16f.l.i	aep1, a9, 2; ae_roundsp16q48asym	aep1, aeq0 }
    2e75:	11aa76        	loopgtz	a10, 2e8a <subband_aec_mid_channel+0x2b2>
    2e78:	ea40b2992f 	{ ae_sp16f.l.iu	aep1, a9, 4; ae_mulfp24s.hl	aeq0, aep0, aep2 }
    2e7d:	ea41ed881f 	{ ae_lp16x2f.iu	aep0, a8, 4; ae_mulfp24s.ll	aeq1, aep0, aep2 }
    2e82:	1b8f14        	ae_roundsp16q48asym	aep1, aeq0
    2e85:	f86bf2191f 	{ ae_sp16f.l.i	aep1, a9, 2; ae_roundsp16q48asym	aep1, aeq1 }

00002e8a <subband_aec_mid_channel+0x2b2>:
    2e8a:	429924        	ae_sp16f.l.iu	aep1, a9, 4
    2e8d:	1293a2        	l16si	a10, a3, 36
    2e90:	2aea07        	bbsi	a10, 0, 2ebe <subband_aec_mid_channel+0x2e6>
    2e93:	f01d           	retw.n

00002e95 <subband_aec_mid_channel+0x2bd>:
    2e95:	02ad           	mov.n	a10, a2
    2e97:	03bd           	mov.n	a11, a3
    2e99:	0392f2        	l16si	a15, a2, 6
    2e9c:	04dd           	mov.n	a13, a4
    2e9e:	618144        	ae_lq56.i	aeq2, a1, 32
    2ea1:	36a404        	ae_trunca32q48	a4, aeq2
    2ea4:	f4e3e1        	l32r	a14, 230 (2760 <ref_gain_adapt>)
    2ea7:	82ff80        	mull	a15, a15, a8
    2eaa:	04cd           	mov.n	a12, a4
    2eac:	40dff2        	addmi	a15, a15, 0x4000
    2eaf:	21fff0        	srai	a15, a15, 15
    2eb2:	1053f2        	s16i	a15, a3, 32
    2eb5:	000ee0        	callx8	a14
    2eb8:	1293a2        	l16si	a10, a3, 36
    2ebb:	ffd9c6        	j	2e26 <subband_aec_mid_channel+0x24e>

00002ebe <subband_aec_mid_channel+0x2e6>:
    2ebe:	03bd           	mov.n	a11, a3
    2ec0:	f4db81        	l32r	a8, 22c (2838 <aec_post_calc>)
    2ec3:	02ad           	mov.n	a10, a2
    2ec5:	01c8           	l32i.n	a12, a1, 0
    2ec7:	0008e0        	callx8	a8
    2eca:	f01d           	retw.n

00002ecc <subband_aec_mid_channel+0x2f4>:
    2ecc:	1093a2        	l16si	a10, a3, 32
    2ecf:	f4d481        	l32r	a8, 220 (8b28 <airoha_divide>)
    2ed2:	369b04        	ae_trunca32q48	a11, aeq1
    2ed5:	11aa50        	slli	a10, a10, 11
    2ed8:	0008e0        	callx8	a8
    2edb:	21a9           	s32i.n	a10, a1, 8
    2edd:	11b9           	s32i.n	a11, a1, 4
    2edf:	ff57c6        	j	2c42 <subband_aec_mid_channel+0x6a>

00002ee2 <subband_aec_mid_channel+0x30a>:
	...

00002ee4 <dt_detect>:
    2ee4:	004136        	entry	a1, 32
    2ee7:	0c9242        	l16si	a4, a2, 24
    2eea:	179262        	l16si	a6, a2, 46
    2eed:	189282        	l16si	a8, a2, 48
    2ef0:	114400        	slli	a4, a4, 16
    2ef3:	21a437        	bge	a4, a3, 2f18 <dt_detect+0x34>
    2ef6:	054c           	movi.n	a5, 64
    2ef8:	1ca587        	bge	a5, a8, 2f18 <dt_detect+0x34>
    2efb:	1692b2        	l16si	a11, a2, 44
    2efe:	0e92a2        	l16si	a10, a2, 28
    2f01:	962b           	addi.n	a9, a6, 2
    2f03:	bb4b           	addi.n	a11, a11, 4
    2f05:	43bba0        	min	a11, a11, a10
    2f08:	8bbd           	ae_sext16	a11, a11
    2f0a:	1652b2        	s16i	a11, a2, 44
    2f0d:	5399b0        	max	a9, a9, a11
    2f10:	4399a0        	min	a9, a9, a10
    2f13:	175292        	s16i	a9, a2, 46
    2f16:	f01d           	retw.n

00002f18 <dt_detect+0x34>:
    2f18:	0e92e2        	l16si	a14, a2, 28
    2f1b:	0f0c           	movi.n	a15, 0
    2f1d:	d60b           	addi.n	a13, a6, -1
    2f1f:	0c0c           	movi.n	a12, 0
    2f21:	1652c2        	s16i	a12, a2, 44
    2f24:	53ddf0        	max	a13, a13, a15
    2f27:	43dde0        	min	a13, a13, a14
    2f2a:	1752d2        	s16i	a13, a2, 46
    2f2d:	f01d           	retw.n

00002f2f <dt_detect+0x4b>:
	...

00002f30 <get_aec_nr_memsize>:
    2f30:	004136        	entry	a1, 32
    2f33:	f4c021        	l32r	a2, 234 (6af8 <NB_RX_NR_frame_process+0x24>)
    2f36:	f01d           	retw.n

00002f38 <get_txnr_pitch_last>:
    2f38:	004136        	entry	a1, 32
    2f3b:	f45021        	l32r	a2, 7c (ca94 <p_ecnr_mem>)
    2f3e:	0228           	l32i.n	a2, a2, 0
    2f40:	1ad232        	addmi	a3, a2, 0x1a00
    2f43:	169332        	l16si	a3, a3, 44
    2f46:	0e2326        	beqi	a3, 2, 2f58 <get_txnr_pitch_last+0x20>
    2f49:	51d222        	addmi	a2, a2, 0x5100
    2f4c:	382222        	l32i	a2, a2, 224
    2f4f:	130c           	movi.n	a3, 1
    2f51:	932320        	movnez	a2, a3, a2
    2f54:	f01d           	retw.n

00002f56 <get_txnr_pitch_last+0x1e>:
	...

00002f58 <get_txnr_pitch_last+0x20>:
    2f58:	37d222        	addmi	a2, a2, 0x3700
    2f5b:	2228           	l32i.n	a2, a2, 8
    2f5d:	130c           	movi.n	a3, 1
    2f5f:	932320        	movnez	a2, a3, a2
    2f62:	f01d           	retw.n

00002f64 <sb_ana_init>:
    2f64:	004136        	entry	a1, 32
    2f67:	0b0c           	movi.n	a11, 0
    2f69:	ec1c           	movi.n	a12, 30
    2f6b:	f44c81        	l32r	a8, 9c (9dc8 <xt_memset>)
    2f6e:	a24b           	addi.n	a10, a2, 4
    2f70:	02a9           	s32i.n	a10, a2, 0
    2f72:	0008e0        	callx8	a8
    2f75:	f01d           	retw.n

00002f77 <sb_ana_init+0x13>:
	...

00002f78 <sb_syn_init>:
    2f78:	004136        	entry	a1, 32
    2f7b:	0b0c           	movi.n	a11, 0
    2f7d:	cc3c           	movi.n	a12, 60
    2f7f:	f44781        	l32r	a8, 9c (9dc8 <xt_memset>)
    2f82:	a24b           	addi.n	a10, a2, 4
    2f84:	02a9           	s32i.n	a10, a2, 0
    2f86:	0008e0        	callx8	a8
    2f89:	f01d           	retw.n

00002f8b <sb_syn_init+0x13>:
	...

00002f8c <AVC_init>:
    2f8c:	004136        	entry	a1, 32
    2f8f:	f44481        	l32r	a8, a0 (ca9c <aec_nr_para>)
    2f92:	f44151        	l32r	a5, 98 (8000 <NR_vad2+0xe4>)
    2f95:	0888           	l32i.n	a8, a8, 0
    2f97:	030c           	movi.n	a3, 0
    2f99:	2239           	s32i.n	a3, a2, 8
    2f9b:	1e1842        	l16ui	a4, a8, 60
    2f9e:	1f1892        	l16ui	a9, a8, 62
    2fa1:	025292        	s16i	a9, a2, 4
    2fa4:	201882        	l16ui	a8, a8, 64
    2fa7:	035282        	s16i	a8, a2, 6
    2faa:	c05540        	sub	a5, a5, a4
    2fad:	115500        	slli	a5, a5, 16
    2fb0:	445a           	add.n	a4, a4, a5
    2fb2:	0249           	s32i.n	a4, a2, 0
    2fb4:	f01d           	retw.n

00002fb6 <AVC_init+0x2a>:
	...

00002fb8 <HP_coef_setup>:
    2fb8:	004136        	entry	a1, 32
    2fbb:	02ad           	mov.n	a10, a2
    2fbd:	f43981        	l32r	a8, a4 (9de0 <xt_memcpy>)
    2fc0:	03bd           	mov.n	a11, a3
    2fc2:	04a0c2        	movi	a12, 4
    2fc5:	0008e0        	callx8	a8
    2fc8:	a2cb           	addi.n	a10, a2, 12
    2fca:	f43681        	l32r	a8, a4 (9de0 <xt_memcpy>)
    2fcd:	b38b           	addi.n	a11, a3, 8
    2fcf:	ac0c           	movi.n	a12, 10
    2fd1:	0008e0        	callx8	a8
    2fd4:	1cc3b2        	addi	a11, a3, 28
    2fd7:	f43381        	l32r	a8, a4 (9de0 <xt_memcpy>)
    2fda:	24c2a2        	addi	a10, a2, 36
    2fdd:	8c0c           	movi.n	a12, 8
    2fdf:	0008e0        	callx8	a8
    2fe2:	7298           	l32i.n	a9, a2, 28
    2fe4:	12a8           	l32i.n	a10, a2, 4
    2fe6:	22a9           	s32i.n	a10, a2, 8
    2fe8:	8299           	s32i.n	a9, a2, 32
    2fea:	f01d           	retw.n

00002fec <Voice_WB_TX_Init>:
    2fec:	004136        	entry	a1, 32
    2fef:	02ad           	mov.n	a10, a2
    2ff1:	06cd           	mov.n	a12, a6
    2ff3:	f42221        	l32r	a2, 7c (ca94 <p_ecnr_mem>)
    2ff6:	f49081        	l32r	a8, 238 (9adc <TX_ECNR_PARA_init>)
    2ff9:	20b550        	or	a11, a5, a5
    2ffc:	006242        	s32i	a4, a2, 0
    2fff:	0008e0        	callx8	a8
    3002:	f42751        	l32r	a5, a0 (ca9c <aec_nr_para>)
    3005:	02a8           	l32i.n	a10, a2, 0
    3007:	f48d81        	l32r	a8, 23c (2fb8 <HP_coef_setup>)
    300a:	05b8           	l32i.n	a11, a5, 0
    300c:	18daa2        	addmi	a10, a10, 0x1800
    300f:	e8caa2        	addi	a10, a10, -24
    3012:	01dbb2        	addmi	a11, a11, 0x100
    3015:	bb8b           	addi.n	a11, a11, 8
    3017:	0008e0        	callx8	a8
    301a:	0b0c           	movi.n	a11, 0
    301c:	02a8           	l32i.n	a10, a2, 0
    301e:	ac0c           	movi.n	a12, 10
    3020:	f41f81        	l32r	a8, 9c (9dc8 <xt_memset>)
    3023:	18daa2        	addmi	a10, a10, 0x1800
    3026:	1ccaa2        	addi	a10, a10, 28
    3029:	0008e0        	callx8	a8
    302c:	f48541        	l32r	a4, 240 (1834 <Pitch_by_Corel+0x3d8>)
    302f:	00a0b2        	movi	a11, 0
    3032:	0022a2        	l32i	a10, a2, 0
    3035:	f0a0c2        	movi	a12, 240
    3038:	f41981        	l32r	a8, 9c (9dc8 <xt_memset>)
    303b:	18daa2        	addmi	a10, a10, 0x1800
    303e:	34caa2        	addi	a10, a10, 52
    3041:	0008e0        	callx8	a8
    3044:	02a8           	l32i.n	a10, a2, 0
    3046:	f47f81        	l32r	a8, 244 (2f64 <sb_ana_init>)
    3049:	3edaa2        	addmi	a10, a10, 0x3e00
    304c:	c0caa2        	addi	a10, a10, -64
    304f:	0008e0        	callx8	a8
    3052:	0022a2        	l32i	a10, a2, 0
    3055:	f47b81        	l32r	a8, 244 (2f64 <sb_ana_init>)
    3058:	3edaa2        	addmi	a10, a10, 0x3e00
    305b:	0008e0        	callx8	a8
    305e:	02a8           	l32i.n	a10, a2, 0
    3060:	f47a81        	l32r	a8, 248 (2f78 <sb_syn_init>)
    3063:	3fdaa2        	addmi	a10, a10, 0x3f00
    3066:	80caa2        	addi	a10, a10, -128
    3069:	0008e0        	callx8	a8
    306c:	05d8           	l32i.n	a13, a5, 0
    306e:	02b8           	l32i.n	a11, a2, 0
    3070:	f47781        	l32r	a8, 24c (2440 <SBAEC_INIT>)
    3073:	0d98           	l32i.n	a9, a13, 0
    3075:	18db62        	addmi	a6, a11, 0x1800
    3078:	331df2        	l16ui	a15, a13, 102
    307b:	ab4a           	add.n	a10, a11, a4
    307d:	2cdbc2        	addmi	a12, a11, 0x2c00
    3080:	f8ccc2        	addi	a12, a12, -8
    3083:	ffdae2        	addmi	a14, a10, 0xffffff00
    3086:	1856f2        	s16i	a15, a6, 48
    3089:	341dd2        	l16ui	a13, a13, 104
    308c:	78c992        	addi	a9, a9, 120
    308f:	2edbb2        	addmi	a11, a11, 0x2e00
    3092:	d8cbb2        	addi	a11, a11, -40
    3095:	78c9f2        	addi	a15, a9, 120
    3098:	50c962        	addi	a6, a9, 80
    309b:	7f5ed2        	s16i	a13, a14, 254
    309e:	826a92        	s32i	a9, a10, 0x208
    30a1:	8b6ac2        	s32i	a12, a10, 0x22c
    30a4:	836a62        	s32i	a6, a10, 0x20c
    30a7:	846af2        	s32i	a15, a10, 0x210
    30aa:	8c6ab2        	s32i	a11, a10, 0x230
    30ad:	78cfc2        	addi	a12, a15, 120
    30b0:	50cfd2        	addi	a13, a15, 80
    30b3:	28cfe2        	addi	a14, a15, 40
    30b6:	856ae2        	s32i	a14, a10, 0x214
    30b9:	866ad2        	s32i	a13, a10, 0x218
    30bc:	876ac2        	s32i	a12, a10, 0x21c
    30bf:	78cc92        	addi	a9, a12, 120
    30c2:	50ccb2        	addi	a11, a12, 80
    30c5:	8a6ab2        	s32i	a11, a10, 0x228
    30c8:	896a92        	s32i	a9, a10, 0x224
    30cb:	28ccc2        	addi	a12, a12, 40
    30ce:	886ac2        	s32i	a12, a10, 0x220
    30d1:	0008e0        	callx8	a8
    30d4:	f45f81        	l32r	a8, 250 (6824 <WB_TX_NR_init>)
    30d7:	0008e0        	callx8	a8
    30da:	0022a2        	l32i	a10, a2, 0
    30dd:	f45d81        	l32r	a8, 254 (2f8c <AVC_init>)
    30e0:	31daa2        	addmi	a10, a10, 0x3100
    30e3:	e0caa2        	addi	a10, a10, -32
    30e6:	0008e0        	callx8	a8
    30e9:	00a4c2        	movi	a12, 0x400
    30ec:	fb7c           	movi.n	a11, -1
    30ee:	f45af1        	l32r	a15, 258 (ca98 <avc_vol>)
    30f1:	02a8           	l32i.n	a10, a2, 0
    30f3:	f45ae1        	l32r	a14, 25c (2000 <pitch_by_harmonic+0x4b8>)
    30f6:	6fed           	ae_s16i.n	a14, a15, 0
    30f8:	da4a           	add.n	a13, a10, a4
    30fa:	1ada92        	addmi	a9, a10, 0x1a00
    30fd:	14c992        	addi	a9, a9, 20
    3100:	fe5db2        	s16i	a11, a13, 0x1fc
    3103:	09c9c4        	ae_s16ip	a12, a9, 2
    3106:	09c9c4        	ae_s16ip	a12, a9, 2
    3109:	09c9c4        	ae_s16ip	a12, a9, 2
    310c:	09c9c4        	ae_s16ip	a12, a9, 2
    310f:	09c9c4        	ae_s16ip	a12, a9, 2
    3112:	09c9c4        	ae_s16ip	a12, a9, 2
    3115:	09c9c4        	ae_s16ip	a12, a9, 2
    3118:	0b0c           	movi.n	a11, 0
    311a:	0c5c           	movi.n	a12, 80
    311c:	f3e081        	l32r	a8, 9c (9dc8 <xt_memset>)
    311f:	30daa2        	addmi	a10, a10, 0x3000
    3122:	f8caa2        	addi	a10, a10, -8
    3125:	0008e0        	callx8	a8
    3128:	0b0c           	movi.n	a11, 0
    312a:	02a8           	l32i.n	a10, a2, 0
    312c:	4c2c           	movi.n	a12, 36
    312e:	f3db81        	l32r	a8, 9c (9dc8 <xt_memset>)
    3131:	31daa2        	addmi	a10, a10, 0x3100
    3134:	98caa2        	addi	a10, a10, -104
    3137:	0008e0        	callx8	a8
    313a:	02a8           	l32i.n	a10, a2, 0
    313c:	ba4a           	add.n	a11, a10, a4
    313e:	fc9bb2        	l16si	a11, a11, 0x1f8
    3141:	0b2b26        	beqi	a11, 2, 3150 <Voice_WB_TX_Init+0x164>

00003144 <Voice_WB_TX_Init+0x158>:
    3144:	f44781        	l32r	a8, 260 (60c8 <FLASH_REF_GAIN_Preload>)
    3147:	03bd           	mov.n	a11, a3
    3149:	0008e0        	callx8	a8
    314c:	f01d           	retw.n

0000314e <Voice_WB_TX_Init+0x162>:
	...

00003150 <Voice_WB_TX_Init+0x164>:
    3150:	f44581        	l32r	a8, 264 (4654 <TWO_MIC_WB_init>)
    3153:	05a8           	l32i.n	a10, a5, 0
    3155:	0008e0        	callx8	a8
    3158:	02a8           	l32i.n	a10, a2, 0
    315a:	f43a81        	l32r	a8, 244 (2f64 <sb_ana_init>)
    315d:	3edaa2        	addmi	a10, a10, 0x3e00
    3160:	40caa2        	addi	a10, a10, 64
    3163:	0008e0        	callx8	a8
    3166:	02a8           	l32i.n	a10, a2, 0
    3168:	f43881        	l32r	a8, 248 (2f78 <sb_syn_init>)
    316b:	3fdaa2        	addmi	a10, a10, 0x3f00
    316e:	fccaa2        	addi	a10, a10, -4
    3171:	0008e0        	callx8	a8
    3174:	02a8           	l32i.n	a10, a2, 0
    3176:	fff286        	j	3144 <Voice_WB_TX_Init+0x158>

00003179 <Voice_WB_TX_Init+0x18d>:
    3179:	000000                                        ...

0000317c <mic240_delay>:
    317c:	004136        	entry	a1, 32
    317f:	02ad           	mov.n	a10, a2
    3181:	f3c881        	l32r	a8, a4 (9de0 <xt_memcpy>)
    3184:	04bd           	mov.n	a11, a4
    3186:	20c550        	or	a12, a5, a5
    3189:	0008e0        	callx8	a8
    318c:	03bd           	mov.n	a11, a3
    318e:	90a520        	addx2	a10, a5, a2
    3191:	f0a0c2        	movi	a12, 240
    3194:	f3c481        	l32r	a8, a4 (9de0 <xt_memcpy>)
    3197:	c0cc50        	sub	a12, a12, a5
    319a:	1125f0        	slli	a2, a5, 1
    319d:	0008e0        	callx8	a8
    31a0:	05cd           	mov.n	a12, a5
    31a2:	04ad           	mov.n	a10, a4
    31a4:	c0b320        	sub	a11, a3, a2
    31a7:	f3bf81        	l32r	a8, a4 (9de0 <xt_memcpy>)
    31aa:	02dbb2        	addmi	a11, a11, 0x200
    31ad:	e0cbb2        	addi	a11, a11, -32
    31b0:	0008e0        	callx8	a8
    31b3:	f01d           	retw.n

000031b5 <mic240_delay+0x39>:
    31b5:	000000                                        ...

000031b8 <tx_downsample_by2>:
    31b8:	004136        	entry	a1, 32
    31bb:	440404        	ae_lp16x2f.i	aep0, a4, 0
    31be:	f42a91        	l32r	a9, 268 (c38c <wb_r01+0xc>)
    31c1:	5c1504        	ae_lp24x2f.i	aep1, a5, 0
    31c4:	ff242c240f 	{ ae_lp16f.i	aep2, a4, 0; ae_cvtq48p24s.h	aeq3, aep1 }
    31c9:	de28b1390f 	{ ae_lp24.i	aep3, a9, 0; ae_selp24.hl	aep4, aep2, aep1 }
    31ce:	e98c7d460f 	{ ae_lq32f.i	aeq2, a6, 0; ae_mulasfp24s.hh.ll	aeq3, aep3, aep4 }
    31d3:	fd2c2f451f 	{ ae_lp24x2f.i	aep4, a5, 8; ae_cvtq48p24s.l	aeq1, aep1 }
    31d8:	fa7ff4250f 	{ ae_sp24f.l.i	aep2, a5, 0; ae_roundsp24q48asym	aep5, aeq3 }
    31dd:	df95f1691f 	{ ae_lp24.i	aep6, a9, 4; ae_selp24.lh	aep7, aep5, aep4 }
    31e2:	056f44        	ae_mulasfp24s.hh.ll	aeq1, aep6, aep7
    31e5:	fc840fe27e 	{ addi	a7, a2, -2; ae_cvtq48p24s.h	aeq0, aep4 }
    31ea:	f86ff4551f 	{ ae_sp24f.l.i	aep5, a5, 4; ae_roundsp24q48asym	aep1, aeq1 }
    31ef:	dd8671292f 	{ ae_lp24.i	aep2, a9, 8; ae_selp24.ll	aep3, aep1, aep4 }
    31f4:	e86813855f 	{ or	a8, a5, a5; ae_mulasfp24s.hh.ll	aeq0, aep2, aep3 }
    31f9:	521524        	ae_sp24f.l.i	aep1, a5, 8
    31fc:	f967af452f 	{ ae_lp24x2f.i	aep4, a5, 16; ae_roundsp24q48asym	aep2, aeq0 }
    3201:	522534        	ae_sp24f.l.i	aep2, a5, 12
    3204:	ff842c541f 	{ ae_lp16f.i	aep5, a4, 2; ae_cvtq48p24s.h	aeq3, aep4 }
    3209:	df94f169df 	{ ae_lp24.i	aep6, a9, -12; ae_selp24.hl	aep7, aep5, aep4 }
    320e:	e9f84105ae 	{ addi	a10, a5, 16; ae_mulasfp24s.hh.ll	aeq3, aep6, aep7 }
    3213:	fd8c2f653f 	{ ae_lp24x2f.i	aep6, a5, 24; ae_cvtq48p24s.l	aeq1, aep4 }
    3218:	fb7ff4554f 	{ ae_sp24f.l.i	aep5, a5, 16; ae_roundsp24q48asym	aep7, aeq3 }
    321d:	ddddf119ef 	{ ae_lp24.i	aep1, a9, -8; ae_selp24.lh	aep3, aep7, aep6 }
    3222:	e86453d66f 	{ or	a13, a6, a6; ae_mulasfp24s.hh.ll	aeq1, aep1, aep3 }
    3227:	fcc40fe36e 	{ addi	a6, a3, -2; ae_cvtq48p24s.h	aeq0, aep6 }
    322c:	f96ff4755f 	{ ae_sp24f.l.i	aep7, a5, 20; ae_roundsp24q48asym	aep3, aeq1 }
    3231:	dece7149ff 	{ ae_lp24.i	aep4, a9, -4; ae_selp24.ll	aep5, aep3, aep6 }
    3236:	e8b00f49be 	{ addi	a11, a9, -12; ae_mulasfp24s.hh.ll	aeq0, aep4, aep5 }
    323b:	34af04        	ae_movap24s.l	a15, aep2
    323e:	f867f4356f 	{ ae_sp24f.l.i	aep3, a5, 24; ae_roundsp24q48asym	aep1, aeq0 }
    3243:	521574        	ae_sp24f.l.i	aep1, a5, 28
    3246:	349e04        	ae_movap24s.l	a14, aep1
    3249:	351c           	movi.n	a5, 19
    324b:	44a414        	ae_lp16x2f.iu	aep2, a4, 4
    324e:	e30013244f 	{ or	a2, a4, a4; ae_mulaafp24s.hh.ll	aeq2, aep0, aep0 }
    3253:	f03d           	nop.n
    3255:	978576        	loop	a5, 32f0 <tx_downsample_by2+0x138>
    3258:	e348105eff 	{ add	a5, a14, a15; ae_mulaafp24s.hh.ll	aeq2, aep2, aep2 }
    325d:	215150        	srai	a5, a5, 1
    3260:	c0fef0        	sub	a15, a14, a15
    3263:	21f1f0        	srai	a15, a15, 1
    3266:	39a5f4        	ae_movpa24x2	aep2, a5, a15
    3269:	0921a4        	ae_roundsp16asym	aep2, aep2
    326c:	dd4932a61f 	{ ae_sp16f.l.iu	aep2, a6, 2; ae_selp24.hh	aep2, aep2, aep2 }
    3271:	42a714        	ae_sp16f.l.iu	aep2, a7, 2
    3274:	5c2804        	ae_lp24x2f.i	aep2, a8, 0
    3277:	fc442c120f 	{ ae_lp16f.i	aep1, a2, 0; ae_cvtq48p24s.h	aeq0, aep2 }
    327c:	dd44f1090f 	{ ae_lp24.i	aep0, a9, 0; ae_selp24.hl	aep3, aep1, aep2 }
    3281:	e86034180f 	{ ae_sp24f.l.i	aep1, a8, 0; ae_mulasfp24s.hh.ll	aeq0, aep0, aep3 }
    3286:	fd4c31291f 	{ ae_lp24.i	aep2, a9, 4; ae_cvtq48p24s.l	aeq1, aep2 }
    328b:	f867af181f 	{ ae_lp24x2f.i	aep1, a8, 8; ae_roundsp24q48asym	aep0, aeq0 }
    3290:	dc21b4081f 	{ ae_sp24f.l.i	aep0, a8, 4; ae_selp24.lh	aep0, aep0, aep1 }
    3295:	e80871292f 	{ ae_lp24.i	aep2, a9, 8; ae_mulasfp24s.hh.ll	aeq1, aep2, aep0 }
    329a:	0a0984        	ae_cvtq48p24s.h	aeq0, aep1
    329d:	1b9d04        	ae_roundsp24q48asym	aep0, aeq1
    32a0:	dc2274082f 	{ ae_sp24f.l.i	aep0, a8, 8; ae_selp24.ll	aep1, aep0, aep1 }
    32a5:	052144        	ae_mulasfp24s.hh.ll	aeq0, aep2, aep1
    32a8:	1b8d24        	ae_roundsp24q48asym	aep2, aeq0
    32ab:	522834        	ae_sp24f.l.i	aep2, a8, 12
    32ae:	5c1a04        	ae_lp24x2f.i	aep1, a10, 0
    32b1:	fc242c021f 	{ ae_lp16f.i	aep0, a2, 2; ae_cvtq48p24s.h	aeq0, aep1 }
    32b6:	de20b13b0f 	{ ae_lp24.i	aep3, a11, 0; ae_selp24.hl	aep4, aep0, aep1 }
    32bb:	e88c340a0f 	{ ae_sp24f.l.i	aep0, a10, 0; ae_mulasfp24s.hh.ll	aeq0, aep3, aep4 }
    32c0:	fd2c311b1f 	{ ae_lp24.i	aep1, a11, 4; ae_cvtq48p24s.l	aeq1, aep1 }
    32c5:	f967ef0a1f 	{ ae_lp24x2f.i	aep0, a10, 8; ae_roundsp24q48asym	aep3, aeq0 }
    32ca:	dd0df43a1f 	{ ae_sp24f.l.i	aep3, a10, 4; ae_selp24.lh	aep3, aep3, aep0 }
    32cf:	e864711b2f 	{ ae_lp24.i	aep1, a11, 8; ae_mulasfp24s.hh.ll	aeq1, aep1, aep3 }
    32d4:	fc043f2fdf 	{ ae_movap24s.l	a15, aep2; ae_cvtq48p24s.h	aeq0, aep0 }
    32d9:	1b9d24        	ae_roundsp24q48asym	aep2, aeq1
    32dc:	dd0a342a2f 	{ ae_sp24f.l.i	aep2, a10, 8; ae_selp24.ll	aep2, aep2, aep0 }
    32e1:	051244        	ae_mulasfp24s.hh.ll	aeq0, aep1, aep2
    32e4:	1b8d24        	ae_roundsp24q48asym	aep2, aeq0
    32e7:	34ae04        	ae_movap24s.l	a14, aep2
    32ea:	522a34        	ae_sp24f.l.i	aep2, a10, 12
    32ed:	44a214        	ae_lp16x2f.iu	aep2, a2, 4

000032f0 <tx_downsample_by2+0x138>:
    32f0:	078d           	mov.n	a8, a7
    32f2:	aefa           	add.n	a10, a14, a15
    32f4:	c0bef0        	sub	a11, a14, a15
    32f7:	21b1b0        	srai	a11, a11, 1
    32fa:	21a1a0        	srai	a10, a10, 1
    32fd:	39fab4        	ae_movpa24x2	aep7, a10, a11
    3300:	fbfe93966f 	{ or	a9, a6, a6; ae_roundsp16asym	aep6, aep7 }
    3305:	ded972e91f 	{ ae_sp16f.l.iu	aep6, a9, 2; ae_selp24.hh	aep5, aep6, aep6 }
    330a:	fc3472d81f 	{ ae_sp16f.l.iu	aep5, a8, 2; ae_roundsq32asym	aeq0, aeq2 }
    330f:	620d04        	ae_sq32f.i	aeq0, a13, 0
    3312:	f01d           	retw.n

00003314 <tx_upsample_by2>:
    3314:	006136        	entry	a1, 48
    3317:	401304        	ae_lp16f.i	aep1, a3, 0
    331a:	812b           	addi.n	a8, a1, 2
    331c:	f3d3a1        	l32r	a10, 268 (c38c <wb_r01+0xc>)
    331f:	400204        	ae_lp16f.i	aep0, a2, 0
    3322:	06dd           	mov.n	a13, a6
    3324:	057d           	mov.n	a7, a5
    3326:	10c792        	addi	a9, a7, 16
    3329:	608d04        	ae_lq32f.i	aeq2, a13, 0
    332c:	fcc462        	addi	a6, a4, -4
    332f:	025d           	mov.n	a5, a2
    3331:	034d           	mov.n	a4, a3
    3333:	421c           	movi.n	a2, 20
    3335:	f4cab2        	addi	a11, a10, -12
    3338:	928276        	loop	a2, 33ce <tx_upsample_by2+0xba>
    333b:	dd22af370f 	{ ae_lp24x2f.i	aep3, a7, 0; ae_subsp24s	aep2, aep0, aep1 }
    3340:	d92132211f 	{ ae_sp16f.l.i	aep2, a1, 2; ae_addsp24s	aep2, aep0, aep1 }
    3345:	fc6432210f 	{ ae_sp16f.l.i	aep2, a1, 0; ae_cvtq48p24s.h	aeq0, aep3 }
    334a:	fd6c2c180f 	{ ae_lp16f.i	aep1, a8, 0; ae_cvtq48p24s.l	aeq1, aep3 }
    334f:	dc64b13b0f 	{ ae_lp24.i	aep3, a11, 0; ae_selp24.hl	aep0, aep1, aep3 }
    3354:	e80c34170f 	{ ae_sp24f.l.i	aep1, a7, 0; ae_mulasfp24s.hh.ll	aeq0, aep3, aep0 }
    3359:	e34bb13b1f 	{ ae_lp24.i	aep3, a11, 4; ae_mulafp24s.ll	aeq2, aep2, aep2 }
    335e:	f867ef271f 	{ ae_lp24x2f.i	aep2, a7, 8; ae_roundsp24q48asym	aep1, aeq0 }
    3363:	dc45f4171f 	{ ae_sp24f.l.i	aep1, a7, 4; ae_selp24.lh	aep1, aep1, aep2 }
    3368:	e82c713b2f 	{ ae_lp24.i	aep3, a11, 8; ae_mulasfp24s.hh.ll	aeq1, aep3, aep1 }
    336d:	fc442c110f 	{ ae_lp16f.i	aep1, a1, 0; ae_cvtq48p24s.h	aeq0, aep2 }
    3372:	1b9d04        	ae_roundsp24q48asym	aep0, aeq1
    3375:	dd4234072f 	{ ae_sp24f.l.i	aep0, a7, 8; ae_selp24.ll	aep2, aep0, aep2 }
    337a:	053244        	ae_mulasfp24s.hh.ll	aeq0, aep3, aep2
    337d:	1b8d34        	ae_roundsp24q48asym	aep3, aeq0
    3380:	523734        	ae_sp24f.l.i	aep3, a7, 12
    3383:	5c2904        	ae_lp24x2f.i	aep2, a9, 0
    3386:	fc443e121f 	{ ae_selp24.hl	aep0, aep1, aep2; ae_cvtq48p24s.h	aeq0, aep2 }
    338b:	fd4c312a0f 	{ ae_lp24.i	aep2, a10, 0; ae_cvtq48p24s.l	aeq1, aep2 }
    3390:	e80834190f 	{ ae_sp24f.l.i	aep1, a9, 0; ae_mulasfp24s.hh.ll	aeq0, aep2, aep0 }
    3395:	4c2a14        	ae_lp24.i	aep2, a10, 4
    3398:	f867af191f 	{ ae_lp24x2f.i	aep1, a9, 8; ae_roundsp24q48asym	aep0, aeq0 }
    339d:	dc21b4091f 	{ ae_sp24f.l.i	aep0, a9, 4; ae_selp24.lh	aep0, aep0, aep1 }
    33a2:	e808712a2f 	{ ae_lp24.i	aep2, a10, 8; ae_mulasfp24s.hh.ll	aeq1, aep2, aep0 }
    33a7:	fc243f32df 	{ ae_movap24s.l	a2, aep3; ae_cvtq48p24s.h	aeq0, aep1 }
    33ac:	1b9d34        	ae_roundsp24q48asym	aep3, aeq1
    33af:	dd2e74392f 	{ ae_sp24f.l.i	aep3, a9, 8; ae_selp24.ll	aep3, aep3, aep1 }
    33b4:	052344        	ae_mulasfp24s.hh.ll	aeq0, aep2, aep3
    33b7:	1b8d34        	ae_roundsp24q48asym	aep3, aeq0
    33ba:	34b304        	ae_movap24s.l	a3, aep3
    33bd:	39a234        	ae_movpa24x2	aep2, a2, a3
    33c0:	f9eaf4393f 	{ ae_sp24f.l.i	aep3, a9, 12; ae_roundsp16asym	aep3, aep2 }
    33c5:	409414        	ae_lp16f.iu	aep1, a4, 2
    33c8:	408514        	ae_lp16f.iu	aep0, a5, 2
    33cb:	46b614        	ae_sp16x2f.iu	aep3, a6, 4

000033ce <tx_upsample_by2+0xba>:
    33ce:	062934        	ae_roundsq32asym	aeq0, aeq2
    33d1:	620d04        	ae_sq32f.i	aeq0, a13, 0
    33d4:	f01d           	retw.n

000033d6 <tx_upsample_by2+0xc2>:
	...

000033d8 <emph_filter_N>:
    33d8:	004136        	entry	a1, 32
    33db:	443304        	ae_lp16x2f.i	aep3, a3, 0
    33de:	fec282        	addi	a8, a2, -2
    33e1:	fcc262        	addi	a6, a2, -4
    33e4:	047d           	mov.n	a7, a4
    33e6:	441704        	ae_lp16x2f.i	aep1, a7, 0
    33e9:	451b           	addi.n	a4, a5, 1
    33eb:	062d           	mov.n	a2, a6
    33ed:	083d           	mov.n	a3, a8
    33ef:	b34550        	movgez	a4, a5, a5
    33f2:	214140        	srai	a4, a4, 1
    33f5:	23a476        	loopgtz	a4, 341c <emph_filter_N+0x44>
    33f8:	448214        	ae_lp16x2f.iu	aep0, a2, 4
    33fb:	fc043e018f 	{ ae_selp24.hh	aep2, aep0, aep1; ae_cvtq48p24s.h	aeq0, aep0 }
    3400:	0a4084        	ae_cvtq48p24s.l	aeq1, aep0
    3403:	013104        	ae_mulafp24s.hh	aeq0, aep3, aep1
    3406:	013804        	ae_mulafp24s.hh	aeq1, aep3, aep0
    3409:	e22c3e006f 	{ ae_selp24.lh	aep1, aep0, aep0; ae_mulaafp24s.hh.ll	aeq0, aep3, aep1 }
    340e:	053a04        	ae_mulaafp24s.hh.ll	aeq1, aep3, aep2
    3411:	1b8f04        	ae_roundsp16q48asym	aep0, aeq0
    3414:	f86bb2031f 	{ ae_sp16f.l.i	aep0, a3, 2; ae_roundsp16q48asym	aep0, aeq1 }
    3419:	428324        	ae_sp16f.l.iu	aep0, a3, 4

0000341c <emph_filter_N+0x44>:
    341c:	461704        	ae_sp16x2f.i	aep1, a7, 0
    341f:	f01d           	retw.n

00003421 <emph_filter_N+0x49>:
    3421:	000000                                        ...

00003424 <deemph_filter_N>:
    3424:	004136        	entry	a1, 32
    3427:	400204        	ae_lp16f.i	aep0, a2, 0
    342a:	442304        	ae_lp16x2f.i	aep2, a3, 0
    342d:	f38f61        	l32r	a6, 26c (c1a0 <immediate_num+0x30>)
    3430:	608404        	ae_lq32f.i	aeq2, a4, 0
    3433:	9a4a3d241f 	{ ae_lq32f.i	aeq1, a4, 4; ae_mulzssfq32sp16s.hh	aeq0, aeq2, aep2, aeq2, aep2 }
    3438:	f889ad160f 	{ ae_lp16x2f.i	aep1, a6, 0; ae_mulsfq32sp16s.l	aeq0, aeq1, aep2 }
    343d:	3a15a6        	blti	a5, 1, 347b <deemph_filter_N+0x57>
    3440:	0501c4        	ae_mulssfp24s.hh.ll	aeq0, aep0, aep1
    3443:	f03d           	nop.n
    3445:	06c934        	ae_roundsq32asym	aeq3, aeq0
    3448:	9a4bcff53e 	{ addi	a3, a5, -1; ae_mulzssfq32sp16s.hh	aeq1, aeq3, aep2, aeq3, aep2 }
    344d:	408214        	ae_lp16f.iu	aep0, a2, 2
    3450:	fd147f113f 	{ ae_movq56	aeq0, aeq1; ae_movq56	aeq1, aeq2 }
    3455:	14a376        	loopgtz	a3, 346d <deemph_filter_N+0x49>
    3458:	f889bf317f 	{ ae_movq56	aeq1, aeq3; ae_mulsfq32sp16s.l	aeq0, aeq1, aep2 }
    345d:	0501c4        	ae_mulssfp24s.hh.ll	aeq0, aep0, aep1
    3460:	1bbf04        	ae_roundsp16q48asym	aep0, aeq3
    3463:	ff247202ff 	{ ae_sp16f.l.i	aep0, a2, -2; ae_roundsq32asym	aeq3, aeq0 }
    3468:	9a4bac821f 	{ ae_lp16f.iu	aep0, a2, 2; ae_mulzssfq32sp16s.hh	aeq0, aeq3, aep2, aeq3, aep2 }

0000346d <deemph_filter_N+0x49>:
    346d:	1bbf04        	ae_roundsp16q48asym	aep0, aeq3
    3470:	4202f4        	ae_sp16f.l.i	aep0, a2, -2
    3473:	623404        	ae_sq32f.i	aeq3, a4, 0
    3476:	621414        	ae_sq32f.i	aeq1, a4, 4
    3479:	f01d           	retw.n

0000347b <deemph_filter_N+0x57>:
    347b:	622404        	ae_sq32f.i	aeq2, a4, 0
    347e:	621414        	ae_sq32f.i	aeq1, a4, 4
    3481:	f01d           	retw.n

00003483 <deemph_filter_N+0x5f>:
	...

00003484 <analy_3band>:
    3484:	004136        	entry	a1, 32
    3487:	fec6a2        	addi	a10, a6, -2
    348a:	f37ae1        	l32r	a14, 274 (c3dc <sb_g10+0x3c>)
    348d:	fcc4c2        	addi	a12, a4, -4
    3490:	f378f1        	l32r	a15, 270 (c39c <wb_r01+0x1c>)
    3493:	fcc292        	addi	a9, a2, -4
    3496:	24c2d2        	addi	a13, a2, 36
    3499:	fec5b2        	addi	a11, a5, -2
    349c:	038d           	mov.n	a8, a3
    349e:	450c           	movi.n	a5, 4
    34a0:	04c872        	addi	a7, a8, 4
    34a3:	0328           	l32i.n	a2, a3, 0
    34a5:	f3f670        	wur.ae_cbegin0	a7
    34a8:	40c332        	addi	a3, a3, 64
    34ab:	ff24934fff 	{ or	a4, a15, a15; ae_zeroq56	aeq3 }
    34b0:	f3f730        	wur.ae_cend0	a3
    34b3:	fd1c533eef 	{ or	a3, a14, a14; ae_movq56	aeq1, aeq3 }

000034b8 <analy_3band+0x34>:
    34b8:	447914        	ae_lp16x2f.i	aep7, a9, 4
    34bb:	fc24e4725f 	{ ae_sp16x2f.c	aep7, a2, a5; nop }
    34c0:	44e414        	ae_lp16x2f.iu	aep6, a4, 4
    34c3:	44c314        	ae_lp16x2f.iu	aep4, a3, 4
    34c6:	fc24dad25f 	{ ae_lp16x2f.c	aep5, a2, a5; nop }
    34cb:	eab19aa25f 	{ ae_lp16x2f.c	aep2, a2, a5; ae_mulfp24s.ll	aeq0, aep4, aep5 }
    34d0:	ebb9ad141f 	{ ae_lp16x2f.i	aep1, a4, 4; ae_mulfp24s.ll	aeq2, aep6, aep5 }
    34d5:	e347ad331f 	{ ae_lp16x2f.i	aep3, a3, 4; ae_mulafp24s.ll	aeq2, aep1, aep2 }
    34da:	e24f80066f 	{ movi	a6, 6; ae_mulafp24s.ll	aeq0, aep3, aep2 }
    34df:	e24e6d842f 	{ ae_lp16x2f.iu	aep0, a4, 8; ae_mulafp24s.hh	aeq1, aep3, aep2 }
    34e4:	e3465ab25f 	{ ae_lp16x2f.c	aep3, a2, a5; ae_mulafp24s.hh	aeq3, aep1, aep2 }
    34e9:	e36240499e 	{ addi	a9, a9, 4; ae_mulafp24s.hh	aeq3, aep0, aep3 }
    34ee:	e363ada32f 	{ ae_lp16x2f.iu	aep2, a3, 8; ae_mulafp24s.ll	aeq2, aep0, aep3 }
    34f3:	f03d           	nop.n
    34f5:	238676        	loop	a6, 351c <analy_3band+0x98>
    34f8:	e26a5a825f 	{ ae_lp16x2f.c	aep0, a2, a5; ae_mulafp24s.hh	aeq1, aep2, aep3 }
    34fd:	e26bad131f 	{ ae_lp16x2f.i	aep1, a3, 4; ae_mulafp24s.ll	aeq0, aep2, aep3 }
    3502:	e207ad241f 	{ ae_lp16x2f.i	aep2, a4, 4; ae_mulafp24s.ll	aeq0, aep1, aep0 }
    3507:	e2066d942f 	{ ae_lp16x2f.iu	aep1, a4, 8; ae_mulafp24s.hh	aeq1, aep1, aep0 }
    350c:	e30b9ab25f 	{ ae_lp16x2f.c	aep3, a2, a5; ae_mulafp24s.ll	aeq2, aep2, aep0 }
    3511:	e30a6da32f 	{ ae_lp16x2f.iu	aep2, a3, 8; ae_mulafp24s.hh	aeq3, aep2, aep0 }
    3516:	019b04        	ae_mulafp24s.hh	aeq3, aep1, aep3
    3519:	019334        	ae_mulafp24s.ll	aeq2, aep1, aep3

0000351c <analy_3band+0x98>:
    351c:	e26a533eef 	{ or	a3, a14, a14; ae_mulafp24s.hh	aeq1, aep2, aep3 }
    3521:	e26b934fff 	{ or	a4, a15, a15; ae_mulafp24s.ll	aeq0, aep2, aep3 }
    3526:	fb6b80045f 	{ movi	a5, 4; ae_roundsp16q48asym	aep6, aeq1 }
    352b:	fb63d579df 	{ sub	a7, a9, a13; ae_roundsp16q48asym	aep7, aeq0 }
    3530:	f8f632fa1f 	{ ae_sp16f.l.iu	aep7, a10, 2; ae_addq56	aeq0, aeq2, aeq3 }
    3535:	fbb6fb001f 	{ ae_sraiq56	aeq0, aeq0, 1; ae_subq56	aeq3, aeq2, aeq3 }
    353a:	fa67fb30df 	{ ae_sraiq56	aeq3, aeq3, 1; ae_roundsp24q48asym	aep5, aeq0 }
    353f:	fa7bb2ea1f 	{ ae_sp16f.l.iu	aep6, a10, 2; ae_roundsp16q48asym	aep4, aeq3 }
    3544:	ff24b4dc1f 	{ ae_sp24f.l.iu	aep5, a12, 4; ae_zeroq56	aeq3 }
    3549:	fd1c72cb1f 	{ ae_sp16f.l.iu	aep4, a11, 2; ae_movq56	aeq1, aeq3 }
    354e:	f66756        	bnez	a7, 34b8 <analy_3band+0x34>
    3551:	0829           	s32i.n	a2, a8, 0
    3553:	f01d           	retw.n

00003555 <analy_3band+0xd1>:
    3555:	000000                                        ...

00003558 <synth_3band>:
    3558:	004136        	entry	a1, 32
    355b:	fec6a2        	addi	a10, a6, -2
    355e:	090c           	movi.n	a9, 0
    3560:	fec2e2        	addi	a14, a2, -2
    3563:	058d           	mov.n	a8, a5
    3565:	fcc4b2        	addi	a11, a4, -4
    3568:	fec3c2        	addi	a12, a3, -2
    356b:	f34341        	l32r	a4, 278 (c420 <sb_h2ir_v2>)
    356e:	f34331        	l32r	a3, 27c (c3a0 <sb_g10>)
    3571:	7cc872        	addi	a7, a8, 124
    3574:	fe248048de 	{ addi	a13, a8, 4; ae_zeroq56	aeq2 }
    3579:	fc1470052e 	{ l32i	a2, a5, 0; ae_movq56	aeq0, aeq2 }
    357e:	fd1440045f 	{ movi	a5, 4; ae_movq56	aeq1, aeq2 }
    3583:	f3f6d0        	wur.ae_cbegin0	a13
    3586:	f3f770        	wur.ae_cend0	a7

00003589 <synth_3band+0x31>:
    3589:	e60c           	movi.n	a6, 14
    358b:	40ec14        	ae_lp16f.iu	aep6, a12, 2
    358e:	40de14        	ae_lp16f.iu	aep5, a14, 2
    3591:	ded6adab1f 	{ ae_lp16x2f.iu	aep2, a11, 4; ae_subsp24s	aep4, aep5, aep6 }
    3596:	d9d540199e 	{ addi	a9, a9, 1; ae_addsp24s	aep3, aep5, aep6 }
    359b:	dd8e4f69de 	{ addi	a13, a9, -10; ae_selp24.ll	aep3, aep3, aep4 }
    35a0:	fc24e4325f 	{ ae_sp16x2f.c	aep3, a2, a5; nop }
    35a5:	fc24e4225f 	{ ae_sp16x2f.c	aep2, a2, a5; nop }
    35aa:	fc24da925f 	{ ae_lp16x2f.c	aep1, a2, a5; nop }
    35af:	440304        	ae_lp16x2f.i	aep0, a3, 0
    35b2:	e223ed240f 	{ ae_lp16x2f.i	aep2, a4, 0; ae_mulafp24s.ll	aeq1, aep0, aep1 }
    35b7:	e2221a825f 	{ ae_lp16x2f.c	aep0, a2, a5; ae_mulafp24s.hh	aeq0, aep0, aep1 }
    35bc:	e20aad931f 	{ ae_lp16x2f.iu	aep1, a3, 4; ae_mulafp24s.lh	aeq0, aep2, aep0 }
    35c1:	f03d           	nop.n
    35c3:	f03d           	nop.n
    35c5:	138676        	loop	a6, 35dc <synth_3band+0x84>
    35c8:	ee08da825f 	{ ae_lp16x2f.c	aep0, a2, a5; ae_mulsfp24s.hl	aeq1, aep2, aep0 }
    35cd:	e207eda41f 	{ ae_lp16x2f.iu	aep2, a4, 4; ae_mulafp24s.ll	aeq1, aep1, aep0 }
    35d2:	e2061a825f 	{ ae_lp16x2f.c	aep0, a2, a5; ae_mulafp24s.hh	aeq0, aep1, aep0 }
    35d7:	e20aad931f 	{ ae_lp16x2f.iu	aep1, a3, 4; ae_mulafp24s.lh	aeq0, aep2, aep0 }

000035dc <synth_3band+0x84>:
    35dc:	ee08cc433e 	{ addi	a3, a3, -60; ae_mulsfp24s.hl	aeq1, aep2, aep0 }
    35e1:	fb63ed941f 	{ ae_lp16x2f.iu	aep1, a4, 4; ae_roundsp16q48asym	aep7, aeq0 }
    35e6:	f86b8c444e 	{ addi	a4, a4, -60; ae_roundsp16q48asym	aep0, aeq1 }
    35eb:	fc14728a1f 	{ ae_sp16f.l.iu	aep0, a10, 2; ae_movq56	aeq0, aeq2 }
    35f0:	fd1472fa1f 	{ ae_sp16f.l.iu	aep7, a10, 2; ae_movq56	aeq1, aeq2 }
    35f5:	f90d56        	bnez	a13, 3589 <synth_3band+0x31>
    35f8:	0829           	s32i.n	a2, a8, 0
    35fa:	f01d           	retw.n

000035fc <biquad_2cascade_24bitTx>:
    35fc:	008136        	entry	a1, 64
    35ff:	038d           	mov.n	a8, a3
    3601:	541304        	ae_lp24x2.i	aep1, a3, 0
    3604:	543314        	ae_lp24x2.i	aep3, a3, 8
    3607:	546324        	ae_lp24x2.i	aep6, a3, 16
    360a:	0216e6        	bgei	a6, 1, 3610 <biquad_2cascade_24bitTx+0x14>
    360d:	0059c6        	j	3778 <biquad_2cascade_24bitTx+0x17c>
    3610:	18c492        	addi	a9, a4, 24
    3613:	fec532        	addi	a3, a5, -2
    3616:	fcc222        	addi	a2, a2, -4
    3619:	406607        	bbci	a6, 0, 365d <biquad_2cascade_24bitTx+0x61>
    361c:	545404        	ae_lp24x2.i	aep5, a4, 0
    361f:	50f214        	ae_lp24f.iu	aep7, a2, 4
    3622:	540414        	ae_lp24x2.i	aep0, a4, 8
    3625:	f122be716f 	{ ae_selp24.lh	aep1, aep7, aep1; ae_mulzaafp24s.hh.ll	aeq2, aep0, aep1 }
    362a:	e33430442f 	{ ae_lp24x2.i	aep4, a4, 16; ae_mulaafp24s.hh.ll	aeq2, aep5, aep1 }
    362f:	01c384        	ae_mulsfp24s.hh	aeq2, aep4, aep3
    3632:	05c3c4        	ae_mulssfp24s.hh.ll	aeq2, aep4, aep3
    3635:	542444        	ae_lp24x2.i	aep2, a4, 32
    3638:	f877b0743f 	{ ae_lp24x2.i	aep7, a4, 24; ae_roundsp24q48asym	aep0, aeq2 }
    363d:	f06afe03ef 	{ ae_selp24.lh	aep3, aep0, aep3; ae_mulzaafp24s.hh.ll	aeq1, aep2, aep3 }
    3642:	e27c70545f 	{ ae_lp24x2.i	aep5, a4, 40; ae_mulaafp24s.hh.ll	aeq1, aep7, aep3 }
    3647:	015e84        	ae_mulsfp24s.hh	aeq1, aep5, aep6
    364a:	055ec4        	ae_mulssfp24s.hh.ll	aeq1, aep5, aep6
    364d:	f96fb1496f 	{ ae_lp24.i	aep4, a9, 24; ae_roundsp24q48asym	aep2, aeq1 }
    3652:	044204        	ae_mulzaafp24s.hh.ll	aeq0, aep4, aep2
    3655:	1b8f04        	ae_roundsp16q48asym	aep0, aeq0
    3658:	dfc9b2831f 	{ ae_sp16f.l.iu	aep0, a3, 2; ae_selp24.lh	aep6, aep2, aep6 }

0000365d <biquad_2cascade_24bitTx+0x61>:
    365d:	214160        	srai	a4, a6, 1
    3660:	114416        	beqz	a4, 3778 <biquad_2cascade_24bitTx+0x17c>
    3663:	5429d4        	ae_lp24x2.i	aep2, a9, -24
    3666:	5449e4        	ae_lp24x2.i	aep4, a9, -16
    3669:	505214        	ae_lp24f.i	aep5, a2, 4
    366c:	f132fe596f 	{ ae_selp24.lh	aep5, aep5, aep1; ae_mulzaafp24s.hh.ll	aeq3, aep4, aep1 }
    3671:	e3a87019ff 	{ ae_lp24x2.i	aep1, a9, -8; ae_mulaafp24s.hh.ll	aeq3, aep2, aep5 }
    3676:	019b84        	ae_mulsfp24s.hh	aeq3, aep1, aep3
    3679:	059bc4        	ae_mulssfp24s.hh.ll	aeq3, aep1, aep3
    367c:	547904        	ae_lp24x2.i	aep7, a9, 0
    367f:	f87fb0191f 	{ ae_lp24x2.i	aep1, a9, 8; ae_roundsp24q48asym	aep0, aeq3 }
    3684:	f166be032f 	{ ae_selp24.lh	aep0, aep0, aep3; ae_mulzaafp24s.hh.ll	aeq2, aep1, aep3 }
    3689:	e31c30492f 	{ ae_lp24x2.i	aep4, a9, 16; ae_mulaafp24s.hh.ll	aeq2, aep7, aep0 }
    368e:	01c684        	ae_mulsfp24s.hh	aeq2, aep4, aep6
    3691:	05c6c4        	ae_mulssfp24s.hh.ll	aeq2, aep4, aep6
    3694:	f03d           	nop.n
    3696:	fb77f1396f 	{ ae_lp24.i	aep3, a9, 24; ae_roundsp24q48asym	aep7, aeq2 }
    369b:	043f04        	ae_mulzaafp24s.hh.ll	aeq1, aep3, aep7
    369e:	f96bae922f 	{ ae_lp24f.iu	aep1, a2, 8; ae_roundsp16q48asym	aep2, aeq1 }
    36a3:	422314        	ae_sp16f.l.i	aep2, a3, 2
    36a6:	dca5f049ef 	{ ae_lp24x2.i	aep4, a9, -16; ae_selp24.lh	aep1, aep1, aep5 }
    36ab:	f0b2b039df 	{ ae_lp24x2.i	aep3, a9, -24; ae_mulzaafp24s.hh.ll	aeq0, aep4, aep5 }
    36b0:	e22c3029ff 	{ ae_lp24x2.i	aep2, a9, -8; ae_mulaafp24s.hh.ll	aeq0, aep3, aep1 }
    36b5:	012084        	ae_mulsfp24s.hh	aeq0, aep2, aep0
    36b8:	0520c4        	ae_mulssfp24s.hh.ll	aeq0, aep2, aep0
    36bb:	dfddf0490f 	{ ae_lp24x2.i	aep4, a9, 0; ae_selp24.lh	aep7, aep7, aep6 }
    36c0:	f967f0591f 	{ ae_lp24x2.i	aep5, a9, 8; ae_roundsp24q48asym	aep3, aeq0 }
    36c5:	f116fe30ef 	{ ae_selp24.lh	aep3, aep3, aep0; ae_mulzaafp24s.hh.ll	aeq3, aep5, aep0 }
    36ca:	e37070292f 	{ ae_lp24x2.i	aep2, a9, 16; ae_mulaafp24s.hh.ll	aeq3, aep4, aep3 }
    36cf:	01af84        	ae_mulsfp24s.hh	aeq3, aep2, aep7
    36d2:	05afc4        	ae_mulssfp24s.hh.ll	aeq3, aep2, aep7
    36d5:	540b           	addi.n	a5, a4, -1
    36d7:	fb7fb1096f 	{ ae_lp24.i	aep0, a9, 24; ae_roundsp24q48asym	aep6, aeq3 }
    36dc:	f0c2be6faf 	{ ae_selp24.lh	aep6, aep6, aep7; ae_mulzaafp24s.hh.ll	aeq0, aep0, aep6 }
    36e1:	7ea576        	loopgtz	a5, 3763 <biquad_2cascade_24bitTx+0x167>
    36e4:	50d224        	ae_lp24f.iu	aep5, a2, 8
    36e7:	f963ae02ff 	{ ae_lp24f.i	aep0, a2, -4; ae_roundsp16q48asym	aep2, aeq0 }
    36ec:	42a324        	ae_sp16f.l.iu	aep2, a3, 4
    36ef:	dd21b009ef 	{ ae_lp24x2.i	aep0, a9, -16; ae_selp24.lh	aep2, aep0, aep1 }
    36f4:	f022b009df 	{ ae_lp24x2.i	aep0, a9, -24; ae_mulzaafp24s.hh.ll	aeq0, aep0, aep1 }
    36f9:	e2403009ff 	{ ae_lp24x2.i	aep0, a9, -8; ae_mulaafp24s.hh.ll	aeq0, aep0, aep2 }
    36fe:	ec60b0491f 	{ ae_lp24x2.i	aep4, a9, 8; ae_mulsfp24s.hh	aeq0, aep0, aep3 }
    3703:	f06230090f 	{ ae_lp24x2.i	aep0, a9, 0; ae_mulssfp24s.hh.ll	aeq0, aep0, aep3 }
    3708:	f072f0492f 	{ ae_lp24x2.i	aep4, a9, 16; ae_mulzaafp24s.hh.ll	aeq1, aep4, aep3 }
    370d:	f867f1796f 	{ ae_lp24.i	aep7, a9, 24; ae_roundsp24q48asym	aep1, aeq0 }
    3712:	dc55fe1b6f 	{ ae_selp24.lh	aep5, aep1, aep3; ae_selp24.lh	aep1, aep5, aep2 }
    3717:	050d04        	ae_mulaafp24s.hh.ll	aeq1, aep0, aep5
    371a:	014e84        	ae_mulsfp24s.hh	aeq1, aep4, aep6
    371d:	054ec4        	ae_mulssfp24s.hh.ll	aeq1, aep4, aep6
    3720:	1b9d04        	ae_roundsp24q48asym	aep0, aeq1
    3723:	f01ebe062f 	{ ae_selp24.lh	aep0, aep0, aep6; ae_mulzaafp24s.hh.ll	aeq0, aep7, aep0 }
    3728:	1b8f44        	ae_roundsp16q48asym	aep4, aeq0
    372b:	424314        	ae_sp16f.l.i	aep4, a3, 2
    372e:	5449e4        	ae_lp24x2.i	aep4, a9, -16
    3731:	f052b029df 	{ ae_lp24x2.i	aep2, a9, -24; ae_mulzaafp24s.hh.ll	aeq0, aep4, aep2 }
    3736:	e2283029ff 	{ ae_lp24x2.i	aep2, a9, -8; ae_mulaafp24s.hh.ll	aeq0, aep2, aep1 }
    373b:	eca8b0491f 	{ ae_lp24x2.i	aep4, a9, 8; ae_mulsfp24s.hh	aeq0, aep2, aep5 }
    3740:	f0aa30290f 	{ ae_lp24x2.i	aep2, a9, 0; ae_mulssfp24s.hh.ll	aeq0, aep2, aep5 }
    3745:	f0b2f0492f 	{ ae_lp24x2.i	aep4, a9, 16; ae_mulzaafp24s.hh.ll	aeq1, aep4, aep5 }
    374a:	f967f1796f 	{ ae_lp24.i	aep7, a9, 24; ae_roundsp24q48asym	aep3, aeq0 }
    374f:	1ab5b4        	ae_selp24.lh	aep3, aep3, aep5
    3752:	052b04        	ae_mulaafp24s.hh.ll	aeq1, aep2, aep3
    3755:	014884        	ae_mulsfp24s.hh	aeq1, aep4, aep0
    3758:	0548c4        	ae_mulssfp24s.hh.ll	aeq1, aep4, aep0
    375b:	1b9d54        	ae_roundsp24q48asym	aep5, aeq1
    375e:	f0bebe58af 	{ ae_selp24.lh	aep6, aep5, aep0; ae_mulzaafp24s.hh.ll	aeq0, aep7, aep5 }

00003763 <biquad_2cascade_24bitTx+0x167>:
    3763:	fb63d3933f 	{ or	a9, a3, a3; ae_roundsp16q48asym	aep7, aeq0 }
    3768:	42f924        	ae_sp16f.l.iu	aep7, a9, 4
    376b:	561804        	ae_sp24x2s.i	aep1, a8, 0
    376e:	563814        	ae_sp24x2s.i	aep3, a8, 8
    3771:	566824        	ae_sp24x2s.i	aep6, a8, 16
    3774:	f01d           	retw.n

00003776 <biquad_2cascade_24bitTx+0x17a>:
	...

00003778 <biquad_2cascade_24bitTx+0x17c>:
    3778:	561804        	ae_sp24x2s.i	aep1, a8, 0
    377b:	563814        	ae_sp24x2s.i	aep3, a8, 8
    377e:	566824        	ae_sp24x2s.i	aep6, a8, 16
    3781:	f01d           	retw.n

00003783 <biquad_2cascade_24bitTx+0x187>:
	...

00003784 <conv_24_to_16>:
    3784:	004136        	entry	a1, 32
    3787:	f8c252        	addi	a5, a2, -8
    378a:	fcc322        	addi	a2, a3, -4
    378d:	5c9514        	ae_lp24x2f.iu	aep1, a5, 8
    3790:	f8e6aff51f 	{ ae_lp24x2f.iu	aep7, a5, 8; ae_roundsp16asym	aep0, aep1 }
    3795:	468214        	ae_sp16x2f.iu	aep0, a2, 4
    3798:	5cd514        	ae_lp24x2f.iu	aep5, a5, 8
    379b:	5cb514        	ae_lp24x2f.iu	aep3, a5, 8
    379e:	5c9514        	ae_lp24x2f.iu	aep1, a5, 8
    37a1:	0971e4        	ae_roundsp16asym	aep6, aep7
    37a4:	faf6b3e21f 	{ ae_sp16x2f.iu	aep6, a2, 4; ae_roundsp16asym	aep4, aep5 }
    37a9:	f9eeb3c21f 	{ ae_sp16x2f.iu	aep4, a2, 4; ae_roundsp16asym	aep2, aep3 }
    37ae:	f8e6b3a21f 	{ ae_sp16x2f.iu	aep2, a2, 4; ae_roundsp16asym	aep0, aep1 }
    37b3:	468214        	ae_sp16x2f.iu	aep0, a2, 4
    37b6:	f01d           	retw.n

000037b8 <gain_after_ec>:
    37b8:	006136        	entry	a1, 48
    37bb:	aa0c           	movi.n	a10, 10
    37bd:	06fd           	mov.n	a15, a6
    37bf:	fec3b2        	addi	a11, a3, -2
    37c2:	05dd           	mov.n	a13, a5
    37c4:	04ed           	mov.n	a14, a4
    37c6:	fec2c2        	addi	a12, a2, -2
    37c9:	21c9           	s32i.n	a12, a1, 8
    37cb:	440e04        	ae_lp16x2f.i	aep0, a14, 0
    37ce:	443d04        	ae_lp16x2f.i	aep3, a13, 0
    37d1:	0b9d           	mov.n	a9, a11
    37d3:	0c8d           	mov.n	a8, a12
    37d5:	f22941        	l32r	a4, 7c (ca94 <p_ecnr_mem>)
    37d8:	fecd72        	addi	a7, a13, -2
    37db:	1179           	s32i.n	a7, a1, 4
    37dd:	0c3d           	mov.n	a3, a12
    37df:	0d6d           	mov.n	a6, a13
    37e1:	0b2d           	mov.n	a2, a11
    37e3:	0448           	l32i.n	a4, a4, 0
    37e5:	fece52        	addi	a5, a14, -2
    37e8:	0159           	s32i.n	a5, a1, 0
    37ea:	1ad442        	addmi	a4, a4, 0x1a00
    37ed:	22c442        	addi	a4, a4, 34
    37f0:	404404        	ae_lp16f.i	aep4, a4, 0
    37f3:	0e4d           	mov.n	a4, a14
    37f5:	478a76        	loop	a10, 3840 <gain_after_ec+0x88>
    37f8:	e810ac921f 	{ ae_lp16f.iu	aep1, a2, 2; ae_mulfp24s.hh	aeq0, aep4, aep0 }
    37fd:	ea11ed841f 	{ ae_lp16x2f.iu	aep0, a4, 4; ae_mulfp24s.ll	aeq1, aep4, aep0 }
    3802:	e970aca31f 	{ ae_lp16f.iu	aep2, a3, 2; ae_mulfp24s.hh	aeq2, aep4, aep3 }
    3807:	eb51fa914f 	{ ae_slliq56	aeq1, aeq1, 4; ae_mulfp24s.ll	aeq3, aep4, aep2 }
    380c:	f9ebba810f 	{ ae_slliq56	aeq0, aeq0, 4; ae_roundsp16q48sym	aep2, aeq1 }
    3811:	f9e3b2a52f 	{ ae_sp16f.l.iu	aep2, a5, 4; ae_roundsp16q48sym	aep2, aeq0 }
    3816:	ea71b225ff 	{ ae_sp16f.l.i	aep2, a5, -2; ae_mulfp24s.ll	aeq0, aep4, aep3 }
    381b:	eb31baa14f 	{ ae_slliq56	aeq1, aeq2, 4; ae_mulfp24s.ll	aeq2, aep4, aep1 }
    3820:	f8ebedb61f 	{ ae_lp16x2f.iu	aep3, a6, 4; ae_roundsp16q48sym	aep1, aeq1 }
    3825:	421714        	ae_sp16f.l.i	aep1, a7, 2
    3828:	350114        	ae_slliq56	aeq0, aeq0, 4
    382b:	357114        	ae_slliq56	aeq1, aeq3, 4
    382e:	f8e3faa10f 	{ ae_slliq56	aeq0, aeq2, 4; ae_roundsp16q48sym	aep1, aeq0 }
    3833:	f8ebf2972f 	{ ae_sp16f.l.iu	aep1, a7, 4; ae_roundsp16q48sym	aep1, aeq1 }
    3838:	f8e3f2981f 	{ ae_sp16f.l.iu	aep1, a8, 2; ae_roundsp16q48sym	aep1, aeq0 }
    383d:	429914        	ae_sp16f.l.iu	aep1, a9, 2

00003840 <gain_after_ec+0x88>:
    3840:	8f0b           	addi.n	a8, a15, -1
    3842:	082856        	bnez	a8, 38c8 <gain_after_ec+0x110>
    3845:	f290c1        	l32r	a12, 288 (1a24 <Pitch_by_Corel+0x5c8>)
    3848:	0168           	l32i.n	a6, a1, 0
    384a:	f28ef1        	l32r	a15, 284 (1a2a <Pitch_by_Corel+0x5ce>)
    384d:	1188           	l32i.n	a8, a1, 4
    384f:	a20c           	movi.n	a2, 10
    3851:	2148           	l32i.n	a4, a1, 8
    3853:	0e5d           	mov.n	a5, a14
    3855:	441e04        	ae_lp16x2f.i	aep1, a14, 0
    3858:	0d7d           	mov.n	a7, a13
    385a:	0b3d           	mov.n	a3, a11
    385c:	446d04        	ae_lp16x2f.i	aep6, a13, 0
    385f:	f207b1        	l32r	a11, 7c (ca94 <p_ecnr_mem>)
    3862:	03ad           	mov.n	a10, a3
    3864:	f287d1        	l32r	a13, 280 (1a26 <Pitch_by_Corel+0x5ca>)
    3867:	f289e1        	l32r	a14, 28c (1a28 <Pitch_by_Corel+0x5cc>)
    386a:	209440        	or	a9, a4, a4
    386d:	578276        	loop	a2, 38c8 <gain_after_ec+0x110>
    3870:	0b28           	l32i.n	a2, a11, 0
    3872:	40b314        	ae_lp16f.iu	aep3, a3, 2
    3875:	40c414        	ae_lp16f.iu	aep4, a4, 2
    3878:	4102f4        	ae_lp16f.x	aep0, a2, a15
    387b:	ea2199a2df 	{ ae_lp16f.x	aep2, a2, a13; ae_mulfp24s.ll	aeq0, aep0, aep1 }

00003880 <gain_after_ec+0xc8>:
    3880:	e820ed951f 	{ ae_lp16x2f.iu	aep1, a5, 4; ae_mulfp24s.hh	aeq1, aep0, aep1 }
    3885:	ebc9ba802f 	{ ae_slliq56	aeq0, aeq0, 2; ae_mulfp24s.ll	aeq2, aep2, aep6 }
    388a:	f8e3ba902f 	{ ae_slliq56	aeq0, aeq1, 2; ae_roundsp16q48sym	aep0, aeq0 }
    388f:	fae3faa02f 	{ ae_slliq56	aeq0, aeq2, 2; ae_roundsp16q48sym	aep5, aeq0 }
    3894:	e8c8f2561f 	{ ae_sp16f.l.i	aep5, a6, 2; ae_mulfp24s.hh	aeq1, aep2, aep6 }
    3899:	f8e3b2862f 	{ ae_sp16f.l.iu	aep0, a6, 4; ae_roundsp16q48sym	aep0, aeq0 }
    389e:	0b28           	l32i.n	a2, a11, 0
    38a0:	351094        	ae_slliq56	aeq0, aeq1, 2
    38a3:	f9e3ade71f 	{ ae_lp16x2f.iu	aep6, a7, 4; ae_roundsp16q48sym	aep2, aeq0 }
    38a8:	4152c4        	ae_lp16f.x	aep5, a2, a12
    38ab:	ea9599c2ef 	{ ae_lp16f.x	aep4, a2, a14; ae_mulfp24s.ll	aeq0, aep5, aep4 }
    38b0:	ea71f2281f 	{ ae_sp16f.l.i	aep2, a8, 2; ae_mulfp24s.ll	aeq1, aep4, aep3 }
    38b5:	428824        	ae_sp16f.l.iu	aep0, a8, 4
    38b8:	350094        	ae_slliq56	aeq0, aeq0, 2
    38bb:	f9e3fa902f 	{ ae_slliq56	aeq0, aeq1, 2; ae_roundsp16q48sym	aep3, aeq0 }
    38c0:	f9e3f2b91f 	{ ae_sp16f.l.iu	aep3, a9, 2; ae_roundsp16q48sym	aep3, aeq0 }
    38c5:	42ba14        	ae_sp16f.l.iu	aep3, a10, 2

000038c8 <gain_after_ec+0x110>:
    38c8:	f01d           	retw.n

000038ca <gain_after_ec+0x112>:
	...

000038cc <adjust_phase>:
    38cc:	004136        	entry	a1, 32
    38cf:	301334        	ae_cvtp24a16x2.ll	aep1, a3, a3
    38d2:	360234        	ae_cvtq48a32s	aeq0, a2
    38d5:	a11104        	ae_mulzaafq32sp16s.ll	aeq0, aeq0, aep1, aeq0, aep1
    38d8:	1b8f04        	ae_roundsp16q48asym	aep0, aeq0
    38db:	0002d4        	ae_cvta32p24.l	a2, aep0
    38de:	f01d           	retw.n

000038e0 <adjust_bib_state>:
    38e0:	004136        	entry	a1, 32
    38e3:	fcc232        	addi	a3, a2, -4
    38e6:	600204        	ae_lq32f.i	aeq0, a2, 0
    38e9:	840c           	movi.n	a4, 8
    38eb:	f03d           	nop.n
    38ed:	0a8476        	loop	a4, 38fb <adjust_bib_state+0x1b>
    38f0:	350074        	ae_sraiq56	aeq0, aeq0, 1
    38f3:	f867bd121f 	{ ae_lq32f.iu	aeq0, a2, 4; ae_roundsp24q48asym	aep0, aeq0 }
    38f8:	528314        	ae_sp24f.l.iu	aep0, a3, 4

000038fb <adjust_bib_state+0x1b>:
    38fb:	f01d           	retw.n

000038fd <adjust_bib_state+0x1d>:
    38fd:	000000                                        ...

00003900 <aec_post_prcs>:
    3900:	004136        	entry	a1, 32
    3903:	159282        	l16si	a8, a2, 42
    3906:	01d272        	addmi	a7, a2, 0x100
    3909:	28c292        	addi	a9, a2, 40
    390c:	f26151        	l32r	a5, 290 (7fffff <_end+0x7f355f>)
    390f:	39a554        	ae_movpa24x2	aep2, a5, a5
    3912:	406904        	ae_lp16f.i	aep6, a9, 0
    3915:	4ac762        	addi	a6, a7, 74
    3918:	301884        	ae_cvtp24a16x2.ll	aep1, a8, a8
    391b:	4cc772        	addi	a7, a7, 76
    391e:	149282        	l16si	a8, a2, 40
    3921:	155282        	s16i	a8, a2, 42
    3924:	400704        	ae_lp16f.i	aep0, a7, 0
    3927:	de3aec760f 	{ ae_lp16f.i	aep7, a6, 0; ae_subsp24s	aep5, aep6, aep1 }
    392c:	ea1d8fe42e 	{ addi	a2, a4, -2; ae_mulfp24s.ll	aeq0, aep7, aep0 }
    3931:	ce3440006f 	{ movi	a6, 0; ae_sraip24	aep5, aep5, 4 }
    3936:	fa67ac030f 	{ ae_lp16f.i	aep0, a3, 0; ae_roundsp24q48asym	aep4, aeq0 }

0000393b <aec_post_prcs+0x3b>:
    393b:	079514        	ae_addsp24s	aep1, aep1, aep5
    393e:	019874        	ae_mulfp24s.ll	aeq3, aep1, aep0
    3941:	07a1f4        	ae_subsp24s	aep7, aep2, aep1
    3944:	eb9d80166e 	{ addi	a6, a6, 1; ae_mulfp24s.ll	aeq2, aep7, aep4 }
    3949:	e40c           	movi.n	a4, 14
    394b:	fd3c7aa0af 	{ ae_slliq56	aeq2, aeq2, 2; ae_roundsq32asym	aeq1, aeq3 }
    3950:	fe346ce21f 	{ ae_lp16f.iu	aep6, a2, 2; ae_roundsq32asym	aeq2, aeq2 }
    3955:	f69aec831f 	{ ae_lp16f.iu	aep0, a3, 2; ae_mulafq32sp16s.l	aeq1, aeq2, aep6 }
    395a:	128476        	loop	a4, 3970 <aec_post_prcs+0x70>
    395d:	011074        	ae_mulfp24s.ll	aeq0, aep1, aep0
    3960:	1b9f04        	ae_roundsp16q48asym	aep0, aeq1
    3963:	fd247203ff 	{ ae_sp16f.l.i	aep0, a3, -2; ae_roundsq32asym	aeq1, aeq0 }
    3968:	408214        	ae_lp16f.iu	aep0, a2, 2
    396b:	f682ec831f 	{ ae_lp16f.iu	aep0, a3, 2; ae_mulafq32sp16s.l	aeq1, aeq2, aep0 }

00003970 <aec_post_prcs+0x70>:
    3970:	1b9f34        	ae_roundsp16q48asym	aep3, aeq1
    3973:	4233f4        	ae_sp16f.l.i	aep3, a3, -2
    3976:	c1b666        	bnei	a6, 16, 393b <aec_post_prcs+0x3b>
    3979:	f01d           	retw.n

0000397b <aec_post_prcs+0x7b>:
	...

0000397c <AVC_prcs>:
    397c:	004136        	entry	a1, 32
    397f:	440304        	ae_lp16x2f.i	aep0, a3, 0
    3982:	fc2480789f 	{ movi	a9, 120; ae_zeroq56	aeq0 }
    3987:	048976        	loop	a9, 398f <AVC_prcs+0x13>
    398a:	e2002d831f 	{ ae_lp16x2f.iu	aep0, a3, 4; ae_mulaafp24s.hh.ll	aeq0, aep0, aep0 }

0000398f <AVC_prcs+0x13>:
    398f:	3581f4        	ae_sraiq56	aeq2, aeq0, 7
    3992:	f24091        	l32r	a9, 294 (11111 <_end+0x4671>)
    3995:	fd3462099f 	{ ae_movpa24x2	aep0, a9, a9; ae_roundsq32asym	aeq1, aeq2 }
    399a:	080d64        	ae_mulfq32sp24s.l	aeq1, aeq1, aep0
    399d:	f1b681        	l32r	a8, 78 (808 <HIFI_sqrt>)
    39a0:	3551d4        	ae_slliq56	aeq1, aeq1, 7
    39a3:	fc2c4000af 	{ movi	a10, 0; ae_roundsq32asym	aeq0, aeq1 }
    39a8:	368b04        	ae_trunca32q48	a11, aeq0
    39ab:	0008e0        	callx8	a8
    39ae:	f21c81        	l32r	a8, 220 (8b28 <airoha_divide>)
    39b1:	604224        	ae_lq32f.i	aeq1, a2, 8
    39b4:	368b34        	ae_cvtq48a32s	aeq2, a11
    39b7:	441204        	ae_lp16x2f.i	aep1, a2, 0
    39ba:	0292b2        	l16si	a11, a2, 4
    39bd:	fc24feaa0f 	{ ae_slaasq56s	aeq0, aeq2, a10; nop }
    39c2:	c11114        	ae_mulzaafq32sp16s.lh	aeq0, aeq0, aep1, aeq1, aep1
    39c5:	11bb00        	slli	a11, a11, 16
    39c8:	06c934        	ae_roundsq32asym	aeq3, aeq0
    39cb:	36ba04        	ae_trunca32q48	a10, aeq3
    39ce:	22a9           	s32i.n	a10, a2, 8
    39d0:	0008e0        	callx8	a8
    39d3:	f22291        	l32r	a9, 25c (2000 <pitch_by_harmonic+0x4b8>)
    39d6:	fecaa2        	addi	a10, a10, -2
    39d9:	360b34        	ae_cvtq48a32s	aeq0, a11
    39dc:	fc24fe8acf 	{ ae_slaasq56s	aeq3, aeq0, a10; nop }
    39e1:	f97ba0328e 	{ l16si	a8, a2, 6; ae_roundsp16q48asym	aep2, aeq3 }
    39e6:	362224        	ae_trunca16p24s.l	a2, aep2
    39e9:	532290        	max	a2, a2, a9
    39ec:	432280        	min	a2, a2, a8
    39ef:	f01d           	retw.n

000039f1 <AVC_prcs+0x75>:
    39f1:	000000                                        ...

000039f4 <gain_ref>:
    39f4:	004136        	entry	a1, 32
    39f7:	fcc222        	addi	a2, a2, -4
    39fa:	448214        	ae_lp16x2f.iu	aep0, a2, 4
    39fd:	3b14a6        	blti	a4, 1, 3a3c <gain_ref+0x48>
    3a00:	302334        	ae_cvtp24a16x2.ll	aep2, a3, a3
    3a03:	ea41cff43e 	{ addi	a3, a4, -1; ae_mulfp24s.ll	aeq1, aep0, aep2 }
    3a08:	ea40ad821f 	{ ae_lp16x2f.iu	aep0, a2, 4; ae_mulfp24s.hl	aeq0, aep0, aep2 }
    3a0d:	355094        	ae_slliq56	aeq1, aeq1, 2
    3a10:	f86bfa802f 	{ ae_slliq56	aeq0, aeq0, 2; ae_roundsp16q48asym	aep1, aeq1 }
    3a15:	f863f212ff 	{ ae_sp16f.l.i	aep1, a2, -2; ae_roundsp16q48asym	aep1, aeq0 }
    3a1a:	0020f0        	nop
    3a1d:	16a376        	loopgtz	a3, 3a37 <gain_ref+0x43>
    3a20:	ea41b212ef 	{ ae_sp16f.l.i	aep1, a2, -4; ae_mulfp24s.ll	aeq0, aep0, aep2 }
    3a25:	ea40ed821f 	{ ae_lp16x2f.iu	aep0, a2, 4; ae_mulfp24s.hl	aeq1, aep0, aep2 }
    3a2a:	350094        	ae_slliq56	aeq0, aeq0, 2
    3a2d:	f863fa902f 	{ ae_slliq56	aeq0, aeq1, 2; ae_roundsp16q48asym	aep1, aeq0 }
    3a32:	f863f212ff 	{ ae_sp16f.l.i	aep1, a2, -2; ae_roundsp16q48asym	aep1, aeq0 }

00003a37 <gain_ref+0x43>:
    3a37:	4212e4        	ae_sp16f.l.i	aep1, a2, -4
    3a3a:	f01d           	retw.n

00003a3c <gain_ref+0x48>:
    3a3c:	f01d           	retw.n

00003a3e <gain_ref+0x4a>:
	...

00003a40 <Voice_WB_TX_Prcs>:
    3a40:	022136        	entry	a1, 0x110
    3a43:	04bd           	mov.n	a11, a4
    3a45:	f18d41        	l32r	a4, 7c (ca94 <p_ecnr_mem>)
    3a48:	296152        	s32i	a5, a1, 164
    3a4b:	04e8           	l32i.n	a14, a4, 0
    3a4d:	216162        	s32i	a6, a1, 132
    3a50:	038d           	mov.n	a8, a3
    3a52:	3fdef2        	addmi	a15, a14, 0x3f00
    3a55:	3dde92        	addmi	a9, a14, 0x3d00
    3a58:	37ded2        	addmi	a13, a14, 0x3700
    3a5b:	3cde72        	addmi	a7, a14, 0x3c00
    3a5e:	2cde32        	addmi	a3, a14, 0x2c00
    3a61:	f8c332        	addi	a3, a3, -8
    3a64:	40c772        	addi	a7, a7, 64
    3a67:	28cdd2        	addi	a13, a13, 40
    3a6a:	8cc9c2        	addi	a12, a9, -116
    3a6d:	441992        	l16ui	a9, a9, 136
    3a70:	78cff2        	addi	a15, a15, 120
    3a73:	2c61f2        	s32i	a15, a1, 176
    3a76:	7f7916        	beqz	a9, 4271 <Voice_WB_TX_Prcs+0x831>
    3a79:	3861d2        	s32i	a13, a1, 224
    3a7c:	1adef2        	addmi	a15, a14, 0x1a00
    3a7f:	366182        	s32i	a8, a1, 216
    3a82:	025d           	mov.n	a5, a2
    3a84:	19de82        	addmi	a8, a14, 0x1900
    3a87:	592822        	l32i	a2, a8, 0x164
    3a8a:	582892        	l32i	a9, a8, 0x160
    3a8d:	346192        	s32i	a9, a1, 208
    3a90:	376122        	s32i	a2, a1, 220
    3a93:	14cf22        	addi	a2, a15, 20
    3a96:	0b9fd2        	l16si	a13, a15, 22
    3a99:	ffa3f2        	movi	a15, 0x3ff
    3a9c:	09c2d4        	ae_s16ip	a13, a2, 2
    3a9f:	32ad           	ae_l16si.n	a10, a2, 2
    3aa1:	09c2a4        	ae_s16ip	a10, a2, 2
    3aa4:	329d           	ae_l16si.n	a9, a2, 2
    3aa6:	09c294        	ae_s16ip	a9, a2, 2
    3aa9:	32dd           	ae_l16si.n	a13, a2, 2
    3aab:	09c2d4        	ae_s16ip	a13, a2, 2
    3aae:	6aded2        	addmi	a13, a14, 0x6a00
    3ab1:	32ad           	ae_l16si.n	a10, a2, 2
    3ab3:	09c2a4        	ae_s16ip	a10, a2, 2
    3ab6:	329d           	ae_l16si.n	a9, a2, 2
    3ab8:	09c294        	ae_s16ip	a9, a2, 2
    3abb:	9998a2        	l16si	a10, a8, 0x132
    3abe:	11aa90        	slli	a10, a10, 7
    3ac1:	62ad           	ae_s16i.n	a10, a2, 0
    3ac3:	3e1d92        	l16ui	a9, a13, 124
    3ac6:	9099e0        	addx2	a9, a9, a14
    3ac9:	1ad992        	addmi	a9, a9, 0x1a00
    3acc:	0a9992        	l16si	a9, a9, 20
    3acf:	989822        	l16si	a2, a8, 0x130
    3ad2:	80cdd2        	addi	a13, a13, -128
    3ad5:	2aaf97        	bge	a15, a9, 3b03 <Voice_WB_TX_Prcs+0xc3>
    3ad8:	0f6c           	movi.n	a15, -32
    3ada:	0baf27        	bge	a15, a2, 3ae9 <Voice_WB_TX_Prcs+0xa9>
    3add:	f97c           	movi.n	a9, -1
    3adf:	220b           	addi.n	a2, a2, -1
    3ae1:	432290        	min	a2, a2, a9
    3ae4:	822d           	ae_sext16	a2, a2
    3ae6:	985822        	s16i	a2, a8, 0x130

00003ae9 <Voice_WB_TX_Prcs+0xa9>:
    3ae9:	ffdca2        	addmi	a10, a12, 0xffffff00
    3aec:	729a62        	l16si	a6, a10, 228
    3aef:	ffa1f2        	movi	a15, 0x1ff
    3af2:	1c2f67        	blt	a15, a6, 3b12 <Voice_WB_TX_Prcs+0xd2>
    3af5:	261b           	addi.n	a2, a6, 1
    3af7:	725a22        	s16i	a2, a10, 228
    3afa:	989822        	l16si	a2, a8, 0x130
    3afd:	000446        	j	3b12 <Voice_WB_TX_Prcs+0xd2>

00003b00 <Voice_WB_TX_Prcs+0xc0>:
    3b00:	000000                                        ...

00003b03 <Voice_WB_TX_Prcs+0xc3>:
    3b03:	0bc2e6        	bgei	a2, 32, 3b12 <Voice_WB_TX_Prcs+0xd2>
    3b06:	190c           	movi.n	a9, 1
    3b08:	221b           	addi.n	a2, a2, 1
    3b0a:	532290        	max	a2, a2, a9
    3b0d:	822d           	ae_sext16	a2, a2
    3b0f:	985822        	s16i	a2, a8, 0x130
    3b12:	7f1dd2        	l16ui	a13, a13, 254
    3b15:	03ad           	mov.n	a10, a3
    3b17:	f1e081        	l32r	a8, 298 (317c <mic240_delay>)
    3b1a:	090c           	movi.n	a9, 0
    3b1c:	5c99           	s32i.n	a9, a12, 20
    3b1e:	156c92        	s32i	a9, a12, 84
    3b21:	256c92        	s32i	a9, a12, 148
    3b24:	356c92        	s32i	a9, a12, 212
    3b27:	6c99           	s32i.n	a9, a12, 24
    3b29:	166c92        	s32i	a9, a12, 88
    3b2c:	266c92        	s32i	a9, a12, 152
    3b2f:	366c92        	s32i	a9, a12, 216
    3b32:	18dec2        	addmi	a12, a14, 0x1800
    3b35:	34ccc2        	addi	a12, a12, 52
    3b38:	0008e0        	callx8	a8
    3b3b:	10c1a2        	addi	a10, a1, 16
    3b3e:	f15781        	l32r	a8, 9c (9dc8 <xt_memset>)
    3b41:	0b0c           	movi.n	a11, 0
    3b43:	ac0c           	movi.n	a12, 10
    3b45:	0008e0        	callx8	a8
    3b48:	3821a2        	l32i	a10, a1, 224
    3b4b:	0c0c           	movi.n	a12, 0
    3b4d:	1cc162        	addi	a6, a1, 28
    3b50:	0f0c           	movi.n	a15, 0
    3b52:	48c782        	addi	a8, a7, 72
    3b55:	14c1e2        	addi	a14, a1, 20
    3b58:	18c192        	addi	a9, a1, 24
    3b5b:	2d6192        	s32i	a9, a1, 180
    3b5e:	1761e2        	s32i	a14, a1, 92
    3b61:	2e6182        	s32i	a8, a1, 184
    3b64:	3561f2        	s32i	a15, a1, 212
    3b67:	326162        	s32i	a6, a1, 200
    3b6a:	0f0c           	movi.n	a15, 0
    3b6c:	060c           	movi.n	a6, 0
    3b6e:	080c           	movi.n	a8, 0
    3b70:	0e0c           	movi.n	a14, 0
    3b72:	20c192        	addi	a9, a1, 32
    3b75:	206192        	s32i	a9, a1, 128
    3b78:	2761e2        	s32i	a14, a1, 156
    3b7b:	c25ac2        	s16i	a12, a10, 0x184
    3b7e:	78cad2        	addi	a13, a10, 120
    3b81:	02dab2        	addmi	a11, a10, 0x200
    3b84:	286182        	s32i	a8, a1, 160
    3b87:	256162        	s32i	a6, a1, 148
    3b8a:	2661f2        	s32i	a15, a1, 152
    3b8d:	f1c361        	l32r	a6, 29c (1830 <Pitch_by_Corel+0x3d4>)
    3b90:	01d7f2        	addmi	a15, a7, 0x100
    3b93:	04da82        	addmi	a8, a10, 0x400
    3b96:	e0cbb2        	addi	a11, a11, -32
    3b99:	1c61d2        	s32i	a13, a1, 112
    3b9c:	38c1c2        	addi	a12, a1, 56
    3b9f:	1d61c2        	s32i	a12, a1, 116
    3ba2:	02dad2        	addmi	a13, a10, 0x200
    3ba5:	1961b2        	s32i	a11, a1, 100
    3ba8:	b8c882        	addi	a8, a8, -72
    3bab:	2a6182        	s32i	a8, a1, 168
    3bae:	40c1b2        	addi	a11, a1, 64
    3bb1:	1f61b2        	s32i	a11, a1, 124
    3bb4:	a0cdc2        	addi	a12, a13, -96
    3bb7:	1861c2        	s32i	a12, a1, 96
    3bba:	6b0c           	movi.n	a11, 6
    3bbc:	3361b2        	s32i	a11, a1, 204
    3bbf:	0dcd           	mov.n	a12, a13
    3bc1:	01dab2        	addmi	a11, a10, 0x100
    3bc4:	60ccc2        	addi	a12, a12, 96
    3bc7:	20cdd2        	addi	a13, a13, 32
    3bca:	1a61d2        	s32i	a13, a1, 104
    3bcd:	1b61c2        	s32i	a12, a1, 108
    3bd0:	03daa2        	addmi	a10, a10, 0x300
    3bd3:	eccbe2        	addi	a14, a11, -20
    3bd6:	2b61e2        	s32i	a14, a1, 172
    3bd9:	a0ca92        	addi	a9, a10, -96
    3bdc:	0fed           	mov.n	a14, a15
    3bde:	236192        	s32i	a9, a1, 140
    3be1:	2ccaa2        	addi	a10, a10, 44
    3be4:	2461a2        	s32i	a10, a1, 144
    3be7:	c8cf92        	addi	a9, a15, -56
    3bea:	88cee2        	addi	a14, a14, -120
    3bed:	3161e2        	s32i	a14, a1, 196
    3bf0:	2f6192        	s32i	a9, a1, 188
    3bf3:	ff8b           	addi.n	a15, a15, 8
    3bf5:	3061f2        	s32i	a15, a1, 192
    3bf8:	0b9d           	mov.n	a9, a11
    3bfa:	a8c992        	addi	a9, a9, -88
    3bfd:	90cbb2        	addi	a11, a11, -112
    3c00:	1e61b2        	s32i	a11, a1, 120
    3c03:	166192        	s32i	a9, a1, 88

00003c06 <Voice_WB_TX_Prcs+0x1c6>:
    3c06:	05ad           	mov.n	a10, a5
    3c08:	04c8           	l32i.n	a12, a4, 0
    3c0a:	28a0d2        	movi	a13, 40
    3c0d:	f1a481        	l32r	a8, 2a0 (33d8 <emph_filter_N>)
    3c10:	80bc60        	add	a11, a12, a6
    3c13:	18dcc2        	addmi	a12, a12, 0x1800
    3c16:	1cccc2        	addi	a12, a12, 28
    3c19:	0008e0        	callx8	a8
    3c1c:	03ad           	mov.n	a10, a3
    3c1e:	04c8           	l32i.n	a12, a4, 0
    3c20:	28a0d2        	movi	a13, 40
    3c23:	f19f81        	l32r	a8, 2a0 (33d8 <emph_filter_N>)
    3c26:	80bc60        	add	a11, a12, a6
    3c29:	18dcc2        	addmi	a12, a12, 0x1800
    3c2c:	20ccc2        	addi	a12, a12, 32
    3c2f:	0008e0        	callx8	a8
    3c32:	20c550        	or	a12, a5, a5
    3c35:	0024b2        	l32i	a11, a4, 0
    3c38:	10c1e2        	addi	a14, a1, 16
    3c3b:	f19a81        	l32r	a8, 2a4 (31b8 <tx_downsample_by2>)
    3c3e:	30dbd2        	addmi	a13, a11, 0x3000
    3c41:	19dbb2        	addmi	a11, a11, 0x1900
    3c44:	f8cdd2        	addi	a13, a13, -8
    3c47:	502ba2        	l32i	a10, a11, 0x140
    3c4a:	512bb2        	l32i	a11, a11, 0x144
    3c4d:	0008e0        	callx8	a8
    3c50:	03cd           	mov.n	a12, a3
    3c52:	04b8           	l32i.n	a11, a4, 0
    3c54:	2d21e2        	l32i	a14, a1, 180
    3c57:	f19381        	l32r	a8, 2a4 (31b8 <tx_downsample_by2>)
    3c5a:	30dbd2        	addmi	a13, a11, 0x3000
    3c5d:	19dbb2        	addmi	a11, a11, 0x1900
    3c60:	18cdd2        	addi	a13, a13, 24
    3c63:	542ba2        	l32i	a10, a11, 0x150
    3c66:	552bb2        	l32i	a11, a11, 0x154
    3c69:	0008e0        	callx8	a8
    3c6c:	3f27d2        	l32i	a13, a7, 252
    3c6f:	0024c2        	l32i	a12, a4, 0
    3c72:	2f27e2        	l32i	a14, a7, 188
    3c75:	f18c81        	l32r	a8, 2a8 (3484 <analy_3band>)
    3c78:	3edcb2        	addmi	a11, a12, 0x3e00
    3c7b:	19dcc2        	addmi	a12, a12, 0x1900
    3c7e:	c0cbb2        	addi	a11, a11, -64
    3c81:	502ca2        	l32i	a10, a12, 0x140
    3c84:	4f2cc2        	l32i	a12, a12, 0x13c
    3c87:	0008e0        	callx8	a8
    3c8a:	1f27d2        	l32i	a13, a7, 124
    3c8d:	04a8           	l32i.n	a10, a4, 0
    3c8f:	ae0c           	movi.n	a14, 10
    3c91:	f18681        	l32r	a8, 2ac (35fc <biquad_2cascade_24bitTx>)
    3c94:	18dac2        	addmi	a12, a10, 0x1800
    3c97:	31dab2        	addmi	a11, a10, 0x3100
    3c9a:	98cbb2        	addi	a11, a11, -104
    3c9d:	e8ccc2        	addi	a12, a12, -24
    3ca0:	1adaa2        	addmi	a10, a10, 0x1a00
    3ca3:	faa8           	l32i.n	a10, a10, 60
    3ca5:	0008e0        	callx8	a8
    3ca8:	4027d2        	l32i	a13, a7, 0x100
    3cab:	04c8           	l32i.n	a12, a4, 0
    3cad:	3027e2        	l32i	a14, a7, 192
    3cb0:	f17e81        	l32r	a8, 2a8 (3484 <analy_3band>)
    3cb3:	3edcb2        	addmi	a11, a12, 0x3e00
    3cb6:	19dcc2        	addmi	a12, a12, 0x1900
    3cb9:	542ca2        	l32i	a10, a12, 0x150
    3cbc:	4f2cc2        	l32i	a12, a12, 0x13c
    3cbf:	0008e0        	callx8	a8
    3cc2:	04a8           	l32i.n	a10, a4, 0
    3cc4:	2027b2        	l32i	a11, a7, 128
    3cc7:	f17a81        	l32r	a8, 2b0 (3784 <conv_24_to_16>)
    3cca:	1adaa2        	addmi	a10, a10, 0x1a00
    3ccd:	faa8           	l32i.n	a10, a10, 60
    3ccf:	0008e0        	callx8	a8
    3cd2:	07ad           	mov.n	a10, a7
    3cd4:	2e21b2        	l32i	a11, a1, 184
    3cd7:	ac0c           	movi.n	a12, 10
    3cd9:	f17681        	l32r	a8, 2b4 (2924 <subband_aec_block>)
    3cdc:	02dd           	mov.n	a13, a2
    3cde:	1e0c           	movi.n	a14, 1
    3ce0:	0008e0        	callx8	a8
    3ce3:	07ad           	mov.n	a10, a7
    3ce5:	2f21b2        	l32i	a11, a1, 188
    3ce8:	ac0c           	movi.n	a12, 10
    3cea:	f17281        	l32r	a8, 2b4 (2924 <subband_aec_block>)
    3ced:	02dd           	mov.n	a13, a2
    3cef:	3e0c           	movi.n	a14, 3
    3cf1:	0008e0        	callx8	a8
    3cf4:	07ad           	mov.n	a10, a7
    3cf6:	3021b2        	l32i	a11, a1, 192
    3cf9:	4c1c           	movi.n	a12, 20
    3cfb:	f16e81        	l32r	a8, 2b4 (2924 <subband_aec_block>)
    3cfe:	02dd           	mov.n	a13, a2
    3d00:	4e0c           	movi.n	a14, 4
    3d02:	0008e0        	callx8	a8
    3d05:	07ad           	mov.n	a10, a7
    3d07:	3121b2        	l32i	a11, a1, 196
    3d0a:	f16b81        	l32r	a8, 2b8 (2bd8 <subband_aec_mid_channel>)
    3d0d:	02cd           	mov.n	a12, a2
    3d0f:	2d0c           	movi.n	a13, 2
    3d11:	0008e0        	callx8	a8
    3d14:	2127a2        	l32i	a10, a7, 132
    3d17:	4127b2        	l32i	a11, a7, 0x104
    3d1a:	5127c2        	l32i	a12, a7, 0x144
    3d1d:	f16781        	l32r	a8, 2bc (37b8 <gain_after_ec>)
    3d20:	3127d2        	l32i	a13, a7, 196
    3d23:	0e0c           	movi.n	a14, 0
    3d25:	0008e0        	callx8	a8
    3d28:	04e8           	l32i.n	a14, a4, 0
    3d2a:	19de82        	addmi	a8, a14, 0x1900
    3d2d:	969892        	l16si	a9, a8, 0x12c
    3d30:	fec992        	addi	a9, a9, -2
    3d33:	375956        	bnez	a9, 40ac <Voice_WB_TX_Prcs+0x66c>
    3d36:	be6a           	add.n	a11, a14, a6
    3d38:	3621a2        	l32i	a10, a1, 216
    3d3b:	8d2c           	movi.n	a13, 40
    3d3d:	f15881        	l32r	a8, 2a0 (33d8 <emph_filter_N>)
    3d40:	18dec2        	addmi	a12, a14, 0x1800
    3d43:	24ccc2        	addi	a12, a12, 36
    3d46:	0008e0        	callx8	a8
    3d49:	3621c2        	l32i	a12, a1, 216
    3d4c:	04b8           	l32i.n	a11, a4, 0
    3d4e:	1721e2        	l32i	a14, a1, 92
    3d51:	f15481        	l32r	a8, 2a4 (31b8 <tx_downsample_by2>)
    3d54:	30dbd2        	addmi	a13, a11, 0x3000
    3d57:	19dbb2        	addmi	a11, a11, 0x1900
    3d5a:	38cdd2        	addi	a13, a13, 56
    3d5d:	522ba2        	l32i	a10, a11, 0x148
    3d60:	532bb2        	l32i	a11, a11, 0x14c
    3d63:	0008e0        	callx8	a8
    3d66:	04c8           	l32i.n	a12, a4, 0
    3d68:	f15081        	l32r	a8, 2a8 (3484 <analy_3band>)
    3d6b:	37dce2        	addmi	a14, a12, 0x3700
    3d6e:	3edcb2        	addmi	a11, a12, 0x3e00
    3d71:	40cbb2        	addi	a11, a11, 64
    3d74:	60cee2        	addi	a14, a14, 96
    3d77:	772ed2        	l32i	a13, a14, 0x1dc
    3d7a:	19dcc2        	addmi	a12, a12, 0x1900
    3d7d:	522ca2        	l32i	a10, a12, 0x148
    3d80:	972ee2        	l32i	a14, a14, 0x25c
    3d83:	4f2cc2        	l32i	a12, a12, 0x13c
    3d86:	0008e0        	callx8	a8
    3d89:	04a8           	l32i.n	a10, a4, 0
    3d8b:	ae0c           	movi.n	a14, 10
    3d8d:	f14781        	l32r	a8, 2ac (35fc <biquad_2cascade_24bitTx>)
    3d90:	37dad2        	addmi	a13, a10, 0x3700
    3d93:	18dac2        	addmi	a12, a10, 0x1800
    3d96:	31dab2        	addmi	a11, a10, 0x3100
    3d99:	b0cbb2        	addi	a11, a11, -80
    3d9c:	e8ccc2        	addi	a12, a12, -24
    3d9f:	60cdd2        	addi	a13, a13, 96
    3da2:	672dd2        	l32i	a13, a13, 0x19c
    3da5:	1adaa2        	addmi	a10, a10, 0x1a00
    3da8:	faa8           	l32i.n	a10, a10, 60
    3daa:	0008e0        	callx8	a8
    3dad:	07ad           	mov.n	a10, a7
    3daf:	1821b2        	l32i	a11, a1, 96
    3db2:	ac0c           	movi.n	a12, 10
    3db4:	f14081        	l32r	a8, 2b4 (2924 <subband_aec_block>)
    3db7:	02dd           	mov.n	a13, a2
    3db9:	1e0c           	movi.n	a14, 1
    3dbb:	0008e0        	callx8	a8
    3dbe:	07ad           	mov.n	a10, a7
    3dc0:	1921b2        	l32i	a11, a1, 100
    3dc3:	ac0c           	movi.n	a12, 10
    3dc5:	f13b81        	l32r	a8, 2b4 (2924 <subband_aec_block>)
    3dc8:	02dd           	mov.n	a13, a2
    3dca:	03a0e2        	movi	a14, 3
    3dcd:	0008e0        	callx8	a8
    3dd0:	20a770        	or	a10, a7, a7
    3dd3:	1a21b2        	l32i	a11, a1, 104
    3dd6:	14a0c2        	movi	a12, 20
    3dd9:	f13681        	l32r	a8, 2b4 (2924 <subband_aec_block>)
    3ddc:	20d220        	or	a13, a2, a2
    3ddf:	04a0e2        	movi	a14, 4
    3de2:	0008e0        	callx8	a8
    3de5:	07ad           	mov.n	a10, a7
    3de7:	1b21b2        	l32i	a11, a1, 108
    3dea:	f13381        	l32r	a8, 2b8 (2bd8 <subband_aec_mid_channel>)
    3ded:	02cd           	mov.n	a12, a2
    3def:	2d0c           	movi.n	a13, 2
    3df1:	0008e0        	callx8	a8
    3df4:	3821d2        	l32i	a13, a1, 224
    3df7:	1e0c           	movi.n	a14, 1
    3df9:	f13081        	l32r	a8, 2bc (37b8 <gain_after_ec>)
    3dfc:	772da2        	l32i	a10, a13, 0x1dc
    3dff:	872db2        	l32i	a11, a13, 0x21c
    3e02:	972dc2        	l32i	a12, a13, 0x25c
    3e05:	a72dd2        	l32i	a13, a13, 0x29c
    3e08:	0008e0        	callx8	a8
    3e0b:	3821a2        	l32i	a10, a1, 224
    3e0e:	f12c81        	l32r	a8, 2c0 (4a10 <prelim_filter>)
    3e11:	30c1b2        	addi	a11, a1, 48
    3e14:	50c1c2        	addi	a12, a1, 80
    3e17:	0008e0        	callx8	a8
    3e1a:	3821a2        	l32i	a10, a1, 224
    3e1d:	1c21b2        	l32i	a11, a1, 112
    3e20:	f12981        	l32r	a8, 2c4 (4d60 <prelim_filter3>)
    3e23:	3c0c           	movi.n	a12, 3
    3e25:	1d21d2        	l32i	a13, a1, 116
    3e28:	0008e0        	callx8	a8
    3e2b:	3821a2        	l32i	a10, a1, 224
    3e2e:	1e21b2        	l32i	a11, a1, 120
    3e31:	f12481        	l32r	a8, 2c4 (4d60 <prelim_filter3>)
    3e34:	4c0c           	movi.n	a12, 4
    3e36:	1f21d2        	l32i	a13, a1, 124
    3e39:	0008e0        	callx8	a8
    3e3c:	3821b2        	l32i	a11, a1, 224
    3e3f:	c1a8           	l32i.n	a10, a1, 48
    3e41:	f12181        	l32r	a8, 2c8 (38cc <adjust_phase>)
    3e44:	2a9bb2        	l16si	a11, a11, 84
    3e47:	2261b2        	s32i	a11, a1, 136
    3e4a:	0008e0        	callx8	a8
    3e4d:	c1a9           	s32i.n	a10, a1, 48
    3e4f:	f11e81        	l32r	a8, 2c8 (38cc <adjust_phase>)
    3e52:	2221b2        	l32i	a11, a1, 136
    3e55:	e1a8           	l32i.n	a10, a1, 56
    3e57:	0008e0        	callx8	a8
    3e5a:	e1a9           	s32i.n	a10, a1, 56
    3e5c:	f11b81        	l32r	a8, 2c8 (38cc <adjust_phase>)
    3e5f:	2221b2        	l32i	a11, a1, 136
    3e62:	1021a2        	l32i	a10, a1, 64
    3e65:	0008e0        	callx8	a8
    3e68:	382192        	l32i	a9, a1, 224
    3e6b:	f03d           	nop.n
    3e6d:	0a99b2        	l16si	a11, a9, 20
    3e70:	109992        	l16si	a9, a9, 32
    3e73:	1061a2        	s32i	a10, a1, 64
    3e76:	27a9b7        	bge	a9, a11, 3ea1 <Voice_WB_TX_Prcs+0x461>
    3e79:	3821a2        	l32i	a10, a1, 224
    3e7c:	f11481        	l32r	a8, 2cc (503c <cali_power>)
    3e7f:	1621b2        	l32i	a11, a1, 88
    3e82:	30c1c2        	addi	a12, a1, 48
    3e85:	0008e0        	callx8	a8
    3e88:	f11281        	l32r	a8, 2d0 (4eec <cali_module_short>)
    3e8b:	1621a2        	l32i	a10, a1, 88
    3e8e:	30c1b2        	addi	a11, a1, 48
    3e91:	0008e0        	callx8	a8
    3e94:	382182        	l32i	a8, a1, 224
    3e97:	6598d2        	l16si	a13, a8, 202
    3e9a:	689882        	l16si	a8, a8, 208
    3e9d:	0005c6        	j	3eb8 <Voice_WB_TX_Prcs+0x478>

00003ea0 <Voice_WB_TX_Prcs+0x460>:
	...

00003ea1 <Voice_WB_TX_Prcs+0x461>:
    3ea1:	080c           	movi.n	a8, 0
    3ea3:	dd7c           	movi.n	a13, -3
    3ea5:	3821a2        	l32i	a10, a1, 224
    3ea8:	090c           	movi.n	a9, 0
    3eaa:	db7c           	movi.n	a11, -3
    3eac:	655ab2        	s16i	a11, a10, 202
    3eaf:	695a92        	s16i	a9, a10, 210
    3eb2:	675a92        	s16i	a9, a10, 206
    3eb5:	685a92        	s16i	a9, a10, 208

00003eb8 <Voice_WB_TX_Prcs+0x478>:
    3eb8:	0f2c           	movi.n	a15, 32
    3eba:	382192        	l32i	a9, a1, 224
    3ebd:	2521b2        	l32i	a11, a1, 148
    3ec0:	2721e2        	l32i	a14, a1, 156
    3ec3:	09ad           	mov.n	a10, a9
    3ec5:	6799c2        	l16si	a12, a9, 206
    3ec8:	eeda           	add.n	a14, a14, a13
    3eca:	2761e2        	s32i	a14, a1, 156
    3ecd:	cc19d2        	l16ui	a13, a9, 0x198
    3ed0:	2821e2        	l32i	a14, a1, 160
    3ed3:	bbca           	add.n	a11, a11, a12
    3ed5:	2561b2        	s32i	a11, a1, 148
    3ed8:	63ddf0        	minu	a13, a13, a15
    3edb:	2621b2        	l32i	a11, a1, 152
    3ede:	c0ffd0        	sub	a15, a15, a13
    3ee1:	82f8f0        	mull	a15, a8, a15
    3ee4:	82dcd0        	mull	a13, a12, a13
    3ee7:	f0fb81        	l32r	a8, 2d4 (544c <beam1_proc>)
    3eea:	6999c2        	l16si	a12, a9, 210
    3eed:	ddfa           	add.n	a13, a13, a15
    3eef:	1f0c           	movi.n	a15, 1
    3ef1:	bbca           	add.n	a11, a11, a12
    3ef3:	eeda           	add.n	a14, a14, a13
    3ef5:	a829c2        	l32i	a12, a9, 0x2a0
    3ef8:	2861e2        	s32i	a14, a1, 160
    3efb:	2661b2        	s32i	a11, a1, 152
    3efe:	10cdd2        	addi	a13, a13, 16
    3f01:	2321b2        	l32i	a11, a1, 140
    3f04:	21d5d0        	srai	a13, a13, 5
    3f07:	0e0c           	movi.n	a14, 0
    3f09:	6859d2        	s16i	a13, a9, 208
    3f0c:	6599d2        	l16si	a13, a9, 202
    3f0f:	0008e0        	callx8	a8
    3f12:	2421b2        	l32i	a11, a1, 144
    3f15:	0e0c           	movi.n	a14, 0
    3f17:	3821d2        	l32i	a13, a1, 224
    3f1a:	0f0c           	movi.n	a15, 0
    3f1c:	f0ee81        	l32r	a8, 2d4 (544c <beam1_proc>)
    3f1f:	0dad           	mov.n	a10, a13
    3f21:	cd2dc2        	l32i	a12, a13, 0x334
    3f24:	679dd2        	l16si	a13, a13, 206
    3f27:	0008e0        	callx8	a8
    3f2a:	2a21b2        	l32i	a11, a1, 168
    3f2d:	0e0c           	movi.n	a14, 0
    3f2f:	3821d2        	l32i	a13, a1, 224
    3f32:	0f0c           	movi.n	a15, 0
    3f34:	f0e881        	l32r	a8, 2d4 (544c <beam1_proc>)
    3f37:	0dad           	mov.n	a10, a13
    3f39:	f02dc2        	l32i	a12, a13, 0x3c0
    3f3c:	689dd2        	l16si	a13, a13, 208
    3f3f:	0008e0        	callx8	a8
    3f42:	2a21b2        	l32i	a11, a1, 168
    3f45:	ae0c           	movi.n	a14, 10
    3f47:	3821d2        	l32i	a13, a1, 224
    3f4a:	0f0c           	movi.n	a15, 0
    3f4c:	f0e281        	l32r	a8, 2d4 (544c <beam1_proc>)
    3f4f:	0dad           	mov.n	a10, a13
    3f51:	f02dc2        	l32i	a12, a13, 0x3c0
    3f54:	689dd2        	l16si	a13, a13, 208
    3f57:	0008e0        	callx8	a8
    3f5a:	3821b2        	l32i	a11, a1, 224
    3f5d:	5c0c           	movi.n	a12, 5
    3f5f:	f0de81        	l32r	a8, 2d8 (39f4 <gain_ref>)
    3f62:	cc2ba2        	l32i	a10, a11, 0x330
    3f65:	049bb2        	l16si	a11, a11, 8
    3f68:	0008e0        	callx8	a8
    3f6b:	3821b2        	l32i	a11, a1, 224
    3f6e:	ac0c           	movi.n	a12, 10
    3f70:	f0da81        	l32r	a8, 2d8 (39f4 <gain_ref>)
    3f73:	ef2ba2        	l32i	a10, a11, 0x3bc
    3f76:	059bb2        	l16si	a11, a11, 10
    3f79:	0008e0        	callx8	a8
    3f7c:	8e1c           	movi.n	a14, 24
    3f7e:	f0d781        	l32r	a8, 2dc (55f8 <beam2_proc>)
    3f81:	090c           	movi.n	a9, 0
    3f83:	3821c2        	l32i	a12, a1, 224
    3f86:	2891f2        	l16si	a15, a1, 80
    3f89:	04b8           	l32i.n	a11, a4, 0
    3f8b:	0cad           	mov.n	a10, a12
    3f8d:	659cd2        	l16si	a13, a12, 202
    3f90:	1adbb2        	addmi	a11, a11, 0x1a00
    3f93:	189bb2        	l16si	a11, a11, 48
    3f96:	a82cc2        	l32i	a12, a12, 0x2a0
    3f99:	01b9           	s32i.n	a11, a1, 0
    3f9b:	1199           	s32i.n	a9, a1, 4
    3f9d:	2321b2        	l32i	a11, a1, 140
    3fa0:	0008e0        	callx8	a8
    3fa3:	8e1c           	movi.n	a14, 24
    3fa5:	f096f1        	l32r	a15, 200 (7fff <NR_vad2+0xe3>)
    3fa8:	f0cd81        	l32r	a8, 2dc (55f8 <beam2_proc>)
    3fab:	3821a2        	l32i	a10, a1, 224
    3fae:	090c           	movi.n	a9, 0
    3fb0:	0b1c           	movi.n	a11, 16
    3fb2:	679ad2        	l16si	a13, a10, 206
    3fb5:	cd2ac2        	l32i	a12, a10, 0x334
    3fb8:	01b9           	s32i.n	a11, a1, 0
    3fba:	1199           	s32i.n	a9, a1, 4
    3fbc:	2421b2        	l32i	a11, a1, 144
    3fbf:	0008e0        	callx8	a8
    3fc2:	9e1c           	movi.n	a14, 25
    3fc4:	f08ff1        	l32r	a15, 200 (7fff <NR_vad2+0xe3>)
    3fc7:	f0c581        	l32r	a8, 2dc (55f8 <beam2_proc>)
    3fca:	3821a2        	l32i	a10, a1, 224
    3fcd:	090c           	movi.n	a9, 0
    3fcf:	0b1c           	movi.n	a11, 16
    3fd1:	689ad2        	l16si	a13, a10, 208
    3fd4:	f02ac2        	l32i	a12, a10, 0x3c0
    3fd7:	01b9           	s32i.n	a11, a1, 0
    3fd9:	1199           	s32i.n	a9, a1, 4
    3fdb:	2a21b2        	l32i	a11, a1, 168
    3fde:	0008e0        	callx8	a8
    3fe1:	9e1c           	movi.n	a14, 25
    3fe3:	f087f1        	l32r	a15, 200 (7fff <NR_vad2+0xe3>)
    3fe6:	f0bd81        	l32r	a8, 2dc (55f8 <beam2_proc>)
    3fe9:	3821a2        	l32i	a10, a1, 224
    3fec:	a90c           	movi.n	a9, 10
    3fee:	0b1c           	movi.n	a11, 16
    3ff0:	689ad2        	l16si	a13, a10, 208
    3ff3:	f02ac2        	l32i	a12, a10, 0x3c0
    3ff6:	01b9           	s32i.n	a11, a1, 0
    3ff8:	1199           	s32i.n	a9, a1, 4
    3ffa:	2a21b2        	l32i	a11, a1, 168
    3ffd:	0008e0        	callx8	a8
    4000:	f0b881        	l32r	a8, 2e0 (5968 <beam1_mid_band>)
    4003:	3821a2        	l32i	a10, a1, 224
    4006:	0008e0        	callx8	a8
    4009:	ac0c           	movi.n	a12, 10
    400b:	2b21a2        	l32i	a10, a1, 172
    400e:	3821b2        	l32i	a11, a1, 224
    4011:	f0b181        	l32r	a8, 2d8 (39f4 <gain_ref>)
    4014:	d72aa2        	l32i	a10, a10, 0x35c
    4017:	039bb2        	l16si	a11, a11, 6
    401a:	0008e0        	callx8	a8
    401d:	f0b181        	l32r	a8, 2e4 (5b58 <beam2_mid_band>)
    4020:	3821a2        	l32i	a10, a1, 224
    4023:	f03d           	nop.n
    4025:	0008e0        	callx8	a8
    4028:	2b21c2        	l32i	a12, a1, 172
    402b:	f0af81        	l32r	a8, 2e8 (3558 <synth_3band>)
    402e:	04e8           	l32i.n	a14, a4, 0
    4030:	6d2ca2        	l32i	a10, a12, 0x1b4
    4033:	902cb2        	l32i	a11, a12, 0x240
    4036:	3fded2        	addmi	a13, a14, 0x3f00
    4039:	80cdd2        	addi	a13, a13, -128
    403c:	1adee2        	addmi	a14, a14, 0x1a00
    403f:	d62cc2        	l32i	a12, a12, 0x358
    4042:	172ee2        	l32i	a14, a14, 92
    4045:	0008e0        	callx8	a8
    4048:	2b21c2        	l32i	a12, a1, 172
    404b:	f0a781        	l32r	a8, 2e8 (3558 <synth_3band>)
    404e:	04e8           	l32i.n	a14, a4, 0
    4050:	6f2ca2        	l32i	a10, a12, 0x1bc
    4053:	922cb2        	l32i	a11, a12, 0x248
    4056:	3fded2        	addmi	a13, a14, 0x3f00
    4059:	fccdd2        	addi	a13, a13, -4
    405c:	1adee2        	addmi	a14, a14, 0x1a00
    405f:	d82cc2        	l32i	a12, a12, 0x360
    4062:	162ee2        	l32i	a14, a14, 88
    4065:	0008e0        	callx8	a8
    4068:	3721c2        	l32i	a12, a1, 220
    406b:	3221e2        	l32i	a14, a1, 200
    406e:	2b21b2        	l32i	a11, a1, 172
    4071:	04a8           	l32i.n	a10, a4, 0
    4073:	f09e81        	l32r	a8, 2ec (3314 <tx_upsample_by2>)
    4076:	b32bb2        	l32i	a11, a11, 0x2cc
    4079:	30dad2        	addmi	a13, a10, 0x3000
    407c:	58cdd2        	addi	a13, a13, 88
    407f:	1adaa2        	addmi	a10, a10, 0x1a00
    4082:	172aa2        	l32i	a10, a10, 92
    4085:	0008e0        	callx8	a8
    4088:	3421c2        	l32i	a12, a1, 208
    408b:	2021e2        	l32i	a14, a1, 128
    408e:	2b21b2        	l32i	a11, a1, 172
    4091:	04a8           	l32i.n	a10, a4, 0
    4093:	f09681        	l32r	a8, 2ec (3314 <tx_upsample_by2>)
    4096:	b52bb2        	l32i	a11, a11, 0x2d4
    4099:	30dad2        	addmi	a13, a10, 0x3000
    409c:	78cdd2        	addi	a13, a13, 120
    409f:	1adaa2        	addmi	a10, a10, 0x1a00
    40a2:	162aa2        	l32i	a10, a10, 88
    40a5:	0008e0        	callx8	a8
    40a8:	001586        	j	4102 <Voice_WB_TX_Prcs+0x6c2>

000040ab <Voice_WB_TX_Prcs+0x66b>:
	...

000040ac <Voice_WB_TX_Prcs+0x66c>:
    40ac:	2127a2        	l32i	a10, a7, 132
    40af:	3fded2        	addmi	a13, a14, 0x3f00
    40b2:	4127b2        	l32i	a11, a7, 0x104
    40b5:	5728e2        	l32i	a14, a8, 0x15c
    40b8:	f08c81        	l32r	a8, 2e8 (3558 <synth_3band>)
    40bb:	3127c2        	l32i	a12, a7, 196
    40be:	80cdd2        	addi	a13, a13, -128
    40c1:	0008e0        	callx8	a8
    40c4:	2c21e2        	l32i	a14, a1, 176
    40c7:	320ee2        	l8ui	a14, a14, 50
    40ca:	176e17        	bbci	a14, 1, 40e5 <Voice_WB_TX_Prcs+0x6a5>
    40cd:	04d8           	l32i.n	a13, a4, 0
    40cf:	2127b2        	l32i	a11, a7, 132
    40d2:	3521a2        	l32i	a10, a1, 212
    40d5:	1addd2        	addmi	a13, a13, 0x1a00
    40d8:	1b2dd2        	l32i	a13, a13, 108
    40db:	eff281        	l32r	a8, a4 (9de0 <xt_memcpy>)
    40de:	ac0c           	movi.n	a12, 10
    40e0:	aada           	add.n	a10, a10, a13
    40e2:	0008e0        	callx8	a8

000040e5 <Voice_WB_TX_Prcs+0x6a5>:
    40e5:	5127b2        	l32i	a11, a7, 0x144
    40e8:	3721c2        	l32i	a12, a1, 220
    40eb:	04a8           	l32i.n	a10, a4, 0
    40ed:	3221e2        	l32i	a14, a1, 200
    40f0:	f07f81        	l32r	a8, 2ec (3314 <tx_upsample_by2>)
    40f3:	30dad2        	addmi	a13, a10, 0x3000
    40f6:	58cdd2        	addi	a13, a13, 88
    40f9:	1adaa2        	addmi	a10, a10, 0x1a00
    40fc:	172aa2        	l32i	a10, a10, 92
    40ff:	0008e0        	callx8	a8

00004102 <Voice_WB_TX_Prcs+0x6c2>:
    4102:	50c552        	addi	a5, a5, 80
    4105:	50c332        	addi	a3, a3, 80
    4108:	3621a2        	l32i	a10, a1, 216
    410b:	372192        	l32i	a9, a1, 220
    410e:	3321e2        	l32i	a14, a1, 204
    4111:	3521f2        	l32i	a15, a1, 212
    4114:	342182        	l32i	a8, a1, 208
    4117:	ee0b           	addi.n	a14, a14, -1
    4119:	14cff2        	addi	a15, a15, 20
    411c:	50c882        	addi	a8, a8, 80
    411f:	50c992        	addi	a9, a9, 80
    4122:	50caa2        	addi	a10, a10, 80
    4125:	3661a2        	s32i	a10, a1, 216
    4128:	376192        	s32i	a9, a1, 220
    412b:	346182        	s32i	a8, a1, 208
    412e:	3561f2        	s32i	a15, a1, 212
    4131:	3361e2        	s32i	a14, a1, 204
    4134:	acee56        	bnez	a14, 3c06 <Voice_WB_TX_Prcs+0x1c6>
    4137:	41b8           	l32i.n	a11, a1, 16
    4139:	efe421        	l32r	a2, cc (4000 <Voice_WB_TX_Prcs+0x5c0>)
    413c:	0d22b7        	blt	a2, a11, 414d <Voice_WB_TX_Prcs+0x70d>
    413f:	04a8           	l32i.n	a10, a4, 0
    4141:	f06b81        	l32r	a8, 2f0 (38e0 <adjust_bib_state>)
    4144:	30daa2        	addmi	a10, a10, 0x3000
    4147:	f8caa2        	addi	a10, a10, -8
    414a:	0008e0        	callx8	a8

0000414d <Voice_WB_TX_Prcs+0x70d>:
    414d:	71c8           	l32i.n	a12, a1, 28
    414f:	0d22c7        	blt	a2, a12, 4160 <Voice_WB_TX_Prcs+0x720>
    4152:	04a8           	l32i.n	a10, a4, 0
    4154:	f06781        	l32r	a8, 2f0 (38e0 <adjust_bib_state>)
    4157:	30daa2        	addmi	a10, a10, 0x3000
    415a:	58caa2        	addi	a10, a10, 88
    415d:	0008e0        	callx8	a8

00004160 <Voice_WB_TX_Prcs+0x720>:
    4160:	61c8           	l32i.n	a12, a1, 24
    4162:	0d22c7        	blt	a2, a12, 4173 <Voice_WB_TX_Prcs+0x733>
    4165:	04a8           	l32i.n	a10, a4, 0
    4167:	f06281        	l32r	a8, 2f0 (38e0 <adjust_bib_state>)
    416a:	30daa2        	addmi	a10, a10, 0x3000
    416d:	18caa2        	addi	a10, a10, 24
    4170:	0008e0        	callx8	a8

00004173 <Voice_WB_TX_Prcs+0x733>:
    4173:	04e8           	l32i.n	a14, a4, 0
    4175:	1adec2        	addmi	a12, a14, 0x1a00
    4178:	169cc2        	l16si	a12, a12, 44
    417b:	feccc2        	addi	a12, a12, -2
    417e:	152c16        	beqz	a12, 42d4 <Voice_WB_TX_Prcs+0x894>

00004181 <Voice_WB_TX_Prcs+0x741>:
    4181:	01d7e2        	addmi	a14, a7, 0x100
    4184:	22c722        	addi	a2, a7, 34
    4187:	400204        	ae_lp16f.i	aep0, a2, 0
    418a:	20cee2        	addi	a14, a14, 32
    418d:	600e04        	ae_lq32f.i	aeq0, a14, 0
    4190:	d4e23187be 	{ l32i	a11, a7, 96; ae_mulfq32sp16s.l	aeq0, aeq0, aep0 }
    4195:	54c1d2        	addi	a13, a1, 84
    4198:	620d04        	ae_sq32f.i	aeq0, a13, 0
    419b:	1521c2        	l32i	a12, a1, 84
    419e:	f05581        	l32r	a8, 2f4 (2ee4 <dt_detect>)
    41a1:	07ad           	mov.n	a10, a7
    41a3:	53bbc0        	max	a11, a11, a12
    41a6:	0008e0        	callx8	a8
    41a9:	0488           	l32i.n	a8, a4, 0
    41ab:	28c7e2        	addi	a14, a7, 40
    41ae:	37fd           	ae_l16si.n	a15, a7, 2
    41b0:	1ad882        	addmi	a8, a8, 0x1a00
    41b3:	189882        	l16si	a8, a8, 48
    41b6:	efc891        	l32r	a9, d8 (7fff0000 <_end+0x7ffe3560>)
    41b9:	360934        	ae_cvtq48a32s	aeq0, a9
    41bc:	02af87        	bge	a15, a8, 41c2 <Voice_WB_TX_Prcs+0x782>
    41bf:	000586        	j	41d9 <Voice_WB_TX_Prcs+0x799>

000041c2 <Voice_WB_TX_Prcs+0x782>:
    41c2:	401204        	ae_lp16f.i	aep1, a2, 0
    41c5:	01d7b2        	addmi	a11, a7, 0x100
    41c8:	24cbb2        	addi	a11, a11, 36
    41cb:	600b04        	ae_lq32f.i	aeq0, a11, 0
    41ce:	d4e60647ae 	{ addi	a10, a7, 100; ae_mulfq32sp16s.l	aeq0, aeq0, aep1 }
    41d3:	604a04        	ae_lq32f.i	aeq1, a10, 0
    41d6:	0110c4        	ae_maxq56s	aeq0, aeq0, aeq1

000041d9 <Voice_WB_TX_Prcs+0x799>:
    41d9:	1b8f24        	ae_roundsp16q48asym	aep2, aeq0
    41dc:	422e04        	ae_sp16f.l.i	aep2, a14, 0
    41df:	04e8           	l32i.n	a14, a4, 0
    41e1:	f04521        	l32r	a2, 2f8 (23f8 <Xfrac_num_pd_td32+0x100>)
    41e4:	19de82        	addmi	a8, a14, 0x1900
    41e7:	9698c2        	l16si	a12, a8, 0x12c
    41ea:	24ded2        	addmi	a13, a14, 0x2400
    41ed:	f8cdd2        	addi	a13, a13, -8
    41f0:	feccc2        	addi	a12, a12, -2
    41f3:	131c16        	beqz	a12, 4328 <Voice_WB_TX_Prcs+0x8e8>
    41f6:	2921c2        	l32i	a12, a1, 164
    41f9:	5928b2        	l32i	a11, a8, 0x164
    41fc:	f04081        	l32r	a8, 2fc (6864 <WB_NR_frame_process>)
    41ff:	3fdea2        	addmi	a10, a14, 0x3f00
    4202:	78caa2        	addi	a10, a10, 120
    4205:	0008e0        	callx8	a8

00004208 <Voice_WB_TX_Prcs+0x7c8>:
    4208:	04a8           	l32i.n	a10, a4, 0
    420a:	f03d81        	l32r	a8, 300 (397c <AVC_prcs>)
    420d:	ba2a           	add.n	a11, a10, a2
    420f:	31daa2        	addmi	a10, a10, 0x3100
    4212:	e0caa2        	addi	a10, a10, -32
    4215:	0008e0        	callx8	a8
    4218:	2921b2        	l32i	a11, a1, 164
    421b:	f00fd1        	l32r	a13, 258 (ca98 <avc_vol>)
    421e:	04c8           	l32i.n	a12, a4, 0
    4220:	f03981        	l32r	a8, 304 (3900 <aec_post_prcs>)
    4223:	6dad           	ae_s16i.n	a10, a13, 0
    4225:	cc2a           	add.n	a12, a12, a2
    4227:	07ad           	mov.n	a10, a7
    4229:	0008e0        	callx8	a8
    422c:	2921a2        	l32i	a10, a1, 164
    422f:	04c8           	l32i.n	a12, a4, 0
    4231:	f0a0d2        	movi	a13, 240
    4234:	f03581        	l32r	a8, 308 (3424 <deemph_filter_N>)
    4237:	bc6a           	add.n	a11, a12, a6
    4239:	18dcc2        	addmi	a12, a12, 0x1800
    423c:	28ccc2        	addi	a12, a12, 40
    423f:	0008e0        	callx8	a8
    4242:	04e8           	l32i.n	a14, a4, 0

00004244 <Voice_WB_TX_Prcs+0x804>:
    4244:	3fdea2        	addmi	a10, a14, 0x3f00
    4247:	531aa2        	l16ui	a10, a10, 166
    424a:	19de82        	addmi	a8, a14, 0x1900
    424d:	9698d2        	l16si	a13, a8, 0x12c
    4250:	11aab0        	slli	a10, a10, 5
    4253:	ffdaa2        	addmi	a10, a10, 0xffffff00
    4256:	5a2d26        	beqi	a13, 2, 42b4 <Voice_WB_TX_Prcs+0x874>
    4259:	efffb1        	l32r	a11, 258 (ca98 <avc_vol>)
    425c:	2121c2        	l32i	a12, a1, 132
    425f:	3cded2        	addmi	a13, a14, 0x3c00
    4262:	209dd2        	l16si	a13, a13, 64
    4265:	6cdd           	ae_s16i.n	a13, a12, 0
    4267:	7cad           	ae_s16i.n	a10, a12, 2
    4269:	2bbd           	ae_l16si.n	a11, a11, 0
    426b:	025cb2        	s16i	a11, a12, 4
    426e:	f01d           	retw.n

00004270 <Voice_WB_TX_Prcs+0x830>:
	...

00004271 <Voice_WB_TX_Prcs+0x831>:
    4271:	eff991        	l32r	a9, 258 (ca98 <avc_vol>)
    4274:	05ad           	mov.n	a10, a5
    4276:	eff981        	l32r	a8, 25c (2000 <pitch_by_harmonic+0x4b8>)
    4279:	698d           	ae_s16i.n	a8, a9, 0
    427b:	e91c           	movi.n	a9, 30
    427d:	308976        	loop	a9, 42b1 <Voice_WB_TX_Prcs+0x871>
    4280:	229d           	ae_l16si.n	a9, a2, 0
    4282:	09ca94        	ae_s16ip	a9, a10, 2
    4285:	329d           	ae_l16si.n	a9, a2, 2
    4287:	09ca94        	ae_s16ip	a9, a10, 2
    428a:	029292        	l16si	a9, a2, 4
    428d:	09ca94        	ae_s16ip	a9, a10, 2
    4290:	039292        	l16si	a9, a2, 6
    4293:	09ca94        	ae_s16ip	a9, a10, 2
    4296:	049292        	l16si	a9, a2, 8
    4299:	09ca94        	ae_s16ip	a9, a10, 2
    429c:	059292        	l16si	a9, a2, 10
    429f:	09ca94        	ae_s16ip	a9, a10, 2
    42a2:	069292        	l16si	a9, a2, 12
    42a5:	09ca94        	ae_s16ip	a9, a10, 2
    42a8:	079292        	l16si	a9, a2, 14
    42ab:	09ca94        	ae_s16ip	a9, a10, 2
    42ae:	10c222        	addi	a2, a2, 16

000042b1 <Voice_WB_TX_Prcs+0x871>:
    42b1:	ffe3c6        	j	4244 <Voice_WB_TX_Prcs+0x804>

000042b4 <Voice_WB_TX_Prcs+0x874>:
    42b4:	efe9b1        	l32r	a11, 258 (ca98 <avc_vol>)
    42b7:	5c28d2        	l32i	a13, a8, 0x170
    42ba:	2121c2        	l32i	a12, a1, 132
    42bd:	3cdef2        	addmi	a15, a14, 0x3c00
    42c0:	069dd2        	l16si	a13, a13, 12
    42c3:	209ff2        	l16si	a15, a15, 64
    42c6:	6cfd           	ae_s16i.n	a15, a12, 0
    42c8:	ddaa           	add.n	a13, a13, a10
    42ca:	7cdd           	ae_s16i.n	a13, a12, 2
    42cc:	2bbd           	ae_l16si.n	a11, a11, 0
    42ce:	025cb2        	s16i	a11, a12, 4
    42d1:	f01d           	retw.n

000042d3 <Voice_WB_TX_Prcs+0x893>:
	...

000042d4 <Voice_WB_TX_Prcs+0x894>:
    42d4:	51f8           	l32i.n	a15, a1, 20
    42d6:	0b22f7        	blt	a2, a15, 42e5 <Voice_WB_TX_Prcs+0x8a5>
    42d9:	f00581        	l32r	a8, 2f0 (38e0 <adjust_bib_state>)
    42dc:	30dea2        	addmi	a10, a14, 0x3000
    42df:	38caa2        	addi	a10, a10, 56
    42e2:	0008e0        	callx8	a8

000042e5 <Voice_WB_TX_Prcs+0x8a5>:
    42e5:	81b8           	l32i.n	a11, a1, 32
    42e7:	0d22b7        	blt	a2, a11, 42f8 <Voice_WB_TX_Prcs+0x8b8>
    42ea:	04a8           	l32i.n	a10, a4, 0
    42ec:	f00181        	l32r	a8, 2f0 (38e0 <adjust_bib_state>)
    42ef:	30daa2        	addmi	a10, a10, 0x3000
    42f2:	78caa2        	addi	a10, a10, 120
    42f5:	0008e0        	callx8	a8

000042f8 <Voice_WB_TX_Prcs+0x8b8>:
    42f8:	2821c2        	l32i	a12, a1, 160
    42fb:	382182        	l32i	a8, a1, 224
    42fe:	10ccd2        	addi	a13, a12, 16
    4301:	079882        	l16si	a8, a8, 14
    4304:	21c5d0        	srai	a12, a13, 5
    4307:	2861c2        	s32i	a12, a1, 160
    430a:	4f1826        	beqi	a8, 1, 435d <Voice_WB_TX_Prcs+0x91d>
    430d:	4c2826        	beqi	a8, 2, 435d <Voice_WB_TX_Prcs+0x91d>

00004310 <Voice_WB_TX_Prcs+0x8d0>:
    4310:	efff81        	l32r	a8, 30c (52f4 <mag_calibration>)
    4313:	3821a2        	l32i	a10, a1, 224
    4316:	0008e0        	callx8	a8
    4319:	3821a2        	l32i	a10, a1, 224
    431c:	090c           	movi.n	a9, 0
    431e:	136a92        	s32i	a9, a10, 76
    4321:	146a92        	s32i	a9, a10, 80
    4324:	ff9646        	j	4181 <Voice_WB_TX_Prcs+0x741>

00004327 <Voice_WB_TX_Prcs+0x8e7>:
	...

00004328 <Voice_WB_TX_Prcs+0x8e8>:
    4328:	2921c2        	l32i	a12, a1, 164
    432b:	382192        	l32i	a9, a1, 224
    432e:	5828a2        	l32i	a10, a8, 0x160
    4331:	5928b2        	l32i	a11, a8, 0x164
    4334:	5c28e2        	l32i	a14, a8, 0x170
    4337:	2721f2        	l32i	a15, a1, 156
    433a:	eff581        	l32r	a8, 310 (7990 <two_mic_WB_NR_proc>)
    433d:	7efd           	ae_s16i.n	a15, a14, 2
    433f:	6c9992        	l16si	a9, a9, 216
    4342:	2621f2        	l32i	a15, a1, 152
    4345:	025ef2        	s16i	a15, a14, 4
    4348:	055e92        	s16i	a9, a14, 10
    434b:	2521f2        	l32i	a15, a1, 148
    434e:	035ef2        	s16i	a15, a14, 6
    4351:	2821f2        	l32i	a15, a1, 160
    4354:	045ef2        	s16i	a15, a14, 8
    4357:	0008e0        	callx8	a8
    435a:	ffaa86        	j	4208 <Voice_WB_TX_Prcs+0x7c8>

0000435d <Voice_WB_TX_Prcs+0x91d>:
    435d:	3821a2        	l32i	a10, a1, 224
    4360:	6c9aa2        	l16si	a10, a10, 216
    4363:	a92aa6        	blti	a10, 2, 4310 <Voice_WB_TX_Prcs+0x8d0>
    4366:	3821c2        	l32i	a12, a1, 224
    4369:	2621b2        	l32i	a11, a1, 152
    436c:	cd9ce2        	l16si	a14, a12, 0x19a
    436f:	c29cc2        	l16si	a12, a12, 0x184
    4372:	ef65d1        	l32r	a13, 108 (10000 <_end+0x3560>)
    4375:	2721f2        	l32i	a15, a1, 156
    4378:	d1cce0        	mul16s	a12, a12, a14
    437b:	ef47e1        	l32r	a14, 98 (8000 <NR_vad2+0xe4>)
    437e:	40dc82        	addmi	a8, a12, 0x4000
    4381:	218f80        	srai	a8, a8, 15
    4384:	ecea           	add.n	a14, a12, a14
    4386:	ff8a           	add.n	a15, a15, a8
    4388:	2761f2        	s32i	a15, a1, 156
    438b:	90ccc0        	addx2	a12, a12, a12
    438e:	31e0e0        	srai	a14, a14, 16
    4391:	ccda           	add.n	a12, a12, a13
    4393:	2521d2        	l32i	a13, a1, 148
    4396:	31c1c0        	srai	a12, a12, 17
    4399:	bbca           	add.n	a11, a11, a12
    439b:	2661b2        	s32i	a11, a1, 152
    439e:	ddea           	add.n	a13, a13, a14
    43a0:	2561d2        	s32i	a13, a1, 148
    43a3:	ffda46        	j	4310 <Voice_WB_TX_Prcs+0x8d0>

000043a6 <Voice_WB_TX_Prcs+0x966>:
	...

000043a8 <conv_16_to_24_x2>:
    43a8:	004136        	entry	a1, 32
    43ab:	f8c332        	addi	a3, a3, -8
    43ae:	fcc222        	addi	a2, a2, -4
    43b1:	05a476        	loopgtz	a4, 43ba <conv_16_to_24_x2+0x12>
    43b4:	448214        	ae_lp16x2f.iu	aep0, a2, 4
    43b7:	5e8314        	ae_sp24x2f.iu	aep0, a3, 8

000043ba <conv_16_to_24_x2+0x12>:
    43ba:	f01d           	retw.n

000043bc <Voice_NB_RX_Prcs>:
    43bc:	004136        	entry	a1, 32
    43bf:	ef2f41        	l32r	a4, 7c (ca94 <p_ecnr_mem>)
    43c2:	0438           	l32i.n	a3, a4, 0
    43c4:	3dd382        	addmi	a8, a3, 0x3d00
    43c7:	441882        	l16ui	a8, a8, 136
    43ca:	a88c           	beqz.n	a8, 43d8 <Voice_NB_RX_Prcs+0x1c>
    43cc:	efd281        	l32r	a8, 314 (6ad4 <NB_RX_NR_frame_process>)
    43cf:	02ad           	mov.n	a10, a2
    43d1:	f03d           	nop.n
    43d3:	0008e0        	callx8	a8
    43d6:	0438           	l32i.n	a3, a4, 0

000043d8 <Voice_NB_RX_Prcs+0x1c>:
    43d8:	58d3a2        	addmi	a10, a3, 0x5800
    43db:	19d3b2        	addmi	a11, a3, 0x1900
    43de:	9c9b92        	l16si	a9, a11, 0x138
    43e1:	131aa2        	l16ui	a10, a10, 38
    43e4:	995ba2        	s16i	a10, a11, 0x132
    43e7:	01e9d7        	bbsi	a9, 13, 43ec <Voice_NB_RX_Prcs+0x30>
    43ea:	f01d           	retw.n

000043ec <Voice_NB_RX_Prcs+0x30>:
    43ec:	02ad           	mov.n	a10, a2
    43ee:	efca81        	l32r	a8, 318 (43a8 <conv_16_to_24_x2>)
    43f1:	03bd           	mov.n	a11, a3
    43f3:	cc3c           	movi.n	a12, 60
    43f5:	0008e0        	callx8	a8
    43f8:	02dd           	mov.n	a13, a2
    43fa:	03ad           	mov.n	a10, a3
    43fc:	04b8           	l32i.n	a11, a4, 0
    43fe:	78a0e2        	movi	a14, 120
    4401:	efaa81        	l32r	a8, 2ac (35fc <biquad_2cascade_24bitTx>)
    4404:	6adbc2        	addmi	a12, a11, 0x6a00
    4407:	38ccc2        	addi	a12, a12, 56
    440a:	31dbb2        	addmi	a11, a11, 0x3100
    440d:	c8cbb2        	addi	a11, a11, -56
    4410:	0008e0        	callx8	a8
    4413:	f01d           	retw.n

00004415 <Voice_NB_RX_Prcs+0x59>:
    4415:	000000                                        ...

00004418 <Voice_WB_RX_Prcs>:
    4418:	004136        	entry	a1, 32
    441b:	ef1841        	l32r	a4, 7c (ca94 <p_ecnr_mem>)
    441e:	0438           	l32i.n	a3, a4, 0
    4420:	3dd382        	addmi	a8, a3, 0x3d00
    4423:	441882        	l16ui	a8, a8, 136
    4426:	888c           	beqz.n	a8, 4432 <Voice_WB_RX_Prcs+0x1a>
    4428:	efbd81        	l32r	a8, 31c (67d4 <WB_RX_NR_frame_process>)
    442b:	02ad           	mov.n	a10, a2
    442d:	0008e0        	callx8	a8
    4430:	0438           	l32i.n	a3, a4, 0

00004432 <Voice_WB_RX_Prcs+0x1a>:
    4432:	58d3a2        	addmi	a10, a3, 0x5800
    4435:	19d3b2        	addmi	a11, a3, 0x1900
    4438:	9c9b92        	l16si	a9, a11, 0x138
    443b:	131aa2        	l16ui	a10, a10, 38
    443e:	995ba2        	s16i	a10, a11, 0x132
    4441:	01e9d7        	bbsi	a9, 13, 4446 <Voice_WB_RX_Prcs+0x2e>
    4444:	f01d           	retw.n

00004446 <Voice_WB_RX_Prcs+0x2e>:
    4446:	02ad           	mov.n	a10, a2
    4448:	efb481        	l32r	a8, 318 (43a8 <conv_16_to_24_x2>)
    444b:	03bd           	mov.n	a11, a3
    444d:	78a0c2        	movi	a12, 120
    4450:	0008e0        	callx8	a8
    4453:	02dd           	mov.n	a13, a2
    4455:	03ad           	mov.n	a10, a3
    4457:	04b8           	l32i.n	a11, a4, 0
    4459:	f0a0e2        	movi	a14, 240
    445c:	ef9481        	l32r	a8, 2ac (35fc <biquad_2cascade_24bitTx>)
    445f:	6adbc2        	addmi	a12, a11, 0x6a00
    4462:	38ccc2        	addi	a12, a12, 56
    4465:	31dbb2        	addmi	a11, a11, 0x3100
    4468:	c8cbb2        	addi	a11, a11, -56
    446b:	0008e0        	callx8	a8
    446e:	f01d           	retw.n

00004470 <EC_REF_GAIN_READBACK>:
    4470:	004136        	entry	a1, 32
    4473:	ef0261        	l32r	a6, 7c (ca94 <p_ecnr_mem>)
    4476:	0668           	l32i.n	a6, a6, 0
    4478:	1ad632        	addmi	a3, a6, 0x1a00
    447b:	3bd672        	addmi	a7, a6, 0x3b00
    447e:	662782        	l32i	a8, a7, 0x198
    4481:	962742        	l32i	a4, a7, 0x258
    4484:	862752        	l32i	a5, a7, 0x218
    4487:	762772        	l32i	a7, a7, 0x1d8
    448a:	318080        	srai	a8, a8, 16
    448d:	315050        	srai	a5, a5, 16
    4490:	314040        	srai	a4, a4, 16
    4493:	035242        	s16i	a4, a2, 6
    4496:	025252        	s16i	a5, a2, 4
    4499:	628d           	ae_s16i.n	a8, a2, 0
    449b:	317070        	srai	a7, a7, 16
    449e:	727d           	ae_s16i.n	a7, a2, 2
    44a0:	169332        	l16si	a3, a3, 44
    44a3:	080c           	movi.n	a8, 0
    44a5:	0f2326        	beqi	a3, 2, 44b8 <EC_REF_GAIN_READBACK+0x48>
    44a8:	045282        	s16i	a8, a2, 8
    44ab:	055282        	s16i	a8, a2, 10
    44ae:	065282        	s16i	a8, a2, 12
    44b1:	075282        	s16i	a8, a2, 14
    44b4:	f01d           	retw.n

000044b6 <EC_REF_GAIN_READBACK+0x46>:
	...

000044b8 <EC_REF_GAIN_READBACK+0x48>:
    44b8:	37d692        	addmi	a9, a6, 0x3700
    44bb:	7629c2        	l32i	a12, a9, 0x1d8
    44be:	8629a2        	l32i	a10, a9, 0x218
    44c1:	a629b2        	l32i	a11, a9, 0x298
    44c4:	962992        	l32i	a9, a9, 0x258
    44c7:	31a0a0        	srai	a10, a10, 16
    44ca:	31b0b0        	srai	a11, a11, 16
    44cd:	31c0c0        	srai	a12, a12, 16
    44d0:	0452c2        	s16i	a12, a2, 8
    44d3:	0552b2        	s16i	a11, a2, 10
    44d6:	0652a2        	s16i	a10, a2, 12
    44d9:	319090        	srai	a9, a9, 16
    44dc:	075292        	s16i	a9, a2, 14
    44df:	f01d           	retw.n

000044e1 <EC_REF_GAIN_READBACK+0x71>:
    44e1:	000000                                        ...

000044e4 <EC_PreLim_Coef_READBACK>:
    44e4:	004136        	entry	a1, 32
    44e7:	eee581        	l32r	a8, 7c (ca94 <p_ecnr_mem>)
    44ea:	0888           	l32i.n	a8, a8, 0
    44ec:	024d           	mov.n	a4, a2
    44ee:	35d852        	addmi	a5, a8, 0x3500
    44f1:	952592        	l32i	a9, a5, 0x254
    44f4:	9425a2        	l32i	a10, a5, 0x250
    44f7:	9325b2        	l32i	a11, a5, 0x24c
    44fa:	319090        	srai	a9, a9, 16
    44fd:	31a0a0        	srai	a10, a10, 16
    4500:	31b0b0        	srai	a11, a11, 16
    4503:	36d852        	addmi	a5, a8, 0x3600
    4506:	6925c2        	l32i	a12, a5, 0x1a4
    4509:	09c4b4        	ae_s16ip	a11, a4, 2
    450c:	09c4a4        	ae_s16ip	a10, a4, 2
    450f:	6b25a2        	l32i	a10, a5, 0x1ac
    4512:	09c494        	ae_s16ip	a9, a4, 2
    4515:	31a0a0        	srai	a10, a10, 16
    4518:	6f25d2        	l32i	a13, a5, 0x1bc
    451b:	31c0c0        	srai	a12, a12, 16
    451e:	426b           	addi.n	a4, a2, 6
    4520:	6a25b2        	l32i	a11, a5, 0x1a8
    4523:	22cb           	addi.n	a2, a2, 12
    4525:	09c4c4        	ae_s16ip	a12, a4, 2
    4528:	31b0b0        	srai	a11, a11, 16
    452b:	09c4b4        	ae_s16ip	a11, a4, 2
    452e:	7125b2        	l32i	a11, a5, 0x1c4
    4531:	09c4a4        	ae_s16ip	a10, a4, 2
    4534:	31b0b0        	srai	a11, a11, 16
    4537:	7025c2        	l32i	a12, a5, 0x1c0
    453a:	31d0d0        	srai	a13, a13, 16
    453d:	09c2d4        	ae_s16ip	a13, a2, 2
    4540:	31c0c0        	srai	a12, a12, 16
    4543:	09c2c4        	ae_s16ip	a12, a2, 2
    4546:	09c2b4        	ae_s16ip	a11, a2, 2
    4549:	f01d           	retw.n

0000454b <EC_PreLim_Coef_READBACK+0x67>:
	...

0000454c <DaulMIC_power_Coef_READBACK>:
    454c:	004136        	entry	a1, 32
    454f:	eecb21        	l32r	a2, 7c (ca94 <p_ecnr_mem>)
    4552:	0228           	l32i.n	a2, a2, 0
    4554:	38d222        	addmi	a2, a2, 0x3800
    4557:	589222        	l16si	a2, a2, 176
    455a:	f01d           	retw.n

0000455c <DaulMIC_power_Coef_READBACK+0x10>:
    455c:	00000000                                ....

00004560 <find_phase>:
    4560:	004136        	entry	a1, 32
    4563:	345030        	extui	a5, a3, 0, 4
    4566:	75bc           	beqz.n	a5, 45a1 <find_phase+0x41>
    4568:	3e1526        	beqi	a5, 1, 45aa <find_phase+0x4a>
    456b:	442526        	beqi	a5, 2, 45b3 <find_phase+0x53>
    456e:	4a3526        	beqi	a5, 3, 45bc <find_phase+0x5c>
    4571:	504526        	beqi	a5, 4, 45c5 <find_phase+0x65>
    4574:	585526        	beqi	a5, 5, 45d0 <find_phase+0x70>
    4577:	5e6526        	beqi	a5, 6, 45d9 <find_phase+0x79>
    457a:	667526        	beqi	a5, 7, 45e4 <find_phase+0x84>
    457d:	604224        	ae_lq32f.i	aeq1, a2, 8
    4580:	fd14bd021f 	{ ae_lq32f.i	aeq0, a2, 4; ae_negq56	aeq1, aeq1 }

00004585 <find_phase+0x25>:
    4585:	0109c4        	ae_addq56	aeq0, aeq0, aeq1
    4588:	350074        	ae_sraiq56	aeq0, aeq0, 1
    458b:	064824        	ae_negq56	aeq1, aeq0
    458e:	076347        	bbci	a3, 4, 4599 <find_phase+0x39>
    4591:	069934        	ae_roundsq32asym	aeq2, aeq1
    4594:	36a204        	ae_trunca32q48	a2, aeq2
    4597:	f01d           	retw.n

00004599 <find_phase+0x39>:
    4599:	06c934        	ae_roundsq32asym	aeq3, aeq0
    459c:	36b204        	ae_trunca32q48	a2, aeq3
    459f:	f01d           	retw.n

000045a1 <find_phase+0x41>:
    45a1:	600204        	ae_lq32f.i	aeq0, a2, 0
    45a4:	064b34        	ae_movq56	aeq1, aeq0
    45a7:	fff686        	j	4585 <find_phase+0x25>

000045aa <find_phase+0x4a>:
    45aa:	600214        	ae_lq32f.i	aeq0, a2, 4
    45ad:	064b34        	ae_movq56	aeq1, aeq0
    45b0:	fff446        	j	4585 <find_phase+0x25>

000045b3 <find_phase+0x53>:
    45b3:	600224        	ae_lq32f.i	aeq0, a2, 8
    45b6:	064b34        	ae_movq56	aeq1, aeq0
    45b9:	fff206        	j	4585 <find_phase+0x25>

000045bc <find_phase+0x5c>:
    45bc:	604214        	ae_lq32f.i	aeq1, a2, 4
    45bf:	600204        	ae_lq32f.i	aeq0, a2, 0
    45c2:	ffefc6        	j	4585 <find_phase+0x25>

000045c5 <find_phase+0x65>:
    45c5:	604214        	ae_lq32f.i	aeq1, a2, 4
    45c8:	fd14bd020f 	{ ae_lq32f.i	aeq0, a2, 0; ae_negq56	aeq1, aeq1 }
    45cd:	ffed06        	j	4585 <find_phase+0x25>

000045d0 <find_phase+0x70>:
    45d0:	604224        	ae_lq32f.i	aeq1, a2, 8
    45d3:	600204        	ae_lq32f.i	aeq0, a2, 0
    45d6:	ffeac6        	j	4585 <find_phase+0x25>

000045d9 <find_phase+0x79>:
    45d9:	604224        	ae_lq32f.i	aeq1, a2, 8
    45dc:	fd14bd020f 	{ ae_lq32f.i	aeq0, a2, 0; ae_negq56	aeq1, aeq1 }
    45e1:	ffe806        	j	4585 <find_phase+0x25>

000045e4 <find_phase+0x84>:
    45e4:	604224        	ae_lq32f.i	aeq1, a2, 8
    45e7:	600214        	ae_lq32f.i	aeq0, a2, 4
    45ea:	ffe5c6        	j	4585 <find_phase+0x25>

000045ed <find_phase+0x8d>:
    45ed:	000000                                        ...

000045f0 <memset_S16>:
    45f0:	004136        	entry	a1, 32
    45f3:	f03d           	nop.n
    45f5:	02a476        	loopgtz	a4, 45fb <memset_S16+0xb>
    45f8:	09c234        	ae_s16ip	a3, a2, 2

000045fb <memset_S16+0xb>:
    45fb:	f01d           	retw.n

000045fd <memset_S16+0xd>:
    45fd:	000000                                        ...

00004600 <beam2_setup>:
    4600:	004136        	entry	a1, 32
    4603:	0c5232        	s16i	a3, a2, 24
    4606:	20c2a2        	addi	a10, a2, 32
    4609:	ef46b1        	l32r	a11, 324 (1000 <voiced_decision+0x3c>)
    460c:	cc0c           	movi.n	a12, 12
    460e:	ef4681        	l32r	a8, 328 (45f0 <memset_S16>)
    4611:	ef4391        	l32r	a9, 320 (10000000 <_end+0xfff3560>)
    4614:	2299           	s32i.n	a9, a2, 8
    4616:	0008e0        	callx8	a8
    4619:	f01d           	retw.n

0000461b <beam2_setup+0x1b>:
	...

0000461c <cal_vad_thrd_x1>:
    461c:	004136        	entry	a1, 32
    461f:	ef4351        	l32r	a5, 32c (c18c <immediate_num+0x1c>)
    4622:	445304        	ae_lp16x2f.i	aep5, a3, 0
    4625:	443204        	ae_lp16x2f.i	aep3, a2, 0
    4628:	dead2d250f 	{ ae_lp16x2f.i	aep2, a5, 0; ae_selp24.hh	aep4, aep3, aep5 }
    462d:	f08afe35ff 	{ ae_selp24.ll	aep3, aep3, aep5; ae_mulzaafp24s.hh.ll	aeq1, aep2, aep4 }
    4632:	042304        	ae_mulzaafp24s.hh.ll	aeq0, aep2, aep3
    4635:	1b9f14        	ae_roundsp16q48asym	aep1, aeq1
    4638:	f863b2140f 	{ ae_sp16f.l.i	aep1, a4, 0; ae_roundsp16q48asym	aep0, aeq0 }
    463d:	420414        	ae_sp16f.l.i	aep0, a4, 2
    4640:	f01d           	retw.n

00004642 <cal_vad_thrd_x1+0x26>:
	...

00004644 <CH13_cb_setup>:
    4644:	004136        	entry	a1, 32
    4647:	14c282        	addi	a8, a2, 20
    464a:	6cc232        	addi	a3, a2, 108
    464d:	d239           	s32i.n	a3, a2, 52
    464f:	3289           	s32i.n	a8, a2, 12
    4651:	f01d           	retw.n

00004653 <CH13_cb_setup+0xf>:
	...

00004654 <TWO_MIC_WB_init>:
    4654:	008136        	entry	a1, 64
    4657:	ee8941        	l32r	a4, 7c (ca94 <p_ecnr_mem>)
    465a:	0b0c           	movi.n	a11, 0
    465c:	0448           	l32i.n	a4, a4, 0
    465e:	8ca2c2        	movi	a12, 0x28c
    4661:	ee8e81        	l32r	a8, 9c (9dc8 <xt_memset>)
    4664:	37d432        	addmi	a3, a4, 0x3700
    4667:	28c332        	addi	a3, a3, 40
    466a:	3cd442        	addmi	a4, a4, 0x3c00
    466d:	40c442        	addi	a4, a4, 64
    4670:	03ad           	mov.n	a10, a3
    4672:	0008e0        	callx8	a8
    4675:	04ed           	mov.n	a14, a4
    4677:	b39472        	l16si	a7, a4, 0x166
    467a:	b59482        	l16si	a8, a4, 0x16a
    467d:	ee7f51        	l32r	a5, 7c (ca94 <p_ecnr_mem>)
    4680:	b49462        	l16si	a6, a4, 0x168
    4683:	b294f2        	l16si	a15, a4, 0x164
    4686:	0558           	l32i.n	a5, a5, 0
    4688:	668a           	add.n	a6, a6, a8
    468a:	ff7a           	add.n	a15, a15, a7
    468c:	eeda81        	l32r	a8, 1f4 (2658 <Fill_CH_MEM_WB>)
    468f:	ff6a           	add.n	a15, a15, a6
    4691:	a0ff50        	addx4	a15, a15, a5
    4694:	25d562        	addmi	a6, a5, 0x2500
    4697:	10c662        	addi	a6, a6, 16
    469a:	1adff2        	addmi	a15, a15, 0x1a00
    469d:	78cff2        	addi	a15, a15, 120
    46a0:	0169           	s32i.n	a6, a1, 0
    46a2:	02d352        	addmi	a5, a3, 0x200
    46a5:	057d           	mov.n	a7, a5
    46a7:	a0c5a2        	addi	a10, a5, -96
    46aa:	41a9           	s32i.n	a10, a1, 16
    46ac:	056d           	mov.n	a6, a5
    46ae:	60c772        	addi	a7, a7, 96
    46b1:	07bd           	mov.n	a11, a7
    46b3:	e0c662        	addi	a6, a6, -32
    46b6:	20c660        	or	a12, a6, a6
    46b9:	20c552        	addi	a5, a5, 32
    46bc:	20d550        	or	a13, a5, a5
    46bf:	0008e0        	callx8	a8
    46c2:	41a8           	l32i.n	a10, a1, 16
    46c4:	ee6ee1        	l32r	a14, 7c (ca94 <p_ecnr_mem>)
    46c7:	b294b2        	l16si	a11, a4, 0x164
    46ca:	1a92c2        	l16si	a12, a2, 52
    46cd:	0ee8           	l32i.n	a14, a14, 0
    46cf:	0d0c           	movi.n	a13, 0
    46d1:	eec981        	l32r	a8, 1f8 (2640 <Fill_sbco>)
    46d4:	18dee2        	addmi	a14, a14, 0x1800
    46d7:	952e92        	l32i	a9, a14, 0x254
    46da:	966392        	s32i	a9, a3, 0x258
    46dd:	932ee2        	l32i	a14, a14, 0x24c
    46e0:	9563e2        	s32i	a14, a3, 0x254
    46e3:	0008e0        	callx8	a8
    46e6:	07ad           	mov.n	a10, a7
    46e8:	1b92c2        	l16si	a12, a2, 54
    46eb:	b394e2        	l16si	a14, a4, 0x166
    46ee:	00a0d2        	movi	a13, 0
    46f1:	eec181        	l32r	a8, 1f8 (2640 <Fill_sbco>)
    46f4:	01ceb2        	addi	a11, a14, 1
    46f7:	b3bee0        	movgez	a11, a14, a14
    46fa:	21b1b0        	srai	a11, a11, 1
    46fd:	8bbd           	ae_sext16	a11, a11
    46ff:	0008e0        	callx8	a8
    4702:	20a660        	or	a10, a6, a6
    4705:	b494b2        	l16si	a11, a4, 0x168
    4708:	eebc81        	l32r	a8, 1f8 (2640 <Fill_sbco>)
    470b:	1c92c2        	l16si	a12, a2, 56
    470e:	00a0d2        	movi	a13, 0
    4711:	0008e0        	callx8	a8
    4714:	05ad           	mov.n	a10, a5
    4716:	b594b2        	l16si	a11, a4, 0x16a
    4719:	eeb781        	l32r	a8, 1f8 (2640 <Fill_sbco>)
    471c:	1d92c2        	l16si	a12, a2, 58
    471f:	00a0d2        	movi	a13, 0
    4722:	0008e0        	callx8	a8
    4725:	b4a072        	movi	a7, 180
    4728:	5c0c           	movi.n	a12, 5
    472a:	ee5e81        	l32r	a8, a4 (9de0 <xt_memcpy>)
    472d:	3024b2        	l32i	a11, a4, 192
    4730:	2024a2        	l32i	a10, a4, 128
    4733:	7663a2        	s32i	a10, a3, 0x1d8
    4736:	a663b2        	s32i	a11, a3, 0x298
    4739:	a3eb           	addi.n	a10, a3, 14
    473b:	01d2b2        	addmi	a11, a2, 0x100
    473e:	402492        	l32i	a9, a4, 0x100
    4741:	866392        	s32i	a9, a3, 0x218
    4744:	b4cbb2        	addi	a11, a11, -76
    4747:	0008e0        	callx8	a8
    474a:	04a0c2        	movi	a12, 4
    474d:	01d362        	addmi	a6, a3, 0x100
    4750:	5f1282        	l16ui	a8, a2, 190
    4753:	01d2b2        	addmi	a11, a2, 0x100
    4756:	c0cbb2        	addi	a11, a11, -64
    4759:	705382        	s16i	a8, a3, 224
    475c:	ee5281        	l32r	a8, a4 (9de0 <xt_memcpy>)
    475f:	a8c662        	addi	a6, a6, -88
    4762:	20a660        	or	a10, a6, a6
    4765:	0008e0        	callx8	a8
    4768:	8c0c           	movi.n	a12, 8
    476a:	ee4e81        	l32r	a8, a4 (9de0 <xt_memcpy>)
    476d:	01d352        	addmi	a5, a3, 0x100
    4770:	01d2b2        	addmi	a11, a2, 0x100
    4773:	c8cbb2        	addi	a11, a11, -56
    4776:	b8c552        	addi	a5, a5, -72
    4779:	05ad           	mov.n	a10, a5
    477b:	0008e0        	callx8	a8
    477e:	6c0c           	movi.n	a12, 6
    4780:	ee4981        	l32r	a8, a4 (9de0 <xt_memcpy>)
    4783:	6d12b2        	l16ui	a11, a2, 218
    4786:	6f12a2        	l16ui	a10, a2, 222
    4789:	701292        	l16ui	a9, a2, 224
    478c:	065392        	s16i	a9, a3, 12
    478f:	6453a2        	s16i	a10, a3, 200
    4792:	2b53b2        	s16i	a11, a3, 86
    4795:	20a330        	or	a10, a3, a3
    4798:	02d2b2        	addmi	a11, a2, 0x200
    479b:	a4cbb2        	addi	a11, a11, -92
    479e:	0008e0        	callx8	a8
    47a1:	eee4a1        	l32r	a10, 334 (e390000 <_end+0xe383560>)
    47a4:	eee581        	l32r	a8, 338 (3eb80000 <_end+0x3eb73560>)
    47a7:	ee98b1        	l32r	a11, 208 (200000 <_end+0x1f3560>)
    47aa:	40c392        	addi	a9, a3, 64
    47ad:	eee0c1        	l32r	a12, 330 (40000000 <_end+0x3fff3560>)
    47b0:	eee5d1        	l32r	a13, 344 (6000 <TWO_MIC_WB_Write_FLASH+0x14>)
    47b3:	eee3e1        	l32r	a14, 340 (d330000 <_end+0xd323560>)
    47b6:	eee1f1        	l32r	a15, 33c (18000000 <_end+0x17ff3560>)
    47b9:	5e63f2        	s32i	a15, a3, 0x178
    47bc:	5d63e2        	s32i	a14, a3, 0x174
    47bf:	2a53d2        	s16i	a13, a3, 84
    47c2:	4363c2        	s32i	a12, a3, 0x10c
    47c5:	4a63c2        	s32i	a12, a3, 0x128
    47c8:	5363c2        	s32i	a12, a3, 0x14c
    47cb:	5a63c2        	s32i	a12, a3, 0x168
    47ce:	196392        	s32i	a9, a3, 100
    47d1:	1663b2        	s32i	a11, a3, 88
    47d4:	376382        	s32i	a8, a3, 220
    47d7:	1863a2        	s32i	a10, a3, 96
    47da:	eed381        	l32r	a8, 328 (45f0 <memset_S16>)
    47dd:	01d3a2        	addmi	a10, a3, 0x100
    47e0:	88cab2        	addi	a11, a10, -120
    47e3:	a0ca92        	addi	a9, a10, -96
    47e6:	246392        	s32i	a9, a3, 144
    47e9:	1e63b2        	s32i	a11, a3, 120
    47ec:	10caa2        	addi	a10, a10, 16
    47ef:	eed6c1        	l32r	a12, 348 (1770 <Pitch_by_Corel+0x314>)
    47f2:	ee36b1        	l32r	a11, cc (4000 <Voice_WB_TX_Prcs+0x5c0>)
    47f5:	c553c2        	s16i	a12, a3, 0x18a
    47f8:	cc0c           	movi.n	a12, 12
    47fa:	0008e0        	callx8	a8
    47fd:	a723b2        	l32i	a11, a3, 0x29c
    4800:	3124a2        	l32i	a10, a4, 196
    4803:	512482        	l32i	a8, a4, 0x144
    4806:	02d392        	addmi	a9, a3, 0x200
    4809:	6f92f2        	l16si	a15, a2, 222
    480c:	2124c2        	l32i	a12, a4, 132
    480f:	7723d2        	l32i	a13, a3, 0x1dc
    4812:	a963d2        	s32i	a13, a3, 0x2a4
    4815:	aa63c2        	s32i	a12, a3, 0x2a8
    4818:	8723d2        	l32i	a13, a3, 0x21c
    481b:	01cfe2        	addi	a14, a15, 1
    481e:	b3eff0        	movgez	a14, a15, a15
    4821:	4124f2        	l32i	a15, a4, 0x104
    4824:	21e1e0        	srai	a14, a14, 1
    4827:	6653e2        	s16i	a14, a3, 204
    482a:	50c942        	addi	a4, a9, 80
    482d:	9723e2        	l32i	a14, a3, 0x25c
    4830:	9369a2        	s32i	a10, a9, 0x24c
    4833:	9269b2        	s32i	a11, a9, 0x248
    4836:	02a8           	l32i.n	a10, a2, 0
    4838:	cd63f2        	s32i	a15, a3, 0x334
    483b:	f06382        	s32i	a8, a3, 0x3c0
    483e:	cc63d2        	s32i	a13, a3, 0x330
    4841:	eec281        	l32r	a8, 34c (4600 <beam2_setup>)
    4844:	ef63e2        	s32i	a14, a3, 0x3bc
    4847:	3ccab2        	addi	a11, a10, 60
    484a:	28cac2        	addi	a12, a10, 40
    484d:	9169a2        	s32i	a10, a9, 0x244
    4850:	a863c2        	s32i	a12, a3, 0x2a0
    4853:	cb63b2        	s32i	a11, a3, 0x32c
    4856:	50caa2        	addi	a10, a10, 80
    4859:	ee63a2        	s32i	a10, a3, 0x3b8
    485c:	7292b2        	l16si	a11, a2, 228
    485f:	03d3a2        	addmi	a10, a3, 0x300
    4862:	d4caa2        	addi	a10, a10, -44
    4865:	0008e0        	callx8	a8
    4868:	7492b2        	l16si	a11, a2, 232
    486b:	eeb881        	l32r	a8, 34c (4600 <beam2_setup>)
    486e:	03d3a2        	addmi	a10, a3, 0x300
    4871:	60caa2        	addi	a10, a10, 96
    4874:	0008e0        	callx8	a8
    4877:	7592b2        	l16si	a11, a2, 234
    487a:	eeb481        	l32r	a8, 34c (4600 <beam2_setup>)
    487d:	04d3a2        	addmi	a10, a3, 0x400
    4880:	eccaa2        	addi	a10, a10, -20
    4883:	0008e0        	callx8	a8
    4886:	cc0c           	movi.n	a12, 12
    4888:	eea881        	l32r	a8, 328 (45f0 <memset_S16>)
    488b:	eea591        	l32r	a9, 320 (10000000 <_end+0xfff3560>)
    488e:	04d3a2        	addmi	a10, a3, 0x400
    4891:	7392b2        	l16si	a11, a2, 230
    4894:	535ab2        	s16i	a11, a10, 166
    4897:	2a6a92        	s32i	a9, a10, 168
    489a:	eea2b1        	l32r	a11, 324 (1000 <voiced_decision+0x3c>)
    489d:	05d3a2        	addmi	a10, a3, 0x500
    48a0:	bccaa2        	addi	a10, a10, -68
    48a3:	0008e0        	callx8	a8
    48a6:	eeaa81        	l32r	a8, 350 (4644 <CH13_cb_setup>)
    48a9:	03d3a2        	addmi	a10, a3, 0x300
    48ac:	a0caa2        	addi	a10, a10, -96
    48af:	0008e0        	callx8	a8
    48b2:	eea781        	l32r	a8, 350 (4644 <CH13_cb_setup>)
    48b5:	03d3a2        	addmi	a10, a3, 0x300
    48b8:	2ccaa2        	addi	a10, a10, 44
    48bb:	0008e0        	callx8	a8
    48be:	eea481        	l32r	a8, 350 (4644 <CH13_cb_setup>)
    48c1:	04d3a2        	addmi	a10, a3, 0x400
    48c4:	b8caa2        	addi	a10, a10, -72
    48c7:	0008e0        	callx8	a8
    48ca:	05bd           	mov.n	a11, a5
    48cc:	eea281        	l32r	a8, 354 (461c <cal_vad_thrd_x1>)
    48cf:	04d3a2        	addmi	a10, a3, 0x400
    48d2:	05d392        	addmi	a9, a3, 0x500
    48d5:	01d3c2        	addmi	a12, a3, 0x100
    48d8:	b0ccc2        	addi	a12, a12, -80
    48db:	d4c992        	addi	a9, a9, -44
    48de:	5ccaa2        	addi	a10, a10, 92
    48e1:	8064a2        	s32i	a10, a4, 0x200
    48e4:	936492        	s32i	a9, a4, 0x24c
    48e7:	06ad           	mov.n	a10, a6
    48e9:	0008e0        	callx8	a8
    48ec:	c37a           	add.n	a12, a3, a7
    48ee:	01d3b2        	addmi	a11, a3, 0x100
    48f1:	01d3a2        	addmi	a10, a3, 0x100
    48f4:	ee9881        	l32r	a8, 354 (461c <cal_vad_thrd_x1>)
    48f7:	accaa2        	addi	a10, a10, -84
    48fa:	bccbb2        	addi	a11, a11, -68
    48fd:	0008e0        	callx8	a8
    4900:	8c0c           	movi.n	a12, 8
    4902:	02d2b2        	addmi	a11, a2, 0x200
    4905:	02d3a2        	addmi	a10, a3, 0x200
    4908:	ede781        	l32r	a8, a4 (9de0 <xt_memcpy>)
    490b:	8ccaa2        	addi	a10, a10, -116
    490e:	94cbb2        	addi	a11, a11, -108
    4911:	0008e0        	callx8	a8
    4914:	ee9181        	l32r	a8, 358 (6bd8 <two_mic_WB_NR_init>)
    4917:	02ad           	mov.n	a10, a2
    4919:	0008e0        	callx8	a8
    491c:	f01d           	retw.n

0000491e <TWO_MIC_WB_init+0x2ca>:
	...

00004920 <siir_safr>:
    4920:	004136        	entry	a1, 32
    4923:	13a237        	bge	a2, a3, 493a <siir_safr+0x1a>
    4926:	368334        	ae_cvtq48a32s	aeq2, a3
    4929:	440404        	ae_lp16x2f.i	aep0, a4, 0
    492c:	364234        	ae_cvtq48a32s	aeq1, a2
    492f:	c10864        	ae_mulzaafq32sp16s.lh	aeq1, aeq1, aep0, aeq2, aep0
    4932:	061934        	ae_roundsq32asym	aeq0, aeq1
    4935:	368204        	ae_trunca32q48	a2, aeq0
    4938:	f01d           	retw.n

0000493a <siir_safr+0x1a>:
    493a:	364334        	ae_cvtq48a32s	aeq1, a3
    493d:	441414        	ae_lp16x2f.i	aep1, a4, 4
    4940:	360234        	ae_cvtq48a32s	aeq0, a2
    4943:	c11114        	ae_mulzaafq32sp16s.lh	aeq0, aeq0, aep1, aeq1, aep1
    4946:	06c934        	ae_roundsq32asym	aeq3, aeq0
    4949:	36b204        	ae_trunca32q48	a2, aeq3
    494c:	f01d           	retw.n

0000494e <siir_safr+0x2e>:
	...

00004950 <take_min_four>:
    4950:	004136        	entry	a1, 32
    4953:	226d           	ae_l16si.n	a6, a2, 0
    4955:	4823a6        	blti	a3, 2, 49a1 <take_min_four+0x51>
    4958:	ee2a91        	l32r	a9, 200 (7fff <NR_vad2+0xe3>)
    495b:	ee2971        	l32r	a7, 200 (7fff <NR_vad2+0xe3>)
    495e:	ee2881        	l32r	a8, 200 (7fff <NR_vad2+0xe3>)
    4961:	222b           	addi.n	a2, a2, 2
    4963:	ffc342        	addi	a4, a3, -1
    4966:	10a476        	loopgtz	a4, 497a <take_min_four+0x2a>
    4969:	223d           	ae_l16si.n	a3, a2, 0
    496b:	222b           	addi.n	a2, a2, 2
    496d:	14a367        	bge	a3, a6, 4985 <take_min_four+0x35>
    4970:	079d           	mov.n	a9, a7
    4972:	087d           	mov.n	a7, a8
    4974:	068d           	mov.n	a8, a6
    4976:	036d           	mov.n	a6, a3

00004978 <take_min_four+0x28>:
    4978:	f03d           	nop.n

0000497a <take_min_four+0x2a>:
    497a:	479a           	add.n	a4, a7, a9
    497c:	268a           	add.n	a2, a6, a8
    497e:	224a           	add.n	a2, a2, a4
    4980:	112220        	slli	a2, a2, 14
    4983:	f01d           	retw.n

00004985 <take_min_four+0x35>:
    4985:	08a387        	bge	a3, a8, 4991 <take_min_four+0x41>
    4988:	079d           	mov.n	a9, a7
    498a:	087d           	mov.n	a7, a8
    498c:	038d           	mov.n	a8, a3
    498e:	fff986        	j	4978 <take_min_four+0x28>

00004991 <take_min_four+0x41>:
    4991:	06a377        	bge	a3, a7, 499b <take_min_four+0x4b>
    4994:	079d           	mov.n	a9, a7
    4996:	037d           	mov.n	a7, a3
    4998:	fff706        	j	4978 <take_min_four+0x28>

0000499b <take_min_four+0x4b>:
    499b:	439390        	min	a9, a3, a9
    499e:	fff586        	j	4978 <take_min_four+0x28>

000049a1 <take_min_four+0x51>:
    49a1:	ee1721        	l32r	a2, 200 (7fff <NR_vad2+0xe3>)
    49a4:	ee6e41        	l32r	a4, 35c (fffe <_end+0x355e>)
    49a7:	262a           	add.n	a2, a6, a2
    49a9:	224a           	add.n	a2, a2, a4
    49ab:	112220        	slli	a2, a2, 14
    49ae:	f01d           	retw.n

000049b0 <take_max_four>:
    49b0:	004136        	entry	a1, 32
    49b3:	226d           	ae_l16si.n	a6, a2, 0
    49b5:	4823a6        	blti	a3, 2, 4a01 <take_max_four+0x51>
    49b8:	ee6a91        	l32r	a9, 360 (ffff8000 <_end+0xfffeb560>)
    49bb:	ee6971        	l32r	a7, 360 (ffff8000 <_end+0xfffeb560>)
    49be:	ee6881        	l32r	a8, 360 (ffff8000 <_end+0xfffeb560>)
    49c1:	222b           	addi.n	a2, a2, 2
    49c3:	ffc342        	addi	a4, a3, -1
    49c6:	10a476        	loopgtz	a4, 49da <take_max_four+0x2a>
    49c9:	223d           	ae_l16si.n	a3, a2, 0
    49cb:	222b           	addi.n	a2, a2, 2
    49cd:	14a637        	bge	a6, a3, 49e5 <take_max_four+0x35>
    49d0:	079d           	mov.n	a9, a7
    49d2:	087d           	mov.n	a7, a8
    49d4:	068d           	mov.n	a8, a6
    49d6:	036d           	mov.n	a6, a3

000049d8 <take_max_four+0x28>:
    49d8:	f03d           	nop.n

000049da <take_max_four+0x2a>:
    49da:	479a           	add.n	a4, a7, a9
    49dc:	268a           	add.n	a2, a6, a8
    49de:	224a           	add.n	a2, a2, a4
    49e0:	112220        	slli	a2, a2, 14
    49e3:	f01d           	retw.n

000049e5 <take_max_four+0x35>:
    49e5:	08a837        	bge	a8, a3, 49f1 <take_max_four+0x41>
    49e8:	079d           	mov.n	a9, a7
    49ea:	087d           	mov.n	a7, a8
    49ec:	038d           	mov.n	a8, a3
    49ee:	fff986        	j	49d8 <take_max_four+0x28>

000049f1 <take_max_four+0x41>:
    49f1:	06a737        	bge	a7, a3, 49fb <take_max_four+0x4b>
    49f4:	079d           	mov.n	a9, a7
    49f6:	037d           	mov.n	a7, a3
    49f8:	fff706        	j	49d8 <take_max_four+0x28>

000049fb <take_max_four+0x4b>:
    49fb:	539390        	max	a9, a3, a9
    49fe:	fff586        	j	49d8 <take_max_four+0x28>

00004a01 <take_max_four+0x51>:
    4a01:	ee5841        	l32r	a4, 364 (ffff0000 <_end+0xfffe3560>)
    4a04:	80d622        	addmi	a2, a6, 0xffff8000
    4a07:	224a           	add.n	a2, a2, a4
    4a09:	112220        	slli	a2, a2, 14
    4a0c:	f01d           	retw.n

00004a0e <take_max_four+0x5e>:
	...

00004a10 <prelim_filter>:
    4a10:	012136        	entry	a1, 144
    4a13:	136122        	s32i	a2, a1, 76
    4a16:	aa2272        	l32i	a7, a2, 0x2a8
    4a19:	192252        	l32i	a5, a2, 100
    4a1c:	24c262        	addi	a6, a2, 36
    4a1f:	01ad           	mov.n	a10, a1
    4a21:	00a0b2        	movi	a11, 0
    4a24:	06a0c2        	movi	a12, 6
    4a27:	ed9d81        	l32r	a8, 9c (9dc8 <xt_memset>)
    4a2a:	78c192        	addi	a9, a1, 120
    4a2d:	04dd           	mov.n	a13, a4
    4a2f:	20e330        	or	a14, a3, a3
    4a32:	22c2f2        	addi	a15, a2, 34
    4a35:	1261f2        	s32i	a15, a1, 72
    4a38:	1161e2        	s32i	a14, a1, 68
    4a3b:	1061d2        	s32i	a13, a1, 64
    4a3e:	46c232        	addi	a3, a2, 70
    4a41:	40c242        	addi	a4, a2, 64
    4a44:	400f04        	ae_lp16f.i	aep0, a15, 0
    4a47:	5609d4        	ae_sp24x2s.i	aep0, a9, -24
    4a4a:	f3f640        	wur.ae_cbegin0	a4
    4a4d:	f3f730        	wur.ae_cend0	a3
    4a50:	a92242        	l32i	a4, a2, 0x2a4
    4a53:	a82232        	l32i	a3, a2, 0x2a0
    4a56:	0008e0        	callx8	a8
    4a59:	fec422        	addi	a2, a4, -2
    4a5c:	fcc1a2        	addi	a10, a1, -4
    4a5f:	fec7b2        	addi	a11, a7, -2
    4a62:	12c4c2        	addi	a12, a4, 18
    4a65:	1561c2        	s32i	a12, a1, 84
    4a68:	1661b2        	s32i	a11, a1, 88
    4a6b:	1461a2        	s32i	a10, a1, 80
    4a6e:	fc2480e17e 	{ addi	a7, a1, 14; ae_zeroq56	aeq0 }
    4a73:	fd0440024f 	{ movi	a4, 2; ae_movq56	aeq1, aeq0 }

00004a78 <prelim_filter+0x68>:
    4a78:	402214        	ae_lp16f.i	aep2, a2, 2
    4a7b:	fc24e2a54f 	{ ae_sp16f.l.c	aep2, a5, a4; nop }
    4a80:	fc24d9554f 	{ ae_lp16f.c	aep5, a5, a4; nop }
    4a85:	e2b7fd460f 	{ ae_lq32f.i	aeq2, a6, 0; ae_mulafp24s.ll	aeq1, aep5, aep5 }
    4a8a:	f69699454f 	{ ae_lp16f.c	aep4, a5, a4; ae_mulafq32sp16s.l	aeq0, aeq2, aep5 }
    4a8f:	e293d9354f 	{ ae_lp16f.c	aep3, a5, a4; ae_mulafp24s.ll	aeq1, aep4, aep4 }
    4a94:	e26ffd761f 	{ ae_lq32f.iu	aeq3, a6, 4; ae_mulafp24s.ll	aeq1, aep3, aep3 }
    4a99:	f693bd761f 	{ ae_lq32f.iu	aeq3, a6, 4; ae_mulafq32sp16s.l	aeq0, aeq3, aep4 }
    4a9e:	f68fbd761f 	{ ae_lq32f.iu	aeq3, a6, 4; ae_mulafq32sp16s.l	aeq0, aeq3, aep3 }
    4aa3:	eddf81        	l32r	a8, 220 (8b28 <airoha_divide>)
    4aa6:	ed89c1        	l32r	a12, cc (4000 <Voice_WB_TX_Prcs+0x5c0>)
    4aa9:	78c1d2        	addi	a13, a1, 120
    4aac:	3550b4        	ae_sraiq56	aeq1, aeq1, 2
    4aaf:	fd2c7a80df 	{ ae_slliq56	aeq3, aeq0, 1; ae_roundsq32asym	aeq1, aeq1 }
    4ab4:	f87a307ddf 	{ ae_lp24x2.i	aep7, a13, -24; ae_addq56	aeq0, aeq3, aeq0 }
    4ab9:	0a8784        	ae_cvtq48p24s.l	aeq2, aep7
    4abc:	f832ff1bef 	{ ae_trunca32q48	a11, aeq1; ae_subq56	aeq0, aeq2, aeq0 }
    4ac1:	fb63b2730f 	{ ae_sp16f.l.i	aep7, a3, 0; ae_roundsp16q48asym	aep6, aeq0 }
    4ac6:	006ad4        	ae_cvta32p24.l	a10, aep6
    4ac9:	53bbc0        	max	a11, a11, a12
    4acc:	426714        	ae_sp16f.l.i	aep6, a7, 2
    4acf:	21a6a0        	srai	a10, a10, 6
    4ad2:	0008e0        	callx8	a8
    4ad5:	f0c692        	addi	a9, a6, -16
    4ad8:	332b           	addi.n	a3, a3, 2
    4ada:	772b           	addi.n	a7, a7, 2
    4adc:	162182        	l32i	a8, a1, 88
    4adf:	3c0c           	movi.n	a12, 3
    4ae1:	1521f2        	l32i	a15, a1, 84
    4ae4:	02c222        	addi	a2, a2, 2
    4ae7:	36cb34        	ae_cvtq48a32s	aeq3, a11
    4aea:	ee1fe1        	l32r	a14, 368 (ccccc <_end+0xc022c>)
    4aed:	399ee4        	ae_movpa24x2	aep1, a14, a14
    4af0:	fc24feba8f 	{ ae_slaasq56s	aeq2, aeq3, a10; nop }
    4af5:	1421a2        	l32i	a10, a1, 80
    4af8:	f97795f2ff 	{ sub	a15, a2, a15; ae_roundsp24q48asym	aep2, aeq2 }
    4afd:	1a8c76        	loop	a12, 4b1b <prelim_filter+0x10b>
    4b00:	fc24d9054f 	{ ae_lp16f.c	aep0, a5, a4; nop }
    4b05:	601914        	ae_lq32f.iu	aeq0, a9, 4
    4b08:	e20bbd3a1f 	{ ae_lq32f.iu	aeq1, a10, 4; ae_mulafp24s.ll	aeq0, aep2, aep0 }
    4b0d:	060934        	ae_roundsq32asym	aeq0, aeq0
    4b10:	f4c6f9890f 	{ ae_sq32f.i	aeq0, a9, 0; ae_mulafq32sp24s.l	aeq1, aeq0, aep1 }
    4b15:	061934        	ae_roundsq32asym	aeq0, aeq1
    4b18:	620a04        	ae_sq32f.i	aeq0, a10, 0

00004b1b <prelim_filter+0x10b>:
    4b1b:	f8c962        	addi	a6, a9, -8
    4b1e:	408814        	ae_lp16f.iu	aep0, a8, 2
    4b21:	166182        	s32i	a8, a1, 88
    4b24:	fc2487819e 	{ addi	a9, a1, 120; ae_zeroq56	aeq0 }
    4b29:	fd047709df 	{ ae_sp24x2s.i	aep0, a9, -24; ae_movq56	aeq1, aeq0 }
    4b2e:	f46f56        	bnez	a15, 4a78 <prelim_filter+0x68>
    4b31:	1221a2        	l32i	a10, a1, 72
    4b34:	5419d4        	ae_lp24x2.i	aep1, a9, -24
    4b37:	132182        	l32i	a8, a1, 76
    4b3a:	ee0c91        	l32r	a9, 36c (393e4b <_end+0x3873ab>)
    4b3d:	39a994        	ae_movpa24x2	aep2, a9, a9
    4b40:	10c192        	addi	a9, a1, 16
    4b43:	196852        	s32i	a5, a8, 100
    4b46:	421a04        	ae_sp16f.l.i	aep1, a10, 0
    4b49:	a82882        	l32i	a8, a8, 0x2a0
    4b4c:	400904        	ae_lp16f.i	aep0, a9, 0
    4b4f:	fe24800aaf 	{ movi	a10, 10; ae_zeroq56	aeq2 }
    4b54:	ff144fe88e 	{ addi	a8, a8, -2; ae_movq56	aeq3, aeq2 }
    4b59:	f03d           	nop.n
    4b5b:	f03d           	nop.n
    4b5d:	158a76        	loop	a10, 4b76 <prelim_filter+0x166>

00004b60 <prelim_filter+0x150>:
    4b60:	ea09ac881f 	{ ae_lp16f.iu	aep0, a8, 2; ae_mulfp24s.ll	aeq0, aep2, aep0 }
    4b65:	ea09ec891f 	{ ae_lp16f.iu	aep0, a9, 2; ae_mulfp24s.ll	aeq1, aep2, aep0 }
    4b6a:	1b8d14        	ae_roundsp24q48asym	aep1, aeq0
    4b6d:	019134        	ae_mulafp24s.ll	aeq2, aep1, aep1
    4b70:	1b9d14        	ae_roundsp24q48asym	aep1, aeq1
    4b73:	019934        	ae_mulafp24s.ll	aeq3, aep1, aep1

00004b76 <prelim_filter+0x166>:
    4b76:	edede1        	l32r	a14, 32c (c18c <immediate_num+0x1c>)
    4b79:	ed63f1        	l32r	a15, 108 (10000 <_end+0x3560>)
    4b7c:	1321d2        	l32i	a13, a1, 76

00004b7f <prelim_filter+0x16f>:
    4b7f:	fc1c7ecfff 	{ ae_cvtq48a32s	aeq3, a15; ae_movq56	aeq0, aeq3 }
    4b84:	fd346d2e0f 	{ ae_lp16x2f.i	aep2, a14, 0; ae_roundsq32asym	aeq1, aeq2 }
    4b89:	fc24458dce 	{ addi	a12, a13, 88; ae_roundsq32asym	aeq0, aeq0 }
    4b8e:	fa2ac5cdde 	{ addi	a13, a13, 92; ae_subq56	aeq2, aeq1, aeq0 }
    4b93:	d6d43d4d0f 	{ ae_lq32f.i	aeq2, a13, 0; ae_ltq56s	b0, aeq3, aeq2 }
    4b98:	0c4b7d4c0f 	{ ae_lq32f.i	aeq2, a12, 0; ae_mulzaafq32sp16s.lh	aeq1, aeq1, aep2, aeq2, aep2 }
    4b9d:	c1a224        	ae_mulzaafq32sp16s.lh	aeq2, aeq0, aep2, aeq2, aep2
    4ba0:	06d934        	ae_roundsq32asym	aeq3, aeq1
    4ba3:	fd3479bd0f 	{ ae_sq32f.i	aeq3, a13, 0; ae_roundsq32asym	aeq1, aeq2 }
    4ba8:	621c04        	ae_sq32f.i	aeq1, a12, 0
    4bab:	3f0076        	bf	b0, 4bee <prelim_filter+0x1de>
    4bae:	132182        	l32i	a8, a1, 76
    4bb1:	80a0a2        	movi	a10, 128
    4bb4:	a82882        	l32i	a8, a8, 0x2a0
    4bb7:	10c192        	addi	a9, a1, 16
    4bba:	446904        	ae_lp16x2f.i	aep6, a9, 0
    4bbd:	fcc882        	addi	a8, a8, -4
    4bc0:	cf18add81f 	{ ae_lp16x2f.iu	aep5, a8, 4; ae_sraip24	aep6, aep6, 1 }
    4bc5:	ce14e23aaf 	{ ae_movpa24x2	aep3, a10, a10; ae_sraip24	aep5, aep5, 1 }
    4bca:	dad52d891f 	{ ae_lp16x2f.iu	aep0, a9, 4; ae_addsp24s	aep4, aep5, aep6 }
    4bcf:	d9710004af 	{ movi	a10, 4; ae_addsp24s	aep2, aep4, aep3 }
    4bd4:	f03d           	nop.n
    4bd6:	118a76        	loop	a10, 4beb <prelim_filter+0x1db>
    4bd9:	cc00ed881f 	{ ae_lp16x2f.iu	aep0, a8, 4; ae_sraip24	aep1, aep0, 1 }
    4bde:	cc00b329ff 	{ ae_sp16x2f.i	aep2, a9, -4; ae_sraip24	aep0, aep0, 1 }
    4be3:	d8216d891f 	{ ae_lp16x2f.iu	aep0, a9, 4; ae_addsp24s	aep1, aep0, aep1 }
    4be8:	079324        	ae_addsp24s	aep2, aep1, aep3

00004beb <prelim_filter+0x1db>:
    4beb:	4629f4        	ae_sp16x2f.i	aep2, a9, -4

00004bee <prelim_filter+0x1de>:
    4bee:	1321a2        	l32i	a10, a1, 76
    4bf1:	eddfc1        	l32r	a12, 370 (155555 <_end+0x148ab5>)
    4bf4:	39fcc4        	ae_movpa24x2	aep7, a12, a12
    4bf7:	4ccab2        	addi	a11, a10, 76
    4bfa:	608b04        	ae_lq32f.i	aeq2, a11, 0
    4bfd:	08f324        	ae_mulafq32sp24s.l	aeq2, aeq0, aep7
    4c00:	ed8781        	l32r	a8, 21c (8c40 <airoha_divide_limit_1>)
    4c03:	066934        	ae_roundsq32asym	aeq1, aeq2
    4c06:	621b04        	ae_sq32f.i	aeq1, a11, 0
    4c09:	0b9ac2        	l16si	a12, a10, 22
    4c0c:	162ab2        	l32i	a11, a10, 88
    4c0f:	172aa2        	l32i	a10, a10, 92
    4c12:	11cc20        	slli	a12, a12, 14
    4c15:	53bbc0        	max	a11, a11, a12
    4c18:	0008e0        	callx8	a8
    4c1b:	590c           	movi.n	a9, 5
    4c1d:	1321b2        	l32i	a11, a1, 76
    4c20:	379aa4        	ae_truncp24a32x2	aep1, a10, a10
    4c23:	edd4c1        	l32r	a12, 374 (175e97 <_end+0x1693f7>)
    4c26:	39acc4        	ae_movpa24x2	aep2, a12, a12
    4c29:	f8e6820bde 	{ addi	a13, a11, 32; ae_roundsp16asym	aep0, aep1 }
    4c2e:	420d04        	ae_sp16f.l.i	aep0, a13, 0
    4c31:	a92b82        	l32i	a8, a11, 0x2a4
    4c34:	50cbb2        	addi	a11, a11, 80
    4c37:	604b04        	ae_lq32f.i	aeq1, a11, 0
    4c3a:	400804        	ae_lp16f.i	aep0, a8, 0
    4c3d:	158976        	loop	a9, 4c56 <prelim_filter+0x246>
    4c40:	ea09ac081f 	{ ae_lp16f.i	aep0, a8, 2; ae_mulfp24s.ll	aeq0, aep2, aep0 }
    4c45:	eb09ac882f 	{ ae_lp16f.iu	aep0, a8, 4; ae_mulfp24s.ll	aeq2, aep2, aep0 }
    4c4a:	1b8d14        	ae_roundsp24q48asym	aep1, aeq0
    4c4d:	011934        	ae_mulafp24s.ll	aeq1, aep1, aep1
    4c50:	1bad14        	ae_roundsp24q48asym	aep1, aeq2
    4c53:	011934        	ae_mulafp24s.ll	aeq1, aep1, aep1

00004c56 <prelim_filter+0x246>:
    4c56:	06d934        	ae_roundsq32asym	aeq3, aeq1
    4c59:	623b04        	ae_sq32f.i	aeq3, a11, 0
    4c5c:	1321b2        	l32i	a11, a1, 76
    4c5f:	edc681        	l32r	a8, 378 (4560 <find_phase>)
    4c62:	01ad           	mov.n	a10, a1
    4c64:	2b9bb2        	l16si	a11, a11, 86
    4c67:	0008e0        	callx8	a8
    4c6a:	1321d2        	l32i	a13, a1, 76
    4c6d:	162dd2        	l32i	a13, a13, 88
    4c70:	0a5d           	mov.n	a5, a10
    4c72:	ffa3c2        	movi	a12, 0x3ff
    4c75:	70acd7        	bge	a12, a13, 4ce9 <prelim_filter+0x2d9>
    4c78:	1321a2        	l32i	a10, a1, 76
    4c7b:	089ab2        	l16si	a11, a10, 16
    4c7e:	109aa2        	l16si	a10, a10, 32
    4c81:	c0aab0        	sub	a10, a10, a11
    4c84:	021ae6        	bgei	a10, 1, 4c8a <prelim_filter+0x27a>
    4c87:	003046        	j	4d4c <prelim_filter+0x33c>
    4c8a:	1321b2        	l32i	a11, a1, 76
    4c8d:	099bb2        	l16si	a11, a11, 18
    4c90:	682ab7        	blt	a10, a11, 4cfc <prelim_filter+0x2ec>

00004c93 <prelim_filter+0x283>:
    4c93:	1321a2        	l32i	a10, a1, 76
    4c96:	a82aa2        	l32i	a10, a10, 0x2a0
    4c99:	10c182        	addi	a8, a1, 16
    4c9c:	440804        	ae_lp16x2f.i	aep0, a8, 0
    4c9f:	fccaa2        	addi	a10, a10, -4
    4ca2:	449a14        	ae_lp16x2f.iu	aep1, a10, 4
    4ca5:	df06ede81f 	{ ae_lp16x2f.iu	aep6, a8, 4; ae_subsp24s	aep7, aep1, aep0 }
    4caa:	467a04        	ae_sp16x2f.i	aep7, a10, 0
    4cad:	44da14        	ae_lp16x2f.iu	aep5, a10, 4
    4cb0:	ded6adb81f 	{ ae_lp16x2f.iu	aep3, a8, 4; ae_subsp24s	aep4, aep5, aep6 }
    4cb5:	464a04        	ae_sp16x2f.i	aep4, a10, 0
    4cb8:	44aa14        	ae_lp16x2f.iu	aep2, a10, 4
    4cbb:	dc6aedf81f 	{ ae_lp16x2f.iu	aep7, a8, 4; ae_subsp24s	aep1, aep2, aep3 }
    4cc0:	461a04        	ae_sp16x2f.i	aep1, a10, 0
    4cc3:	44ea14        	ae_lp16x2f.iu	aep6, a10, 4
    4cc6:	defaedc81f 	{ ae_lp16x2f.iu	aep4, a8, 4; ae_subsp24s	aep5, aep6, aep7 }
    4ccb:	465a04        	ae_sp16x2f.i	aep5, a10, 0
    4cce:	44ba14        	ae_lp16x2f.iu	aep3, a10, 4
    4cd1:	07b4a4        	ae_subsp24s	aep2, aep3, aep4
    4cd4:	462a04        	ae_sp16x2f.i	aep2, a10, 0
    4cd7:	1021c2        	l32i	a12, a1, 64
    4cda:	1121e2        	l32i	a14, a1, 68
    4cdd:	0b0c           	movi.n	a11, 0
    4cdf:	1d0c           	movi.n	a13, 1
    4ce1:	1ed9           	s32i.n	a13, a14, 4
    4ce3:	0e59           	s32i.n	a5, a14, 0
    4ce5:	6cbd           	ae_s16i.n	a11, a12, 0
    4ce7:	f01d           	retw.n

00004ce9 <prelim_filter+0x2d9>:
    4ce9:	102182        	l32i	a8, a1, 64
    4cec:	1121a2        	l32i	a10, a1, 68
    4cef:	ed44f1        	l32r	a15, 200 (7fff <NR_vad2+0xe3>)
    4cf2:	090c           	movi.n	a9, 0
    4cf4:	1a99           	s32i.n	a9, a10, 4
    4cf6:	0a59           	s32i.n	a5, a10, 0
    4cf8:	68fd           	ae_s16i.n	a15, a8, 0
    4cfa:	f01d           	retw.n

00004cfc <prelim_filter+0x2ec>:
    4cfc:	ed4881        	l32r	a8, 21c (8c40 <airoha_divide_limit_1>)
    4cff:	0008e0        	callx8	a8
    4d02:	37baa4        	ae_truncp24a32x2	aep3, a10, a10
    4d05:	290c           	movi.n	a9, 2
    4d07:	10c182        	addi	a8, a1, 16
    4d0a:	400804        	ae_lp16f.i	aep0, a8, 0
    4d0d:	0aa976        	loopgtz	a9, 4d1b <prelim_filter+0x30b>
    4d10:	010374        	ae_mulfp24s.ll	aeq0, aep0, aep3
    4d13:	f963ac881f 	{ ae_lp16f.iu	aep0, a8, 2; ae_roundsp16q48asym	aep2, aeq0 }
    4d18:	4228f4        	ae_sp16f.l.i	aep2, a8, -2

00004d1b <prelim_filter+0x30b>:
    4d1b:	290c           	movi.n	a9, 2
    4d1d:	288976        	loop	a9, 4d49 <prelim_filter+0x339>

00004d20 <prelim_filter+0x310>:
    4d20:	ea61ac081f 	{ ae_lp16f.i	aep0, a8, 2; ae_mulfp24s.ll	aeq0, aep0, aep3 }
    4d25:	ea61ec082f 	{ ae_lp16f.i	aep0, a8, 4; ae_mulfp24s.ll	aeq1, aep0, aep3 }
    4d2a:	f863ec283f 	{ ae_lp16f.i	aep2, a8, 6; ae_roundsp16q48asym	aep1, aeq0 }
    4d2f:	ea61ac884f 	{ ae_lp16f.iu	aep0, a8, 8; ae_mulfp24s.ll	aeq0, aep0, aep3 }
    4d34:	eb69b218cf 	{ ae_sp16f.l.i	aep1, a8, -8; ae_mulfp24s.ll	aeq2, aep2, aep3 }
    4d39:	1b9f24        	ae_roundsp16q48asym	aep2, aeq1
    4d3c:	f963b228df 	{ ae_sp16f.l.i	aep2, a8, -6; ae_roundsp16q48asym	aep2, aeq0 }
    4d41:	f973b228ef 	{ ae_sp16f.l.i	aep2, a8, -4; ae_roundsp16q48asym	aep2, aeq2 }
    4d46:	4228f4        	ae_sp16f.l.i	aep2, a8, -2

00004d49 <prelim_filter+0x339>:
    4d49:	ffd186        	j	4c93 <prelim_filter+0x283>

00004d4c <prelim_filter+0x33c>:
    4d4c:	1021b2        	l32i	a11, a1, 64
    4d4f:	1121d2        	l32i	a13, a1, 68
    4d52:	ed2ba1        	l32r	a10, 200 (7fff <NR_vad2+0xe3>)
    4d55:	1c0c           	movi.n	a12, 1
    4d57:	1dc9           	s32i.n	a12, a13, 4
    4d59:	0d59           	s32i.n	a5, a13, 0
    4d5b:	6bad           	ae_s16i.n	a10, a11, 0
    4d5d:	f01d           	retw.n

00004d5f <prelim_filter+0x34f>:
	...

00004d60 <prelim_filter3>:
    4d60:	00a136        	entry	a1, 80
    4d63:	6139           	s32i.n	a3, a1, 24
    4d65:	2b9282        	l16si	a8, a2, 86
    4d68:	3159           	s32i.n	a5, a1, 12
    4d6a:	fdc492        	addi	a9, a4, -3
    4d6d:	12f916        	beqz	a9, 4ea0 <prelim_filter3+0x140>
    4d70:	550c           	movi.n	a5, 5
    4d72:	ef22c2        	l32i	a12, a2, 0x3bc
    4d75:	4d1c           	movi.n	a13, 20
    4d77:	ecd5e1        	l32r	a14, cc (4000 <Voice_WB_TX_Prcs+0x5c0>)
    4d7a:	21fa80        	srai	a15, a8, 10
    4d7d:	01f9           	s32i.n	a15, a1, 0
    4d7f:	f02282        	l32i	a8, a2, 0x3c0
    4d82:	21e9           	s32i.n	a14, a1, 8
    4d84:	71d9           	s32i.n	a13, a1, 28

00004d86 <prelim_filter3+0x26>:
    4d86:	6128           	l32i.n	a2, a1, 24
    4d88:	5189           	s32i.n	a8, a1, 20
    4d8a:	7198           	l32i.n	a9, a1, 28
    4d8c:	10c242        	addi	a4, a2, 16
    4d8f:	16c2a2        	addi	a10, a2, 22
    4d92:	41a9           	s32i.n	a10, a1, 16
    4d94:	f3f7a0        	wur.ae_cend0	a10
    4d97:	f3f640        	wur.ae_cbegin0	a4
    4d9a:	401a04        	ae_lp16f.i	aep1, a10, 0
    4d9d:	0248           	l32i.n	a4, a2, 0
    4d9f:	224b           	addi.n	a2, a2, 4
    4da1:	fc2494112f 	{ s32i.n	a2, a1, 4; ae_zeroq56	aeq0 }
    4da6:	0219e6        	bgei	a9, 1, 4dac <prelim_filter3+0x4c>
    4da9:	002cc6        	j	4e60 <prelim_filter3+0x100>
    4dac:	270c           	movi.n	a7, 2
    4dae:	fec832        	addi	a3, a8, -2
    4db1:	fecc62        	addi	a6, a12, -2
    4db4:	90a9c0        	addx2	a10, a9, a12
    4db7:	fd044feaae 	{ addi	a10, a10, -2; ae_movq56	aeq1, aeq0 }
    4dbc:	fe045481af 	{ s32i.n	a10, a1, 32; ae_movq56	aeq2, aeq0 }

00004dc1 <prelim_filter3+0x61>:
    4dc1:	400614        	ae_lp16f.i	aep0, a6, 2
    4dc4:	fc24e2847f 	{ ae_sp16f.l.c	aep0, a4, a7; nop }
    4dc9:	fc24d9447f 	{ ae_lp16f.c	aep4, a4, a7; nop }
    4dce:	e393bd620f 	{ ae_lq32f.i	aeq3, a2, 0; ae_mulafp24s.ll	aeq2, aep4, aep4 }
    4dd3:	f693d9347f 	{ ae_lp16f.c	aep3, a4, a7; ae_mulafq32sp16s.l	aeq1, aeq3, aep4 }
    4dd8:	e36f99247f 	{ ae_lp16f.c	aep2, a4, a7; ae_mulafp24s.ll	aeq2, aep3, aep3 }
    4ddd:	e34bbd121f 	{ ae_lq32f.iu	aeq0, a2, 4; ae_mulafp24s.ll	aeq2, aep2, aep2 }
    4de2:	f48efd121f 	{ ae_lq32f.iu	aeq0, a2, 4; ae_mulafq32sp16s.l	aeq1, aeq0, aep3 }
    4de7:	f48afd121f 	{ ae_lq32f.iu	aeq0, a2, 4; ae_mulafq32sp16s.l	aeq1, aeq0, aep2 }
    4dec:	ed0c81        	l32r	a8, 21c (8c40 <airoha_divide_limit_1>)
    4def:	400500        	ssr	a5
    4df2:	ff2c3a901f 	{ ae_slliq56	aeq0, aeq1, 1; ae_cvtq48p24s.l	aeq3, aep1 }
    4df7:	0149c4        	ae_addq56	aeq1, aeq0, aeq1
    4dfa:	017dc4        	ae_subq56	aeq1, aeq3, aeq1
    4dfd:	fa6bfb20af 	{ ae_sraiq56	aeq2, aeq2, 2; ae_roundsp16q48asym	aep5, aeq1 }
    4e02:	005ad4        	ae_cvta32p24.l	a10, aep5
    4e05:	06a934        	ae_roundsq32asym	aeq2, aeq2
    4e08:	36ab04        	ae_trunca32q48	a11, aeq2
    4e0b:	b1a0a0        	sra	a10, a10
    4e0e:	0008e0        	callx8	a8
    4e11:	662b           	addi.n	a6, a6, 2
    4e13:	fc24d9147f 	{ ae_lp16f.c	aep1, a4, a7; nop }
    4e18:	378aa4        	ae_truncp24a32x2	aep0, a10, a10
    4e1b:	fc24bd72df 	{ ae_lq32f.iu	aeq3, a2, -12; ae_zeroq56	aeq0 }
    4e20:	e323f081be 	{ l32i	a11, a1, 32; ae_mulafp24s.ll	aeq3, aep0, aep1 }
    4e25:	06b934        	ae_roundsq32asym	aeq2, aeq3
    4e28:	622204        	ae_sq32f.i	aeq2, a2, 0
    4e2b:	fc24d9747f 	{ ae_lp16f.c	aep7, a4, a7; nop }
    4e30:	605214        	ae_lq32f.iu	aeq1, a2, 4
    4e33:	010f34        	ae_mulafp24s.ll	aeq1, aep0, aep7
    4e36:	069934        	ae_roundsq32asym	aeq2, aeq1
    4e39:	622204        	ae_sq32f.i	aeq2, a2, 0
    4e3c:	fc24d9647f 	{ ae_lp16f.c	aep6, a4, a7; nop }
    4e41:	605214        	ae_lq32f.iu	aeq1, a2, 4
    4e44:	010e34        	ae_mulafp24s.ll	aeq1, aep0, aep6
    4e47:	069934        	ae_roundsq32asym	aeq2, aeq1
    4e4a:	622204        	ae_sq32f.i	aeq2, a2, 0
    4e4d:	fe047d321f 	{ ae_lq32f.iu	aeq1, a2, 4; ae_movq56	aeq2, aeq0 }
    4e52:	409314        	ae_lp16f.iu	aep1, a3, 2
    4e55:	f4c222        	addi	a2, a2, -12
    4e58:	fd0455b6bf 	{ sub	a11, a6, a11; ae_movq56	aeq1, aeq0 }
    4e5d:	f60b56        	bnez	a11, 4dc1 <prelim_filter3+0x61>

00004e60 <prelim_filter3+0x100>:
    4e60:	5188           	l32i.n	a8, a1, 20
    4e62:	7198           	l32i.n	a9, a1, 28
    4e64:	61b8           	l32i.n	a11, a1, 24
    4e66:	41a8           	l32i.n	a10, a1, 16
    4e68:	219190        	srai	a9, a9, 1
    4e6b:	0b49           	s32i.n	a4, a11, 0
    4e6d:	421a04        	ae_sp16f.l.i	aep1, a10, 0
    4e70:	fc24ad080f 	{ ae_lp16x2f.i	aep0, a8, 0; ae_zeroq56	aeq0 }
    4e75:	04a976        	loopgtz	a9, 4e7d <prelim_filter3+0x11d>
    4e78:	e2002d881f 	{ ae_lp16x2f.iu	aep0, a8, 4; ae_mulaafp24s.hh.ll	aeq0, aep0, aep0 }

00004e7d <prelim_filter3+0x11d>:
    4e7d:	11a8           	l32i.n	a10, a1, 4
    4e7f:	ed3e81        	l32r	a8, 378 (4560 <find_phase>)
    4e82:	ff247001be 	{ l32i	a11, a1, 0; ae_roundsq32asym	aeq3, aeq0 }
    4e87:	633154        	ae_sq56s.i	aeq3, a1, 40
    4e8a:	0008e0        	callx8	a8
    4e8d:	2198           	l32i.n	a9, a1, 8
    4e8f:	31b8           	l32i.n	a11, a1, 12
    4e91:	610154        	ae_lq56.i	aeq0, a1, 40
    4e94:	368c04        	ae_trunca32q48	a12, aeq0
    4e97:	0ba9           	s32i.n	a10, a11, 0
    4e99:	7299c0        	salt	a9, a9, a12
    4e9c:	1b99           	s32i.n	a9, a11, 4
    4e9e:	f01d           	retw.n

00004ea0 <prelim_filter3+0x140>:
    4ea0:	cc22c2        	l32i	a12, a2, 0x330
    4ea3:	250c           	movi.n	a5, 2
    4ea5:	ad0c           	movi.n	a13, 10
    4ea7:	ed1fe1        	l32r	a14, 324 (1000 <voiced_decision+0x3c>)
    4eaa:	21f580        	srai	a15, a8, 5
    4ead:	01f9           	s32i.n	a15, a1, 0
    4eaf:	cd2282        	l32i	a8, a2, 0x334
    4eb2:	21e9           	s32i.n	a14, a1, 8
    4eb4:	71d9           	s32i.n	a13, a1, 28
    4eb6:	ffb306        	j	4d86 <prelim_filter3+0x26>

00004eb9 <prelim_filter3+0x159>:
    4eb9:	000000                                        ...

00004ebc <cm_short_vad>:
    4ebc:	004136        	entry	a1, 32
    4ebf:	234d           	ae_l16si.n	a4, a3, 0
    4ec1:	335d           	ae_l16si.n	a5, a3, 2
    4ec3:	029382        	l16si	a8, a3, 4
    4ec6:	092427        	blt	a4, a2, 4ed3 <cm_short_vad+0x17>
    4ec9:	1b2527        	blt	a5, a2, 4ee8 <cm_short_vad+0x2c>
    4ecc:	08a827        	bge	a8, a2, 4ed8 <cm_short_vad+0x1c>
    4ecf:	020c           	movi.n	a2, 0
    4ed1:	f01d           	retw.n

00004ed3 <cm_short_vad+0x17>:
    4ed3:	420c           	movi.n	a2, 4
    4ed5:	f01d           	retw.n

00004ed7 <cm_short_vad+0x1b>:
	...

00004ed8 <cm_short_vad+0x1c>:
    4ed8:	0393a2        	l16si	a10, a3, 6
    4edb:	e97c           	movi.n	a9, -2
    4edd:	72aa20        	salt	a10, a10, a2
    4ee0:	c27c           	movi.n	a2, -4
    4ee2:	9329a0        	movnez	a2, a9, a10
    4ee5:	f01d           	retw.n

00004ee7 <cm_short_vad+0x2b>:
	...

00004ee8 <cm_short_vad+0x2c>:
    4ee8:	220c           	movi.n	a2, 2
    4eea:	f01d           	retw.n

00004eec <cali_module_short>:
    4eec:	004136        	entry	a1, 32
    4eef:	ec6381        	l32r	a8, 7c (ca94 <p_ecnr_mem>)
    4ef2:	0888           	l32i.n	a8, a8, 0
    4ef4:	1ad882        	addmi	a8, a8, 0x1a00
    4ef7:	189882        	l16si	a8, a8, 48
    4efa:	040c           	movi.n	a4, 0
    4efc:	0228e6        	bgei	a8, 2, 4f02 <cali_module_short+0x16>
    4eff:	003286        	j	4fcd <cali_module_short+0xe1>
    4f02:	1398           	l32i.n	a9, a3, 4
    4f04:	03b8           	l32i.n	a11, a3, 0
    4f06:	3388           	l32i.n	a8, a3, 12
    4f08:	0219e6        	bgei	a9, 1, 4f0e <cali_module_short+0x22>
    4f0b:	003846        	j	4ff0 <cali_module_short+0x104>
    4f0e:	32cd           	ae_l16si.n	a12, a2, 2
    4f10:	1292a2        	l16si	a10, a2, 36
    4f13:	31b0b0        	srai	a11, a11, 16
    4f16:	3bacb7        	bge	a12, a11, 4f55 <cali_module_short+0x69>
    4f19:	22cd           	ae_l16si.n	a12, a2, 0
    4f1b:	1092e2        	l16si	a14, a2, 32
    4f1e:	1892d2        	l16si	a13, a2, 48
    4f21:	07acb7        	bge	a12, a11, 4f2c <cali_module_short+0x40>
    4f24:	490c           	movi.n	a9, 4
    4f26:	aa4b           	addi.n	a10, a10, 4
    4f28:	000106        	j	4f30 <cali_module_short+0x44>

00004f2b <cali_module_short+0x3f>:
	...

00004f2c <cali_module_short+0x40>:
    4f2c:	290c           	movi.n	a9, 2
    4f2e:	aa3b           	addi.n	a10, a10, 3

00004f30 <cali_module_short+0x44>:
    4f30:	43aae0        	min	a10, a10, a14
    4f33:	2c2de6        	bgei	a13, 2, 4f63 <cali_module_short+0x77>
    4f36:	1792b2        	l16si	a11, a2, 46
    4f39:	bb1b           	addi.n	a11, a11, 1
    4f3b:	8bbd           	ae_sext16	a11, a11
    4f3d:	1752b2        	s16i	a11, a2, 46
    4f40:	1fcba6        	blti	a11, 32, 4f63 <cali_module_short+0x77>
    4f43:	fedbe2        	addmi	a14, a11, 0xfffffe00
    4f46:	2d0c           	movi.n	a13, 2
    4f48:	1c0c           	movi.n	a12, 1
    4f4a:	83cde0        	moveqz	a12, a13, a14
    4f4d:	1852c2        	s16i	a12, a2, 48
    4f50:	0003c6        	j	4f63 <cali_module_short+0x77>

00004f53 <cali_module_short+0x67>:
	...

00004f55 <cali_module_short+0x69>:
    4f55:	0292f2        	l16si	a15, a2, 4
    4f58:	049d           	mov.n	a9, a4
    4f5a:	0392c2        	l16si	a12, a2, 6
    4f5d:	022fb7        	blt	a15, a11, 4f63 <cali_module_short+0x77>
    4f60:	001f46        	j	4fe1 <cali_module_short+0xf5>

00004f63 <cali_module_short+0x77>:
    4f63:	1252a2        	s16i	a10, a2, 36
    4f66:	115292        	s16i	a9, a2, 34

00004f69 <cali_module_short+0x7d>:
    4f69:	3b18a6        	blti	a8, 1, 4fa8 <cali_module_short+0xbc>
    4f6c:	23a8           	l32i.n	a10, a3, 8
    4f6e:	ed0381        	l32r	a8, 37c (4ebc <cm_short_vad>)
    4f71:	10c2b2        	addi	a11, a2, 16
    4f74:	31a0a0        	srai	a10, a10, 16
    4f77:	0008e0        	callx8	a8
    4f7a:	13b8           	l32i.n	a11, a3, 4
    4f7c:	1352a2        	s16i	a10, a2, 38
    4f7f:	581ba6        	blti	a11, 1, 4fdb <cali_module_short+0xef>
    4f82:	ecea91        	l32r	a9, 32c (c18c <immediate_num+0x1c>)
    4f85:	23b8           	l32i.n	a11, a3, 8
    4f87:	03a8           	l32i.n	a10, a3, 0
    4f89:	37aab4        	ae_truncp24a32x2	aep2, a10, a11
    4f8c:	441904        	ae_lp16x2f.i	aep1, a9, 0
    4f8f:	041204        	ae_mulzaafp24s.hh.ll	aeq0, aep1, aep2
    4f92:	ecfa81        	l32r	a8, 37c (4ebc <cm_short_vad>)
    4f95:	f8638082be 	{ addi	a11, a2, 8; ae_roundsp16q48asym	aep0, aeq0 }
    4f9a:	360a24        	ae_trunca16p24s.l	a10, aep0
    4f9d:	0008e0        	callx8	a8
    4fa0:	1552a2        	s16i	a10, a2, 42
    4fa3:	0001c6        	j	4fae <cali_module_short+0xc2>

00004fa6 <cali_module_short+0xba>:
	...

00004fa8 <cali_module_short+0xbc>:
    4fa8:	155292        	s16i	a9, a2, 42
    4fab:	135242        	s16i	a4, a2, 38

00004fae <cali_module_short+0xc2>:
    4fae:	53c8           	l32i.n	a12, a3, 20
    4fb0:	141ca6        	blti	a12, 1, 4fc8 <cali_module_short+0xdc>
    4fb3:	43a8           	l32i.n	a10, a3, 16
    4fb5:	ecf181        	l32r	a8, 37c (4ebc <cm_short_vad>)
    4fb8:	18c2b2        	addi	a11, a2, 24
    4fbb:	31a0a0        	srai	a10, a10, 16
    4fbe:	0008e0        	callx8	a8
    4fc1:	1452a2        	s16i	a10, a2, 40
    4fc4:	f01d           	retw.n

00004fc6 <cali_module_short+0xda>:
	...

00004fc8 <cali_module_short+0xdc>:
    4fc8:	145242        	s16i	a4, a2, 40
    4fcb:	f01d           	retw.n

00004fcd <cali_module_short+0xe1>:
    4fcd:	115242        	s16i	a4, a2, 34
    4fd0:	155242        	s16i	a4, a2, 42
    4fd3:	135242        	s16i	a4, a2, 38
    4fd6:	145242        	s16i	a4, a2, 40
    4fd9:	f01d           	retw.n

00004fdb <cali_module_short+0xef>:
    4fdb:	1552a2        	s16i	a10, a2, 42
    4fde:	fff306        	j	4fae <cali_module_short+0xc2>

00004fe1 <cali_module_short+0xf5>:
    4fe1:	13acb7        	bge	a12, a11, 4ff8 <cali_module_short+0x10c>
    4fe4:	e97c           	movi.n	a9, -2
    4fe6:	aa0b           	addi.n	a10, a10, -1
    4fe8:	53aa40        	max	a10, a10, a4
    4feb:	ffdd06        	j	4f63 <cali_module_short+0x77>

00004fee <cali_module_short+0x102>:
	...

00004ff0 <cali_module_short+0x104>:
    4ff0:	115242        	s16i	a4, a2, 34
    4ff3:	049d           	mov.n	a9, a4
    4ff5:	ffdc06        	j	4f69 <cali_module_short+0x7d>

00004ff8 <cali_module_short+0x10c>:
    4ff8:	c97c           	movi.n	a9, -4
    4ffa:	f9caa2        	addi	a10, a10, -7
    4ffd:	53aa40        	max	a10, a10, a4
    5000:	ffd7c6        	j	4f63 <cali_module_short+0x77>

00005003 <cali_module_short+0x117>:
	...

00005004 <LH_34_1_setup>:
    5004:	004136        	entry	a1, 32
    5007:	1348           	l32i.n	a4, a3, 4
    5009:	0338           	l32i.n	a3, a3, 0
    500b:	1a2426        	beqi	a4, 2, 5029 <LH_34_1_setup+0x25>
    500e:	0288           	l32i.n	a8, a2, 0
    5010:	8258           	l32i.n	a5, a2, 32
    5012:	316030        	srai	a6, a3, 16
    5015:	f8d662        	addmi	a6, a6, 0xfffff800
    5018:	a66d           	ae_clamps16	a6, a6
    501a:	116600        	slli	a6, a6, 16
    501d:	435560        	min	a5, a5, a6
    5020:	538860        	max	a8, a8, a6
    5023:	0289           	s32i.n	a8, a2, 0
    5025:	8259           	s32i.n	a5, a2, 32
    5027:	f01d           	retw.n

00005029 <LH_34_1_setup+0x25>:
    5029:	8288           	l32i.n	a8, a2, 32
    502b:	0298           	l32i.n	a9, a2, 0
    502d:	438830        	min	a8, a8, a3
    5030:	539930        	max	a9, a9, a3
    5033:	0299           	s32i.n	a9, a2, 0
    5035:	8289           	s32i.n	a8, a2, 32
    5037:	f01d           	retw.n

00005039 <LH_34_1_setup+0x35>:
    5039:	000000                                        ...

0000503c <cali_power>:
    503c:	008136        	entry	a1, 64
    503f:	ec0f81        	l32r	a8, 7c (ca94 <p_ecnr_mem>)
    5042:	002882        	l32i	a8, a8, 0
    5045:	1ad882        	addmi	a8, a8, 0x1a00
    5048:	189882        	l16si	a8, a8, 48
    504b:	0228e6        	bgei	a8, 2, 5051 <cali_power+0x15>
    504e:	008d06        	j	5286 <cali_power+0x24a>
    5051:	7293b2        	l16si	a11, a3, 228
    5054:	1c93a2        	l16si	a10, a3, 56
    5057:	300ab4        	ae_cvtp24a16x2.ll	aep0, a10, a11
    505a:	010044        	ae_mulfp24s.hh	aeq0, aep0, aep0
    505d:	d4e230149e 	{ l32i	a9, a4, 4; ae_mulfq32sp16s.l	aeq0, aeq0, aep0 }
    5062:	f863a6c3be 	{ l16si	a11, a3, 216; ae_roundsp16q48asym	aep0, aeq0 }
    5067:	0219e6        	bgei	a9, 1, 506d <cali_power+0x31>
    506a:	009fc6        	j	52ed <cali_power+0x2b1>
    506d:	560104        	ae_sp24x2s.i	aep0, a1, 0
    5070:	aa22a2        	l32i	a10, a2, 0x2a8
    5073:	a92292        	l32i	a9, a2, 0x2a4
    5076:	01cbb2        	addi	a11, a11, 1
    5079:	64b0b0        	extui	a11, a11, 0, 7
    507c:	6c53b2        	s16i	a11, a3, 216
    507f:	fc248fc99e 	{ addi	a9, a9, -4; ae_zeroq56	aeq0 }
    5084:	fd046d1a0f 	{ ae_lp16x2f.i	aep1, a10, 0; ae_movq56	aeq1, aeq0 }
    5089:	e2246db91f 	{ ae_lp16x2f.iu	aep3, a9, 4; ae_mulaafp24s.hh.ll	aeq1, aep1, aep1 }
    508e:	e26c2daa1f 	{ ae_lp16x2f.iu	aep2, a10, 4; ae_mulaafp24s.hh.ll	aeq0, aep3, aep3 }
    5093:	e2486d8a1f 	{ ae_lp16x2f.iu	aep0, a10, 4; ae_mulaafp24s.hh.ll	aeq1, aep2, aep2 }
    5098:	e2006df91f 	{ ae_lp16x2f.iu	aep7, a9, 4; ae_mulaafp24s.hh.ll	aeq1, aep0, aep0 }
    509d:	e2fc2de91f 	{ ae_lp16x2f.iu	aep6, a9, 4; ae_mulaafp24s.hh.ll	aeq0, aep7, aep7 }
    50a2:	e2d82dda1f 	{ ae_lp16x2f.iu	aep5, a10, 4; ae_mulaafp24s.hh.ll	aeq0, aep6, aep6 }
    50a7:	e2b46dca1f 	{ ae_lp16x2f.iu	aep4, a10, 4; ae_mulaafp24s.hh.ll	aeq1, aep5, aep5 }
    50ac:	e2906db91f 	{ ae_lp16x2f.iu	aep3, a9, 4; ae_mulaafp24s.hh.ll	aeq1, aep4, aep4 }
    50b1:	e26c2da91f 	{ ae_lp16x2f.iu	aep2, a9, 4; ae_mulaafp24s.hh.ll	aeq0, aep3, aep3 }
    50b6:	052204        	ae_mulaafp24s.hh.ll	aeq0, aep2, aep2
    50b9:	ec9a41        	l32r	a4, 324 (1000 <voiced_decision+0x3c>)
    50bc:	7393d2        	l16si	a13, a3, 230
    50bf:	ebf6e1        	l32r	a14, 98 (8000 <NR_vad2+0xe4>)
    50c2:	35d0b4        	ae_sraiq56	aeq3, aeq1, 2
    50c5:	01d3c2        	addmi	a12, a3, 0x100
    50c8:	3540b4        	ae_sraiq56	aeq1, aeq0, 2
    50cb:	20bcc0        	or	a11, a12, a12
    50ce:	c8cbb2        	addi	a11, a11, -56
    50d1:	c4ccc2        	addi	a12, a12, -60
    50d4:	600c04        	ae_lq32f.i	aeq0, a12, 0
    50d7:	fe3c55eedf 	{ sub	a14, a14, a13; ae_roundsq32asym	aeq2, aeq3 }
    50dc:	fd2c58cdef 	{ ae_cvtp24a16x2.ll	aep4, a13, a14; ae_roundsq32asym	aeq1, aeq1 }
    50e1:	0c923d6b0f 	{ ae_lq32f.i	aeq3, a11, 0; ae_mulzaafq32sp16s.lh	aeq0, aeq0, aep4, aeq2, aep4 }
    50e6:	c1ccd4        	ae_mulzaafq32sp16s.lh	aeq3, aeq3, aep4, aeq1, aep4
    50e9:	068934        	ae_roundsq32asym	aeq2, aeq0
    50ec:	fd3c79ac0f 	{ ae_sq32f.i	aeq2, a12, 0; ae_roundsq32asym	aeq1, aeq3 }
    50f1:	621b04        	ae_sq32f.i	aeq1, a11, 0
    50f4:	3123a2        	l32i	a10, a3, 196
    50f7:	3223b2        	l32i	a11, a3, 200
    50fa:	ec4881        	l32r	a8, 21c (8c40 <airoha_divide_limit_1>)
    50fd:	21a3a0        	srai	a10, a10, 3
    5100:	53b4b0        	max	a11, a4, a11
    5103:	0008e0        	callx8	a8
    5106:	00a022        	movi	a2, 0
    5109:	2123b2        	l32i	a11, a3, 132
    510c:	205aa0        	or	a5, a10, a10
    510f:	6c93d2        	l16si	a13, a3, 216
    5112:	2923a2        	l32i	a10, a3, 164
    5115:	53bb50        	max	a11, a11, a5
    5118:	2163b2        	s32i	a11, a3, 132
    511b:	43aa50        	min	a10, a10, a5
    511e:	2963a2        	s32i	a10, a3, 164
    5121:	050d56        	bnez	a13, 5175 <cali_power+0x139>
    5124:	ec9781        	l32r	a8, 380 (49b0 <take_max_four>)
    5127:	6d9372        	l16si	a7, a3, 218
    512a:	37faa4        	ae_truncp24a32x2	aep7, a10, a10
    512d:	378bb4        	ae_truncp24a32x2	aep0, a11, a11
    5130:	01d362        	addmi	a6, a3, 0x100
    5133:	0ca0b2        	movi	a11, 12
    5136:	88c6a2        	addi	a10, a6, -120
    5139:	fbe28a866e 	{ addi	a6, a6, -88; ae_roundsp16asym	aep6, aep0 }
    513e:	1197f0        	slli	a9, a7, 1
    5141:	fafee36a9f 	{ ae_sp16f.l.x	aep6, a10, a9; ae_roundsp16asym	aep5, aep7 }
    5146:	435694        	ae_sp16f.l.x	aep5, a6, a9
    5149:	0008e0        	callx8	a8
    514c:	2863a2        	s32i	a10, a3, 160
    514f:	ec8d81        	l32r	a8, 384 (4950 <take_min_four>)
    5152:	cb0c           	movi.n	a11, 12
    5154:	06ad           	mov.n	a10, a6
    5156:	0008e0        	callx8	a8
    5159:	971b           	addi.n	a9, a7, 1
    515b:	3063a2        	s32i	a10, a3, 192
    515e:	ab0c           	movi.n	a11, 10
    5160:	ec8ac1        	l32r	a12, 388 (3fff0000 <_end+0x3ffe3560>)
    5163:	ec8ad1        	l32r	a13, 38c (c0010000 <_end+0xc0003560>)
    5166:	2163d2        	s32i	a13, a3, 132
    5169:	2963c2        	s32i	a12, a3, 164
    516c:	72ab70        	salt	a10, a11, a7
    516f:	9392a0        	movnez	a9, a2, a10
    5172:	6d5392        	s16i	a9, a3, 218

00005175 <cali_power+0x139>:
    5175:	3223e2        	l32i	a14, a3, 200
    5178:	541104        	ae_lp24x2.i	aep1, a1, 0
    517b:	01d392        	addmi	a9, a3, 0x100
    517e:	3fa4e7        	bge	a4, a14, 51c1 <cali_power+0x185>
    5181:	360534        	ae_cvtq48a32s	aeq0, a5
    5184:	d4e64c09fe 	{ addi	a15, a9, -64; ae_mulfq32sp16s.l	aeq1, aeq0, aep1 }
    5189:	608f04        	ae_lq32f.i	aeq2, a15, 0
    518c:	d6c800cc6f 	{ movi	a6, 204; ae_ltq56s	b0, aeq2, aeq1 }
    5191:	d0a072        	movi	a7, 208
    5194:	ec7f41        	l32r	a4, 390 (c1a8 <immediate_num+0x38>)
    5197:	021076        	bt	b0, 519d <cali_power+0x161>
    519a:	003bc6        	j	528d <cali_power+0x251>
    519d:	ccc9c2        	addi	a12, a9, -52
    51a0:	d0c9d2        	addi	a13, a9, -48
    51a3:	447424        	ae_lp16x2f.i	aep7, a4, 8
    51a6:	440404        	ae_lp16x2f.i	aep0, a4, 0
    51a9:	fe2c7d6d0f 	{ ae_lq32f.i	aeq3, a13, 0; ae_roundsq32asym	aeq2, aeq1 }
    51ae:	0f017d2c0f 	{ ae_lq32f.i	aeq1, a12, 0; ae_mulzaafq32sp16s.lh	aeq3, aeq3, aep0, aeq0, aep0 }
    51b3:	c17f64        	ae_mulzaafq32sp16s.lh	aeq1, aeq1, aep7, aeq2, aep7
    51b6:	06b934        	ae_roundsq32asym	aeq2, aeq3
    51b9:	ff2c79ad0f 	{ ae_sq32f.i	aeq2, a13, 0; ae_roundsq32asym	aeq3, aeq1 }
    51be:	623c04        	ae_sq32f.i	aeq3, a12, 0

000051c1 <cali_power+0x185>:
    51c1:	3323c2        	l32i	a12, a3, 204
    51c4:	ec1681        	l32r	a8, 21c (8c40 <airoha_divide_limit_1>)
    51c7:	3423b2        	l32i	a11, a3, 208
    51ca:	c0a5c0        	sub	a10, a5, a12
    51cd:	21a1a0        	srai	a10, a10, 1
    51d0:	c0bbc0        	sub	a11, a11, a12
    51d3:	0008e0        	callx8	a8
    51d6:	31c0a0        	srai	a12, a10, 16
    51d9:	7693e2        	l16si	a14, a3, 236
    51dc:	01d3d2        	addmi	a13, a3, 0x100
    51df:	d4cdd2        	addi	a13, a13, -44
    51e2:	11be00        	slli	a11, a14, 16
    51e5:	322ab7        	blt	a10, a11, 521b <cali_power+0x1df>
    51e8:	749382        	l16si	a8, a3, 232
    51eb:	c0fce0        	sub	a15, a12, a14
    51ee:	301f84        	ae_cvtp24a16x2.ll	aep1, a15, a8
    51f1:	011144        	ae_mulfp24s.hh	aeq0, aep1, aep1
    51f4:	031214        	ae_mulfq32sp16s.l	aeq0, aeq0, aep1
    51f7:	36c3d4        	ae_sllisq56s	aeq3, aeq0, 15
    51fa:	fe3c7d2d0f 	{ ae_lq32f.i	aeq1, a13, 0; ae_roundsq32asym	aeq2, aeq3 }
    51ff:	35a174        	ae_sraiq56	aeq2, aeq2, 5
    5202:	015ac4        	ae_addq56	aeq1, aeq1, aeq2
    5205:	061934        	ae_roundsq32asym	aeq0, aeq1
    5208:	620d04        	ae_sq32f.i	aeq0, a13, 0
    520b:	7693b2        	l16si	a11, a3, 236
    520e:	6f5322        	s16i	a2, a3, 222
    5211:	352392        	l32i	a9, a3, 212
    5214:	11bb00        	slli	a11, a11, 16
    5217:	000b46        	j	5248 <cali_power+0x20c>

0000521a <cali_power+0x1de>:
	...

0000521b <cali_power+0x1df>:
    521b:	6f93e2        	l16si	a14, a3, 222
    521e:	7593f2        	l16si	a15, a3, 234
    5221:	882c           	movi.n	a8, 40
    5223:	ee1b           	addi.n	a14, a14, 1
    5225:	8eed           	ae_sext16	a14, a14
    5227:	43ee80        	min	a14, a14, a8
    522a:	6f53e2        	s16i	a14, a3, 222
    522d:	302ef4        	ae_cvtp24a16x2.ll	aep2, a14, a15
    5230:	012254        	ae_mulfp24s.hl	aeq0, aep2, aep2
    5233:	608d04        	ae_lq32f.i	aeq2, a13, 0
    5236:	36c294        	ae_sllisq56s	aeq3, aeq0, 10
    5239:	01afc4        	ae_subq56	aeq2, aeq2, aeq3
    523c:	066934        	ae_roundsq32asym	aeq1, aeq2
    523f:	369904        	ae_trunca32q48	a9, aeq1
    5242:	539920        	max	a9, a9, a2
    5245:	356392        	s32i	a9, a3, 212

00005248 <cali_power+0x20c>:
    5248:	ec3a81        	l32r	a8, 330 (40000000 <_end+0x3fff3560>)
    524b:	21f190        	srai	a15, a9, 1
    524e:	ff8a           	add.n	a15, a15, a8
    5250:	37baf4        	ae_truncp24a32x2	aep3, a10, a15
    5253:	013364        	ae_mulfp24s.lh	aeq0, aep3, aep3
    5256:	364b34        	ae_cvtq48a32s	aeq1, a11
    5259:	350054        	ae_slliq56	aeq0, aeq0, 1
    525c:	098514        	ae_leq56s	b1, aeq1, aeq0
    525f:	7d1176        	bt	b1, 52e0 <cali_power+0x2a4>
    5262:	779392        	l16si	a9, a3, 238
    5265:	119900        	slli	a9, a9, 16
    5268:	364934        	ae_cvtq48a32s	aeq1, a9
    526b:	099024        	ae_ltq56s	b2, aeq0, aeq1
    526e:	061276        	bt	b2, 5278 <cali_power+0x23c>
    5271:	7053c2        	s16i	a12, a3, 224
    5274:	f01d           	retw.n

00005276 <cali_power+0x23a>:
	...

00005278 <cali_power+0x23c>:
    5278:	6e93a2        	l16si	a10, a3, 220
    527b:	7053c2        	s16i	a12, a3, 224
    527e:	fccaa2        	addi	a10, a10, -4
    5281:	6e53a2        	s16i	a10, a3, 220
    5284:	f01d           	retw.n

00005286 <cali_power+0x24a>:
    5286:	0b0c           	movi.n	a11, 0
    5288:	7053b2        	s16i	a11, a3, 224
    528b:	f01d           	retw.n

0000528d <cali_power+0x251>:
    528d:	544104        	ae_lp24x2.i	aep4, a1, 0
    5290:	a0c9c2        	addi	a12, a9, -96
    5293:	608c04        	ae_lq32f.i	aeq2, a12, 0
    5296:	03c294        	ae_mulfq32sp16s.l	aeq2, aeq2, aep4
    5299:	09a034        	ae_ltq56s	b3, aeq0, aeq2
    529c:	630114        	ae_sq56s.i	aeq0, a1, 8
    529f:	021376        	bt	b3, 52a5 <cali_power+0x269>
    52a2:	ffc6c6        	j	51c1 <cali_power+0x185>
    52a5:	05ad           	mov.n	a10, a5
    52a7:	ebde81        	l32r	a8, 220 (8b28 <airoha_divide>)
    52aa:	545104        	ae_lp24x2.i	aep5, a1, 0
    52ad:	005bd4        	ae_cvta32p24.l	a11, aep5
    52b0:	0008e0        	callx8	a8
    52b3:	446404        	ae_lp16x2f.i	aep6, a4, 0
    52b6:	447414        	ae_lp16x2f.i	aep7, a4, 4
    52b9:	60a374        	ae_lq32f.x	aeq2, a3, a7
    52bc:	364b34        	ae_cvtq48a32s	aeq1, a11
    52bf:	fc24fe9a0f 	{ ae_slaasq56s	aeq0, aeq1, a10; nop }
    52c4:	ff247da11f 	{ ae_lq56.i	aeq1, a1, 8; ae_roundsq32asym	aeq3, aeq0 }
    52c9:	0ffebb936f 	{ ae_lq32f.x	aeq0, a3, a6; ae_mulzaafq32sp16s.lh	aeq2, aeq2, aep7, aeq3, aep7 }
    52ce:	c16614        	ae_mulzaafq32sp16s.lh	aeq0, aeq0, aep6, aeq1, aep6
    52d1:	066934        	ae_roundsq32asym	aeq1, aeq2
    52d4:	ff2478537f 	{ ae_sq32f.x	aeq1, a3, a7; ae_roundsq32asym	aeq3, aeq0 }
    52d9:	62b364        	ae_sq32f.x	aeq3, a3, a6
    52dc:	ffb846        	j	51c1 <cali_power+0x185>

000052df <cali_power+0x2a3>:
	...

000052e0 <cali_power+0x2a4>:
    52e0:	6e9392        	l16si	a9, a3, 220
    52e3:	7053c2        	s16i	a12, a3, 224
    52e6:	994b           	addi.n	a9, a9, 4
    52e8:	6e5392        	s16i	a9, a3, 220
    52eb:	f01d           	retw.n

000052ed <cali_power+0x2b1>:
    52ed:	0a0c           	movi.n	a10, 0
    52ef:	7053a2        	s16i	a10, a3, 224
    52f2:	f01d           	retw.n

000052f4 <mag_calibration>:
    52f4:	004136        	entry	a1, 32
    52f7:	ec27c1        	l32r	a12, 394 (c198 <immediate_num+0x28>)
    52fa:	01d2b2        	addmi	a11, a2, 0x100
    52fd:	4cc2d2        	addi	a13, a2, 76
    5300:	604d04        	ae_lq32f.i	aeq1, a13, 0
    5303:	601b94        	ae_lq32f.iu	aeq0, a11, -28
    5306:	440c04        	ae_lp16x2f.i	aep0, a12, 0
    5309:	c10014        	ae_mulzaafq32sp16s.lh	aeq0, aeq0, aep0, aeq1, aep0
    530c:	01d292        	addmi	a9, a2, 0x100
    530f:	ff244502ae 	{ addi	a10, a2, 80; ae_roundsq32asym	aeq3, aeq0 }
    5314:	623b04        	ae_sq32f.i	aeq3, a11, 0
    5317:	608a04        	ae_lq32f.i	aeq2, a10, 0
    531a:	6059a4        	ae_lq32f.iu	aeq1, a9, -24
    531d:	c10864        	ae_mulzaafq32sp16s.lh	aeq1, aeq1, aep0, aeq2, aep0
    5320:	ec0181        	l32r	a8, 324 (1000 <voiced_decision+0x3c>)
    5323:	061934        	ae_roundsq32asym	aeq0, aeq1
    5326:	620904        	ae_sq32f.i	aeq0, a9, 0
    5329:	3922b2        	l32i	a11, a2, 228
    532c:	40a8b7        	bge	a8, a11, 5370 <mag_calibration+0x7c>
    532f:	3a22a2        	l32i	a10, a2, 232
    5332:	ebba81        	l32r	a8, 21c (8c40 <airoha_divide_limit_1>)
    5335:	21a2a0        	srai	a10, a10, 2
    5338:	0008e0        	callx8	a8
    533b:	37aaa4        	ae_truncp24a32x2	aep2, a10, a10
    533e:	02d2c2        	addmi	a12, a2, 0x200
    5341:	f8eac8acce 	{ addi	a12, a12, -118; ae_roundsp16asym	aep1, aep2 }
    5346:	421c04        	ae_sp16f.l.i	aep1, a12, 0
    5349:	6a92b2        	l16si	a11, a2, 212
    534c:	bb1b           	addi.n	a11, a11, 1
    534e:	8bbd           	ae_sext16	a11, a11
    5350:	6a52b2        	s16i	a11, a2, 212
    5353:	1bcb26        	beqi	a11, 32, 5372 <mag_calibration+0x7e>
    5356:	c592e2        	l16si	a14, a2, 0x18a
    5359:	4322d2        	l32i	a13, a2, 0x10c
    535c:	3b22f2        	l32i	a15, a2, 236
    535f:	11ee00        	slli	a14, a14, 16
    5362:	43dde0        	min	a13, a13, a14
    5365:	53ffe0        	max	a15, a15, a14
    5368:	3b62f2        	s32i	a15, a2, 236
    536b:	4362d2        	s32i	a13, a2, 0x10c
    536e:	f01d           	retw.n

00005370 <mag_calibration+0x7c>:
    5370:	f01d           	retw.n

00005372 <mag_calibration+0x7e>:
    5372:	cb0c           	movi.n	a11, 12
    5374:	ec0381        	l32r	a8, 380 (49b0 <take_max_four>)
    5377:	3b2292        	l32i	a9, a2, 236
    537a:	7192a2        	l16si	a10, a2, 226
    537d:	040c           	movi.n	a4, 0
    537f:	6a5242        	s16i	a4, a2, 212
    5382:	90aa20        	addx2	a10, a10, a2
    5385:	319090        	srai	a9, a9, 16
    5388:	785a92        	s16i	a9, a10, 240
    538b:	01d2a2        	addmi	a10, a2, 0x100
    538e:	f0caa2        	addi	a10, a10, -16
    5391:	0008e0        	callx8	a8
    5394:	ebfc81        	l32r	a8, 384 (4950 <take_min_four>)
    5397:	432292        	l32i	a9, a2, 0x10c
    539a:	20baa0        	or	a11, a10, a10
    539d:	4262b2        	s32i	a11, a2, 0x108
    53a0:	7192a2        	l16si	a10, a2, 226
    53a3:	0ca0b2        	movi	a11, 12
    53a6:	319090        	srai	a9, a9, 16
    53a9:	90aa20        	addx2	a10, a10, a2
    53ac:	885a92        	s16i	a9, a10, 0x110
    53af:	01d2a2        	addmi	a10, a2, 0x100
    53b2:	10caa2        	addi	a10, a10, 16
    53b5:	0008e0        	callx8	a8
    53b8:	4a62a2        	s32i	a10, a2, 0x128
    53bb:	01d2a2        	addmi	a10, a2, 0x100
    53be:	e0ca32        	addi	a3, a10, -32
    53c1:	404304        	ae_lp16f.i	aep4, a3, 0
    53c4:	01c474        	ae_mulfp24s.ll	aeq2, aep4, aep4
    53c7:	0add           	mov.n	a13, a10
    53c9:	f973fd5d2f 	{ ae_lq32f.iu	aeq2, a13, 8; ae_roundsp16q48asym	aep3, aeq2 }
    53ce:	d6ee028ace 	{ addi	a12, a10, 40; ae_mulfq32sp16s.l	aeq0, aeq2, aep3 }
    53d3:	604c04        	ae_lq32f.i	aeq1, a12, 0
    53d6:	098104        	ae_ltq56s	b0, aeq1, aeq0
    53d9:	ebefe1        	l32r	a14, 398 (6ccd <two_mic_WB_NR_NSN_proc+0x25>)
    53dc:	305ee4        	ae_cvtp24a16x2.ll	aep5, a14, a14
    53df:	220076        	bf	b0, 5405 <mag_calibration+0x111>
    53e2:	06c934        	ae_roundsq32asym	aeq3, aeq0
    53e5:	03dad4        	ae_mulfq32sp16s.l	aeq3, aeq3, aep5
    53e8:	f03d           	nop.n
    53ea:	099314        	ae_ltq56s	b1, aeq3, aeq1
    53ed:	140176        	bf	b1, 5405 <mag_calibration+0x111>
    53f0:	ebeb81        	l32r	a8, 39c (c19c <immediate_num+0x2c>)
    53f3:	dccaf2        	addi	a15, a10, -36
    53f6:	604f04        	ae_lq32f.i	aeq1, a15, 0
    53f9:	446804        	ae_lp16x2f.i	aep6, a8, 0
    53fc:	c16e64        	ae_mulzaafq32sp16s.lh	aeq1, aeq1, aep6, aeq2, aep6
    53ff:	061934        	ae_roundsq32asym	aeq0, aeq1
    5402:	620f04        	ae_sq32f.i	aeq0, a15, 0
    5405:	eb1c81        	l32r	a8, 78 (808 <HIFI_sqrt>)
    5408:	0a0c           	movi.n	a10, 0
    540a:	3722b2        	l32i	a11, a2, 220
    540d:	0008e0        	callx8	a8
    5410:	360b34        	ae_cvtq48a32s	aeq0, a11
    5413:	fc24fe8acf 	{ ae_slaasq56s	aeq3, aeq0, a10; nop }
    5418:	fe3c6c030f 	{ ae_lp16f.i	aep0, a3, 0; ae_roundsq32asym	aeq2, aeq3 }
    541d:	038294        	ae_mulfq32sp16s.l	aeq2, aeq2, aep0
    5420:	fb73c542ae 	{ addi	a10, a2, 84; ae_roundsp16q48asym	aep7, aeq2 }
    5425:	427a04        	ae_sp16f.l.i	aep7, a10, 0
    5428:	719292        	l16si	a9, a2, 226
    542b:	c592a2        	l16si	a10, a2, 0x18a
    542e:	991b           	addi.n	a9, a9, 1
    5430:	11aa00        	slli	a10, a10, 16
    5433:	3b62a2        	s32i	a10, a2, 236
    5436:	4362a2        	s32i	a10, a2, 0x10c
    5439:	899d           	ae_sext16	a9, a9
    543b:	715292        	s16i	a9, a2, 226
    543e:	02a9e6        	bgei	a9, 12, 5444 <mag_calibration+0x150>
    5441:	ffcac6        	j	5370 <mag_calibration+0x7c>
    5444:	715242        	s16i	a4, a2, 226
    5447:	f01d           	retw.n

00005449 <mag_calibration+0x155>:
    5449:	000000                                        ...

0000544c <beam1_proc>:
    544c:	00a136        	entry	a1, 80
    544f:	4139           	s32i.n	a3, a1, 16
    5451:	1b0c           	movi.n	a11, 1
    5453:	0179           	s32i.n	a7, a1, 0
    5455:	fc2491464f 	{ addx2	a4, a6, a4; ae_zeroq56	aeq0 }
    545a:	1166f0        	slli	a6, a6, 1
    545d:	630144        	ae_sq56s.i	aeq0, a1, 32
    5460:	0215e6        	bgei	a5, 1, 5466 <beam1_proc+0x1a>
    5463:	006386        	j	55f5 <beam1_proc+0x1a9>
    5466:	048d           	mov.n	a8, a4
    5468:	440404        	ae_lp16x2f.i	aep0, a4, 0
    546b:	610144        	ae_lq56.i	aeq0, a1, 32
    546e:	9a1c           	movi.n	a10, 25
    5470:	591c           	movi.n	a9, 21
    5472:	2c0c           	movi.n	a12, 2
    5474:	72cc50        	salt	a12, a12, a5
    5477:	939ac0        	movnez	a9, a10, a12
    547a:	e2002dc81f 	{ ae_lp16x2f.iu	aep4, a8, 4; ae_mulaafp24s.hh.ll	aeq0, aep0, aep0 }
    547f:	e2902db81f 	{ ae_lp16x2f.iu	aep3, a8, 4; ae_mulaafp24s.hh.ll	aeq0, aep4, aep4 }
    5484:	e26c2da81f 	{ ae_lp16x2f.iu	aep2, a8, 4; ae_mulaafp24s.hh.ll	aeq0, aep3, aep3 }
    5489:	e2482d981f 	{ ae_lp16x2f.iu	aep1, a8, 4; ae_mulaafp24s.hh.ll	aeq0, aep2, aep2 }
    548e:	051104        	ae_mulaafp24s.hh.ll	aeq0, aep1, aep1
    5491:	401900        	ssl	a9
    5494:	3580b4        	ae_sraiq56	aeq2, aeq0, 2
    5497:	066934        	ae_roundsq32asym	aeq1, aeq2
    549a:	369904        	ae_trunca32q48	a9, aeq1
    549d:	eb6081        	l32r	a8, 220 (8b28 <airoha_divide>)
    54a0:	a1ab00        	sll	a10, a11
    54a3:	09bd           	mov.n	a11, a9
    54a5:	0008e0        	callx8	a8
    54a8:	0b7d           	mov.n	a7, a11
    54aa:	0a3d           	mov.n	a3, a10

000054ac <beam1_proc+0x60>:
    54ac:	fec442        	addi	a4, a4, -2
    54af:	41d8           	l32i.n	a13, a1, 16
    54b1:	0a0c           	movi.n	a10, 0
    54b3:	6c92b2        	l16si	a11, a2, 216
    54b6:	3d88           	l32i.n	a8, a13, 12
    54b8:	1df8           	l32i.n	a15, a13, 4
    54ba:	24cd92        	addi	a9, a13, 36
    54bd:	10cdc2        	addi	a12, a13, 16
    54c0:	21c9           	s32i.n	a12, a1, 8
    54c2:	3199           	s32i.n	a9, a1, 12
    54c4:	f3f790        	wur.ae_cend0	a9
    54c7:	403c04        	ae_lp16f.i	aep3, a12, 0
    54ca:	ff6a           	add.n	a15, a15, a6
    54cc:	fecff2        	addi	a15, a15, -2
    54cf:	14cdd2        	addi	a13, a13, 20
    54d2:	11d9           	s32i.n	a13, a1, 4
    54d4:	f3f6d0        	wur.ae_cbegin0	a13
    54d7:	0fed           	mov.n	a14, a15
    54d9:	061ba6        	blti	a11, 1, 54e3 <beam1_proc+0x97>
    54dc:	01c8           	l32i.n	a12, a1, 0
    54de:	1b0c           	movi.n	a11, 1
    54e0:	93abc0        	movnez	a10, a11, a12
    54e3:	8b0c           	movi.n	a11, 8
    54e5:	0460a0        	extui	a6, a10, 0, 1
    54e8:	18c2d2        	addi	a13, a2, 24
    54eb:	51d9           	s32i.n	a13, a1, 20
    54ed:	6169           	s32i.n	a6, a1, 24
    54ef:	0d0c           	movi.n	a13, 0
    54f1:	fc6c00026f 	{ movi	a6, 2; ae_cvtq48p24s.l	aeq0, aep3 }

000054f6 <beam1_proc+0xaa>:
    54f6:	61a8           	l32i.n	a10, a1, 24
    54f8:	40d414        	ae_lp16f.iu	aep5, a4, 2
    54fb:	fc24e2d86f 	{ ae_sp16f.l.c	aep5, a8, a6; nop }
    5500:	401904        	ae_lp16f.i	aep1, a9, 0
    5503:	f03d           	nop.n
    5505:	098b76        	loop	a11, 5512 <beam1_proc+0xc6>
    5508:	fc24d9086f 	{ ae_lp16f.c	aep0, a8, a6; nop }
    550d:	ee05ac991f 	{ ae_lp16f.iu	aep1, a9, 2; ae_mulsfp24s.ll	aeq0, aep1, aep0 }

00005512 <beam1_proc+0xc6>:
    5512:	f863ecbf1f 	{ ae_lp16f.iu	aep3, a15, 2; ae_roundsp16q48asym	aep1, aeq0 }
    5517:	f8668f099e 	{ addi	a9, a9, -16; ae_movp48	aep0, aep1 }
    551c:	3aac           	beqz.n	a10, 5543 <beam1_proc+0xf7>
    551e:	51b8           	l32i.n	a11, a1, 20
    5520:	406214        	ae_lp16f.i	aep6, a2, 2
    5523:	400204        	ae_lp16f.i	aep0, a2, 0
    5526:	ea21ac722f 	{ ae_lp16f.i	aep7, a2, 4; ae_mulfp24s.ll	aeq0, aep0, aep1 }
    552b:	608274        	ae_lq32f.i	aeq2, a2, 28
    552e:	350094        	ae_slliq56	aeq0, aeq0, 2
    5531:	f69ebd226f 	{ ae_lq32f.i	aeq1, a2, 24; ae_mulafq32sp16s.l	aeq0, aeq2, aep7 }
    5536:	036054        	ae_mulafq32sp16s.l	aeq0, aeq1, aep6
    5539:	ff24799b1f 	{ ae_sq32f.i	aeq1, a11, 4; ae_roundsq32asym	aeq3, aeq0 }
    553e:	f87bb9bb0f 	{ ae_sq32f.i	aeq3, a11, 0; ae_roundsp16q48asym	aep0, aeq3 }

00005543 <beam1_proc+0xf7>:
    5543:	428e14        	ae_sp16f.l.iu	aep0, a14, 2
    5546:	2b15a6        	blti	a5, 1, 5575 <beam1_proc+0x129>
    5549:	28ed07        	bbsi	a13, 0, 5575 <beam1_proc+0x129>
    554c:	368734        	ae_cvtq48a32s	aeq2, a7
    554f:	039294        	ae_mulfq32sp16s.l	aeq2, aeq2, aep1
    5552:	400904        	ae_lp16f.i	aep0, a9, 0
    5555:	fc24fea34f 	{ ae_slaasq56s	aeq1, aeq2, a3; nop }
    555a:	f96f8008bf 	{ movi	a11, 8; ae_roundsp24q48asym	aep2, aeq1 }
    555f:	0f8b76        	loop	a11, 5572 <beam1_proc+0x126>
    5562:	fc0c19086f 	{ ae_lp16f.c	aep0, a8, a6; ae_cvtq48p24s.l	aeq0, aep0 }
    5567:	e20bac891f 	{ ae_lp16f.iu	aep0, a9, 2; ae_mulafp24s.ll	aeq0, aep2, aep0 }
    556c:	1b8f14        	ae_roundsp16q48asym	aep1, aeq0
    556f:	4219f4        	ae_sp16f.l.i	aep1, a9, -2

00005572 <beam1_proc+0x126>:
    5572:	f0c992        	addi	a9, a9, -16
    5575:	8b0c           	movi.n	a11, 8
    5577:	dd1b           	addi.n	a13, a13, 1
    5579:	fc6c0f6dce 	{ addi	a12, a13, -10; ae_cvtq48p24s.l	aeq0, aep3 }
    557e:	f74c56        	bnez	a12, 54f6 <beam1_proc+0xaa>
    5581:	3198           	l32i.n	a9, a1, 12
    5583:	41f8           	l32i.n	a15, a1, 16
    5585:	21e8           	l32i.n	a14, a1, 8
    5587:	11d8           	l32i.n	a13, a1, 4
    5589:	3f89           	s32i.n	a8, a15, 12
    558b:	423e04        	ae_sp16f.l.i	aep3, a14, 0
    558e:	440d44        	ae_lp16x2f.i	aep0, a13, 16
    5591:	610144        	ae_lq56.i	aeq0, a1, 32
    5594:	e2002db91f 	{ ae_lp16x2f.iu	aep3, a9, 4; ae_mulaafp24s.hh.ll	aeq0, aep0, aep0 }
    5599:	e26c2da91f 	{ ae_lp16x2f.iu	aep2, a9, 4; ae_mulaafp24s.hh.ll	aeq0, aep3, aep3 }
    559e:	e2482d991f 	{ ae_lp16x2f.iu	aep1, a9, 4; ae_mulaafp24s.hh.ll	aeq0, aep2, aep2 }
    55a3:	051104        	ae_mulaafp24s.hh.ll	aeq0, aep1, aep1
    55a6:	1b8f44        	ae_roundsp16q48asym	aep4, aeq0
    55a9:	364924        	ae_trunca16p24s.l	a9, aep4
    55ac:	069282        	l16si	a8, a2, 12
    55af:	095f92        	s16i	a9, a15, 18
    55b2:	899d           	ae_sext16	a9, a9
    55b4:	3ba897        	bge	a8, a9, 55f3 <beam1_proc+0x1a7>
    55b7:	3188           	l32i.n	a8, a1, 12
    55b9:	290c           	movi.n	a9, 2
    55bb:	eb79b1        	l32r	a11, 3a0 (7efa <NR_vad1+0x156>)
    55be:	34cfc2        	addi	a12, a15, 52
    55c1:	400c84        	ae_lp16f.i	aep0, a12, -16
    55c4:	303bb4        	ae_cvtp24a16x2.ll	aep3, a11, a11
    55c7:	288976        	loop	a9, 55f3 <beam1_proc+0x1a7>

000055ca <beam1_proc+0x17e>:
    55ca:	ea0dac081f 	{ ae_lp16f.i	aep0, a8, 2; ae_mulfp24s.ll	aeq0, aep3, aep0 }
    55cf:	ea0dec082f 	{ ae_lp16f.i	aep0, a8, 4; ae_mulfp24s.ll	aeq1, aep3, aep0 }
    55d4:	f863ec283f 	{ ae_lp16f.i	aep2, a8, 6; ae_roundsp16q48asym	aep1, aeq0 }
    55d9:	ea0dac884f 	{ ae_lp16f.iu	aep0, a8, 8; ae_mulfp24s.ll	aeq0, aep3, aep0 }
    55de:	eb4db218cf 	{ ae_sp16f.l.i	aep1, a8, -8; ae_mulfp24s.ll	aeq2, aep3, aep2 }
    55e3:	1b9f24        	ae_roundsp16q48asym	aep2, aeq1
    55e6:	f963b228df 	{ ae_sp16f.l.i	aep2, a8, -6; ae_roundsp16q48asym	aep2, aeq0 }
    55eb:	f973b228ef 	{ ae_sp16f.l.i	aep2, a8, -4; ae_roundsp16q48asym	aep2, aeq2 }
    55f0:	4228f4        	ae_sp16f.l.i	aep2, a8, -2

000055f3 <beam1_proc+0x1a7>:
    55f3:	f01d           	retw.n

000055f5 <beam1_proc+0x1a9>:
    55f5:	ffacc6        	j	54ac <beam1_proc+0x60>

000055f8 <beam2_proc>:
    55f8:	00e136        	entry	a1, 112
    55fb:	d129           	s32i.n	a2, a1, 52
    55fd:	1d2182        	l32i	a8, a1, 116
    5600:	78c1e2        	addi	a14, a1, 120
    5603:	06ad           	mov.n	a10, a6
    5605:	fec6b2        	addi	a11, a6, -2
    5608:	b179           	s32i.n	a7, a1, 44
    560a:	9159           	s32i.n	a5, a1, 36
    560c:	c139           	s32i.n	a3, a1, 48
    560e:	035d           	mov.n	a5, a3
    5610:	d338           	l32i.n	a3, a3, 52
    5612:	1598           	l32i.n	a9, a5, 4
    5614:	f5c8           	l32i.n	a12, a5, 60
    5616:	0578           	l32i.n	a7, a5, 0
    5618:	1d95d2        	l16si	a13, a5, 58
    561b:	38c5f2        	addi	a15, a5, 56
    561e:	41f9           	s32i.n	a15, a1, 16
    5620:	400f04        	ae_lp16f.i	aep0, a15, 0
    5623:	7cc562        	addi	a6, a5, 124
    5626:	5169           	s32i.n	a6, a1, 20
    5628:	f3f760        	wur.ae_cend0	a6
    562b:	560e94        	ae_sp24x2s.i	aep0, a14, -56
    562e:	11dd10        	slli	a13, a13, 15
    5631:	907870        	addx2	a7, a8, a7
    5634:	fec772        	addi	a7, a7, -2
    5637:	72ccd0        	salt	a12, a12, a13
    563a:	6cc552        	addi	a5, a5, 108
    563d:	93abc0        	movnez	a10, a11, a12
    5640:	f3f650        	wur.ae_cbegin0	a5
    5643:	905840        	addx2	a5, a8, a4
    5646:	908890        	addx2	a8, a8, a9
    5649:	fec882        	addi	a8, a8, -2
    564c:	e189           	s32i.n	a8, a1, 56
    564e:	9188           	l32i.n	a8, a1, 36
    5650:	0761a2        	s32i	a10, a1, 28
    5653:	fec552        	addi	a5, a5, -2
    5656:	0218e6        	bgei	a8, 1, 565c <beam2_proc+0x64>
    5659:	00a006        	j	58dd <beam2_proc+0x2e5>

0000565c <beam2_proc+0x64>:
    565c:	090c           	movi.n	a9, 0
    565e:	a199           	s32i.n	a9, a1, 40

00005660 <beam2_proc+0x68>:
    5660:	71f8           	l32i.n	a15, a1, 28
    5662:	c198           	l32i.n	a9, a1, 48
    5664:	facf22        	addi	a2, a15, -6
    5667:	f8cf42        	addi	a4, a15, -8
    566a:	fecfa2        	addi	a10, a15, -2
    566d:	fccf82        	addi	a8, a15, -4
    5670:	40c992        	addi	a9, a9, 64
    5673:	8199           	s32i.n	a9, a1, 32
    5675:	6189           	s32i.n	a8, a1, 24
    5677:	01a9           	s32i.n	a10, a1, 0
    5679:	2149           	s32i.n	a4, a1, 8
    567b:	1129           	s32i.n	a2, a1, 4
    567d:	040c           	movi.n	a4, 0
    567f:	220c           	movi.n	a2, 2
    5681:	fc248781ae 	{ addi	a10, a1, 120; ae_zeroq56	aeq0 }
    5686:	630aa4        	ae_sq56s.i	aeq0, a10, -48
    5689:	fbcff2        	addi	a15, a15, -5
    568c:	31f9           	s32i.n	a15, a1, 12
    568e:	001246        	j	56db <beam2_proc+0xe3>

00005691 <beam2_proc+0x99>:
	...

00005692 <beam2_proc+0x9a>:
    5692:	401900        	ssl	a9
    5695:	eae281        	l32r	a8, 220 (8b28 <airoha_divide>)
    5698:	1a0c           	movi.n	a10, 1
    569a:	a1aa00        	sll	a10, a10
    569d:	0008e0        	callx8	a8
    56a0:	0bdd           	mov.n	a13, a11
    56a2:	0aed           	mov.n	a14, a10

000056a4 <beam2_proc+0xac>:
    56a4:	401704        	ae_lp16f.i	aep1, a7, 0
    56a7:	368d34        	ae_cvtq48a32s	aeq2, a13
    56aa:	039294        	ae_mulfq32sp16s.l	aeq2, aeq2, aep1
    56ad:	400604        	ae_lp16f.i	aep0, a6, 0
    56b0:	fc24feae4f 	{ ae_slaasq56s	aeq1, aeq2, a14; nop }
    56b5:	f96f8008bf 	{ movi	a11, 8; ae_roundsp24q48asym	aep2, aeq1 }
    56ba:	0020f0        	nop
    56bd:	0f8b76        	loop	a11, 56d0 <beam2_proc+0xd8>
    56c0:	fc0c19032f 	{ ae_lp16f.c	aep0, a3, a2; ae_cvtq48p24s.l	aeq0, aep0 }
    56c5:	e20bac861f 	{ ae_lp16f.iu	aep0, a6, 2; ae_mulafp24s.ll	aeq0, aep2, aep0 }
    56ca:	1b8f14        	ae_roundsp16q48asym	aep1, aeq0
    56cd:	4216f4        	ae_sp16f.l.i	aep1, a6, -2

000056d0 <beam2_proc+0xd8>:
    56d0:	f0c662        	addi	a6, a6, -16

000056d3 <beam2_proc+0xdb>:
    56d3:	441b           	addi.n	a4, a4, 1
    56d5:	f6c4b2        	addi	a11, a4, -10
    56d8:	0e5b16        	beqz	a11, 57c1 <beam2_proc+0x1c9>

000056db <beam2_proc+0xe3>:
    56db:	e1f8           	l32i.n	a15, a1, 56
    56dd:	8b0c           	movi.n	a11, 8
    56df:	d1c8           	l32i.n	a12, a1, 52
    56e1:	40af14        	ae_lp16f.iu	aep2, a15, 2
    56e4:	fc24e2a32f 	{ ae_sp16f.l.c	aep2, a3, a2; nop }
    56e9:	6c9cc2        	l16si	a12, a12, 216
    56ec:	78c182        	addi	a8, a1, 120
    56ef:	e1f9           	s32i.n	a15, a1, 56
    56f1:	1ccc16        	beqz	a12, 58c1 <beam2_proc+0x2c9>
    56f4:	401604        	ae_lp16f.i	aep1, a6, 0
    56f7:	6108a4        	ae_lq56.i	aeq0, a8, -48
    56fa:	78c1a2        	addi	a10, a1, 120
    56fd:	b188           	l32i.n	a8, a1, 44
    56ff:	098b76        	loop	a11, 570c <beam2_proc+0x114>
    5702:	fc24d9032f 	{ ae_lp16f.c	aep0, a3, a2; nop }
    5707:	e207ac961f 	{ ae_lp16f.iu	aep1, a6, 2; ae_mulafp24s.ll	aeq0, aep1, aep0 }

0000570c <beam2_proc+0x114>:
    570c:	f967f00a9f 	{ ae_lp24x2.i	aep0, a10, -56; ae_roundsp24q48asym	aep3, aeq0 }
    5711:	ff0c18c88f 	{ ae_cvtp24a16x2.ll	aep4, a8, a8; ae_cvtq48p24s.l	aeq3, aep0 }
    5716:	f18e6cd51f 	{ ae_lp16f.iu	aep5, a5, 2; ae_mulssfp24s.hh.ll	aeq3, aep3, aep4 }
    571b:	78c1c2        	addi	a12, a1, 120
    571e:	f97bbf096f 	{ ae_trunca16p24s.l	a9, aep0; ae_roundsp16q48asym	aep2, aeq3 }
    5723:	362a24        	ae_trunca16p24s.l	a10, aep2
    5726:	f0c662        	addi	a6, a6, -16
    5729:	609190        	abs	a9, a9
    572c:	60a1a0        	abs	a10, a10
    572f:	7299a0        	salt	a9, a9, a10
    5732:	085916        	beqz	a9, 57bb <beam2_proc+0x1c3>

00005735 <beam2_proc+0x13d>:
    5735:	a1b8           	l32i.n	a11, a1, 40
    5737:	565c94        	ae_sp24x2s.i	aep5, a12, -56
    573a:	428714        	ae_sp16f.l.iu	aep0, a7, 2
    573d:	f92b16        	beqz	a11, 56d3 <beam2_proc+0xdb>
    5740:	448c           	beqz.n	a4, 5748 <beam2_proc+0x150>
    5742:	fbc4f2        	addi	a15, a4, -5
    5745:	f5bf56        	bnez	a15, 56a4 <beam2_proc+0xac>

00005748 <beam2_proc+0x150>:
    5748:	78c182        	addi	a8, a1, 120
    574b:	fc24d9032f 	{ ae_lp16f.c	aep0, a3, a2; nop }
    5750:	fc24d9732f 	{ ae_lp16f.c	aep7, a3, a2; nop }
    5755:	fc24d9632f 	{ ae_lp16f.c	aep6, a3, a2; nop }
    575a:	fc24d9032f 	{ ae_lp16f.c	aep0, a3, a2; nop }
    575f:	6148a4        	ae_lq56.i	aeq1, a8, -48
    5762:	fc24d9332f 	{ ae_lp16f.c	aep3, a3, a2; nop }
    5767:	010834        	ae_mulafp24s.ll	aeq1, aep0, aep0
    576a:	e26fd9232f 	{ ae_lp16f.c	aep2, a3, a2; ae_mulafp24s.ll	aeq1, aep3, aep3 }
    576f:	e24bd9132f 	{ ae_lp16f.c	aep1, a3, a2; ae_mulafp24s.ll	aeq1, aep2, aep2 }
    5774:	e227d9032f 	{ ae_lp16f.c	aep0, a3, a2; ae_mulafp24s.ll	aeq1, aep1, aep1 }
    5779:	e203f081ae 	{ l32i	a10, a1, 32; ae_mulafp24s.ll	aeq1, aep0, aep0 }
    577e:	d198           	l32i.n	a9, a1, 52
    5780:	3510b4        	ae_sraiq56	aeq0, aeq1, 2
    5783:	ff247d4a0f 	{ ae_lq32f.i	aeq2, a10, 0; ae_roundsq32asym	aeq3, aeq0 }
    5788:	623a04        	ae_sq32f.i	aeq3, a10, 0
    578b:	fa7230c1ae 	{ l32i	a10, a1, 48; ae_addq56	aeq2, aeq2, aeq0 }
    5790:	fc3466699e 	{ l16si	a9, a9, 204; ae_roundsq32asym	aeq0, aeq2 }
    5795:	368b04        	ae_trunca32q48	a11, aeq0
    5798:	116ab2        	s32i	a11, a10, 68
    579b:	0219e6        	bgei	a9, 1, 57a1 <beam2_proc+0x1a9>
    579e:	0044c6        	j	58b5 <beam2_proc+0x2bd>
    57a1:	eb00c1        	l32r	a12, 3a4 (fff <voiced_decision+0x3b>)
    57a4:	6198           	l32i.n	a9, a1, 24
    57a6:	91e8           	l32i.n	a14, a1, 36
    57a8:	022cb7        	blt	a12, a11, 57ae <beam2_proc+0x1b6>
    57ab:	ffb8c6        	j	5692 <beam2_proc+0x9a>
    57ae:	dd7c           	movi.n	a13, -3
    57b0:	02ade7        	bge	a13, a14, 57b6 <beam2_proc+0x1be>
    57b3:	003d06        	j	58ab <beam2_proc+0x2b3>
    57b6:	3198           	l32i.n	a9, a1, 12
    57b8:	ffb586        	j	5692 <beam2_proc+0x9a>

000057bb <beam2_proc+0x1c3>:
    57bb:	092484        	ae_movp48	aep0, aep2
    57be:	ffdcc6        	j	5735 <beam2_proc+0x13d>

000057c1 <beam2_proc+0x1c9>:
    57c1:	4188           	l32i.n	a8, a1, 16
    57c3:	78c192        	addi	a9, a1, 120
    57c6:	c148           	l32i.n	a4, a1, 48
    57c8:	544994        	ae_lp24x2.i	aep4, a9, -56
    57cb:	5198           	l32i.n	a9, a1, 20
    57cd:	d439           	s32i.n	a3, a4, 52
    57cf:	424804        	ae_sp16f.l.i	aep4, a8, 0
    57d2:	01d442        	addmi	a4, a4, 0x100
    57d5:	80c442        	addi	a4, a4, -128
    57d8:	4404f4        	ae_lp16x2f.i	aep0, a4, -4
    57db:	78c1a2        	addi	a10, a1, 120
    57de:	614aa4        	ae_lq56.i	aeq1, a10, -48
    57e1:	e2006df91f 	{ ae_lp16x2f.iu	aep7, a9, 4; ae_mulaafp24s.hh.ll	aeq1, aep0, aep0 }
    57e6:	e2fc6de91f 	{ ae_lp16x2f.iu	aep6, a9, 4; ae_mulaafp24s.hh.ll	aeq1, aep7, aep7 }
    57eb:	e2d86dd91f 	{ ae_lp16x2f.iu	aep5, a9, 4; ae_mulaafp24s.hh.ll	aeq1, aep6, aep6 }
    57f0:	055d04        	ae_mulaafp24s.hh.ll	aeq1, aep5, aep5
    57f3:	c1d8           	l32i.n	a13, a1, 48
    57f5:	db7c           	movi.n	a11, -3
    57f7:	91c8           	l32i.n	a12, a1, 36
    57f9:	f86b83adde 	{ addi	a13, a13, 58; ae_roundsp16q48asym	aep0, aeq1 }
    57fe:	420d04        	ae_sp16f.l.i	aep0, a13, 0
    5801:	072bc7        	blt	a11, a12, 580c <beam2_proc+0x214>
    5804:	d1e8           	l32i.n	a14, a1, 52
    5806:	669ee2        	l16si	a14, a14, 204
    5809:	0e8e16        	beqz	a14, 58f5 <beam2_proc+0x2fd>

0000580c <beam2_proc+0x214>:
    580c:	c188           	l32i.n	a8, a1, 48
    580e:	eac5f1        	l32r	a15, 324 (1000 <voiced_decision+0x3c>)
    5811:	112882        	l32i	a8, a8, 68
    5814:	022f87        	blt	a15, a8, 581a <beam2_proc+0x222>
    5817:	002386        	j	58a9 <beam2_proc+0x2b1>
    581a:	1c2192        	l32i	a9, a1, 112
    581d:	1129e6        	bgei	a9, 2, 5832 <beam2_proc+0x23a>
    5820:	eae3b1        	l32r	a11, 3ac (4666 <TWO_MIC_WB_init+0x12>)
    5823:	eae3a1        	l32r	a10, 3b0 (3b00 <Voice_WB_TX_Prcs+0xc0>)
    5826:	eae0c1        	l32r	a12, 3a8 (7e00 <NR_vad1+0x5c>)
    5829:	303cc4        	ae_cvtp24a16x2.ll	aep3, a12, a12
    582c:	300ab4        	ae_cvtp24a16x2.ll	aep0, a10, a11
    582f:	000406        	j	5843 <beam2_proc+0x24b>

00005832 <beam2_proc+0x23a>:
    5832:	eae0e1        	l32r	a14, 3b4 (4a3d <prelim_filter+0x2d>)
    5835:	c1f8           	l32i.n	a15, a1, 48
    5837:	eae0d1        	l32r	a13, 3b8 (43d7 <Voice_NB_RX_Prcs+0x1b>)
    583a:	300de4        	ae_cvtp24a16x2.ll	aep0, a13, a14
    583d:	269ff2        	l16si	a15, a15, 76
    5840:	303ff4        	ae_cvtp24a16x2.ll	aep3, a15, a15

00005843 <beam2_proc+0x24b>:
    5843:	c198           	l32i.n	a9, a1, 48
    5845:	1d9982        	l16si	a8, a9, 58
    5848:	f998           	l32i.n	a9, a9, 60
    584a:	360934        	ae_cvtq48a32s	aeq0, a9
    584d:	038204        	ae_mulfq32sp16s.h	aeq2, aeq0, aep0
    5850:	118810        	slli	a8, a8, 15
    5853:	364834        	ae_cvtq48a32s	aeq1, a8
    5856:	099204        	ae_ltq56s	b0, aeq2, aeq1
    5859:	4c0076        	bf	b0, 58a9 <beam2_proc+0x2b1>
    585c:	038a14        	ae_mulfq32sp16s.l	aeq3, aeq0, aep0
    585f:	09b514        	ae_leq56s	b1, aeq1, aeq3
    5862:	ead6b1        	l32r	a11, 3bc (7fae <NR_vad2+0x92>)
    5865:	300bb4        	ae_cvtp24a16x2.ll	aep0, a11, a11
    5868:	0304a0        	rsr.br	a10
    586b:	04a1a0        	extui	a10, a10, 1, 1
    586e:	1a8c           	beqz.n	a10, 5873 <beam2_proc+0x27b>
    5870:	0904b4        	ae_movp48	aep3, aep0

00005873 <beam2_proc+0x27b>:
    5873:	4004e4        	ae_lp16f.i	aep0, a4, -4
    5876:	5188           	l32i.n	a8, a1, 20
    5878:	290c           	movi.n	a9, 2
    587a:	0020f0        	nop
    587d:	288976        	loop	a9, 58a9 <beam2_proc+0x2b1>
    5880:	ea0dac081f 	{ ae_lp16f.i	aep0, a8, 2; ae_mulfp24s.ll	aeq0, aep3, aep0 }
    5885:	ea0dec082f 	{ ae_lp16f.i	aep0, a8, 4; ae_mulfp24s.ll	aeq1, aep3, aep0 }
    588a:	f863ec283f 	{ ae_lp16f.i	aep2, a8, 6; ae_roundsp16q48asym	aep1, aeq0 }
    588f:	ea0dac884f 	{ ae_lp16f.iu	aep0, a8, 8; ae_mulfp24s.ll	aeq0, aep3, aep0 }
    5894:	eb4db218cf 	{ ae_sp16f.l.i	aep1, a8, -8; ae_mulfp24s.ll	aeq2, aep3, aep2 }
    5899:	1b9f24        	ae_roundsp16q48asym	aep2, aeq1
    589c:	f963b228df 	{ ae_sp16f.l.i	aep2, a8, -6; ae_roundsp16q48asym	aep2, aeq0 }
    58a1:	f973b228ef 	{ ae_sp16f.l.i	aep2, a8, -4; ae_roundsp16q48asym	aep2, aeq2 }
    58a6:	4228f4        	ae_sp16f.l.i	aep2, a8, -2
    58a9:	f01d           	retw.n

000058ab <beam2_proc+0x2b3>:
    58ab:	ed7c           	movi.n	a13, -2
    58ad:	3f1ed7        	beq	a14, a13, 58f0 <beam2_proc+0x2f8>
    58b0:	2198           	l32i.n	a9, a1, 8
    58b2:	ff7706        	j	5692 <beam2_proc+0x9a>

000058b5 <beam2_proc+0x2bd>:
    58b5:	91f8           	l32i.n	a15, a1, 36
    58b7:	7198           	l32i.n	a9, a1, 28
    58b9:	de7c           	movi.n	a14, -3
    58bb:	142ef7        	blt	a14, a15, 58d3 <beam2_proc+0x2db>
    58be:	ff7406        	j	5692 <beam2_proc+0x9a>

000058c1 <beam2_proc+0x2c9>:
    58c1:	40a514        	ae_lp16f.iu	aep2, a5, 2
    58c4:	78c192        	addi	a9, a1, 120
    58c7:	541994        	ae_lp24x2.i	aep1, a9, -56
    58ca:	429714        	ae_sp16f.l.iu	aep1, a7, 2
    58cd:	562994        	ae_sp24x2s.i	aep2, a9, -56
    58d0:	ff7fc6        	j	56d3 <beam2_proc+0xdb>

000058d3 <beam2_proc+0x2db>:
    58d3:	ec7c           	movi.n	a12, -2
    58d5:	7f1fc7        	beq	a15, a12, 5958 <beam2_proc+0x360>
    58d8:	6198           	l32i.n	a9, a1, 24
    58da:	ff6d06        	j	5692 <beam2_proc+0x9a>

000058dd <beam2_proc+0x2e5>:
    58dd:	ea48e1        	l32r	a14, 200 (7fff <NR_vad2+0xe3>)
    58e0:	b1d8           	l32i.n	a13, a1, 44
    58e2:	c0dde0        	sub	a13, a13, a14
    58e5:	d73d56        	bnez	a13, 565c <beam2_proc+0x64>
    58e8:	1f0c           	movi.n	a15, 1
    58ea:	a1f9           	s32i.n	a15, a1, 40
    58ec:	ff5c06        	j	5660 <beam2_proc+0x68>

000058ef <beam2_proc+0x2f7>:
	...

000058f0 <beam2_proc+0x2f8>:
    58f0:	1198           	l32i.n	a9, a1, 4
    58f2:	ff6706        	j	5692 <beam2_proc+0x9a>

000058f5 <beam2_proc+0x2fd>:
    58f5:	c1b8           	l32i.n	a11, a1, 48
    58f7:	279b82        	l16si	a8, a11, 78
    58fa:	1d9ba2        	l16si	a10, a11, 58
    58fd:	122b92        	l32i	a9, a11, 72
    5900:	881b           	addi.n	a8, a8, 1
    5902:	888d           	ae_sext16	a8, a8
    5904:	275b82        	s16i	a8, a11, 78
    5907:	52c8a6        	blti	a8, 32, 595d <beam2_proc+0x365>
    590a:	0bcd           	mov.n	a12, a11
    590c:	126ba2        	s32i	a10, a11, 72
    590f:	289be2        	l16si	a14, a11, 80
    5912:	10c9d2        	addi	a13, a9, 16
    5915:	21d5d0        	srai	a13, a13, 5
    5918:	090c           	movi.n	a9, 0
    591a:	275b92        	s16i	a9, a11, 78
    591d:	90eeb0        	addx2	a14, a14, a11
    5920:	2a5ed2        	s16i	a13, a14, 84
    5923:	289bb2        	l16si	a11, a11, 80
    5926:	bb1b           	addi.n	a11, a11, 1
    5928:	8bbd           	ae_sext16	a11, a11
    592a:	285cb2        	s16i	a11, a12, 80
    592d:	04aba6        	blti	a11, 12, 5935 <beam2_proc+0x33d>
    5930:	c1e8           	l32i.n	a14, a1, 48
    5932:	285e92        	s16i	a9, a14, 80

00005935 <beam2_proc+0x33d>:
    5935:	c1a8           	l32i.n	a10, a1, 48
    5937:	ea9381        	l32r	a8, 384 (4950 <take_min_four>)
    593a:	cb0c           	movi.n	a11, 12
    593c:	54caa2        	addi	a10, a10, 84
    593f:	0008e0        	callx8	a8
    5942:	0abd           	mov.n	a11, a10
    5944:	c1a8           	l32i.n	a10, a1, 48
    5946:	e9e781        	l32r	a8, e4 (4920 <siir_safr>)
    5949:	ea9dc1        	l32r	a12, 3c0 (c190 <immediate_num+0x20>)
    594c:	faa8           	l32i.n	a10, a10, 60
    594e:	0008e0        	callx8	a8
    5951:	c1b8           	l32i.n	a11, a1, 48
    5953:	fba9           	s32i.n	a10, a11, 60
    5955:	ffacc6        	j	580c <beam2_proc+0x214>

00005958 <beam2_proc+0x360>:
    5958:	0198           	l32i.n	a9, a1, 0
    595a:	ff4d06        	j	5692 <beam2_proc+0x9a>

0000595d <beam2_proc+0x365>:
    595d:	ca9a           	add.n	a12, a10, a9
    595f:	126bc2        	s32i	a12, a11, 72
    5962:	ffa986        	j	580c <beam2_proc+0x214>

00005965 <beam2_proc+0x36d>:
    5965:	000000                                        ...

00005968 <beam1_mid_band>:
    5968:	008136        	entry	a1, 64
    596b:	1b0c           	movi.n	a11, 1
    596d:	699232        	l16si	a3, a2, 210
    5970:	02d2f2        	addmi	a15, a2, 0x200
    5973:	fc24850f4e 	{ addi	a4, a15, 80; ae_zeroq56	aeq0 }
    5978:	630124        	ae_sq56s.i	aeq0, a1, 16
    597b:	932ff2        	l32i	a15, a15, 0x24c
    597e:	0213e6        	bgei	a3, 1, 5984 <beam1_mid_band+0x1c>
    5981:	007386        	j	5b53 <beam1_mid_band+0x1eb>
    5984:	610124        	ae_lq56.i	aeq0, a1, 16
    5987:	981c           	movi.n	a8, 25
    5989:	5a1c           	movi.n	a10, 21
    598b:	290c           	movi.n	a9, 2
    598d:	440f04        	ae_lp16x2f.i	aep0, a15, 0
    5990:	729930        	salt	a9, a9, a3
    5993:	93a890        	movnez	a10, a8, a9
    5996:	a90c           	movi.n	a9, 10
    5998:	048976        	loop	a9, 59a0 <beam1_mid_band+0x38>
    599b:	e2002d8f1f 	{ ae_lp16x2f.iu	aep0, a15, 4; ae_mulaafp24s.hh.ll	aeq0, aep0, aep0 }

000059a0 <beam1_mid_band+0x38>:
    59a0:	ea89c1        	l32r	a12, 3c4 (800 <comfort_noise_gen_wb+0xe0>)
    59a3:	401a00        	ssl	a10
    59a6:	3580b4        	ae_sraiq56	aeq2, aeq0, 2
    59a9:	066934        	ae_roundsq32asym	aeq1, aeq2
    59ac:	369904        	ae_trunca32q48	a9, aeq1
    59af:	ea1c81        	l32r	a8, 220 (8b28 <airoha_divide>)
    59b2:	a1ab00        	sll	a10, a11
    59b5:	53b9c0        	max	a11, a9, a12
    59b8:	0008e0        	callx8	a8
    59bb:	0a7d           	mov.n	a7, a10
    59bd:	0361b2        	s32i	a11, a1, 12

000059c0 <beam1_mid_band+0x58>:
    59c0:	4a0c           	movi.n	a10, 4
    59c2:	7e24b2        	l32i	a11, a4, 0x1f8
    59c5:	7f24f2        	l32i	a15, a4, 0x1fc
    59c8:	04d2d2        	addmi	a13, a2, 0x400
    59cb:	02d282        	addmi	a8, a2, 0x200
    59ce:	54c892        	addi	a9, a8, 84
    59d1:	5ccde2        	addi	a14, a13, 92
    59d4:	942882        	l32i	a8, a8, 0x250
    59d7:	f3f6e0        	wur.ae_cbegin0	a14
    59da:	2199           	s32i.n	a9, a1, 8
    59dc:	fccff2        	addi	a15, a15, -4
    59df:	fccb52        	addi	a5, a11, -4
    59e2:	fecb42        	addi	a4, a11, -2
    59e5:	0d9d           	mov.n	a9, a13
    59e7:	00a0e2        	movi	a14, 0
    59ea:	54cdd2        	addi	a13, a13, 84
    59ed:	7cc992        	addi	a9, a9, 124
    59f0:	f3f790        	wur.ae_cend0	a9
    59f3:	443d04        	ae_lp16x2f.i	aep3, a13, 0
    59f6:	fc641411df 	{ s32i.n	a13, a1, 4; ae_cvtq48p24s.h	aeq0, aep3 }
    59fb:	fd6c14019f 	{ s32i.n	a9, a1, 0; ae_cvtq48p24s.l	aeq1, aep3 }

00005a00 <beam1_mid_band+0x98>:
    5a00:	3b0c           	movi.n	a11, 3
    5a02:	44af14        	ae_lp16x2f.iu	aep2, a15, 4
    5a05:	fc24e428af 	{ ae_sp16x2f.c	aep2, a8, a10; nop }
    5a0a:	44b514        	ae_lp16x2f.iu	aep3, a5, 4
    5a0d:	fc24da98af 	{ ae_lp16x2f.c	aep1, a8, a10; nop }
    5a12:	440904        	ae_lp16x2f.i	aep0, a9, 0
    5a15:	ee206d291f 	{ ae_lp16x2f.i	aep2, a9, 4; ae_mulsafp24s.hl.lh	aeq1, aep0, aep1 }
    5a1a:	f0221a88af 	{ ae_lp16x2f.c	aep0, a8, a10; ae_mulssfp24s.hh.ll	aeq0, aep0, aep1 }
    5a1f:	f00a2d992f 	{ ae_lp16x2f.iu	aep1, a9, 8; ae_mulssfp24s.hh.ll	aeq0, aep2, aep0 }
    5a24:	f03d           	nop.n
    5a26:	138b76        	loop	a11, 5a3d <beam1_mid_band+0xd5>
    5a29:	ee085a88af 	{ ae_lp16x2f.c	aep0, a8, a10; ae_mulsafp24s.hl.lh	aeq1, aep2, aep0 }
    5a2e:	f0062d291f 	{ ae_lp16x2f.i	aep2, a9, 4; ae_mulssfp24s.hh.ll	aeq0, aep1, aep0 }
    5a33:	ee045a88af 	{ ae_lp16x2f.c	aep0, a8, a10; ae_mulsafp24s.hl.lh	aeq1, aep1, aep0 }
    5a38:	f00a2d992f 	{ ae_lp16x2f.iu	aep1, a9, 8; ae_mulssfp24s.hh.ll	aeq0, aep2, aep0 }

00005a3d <beam1_mid_band+0xd5>:
    5a3d:	ee0853699f 	{ or	a6, a9, a9; ae_mulsafp24s.hl.lh	aeq1, aep2, aep0 }
    5a42:	f8638e099e 	{ addi	a9, a9, -32; ae_roundsp16q48asym	aep0, aeq0 }
    5a47:	f86bf2841f 	{ ae_sp16f.l.iu	aep0, a4, 2; ae_roundsp16q48asym	aep1, aeq1 }
    5a4c:	429414        	ae_sp16f.l.iu	aep1, a4, 2
    5a4f:	5f13a6        	blti	a3, 1, 5ab2 <beam1_mid_band+0x14a>
    5a52:	5cee07        	bbsi	a14, 0, 5ab2 <beam1_mid_band+0x14a>
    5a55:	31a8           	l32i.n	a10, a1, 12
    5a57:	36ca34        	ae_cvtq48a32s	aeq3, a10
    5a5a:	0302d4        	ae_mulfq32sp16s.l	aeq0, aeq3, aep0
    5a5d:	d7e76d668f 	{ ae_lp16x2f.i	aep6, a6, -32; ae_mulfq32sp16s.l	aeq3, aeq3, aep1 }
    5a62:	fc24fe874f 	{ ae_slaasq56s	aeq1, aeq0, a7; nop }
    5a67:	fcc43eb78f 	{ ae_slaasq56s	aeq2, aeq3, a7; ae_cvtq48p24s.h	aeq0, aep6 }
    5a6c:	fa778004bf 	{ movi	a11, 4; ae_roundsp24q48asym	aep4, aeq2 }
    5a71:	f96f9ad8bf 	{ ae_lp16x2f.c	aep5, a8, a11; ae_roundsp24q48asym	aep2, aeq1 }
    5a76:	ffcc3e249f 	{ ae_selp24.hl	aep2, aep2, aep4; ae_cvtq48p24s.l	aeq3, aep6 }
    5a7b:	e2a80007cf 	{ movi	a12, 7; ae_mulaafp24s.hh.ll	aeq0, aep2, aep5 }
    5a80:	eba86d891f 	{ ae_lp16x2f.iu	aep0, a9, 4; ae_mulasfp24s.hl.lh	aeq3, aep2, aep5 }
    5a85:	fa638de6ae 	{ addi	a10, a6, -34; ae_roundsp16q48asym	aep4, aeq0 }
    5a8a:	f87bf24a1f 	{ ae_sp16f.l.i	aep4, a10, 2; ae_roundsp16q48asym	aep1, aeq3 }
    5a8f:	198c76        	loop	a12, 5aac <beam1_mid_band+0x144>
    5a92:	fc0c329a2f 	{ ae_sp16f.l.iu	aep1, a10, 4; ae_cvtq48p24s.l	aeq0, aep0 }
    5a97:	fd041a98bf 	{ ae_lp16x2f.c	aep1, a8, a11; ae_cvtq48p24s.h	aeq1, aep0 }
    5a9c:	e2286d891f 	{ ae_lp16x2f.iu	aep0, a9, 4; ae_mulaafp24s.hh.ll	aeq1, aep2, aep1 }
    5aa1:	052154        	ae_mulasfp24s.hl.lh	aeq0, aep2, aep1
    5aa4:	1b9f14        	ae_roundsp16q48asym	aep1, aeq1

00005aa7 <beam1_mid_band+0x13f>:
    5aa7:	f863f21a1f 	{ ae_sp16f.l.i	aep1, a10, 2; ae_roundsp16q48asym	aep1, aeq0 }

00005aac <beam1_mid_band+0x144>:
    5aac:	429a24        	ae_sp16f.l.iu	aep1, a10, 4
    5aaf:	e0c992        	addi	a9, a9, -32
    5ab2:	4a0c           	movi.n	a10, 4
    5ab4:	fc64001eee 	{ addi	a14, a14, 1; ae_cvtq48p24s.h	aeq0, aep3 }
    5ab9:	fd6c0f6ebe 	{ addi	a11, a14, -10; ae_cvtq48p24s.l	aeq1, aep3 }
    5abe:	f3eb56        	bnez	a11, 5a00 <beam1_mid_band+0x98>
    5ac1:	0221d2        	l32i	a13, a1, 8
    5ac4:	0121c2        	l32i	a12, a1, 4
    5ac7:	7f6d82        	s32i	a8, a13, 0x1fc
    5aca:	463c04        	ae_sp16x2f.i	aep3, a12, 0
    5acd:	440904        	ae_lp16x2f.i	aep0, a9, 0
    5ad0:	610124        	ae_lq56.i	aeq0, a1, 16
    5ad3:	e2002dc91f 	{ ae_lp16x2f.iu	aep4, a9, 4; ae_mulaafp24s.hh.ll	aeq0, aep0, aep0 }
    5ad8:	e2902db91f 	{ ae_lp16x2f.iu	aep3, a9, 4; ae_mulaafp24s.hh.ll	aeq0, aep4, aep4 }
    5add:	e26c2da91f 	{ ae_lp16x2f.iu	aep2, a9, 4; ae_mulaafp24s.hh.ll	aeq0, aep3, aep3 }
    5ae2:	e2482d991f 	{ ae_lp16x2f.iu	aep1, a9, 4; ae_mulaafp24s.hh.ll	aeq0, aep2, aep2 }
    5ae7:	e2242df91f 	{ ae_lp16x2f.iu	aep7, a9, 4; ae_mulaafp24s.hh.ll	aeq0, aep1, aep1 }
    5aec:	e2fc2de91f 	{ ae_lp16x2f.iu	aep6, a9, 4; ae_mulaafp24s.hh.ll	aeq0, aep7, aep7 }
    5af1:	e2d82dd91f 	{ ae_lp16x2f.iu	aep5, a9, 4; ae_mulaafp24s.hh.ll	aeq0, aep6, aep6 }
    5af6:	055504        	ae_mulaafp24s.hh.ll	aeq0, aep5, aep5
    5af9:	02dd82        	addmi	a8, a13, 0x200
    5afc:	3540b4        	ae_sraiq56	aeq1, aeq0, 2
    5aff:	1b9f54        	ae_roundsp16q48asym	aep5, aeq1
    5b02:	365f24        	ae_trunca16p24s.l	a15, aep5
    5b05:	0692e2        	l16si	a14, a2, 12
    5b08:	0258f2        	s16i	a15, a8, 4
    5b0b:	8ffd           	ae_sext16	a15, a15
    5b0d:	40aef7        	bge	a14, a15, 5b51 <beam1_mid_band+0x1e9>
    5b10:	002182        	l32i	a8, a1, 0
    5b13:	04d292        	addmi	a9, a2, 0x400
    5b16:	ea22a1        	l32r	a10, 3a0 (7efa <NR_vad1+0x156>)
    5b19:	303aa4        	ae_cvtp24a16x2.ll	aep3, a10, a10
    5b1c:	7ec992        	addi	a9, a9, 126
    5b1f:	4009f4        	ae_lp16f.i	aep0, a9, -2
    5b22:	04a092        	movi	a9, 4
    5b25:	288976        	loop	a9, 5b51 <beam1_mid_band+0x1e9>

00005b28 <beam1_mid_band+0x1c0>:
    5b28:	ea0dac081f 	{ ae_lp16f.i	aep0, a8, 2; ae_mulfp24s.ll	aeq0, aep3, aep0 }
    5b2d:	ea0dec082f 	{ ae_lp16f.i	aep0, a8, 4; ae_mulfp24s.ll	aeq1, aep3, aep0 }
    5b32:	f863ec283f 	{ ae_lp16f.i	aep2, a8, 6; ae_roundsp16q48asym	aep1, aeq0 }
    5b37:	ea0dac884f 	{ ae_lp16f.iu	aep0, a8, 8; ae_mulfp24s.ll	aeq0, aep3, aep0 }
    5b3c:	eb4db218cf 	{ ae_sp16f.l.i	aep1, a8, -8; ae_mulfp24s.ll	aeq2, aep3, aep2 }
    5b41:	1b9f24        	ae_roundsp16q48asym	aep2, aeq1
    5b44:	f963b228df 	{ ae_sp16f.l.i	aep2, a8, -6; ae_roundsp16q48asym	aep2, aeq0 }
    5b49:	f973b228ef 	{ ae_sp16f.l.i	aep2, a8, -4; ae_roundsp16q48asym	aep2, aeq2 }
    5b4e:	4228f4        	ae_sp16f.l.i	aep2, a8, -2

00005b51 <beam1_mid_band+0x1e9>:
    5b51:	f01d           	retw.n

00005b53 <beam1_mid_band+0x1eb>:
    5b53:	31b9           	s32i.n	a11, a1, 12
    5b55:	ff99c6        	j	59c0 <beam1_mid_band+0x58>

00005b58 <beam2_mid_band>:
    5b58:	00e136        	entry	a1, 112
    5b5b:	6a1c           	movi.n	a10, 22
    5b5d:	891c           	movi.n	a9, 24
    5b5f:	b129           	s32i.n	a2, a1, 44
    5b61:	05d2f2        	addmi	a15, a2, 0x500
    5b64:	02d2d2        	addmi	a13, a2, 0x200
    5b67:	03d2c2        	addmi	a12, a2, 0x300
    5b6a:	699282        	l16si	a8, a2, 210
    5b6d:	9189           	s32i.n	a8, a1, 36
    5b6f:	672c32        	l32i	a3, a12, 0x19c
    5b72:	6a2cb2        	l32i	a11, a12, 0x1a8
    5b75:	912d62        	l32i	a6, a13, 0x244
    5b78:	accce2        	addi	a14, a12, -84
    5b7b:	f4cf42        	addi	a4, a15, -12
    5b7e:	6149           	s32i.n	a4, a1, 24
    5b80:	a1e9           	s32i.n	a14, a1, 40
    5b82:	f3f740        	wur.ae_cend0	a4
    5b85:	a0cfe2        	addi	a14, a15, -96
    5b88:	31e9           	s32i.n	a14, a1, 12
    5b8a:	fcc662        	addi	a6, a6, -4
    5b8d:	d29cc2        	l16si	a12, a12, 0x1a4
    5b90:	440e04        	ae_lp16x2f.i	aep0, a14, 0
    5b93:	d4cff2        	addi	a15, a15, -44
    5b96:	f3f6f0        	wur.ae_cbegin0	a15
    5b99:	560174        	ae_sp24x2s.i	aep0, a1, 56
    5b9c:	932d22        	l32i	a2, a13, 0x24c
    5b9f:	922dd2        	l32i	a13, a13, 0x248
    5ba2:	11cc10        	slli	a12, a12, 15
    5ba5:	fcc222        	addi	a2, a2, -4
    5ba8:	72bbc0        	salt	a11, a11, a12
    5bab:	939ab0        	movnez	a9, a10, a11
    5bae:	fccdd2        	addi	a13, a13, -4
    5bb1:	d1d9           	s32i.n	a13, a1, 52
    5bb3:	056192        	s32i	a9, a1, 20
    5bb6:	0218e6        	bgei	a8, 1, 5bbc <beam2_mid_band+0x64>
    5bb9:	00b106        	j	5e81 <beam2_mid_band+0x329>

00005bbc <beam2_mid_band+0x64>:
    5bbc:	0e0c           	movi.n	a14, 0
    5bbe:	c1e9           	s32i.n	a14, a1, 48

00005bc0 <beam2_mid_band+0x68>:
    5bc0:	b158           	l32i.n	a5, a1, 44
    5bc2:	51b8           	l32i.n	a11, a1, 20
    5bc4:	470c           	movi.n	a7, 4
    5bc6:	05d552        	addmi	a5, a5, 0x500
    5bc9:	fccbf2        	addi	a15, a11, -4
    5bcc:	fecbe2        	addi	a14, a11, -2
    5bcf:	facbc2        	addi	a12, a11, -6
    5bd2:	f8cbd2        	addi	a13, a11, -8
    5bd5:	21d9           	s32i.n	a13, a1, 8
    5bd7:	11c9           	s32i.n	a12, a1, 4
    5bd9:	01e9           	s32i.n	a14, a1, 0
    5bdb:	71f9           	s32i.n	a15, a1, 28
    5bdd:	acc552        	addi	a5, a5, -84
    5be0:	78c1f2        	addi	a15, a1, 120
    5be3:	8159           	s32i.n	a5, a1, 32
    5be5:	fc2480005f 	{ movi	a5, 0; ae_zeroq56	aeq0 }
    5bea:	630f94        	ae_sq56s.i	aeq0, a15, -56
    5bed:	fbcbb2        	addi	a11, a11, -5
    5bf0:	41b9           	s32i.n	a11, a1, 16
    5bf2:	3b0c           	movi.n	a11, 3
    5bf4:	003ec6        	j	5cf3 <beam2_mid_band+0x19b>

00005bf7 <beam2_mid_band+0x9f>:
	...

00005bf8 <beam2_mid_band+0xa0>:
    5bf8:	090c           	movi.n	a9, 0

00005bfa <beam2_mid_band+0xa2>:
    5bfa:	090194        	ae_roundsp16asym	aep1, aep0
    5bfd:	469614        	ae_sp16x2f.iu	aep1, a6, 4
    5c00:	0e5816        	beqz	a8, 5ce9 <beam2_mid_band+0x191>
    5c03:	005516        	beqz	a5, 5c0c <beam2_mid_band+0xb4>
    5c06:	025526        	beqi	a5, 5, 5c0c <beam2_mid_band+0xb4>
    5c09:	002006        	j	5c8d <beam2_mid_band+0x135>

00005c0c <beam2_mid_band+0xb4>:
    5c0c:	78c1a2        	addi	a10, a1, 120
    5c0f:	fc24dac37f 	{ ae_lp16x2f.c	aep4, a3, a7; nop }
    5c14:	fc24dab37f 	{ ae_lp16x2f.c	aep3, a3, a7; nop }
    5c19:	fc24daa37f 	{ ae_lp16x2f.c	aep2, a3, a7; nop }
    5c1e:	fc24dab37f 	{ ae_lp16x2f.c	aep3, a3, a7; nop }
    5c23:	610a94        	ae_lq56.i	aeq0, a10, -56
    5c26:	fc24daf37f 	{ ae_lp16x2f.c	aep7, a3, a7; nop }
    5c2b:	053304        	ae_mulaafp24s.hh.ll	aeq0, aep3, aep3
    5c2e:	e2fc1ae37f 	{ ae_lp16x2f.c	aep6, a3, a7; ae_mulaafp24s.hh.ll	aeq0, aep7, aep7 }
    5c33:	e2d81ad37f 	{ ae_lp16x2f.c	aep5, a3, a7; ae_mulaafp24s.hh.ll	aeq0, aep6, aep6 }
    5c38:	e2b41ab37f 	{ ae_lp16x2f.c	aep3, a3, a7; ae_mulaafp24s.hh.ll	aeq0, aep5, aep5 }
    5c3d:	e26c3081de 	{ l32i	a13, a1, 32; ae_mulaafp24s.hh.ll	aeq0, aep3, aep3 }
    5c42:	b1c8           	l32i.n	a12, a1, 44
    5c44:	3540b4        	ae_sraiq56	aeq1, aeq0, 2
    5c47:	ff2c7d4d0f 	{ ae_lq32f.i	aeq2, a13, 0; ae_roundsq32asym	aeq3, aeq1 }
    5c4c:	623d04        	ae_sq32f.i	aeq3, a13, 0
    5c4f:	fa7630a1de 	{ l32i	a13, a1, 40; ae_addq56	aeq2, aeq2, aeq1 }
    5c54:	fd34666cce 	{ l16si	a12, a12, 204; ae_roundsq32asym	aeq1, aeq2 }
    5c59:	369b04        	ae_trunca32q48	a11, aeq1
    5c5c:	816db2        	s32i	a11, a13, 0x204
    5c5f:	021ce6        	bgei	a12, 1, 5c65 <beam2_mid_band+0x10d>
    5c62:	007f46        	j	5e63 <beam2_mid_band+0x30b>
    5c65:	ffa7e2        	movi	a14, 0x7ff
    5c68:	02aeb7        	bge	a14, a11, 5c6e <beam2_mid_band+0x116>
    5c6b:	003f46        	j	5d6c <beam2_mid_band+0x214>
    5c6e:	71a8           	l32i.n	a10, a1, 28

00005c70 <beam2_mid_band+0x118>:
    5c70:	e96c81        	l32r	a8, 220 (8b28 <airoha_divide>)
    5c73:	0d0c           	movi.n	a13, 0
    5c75:	fecac2        	addi	a12, a10, -2
    5c78:	72dd90        	salt	a13, a13, a9
    5c7b:	190c           	movi.n	a9, 1
    5c7d:	93acd0        	movnez	a10, a12, a13
    5c80:	401a00        	ssl	a10
    5c83:	a1a900        	sll	a10, a9
    5c86:	0008e0        	callx8	a8
    5c89:	0bed           	mov.n	a14, a11
    5c8b:	0afd           	mov.n	a15, a10

00005c8d <beam2_mid_band+0x135>:
    5c8d:	444604        	ae_lp16x2f.i	aep4, a6, 0
    5c90:	368e34        	ae_cvtq48a32s	aeq2, a14
    5c93:	03ca84        	ae_mulfq32sp16s.h	aeq3, aeq2, aep4
    5c96:	d7f22d440f 	{ ae_lp16x2f.i	aep4, a4, 0; ae_mulfq32sp16s.l	aeq2, aeq2, aep4 }
    5c9b:	ff843ebf0f 	{ ae_slaasq56s	aeq0, aeq3, a15; ae_cvtq48p24s.h	aeq3, aep4 }
    5ca0:	fe8c3eaf4f 	{ ae_slaasq56s	aeq1, aeq2, a15; ae_cvtq48p24s.l	aeq2, aep4 }
    5ca5:	1b9d34        	ae_roundsp24q48asym	aep3, aeq1
    5ca8:	1b8d24        	ae_roundsp24q48asym	aep2, aeq0
    5cab:	dd689ab37f 	{ ae_lp16x2f.c	aep3, a3, a7; ae_selp24.hl	aep2, aep2, aep3 }
    5cb0:	e3684007cf 	{ movi	a12, 7; ae_mulaafp24s.hh.ll	aeq3, aep2, aep3 }
    5cb5:	eb680fe4ae 	{ addi	a10, a4, -2; ae_mulasfp24s.hl.lh	aeq2, aep2, aep3 }
    5cba:	f87bed841f 	{ ae_lp16x2f.iu	aep0, a4, 4; ae_roundsp16q48asym	aep1, aeq3 }
    5cbf:	f873f21a1f 	{ ae_sp16f.l.i	aep1, a10, 2; ae_roundsp16q48asym	aep1, aeq2 }
    5cc4:	f03d           	nop.n
    5cc6:	198c76        	loop	a12, 5ce3 <beam2_mid_band+0x18b>
    5cc9:	fc0c329a2f 	{ ae_sp16f.l.iu	aep1, a10, 4; ae_cvtq48p24s.l	aeq0, aep0 }
    5cce:	fd041a937f 	{ ae_lp16x2f.c	aep1, a3, a7; ae_cvtq48p24s.h	aeq1, aep0 }
    5cd3:	e2286d841f 	{ ae_lp16x2f.iu	aep0, a4, 4; ae_mulaafp24s.hh.ll	aeq1, aep2, aep1 }
    5cd8:	052154        	ae_mulasfp24s.hl.lh	aeq0, aep2, aep1
    5cdb:	1b9f14        	ae_roundsp16q48asym	aep1, aeq1
    5cde:	f863f21a1f 	{ ae_sp16f.l.i	aep1, a10, 2; ae_roundsp16q48asym	aep1, aeq0 }

00005ce3 <beam2_mid_band+0x18b>:
    5ce3:	429a24        	ae_sp16f.l.iu	aep1, a10, 4
    5ce6:	e0c442        	addi	a4, a4, -32

00005ce9 <beam2_mid_band+0x191>:
    5ce9:	3b0c           	movi.n	a11, 3
    5ceb:	551b           	addi.n	a5, a5, 1
    5ced:	f6c582        	addi	a8, a5, -10
    5cf0:	08e816        	beqz	a8, 5d82 <beam2_mid_band+0x22a>

00005cf3 <beam2_mid_band+0x19b>:
    5cf3:	d1a8           	l32i.n	a10, a1, 52
    5cf5:	78c192        	addi	a9, a1, 120
    5cf8:	610994        	ae_lq56.i	aeq0, a9, -56
    5cfb:	44fa14        	ae_lp16x2f.iu	aep7, a10, 4
    5cfe:	d1a9           	s32i.n	a10, a1, 52
    5d00:	fc24e4737f 	{ ae_sp16x2f.c	aep7, a3, a7; nop }
    5d05:	fc24dae37f 	{ ae_lp16x2f.c	aep6, a3, a7; nop }
    5d0a:	fd046d540f 	{ ae_lp16x2f.i	aep5, a4, 0; ae_movq56	aeq1, aeq0 }
    5d0f:	ead46d241f 	{ ae_lp16x2f.i	aep2, a4, 4; ae_mulasfp24s.hl.lh	aeq1, aep5, aep6 }
    5d14:	e2d41a837f 	{ ae_lp16x2f.c	aep0, a3, a7; ae_mulaafp24s.hh.ll	aeq0, aep5, aep6 }
    5d19:	e2082d942f 	{ ae_lp16x2f.iu	aep1, a4, 8; ae_mulaafp24s.hh.ll	aeq0, aep2, aep0 }
    5d1e:	138b76        	loop	a11, 5d35 <beam2_mid_band+0x1dd>
    5d21:	ea085a837f 	{ ae_lp16x2f.c	aep0, a3, a7; ae_mulasfp24s.hl.lh	aeq1, aep2, aep0 }
    5d26:	e2042d241f 	{ ae_lp16x2f.i	aep2, a4, 4; ae_mulaafp24s.hh.ll	aeq0, aep1, aep0 }
    5d2b:	ea045a837f 	{ ae_lp16x2f.c	aep0, a3, a7; ae_mulasfp24s.hl.lh	aeq1, aep1, aep0 }
    5d30:	e2082d942f 	{ ae_lp16x2f.iu	aep1, a4, 8; ae_mulaafp24s.hh.ll	aeq0, aep2, aep0 }

00005d35 <beam2_mid_band+0x1dd>:
    5d35:	052854        	ae_mulasfp24s.hl.lh	aeq1, aep2, aep0
    5d38:	1b8d44        	ae_roundsp24q48asym	aep4, aeq0
    5d3b:	fb6fb0117f 	{ ae_lp24x2.i	aep1, a1, 56; ae_roundsp24q48asym	aep6, aeq1 }
    5d40:	f126fe4e3f 	{ ae_selp24.ll	aep4, aep4, aep6; ae_mulzaafp24s.hh.ll	aeq3, aep1, aep1 }
    5d45:	0794a4        	ae_subsp24s	aep2, aep1, aep4
    5d48:	07a4b4        	ae_subsp24s	aep3, aep2, aep4
    5d4b:	093184        	ae_roundsp16asym	aep0, aep3
    5d4e:	f002b0c18e 	{ l32i	a8, a1, 48; ae_mulzaafp24s.hh.ll	aeq0, aep0, aep0 }
    5d53:	190c           	movi.n	a9, 1
    5d55:	d6c40e044e 	{ addi	a4, a4, -32; ae_ltq56s	b0, aeq3, aeq0 }
    5d5a:	449214        	ae_lp16x2f.iu	aep1, a2, 4
    5d5d:	561174        	ae_sp24x2s.i	aep1, a1, 56
    5d60:	021076        	bt	b0, 5d66 <beam2_mid_band+0x20e>
    5d63:	ffa446        	j	5bf8 <beam2_mid_band+0xa0>
    5d66:	092484        	ae_movp48	aep0, aep2
    5d69:	ffa346        	j	5bfa <beam2_mid_band+0xa2>

00005d6c <beam2_mid_band+0x214>:
    5d6c:	91d8           	l32i.n	a13, a1, 36
    5d6e:	41a8           	l32i.n	a10, a1, 16
    5d70:	dc7c           	movi.n	a12, -3
    5d72:	022cd7        	blt	a12, a13, 5d78 <beam2_mid_band+0x220>
    5d75:	ffbdc6        	j	5c70 <beam2_mid_band+0x118>

00005d78 <beam2_mid_band+0x220>:
    5d78:	ed2b           	addi.n	a14, a13, 2
    5d7a:	0fee16        	beqz	a14, 5e7c <beam2_mid_band+0x324>
    5d7d:	21a8           	l32i.n	a10, a1, 8
    5d7f:	ffbb46        	j	5c70 <beam2_mid_band+0x118>

00005d82 <beam2_mid_band+0x22a>:
    5d82:	6148           	l32i.n	a4, a1, 24
    5d84:	31a8           	l32i.n	a10, a1, 12
    5d86:	b198           	l32i.n	a9, a1, 44
    5d88:	a1b8           	l32i.n	a11, a1, 40
    5d8a:	547174        	ae_lp24x2.i	aep7, a1, 56
    5d8d:	05d992        	addmi	a9, a9, 0x500
    5d90:	7c6b32        	s32i	a3, a11, 0x1f0
    5d93:	467a04        	ae_sp16x2f.i	aep7, a10, 0
    5d96:	f8c932        	addi	a3, a9, -8
    5d99:	4439d4        	ae_lp16x2f.i	aep3, a9, -12
    5d9c:	78c1c2        	addi	a12, a1, 120
    5d9f:	610c94        	ae_lq56.i	aeq0, a12, -56
    5da2:	e26c2df41f 	{ ae_lp16x2f.iu	aep7, a4, 4; ae_mulaafp24s.hh.ll	aeq0, aep3, aep3 }
    5da7:	e2fc2de41f 	{ ae_lp16x2f.iu	aep6, a4, 4; ae_mulaafp24s.hh.ll	aeq0, aep7, aep7 }
    5dac:	e2d82dd41f 	{ ae_lp16x2f.iu	aep5, a4, 4; ae_mulaafp24s.hh.ll	aeq0, aep6, aep6 }
    5db1:	e2b42dc41f 	{ ae_lp16x2f.iu	aep4, a4, 4; ae_mulaafp24s.hh.ll	aeq0, aep5, aep5 }
    5db6:	e2902da41f 	{ ae_lp16x2f.iu	aep2, a4, 4; ae_mulaafp24s.hh.ll	aeq0, aep4, aep4 }
    5dbb:	e2482d941f 	{ ae_lp16x2f.iu	aep1, a4, 4; ae_mulaafp24s.hh.ll	aeq0, aep2, aep2 }
    5dc0:	e2242d841f 	{ ae_lp16x2f.iu	aep0, a4, 4; ae_mulaafp24s.hh.ll	aeq0, aep1, aep1 }
    5dc5:	050004        	ae_mulaafp24s.hh.ll	aeq0, aep0, aep0
    5dc8:	91e8           	l32i.n	a14, a1, 36
    5dca:	dd7c           	movi.n	a13, -3
    5dcc:	3540b4        	ae_sraiq56	aeq1, aeq0, 2
    5dcf:	f86b8a49fe 	{ addi	a15, a9, -92; ae_roundsp16q48asym	aep0, aeq1 }
    5dd4:	420f04        	ae_sp16f.l.i	aep0, a15, 0
    5dd7:	072de7        	blt	a13, a14, 5de2 <beam2_mid_band+0x28a>
    5dda:	b188           	l32i.n	a8, a1, 44
    5ddc:	669882        	l16si	a8, a8, 204
    5ddf:	0ad816        	beqz	a8, 5e90 <beam2_mid_band+0x338>

00005de2 <beam2_mid_band+0x28a>:
    5de2:	a1a8           	l32i.n	a10, a1, 40
    5de4:	e95091        	l32r	a9, 324 (1000 <voiced_decision+0x3c>)
    5de7:	812aa2        	l32i	a10, a10, 0x204
    5dea:	73a9a7        	bge	a9, a10, 5e61 <beam2_mid_band+0x309>
    5ded:	a1c8           	l32i.n	a12, a1, 40
    5def:	e971e1        	l32r	a14, 3b4 (4a3d <prelim_filter+0x2d>)
    5df2:	e8b6d1        	l32r	a13, cc (4000 <Voice_WB_TX_Prcs+0x5c0>)
    5df5:	300de4        	ae_cvtp24a16x2.ll	aep0, a13, a14
    5df8:	fc9cb2        	l16si	a11, a12, 0x1f8
    5dfb:	7f2cc2        	l32i	a12, a12, 0x1fc
    5dfe:	364c34        	ae_cvtq48a32s	aeq1, a12
    5e01:	038244        	ae_mulfq32sp16s.h	aeq2, aeq1, aep0
    5e04:	11bb10        	slli	a11, a11, 15
    5e07:	360b34        	ae_cvtq48a32s	aeq0, a11
    5e0a:	098214        	ae_ltq56s	b1, aeq2, aeq0
    5e0d:	500176        	bf	b1, 5e61 <beam2_mid_band+0x309>
    5e10:	038a54        	ae_mulfq32sp16s.l	aeq3, aeq1, aep0
    5e13:	098324        	ae_ltq56s	b2, aeq3, aeq0
    5e16:	0a0276        	bf	b2, 5e24 <beam2_mid_band+0x2cc>
    5e19:	a1f8           	l32i.n	a15, a1, 40
    5e1b:	fd9ff2        	l16si	a15, a15, 0x1fa
    5e1e:	303ff4        	ae_cvtp24a16x2.ll	aep3, a15, a15
    5e21:	000146        	j	5e2a <beam2_mid_band+0x2d2>

00005e24 <beam2_mid_band+0x2cc>:
    5e24:	e96681        	l32r	a8, 3bc (7fae <NR_vad2+0x92>)
    5e27:	303884        	ae_cvtp24a16x2.ll	aep3, a8, a8

00005e2a <beam2_mid_band+0x2d2>:
    5e2a:	4003e4        	ae_lp16f.i	aep0, a3, -4
    5e2d:	6188           	l32i.n	a8, a1, 24
    5e2f:	490c           	movi.n	a9, 4
    5e31:	f03d           	nop.n
    5e33:	f03d           	nop.n
    5e35:	288976        	loop	a9, 5e61 <beam2_mid_band+0x309>
    5e38:	ea0dac081f 	{ ae_lp16f.i	aep0, a8, 2; ae_mulfp24s.ll	aeq0, aep3, aep0 }
    5e3d:	ea0dec082f 	{ ae_lp16f.i	aep0, a8, 4; ae_mulfp24s.ll	aeq1, aep3, aep0 }
    5e42:	f863ec283f 	{ ae_lp16f.i	aep2, a8, 6; ae_roundsp16q48asym	aep1, aeq0 }
    5e47:	ea0dac884f 	{ ae_lp16f.iu	aep0, a8, 8; ae_mulfp24s.ll	aeq0, aep3, aep0 }
    5e4c:	eb4db218cf 	{ ae_sp16f.l.i	aep1, a8, -8; ae_mulfp24s.ll	aeq2, aep3, aep2 }
    5e51:	1b9f24        	ae_roundsp16q48asym	aep2, aeq1
    5e54:	f963b228df 	{ ae_sp16f.l.i	aep2, a8, -6; ae_roundsp16q48asym	aep2, aeq0 }
    5e59:	f973b228ef 	{ ae_sp16f.l.i	aep2, a8, -4; ae_roundsp16q48asym	aep2, aeq2 }
    5e5e:	4228f4        	ae_sp16f.l.i	aep2, a8, -2
    5e61:	f01d           	retw.n

00005e63 <beam2_mid_band+0x30b>:
    5e63:	91c8           	l32i.n	a12, a1, 36
    5e65:	ee7c           	movi.n	a14, -2
    5e67:	da7c           	movi.n	a10, -3
    5e69:	042ac7        	blt	a10, a12, 5e71 <beam2_mid_band+0x319>
    5e6c:	51a8           	l32i.n	a10, a1, 20
    5e6e:	ff7f86        	j	5c70 <beam2_mid_band+0x118>

00005e71 <beam2_mid_band+0x319>:
    5e71:	029ce7        	bne	a12, a14, 5e77 <beam2_mid_band+0x31f>
    5e74:	002306        	j	5f04 <beam2_mid_band+0x3ac>
    5e77:	71a8           	l32i.n	a10, a1, 28
    5e79:	ff7cc6        	j	5c70 <beam2_mid_band+0x118>

00005e7c <beam2_mid_band+0x324>:
    5e7c:	11a8           	l32i.n	a10, a1, 4
    5e7e:	ff7b86        	j	5c70 <beam2_mid_band+0x118>

00005e81 <beam2_mid_band+0x329>:
    5e81:	b1f8           	l32i.n	a15, a1, 44
    5e83:	6c9ff2        	l16si	a15, a15, 216
    5e86:	d32f16        	beqz	a15, 5bbc <beam2_mid_band+0x64>
    5e89:	180c           	movi.n	a8, 1
    5e8b:	c189           	s32i.n	a8, a1, 48
    5e8d:	ff4bc6        	j	5bc0 <beam2_mid_band+0x68>

00005e90 <beam2_mid_band+0x338>:
    5e90:	0b9d           	mov.n	a9, a11
    5e92:	02dbb2        	addmi	a11, a11, 0x200
    5e95:	069bc2        	l16si	a12, a11, 12
    5e98:	fc99a2        	l16si	a10, a9, 0x1f8
    5e9b:	822992        	l32i	a9, a9, 0x208
    5e9e:	cc1b           	addi.n	a12, a12, 1
    5ea0:	8ccd           	ae_sext16	a12, a12
    5ea2:	065bc2        	s16i	a12, a11, 12
    5ea5:	60cca6        	blti	a12, 32, 5f09 <beam2_mid_band+0x3b1>
    5ea8:	b1f8           	l32i.n	a15, a1, 44
    5eaa:	079be2        	l16si	a14, a11, 14
    5ead:	a188           	l32i.n	a8, a1, 40
    5eaf:	10c9d2        	addi	a13, a9, 16
    5eb2:	21d5d0        	srai	a13, a13, 5
    5eb5:	090c           	movi.n	a9, 0
    5eb7:	065b92        	s16i	a9, a11, 12
    5eba:	8268a2        	s32i	a10, a8, 0x208
    5ebd:	90eef0        	addx2	a14, a14, a15
    5ec0:	03dee2        	addmi	a14, a14, 0x300
    5ec3:	accee2        	addi	a14, a14, -84
    5ec6:	02dee2        	addmi	a14, a14, 0x200
    5ec9:	085ed2        	s16i	a13, a14, 16
    5ecc:	079bc2        	l16si	a12, a11, 14
    5ecf:	cc1b           	addi.n	a12, a12, 1
    5ed1:	8ccd           	ae_sext16	a12, a12
    5ed3:	075bc2        	s16i	a12, a11, 14
    5ed6:	02aca6        	blti	a12, 12, 5edc <beam2_mid_band+0x384>
    5ed9:	075b92        	s16i	a9, a11, 14

00005edc <beam2_mid_band+0x384>:
    5edc:	b1a8           	l32i.n	a10, a1, 44
    5ede:	cb0c           	movi.n	a11, 12
    5ee0:	e92981        	l32r	a8, 384 (4950 <take_min_four>)
    5ee3:	05daa2        	addmi	a10, a10, 0x500
    5ee6:	bccaa2        	addi	a10, a10, -68
    5ee9:	0008e0        	callx8	a8
    5eec:	0abd           	mov.n	a11, a10
    5eee:	a1a8           	l32i.n	a10, a1, 40
    5ef0:	e87d81        	l32r	a8, e4 (4920 <siir_safr>)
    5ef3:	e933c1        	l32r	a12, 3c0 (c190 <immediate_num+0x20>)
    5ef6:	7f2aa2        	l32i	a10, a10, 0x1fc
    5ef9:	0008e0        	callx8	a8
    5efc:	a1b8           	l32i.n	a11, a1, 40
    5efe:	7f6ba2        	s32i	a10, a11, 0x1fc
    5f01:	ffb746        	j	5de2 <beam2_mid_band+0x28a>

00005f04 <beam2_mid_band+0x3ac>:
    5f04:	01a8           	l32i.n	a10, a1, 0
    5f06:	ff5986        	j	5c70 <beam2_mid_band+0x118>

00005f09 <beam2_mid_band+0x3b1>:
    5f09:	a1d8           	l32i.n	a13, a1, 40
    5f0b:	ca9a           	add.n	a12, a10, a9
    5f0d:	826dc2        	s32i	a12, a13, 0x208
    5f10:	ffb386        	j	5de2 <beam2_mid_band+0x28a>

00005f13 <beam2_mid_band+0x3bb>:
	...

00005f14 <TWO_MIC_WB_Preload>:
    5f14:	004136        	entry	a1, 32
    5f17:	e85951        	l32r	a5, 7c (ca94 <p_ecnr_mem>)
    5f1a:	0b0c           	movi.n	a11, 0
    5f1c:	0558           	l32i.n	a5, a5, 0
    5f1e:	2c3c           	movi.n	a12, 50
    5f20:	e85f81        	l32r	a8, 9c (9dc8 <xt_memset>)
    5f23:	6bd5a2        	addmi	a10, a5, 0x6b00
    5f26:	3bd542        	addmi	a4, a5, 0x3b00
    5f29:	38d532        	addmi	a3, a5, 0x3800
    5f2c:	d0c332        	addi	a3, a3, -48
    5f2f:	6cc462        	addi	a6, a4, 108
    5f32:	90caa2        	addi	a10, a10, -112
    5f35:	e0c442        	addi	a4, a4, -32
    5f38:	3ad552        	addmi	a5, a5, 0x3a00
    5f3b:	c8c572        	addi	a7, a5, -56
    5f3e:	54c552        	addi	a5, a5, 84
    5f41:	0008e0        	callx8	a8
    5f44:	e85781        	l32r	a8, a0 (ca9c <aec_nr_para>)
    5f47:	0888           	l32i.n	a8, a8, 0
    5f49:	049882        	l16si	a8, a8, 8
    5f4c:	e91fa1        	l32r	a10, 3c8 (55aa <beam1_proc+0x15e>)
    5f4f:	0228d6        	bgez	a8, 5f75 <TWO_MIC_WB_Preload+0x61>
    5f52:	229d           	ae_l16si.n	a9, a2, 0
    5f54:	080c           	movi.n	a8, 0
    5f56:	1b99a7        	bne	a9, a10, 5f75 <TWO_MIC_WB_Preload+0x61>
    5f59:	00a0a2        	movi	a10, 0
    5f5c:	32bd           	ae_l16si.n	a11, a2, 2
    5f5e:	30a092        	movi	a9, 48
    5f61:	0d8976        	loop	a9, 5f72 <TWO_MIC_WB_Preload+0x5e>
    5f64:	909820        	addx2	a9, a8, a2
    5f67:	029992        	l16si	a9, a9, 4
    5f6a:	881b           	addi.n	a8, a8, 1
    5f6c:	988d           	ae_zext16	a8, a8
    5f6e:	99aa           	add.n	a9, a9, a10
    5f70:	89ad           	ae_sext16	a10, a9

00005f72 <TWO_MIC_WB_Preload+0x5e>:
    5f72:	071ba7        	beq	a11, a10, 5f7d <TWO_MIC_WB_Preload+0x69>
    5f75:	f01d           	retw.n

00005f77 <TWO_MIC_WB_Preload+0x63>:
    5f77:	00000000 c7a20000                                ......

00005f7d <TWO_MIC_WB_Preload+0x69>:
    5f7d:	24c7a2        	addi	a10, a7, 36
    5f80:	14c2b2        	addi	a11, a2, 20
    5f83:	8c0c           	movi.n	a12, 8
    5f85:	e84781        	l32r	a8, a4 (9de0 <xt_memcpy>)
    5f88:	099292        	l16si	a9, a2, 18
    5f8b:	0892d2        	l16si	a13, a2, 16
    5f8e:	0292e2        	l16si	a14, a2, 4
    5f91:	119900        	slli	a9, a9, 16
    5f94:	11dd00        	slli	a13, a13, 16
    5f97:	11ee00        	slli	a14, a14, 16
    5f9a:	d3e9           	s32i.n	a14, a3, 52
    5f9c:	3463d2        	s32i	a13, a3, 208
    5f9f:	336392        	s32i	a9, a3, 204
    5fa2:	0008e0        	callx8	a8
    5fa5:	38c6a2        	addi	a10, a6, 56
    5fa8:	e83f81        	l32r	a8, a4 (9de0 <xt_memcpy>)
    5fab:	24c2b2        	addi	a11, a2, 36
    5fae:	0c1c           	movi.n	a12, 16
    5fb0:	0008e0        	callx8	a8
    5fb3:	24c5a2        	addi	a10, a5, 36
    5fb6:	e83b81        	l32r	a8, a4 (9de0 <xt_memcpy>)
    5fb9:	44c2b2        	addi	a11, a2, 68
    5fbc:	8c0c           	movi.n	a12, 8
    5fbe:	0008e0        	callx8	a8
    5fc1:	e90251        	l32r	a5, 3cc (6a90 <NB_NR_init+0x1a0>)
    5fc4:	e82e61        	l32r	a6, 7c (ca94 <p_ecnr_mem>)
    5fc7:	24c4a2        	addi	a10, a4, 36
    5fca:	e83681        	l32r	a8, a4 (9de0 <xt_memcpy>)
    5fcd:	54c2b2        	addi	a11, a2, 84
    5fd0:	8c0c           	movi.n	a12, 8
    5fd2:	0008e0        	callx8	a8
    5fd5:	02bd           	mov.n	a11, a2
    5fd7:	2c3c           	movi.n	a12, 50
    5fd9:	06a8           	l32i.n	a10, a6, 0
    5fdb:	1d0c           	movi.n	a13, 1
    5fdd:	e83181        	l32r	a8, a4 (9de0 <xt_memcpy>)
    5fe0:	1853d2        	s16i	a13, a3, 48
    5fe3:	aa5a           	add.n	a10, a10, a5
    5fe5:	0008e0        	callx8	a8
    5fe8:	f01d           	retw.n

00005fea <TWO_MIC_WB_Preload+0xd6>:
	...

00005fec <TWO_MIC_WB_Write_FLASH>:
    5fec:	004136        	entry	a1, 32
    5fef:	e823c1        	l32r	a12, 7c (ca94 <p_ecnr_mem>)
    5ff2:	0cc8           	l32i.n	a12, a12, 0
    5ff4:	3adca2        	addmi	a10, a12, 0x3a00
    5ff7:	19dc92        	addmi	a9, a12, 0x1900
    5ffa:	3bdc32        	addmi	a3, a12, 0x3b00
    5ffd:	6cc352        	addi	a5, a3, 108
    6000:	969982        	l16si	a8, a9, 0x12c
    6003:	54ca42        	addi	a4, a10, 84
    6006:	e0c332        	addi	a3, a3, -32
    6009:	172866        	bnei	a8, 2, 6024 <TWO_MIC_WB_Write_FLASH+0x38>
    600c:	37dcd2        	addmi	a13, a12, 0x3700
    600f:	809db2        	l16si	a11, a13, 0x100
    6012:	172b26        	beqi	a11, 2, 602d <TWO_MIC_WB_Write_FLASH+0x41>
    6015:	9c99d2        	l16si	a13, a9, 0x138
    6018:	eb0b           	addi.n	a14, a11, -1
    601a:	002dd6        	bgez	a13, 6020 <TWO_MIC_WB_Write_FLASH+0x34>
    601d:	091e16        	beqz	a14, 60b2 <TWO_MIC_WB_Write_FLASH+0xc6>
    6020:	020c           	movi.n	a2, 0
    6022:	f01d           	retw.n

00006024 <TWO_MIC_WB_Write_FLASH+0x38>:
    6024:	020c           	movi.n	a2, 0
    6026:	f01d           	retw.n

00006028 <TWO_MIC_WB_Write_FLASH+0x3c>:
    6028:	00000000 e81d8100                                .....

0000602d <TWO_MIC_WB_Write_FLASH+0x41>:
    602d:	e81d81        	l32r	a8, a4 (9de0 <xt_memcpy>)
    6030:	412de2        	l32i	a14, a13, 0x104
    6033:	672db2        	l32i	a11, a13, 0x19c
    6036:	682dc2        	l32i	a12, a13, 0x1a0
    6039:	e8e391        	l32r	a9, 3c8 (55aa <beam1_proc+0x15e>)
    603c:	0f0c           	movi.n	a15, 0
    603e:	0352f2        	s16i	a15, a2, 6
    6041:	0452f2        	s16i	a15, a2, 8
    6044:	0552f2        	s16i	a15, a2, 10
    6047:	0652f2        	s16i	a15, a2, 12
    604a:	0752f2        	s16i	a15, a2, 14
    604d:	629d           	ae_s16i.n	a9, a2, 0
    604f:	31c0c0        	srai	a12, a12, 16
    6052:	31b0b0        	srai	a11, a11, 16
    6055:	31e0e0        	srai	a14, a14, 16
    6058:	0252e2        	s16i	a14, a2, 4
    605b:	0952b2        	s16i	a11, a2, 18
    605e:	0852c2        	s16i	a12, a2, 16
    6061:	eccab2        	addi	a11, a10, -20
    6064:	8c0c           	movi.n	a12, 8
    6066:	14c2a2        	addi	a10, a2, 20
    6069:	0008e0        	callx8	a8
    606c:	38c5b2        	addi	a11, a5, 56
    606f:	e80d81        	l32r	a8, a4 (9de0 <xt_memcpy>)
    6072:	24c2a2        	addi	a10, a2, 36
    6075:	0c1c           	movi.n	a12, 16
    6077:	0008e0        	callx8	a8
    607a:	24c4b2        	addi	a11, a4, 36
    607d:	e80981        	l32r	a8, a4 (9de0 <xt_memcpy>)
    6080:	44c2a2        	addi	a10, a2, 68
    6083:	8c0c           	movi.n	a12, 8
    6085:	0008e0        	callx8	a8
    6088:	24c3b2        	addi	a11, a3, 36
    608b:	e80681        	l32r	a8, a4 (9de0 <xt_memcpy>)
    608e:	54c2a2        	addi	a10, a2, 84
    6091:	8c0c           	movi.n	a12, 8
    6093:	0008e0        	callx8	a8
    6096:	080c           	movi.n	a8, 0
    6098:	0a0c           	movi.n	a10, 0
    609a:	30a092        	movi	a9, 48
    609d:	0b8976        	loop	a9, 60ac <TWO_MIC_WB_Write_FLASH+0xc0>
    60a0:	909820        	addx2	a9, a8, a2
    60a3:	029992        	l16si	a9, a9, 4
    60a6:	881b           	addi.n	a8, a8, 1
    60a8:	988d           	ae_zext16	a8, a8
    60aa:	aa9a           	add.n	a10, a10, a9

000060ac <TWO_MIC_WB_Write_FLASH+0xc0>:
    60ac:	72ad           	ae_s16i.n	a10, a2, 2
    60ae:	120c           	movi.n	a2, 1
    60b0:	f01d           	retw.n

000060b2 <TWO_MIC_WB_Write_FLASH+0xc6>:
    60b2:	02ad           	mov.n	a10, a2
    60b4:	6bdcb2        	addmi	a11, a12, 0x6b00
    60b7:	e7fb81        	l32r	a8, a4 (9de0 <xt_memcpy>)
    60ba:	90cbb2        	addi	a11, a11, -112
    60bd:	2c3c           	movi.n	a12, 50
    60bf:	0008e0        	callx8	a8
    60c2:	020c           	movi.n	a2, 0
    60c4:	f01d           	retw.n

000060c6 <TWO_MIC_WB_Write_FLASH+0xda>:
	...

000060c8 <FLASH_REF_GAIN_Preload>:
    60c8:	004136        	entry	a1, 32
    60cb:	3dd242        	addmi	a4, a2, 0x3d00
    60ce:	19d252        	addmi	a5, a2, 0x1900
    60d1:	10c462        	addi	a6, a4, 16
    60d4:	8e0442        	l8ui	a4, a4, 142
    60d7:	969582        	l16si	a8, a5, 0x12c
    60da:	34c552        	addi	a5, a5, 52
    60dd:	144040        	extui	a4, a4, 0, 2
    60e0:	072866        	bnei	a8, 2, 60eb <FLASH_REF_GAIN_Preload+0x23>
    60e3:	e8bb81        	l32r	a8, 3d0 (5f14 <TWO_MIC_WB_Preload>)
    60e6:	03ad           	mov.n	a10, a3
    60e8:	0008e0        	callx8	a8

000060eb <FLASH_REF_GAIN_Preload+0x23>:
    60eb:	07d416        	beqz	a4, 616c <FLASH_REF_GAIN_Preload+0xa4>
    60ee:	e8b9d1        	l32r	a13, 3d4 (6a80 <NB_NR_init+0x190>)
    60f1:	7b1426        	beqi	a4, 1, 6170 <FLASH_REF_GAIN_Preload+0xa8>

000060f4 <FLASH_REF_GAIN_Preload+0x2c>:
    60f4:	8295a2        	l16si	a10, a5, 0x104
    60f7:	7f0692        	l8ui	a9, a6, 127
    60fa:	0a6a37        	bbci	a10, 3, 6108 <FLASH_REF_GAIN_Preload+0x40>
    60fd:	11a980        	slli	a10, a9, 8
    6100:	10daa2        	addmi	a10, a10, 0x1000
    6103:	000286        	j	6111 <FLASH_REF_GAIN_Preload+0x49>

00006106 <FLASH_REF_GAIN_Preload+0x3e>:
	...

00006108 <FLASH_REF_GAIN_Preload+0x40>:
    6108:	a0a990        	addx4	a10, a9, a9
    610b:	11aab0        	slli	a10, a10, 5
    610e:	0adaa2        	addmi	a10, a10, 0xa00

00006111 <FLASH_REF_GAIN_Preload+0x49>:
    6111:	92da           	add.n	a9, a2, a13
    6113:	aa8b           	addi.n	a10, a10, 8
    6115:	21a4a0        	srai	a10, a10, 4
    6118:	09c9a4        	ae_s16ip	a10, a9, 2
    611b:	09c9a4        	ae_s16ip	a10, a9, 2
    611e:	09c9a4        	ae_s16ip	a10, a9, 2
    6121:	09c9a4        	ae_s16ip	a10, a9, 2
    6124:	09c9a4        	ae_s16ip	a10, a9, 2
    6127:	09c9a4        	ae_s16ip	a10, a9, 2
    612a:	09c9a4        	ae_s16ip	a10, a9, 2
    612d:	09c9a4        	ae_s16ip	a10, a9, 2

00006130 <FLASH_REF_GAIN_Preload+0x68>:
    6130:	6ad2b2        	addmi	a11, a2, 0x6a00
    6133:	409b92        	l16si	a9, a11, 128
    6136:	3bd2e2        	addmi	a14, a2, 0x3b00
    6139:	119900        	slli	a9, a9, 16
    613c:	676e92        	s32i	a9, a14, 0x19c
    613f:	666e92        	s32i	a9, a14, 0x198
    6142:	419b82        	l16si	a8, a11, 130
    6145:	118800        	slli	a8, a8, 16
    6148:	776e82        	s32i	a8, a14, 0x1dc
    614b:	766e82        	s32i	a8, a14, 0x1d8
    614e:	429bf2        	l16si	a15, a11, 132
    6151:	11ff00        	slli	a15, a15, 16
    6154:	876ef2        	s32i	a15, a14, 0x21c
    6157:	866ef2        	s32i	a15, a14, 0x218
    615a:	439bd2        	l16si	a13, a11, 134
    615d:	7c95c2        	l16si	a12, a5, 248
    6160:	11dd00        	slli	a13, a13, 16
    6163:	976ed2        	s32i	a13, a14, 0x25c
    6166:	966ed2        	s32i	a13, a14, 0x258
    6169:	3f2c26        	beqi	a12, 2, 61ac <FLASH_REF_GAIN_Preload+0xe4>
    616c:	f01d           	retw.n

0000616e <FLASH_REF_GAIN_Preload+0xa6>:
	...

00006170 <FLASH_REF_GAIN_Preload+0xa8>:
    6170:	e89ab1        	l32r	a11, 3d8 (5a5a <beam1_mid_band+0xf2>)
    6173:	3c93a2        	l16si	a10, a3, 120
    6176:	080c           	movi.n	a8, 0
    6178:	890c           	movi.n	a9, 8
    617a:	021ab7        	beq	a10, a11, 6180 <FLASH_REF_GAIN_Preload+0xb8>
    617d:	ffdcc6        	j	60f4 <FLASH_REF_GAIN_Preload+0x2c>
    6180:	0a0c           	movi.n	a10, 0
    6182:	3d93c2        	l16si	a12, a3, 122
    6185:	0d8976        	loop	a9, 6196 <FLASH_REF_GAIN_Preload+0xce>
    6188:	909830        	addx2	a9, a8, a3
    618b:	3e9992        	l16si	a9, a9, 124
    618e:	881b           	addi.n	a8, a8, 1
    6190:	988d           	ae_zext16	a8, a8
    6192:	99aa           	add.n	a9, a9, a10
    6194:	89ad           	ae_sext16	a10, a9

00006196 <FLASH_REF_GAIN_Preload+0xce>:
    6196:	c0cca0        	sub	a12, a12, a10
    6199:	f57c56        	bnez	a12, 60f4 <FLASH_REF_GAIN_Preload+0x2c>
    619c:	a2da           	add.n	a10, a2, a13
    619e:	e7c181        	l32r	a8, a4 (9de0 <xt_memcpy>)
    61a1:	7cc3b2        	addi	a11, a3, 124
    61a4:	8c0c           	movi.n	a12, 8
    61a6:	0008e0        	callx8	a8
    61a9:	ffe0c6        	j	6130 <FLASH_REF_GAIN_Preload+0x68>

000061ac <FLASH_REF_GAIN_Preload+0xe4>:
    61ac:	449be2        	l16si	a14, a11, 136
    61af:	37d2a2        	addmi	a10, a2, 0x3700
    61b2:	11ee00        	slli	a14, a14, 16
    61b5:	766ae2        	s32i	a14, a10, 0x1d8
    61b8:	776ae2        	s32i	a14, a10, 0x1dc
    61bb:	459bd2        	l16si	a13, a11, 138
    61be:	38d2e2        	addmi	a14, a2, 0x3800
    61c1:	11dd00        	slli	a13, a13, 16
    61c4:	666ed2        	s32i	a13, a14, 0x198
    61c7:	676ed2        	s32i	a13, a14, 0x19c
    61ca:	469bc2        	l16si	a12, a11, 140
    61cd:	11cc00        	slli	a12, a12, 16
    61d0:	866ac2        	s32i	a12, a10, 0x218
    61d3:	876ac2        	s32i	a12, a10, 0x21c
    61d6:	479b92        	l16si	a9, a11, 142
    61d9:	119900        	slli	a9, a9, 16
    61dc:	976a92        	s32i	a9, a10, 0x25c
    61df:	966a92        	s32i	a9, a10, 0x258
    61e2:	f01d           	retw.n

000061e4 <AEC_NR_Write_FLASH>:
    61e4:	006136        	entry	a1, 48
    61e7:	f97c           	movi.n	a9, -1
    61e9:	028d           	mov.n	a8, a2
    61eb:	0a5c           	movi.n	a10, 80
    61ed:	028a76        	loop	a10, 61f3 <AEC_NR_Write_FLASH+0xf>
    61f0:	09c894        	ae_s16ip	a9, a8, 2

000061f3 <AEC_NR_Write_FLASH+0xf>:
    61f3:	e87a81        	l32r	a8, 3dc (5fec <TWO_MIC_WB_Write_FLASH>)
    61f6:	20a220        	or	a10, a2, a2
    61f9:	0008e0        	callx8	a8
    61fc:	e7a051        	l32r	a5, 7c (ca94 <p_ecnr_mem>)
    61ff:	0548           	l32i.n	a4, a5, 0
    6201:	3dd442        	addmi	a4, a4, 0x3d00
    6204:	8e0442        	l8ui	a4, a4, 142
    6207:	0a3d           	mov.n	a3, a10
    6209:	390c           	movi.n	a9, 3
    620b:	028947        	bany	a9, a4, 6211 <AEC_NR_Write_FLASH+0x2d>
    620e:	0022c6        	j	629d <AEC_NR_Write_FLASH+0xb9>
    6211:	e87381        	l32r	a8, 3e0 (4470 <EC_REF_GAIN_READBACK>)
    6214:	01ad           	mov.n	a10, a1
    6216:	0008e0        	callx8	a8
    6219:	0578           	l32i.n	a7, a5, 0
    621b:	018d           	mov.n	a8, a1
    621d:	049240        	extui	a9, a4, 2, 1
    6220:	6bd7b2        	addmi	a11, a7, 0x6b00
    6223:	80cbb2        	addi	a11, a11, -128
    6226:	0aa956        	bnez	a9, 62d4 <AEC_NR_Write_FLASH+0xf0>
    6229:	5e1c           	movi.n	a14, 21
    622b:	0f0c           	movi.n	a15, 0
    622d:	050c           	movi.n	a5, 0
    622f:	4c0c           	movi.n	a12, 4
    6231:	6ad7a2        	addmi	a10, a7, 0x6a00
    6234:	84caa2        	addi	a10, a10, -124
    6237:	1fac76        	loopgtz	a12, 625a <AEC_NR_Write_FLASH+0x76>
    623a:	28dd           	ae_l16si.n	a13, a8, 0
    623c:	7e9a92        	l16si	a9, a10, 252
    623f:	882b           	addi.n	a8, a8, 2
    6241:	40edc0        	nsa	a12, a13
    6244:	c0cec0        	sub	a12, a14, a12
    6247:	c099d0        	sub	a9, a9, a13
    624a:	609190        	abs	a9, a9
    624d:	53ccf0        	max	a12, a12, a15
    6250:	04ac97        	bge	a12, a9, 6258 <AEC_NR_Write_FLASH+0x74>
    6253:	7e5ad2        	s16i	a13, a10, 252
    6256:	150c           	movi.n	a5, 1

00006258 <AEC_NR_Write_FLASH+0x74>:
    6258:	aa2b           	addi.n	a10, a10, 2

0000625a <AEC_NR_Write_FLASH+0x76>:
    625a:	1ad7d2        	addmi	a13, a7, 0x1a00
    625d:	169dd2        	l16si	a13, a13, 44
    6260:	056d           	mov.n	a6, a5
    6262:	050c           	movi.n	a5, 0
    6264:	392d66        	bnei	a13, 2, 62a1 <AEC_NR_Write_FLASH+0xbd>
    6267:	018d           	mov.n	a8, a1
    6269:	00a052        	movi	a5, 0
    626c:	04a092        	movi	a9, 4
    626f:	6ad7a2        	addmi	a10, a7, 0x6a00
    6272:	8ccaa2        	addi	a10, a10, -116
    6275:	21a976        	loopgtz	a9, 629a <AEC_NR_Write_FLASH+0xb6>
    6278:	0498d2        	l16si	a13, a8, 8
    627b:	7e9a92        	l16si	a9, a10, 252
    627e:	882b           	addi.n	a8, a8, 2
    6280:	40edc0        	nsa	a12, a13
    6283:	c0cec0        	sub	a12, a14, a12
    6286:	c099d0        	sub	a9, a9, a13
    6289:	609190        	abs	a9, a9
    628c:	53ccf0        	max	a12, a12, a15
    628f:	05ac97        	bge	a12, a9, 6298 <AEC_NR_Write_FLASH+0xb4>
    6292:	7e5ad2        	s16i	a13, a10, 252
    6295:	01a052        	movi	a5, 1

00006298 <AEC_NR_Write_FLASH+0xb4>:
    6298:	aa2b           	addi.n	a10, a10, 2

0000629a <AEC_NR_Write_FLASH+0xb6>:
    629a:	0000c6        	j	62a1 <AEC_NR_Write_FLASH+0xbd>

0000629d <AEC_NR_Write_FLASH+0xb9>:
    629d:	0a2d           	mov.n	a2, a10
    629f:	f01d           	retw.n

000062a1 <AEC_NR_Write_FLASH+0xbd>:
    62a1:	78c242        	addi	a4, a2, 120
    62a4:	7cc2a2        	addi	a10, a2, 124
    62a7:	8c0c           	movi.n	a12, 8
    62a9:	e77e81        	l32r	a8, a4 (9de0 <xt_memcpy>)
    62ac:	e84b91        	l32r	a9, 3d8 (5a5a <beam1_mid_band+0xf2>)
    62af:	3c5292        	s16i	a9, a2, 120
    62b2:	0008e0        	callx8	a8
    62b5:	080c           	movi.n	a8, 0
    62b7:	0a0c           	movi.n	a10, 0
    62b9:	890c           	movi.n	a9, 8
    62bb:	202350        	or	a2, a3, a5
    62be:	202620        	or	a2, a6, a2
    62c1:	0b8976        	loop	a9, 62d0 <AEC_NR_Write_FLASH+0xec>
    62c4:	909840        	addx2	a9, a8, a4
    62c7:	029992        	l16si	a9, a9, 4
    62ca:	881b           	addi.n	a8, a8, 1
    62cc:	988d           	ae_zext16	a8, a8
    62ce:	aa9a           	add.n	a10, a10, a9

000062d0 <AEC_NR_Write_FLASH+0xec>:
    62d0:	74ad           	ae_s16i.n	a10, a4, 2
    62d2:	f01d           	retw.n

000062d4 <AEC_NR_Write_FLASH+0xf0>:
    62d4:	060c           	movi.n	a6, 0
    62d6:	050c           	movi.n	a5, 0
    62d8:	fff146        	j	62a1 <AEC_NR_Write_FLASH+0xbd>

000062db <AEC_NR_Write_FLASH+0xf7>:
    62db:	00000000 00413600                                .....

000062e0 <fill_vad_thrd_Nbands>:
    62e0:	004136        	entry	a1, 32
    62e3:	037d           	mov.n	a7, a3
    62e5:	e83f81        	l32r	a8, 3e4 (7f80 <NR_vad2+0x64>)
    62e8:	026d           	mov.n	a6, a2
    62ea:	050c           	movi.n	a5, 0
    62ec:	052d           	mov.n	a2, a5
    62ee:	1ba476        	loopgtz	a4, 630d <fill_vad_thrd_Nbands+0x2d>
    62f1:	903270        	addx2	a3, a2, a7
    62f4:	a05260        	addx4	a5, a2, a6
    62f7:	433d           	ae_l16ui.n	a3, a3, 0
    62f9:	221b           	addi.n	a2, a2, 1
    62fb:	822d           	ae_sext16	a2, a2
    62fd:	214130        	srai	a4, a3, 1
    6300:	743030        	extui	a3, a3, 0, 8
    6303:	113390        	slli	a3, a3, 7
    6306:	104480        	and	a4, a4, a8
    6309:	654d           	ae_s16i.n	a4, a5, 0
    630b:	753d           	ae_s16i.n	a3, a5, 2

0000630d <fill_vad_thrd_Nbands+0x2d>:
    630d:	f01d           	retw.n

0000630f <fill_vad_thrd_Nbands+0x2f>:
	...

00006310 <fill_EQ_gain>:
    6310:	004136        	entry	a1, 32
    6313:	036d           	mov.n	a6, a3
    6315:	4514a6        	blti	a4, 1, 635e <fill_EQ_gain+0x4e>
    6318:	213340        	srai	a3, a4, 3
    631b:	245040        	extui	a5, a4, 0, 3
    631e:	06a576        	loopgtz	a5, 6328 <fill_EQ_gain+0x18>
    6321:	268d           	ae_l16si.n	a8, a6, 0
    6323:	09c284        	ae_s16ip	a8, a2, 2
    6326:	662b           	addi.n	a6, a6, 2

00006328 <fill_EQ_gain+0x18>:
    6328:	024d           	mov.n	a4, a2
    632a:	30a376        	loopgtz	a3, 635e <fill_EQ_gain+0x4e>
    632d:	263d           	ae_l16si.n	a3, a6, 0
    632f:	09c434        	ae_s16ip	a3, a4, 2
    6332:	363d           	ae_l16si.n	a3, a6, 2
    6334:	09c434        	ae_s16ip	a3, a4, 2
    6337:	029632        	l16si	a3, a6, 4
    633a:	09c434        	ae_s16ip	a3, a4, 2
    633d:	039632        	l16si	a3, a6, 6
    6340:	09c434        	ae_s16ip	a3, a4, 2
    6343:	049632        	l16si	a3, a6, 8
    6346:	09c434        	ae_s16ip	a3, a4, 2
    6349:	059632        	l16si	a3, a6, 10
    634c:	09c434        	ae_s16ip	a3, a4, 2
    634f:	069632        	l16si	a3, a6, 12
    6352:	09c434        	ae_s16ip	a3, a4, 2
    6355:	079632        	l16si	a3, a6, 14
    6358:	09c434        	ae_s16ip	a3, a4, 2
    635b:	10c662        	addi	a6, a6, 16

0000635e <fill_EQ_gain+0x4e>:
    635e:	f01d           	retw.n

00006360 <complement_para>:
    6360:	004136        	entry	a1, 32
    6363:	e7ff41        	l32r	a4, 360 (ffff8000 <_end+0xfffeb560>)
    6366:	623d           	ae_s16i.n	a3, a2, 0
    6368:	c04430        	sub	a4, a4, a3
    636b:	724d           	ae_s16i.n	a4, a2, 2
    636d:	f01d           	retw.n

0000636f <complement_para+0xf>:
	...

00006370 <Mel_init>:
    6370:	006136        	entry	a1, 48
    6373:	e74281        	l32r	a8, 7c (ca94 <p_ecnr_mem>)
    6376:	0888           	l32i.n	a8, a8, 0
    6378:	b30b           	addi.n	a11, a3, -1
    637a:	0fd222        	addmi	a2, a2, 0xf00
    637d:	12d892        	addmi	a9, a8, 0x1200
    6380:	10d8a2        	addmi	a10, a8, 0x1000
    6383:	c862a2        	s32i	a10, a2, 0x320
    6386:	c92b           	addi.n	a12, a9, 2
    6388:	c962c2        	s32i	a12, a2, 0x324
    638b:	0ffb16        	beqz	a11, 648e <Mel_init+0x11e>
    638e:	fec3b2        	addi	a11, a3, -2
    6391:	140b16        	beqz	a11, 64d5 <Mel_init+0x165>
    6394:	e81541        	l32r	a4, 3e8 (b610 <Coef_16>)
    6397:	353366        	bnei	a3, 3, 63d0 <Mel_init+0x60>
    639a:	01a1c2        	movi	a12, 0x101
    639d:	28c9b2        	addi	a11, a9, 40
    63a0:	ca62b2        	s32i	a11, a2, 0x328
    63a3:	14d892        	addmi	a9, a8, 0x1400
    63a6:	e811b1        	l32r	a11, 3ec (b7f0 <Norm_gain_16>)
    63a9:	e73e81        	l32r	a8, a4 (9de0 <xt_memcpy>)
    63ac:	996b           	addi.n	a9, a9, 6
    63ae:	cb6292        	s32i	a9, a2, 0x32c
    63b1:	0008e0        	callx8	a8
    63b4:	c922a2        	l32i	a10, a2, 0x324
    63b7:	e73b81        	l32r	a8, a4 (9de0 <xt_memcpy>)
    63ba:	e80db1        	l32r	a11, 3f0 (ba00 <Index_16>)
    63bd:	3c1c           	movi.n	a12, 19
    63bf:	0008e0        	callx8	a8
    63c2:	ca22a2        	l32i	a10, a2, 0x328
    63c5:	e73781        	l32r	a8, a4 (9de0 <xt_memcpy>)
    63c8:	04bd           	mov.n	a11, a4
    63ca:	efa0c2        	movi	a12, 239
    63cd:	0008e0        	callx8	a8

000063d0 <Mel_init+0x60>:
    63d0:	cb2292        	l32i	a9, a2, 0x32c
    63d3:	231c           	movi.n	a3, 18
    63d5:	fec992        	addi	a9, a9, -2

000063d8 <Mel_init+0x68>:
    63d8:	1133f0        	slli	a3, a3, 1
    63db:	0e0c           	movi.n	a14, 0
    63dd:	0d0c           	movi.n	a13, 0
    63df:	e805f1        	l32r	a15, 3f4 (7fff00 <_end+0x7f3460>)
    63e2:	00a1a2        	movi	a10, 0x100
    63e5:	00a2b2        	movi	a11, 0x200
    63e8:	39abb4        	ae_movpa24x2	aep2, a11, a11
    63eb:	fe20a21aaf 	{ ae_movpa24x2	aep1, a10, a10; ae_zerop48	aep4 }
    63f0:	000246        	j	63fd <Mel_init+0x8d>

000063f3 <Mel_init+0x83>:
	...

000063f4 <Mel_init+0x84>:
    63f4:	398ff4        	ae_movpa24x2	aep0, a15, a15
    63f7:	428914        	ae_sp16f.l.iu	aep0, a9, 2

000063fa <Mel_init+0x8a>:
    63fa:	08dc16        	beqz	a12, 648b <Mel_init+0x11b>

000063fd <Mel_init+0x8d>:
    63fd:	c92282        	l32i	a8, a2, 0x324
    6400:	415e84        	ae_lp16f.x	aep5, a14, a8
    6403:	8e8a           	add.n	a8, a14, a8
    6405:	403814        	ae_lp16f.i	aep3, a8, 2
    6408:	07b584        	ae_subsp24s	aep0, aep3, aep5
    640b:	198904        	ae_eqp24	b0:b1, aep0, aep1
    640e:	dd42c02eee 	{ addi	a14, a14, 2; ae_subsp24s	aep3, aep0, aep2 }
    6413:	d28095ce3f 	{ sub	a12, a14, a3; ae_eqp24	b2:b3, aep0, aep4 }
    6418:	d81076        	bt	b0, 63f4 <Mel_init+0x84>
    641b:	db1276        	bt	b2, 63fa <Mel_init+0x8a>
    641e:	423104        	ae_sp16f.l.i	aep3, a1, 0
    6421:	218d           	ae_l16si.n	a8, a1, 0
    6423:	39eff4        	ae_movpa24x2	aep6, a15, a15
    6426:	42e914        	ae_sp16f.l.iu	aep6, a9, 2
    6429:	fcd896        	bltz	a8, 63fa <Mel_init+0x8a>
    642c:	581b           	addi.n	a5, a8, 1
    642e:	05ad           	mov.n	a10, a5
    6430:	24b050        	extui	a11, a5, 0, 3
    6433:	908d40        	addx2	a8, a13, a4
    6436:	fec882        	addi	a8, a8, -2
    6439:	07ab76        	loopgtz	a11, 6444 <Mel_init+0xd4>
    643c:	dd1b           	addi.n	a13, a13, 1
    643e:	40f814        	ae_lp16f.iu	aep7, a8, 2
    6441:	42f914        	ae_sp16f.l.iu	aep7, a9, 2

00006444 <Mel_init+0xd4>:
    6444:	21b3a0        	srai	a11, a10, 3
    6447:	31ab76        	loopgtz	a11, 647c <Mel_init+0x10c>
    644a:	400814        	ae_lp16f.i	aep0, a8, 2
    644d:	dd8b           	addi.n	a13, a13, 8
    644f:	420914        	ae_sp16f.l.i	aep0, a9, 2
    6452:	400824        	ae_lp16f.i	aep0, a8, 4
    6455:	420924        	ae_sp16f.l.i	aep0, a9, 4
    6458:	400834        	ae_lp16f.i	aep0, a8, 6
    645b:	420934        	ae_sp16f.l.i	aep0, a9, 6
    645e:	400844        	ae_lp16f.i	aep0, a8, 8
    6461:	420944        	ae_sp16f.l.i	aep0, a9, 8
    6464:	400854        	ae_lp16f.i	aep0, a8, 10
    6467:	420954        	ae_sp16f.l.i	aep0, a9, 10
    646a:	400864        	ae_lp16f.i	aep0, a8, 12
    646d:	420964        	ae_sp16f.l.i	aep0, a9, 12
    6470:	408874        	ae_lp16f.iu	aep0, a8, 14
    6473:	428974        	ae_sp16f.l.iu	aep0, a9, 14
    6476:	408814        	ae_lp16f.iu	aep0, a8, 2
    6479:	428914        	ae_sp16f.l.iu	aep0, a9, 2
    647c:	908d40        	addx2	a8, a13, a4
    647f:	05a576        	loopgtz	a5, 6488 <Mel_init+0x118>
    6482:	4088f4        	ae_lp16f.iu	aep0, a8, -2
    6485:	428914        	ae_sp16f.l.iu	aep0, a9, 2
    6488:	ffdb86        	j	63fa <Mel_init+0x8a>

0000648b <Mel_init+0x11b>:
    648b:	f01d           	retw.n

0000648d <Mel_init+0x11d>:
	...

0000648e <Mel_init+0x11e>:
    648e:	234c           	movi.n	a3, 66
    6490:	01a1c2        	movi	a12, 0x101
    6493:	e7da41        	l32r	a4, 3fc (add0 <Coef_64>)
    6496:	13d8b2        	addmi	a11, a8, 0x1300
    6499:	14d892        	addmi	a9, a8, 0x1400
    649c:	998b           	addi.n	a9, a9, 8
    649e:	88cbb2        	addi	a11, a11, -120
    64a1:	ca62b2        	s32i	a11, a2, 0x328
    64a4:	e70081        	l32r	a8, a4 (9de0 <xt_memcpy>)
    64a7:	cb6292        	s32i	a9, a2, 0x32c
    64aa:	e7d3b1        	l32r	a11, 3f8 (af50 <Norm_gain_64>)
    64ad:	0008e0        	callx8	a8
    64b0:	c922a2        	l32i	a10, a2, 0x324
    64b3:	e6fc81        	l32r	a8, a4 (9de0 <xt_memcpy>)
    64b6:	e7d2b1        	l32r	a11, 400 (b160 <Index_64>)
    64b9:	3c4c           	movi.n	a12, 67
    64bb:	0008e0        	callx8	a8
    64be:	04bd           	mov.n	a11, a4
    64c0:	e6f981        	l32r	a8, a4 (9de0 <xt_memcpy>)
    64c3:	ca22a2        	l32i	a10, a2, 0x328
    64c6:	c0a0c2        	movi	a12, 192
    64c9:	0008e0        	callx8	a8

000064cc <Mel_init+0x15c>:
    64cc:	cb2292        	l32i	a9, a2, 0x32c
    64cf:	fec992        	addi	a9, a9, -2
    64d2:	ffc086        	j	63d8 <Mel_init+0x68>

000064d5 <Mel_init+0x165>:
    64d5:	232c           	movi.n	a3, 34
    64d7:	01a1c2        	movi	a12, 0x101
    64da:	e7cb41        	l32r	a4, 408 (b1f0 <Coef_32>)
    64dd:	48c9b2        	addi	a11, a9, 72
    64e0:	ca62b2        	s32i	a11, a2, 0x328
    64e3:	14d892        	addmi	a9, a8, 0x1400
    64e6:	e7c7b1        	l32r	a11, 404 (b3b0 <Norm_gain_32>)
    64e9:	e6ee81        	l32r	a8, a4 (9de0 <xt_memcpy>)
    64ec:	996b           	addi.n	a9, a9, 6
    64ee:	cb6292        	s32i	a9, a2, 0x32c
    64f1:	0008e0        	callx8	a8
    64f4:	c922a2        	l32i	a10, a2, 0x324
    64f7:	e6eb81        	l32r	a8, a4 (9de0 <xt_memcpy>)
    64fa:	e7c4b1        	l32r	a11, 40c (b5c0 <Index_32>)
    64fd:	3c2c           	movi.n	a12, 35
    64ff:	0008e0        	callx8	a8
    6502:	04bd           	mov.n	a11, a4
    6504:	e6e881        	l32r	a8, a4 (9de0 <xt_memcpy>)
    6507:	ca22a2        	l32i	a10, a2, 0x328
    650a:	dfa0c2        	movi	a12, 223
    650d:	0008e0        	callx8	a8
    6510:	ffee06        	j	64cc <Mel_init+0x15c>

00006513 <Mel_init+0x1a3>:
	...

00006514 <WB_NR_init>:
    6514:	006136        	entry	a1, 48
    6517:	006132        	s32i	a3, a1, 0
    651a:	20a220        	or	a10, a2, a2
    651d:	e6df81        	l32r	a8, 9c (9dc8 <xt_memset>)
    6520:	00a0b2        	movi	a11, 0
    6523:	e7bbc1        	l32r	a12, 410 (920 <PD_INIT+0x70>)
    6526:	0008e0        	callx8	a8
    6529:	e6d4c1        	l32r	a12, 7c (ca94 <p_ecnr_mem>)
    652c:	328b           	addi.n	a3, a2, 8
    652e:	01b8           	l32i.n	a11, a1, 0
    6530:	0fd252        	addmi	a5, a2, 0xf00
    6533:	02d462        	addmi	a6, a4, 0x200
    6536:	0ed272        	addmi	a7, a2, 0xe00
    6539:	09d2a2        	addmi	a10, a2, 0x900
    653c:	24caa2        	addi	a10, a10, 36
    653f:	f0c772        	addi	a7, a7, -16
    6542:	c8c662        	addi	a6, a6, -56
    6545:	88c552        	addi	a5, a5, -120
    6548:	1a7b16        	beqz	a11, 66f3 <WB_NR_init+0x1df>
    654b:	e7b281        	l32r	a8, 414 (6360 <complement_para>)
    654e:	4b1492        	l16ui	a9, a4, 150
    6551:	4a14b2        	l16ui	a11, a4, 148
    6554:	4414c2        	l16ui	a12, a4, 136
    6557:	4314d2        	l16ui	a13, a4, 134
    655a:	4214e2        	l16ui	a14, a4, 132
    655d:	4d14f2        	l16ui	a15, a4, 154
    6560:	1052f2        	s16i	a15, a2, 32
    6563:	0252e2        	s16i	a14, a2, 4
    6566:	1152d2        	s16i	a13, a2, 34
    6569:	0352c2        	s16i	a12, a2, 6
    656c:	0e52b2        	s16i	a11, a2, 28
    656f:	0f5292        	s16i	a9, a2, 30
    6572:	4c94b2        	l16si	a11, a4, 152
    6575:	0008e0        	callx8	a8
    6578:	03ad           	mov.n	a10, a3
    657a:	5c0c           	movi.n	a12, 5
    657c:	e7a781        	l32r	a8, 418 (62e0 <fill_vad_thrd_Nbands>)
    657f:	01d4b2        	addmi	a11, a4, 0x100
    6582:	8acbb2        	addi	a11, a11, -118
    6585:	0008e0        	callx8	a8
    6588:	06bd           	mov.n	a11, a6
    658a:	e7a481        	l32r	a8, 41c (6310 <fill_EQ_gain>)
    658d:	07ad           	mov.n	a10, a7
    658f:	00a1c2        	movi	a12, 0x100
    6592:	0008e0        	callx8	a8
    6595:	0b0c           	movi.n	a11, 0
    6597:	6c0c           	movi.n	a12, 6
    6599:	e6b8a1        	l32r	a10, 7c (ca94 <p_ecnr_mem>)
    659c:	1e0c           	movi.n	a14, 1
    659e:	3202d2        	l8ui	a13, a2, 50
    65a1:	e79ff1        	l32r	a15, 420 (c760 <win_rx_512_v3>)
    65a4:	e565f2        	s32i	a15, a5, 0x394
    65a7:	20dde0        	or	a13, a13, a14
    65aa:	3242d2        	s8i	a13, a2, 50
    65ad:	0aa8           	l32i.n	a10, a10, 0
    65af:	e6bb81        	l32r	a8, 9c (9dc8 <xt_memset>)
    65b2:	4e14e2        	l16ui	a14, a4, 156
    65b5:	69dad2        	addmi	a13, a10, 0x6900
    65b8:	b65de2        	s16i	a14, a13, 0x16c
    65bb:	6adaa2        	addmi	a10, a10, 0x6a00
    65be:	70caa2        	addi	a10, a10, 112
    65c1:	4f1492        	l16ui	a9, a4, 158
    65c4:	b75d92        	s16i	a9, a13, 0x16e
    65c7:	0008e0        	callx8	a8

000065ca <WB_NR_init+0xb6>:
    65ca:	36c2a2        	addi	a10, a2, 54
    65cd:	e795c1        	l32r	a12, 424 (ffffb800 <_end+0xfffeed60>)
    65d0:	e796d1        	l32r	a13, 428 (b8000000 <_end+0xb7ff3560>)
    65d3:	119252        	l16si	a5, a2, 34
    65d6:	11d232        	addmi	a3, a2, 0x1100
    65d9:	0e9282        	l16si	a8, a2, 28
    65dc:	9e5382        	s16i	a8, a3, 0x13c
    65df:	9f5352        	s16i	a5, a3, 0x13e
    65e2:	980c           	movi.n	a8, 9
    65e4:	01d252        	addmi	a5, a2, 0x100
    65e7:	28c332        	addi	a3, a3, 40
    65ea:	7cc552        	addi	a5, a5, 124
    65ed:	059d           	mov.n	a9, a5
    65ef:	2ca876        	loopgtz	a8, 661f <WB_NR_init+0x10b>
    65f2:	0abd           	mov.n	a11, a10
    65f4:	09d9           	s32i.n	a13, a9, 0
    65f6:	994b           	addi.n	a9, a9, 4
    65f8:	09cac4        	ae_s16ip	a12, a10, 2
    65fb:	09cac4        	ae_s16ip	a12, a10, 2
    65fe:	09cac4        	ae_s16ip	a12, a10, 2
    6601:	09cac4        	ae_s16ip	a12, a10, 2
    6604:	09cac4        	ae_s16ip	a12, a10, 2
    6607:	09cac4        	ae_s16ip	a12, a10, 2
    660a:	09cac4        	ae_s16ip	a12, a10, 2
    660d:	09cac4        	ae_s16ip	a12, a10, 2
    6610:	09cac4        	ae_s16ip	a12, a10, 2
    6613:	09cac4        	ae_s16ip	a12, a10, 2
    6616:	09cac4        	ae_s16ip	a12, a10, 2
    6619:	09cac4        	ae_s16ip	a12, a10, 2
    661c:	18cba2        	addi	a10, a11, 24

0000661f <WB_NR_init+0x10b>:
    661f:	2e94b2        	l16si	a11, a4, 92
    6622:	e77c81        	l32r	a8, 414 (6360 <complement_para>)
    6625:	09d2a2        	addmi	a10, a2, 0x900
    6628:	10caa2        	addi	a10, a10, 16
    662b:	0008e0        	callx8	a8
    662e:	2f94b2        	l16si	a11, a4, 94
    6631:	e77881        	l32r	a8, 414 (6360 <complement_para>)
    6634:	09d2a2        	addmi	a10, a2, 0x900
    6637:	14caa2        	addi	a10, a10, 20
    663a:	0008e0        	callx8	a8
    663d:	3094b2        	l16si	a11, a4, 96
    6640:	e77581        	l32r	a8, 414 (6360 <complement_para>)
    6643:	09d2a2        	addmi	a10, a2, 0x900
    6646:	18caa2        	addi	a10, a10, 24
    6649:	0008e0        	callx8	a8
    664c:	3194b2        	l16si	a11, a4, 98
    664f:	e77181        	l32r	a8, 414 (6360 <complement_para>)
    6652:	09d2a2        	addmi	a10, a2, 0x900
    6655:	1ccaa2        	addi	a10, a10, 28
    6658:	0008e0        	callx8	a8
    665b:	3294b2        	l16si	a11, a4, 100
    665e:	e76d81        	l32r	a8, 414 (6360 <complement_para>)
    6661:	09d2a2        	addmi	a10, a2, 0x900
    6664:	20caa2        	addi	a10, a10, 32
    6667:	0008e0        	callx8	a8
    666a:	9b6c           	movi.n	a11, -23
    666c:	00a1d2        	movi	a13, 0x100
    666f:	08d2c2        	addmi	a12, a2, 0x800
    6672:	0e6c           	movi.n	a14, -32
    6674:	1f0c           	movi.n	a15, 1
    6676:	e68181        	l32r	a8, 7c (ca94 <p_ecnr_mem>)
    6679:	ea6c           	movi.n	a10, -18
    667b:	990c           	movi.n	a9, 9
    667d:	344292        	s8i	a9, a2, 52
    6680:	3542a2        	s8i	a10, a2, 53
    6683:	0498           	l32i.n	a9, a4, 0
    6685:	0299           	s32i.n	a9, a2, 0
    6687:	0888           	l32i.n	a8, a8, 0
    6689:	10d992        	addmi	a9, a9, 0x1000
    668c:	dcc9a2        	addi	a10, a9, -36
    668f:	28d882        	addmi	a8, a8, 0x2800
    6692:	b8c992        	addi	a9, a9, -72
    6695:	3c63a2        	s32i	a10, a3, 240
    6698:	f8c882        	addi	a8, a8, -8
    669b:	8094a2        	l16si	a10, a4, 0x100
    669e:	3a6382        	s32i	a8, a3, 232
    66a1:	3b6392        	s32i	a9, a3, 236
    66a4:	24c582        	addi	a8, a5, 36
    66a7:	e68c91        	l32r	a9, d8 (7fff0000 <_end+0x7ffe3560>)
    66aa:	1852f2        	s16i	a15, a2, 48
    66ad:	975ce2        	s16i	a14, a12, 0x12e
    66b0:	1552d2        	s16i	a13, a2, 42
    66b3:	955cb2        	s16i	a11, a12, 0x12a
    66b6:	426392        	s32i	a9, a3, 0x108
    66b9:	436392        	s32i	a9, a3, 0x10c
    66bc:	8953a2        	s16i	a10, a3, 0x112
    66bf:	7894a2        	l16si	a10, a4, 240
    66c2:	8853a2        	s16i	a10, a3, 0x110
    66c5:	e71a91        	l32r	a9, 330 (40000000 <_end+0x3fff3560>)
    66c8:	041aa6        	blti	a10, 1, 66d0 <WB_NR_init+0x1bc>
    66cb:	5b1c           	movi.n	a11, 21
    66cd:	04aba7        	bge	a11, a10, 66d5 <WB_NR_init+0x1c1>

000066d0 <WB_NR_init+0x1bc>:
    66d0:	cc0c           	movi.n	a12, 12
    66d2:	8853c2        	s16i	a12, a3, 0x110

000066d5 <WB_NR_init+0x1c1>:
    66d5:	eea0a2        	movi	a10, 238
    66d8:	028a76        	loop	a10, 66de <WB_NR_init+0x1ca>
    66db:	09e894        	ae_s32ip	a9, a8, 4

000066de <WB_NR_init+0x1ca>:
    66de:	3202d2        	l8ui	a13, a2, 50
    66e1:	03ed17        	bbsi	a13, 1, 66e8 <WB_NR_init+0x1d4>
    66e4:	f01d           	retw.n

000066e6 <WB_NR_init+0x1d2>:
	...

000066e8 <WB_NR_init+0x1d4>:
    66e8:	e75181        	l32r	a8, 42c (8b0 <PD_INIT>)
    66eb:	02a8           	l32i.n	a10, a2, 0
    66ed:	0008e0        	callx8	a8
    66f0:	f01d           	retw.n

000066f2 <WB_NR_init+0x1de>:
	...

000066f3 <WB_NR_init+0x1df>:
    66f3:	2d1492        	l16ui	a9, a4, 90
    66f6:	221482        	l16ui	a8, a4, 68
    66f9:	2a14d2        	l16ui	a13, a4, 84
    66fc:	2414e2        	l16ui	a14, a4, 72
    66ff:	0cc8           	l32i.n	a12, a12, 0
    6701:	2314f2        	l16ui	a15, a4, 70
    6704:	1b0c           	movi.n	a11, 1
    6706:	1adcc2        	addmi	a12, a12, 0x1a00
    6709:	175cb2        	s16i	a11, a12, 46
    670c:	1152f2        	s16i	a15, a2, 34
    670f:	0352e2        	s16i	a14, a2, 6
    6712:	0e52d2        	s16i	a13, a2, 28
    6715:	025282        	s16i	a8, a2, 4
    6718:	105292        	s16i	a9, a2, 32
    671b:	e194b2        	l16si	a11, a4, 0x1c2
    671e:	2b14c2        	l16ui	a12, a4, 86
    6721:	0f52c2        	s16i	a12, a2, 30
    6724:	1252b2        	s16i	a11, a2, 36
    6727:	e29492        	l16si	a9, a4, 0x1c4
    672a:	e73a81        	l32r	a8, 414 (6360 <complement_para>)
    672d:	135292        	s16i	a9, a2, 38
    6730:	2c94b2        	l16si	a11, a4, 88
    6733:	0008e0        	callx8	a8
    6736:	03ad           	mov.n	a10, a3
    6738:	e73881        	l32r	a8, 418 (62e0 <fill_vad_thrd_Nbands>)
    673b:	4ac4b2        	addi	a11, a4, 74
    673e:	5c0c           	movi.n	a12, 5
    6740:	0008e0        	callx8	a8
    6743:	06bd           	mov.n	a11, a6
    6745:	e73581        	l32r	a8, 41c (6310 <fill_EQ_gain>)
    6748:	07ad           	mov.n	a10, a7
    674a:	00a1c2        	movi	a12, 0x100
    674d:	0008e0        	callx8	a8
    6750:	3395b2        	l16si	a11, a5, 102
    6753:	ab3b           	addi.n	a10, a11, 3
    6755:	b3abb0        	movgez	a10, a11, a11
    6758:	21a2a0        	srai	a10, a10, 2
    675b:	3355a2        	s16i	a10, a5, 102
    675e:	1292b2        	l16si	a11, a2, 36
    6761:	e73391        	l32r	a9, 430 (c540 <win_512_v3>)
    6764:	e56592        	s32i	a9, a5, 0x394
    6767:	6b8c           	beqz.n	a11, 6771 <WB_NR_init+0x25d>
    6769:	e73281        	l32r	a8, 434 (6370 <Mel_init>)
    676c:	02ad           	mov.n	a10, a2
    676e:	0008e0        	callx8	a8

00006771 <WB_NR_init+0x25d>:
    6771:	041492        	l16ui	a9, a4, 8
    6774:	6a0c           	movi.n	a10, 6
    6776:	1099a0        	and	a9, a9, a10
    6779:	fec992        	addi	a9, a9, -2
    677c:	e4a956        	bnez	a9, 65ca <WB_NR_init+0xb6>
    677f:	3202b2        	l8ui	a11, a2, 50
    6782:	2c0c           	movi.n	a12, 2
    6784:	20bbc0        	or	a11, a11, a12
    6787:	3242b2        	s8i	a11, a2, 50
    678a:	ff8f06        	j	65ca <WB_NR_init+0xb6>

0000678d <WB_NR_init+0x279>:
    678d:	000000                                        ...

00006790 <WB_RX_NR_init>:
    6790:	004136        	entry	a1, 32
    6793:	03bd           	mov.n	a11, a3
    6795:	04cd           	mov.n	a12, a4
    6797:	e63931        	l32r	a3, 7c (ca94 <p_ecnr_mem>)
    679a:	e72781        	l32r	a8, 438 (9b68 <RX_ECNR_PARA_init>)
    679d:	0a0c           	movi.n	a10, 0
    679f:	006322        	s32i	a2, a3, 0
    67a2:	0008e0        	callx8	a8
    67a5:	e63e21        	l32r	a2, a0 (ca9c <aec_nr_para>)
    67a8:	03a8           	l32i.n	a10, a3, 0
    67aa:	e6a481        	l32r	a8, 23c (2fb8 <HP_coef_setup>)
    67ad:	02b8           	l32i.n	a11, a2, 0
    67af:	6adaa2        	addmi	a10, a10, 0x6a00
    67b2:	38caa2        	addi	a10, a10, 56
    67b5:	01dbb2        	addmi	a11, a11, 0x100
    67b8:	34cbb2        	addi	a11, a11, 52
    67bb:	0008e0        	callx8	a8
    67be:	02c8           	l32i.n	a12, a2, 0
    67c0:	03a8           	l32i.n	a10, a3, 0
    67c2:	1b0c           	movi.n	a11, 1
    67c4:	e71e81        	l32r	a8, 43c (6514 <WB_NR_init>)
    67c7:	58daa2        	addmi	a10, a10, 0x5800
    67ca:	f8caa2        	addi	a10, a10, -8
    67cd:	0008e0        	callx8	a8
    67d0:	f01d           	retw.n

000067d2 <WB_RX_NR_init+0x42>:
	...

000067d4 <WB_RX_NR_frame_process>:
    67d4:	004136        	entry	a1, 32
    67d7:	e62941        	l32r	a4, 7c (ca94 <p_ecnr_mem>)
    67da:	e71931        	l32r	a3, 440 (6a6c <NB_NR_init+0x17c>)
    67dd:	02ad           	mov.n	a10, a2
    67df:	04b8           	l32i.n	a11, a4, 0
    67e1:	f0a0d2        	movi	a13, 240
    67e4:	e6af81        	l32r	a8, 2a0 (33d8 <emph_filter_N>)
    67e7:	6adbc2        	addmi	a12, a11, 0x6a00
    67ea:	6cccb2        	addi	a11, a12, 108
    67ed:	70ccc2        	addi	a12, a12, 112
    67f0:	0008e0        	callx8	a8
    67f3:	02bd           	mov.n	a11, a2
    67f5:	04a8           	l32i.n	a10, a4, 0
    67f7:	02cd           	mov.n	a12, a2
    67f9:	e6c081        	l32r	a8, 2fc (6864 <WB_NR_frame_process>)
    67fc:	24dad2        	addmi	a13, a10, 0x2400
    67ff:	f8cdd2        	addi	a13, a13, -8
    6802:	58daa2        	addmi	a10, a10, 0x5800
    6805:	f8caa2        	addi	a10, a10, -8
    6808:	0008e0        	callx8	a8
    680b:	02ad           	mov.n	a10, a2
    680d:	04c8           	l32i.n	a12, a4, 0
    680f:	f0a0d2        	movi	a13, 240
    6812:	e6bd81        	l32r	a8, 308 (3424 <deemph_filter_N>)
    6815:	bc3a           	add.n	a11, a12, a3
    6817:	6adcc2        	addmi	a12, a12, 0x6a00
    681a:	74ccc2        	addi	a12, a12, 116
    681d:	0008e0        	callx8	a8
    6820:	f01d           	retw.n

00006822 <WB_RX_NR_frame_process+0x4e>:
	...

00006824 <WB_TX_NR_init>:
    6824:	004136        	entry	a1, 32
    6827:	e615a1        	l32r	a10, 7c (ca94 <p_ecnr_mem>)
    682a:	0b0c           	movi.n	a11, 0
    682c:	e61dc1        	l32r	a12, a0 (ca9c <aec_nr_para>)
    682f:	0aa8           	l32i.n	a10, a10, 0
    6831:	e70281        	l32r	a8, 43c (6514 <WB_NR_init>)
    6834:	002cc2        	l32i	a12, a12, 0
    6837:	3fdaa2        	addmi	a10, a10, 0x3f00
    683a:	78caa2        	addi	a10, a10, 120
    683d:	0008e0        	callx8	a8
    6840:	f01d           	retw.n

00006842 <WB_TX_NR_init+0x1e>:
	...

00006844 <WB_TX_NR_frame_process>:
    6844:	004136        	entry	a1, 32
    6847:	e60da1        	l32r	a10, 7c (ca94 <p_ecnr_mem>)
    684a:	02bd           	mov.n	a11, a2
    684c:	0aa8           	l32i.n	a10, a10, 0
    684e:	02cd           	mov.n	a12, a2
    6850:	e6ab81        	l32r	a8, 2fc (6864 <WB_NR_frame_process>)
    6853:	24dad2        	addmi	a13, a10, 0x2400
    6856:	f8cdd2        	addi	a13, a13, -8
    6859:	3fdaa2        	addmi	a10, a10, 0x3f00
    685c:	78caa2        	addi	a10, a10, 120
    685f:	0008e0        	callx8	a8
    6862:	f01d           	retw.n

00006864 <WB_NR_frame_process>:
    6864:	004136        	entry	a1, 32
    6867:	320282        	l8ui	a8, a2, 50
    686a:	5ce817        	bbsi	a8, 1, 68ca <WB_NR_frame_process+0x66>

0000686d <WB_NR_frame_process+0x9>:
    686d:	e6f581        	l32r	a8, 444 (7b24 <fft_wo>)
    6870:	03bd           	mov.n	a11, a3
    6872:	20a220        	or	a10, a2, a2
    6875:	0008e0        	callx8	a8
    6878:	320292        	l8ui	a9, a2, 50
    687b:	f03d           	nop.n
    687d:	54e917        	bbsi	a9, 1, 68d5 <WB_NR_frame_process+0x71>

00006880 <WB_NR_frame_process+0x1c>:
    6880:	e6f281        	l32r	a8, 448 (7da4 <NR_vad1>)
    6883:	02ad           	mov.n	a10, a2
    6885:	0008e0        	callx8	a8
    6888:	e6f181        	l32r	a8, 44c (7f1c <NR_vad2>)
    688b:	02ad           	mov.n	a10, a2
    688d:	0008e0        	callx8	a8
    6890:	e6f081        	l32r	a8, 450 (806c <NR_NoiseEstimate>)
    6893:	02ad           	mov.n	a10, a2
    6895:	0008e0        	callx8	a8
    6898:	e6ef81        	l32r	a8, 454 (8190 <NR_NoiseWithGain>)
    689b:	02ad           	mov.n	a10, a2
    689d:	0008e0        	callx8	a8
    68a0:	e6ee81        	l32r	a8, 458 (84b0 <NR_WienerFilter>)
    68a3:	02ad           	mov.n	a10, a2
    68a5:	0008e0        	callx8	a8
    68a8:	320292        	l8ui	a9, a2, 50
    68ab:	058d           	mov.n	a8, a5
    68ad:	00a2a2        	movi	a10, 0x200
    68b0:	2f6907        	bbci	a9, 0, 68e3 <WB_NR_frame_process+0x7f>
    68b3:	090c           	movi.n	a9, 0
    68b5:	028a76        	loop	a10, 68bb <WB_NR_frame_process+0x57>
    68b8:	09c894        	ae_s16ip	a9, a8, 2

000068bb <WB_NR_frame_process+0x57>:
    68bb:	05cd           	mov.n	a12, a5
    68bd:	e6e781        	l32r	a8, 45c (8808 <ifft_wo>)
    68c0:	04bd           	mov.n	a11, a4
    68c2:	20a220        	or	a10, a2, a2
    68c5:	0008e0        	callx8	a8
    68c8:	f01d           	retw.n

000068ca <WB_NR_frame_process+0x66>:
    68ca:	e6e581        	l32r	a8, 460 (1af0 <PD_TD_prcs>)
    68cd:	0008e0        	callx8	a8
    68d0:	ffe646        	j	686d <WB_NR_frame_process+0x9>

000068d3 <WB_NR_frame_process+0x6f>:
	...

000068d5 <WB_NR_frame_process+0x71>:
    68d5:	e6e381        	l32r	a8, 464 (1b48 <pitch_by_harmonic>)
    68d8:	02ad           	mov.n	a10, a2
    68da:	00a2b2        	movi	a11, 0x200
    68dd:	0008e0        	callx8	a8
    68e0:	ffe706        	j	6880 <WB_NR_frame_process+0x1c>

000068e3 <WB_NR_frame_process+0x7f>:
    68e3:	e6e181        	l32r	a8, 468 (720 <comfort_noise_gen_wb>)
    68e6:	02ad           	mov.n	a10, a2
    68e8:	05bd           	mov.n	a11, a5
    68ea:	0008e0        	callx8	a8
    68ed:	fff286        	j	68bb <WB_NR_frame_process+0x57>

000068f0 <NB_NR_init>:
    68f0:	004136        	entry	a1, 32
    68f3:	02ad           	mov.n	a10, a2
    68f5:	e5e981        	l32r	a8, 9c (9dc8 <xt_memset>)
    68f8:	00a0b2        	movi	a11, 0
    68fb:	e6c5c1        	l32r	a12, 410 (920 <PD_INIT+0x70>)
    68fe:	0008e0        	callx8	a8
    6901:	e6c481        	l32r	a8, 414 (6360 <complement_para>)
    6904:	e5e731        	l32r	a3, a0 (ca9c <aec_nr_para>)
    6907:	09d2a2        	addmi	a10, a2, 0x900
    690a:	11d2d2        	addmi	a13, a2, 0x1100
    690d:	03f8           	l32i.n	a15, a3, 0
    690f:	28cd42        	addi	a4, a13, 40
    6912:	24caa2        	addi	a10, a10, 36
    6915:	3e9fb2        	l16si	a11, a15, 124
    6918:	3d1f92        	l16ui	a9, a15, 122
    691b:	371fe2        	l16ui	a14, a15, 110
    691e:	3c1fc2        	l16ui	a12, a15, 120
    6921:	351f52        	l16ui	a5, a15, 106
    6924:	3f1f62        	l16ui	a6, a15, 126
    6927:	105262        	s16i	a6, a2, 32
    692a:	025252        	s16i	a5, a2, 4
    692d:	361ff2        	l16ui	a15, a15, 108
    6930:	1152f2        	s16i	a15, a2, 34
    6933:	9f5df2        	s16i	a15, a13, 0x13e
    6936:	0e52c2        	s16i	a12, a2, 28
    6939:	0352e2        	s16i	a14, a2, 6
    693c:	9e5dc2        	s16i	a12, a13, 0x13c
    693f:	0f5292        	s16i	a9, a2, 30
    6942:	0008e0        	callx8	a8
    6945:	a28b           	addi.n	a10, a2, 8
    6947:	03b8           	l32i.n	a11, a3, 0
    6949:	e6b381        	l32r	a8, 418 (62e0 <fill_vad_thrd_Nbands>)
    694c:	4c0c           	movi.n	a12, 4
    694e:	70cbb2        	addi	a11, a11, 112
    6951:	0008e0        	callx8	a8
    6954:	80a0c2        	movi	a12, 128
    6957:	e6b181        	l32r	a8, 41c (6310 <fill_EQ_gain>)
    695a:	03b8           	l32i.n	a11, a3, 0
    695c:	0ed2a2        	addmi	a10, a2, 0xe00
    695f:	f0caa2        	addi	a10, a10, -16
    6962:	02dbb2        	addmi	a11, a11, 0x200
    6965:	c8cbb2        	addi	a11, a11, -56
    6968:	0008e0        	callx8	a8
    696b:	0b0c           	movi.n	a11, 0
    696d:	6c0c           	movi.n	a12, 6
    696f:	e5c361        	l32r	a6, 7c (ca94 <p_ecnr_mem>)
    6972:	170c           	movi.n	a7, 1
    6974:	3202d2        	l8ui	a13, a2, 50
    6977:	e6bde1        	l32r	a14, 46c (c980 <win_rx_256_v3>)
    697a:	3d64e2        	s32i	a14, a4, 244
    697d:	20dd70        	or	a13, a13, a7
    6980:	3242d2        	s8i	a13, a2, 50
    6983:	06a8           	l32i.n	a10, a6, 0
    6985:	0398           	l32i.n	a9, a3, 0
    6987:	e5c581        	l32r	a8, 9c (9dc8 <xt_memset>)
    698a:	69dad2        	addmi	a13, a10, 0x6900
    698d:	4019e2        	l16ui	a14, a9, 128
    6990:	6adaa2        	addmi	a10, a10, 0x6a00
    6993:	70caa2        	addi	a10, a10, 112
    6996:	b65de2        	s16i	a14, a13, 0x16c
    6999:	411992        	l16ui	a9, a9, 130
    699c:	b75d92        	s16i	a9, a13, 0x16e
    699f:	0008e0        	callx8	a8
    69a2:	36c2a2        	addi	a10, a2, 54
    69a5:	e69fc1        	l32r	a12, 424 (ffffb800 <_end+0xfffeed60>)
    69a8:	e6a0d1        	l32r	a13, 428 (b8000000 <_end+0xb7ff3560>)
    69ab:	7f0c           	movi.n	a15, 7
    69ad:	01d252        	addmi	a5, a2, 0x100
    69b0:	7cc552        	addi	a5, a5, 124
    69b3:	059d           	mov.n	a9, a5
    69b5:	2caf76        	loopgtz	a15, 69e5 <NB_NR_init+0xf5>
    69b8:	0abd           	mov.n	a11, a10
    69ba:	09d9           	s32i.n	a13, a9, 0
    69bc:	994b           	addi.n	a9, a9, 4
    69be:	09cac4        	ae_s16ip	a12, a10, 2
    69c1:	09cac4        	ae_s16ip	a12, a10, 2
    69c4:	09cac4        	ae_s16ip	a12, a10, 2
    69c7:	09cac4        	ae_s16ip	a12, a10, 2
    69ca:	09cac4        	ae_s16ip	a12, a10, 2
    69cd:	09cac4        	ae_s16ip	a12, a10, 2
    69d0:	09cac4        	ae_s16ip	a12, a10, 2
    69d3:	09cac4        	ae_s16ip	a12, a10, 2
    69d6:	09cac4        	ae_s16ip	a12, a10, 2
    69d9:	09cac4        	ae_s16ip	a12, a10, 2
    69dc:	09cac4        	ae_s16ip	a12, a10, 2
    69df:	09cac4        	ae_s16ip	a12, a10, 2
    69e2:	18cba2        	addi	a10, a11, 24

000069e5 <NB_NR_init+0xf5>:
    69e5:	03b8           	l32i.n	a11, a3, 0
    69e7:	09d2a2        	addmi	a10, a2, 0x900
    69ea:	e68a81        	l32r	a8, 414 (6360 <complement_para>)
    69ed:	10caa2        	addi	a10, a10, 16
    69f0:	2e9bb2        	l16si	a11, a11, 92
    69f3:	0008e0        	callx8	a8
    69f6:	0023b2        	l32i	a11, a3, 0
    69f9:	09d2a2        	addmi	a10, a2, 0x900
    69fc:	e68681        	l32r	a8, 414 (6360 <complement_para>)
    69ff:	14caa2        	addi	a10, a10, 20
    6a02:	2f9bb2        	l16si	a11, a11, 94
    6a05:	0008e0        	callx8	a8
    6a08:	0023b2        	l32i	a11, a3, 0
    6a0b:	09d2a2        	addmi	a10, a2, 0x900
    6a0e:	e68181        	l32r	a8, 414 (6360 <complement_para>)
    6a11:	18caa2        	addi	a10, a10, 24
    6a14:	309bb2        	l16si	a11, a11, 96
    6a17:	0008e0        	callx8	a8
    6a1a:	03b8           	l32i.n	a11, a3, 0
    6a1c:	09d2a2        	addmi	a10, a2, 0x900
    6a1f:	e67d81        	l32r	a8, 414 (6360 <complement_para>)
    6a22:	1ccaa2        	addi	a10, a10, 28
    6a25:	319bb2        	l16si	a11, a11, 98
    6a28:	0008e0        	callx8	a8
    6a2b:	03b8           	l32i.n	a11, a3, 0
    6a2d:	09d2a2        	addmi	a10, a2, 0x900
    6a30:	e67981        	l32r	a8, 414 (6360 <complement_para>)
    6a33:	20caa2        	addi	a10, a10, 32
    6a36:	329bb2        	l16si	a11, a11, 100
    6a39:	0008e0        	callx8	a8
    6a3c:	9d6c           	movi.n	a13, -23
    6a3e:	00a1f2        	movi	a15, 0x100
    6a41:	08d2e2        	addmi	a14, a2, 0x800
    6a44:	086c           	movi.n	a8, -32
    6a46:	7c0c           	movi.n	a12, 7
    6a48:	78a0a2        	movi	a10, 120
    6a4b:	3542a2        	s8i	a10, a2, 53
    6a4e:	3442c2        	s8i	a12, a2, 52
    6a51:	06b8           	l32i.n	a11, a6, 0
    6a53:	0398           	l32i.n	a9, a3, 0
    6a55:	e5a0c1        	l32r	a12, d8 (7fff0000 <_end+0x7ffe3560>)
    6a58:	28dbb2        	addmi	a11, a11, 0x2800
    6a5b:	0998           	l32i.n	a9, a9, 0
    6a5d:	0299           	s32i.n	a9, a2, 0
    6a5f:	f8cbb2        	addi	a11, a11, -8
    6a62:	3a64b2        	s32i	a11, a4, 232
    6a65:	10d992        	addmi	a9, a9, 0x1000
    6a68:	dcc9b2        	addi	a11, a9, -36
    6a6b:	3c64b2        	s32i	a11, a4, 240
    6a6e:	b8c992        	addi	a9, a9, -72
    6a71:	3b6492        	s32i	a9, a4, 236
    6a74:	185272        	s16i	a7, a2, 48
    6a77:	e62e91        	l32r	a9, 330 (40000000 <_end+0x3fff3560>)
    6a7a:	975e82        	s16i	a8, a14, 0x12e
    6a7d:	24c582        	addi	a8, a5, 36
    6a80:	1552f2        	s16i	a15, a2, 42
    6a83:	955ed2        	s16i	a13, a14, 0x12a
    6a86:	4364c2        	s32i	a12, a4, 0x10c
    6a89:	028a76        	loop	a10, 6a8f <NB_NR_init+0x19f>
    6a8c:	09e894        	ae_s32ip	a9, a8, 4
    6a8f:	f01d           	retw.n

00006a91 <NB_NR_init+0x1a1>:
    6a91:	000000                                        ...

00006a94 <NB_RX_NR_init>:
    6a94:	004136        	entry	a1, 32
    6a97:	03bd           	mov.n	a11, a3
    6a99:	04cd           	mov.n	a12, a4
    6a9b:	e57831        	l32r	a3, 7c (ca94 <p_ecnr_mem>)
    6a9e:	e66681        	l32r	a8, 438 (9b68 <RX_ECNR_PARA_init>)
    6aa1:	1a0c           	movi.n	a10, 1
    6aa3:	006322        	s32i	a2, a3, 0
    6aa6:	0008e0        	callx8	a8
    6aa9:	e57db1        	l32r	a11, a0 (ca9c <aec_nr_para>)
    6aac:	03a8           	l32i.n	a10, a3, 0
    6aae:	e5e381        	l32r	a8, 23c (2fb8 <HP_coef_setup>)
    6ab1:	0bb8           	l32i.n	a11, a11, 0
    6ab3:	6adaa2        	addmi	a10, a10, 0x6a00
    6ab6:	38caa2        	addi	a10, a10, 56
    6ab9:	01dbb2        	addmi	a11, a11, 0x100
    6abc:	60cbb2        	addi	a11, a11, 96
    6abf:	0008e0        	callx8	a8
    6ac2:	03a8           	l32i.n	a10, a3, 0
    6ac4:	e66b81        	l32r	a8, 470 (68f0 <NB_NR_init>)
    6ac7:	58daa2        	addmi	a10, a10, 0x5800
    6aca:	f8caa2        	addi	a10, a10, -8
    6acd:	0008e0        	callx8	a8
    6ad0:	f01d           	retw.n

00006ad2 <NB_RX_NR_init+0x3e>:
	...

00006ad4 <NB_RX_NR_frame_process>:
    6ad4:	004136        	entry	a1, 32
    6ad7:	e56941        	l32r	a4, 7c (ca94 <p_ecnr_mem>)
    6ada:	e65931        	l32r	a3, 440 (6a6c <NB_NR_init+0x17c>)
    6add:	02ad           	mov.n	a10, a2
    6adf:	04b8           	l32i.n	a11, a4, 0
    6ae1:	78a0d2        	movi	a13, 120
    6ae4:	e5ef81        	l32r	a8, 2a0 (33d8 <emph_filter_N>)
    6ae7:	6adbc2        	addmi	a12, a11, 0x6a00
    6aea:	6cccb2        	addi	a11, a12, 108
    6aed:	70ccc2        	addi	a12, a12, 112
    6af0:	0008e0        	callx8	a8
    6af3:	02bd           	mov.n	a11, a2
    6af5:	04a8           	l32i.n	a10, a4, 0
    6af7:	02cd           	mov.n	a12, a2
    6af9:	e65e81        	l32r	a8, 474 (6b24 <NB_NR_frame_process>)
    6afc:	24dad2        	addmi	a13, a10, 0x2400
    6aff:	f8cdd2        	addi	a13, a13, -8
    6b02:	58daa2        	addmi	a10, a10, 0x5800
    6b05:	f8caa2        	addi	a10, a10, -8
    6b08:	0008e0        	callx8	a8
    6b0b:	02ad           	mov.n	a10, a2
    6b0d:	04c8           	l32i.n	a12, a4, 0
    6b0f:	78a0d2        	movi	a13, 120
    6b12:	e5fd81        	l32r	a8, 308 (3424 <deemph_filter_N>)
    6b15:	bc3a           	add.n	a11, a12, a3
    6b17:	6adcc2        	addmi	a12, a12, 0x6a00
    6b1a:	74ccc2        	addi	a12, a12, 116
    6b1d:	0008e0        	callx8	a8
    6b20:	f01d           	retw.n

00006b22 <NB_RX_NR_frame_process+0x4e>:
	...

00006b24 <NB_NR_frame_process>:
    6b24:	004136        	entry	a1, 32
    6b27:	e64781        	l32r	a8, 444 (7b24 <fft_wo>)
    6b2a:	03bd           	mov.n	a11, a3
    6b2c:	20a220        	or	a10, a2, a2
    6b2f:	0008e0        	callx8	a8
    6b32:	e64581        	l32r	a8, 448 (7da4 <NR_vad1>)
    6b35:	02ad           	mov.n	a10, a2
    6b37:	0008e0        	callx8	a8
    6b3a:	e64481        	l32r	a8, 44c (7f1c <NR_vad2>)
    6b3d:	02ad           	mov.n	a10, a2
    6b3f:	0008e0        	callx8	a8
    6b42:	e64381        	l32r	a8, 450 (806c <NR_NoiseEstimate>)
    6b45:	02ad           	mov.n	a10, a2
    6b47:	0008e0        	callx8	a8
    6b4a:	e64281        	l32r	a8, 454 (8190 <NR_NoiseWithGain>)
    6b4d:	02ad           	mov.n	a10, a2
    6b4f:	0008e0        	callx8	a8
    6b52:	e64181        	l32r	a8, 458 (84b0 <NR_WienerFilter>)
    6b55:	02ad           	mov.n	a10, a2
    6b57:	0008e0        	callx8	a8
    6b5a:	04bd           	mov.n	a11, a4
    6b5c:	05cd           	mov.n	a12, a5
    6b5e:	090c           	movi.n	a9, 0
    6b60:	058d           	mov.n	a8, a5
    6b62:	00a2a2        	movi	a10, 0x200
    6b65:	028a76        	loop	a10, 6b6b <NB_NR_frame_process+0x47>
    6b68:	09c894        	ae_s16ip	a9, a8, 2

00006b6b <NB_NR_frame_process+0x47>:
    6b6b:	e63c81        	l32r	a8, 45c (8808 <ifft_wo>)
    6b6e:	02ad           	mov.n	a10, a2
    6b70:	0008e0        	callx8	a8
    6b73:	f01d           	retw.n

00006b75 <NB_NR_frame_process+0x51>:
    6b75:	000000                                        ...

00006b78 <est_pow_aver>:
    6b78:	006136        	entry	a1, 48
    6b7b:	600204        	ae_lq32f.i	aeq0, a2, 0
    6b7e:	1fa062        	movi	a6, 31
    6b81:	08a042        	movi	a4, 8
    6b84:	c04430        	sub	a4, a4, a3
    6b87:	433460        	min	a3, a4, a6
    6b8a:	fd2480486f 	{ movi	a6, 72; ae_zeroq56	aeq1 }
    6b8f:	01f396        	bltz	a3, 6bb2 <est_pow_aver+0x3a>
    6b92:	e63981        	l32r	a8, 478 (38e39 <_end+0x2c399>)
    6b95:	078676        	loop	a6, 6ba0 <est_pow_aver+0x28>
    6b98:	3403b4        	ae_sraaq56	aeq0, aeq0, a3
    6b9b:	f96a7d121f 	{ ae_lq32f.iu	aeq0, a2, 4; ae_addsq56s	aeq1, aeq1, aeq0 }

00006ba0 <est_pow_aver+0x28>:
    6ba0:	398884        	ae_movpa24x2	aep0, a8, a8
    6ba3:	088564        	ae_mulfq32sp24s.l	aeq2, aeq1, aep0
    6ba6:	062834        	ae_roundsq32sym	aeq0, aeq2
    6ba9:	620104        	ae_sq32f.i	aeq0, a1, 0
    6bac:	0128           	l32i.n	a2, a1, 0
    6bae:	f01d           	retw.n

00006bb0 <est_pow_aver+0x38>:
	...

00006bb2 <est_pow_aver+0x3a>:
    6bb2:	603030        	neg	a3, a3
    6bb5:	098676        	loop	a6, 6bc2 <est_pow_aver+0x4a>
    6bb8:	fc24fe830f 	{ ae_slaasq56s	aeq0, aeq0, a3; nop }
    6bbd:	f96a7d121f 	{ ae_lq32f.iu	aeq0, a2, 4; ae_addsq56s	aeq1, aeq1, aeq0 }

00006bc2 <est_pow_aver+0x4a>:
    6bc2:	e62d81        	l32r	a8, 478 (38e39 <_end+0x2c399>)
    6bc5:	398884        	ae_movpa24x2	aep0, a8, a8
    6bc8:	088564        	ae_mulfq32sp24s.l	aeq2, aeq1, aep0
    6bcb:	062834        	ae_roundsq32sym	aeq0, aeq2
    6bce:	620104        	ae_sq32f.i	aeq0, a1, 0
    6bd1:	0128           	l32i.n	a2, a1, 0
    6bd3:	f01d           	retw.n

00006bd5 <est_pow_aver+0x5d>:
    6bd5:	000000                                        ...

00006bd8 <two_mic_WB_NR_init>:
    6bd8:	004136        	entry	a1, 32
    6bdb:	e52851        	l32r	a5, 7c (ca94 <p_ecnr_mem>)
    6bde:	00a0b2        	movi	a11, 0
    6be1:	002542        	l32i	a4, a5, 0
    6be4:	1ea3c2        	movi	a12, 0x31e
    6be7:	e52d81        	l32r	a8, 9c (9dc8 <xt_memset>)
    6bea:	1ad492        	addmi	a9, a4, 0x1a00
    6bed:	31d432        	addmi	a3, a4, 0x3100
    6bf0:	ecc332        	addi	a3, a3, -20
    6bf3:	1c6932        	s32i	a3, a9, 112
    6bf6:	20a330        	or	a10, a3, a3
    6bf9:	3fd442        	addmi	a4, a4, 0x3f00
    6bfc:	78c442        	addi	a4, a4, 120
    6bff:	0008e0        	callx8	a8
    6c02:	05e8           	l32i.n	a14, a5, 0
    6c04:	7c9282        	l16si	a8, a2, 248
    6c07:	3f22a2        	l32i	a10, a2, 252
    6c0a:	0498           	l32i.n	a9, a4, 0
    6c0c:	12d4b2        	addmi	a11, a4, 0x1200
    6c0f:	7112d2        	l16ui	a13, a2, 226
    6c12:	10d4c2        	addmi	a12, a4, 0x1000
    6c15:	f0ccc2        	addi	a12, a12, -16
    6c18:	63dd           	ae_s16i.n	a13, a3, 0
    6c1a:	4bb8           	l32i.n	a11, a11, 16
    6c1c:	05d3d2        	addmi	a13, a3, 0x500
    6c1f:	3d6d92        	s32i	a9, a13, 244
    6c22:	4c6da2        	s32i	a10, a13, 0x130
    6c25:	c99222        	l16si	a2, a2, 0x192
    6c28:	24dee2        	addmi	a14, a14, 0x2400
    6c2b:	935d82        	s16i	a8, a13, 0x126
    6c2e:	04d9f2        	addmi	a15, a9, 0x400
    6c31:	14c382        	addi	a8, a3, 20
    6c34:	416df2        	s32i	a15, a13, 0x104
    6c37:	426df2        	s32i	a15, a13, 0x108
    6c3a:	3e6db2        	s32i	a11, a13, 248
    6c3d:	f8cee2        	addi	a14, a14, -8
    6c40:	9c5d22        	s16i	a2, a13, 0x138
    6c43:	3c6dc2        	s32i	a12, a13, 240
    6c46:	10d9a2        	addmi	a10, a9, 0x1000
    6c49:	0cd9c2        	addmi	a12, a9, 0xc00
    6c4c:	dccaa2        	addi	a10, a10, -36
    6c4f:	08d922        	addmi	a2, a9, 0x800
    6c52:	456de2        	s32i	a14, a13, 0x114
    6c55:	b9cb           	addi.n	a11, a9, 12
    6c57:	406db2        	s32i	a11, a13, 0x100
    6c5a:	9e6c           	movi.n	a14, -23
    6c5c:	23fd           	ae_l16si.n	a15, a3, 0
    6c5e:	3f6d22        	s32i	a2, a13, 252
    6c61:	446da2        	s32i	a10, a13, 0x110
    6c64:	436dc2        	s32i	a12, a13, 0x10c
    6c67:	eea0a2        	movi	a10, 238
    6c6a:	04d3c2        	addmi	a12, a3, 0x400
    6c6d:	dcc222        	addi	a2, a2, -36
    6c70:	3b6d22        	s32i	a2, a13, 236
    6c73:	ccccc2        	addi	a12, a12, -52
    6c76:	14cd22        	addi	a2, a13, 20
    6c79:	e5ad91        	l32r	a9, 330 (40000000 <_end+0x3fff3560>)
    6c7c:	11ff20        	slli	a15, a15, 14
    6c7f:	4d6df2        	s32i	a15, a13, 0x134
    6c82:	0953e2        	s16i	a14, a3, 18
    6c85:	028a76        	loop	a10, 6c8b <two_mic_WB_NR_init+0xb3>
    6c88:	09e894        	ae_s32ip	a9, a8, 4

00006c8b <two_mic_WB_NR_init+0xb3>:
    6c8b:	0cad           	mov.n	a10, a12
    6c8d:	e50381        	l32r	a8, 9c (9dc8 <xt_memset>)
    6c90:	0b0c           	movi.n	a11, 0
    6c92:	10a1c2        	movi	a12, 0x110
    6c95:	0008e0        	callx8	a8
    6c98:	3722a2        	l32i	a10, a2, 220
    6c9b:	e50081        	l32r	a8, 9c (9dc8 <xt_memset>)
    6c9e:	0b0c           	movi.n	a11, 0
    6ca0:	10a1c2        	movi	a12, 0x110
    6ca3:	0008e0        	callx8	a8
    6ca6:	f01d           	retw.n

00006ca8 <two_mic_WB_NR_NSN_proc>:
    6ca8:	016136        	entry	a1, 176
    6cab:	196132        	s32i	a3, a1, 100
    6cae:	f149           	s32i.n	a4, a1, 60
    6cb0:	0c0c           	movi.n	a12, 0
    6cb2:	048d           	mov.n	a8, a4
    6cb4:	106152        	s32i	a5, a1, 64
    6cb7:	186122        	s32i	a2, a1, 96
    6cba:	e5f051        	l32r	a5, 47c (bb32 <fftorder_512_12b+0x2>)
    6cbd:	1021a2        	l32i	a10, a1, 64
    6cc0:	c23c           	movi.n	a2, 60
    6cc2:	478276        	loop	a2, 6d0d <two_mic_WB_NR_NSN_proc+0x65>
    6cc5:	289d           	ae_l16si.n	a9, a8, 0
    6cc7:	2abd           	ae_l16si.n	a11, a10, 0
    6cc9:	38dd           	ae_l16si.n	a13, a8, 2
    6ccb:	3aed           	ae_l16si.n	a14, a10, 2
    6ccd:	0298f2        	l16si	a15, a8, 4
    6cd0:	029a22        	l16si	a2, a10, 4
    6cd3:	039832        	l16si	a3, a8, 6
    6cd6:	039a42        	l16si	a4, a10, 6
    6cd9:	609190        	abs	a9, a9
    6cdc:	60b1b0        	abs	a11, a11
    6cdf:	60d1d0        	abs	a13, a13
    6ce2:	60e1e0        	abs	a14, a14
    6ce5:	60f1f0        	abs	a15, a15
    6ce8:	602120        	abs	a2, a2
    6ceb:	603130        	abs	a3, a3
    6cee:	604140        	abs	a4, a4
    6cf1:	aa8b           	addi.n	a10, a10, 8
    6cf3:	888b           	addi.n	a8, a8, 8
    6cf5:	209c90        	or	a9, a12, a9
    6cf8:	2099b0        	or	a9, a9, a11
    6cfb:	2099d0        	or	a9, a9, a13
    6cfe:	2099e0        	or	a9, a9, a14
    6d01:	2099f0        	or	a9, a9, a15
    6d04:	209920        	or	a9, a9, a2
    6d07:	209930        	or	a9, a9, a3
    6d0a:	20c940        	or	a12, a9, a4

00006d0d <two_mic_WB_NR_NSN_proc+0x65>:
    6d0d:	192142        	l32i	a4, a1, 100
    6d10:	1821d2        	l32i	a13, a1, 96
    6d13:	00a062        	movi	a6, 0
    6d16:	40ec70        	nsa	a7, a12
    6d19:	f0c772        	addi	a7, a7, -16
    6d1c:	537760        	max	a7, a7, a6
    6d1f:	0d6172        	s32i	a7, a1, 52
    6d22:	159d82        	l16si	a8, a13, 42
    6d25:	04d4a2        	addmi	a10, a4, 0x400
    6d28:	11dde2        	addmi	a14, a13, 0x1100
    6d2b:	472ec2        	l32i	a12, a14, 0x11c
    6d2e:	05d442        	addmi	a4, a4, 0x500
    6d31:	ecca92        	addi	a9, a10, -20
    6d34:	002dd2        	l32i	a13, a13, 0
    6d37:	446984        	ae_lp16x2f.i	aep6, a9, -32
    6d3a:	3c24b2        	l32i	a11, a4, 240
    6d3d:	2ccee2        	addi	a14, a14, 44
    6d40:	437780        	min	a7, a7, a8
    6d43:	031674        	wur.ae_sar	a7
    6d46:	1761e2        	s32i	a14, a1, 92
    6d49:	f93bad5b0f 	{ ae_lp16x2f.i	aep5, a11, 0; ae_sllssp24s	aep2, aep6 }
    6d4e:	fa37ad3c0f 	{ ae_lp16x2f.i	aep3, a12, 0; ae_sllssp24s	aep4, aep5 }
    6d53:	01cb44        	ae_mulfp24s.hh	aeq3, aep4, aep3
    6d56:	e968804d2e 	{ addi	a2, a13, 4; ae_mulfp24s.hh	aeq2, aep2, aep3 }
    6d5b:	62b264        	ae_sq32f.x	aeq3, a2, a6
    6d5e:	62ad64        	ae_sq32f.x	aeq2, a13, a6
    6d61:	25fd           	ae_l16si.n	a15, a5, 0
    6d63:	ea71cccaae 	{ addi	a10, a10, -52; ae_mulfp24s.ll	aeq1, aep4, aep3 }
    6d68:	ea6994e1df 	{ s32i.n	a13, a1, 56; ae_mulfp24s.ll	aeq0, aep2, aep3 }
    6d6d:	6292f4        	ae_sq32f.x	aeq1, a2, a15
    6d70:	628df4        	ae_sq32f.x	aeq0, a13, a15
    6d73:	358d           	ae_l16si.n	a8, a5, 2
    6d75:	7fa0f2        	movi	a15, 127
    6d78:	449a14        	ae_lp16x2f.iu	aep1, a10, 4
    6d7b:	f927ad8b1f 	{ ae_lp16x2f.iu	aep0, a11, 4; ae_sllssp24s	aep2, aep1 }
    6d80:	f823ad9c1f 	{ ae_lp16x2f.iu	aep1, a12, 4; ae_sllssp24s	aep0, aep0 }
    6d85:	288f76        	loop	a15, 6db1 <two_mic_WB_NR_NSN_proc+0x109>
    6d88:	e82080455e 	{ addi	a5, a5, 4; ae_mulfp24s.hh	aeq0, aep0, aep1 }
    6d8d:	012944        	ae_mulfp24s.hh	aeq1, aep2, aep1

00006d90 <two_mic_WB_NR_NSN_proc+0xe8>:
    6d90:	ea21b8428f 	{ ae_sq32f.x	aeq0, a2, a8; ae_mulfp24s.ll	aeq0, aep0, aep1 }
    6d95:	ea29f85d8f 	{ ae_sq32f.x	aeq1, a13, a8; ae_mulfp24s.ll	aeq1, aep2, aep1 }
    6d9a:	258d           	ae_l16si.n	a8, a5, 0
    6d9c:	628284        	ae_sq32f.x	aeq0, a2, a8
    6d9f:	629d84        	ae_sq32f.x	aeq1, a13, a8
    6da2:	358d           	ae_l16si.n	a8, a5, 2
    6da4:	449a14        	ae_lp16x2f.iu	aep1, a10, 4
    6da7:	f927ad9b1f 	{ ae_lp16x2f.iu	aep1, a11, 4; ae_sllssp24s	aep2, aep1 }
    6dac:	f827ad9c1f 	{ ae_lp16x2f.iu	aep1, a12, 4; ae_sllssp24s	aep0, aep1 }

00006db1 <two_mic_WB_NR_NSN_proc+0x109>:
    6db1:	554b           	addi.n	a5, a5, 4
    6db3:	3c2492        	l32i	a9, a4, 240
    6db6:	20dcc0        	or	a13, a12, a12
    6db9:	20f880        	or	a15, a8, a8
    6dbc:	e0a1c2        	movi	a12, 0x1e0
    6dbf:	4529c4        	ae_lp16x2f.x	aep2, a9, a12
    6dc2:	02d9b2        	addmi	a11, a9, 0x200
    6dc5:	e0cbb2        	addi	a11, a11, -32
    6dc8:	192182        	l32i	a8, a1, 100
    6dcb:	08a0c2        	movi	a12, 8
    6dce:	fcc992        	addi	a9, a9, -4
    6dd1:	06d862        	addmi	a6, a8, 0x600
    6dd4:	acc6a2        	addi	a10, a6, -84
    6dd7:	04d882        	addmi	a8, a8, 0x400
    6dda:	c8c882        	addi	a8, a8, -56
    6ddd:	ccc662        	addi	a6, a6, -52
    6de0:	fc20ed068f 	{ ae_lp16x2f.i	aep0, a6, -32; ae_zerop48	aep1 }
    6de5:	138c76        	loop	a12, 6dfc <two_mic_WB_NR_NSN_proc+0x154>

00006de8 <two_mic_WB_NR_NSN_proc+0x140>:
    6de8:	fc0833881f 	{ ae_sp16x2f.iu	aep0, a8, 4; ae_abssp24s	aep0, aep0 }
    6ded:	fd4833a91f 	{ ae_sp16x2f.iu	aep2, a9, 4; ae_abssp24s	aep2, aep2 }
    6df2:	dc046d8a1f 	{ ae_lp16x2f.iu	aep0, a10, 4; ae_orp48	aep1, aep1, aep0 }
    6df7:	dc446dab1f 	{ ae_lp16x2f.iu	aep2, a11, 4; ae_orp48	aep1, aep1, aep2 }

00006dfc <two_mic_WB_NR_NSN_proc+0x154>:
    6dfc:	fb23b0e1ee 	{ l32i	a14, a1, 56; ae_sllssp24s	aep6, aep0 }
    6e01:	f92bedfdff 	{ ae_lp16x2f.iu	aep7, a13, -4; ae_sllssp24s	aep3, aep2 }
    6e06:	ebecf3881f 	{ ae_sp16x2f.iu	aep0, a8, 4; ae_mulfp24s.hl	aeq3, aep3, aep7 }
    6e0b:	ebf8b3a91f 	{ ae_sp16x2f.iu	aep2, a9, 4; ae_mulfp24s.hl	aeq2, aep6, aep7 }
    6e10:	62b2f4        	ae_sq32f.x	aeq3, a2, a15
    6e13:	62aef4        	ae_sq32f.x	aeq2, a14, a15
    6e16:	253d           	ae_l16si.n	a3, a5, 0
    6e18:	e8edd3feef 	{ or	a15, a14, a14; ae_mulfp24s.lh	aeq1, aep3, aep7 }
    6e1d:	e8f993ebbf 	{ or	a14, a11, a11; ae_mulfp24s.lh	aeq0, aep6, aep7 }
    6e22:	629234        	ae_sq32f.x	aeq1, a2, a3
    6e25:	628f34        	ae_sq32f.x	aeq0, a15, a3
    6e28:	356d           	ae_l16si.n	a6, a5, 2
    6e2a:	730c           	movi.n	a3, 7

00006e2c <two_mic_WB_NR_NSN_proc+0x184>:
    6e2c:	fe086d8a1f 	{ ae_lp16x2f.iu	aep0, a10, 4; ae_abssp24s	aep5, aep0 }
    6e31:	dea46dcdff 	{ ae_lp16x2f.iu	aep4, a13, -4; ae_orp48	aep5, aep1, aep5 }
    6e36:	ff4813cddf 	{ or	a12, a13, a13; ae_abssp24s	aep6, aep2 }
    6e3b:	ded453daaf 	{ or	a13, a10, a10; ae_orp48	aep5, aep5, aep6 }
    6e40:	388376        	loop	a3, 6e7c <two_mic_WB_NR_NSN_proc+0x1d4>
    6e43:	f823edae1f 	{ ae_lp16x2f.iu	aep2, a14, 4; ae_sllssp24s	aep1, aep0 }
    6e48:	f92bc0455e 	{ addi	a5, a5, 4; ae_sllssp24s	aep3, aep2 }
    6e4d:	ea8cb3881f 	{ ae_sp16x2f.iu	aep0, a8, 4; ae_mulfp24s.hl	aeq0, aep3, aep4 }
    6e52:	ea84f3a91f 	{ ae_sp16x2f.iu	aep2, a9, 4; ae_mulfp24s.hl	aeq1, aep1, aep4 }
    6e57:	e88db8426f 	{ ae_sq32f.x	aeq0, a2, a6; ae_mulfp24s.lh	aeq0, aep3, aep4 }
    6e5c:	e885f85f6f 	{ ae_sq32f.x	aeq1, a15, a6; ae_mulfp24s.lh	aeq1, aep1, aep4 }
    6e61:	fc0860056e 	{ l16si	a6, a5, 0; ae_abssp24s	aep1, aep0 }
    6e66:	079a34        	ae_abssp24s	aep3, aep2
    6e69:	0fd914        	ae_orp48	aep1, aep5, aep1
    6e6c:	de6478426f 	{ ae_sq32f.x	aeq0, a2, a6; ae_orp48	aep5, aep1, aep3 }
    6e71:	629f64        	ae_sq32f.x	aeq1, a15, a6
    6e74:	356d           	ae_l16si.n	a6, a5, 2
    6e76:	44ccf4        	ae_lp16x2f.iu	aep4, a12, -4
    6e79:	448d14        	ae_lp16x2f.iu	aep0, a13, 4

00006e7c <two_mic_WB_NR_NSN_proc+0x1d4>:
    6e7c:	00dfd4        	ae_cvta32p24.h	a15, aep5
    6e7f:	005ed4        	ae_cvta32p24.l	a14, aep5
    6e82:	d1d8           	l32i.n	a13, a1, 52
    6e84:	0020f0        	nop
    6e87:	20eef0        	or	a14, a14, a15
    6e8a:	40eee0        	nsa	a14, a14
    6e8d:	43dde0        	min	a13, a13, a14
    6e90:	1821e2        	l32i	a14, a1, 96
    6e93:	155ed2        	s16i	a13, a14, 42
    6e96:	f1d8           	l32i.n	a13, a1, 60
    6e98:	1021e2        	l32i	a14, a1, 64
    6e9b:	440d04        	ae_lp16x2f.i	aep0, a13, 0
    6e9e:	fa23ed7e0f 	{ ae_lp16x2f.i	aep7, a14, 0; ae_sllssp24s	aep5, aep0 }
    6ea3:	fb3fb0e1fe 	{ l32i	a15, a1, 56; ae_sllssp24s	aep6, aep7 }
    6ea8:	eb98f3881f 	{ ae_sp16x2f.iu	aep0, a8, 4; ae_mulfp24s.hl	aeq3, aep6, aep4 }
    6ead:	eb94b3f91f 	{ ae_sp16x2f.iu	aep7, a9, 4; ae_mulfp24s.hl	aeq2, aep5, aep4 }
    6eb2:	62b264        	ae_sq32f.x	aeq3, a2, a6
    6eb5:	62af64        	ae_sq32f.x	aeq2, a15, a6
    6eb8:	029532        	l16si	a3, a5, 4
    6ebb:	016c64        	ae_mulfp24s.lh	aeq1, aep6, aep4
    6ebe:	e8958045be 	{ addi	a11, a5, 4; ae_mulfp24s.lh	aeq0, aep5, aep4 }
    6ec3:	629234        	ae_sq32f.x	aeq1, a2, a3
    6ec6:	628f34        	ae_sq32f.x	aeq0, a15, a3
    6ec9:	0395a2        	l16si	a10, a5, 6
    6ecc:	448d14        	ae_lp16x2f.iu	aep0, a13, 4
    6ecf:	44ccf4        	ae_lp16x2f.iu	aep4, a12, -4
    6ed2:	77a032        	movi	a3, 119
    6ed5:	2d8376        	loop	a3, 6f06 <two_mic_WB_NR_NSN_proc+0x25e>
    6ed8:	f823edae1f 	{ ae_lp16x2f.iu	aep2, a14, 4; ae_sllssp24s	aep1, aep0 }
    6edd:	f92bc04bbe 	{ addi	a11, a11, 4; ae_sllssp24s	aep3, aep2 }
    6ee2:	ea8cb3881f 	{ ae_sp16x2f.iu	aep0, a8, 4; ae_mulfp24s.hl	aeq0, aep3, aep4 }
    6ee7:	ea84f3a91f 	{ ae_sp16x2f.iu	aep2, a9, 4; ae_mulfp24s.hl	aeq1, aep1, aep4 }

00006eec <two_mic_WB_NR_NSN_proc+0x244>:
    6eec:	e88db842af 	{ ae_sq32f.x	aeq0, a2, a10; ae_mulfp24s.lh	aeq0, aep3, aep4 }
    6ef1:	e885f85faf 	{ ae_sq32f.x	aeq1, a15, a10; ae_mulfp24s.lh	aeq1, aep1, aep4 }
    6ef6:	2bad           	ae_l16si.n	a10, a11, 0
    6ef8:	6282a4        	ae_sq32f.x	aeq0, a2, a10
    6efb:	629fa4        	ae_sq32f.x	aeq1, a15, a10
    6efe:	3bad           	ae_l16si.n	a10, a11, 2
    6f00:	44ccf4        	ae_lp16x2f.iu	aep4, a12, -4
    6f03:	448d14        	ae_lp16x2f.iu	aep0, a13, 4

00006f06 <two_mic_WB_NR_NSN_proc+0x25e>:
    6f06:	00a2b2        	movi	a11, 0x200
    6f09:	8c0c           	movi.n	a12, 8
    6f0b:	1d0c           	movi.n	a13, 1
    6f0d:	1821a2        	l32i	a10, a1, 96
    6f10:	e55c81        	l32r	a8, 480 (9488 <sw_fft_32b_2811>)
    6f13:	1e0c           	movi.n	a14, 1
    6f15:	002aa2        	l32i	a10, a10, 0
    6f18:	0008e0        	callx8	a8
    6f1b:	00a1c2        	movi	a12, 0x100
    6f1e:	182182        	l32i	a8, a1, 96
    6f21:	c097a0        	sub	a9, a7, a10
    6f24:	3e24b2        	l32i	a11, a4, 248
    6f27:	1921a2        	l32i	a10, a1, 100
    6f2a:	0888           	l32i.n	a8, a8, 0
    6f2c:	f8cbb2        	addi	a11, a11, -8
    6f2f:	075a92        	s16i	a9, a10, 14
    6f32:	988b           	addi.n	a9, a8, 8
    6f34:	604824        	ae_lq32f.i	aeq1, a8, 8
    6f37:	3d24a2        	l32i	a10, a4, 244
    6f3a:	10d882        	addmi	a8, a8, 0x1000
    6f3d:	6018e4        	ae_lq32f.iu	aeq0, a8, -8
    6f40:	fa6a0fcaae 	{ addi	a10, a10, -4; ae_addq56	aeq2, aeq1, aeq0 }
    6f45:	2b8c76        	loop	a12, 6f74 <two_mic_WB_NR_NSN_proc+0x2cc>

00006f48 <two_mic_WB_NR_NSN_proc+0x2a0>:
    6f48:	fa26fb20df 	{ ae_sraiq56	aeq3, aeq2, 1; ae_subq56	aeq2, aeq0, aeq1 }
    6f4d:	35a074        	ae_sraiq56	aeq2, aeq2, 1
    6f50:	600814        	ae_lq32f.i	aeq0, a8, 4
    6f53:	604914        	ae_lq32f.i	aeq1, a9, 4
    6f56:	fb6a39ba1f 	{ ae_sq32f.i	aeq3, a10, 4; ae_addq56	aeq3, aeq1, aeq0 }
    6f5b:	fa2af9ab3f 	{ ae_sq32f.i	aeq2, a11, 12; ae_subq56	aeq2, aeq1, aeq0 }
    6f60:	35f074        	ae_sraiq56	aeq3, aeq3, 1
    6f63:	35a074        	ae_sraiq56	aeq2, aeq2, 1
    6f66:	6018e4        	ae_lq32f.iu	aeq0, a8, -8
    6f69:	605924        	ae_lq32f.iu	aeq1, a9, 8
    6f6c:	fa6a39ea2f 	{ ae_sq32f.iu	aeq2, a10, 8; ae_addq56	aeq2, aeq1, aeq0 }
    6f71:	627b24        	ae_sq32f.iu	aeq3, a11, 8

00006f74 <two_mic_WB_NR_NSN_proc+0x2cc>:
    6f74:	01a0c2        	movi	a12, 1
    6f77:	402492        	l32i	a9, a4, 0x100
    6f7a:	1921d2        	l32i	a13, a1, 100
    6f7d:	3e2462        	l32i	a6, a4, 248
    6f80:	3f2482        	l32i	a8, a4, 252
    6f83:	3d24f2        	l32i	a15, a4, 244
    6f86:	18c6b2        	addi	a11, a6, 24
    6f89:	5c0634        	ae_lp24x2f.i	aep0, a6, 24
    6f8c:	18cfa2        	addi	a10, a15, 24
    6f8f:	fcc882        	addi	a8, a8, -4
    6f92:	079de2        	l16si	a14, a13, 14
    6f95:	fcc992        	addi	a9, a9, -4
    6f98:	5c1f34        	ae_lp24x2f.i	aep1, a15, 24
    6f9b:	11eef0        	slli	a14, a14, 1
    6f9e:	c0cce0        	sub	a12, a12, a14
    6fa1:	085dc2        	s16i	a12, a13, 16
    6fa4:	f027c0eecf 	{ movi	a12, 238; ae_mulzaap24s.hh.ll	aeq1, aep1, aep1 }
    6fa9:	108c76        	loop	a12, 6fbd <two_mic_WB_NR_NSN_proc+0x315>
    6fac:	040024        	ae_mulzaap24s.hh.ll	aeq0, aep0, aep0
    6faf:	625814        	ae_sq32f.iu	aeq1, a8, 4
    6fb2:	624914        	ae_sq32f.iu	aeq0, a9, 4
    6fb5:	5c8a14        	ae_lp24x2f.iu	aep0, a10, 8

00006fb8 <two_mic_WB_NR_NSN_proc+0x310>:
    6fb8:	f003ef8b1f 	{ ae_lp24x2f.iu	aep0, a11, 8; ae_mulzaap24s.hh.ll	aeq1, aep0, aep0 }

00006fbd <two_mic_WB_NR_NSN_proc+0x315>:
    6fbd:	192182        	l32i	a8, a1, 100
    6fc0:	388d           	ae_l16si.n	a8, a8, 2
    6fc2:	0248e6        	bgei	a8, 4, 6fc8 <two_mic_WB_NR_NSN_proc+0x320>
    6fc5:	01a106        	j	764d <two_mic_WB_NR_NSN_proc+0x9a5>
    6fc8:	929492        	l16si	a9, a4, 0x124
    6fcb:	0a0c           	movi.n	a10, 0
    6fcd:	990b           	addi.n	a9, a9, -1
    6fcf:	5399a0        	max	a9, a9, a10
    6fd2:	925492        	s16i	a9, a4, 0x124

00006fd5 <two_mic_WB_NR_NSN_proc+0x32d>:
    6fd5:	1921b2        	l32i	a11, a1, 100
    6fd8:	049bb2        	l16si	a11, a11, 8
    6fdb:	8a7c           	movi.n	a10, -8
    6fdd:	132ab7        	blt	a10, a11, 6ff4 <two_mic_WB_NR_NSN_proc+0x34c>
    6fe0:	9394c2        	l16si	a12, a4, 0x126
    6fe3:	e52881        	l32r	a8, 484 (7f5c00a4 <_end+0x7f5b3604>)
    6fe6:	11cc00        	slli	a12, a12, 16
    6fe9:	368c34        	ae_cvtq48a32s	aeq2, a12
    6fec:	000346        	j	6ffd <two_mic_WB_NR_NSN_proc+0x355>

00006fef <two_mic_WB_NR_NSN_proc+0x347>:
    6fef:	00000000 e5258100                                .....

00006ff4 <two_mic_WB_NR_NSN_proc+0x34c>:
    6ff4:	e52581        	l32r	a8, 488 (7ff00010 <_end+0x7fef3570>)
    6ff7:	e438d1        	l32r	a13, d8 (7fff0000 <_end+0x7ffe3560>)
    6ffa:	368d34        	ae_cvtq48a32s	aeq2, a13

00006ffd <two_mic_WB_NR_NSN_proc+0x355>:
    6ffd:	e523e1        	l32r	a14, 48c (979c <Pitch_2Mic>)
    7000:	172162        	l32i	a6, a1, 92
    7003:	1821f2        	l32i	a15, a1, 96
    7006:	30a884        	ae_cvtp24a16x2.lh	aep2, a8, a8
    7009:	412662        	l32i	a6, a6, 0x104
    700c:	364634        	ae_cvtq48a32s	aeq1, a6
    700f:	0c4b7191ae 	{ l32i	a10, a1, 100; ae_mulzaafq32sp16s.lh	aeq1, aeq1, aep2, aeq2, aep2 }
    7014:	12dff2        	addmi	a15, a15, 0x1200
    7017:	fc2c430ffe 	{ addi	a15, a15, 48; ae_roundsq32asym	aeq0, aeq1 }
    701c:	620f04        	ae_sq32f.i	aeq0, a15, 0
    701f:	000ee0        	callx8	a14
    7022:	e41dc1        	l32r	a12, 98 (8000 <NR_vad2+0xe4>)
    7025:	e51a21        	l32r	a2, 490 (20000000 <_end+0x1fff3560>)
    7028:	412482        	l32i	a8, a4, 0x104
    702b:	432492        	l32i	a9, a4, 0x10c
    702e:	8d14a2        	l16ui	a10, a4, 0x11a
    7031:	fcc882        	addi	a8, a8, -4
    7034:	fcc992        	addi	a9, a9, -4
    7037:	022ab6        	bltui	a10, 2, 703d <two_mic_WB_NR_NSN_proc+0x395>
    703a:	018e86        	j	7678 <two_mic_WB_NR_NSN_proc+0x9d0>
    703d:	360234        	ae_cvtq48a32s	aeq0, a2
    7040:	fc2080eeaf 	{ movi	a10, 238; ae_zerop48	aep0 }
    7045:	058a76        	loop	a10, 704e <two_mic_WB_NR_NSN_proc+0x3a6>
    7048:	468814        	ae_sp16x2f.iu	aep0, a8, 4
    704b:	624914        	ae_sq32f.iu	aeq0, a9, 4

0000704e <two_mic_WB_NR_NSN_proc+0x3a6>:
    704e:	150c           	movi.n	a5, 1
    7050:	e511b1        	l32r	a11, 494 (c402 <sb_h2ir+0x22>)
    7053:	1361b2        	s32i	a11, a1, 76

00007056 <two_mic_WB_NR_NSN_proc+0x3ae>:
    7056:	1321b2        	l32i	a11, a1, 76
    7059:	452482        	l32i	a8, a4, 0x114
    705c:	f03d           	nop.n
    705e:	7f9bb2        	l16si	a11, a11, 254
    7061:	fec8e2        	addi	a14, a8, -2
    7064:	0b1ba6        	blti	a11, 1, 7073 <two_mic_WB_NR_NSN_proc+0x3cb>
    7067:	07c804        	ae_zerop48	aep0
    706a:	02ab76        	loopgtz	a11, 7070 <two_mic_WB_NR_NSN_proc+0x3c8>
    706d:	428e14        	ae_sp16f.l.iu	aep0, a14, 2

00007070 <two_mic_WB_NR_NSN_proc+0x3c8>:
    7070:	452482        	l32i	a8, a4, 0x114

00007073 <two_mic_WB_NR_NSN_proc+0x3cb>:
    7073:	113be0        	slli	a3, a11, 2
    7076:	3f2492        	l32i	a9, a4, 252
    7079:	1921a2        	l32i	a10, a1, 100
    707c:	11fbf0        	slli	a15, a11, 1
    707f:	e413d1        	l32r	a13, cc (4000 <Voice_WB_TX_Prcs+0x5c0>)
    7082:	90eb80        	addx2	a14, a11, a8
    7085:	368d34        	ae_cvtq48a32s	aeq2, a13
    7088:	1261f2        	s32i	a15, a1, 72
    708b:	eda0d2        	movi	a13, 237
    708e:	fecee2        	addi	a14, a14, -2
    7091:	089aa2        	l16si	a10, a10, 16
    7094:	402482        	l32i	a8, a4, 0x100
    7097:	a09b90        	addx4	a9, a11, a9
    709a:	fcc992        	addi	a9, a9, -4
    709d:	605914        	ae_lq32f.iu	aeq1, a9, 4
    70a0:	a08b80        	addx4	a8, a11, a8
    70a3:	60a0a0        	neg	a10, a10
    70a6:	fc24feaacf 	{ ae_slaasq56s	aeq3, aeq2, a10; nop }
    70ab:	fcc882        	addi	a8, a8, -4
    70ae:	609814        	ae_lq32f.iu	aeq2, a8, 4
    70b1:	4c2db7        	blt	a13, a11, 7101 <two_mic_WB_NR_NSN_proc+0x459>
    70b4:	eea062        	movi	a6, 238
    70b7:	e452f1        	l32r	a15, 200 (7fff <NR_vad2+0xe3>)
    70ba:	303ff4        	ae_cvtp24a16x2.ll	aep3, a15, a15
    70bd:	c066b0        	sub	a6, a6, a11
    70c0:	3da676        	loopgtz	a6, 7101 <two_mic_WB_NR_NSN_proc+0x459>
    70c3:	099204        	ae_ltq56s	b0, aeq2, aeq1
    70c6:	f8ee3f2baf 	{ ae_nsaq56s	a11, aeq2; ae_addq56	aeq0, aeq1, aeq3 }
    70cb:	364a04        	ae_nsaq56s	a10, aeq0
    70ce:	0934a4        	ae_movp48	aep2, aep3
    70d1:	230076        	bf	b0, 70f8 <two_mic_WB_NR_NSN_proc+0x450>
    70d4:	43aab0        	min	a10, a10, a11
    70d7:	e9cab2        	addi	a11, a10, -23
    70da:	fc24fe8b0f 	{ ae_slaasq56s	aeq0, aeq0, a11; nop }
    70df:	368b04        	ae_trunca32q48	a11, aeq0
    70e2:	f8caa2        	addi	a10, a10, -8
    70e5:	34aa94        	ae_sllaq56	aeq2, aeq2, a10
    70e8:	0bac           	beqz.n	a11, 710c <two_mic_WB_NR_NSN_proc+0x464>
    70ea:	36ad04        	ae_trunca32q48	a13, aeq2
    70ed:	f03d           	nop.n
    70ef:	d2bdb0        	quos	a11, a13, a11

000070f2 <two_mic_WB_NR_NSN_proc+0x44a>:
    70f2:	436bf0        	min	a6, a11, a15
    70f5:	302664        	ae_cvtp24a16x2.ll	aep2, a6, a6

000070f8 <two_mic_WB_NR_NSN_proc+0x450>:
    70f8:	609814        	ae_lq32f.iu	aeq2, a8, 4
    70fb:	605914        	ae_lq32f.iu	aeq1, a9, 4
    70fe:	42ae14        	ae_sp16f.l.iu	aep2, a14, 2

00007101 <two_mic_WB_NR_NSN_proc+0x459>:
    7101:	850b           	addi.n	a8, a5, -1
    7103:	166182        	s32i	a8, a1, 88
    7106:	0925e6        	bgei	a5, 2, 7113 <two_mic_WB_NR_NSN_proc+0x46b>
    7109:	000646        	j	7126 <two_mic_WB_NR_NSN_proc+0x47e>

0000710c <two_mic_WB_NR_NSN_proc+0x464>:
    710c:	e43db1        	l32r	a11, 200 (7fff <NR_vad2+0xe3>)
    710f:	fff7c6        	j	70f2 <two_mic_WB_NR_NSN_proc+0x44a>

00007112 <two_mic_WB_NR_NSN_proc+0x46a>:
	...

00007113 <two_mic_WB_NR_NSN_proc+0x46b>:
    7113:	080c           	movi.n	a8, 0
    7115:	162192        	l32i	a9, a1, 88
    7118:	4424b2        	l32i	a11, a4, 0x110
    711b:	0a0c           	movi.n	a10, 0
    711d:	05a976        	loopgtz	a9, 7126 <two_mic_WB_NR_NSN_proc+0x47e>
    7120:	9b8a           	add.n	a9, a11, a8
    7122:	09a9           	s32i.n	a10, a9, 0
    7124:	884b           	addi.n	a8, a8, 4

00007126 <two_mic_WB_NR_NSN_proc+0x47e>:
    7126:	3f24b2        	l32i	a11, a4, 252
    7129:	e3d6d1        	l32r	a13, 84 (c500 <wb_sb_ptn>)
    712c:	4024a2        	l32i	a10, a4, 0x100
    712f:	9b3a           	add.n	a9, a11, a3
    7131:	606b34        	ae_lq32f.x	aeq1, a11, a3
    7134:	8a3a           	add.n	a8, a10, a3
    7136:	60aa34        	ae_lq32f.x	aeq2, a10, a3
    7139:	7895e6        	bgei	a5, 10, 71b5 <two_mic_WB_NR_NSN_proc+0x50d>
    713c:	1621b2        	l32i	a11, a1, 88
    713f:	0d2d           	mov.n	a2, a13
    7141:	11ebe0        	slli	a14, a11, 2
    7144:	fc2491bb2f 	{ addx2	a11, a11, a2; ae_zeroq56	aeq0 }
    7149:	ff0441222e 	{ addi	a2, a2, 18; ae_movq56	aeq3, aeq0 }
    714e:	0005c6        	j	7169 <two_mic_WB_NR_NSN_proc+0x4c1>

00007151 <two_mic_WB_NR_NSN_proc+0x4a9>:
	...

00007153 <two_mic_WB_NR_NSN_proc+0x4ab>:
    7153:	368d04        	ae_trunca32q48	a13, aeq0
    7156:	d2fdf0        	quos	a15, a13, a15

00007159 <two_mic_WB_NR_NSN_proc+0x4b1>:
    7159:	436fc0        	min	a6, a15, a12
    715c:	fc24804eee 	{ addi	a14, a14, 4; ae_zeroq56	aeq0 }
    7161:	ff0454076f 	{ s32i.n	a6, a7, 0; ae_movq56	aeq3, aeq0 }
    7166:	4b1b27        	beq	a11, a2, 71b5 <two_mic_WB_NR_NSN_proc+0x50d>

00007169 <two_mic_WB_NR_NSN_proc+0x4c1>:
    7169:	2bdd           	ae_l16si.n	a13, a11, 0
    716b:	3bad           	ae_l16si.n	a10, a11, 2
    716d:	442472        	l32i	a7, a4, 0x110
    7170:	bb2b           	addi.n	a11, a11, 2
    7172:	c0aad0        	sub	a10, a10, a13
    7175:	0caa76        	loopgtz	a10, 7185 <two_mic_WB_NR_NSN_proc+0x4dd>
    7178:	0109c4        	ae_addq56	aeq0, aeq0, aeq1
    717b:	f98abd581f 	{ ae_lq32f.iu	aeq2, a8, 4; ae_minq56s	aeq1, aeq2, aeq1 }
    7180:	fb7e3d391f 	{ ae_lq32f.iu	aeq1, a9, 4; ae_addq56	aeq3, aeq3, aeq1 }

00007185 <two_mic_WB_NR_NSN_proc+0x4dd>:
    7185:	367604        	ae_nsaq56s	a6, aeq3
    7188:	364f04        	ae_nsaq56s	a15, aeq0
    718b:	78c1a2        	addi	a10, a1, 120
    718e:	631a14        	ae_sq56s.i	aeq1, a10, 8
    7191:	43ff60        	min	a15, a15, a6
    7194:	e9cfd2        	addi	a13, a15, -23
    7197:	f8cff2        	addi	a15, a15, -8

0000719a <two_mic_WB_NR_NSN_proc+0x4f2>:
    719a:	fd047ebf0f 	{ ae_slaasq56s	aeq0, aeq3, a15; ae_movq56	aeq1, aeq0 }
    719f:	fc24fe9d4f 	{ ae_slaasq56s	aeq1, aeq1, a13; nop }
    71a4:	369f04        	ae_trunca32q48	a15, aeq1
    71a7:	77ea           	add.n	a7, a7, a14
    71a9:	614a14        	ae_lq56.i	aeq1, a10, 8
    71ac:	fa3f56        	bnez	a15, 7153 <two_mic_WB_NR_NSN_proc+0x4ab>
    71af:	e3baf1        	l32r	a15, 98 (8000 <NR_vad2+0xe4>)
    71b2:	ffe8c6        	j	7159 <two_mic_WB_NR_NSN_proc+0x4b1>

000071b5 <two_mic_WB_NR_NSN_proc+0x50d>:
    71b5:	192182        	l32i	a8, a1, 100
    71b8:	0598b2        	l16si	a11, a8, 10
    71bb:	388d           	ae_l16si.n	a8, a8, 2
    71bd:	021be6        	bgei	a11, 1, 71c3 <two_mic_WB_NR_NSN_proc+0x51b>
    71c0:	019e06        	j	783c <two_mic_WB_NR_NSN_proc+0xb94>
    71c3:	3b24e2        	l32i	a14, a4, 236
    71c6:	1921a2        	l32i	a10, a1, 100
    71c9:	1188f0        	slli	a8, a8, 1
    71cc:	6e8d           	ae_s16i.n	a8, a14, 0
    71ce:	3add           	ae_l16si.n	a13, a10, 2
    71d0:	11ddf0        	slli	a13, a13, 1
    71d3:	7edd           	ae_s16i.n	a13, a14, 2
    71d5:	3acd           	ae_l16si.n	a12, a10, 2
    71d7:	11ccf0        	slli	a12, a12, 1
    71da:	025ec2        	s16i	a12, a14, 4
    71dd:	029ab2        	l16si	a11, a10, 4
    71e0:	3a9d           	ae_l16si.n	a9, a10, 2
    71e2:	99ba           	add.n	a9, a9, a11
    71e4:	035e92        	s16i	a9, a14, 6
    71e7:	029a62        	l16si	a6, a10, 4
    71ea:	1166f0        	slli	a6, a6, 1
    71ed:	045e62        	s16i	a6, a14, 8
    71f0:	039af2        	l16si	a15, a10, 6
    71f3:	029ad2        	l16si	a13, a10, 4
    71f6:	ddfa           	add.n	a13, a13, a15
    71f8:	055ed2        	s16i	a13, a14, 10
    71fb:	039ac2        	l16si	a12, a10, 6
    71fe:	11ccf0        	slli	a12, a12, 1
    7201:	065ec2        	s16i	a12, a14, 12
    7204:	049ab2        	l16si	a11, a10, 8
    7207:	11bbf0        	slli	a11, a11, 1
    720a:	075eb2        	s16i	a11, a14, 14
    720d:	049aa2        	l16si	a10, a10, 8
    7210:	950b           	addi.n	a9, a5, -1
    7212:	e3b7b1        	l32r	a11, f0 (c4e0 <wb_score_bands>)
    7215:	11aaf0        	slli	a10, a10, 1
    7218:	085ea2        	s16i	a10, a14, 16
    721b:	671916        	beqz	a9, 7890 <two_mic_WB_NR_NSN_proc+0xbe8>
    721e:	0225e6        	bgei	a5, 2, 7224 <two_mic_WB_NR_NSN_proc+0x57c>
    7221:	018306        	j	7831 <two_mic_WB_NR_NSN_proc+0xb89>
    7224:	080c           	movi.n	a8, 0
    7226:	1621f2        	l32i	a15, a1, 88
    7229:	0bad           	mov.n	a10, a11
    722b:	020c           	movi.n	a2, 0
    722d:	0fbd           	mov.n	a11, a15
    722f:	0f6f07        	bbci	a15, 0, 7242 <two_mic_WB_NR_NSN_proc+0x59a>
    7232:	e3afa1        	l32r	a10, f0 (c4e0 <wb_score_bands>)
    7235:	0c3c           	movi.n	a12, 48
    7237:	6ecd           	ae_s16i.n	a12, a14, 0
    7239:	2a2d           	ae_l16si.n	a2, a10, 0
    723b:	280c           	movi.n	a8, 2
    723d:	aa2b           	addi.n	a10, a10, 2
    723f:	112200        	slli	a2, a2, 16

00007242 <two_mic_WB_NR_NSN_proc+0x59a>:
    7242:	0d3c           	movi.n	a13, 48
    7244:	2191b0        	srai	a9, a11, 1
    7247:	1ba976        	loopgtz	a9, 7266 <two_mic_WB_NR_NSN_proc+0x5be>
    724a:	9e8a           	add.n	a9, a14, a8
    724c:	b82b           	addi.n	a11, a8, 2
    724e:	69dd           	ae_s16i.n	a13, a9, 0
    7250:	9eba           	add.n	a9, a14, a11
    7252:	884b           	addi.n	a8, a8, 4
    7254:	2abd           	ae_l16si.n	a11, a10, 0
    7256:	69dd           	ae_s16i.n	a13, a9, 0
    7258:	3a9d           	ae_l16si.n	a9, a10, 2
    725a:	11bb00        	slli	a11, a11, 16
    725d:	b2ba           	add.n	a11, a2, a11
    725f:	119900        	slli	a9, a9, 16
    7262:	aa4b           	addi.n	a10, a10, 4
    7264:	2b9a           	add.n	a2, a11, a9

00007266 <two_mic_WB_NR_NSN_proc+0x5be>:
    7266:	1921e2        	l32i	a14, a1, 100
    7269:	f03d           	nop.n
    726b:	099ed2        	l16si	a13, a14, 18
    726e:	089ec2        	l16si	a12, a14, 16
    7271:	14cee2        	addi	a14, a14, 20
    7274:	1561e2        	s32i	a14, a1, 84
    7277:	161cd7        	beq	a12, a13, 7291 <two_mic_WB_NR_NSN_proc+0x5e9>
    727a:	0ebd           	mov.n	a11, a14
    727c:	e48781        	l32r	a8, 498 (7af8 <equal_power>)
    727f:	4024a2        	l32i	a10, a4, 0x100
    7282:	eea0e2        	movi	a14, 238
    7285:	0008e0        	callx8	a8
    7288:	192192        	l32i	a9, a1, 100
    728b:	0959a2        	s16i	a10, a9, 18
    728e:	0859a2        	s16i	a10, a9, 16

00007291 <two_mic_WB_NR_NSN_proc+0x5e9>:
    7291:	1221b2        	l32i	a11, a1, 72
    7294:	432492        	l32i	a9, a4, 0x10c
    7297:	412482        	l32i	a8, a4, 0x104
    729a:	4524a2        	l32i	a10, a4, 0x114
    729d:	993a           	add.n	a9, a9, a3
    729f:	883a           	add.n	a8, a8, a3
    72a1:	caba           	add.n	a12, a10, a11
    72a3:	412ab4        	ae_lp16f.x	aep2, a10, a11
    72a6:	fcc882        	addi	a8, a8, -4
    72a9:	fcc992        	addi	a9, a9, -4
    72ac:	0295a6        	blti	a5, 10, 72b2 <two_mic_WB_NR_NSN_proc+0x60a>
    72af:	006c86        	j	7465 <two_mic_WB_NR_NSN_proc+0x7bd>
    72b2:	1621f2        	l32i	a15, a1, 88
    72b5:	e37361        	l32r	a6, 84 (c500 <wb_sb_ptn>)
    72b8:	e38ee1        	l32r	a14, f0 (c4e0 <wb_score_bands>)
    72bb:	115ff0        	slli	a5, a15, 1
    72be:	113fe0        	slli	a3, a15, 2
    72c1:	90efe0        	addx2	a14, a15, a14
    72c4:	90ff60        	addx2	a15, a15, a6
    72c7:	e47561        	l32r	a6, 49c (c4f2 <wb_score_bands+0x12>)
    72ca:	d0afd2        	movi	a13, -48
    72cd:	1b6162        	s32i	a6, a1, 108
    72d0:	fac662        	addi	a6, a6, -6
    72d3:	1a6162        	s32i	a6, a1, 104
    72d6:	000a46        	j	7303 <two_mic_WB_NR_NSN_proc+0x65b>

000072d9 <two_mic_WB_NR_NSN_proc+0x631>:
	...

000072db <two_mic_WB_NR_NSN_proc+0x633>:
    72db:	90cac0        	addx2	a12, a10, a12
    72de:	e47161        	l32r	a6, 4a4 (46666666 <_end+0x46659bc6>)
    72e1:	e46fb1        	l32r	a11, 4a0 (2666599a <_end+0x26658efa>)
    72e4:	308bb4        	ae_cvtp24a16x2.lh	aep0, a11, a11
    72e7:	360634        	ae_cvtq48a32s	aeq0, a6
    72ea:	402c04        	ae_lp16f.i	aep2, a12, 0
    72ed:	05aa76        	loopgtz	a10, 72f6 <two_mic_WB_NR_NSN_proc+0x64e>
    72f0:	468814        	ae_sp16x2f.iu	aep0, a8, 4
    72f3:	624914        	ae_sq32f.iu	aeq0, a9, 4

000072f6 <two_mic_WB_NR_NSN_proc+0x64e>:
    72f6:	1b2162        	l32i	a6, a1, 108
    72f9:	ff2b           	addi.n	a15, a15, 2
    72fb:	ee2b           	addi.n	a14, a14, 2
    72fd:	c06e60        	sub	a6, a14, a6
    7300:	161616        	beqz	a6, 7465 <two_mic_WB_NR_NSN_proc+0x7bd>

00007303 <two_mic_WB_NR_NSN_proc+0x65b>:
    7303:	3b24b2        	l32i	a11, a4, 236
    7306:	bb5a           	add.n	a11, a11, a5
    7308:	2bbd           	ae_l16si.n	a11, a11, 0
    730a:	472c           	movi.n	a7, 36
    730c:	552b           	addi.n	a5, a5, 2
    730e:	62a7b7        	bge	a7, a11, 7374 <two_mic_WB_NR_NSN_proc+0x6cc>
    7311:	0b3c           	movi.n	a11, 48

00007313 <two_mic_WB_NR_NSN_proc+0x66b>:
    7313:	2e7d           	ae_l16si.n	a7, a14, 0
    7315:	063c           	movi.n	a6, 48
    7317:	53bbd0        	max	a11, a11, a13
    731a:	43bb60        	min	a11, a11, a6
    731d:	8277b0        	mull	a7, a7, a11
    7320:	55a5a2        	movi	a10, 0x555
    7323:	8277a0        	mull	a7, a7, a10
    7326:	3fad           	ae_l16si.n	a10, a15, 2
    7328:	227a           	add.n	a2, a2, a7
    732a:	2f7d           	ae_l16si.n	a7, a15, 0
    732c:	334b           	addi.n	a3, a3, 4
    732e:	d0cb62        	addi	a6, a11, -48
    7331:	c0aa70        	sub	a10, a10, a7
    7334:	0c5616        	beqz	a6, 73fd <two_mic_WB_NR_NSN_proc+0x755>
    7337:	929462        	l16si	a6, a4, 0x124
    733a:	777c           	movi.n	a7, -9
    733c:	1316a6        	blti	a6, 1, 7353 <two_mic_WB_NR_NSN_proc+0x6ab>
    733f:	0527b7        	blt	a7, a11, 7348 <two_mic_WB_NR_NSN_proc+0x6a0>
    7342:	1a2162        	l32i	a6, a1, 104
    7345:	9236e7        	bltu	a6, a14, 72db <two_mic_WB_NR_NSN_proc+0x633>

00007348 <two_mic_WB_NR_NSN_proc+0x6a0>:
    7348:	e76c           	movi.n	a7, -18
    734a:	0527b7        	blt	a7, a11, 7353 <two_mic_WB_NR_NSN_proc+0x6ab>
    734d:	1a2162        	l32i	a6, a1, 104
    7350:	871e67        	beq	a14, a6, 72db <two_mic_WB_NR_NSN_proc+0x633>
    7353:	d6af72        	movi	a7, -42
    7356:	3227b7        	blt	a7, a11, 738c <two_mic_WB_NR_NSN_proc+0x6e4>
    7359:	e45371        	l32r	a7, 4a8 (1e666666 <_end+0x1e659bc6>)
    735c:	e451b1        	l32r	a11, 4a0 (2666599a <_end+0x26658efa>)
    735f:	e45361        	l32r	a6, 4ac (30000000 <_end+0x2fff3560>)
    7362:	1d6162        	s32i	a6, a1, 116
    7365:	1e61b2        	s32i	a11, a1, 120
    7368:	1c6172        	s32i	a7, a1, 112
    736b:	e451b1        	l32r	a11, 4b0 (7ccd0333 <_end+0x7ccc3893>)
    736e:	e36d71        	l32r	a7, 124 (600000 <_end+0x5f3560>)
    7371:	001386        	j	73c3 <two_mic_WB_NR_NSN_proc+0x71b>

00007374 <two_mic_WB_NR_NSN_proc+0x6cc>:
    7374:	9badb7        	bge	a13, a11, 7313 <two_mic_WB_NR_NSN_proc+0x66b>
    7377:	4424a2        	l32i	a10, a4, 0x110
    737a:	e44e61        	l32r	a6, 4b4 (7000 <two_mic_WB_NR_NSN_proc+0x358>)
    737d:	a3aa           	add.n	a10, a3, a10
    737f:	0aa8           	l32i.n	a10, a10, 0
    7381:	0226a7        	blt	a6, a10, 7387 <two_mic_WB_NR_NSN_proc+0x6df>
    7384:	002446        	j	7419 <two_mic_WB_NR_NSN_proc+0x771>
    7387:	bbfb           	addi.n	a11, a11, 15
    7389:	ffe186        	j	7313 <two_mic_WB_NR_NSN_proc+0x66b>

0000738c <two_mic_WB_NR_NSN_proc+0x6e4>:
    738c:	566c           	movi.n	a6, -27
    738e:	1426b7        	blt	a6, a11, 73a6 <two_mic_WB_NR_NSN_proc+0x6fe>
    7391:	e449b1        	l32r	a11, 4b8 (23333333 <_end+0x23326893>)
    7394:	e44a71        	l32r	a7, 4bc (40004000 <_end+0x3fff7560>)
    7397:	1e6172        	s32i	a7, a1, 120
    739a:	1d61b2        	s32i	a11, a1, 116
    739d:	e44971        	l32r	a7, 4c4 (333333 <_end+0x326893>)
    73a0:	e448b1        	l32r	a11, 4c0 (7eb80148 <_end+0x7eb736a8>)
    73a3:	000586        	j	73bd <two_mic_WB_NR_NSN_proc+0x715>

000073a6 <two_mic_WB_NR_NSN_proc+0x6fe>:
    73a6:	467c           	movi.n	a6, -12
    73a8:	7826b7        	blt	a6, a11, 7424 <two_mic_WB_NR_NSN_proc+0x77c>
    73ab:	e445b1        	l32r	a11, 4c0 (7eb80148 <_end+0x7eb736a8>)
    73ae:	e44371        	l32r	a7, 4bc (40004000 <_end+0x3fff7560>)
    73b1:	1e6172        	s32i	a7, a1, 120
    73b4:	e35671        	l32r	a7, 10c (2ccccd <_end+0x2c022d>)

000073b7 <two_mic_WB_NR_NSN_proc+0x70f>:
    73b7:	e43661        	l32r	a6, 490 (20000000 <_end+0x1fff3560>)
    73ba:	1d6162        	s32i	a6, a1, 116

000073bd <two_mic_WB_NR_NSN_proc+0x715>:
    73bd:	e44261        	l32r	a6, 4c8 (1ccccccd <_end+0x1ccc022d>)
    73c0:	1c6162        	s32i	a6, a1, 112

000073c3 <two_mic_WB_NR_NSN_proc+0x71b>:
    73c3:	30cbb4        	ae_cvtp24a16x2.lh	aep4, a11, a11
    73c6:	1e2162        	l32i	a6, a1, 120
    73c9:	39b774        	ae_movpa24x2	aep3, a7, a7
    73cc:	30d664        	ae_cvtp24a16x2.lh	aep5, a6, a6
    73cf:	1c2162        	l32i	a6, a1, 112
    73d2:	364634        	ae_cvtq48a32s	aeq1, a6
    73d5:	1d2162        	l32i	a6, a1, 116
    73d8:	360634        	ae_cvtq48a32s	aeq0, a6
    73db:	f03d           	nop.n
    73dd:	19aa76        	loopgtz	a10, 73fa <two_mic_WB_NR_NSN_proc+0x752>
    73e0:	19b234        	ae_lep24s	b2:b3, aep3, aep2
    73e3:	40ac14        	ae_lp16f.iu	aep2, a12, 2
    73e6:	080276        	bf	b2, 73f2 <two_mic_WB_NR_NSN_proc+0x74a>
    73e9:	46c814        	ae_sp16x2f.iu	aep4, a8, 4
    73ec:	624914        	ae_sq32f.iu	aeq0, a9, 4
    73ef:	000146        	j	73f8 <two_mic_WB_NR_NSN_proc+0x750>

000073f2 <two_mic_WB_NR_NSN_proc+0x74a>:
    73f2:	46d814        	ae_sp16x2f.iu	aep5, a8, 4
    73f5:	625914        	ae_sq32f.iu	aeq1, a9, 4

000073f8 <two_mic_WB_NR_NSN_proc+0x750>:
    73f8:	f03d           	nop.n

000073fa <two_mic_WB_NR_NSN_proc+0x752>:
    73fa:	ffbe06        	j	72f6 <two_mic_WB_NR_NSN_proc+0x64e>

000073fd <two_mic_WB_NR_NSN_proc+0x755>:
    73fd:	90cac0        	addx2	a12, a10, a12
    7400:	e433b1        	l32r	a11, 4cc (1b333333 <_end+0x1b326893>)
    7403:	360b34        	ae_cvtq48a32s	aeq0, a11
    7406:	fc20ac2c0f 	{ ae_lp16f.i	aep2, a12, 0; ae_zerop48	aep0 }
    740b:	f03d           	nop.n
    740d:	05aa76        	loopgtz	a10, 7416 <two_mic_WB_NR_NSN_proc+0x76e>
    7410:	468814        	ae_sp16x2f.iu	aep0, a8, 4
    7413:	624914        	ae_sq32f.iu	aeq0, a9, 4

00007416 <two_mic_WB_NR_NSN_proc+0x76e>:
    7416:	ffb706        	j	72f6 <two_mic_WB_NR_NSN_proc+0x64e>

00007419 <two_mic_WB_NR_NSN_proc+0x771>:
    7419:	e42d61        	l32r	a6, 4d0 (5000 <cali_module_short+0x114>)
    741c:	18a6a7        	bge	a6, a10, 7438 <two_mic_WB_NR_NSN_proc+0x790>
    741f:	bb6b           	addi.n	a11, a11, 6
    7421:	ffbb86        	j	7313 <two_mic_WB_NR_NSN_proc+0x66b>

00007424 <two_mic_WB_NR_NSN_proc+0x77c>:
    7424:	c70c           	movi.n	a7, 12
    7426:	1e27b7        	blt	a7, a11, 7448 <two_mic_WB_NR_NSN_proc+0x7a0>
    7429:	e42ab1        	l32r	a11, 4d4 (599a2666 <_end+0x59995bc6>)
    742c:	e42b71        	l32r	a7, 4d8 (266666 <_end+0x259bc6>)
    742f:	1e61b2        	s32i	a11, a1, 120
    7432:	e423b1        	l32r	a11, 4c0 (7eb80148 <_end+0x7eb736a8>)
    7435:	ffdf86        	j	73b7 <two_mic_WB_NR_NSN_proc+0x70f>

00007438 <two_mic_WB_NR_NSN_proc+0x790>:
    7438:	e42961        	l32r	a6, 4dc (1999 <Pitch_by_Corel+0x53d>)
    743b:	e42a71        	l32r	a7, 4e4 (3334 <tx_upsample_by2+0x20>)
    743e:	1626a7        	blt	a6, a10, 7458 <two_mic_WB_NR_NSN_proc+0x7b0>
    7441:	eecbb2        	addi	a11, a11, -18
    7444:	ffb2c6        	j	7313 <two_mic_WB_NR_NSN_proc+0x66b>

00007447 <two_mic_WB_NR_NSN_proc+0x79f>:
	...

00007448 <two_mic_WB_NR_NSN_proc+0x7a0>:
    7448:	e42671        	l32r	a7, 4e0 (6666199a <_end+0x66654efa>)
    744b:	0b0c           	movi.n	a11, 0
    744d:	1e6172        	s32i	a7, a1, 120
    7450:	e36e71        	l32r	a7, 208 (200000 <_end+0x1f3560>)
    7453:	ffd806        	j	73b7 <two_mic_WB_NR_NSN_proc+0x70f>

00007456 <two_mic_WB_NR_NSN_proc+0x7ae>:
	...

00007458 <two_mic_WB_NR_NSN_proc+0x7b0>:
    7458:	727a70        	salt	a7, a10, a7
    745b:	facb62        	addi	a6, a11, -6
    745e:	93b670        	movnez	a11, a6, a7
    7461:	ffab86        	j	7313 <two_mic_WB_NR_NSN_proc+0x66b>

00007464 <two_mic_WB_NR_NSN_proc+0x7bc>:
	...

00007465 <two_mic_WB_NR_NSN_proc+0x7bd>:
    7465:	eea092        	movi	a9, 238
    7468:	412482        	l32i	a8, a4, 0x104
    746b:	1921c2        	l32i	a12, a1, 100
    746e:	e41ed1        	l32r	a13, 4e8 (7ccccd <_end+0x7c022d>)
    7471:	04d2e2        	addmi	a14, a2, 0x400
    7474:	21ebe0        	srai	a14, a14, 11
    7477:	39bdd4        	ae_movpa24x2	aep3, a13, a13
    747a:	065ce2        	s16i	a14, a12, 12
    747d:	4024e2        	l32i	a14, a4, 0x100
    7480:	10ccc2        	addi	a12, a12, 16
    7483:	442804        	ae_lp16x2f.i	aep2, a8, 0
    7486:	604e04        	ae_lq32f.i	aeq1, a14, 0
    7489:	21a976        	loopgtz	a9, 74ae <two_mic_WB_NR_NSN_proc+0x806>
    748c:	07c844        	ae_zerop48	aep4
    748f:	19ac44        	ae_eqp24	b4:b5, aep2, aep4
    7492:	609c14        	ae_lq32f.iu	aeq2, a12, 4
    7495:	0835a4        	ae_mulfq32sp24s.l	aeq0, aeq2, aep3
    7498:	070576        	bf	b5, 74a3 <two_mic_WB_NR_NSN_proc+0x7fb>
    749b:	605e14        	ae_lq32f.iu	aeq1, a14, 4
    749e:	000186        	j	74a8 <two_mic_WB_NR_NSN_proc+0x800>

000074a1 <two_mic_WB_NR_NSN_proc+0x7f9>:
	...

000074a3 <two_mic_WB_NR_NSN_proc+0x7fb>:
    74a3:	0e48bd3e1f 	{ ae_lq32f.iu	aeq1, a14, 4; ae_mulzaafq32sp16s.lh	aeq0, aeq2, aep2, aeq1, aep2 }

000074a8 <two_mic_WB_NR_NSN_proc+0x800>:
    74a8:	44a814        	ae_lp16x2f.iu	aep2, a8, 4
    74ab:	620c04        	ae_sq32f.i	aeq0, a12, 0

000074ae <two_mic_WB_NR_NSN_proc+0x806>:
    74ae:	1521a2        	l32i	a10, a1, 84
    74b1:	e41081        	l32r	a8, 4f4 (6b78 <est_pow_aver>)
    74b4:	1921b2        	l32i	a11, a1, 100
    74b7:	e40ec1        	l32r	a12, 4f0 (7f1b00e5 <_end+0x7f1a3645>)
    74ba:	e40cd1        	l32r	a13, 4ec (7fbe0042 <_end+0x7fbd35a2>)
    74bd:	01d9           	s32i.n	a13, a1, 0
    74bf:	0161c2        	s32i	a12, a1, 4
    74c2:	099bb2        	l16si	a11, a11, 18
    74c5:	0008e0        	callx8	a8
    74c8:	0abd           	mov.n	a11, a10
    74ca:	e30681        	l32r	a8, e4 (4920 <siir_safr>)
    74cd:	01cd           	mov.n	a12, a1
    74cf:	4a24a2        	l32i	a10, a4, 0x128
    74d2:	0008e0        	callx8	a8
    74d5:	4c2482        	l32i	a8, a4, 0x130
    74d8:	4a64a2        	s32i	a10, a4, 0x128
    74db:	20baa0        	or	a11, a10, a10
    74de:	02a8a7        	bge	a8, a10, 74e4 <two_mic_WB_NR_NSN_proc+0x83c>
    74e1:	00e3c6        	j	7874 <two_mic_WB_NR_NSN_proc+0xbcc>
    74e4:	368834        	ae_cvtq48a32s	aeq2, a8
    74e7:	e3acc1        	l32r	a12, 398 (6ccd <two_mic_WB_NR_NSN_proc+0x25>)
    74ea:	305cc4        	ae_cvtp24a16x2.ll	aep5, a12, a12
    74ed:	08d5a4        	ae_mulfq32sp24s.l	aeq2, aeq2, aep5
    74f0:	a18b           	addi.n	a10, a1, 8
    74f2:	622a04        	ae_sq32f.i	aeq2, a10, 0
    74f5:	022192        	l32i	a9, a1, 8
    74f8:	1429b7        	blt	a9, a11, 7510 <two_mic_WB_NR_NSN_proc+0x868>
    74fb:	192182        	l32i	a8, a1, 100
    74fe:	069882        	l16si	a8, a8, 12
    7501:	bfa0d2        	movi	a13, 191
    7504:	082d87        	blt	a13, a8, 7510 <two_mic_WB_NR_NSN_proc+0x868>
    7507:	8d1492        	l16ui	a9, a4, 0x11a
    750a:	0229f6        	bgeui	a9, 2, 7510 <two_mic_WB_NR_NSN_proc+0x868>
    750d:	00ee46        	j	78ca <two_mic_WB_NR_NSN_proc+0xc22>
    7510:	e3f481        	l32r	a8, 4e0 (6666199a <_end+0x66654efa>)
    7513:	e387c1        	l32r	a12, 330 (40000000 <_end+0x3fff3560>)
    7516:	21c9           	s32i.n	a12, a1, 8

00007518 <two_mic_WB_NR_NSN_proc+0x870>:
    7518:	30e884        	ae_cvtp24a16x2.lh	aep6, a8, a8
    751b:	1921d2        	l32i	a13, a1, 100
    751e:	360c34        	ae_cvtq48a32s	aeq0, a12
    7521:	4d24b2        	l32i	a11, a4, 0x134
    7524:	407d04        	ae_lp16f.i	aep7, a13, 0
    7527:	f89c3ecbff 	{ ae_cvtq48a32s	aeq3, a11; ae_mulfq32sp24s.l	aeq0, aeq0, aep7 }
    752c:	06dda2        	addmi	a10, a13, 0x600
    752f:	350074        	ae_sraiq56	aeq0, aeq0, 1
    7532:	0fd94002cf 	{ movi	a12, 2; ae_mulzaafq32sp16s.lh	aeq3, aeq3, aep6, aeq0, aep6 }
    7537:	34caa2        	addi	a10, a10, 52
    753a:	623a04        	ae_sq32f.i	aeq3, a10, 0

0000753d <two_mic_WB_NR_NSN_proc+0x895>:
    753d:	152192        	l32i	a9, a1, 84
    7540:	1921b2        	l32i	a11, a1, 100
    7543:	432482        	l32i	a8, a4, 0x10c
    7546:	4224a2        	l32i	a10, a4, 0x108
    7549:	4d24e2        	l32i	a14, a4, 0x134
    754c:	364e34        	ae_cvtq48a32s	aeq1, a14
    754f:	365e04        	ae_nsaq56s	a14, aeq1
    7552:	fccaa2        	addi	a10, a10, -4
    7555:	502804        	ae_lp24f.i	aep2, a8, 0
    7558:	099bd2        	l16si	a13, a11, 18
    755b:	f8cee2        	addi	a14, a14, -8
    755e:	fc24fe9ecf 	{ ae_slaasq56s	aeq3, aeq1, a14; nop }
    7563:	80ddc0        	add	a13, a13, a12
    7566:	c0dde0        	sub	a13, a13, a14
    7569:	04cdd2        	addi	a13, a13, 4
    756c:	8c54d2        	s16i	a13, a4, 0x118
    756f:	fa892e881f 	{ ae_lp24f.iu	aep0, a8, 4; ae_mulfq32sp24s.l	aeq0, aeq3, aep2 }
    7574:	605914        	ae_lq32f.iu	aeq1, a9, 4
    7577:	f8e7fd4b5f 	{ ae_lq32f.i	aeq2, a11, 20; ae_roundsp24q48sym	aep1, aeq0 }
    757c:	fb8400edbf 	{ movi	a11, 237; ae_mulfq32sp24s.l	aeq2, aeq2, aep1 }
    7581:	0f8b76        	loop	a11, 7594 <two_mic_WB_NR_NSN_proc+0x8ec>
    7584:	0805e4        	ae_mulfq32sp24s.l	aeq0, aeq3, aep0
    7587:	626a14        	ae_sq32f.iu	aeq2, a10, 4
    758a:	f8e7ee881f 	{ ae_lp24f.iu	aep0, a8, 4; ae_roundsp24q48sym	aep1, aeq0 }
    758f:	f9853d391f 	{ ae_lq32f.iu	aeq1, a9, 4; ae_mulfq32sp24s.l	aeq2, aeq1, aep1 }

00007594 <two_mic_WB_NR_NSN_proc+0x8ec>:
    7594:	1721b2        	l32i	a11, a1, 92
    7597:	626a14        	ae_sq32f.iu	aeq2, a10, 4
    759a:	9c94a2        	l16si	a10, a4, 0x138
    759d:	e31f81        	l32r	a8, 21c (8c40 <airoha_divide_limit_1>)
    75a0:	412bb2        	l32i	a11, a11, 0x104
    75a3:	11aa10        	slli	a10, a10, 15
    75a6:	0008e0        	callx8	a8
    75a9:	e35dc1        	l32r	a12, 320 (10000000 <_end+0xfff3560>)
    75ac:	022ca7        	blt	a12, a10, 75b2 <two_mic_WB_NR_NSN_proc+0x90a>
    75af:	002606        	j	764b <two_mic_WB_NR_NSN_proc+0x9a3>
    75b2:	e2b491        	l32r	a9, 84 (c500 <wb_sb_ptn>)
    75b5:	172182        	l32i	a8, a1, 92
    75b8:	40eab0        	nsa	a11, a10
    75bb:	401b00        	ssl	a11
    75be:	a1ca00        	sll	a12, a10
    75c1:	879882        	l16si	a8, a8, 0x10e
    75c4:	378cc4        	ae_truncp24a32x2	aep0, a12, a12
    75c7:	eb01e0899e 	{ l16si	a9, a9, 16; ae_mulfp24s.ll	aeq3, aep0, aep0 }
    75cc:	4224e2        	l32i	a14, a4, 0x108
    75cf:	367d04        	ae_nsaq56s	a13, aeq3
    75d2:	c0c980        	sub	a12, a9, a8
    75d5:	a088e0        	addx4	a8, a8, a14
    75d8:	f8cde2        	addi	a14, a13, -8
    75db:	fc24febe8f 	{ ae_slaasq56s	aeq2, aeq3, a14; nop }
    75e0:	f8f7fd280f 	{ ae_lq32f.i	aeq1, a8, 0; ae_roundsp24q48sym	aep1, aeq2 }
    75e5:	2c1ca6        	blti	a12, 1, 7615 <two_mic_WB_NR_NSN_proc+0x96d>
    75e8:	390c           	movi.n	a9, 3
    75ea:	c099b0        	sub	a9, a9, a11
    75ed:	349934        	ae_sllasq56s	aeq2, aeq1, a9
    75f0:	fd547d181f 	{ ae_lq32f.iu	aeq0, a8, 4; ae_roundsq32sym	aeq1, aeq2 }
    75f5:	f9e14ffcae 	{ addi	a10, a12, -1; ae_mulrfq32sp24s.l	aeq3, aeq1, aep0 }
    75fa:	0caa76        	loopgtz	a10, 760a <two_mic_WB_NR_NSN_proc+0x962>
    75fd:	340934        	ae_sllasq56s	aeq0, aeq0, a9
    7600:	fc4479b8ff 	{ ae_sq32f.i	aeq3, a8, -4; ae_roundsq32sym	aeq0, aeq0 }

00007605 <two_mic_WB_NR_NSN_proc+0x95d>:
    7605:	f9e07d181f 	{ ae_lq32f.iu	aeq0, a8, 4; ae_mulrfq32sp24s.l	aeq3, aeq0, aep0 }

0000760a <two_mic_WB_NR_NSN_proc+0x962>:
    760a:	e29e91        	l32r	a9, 84 (c500 <wb_sb_ptn>)
    760d:	6238f4        	ae_sq32f.i	aeq3, a8, -4
    7610:	fd0460899e 	{ l16si	a9, a9, 16; ae_movq56	aeq1, aeq0 }

00007615 <two_mic_WB_NR_NSN_proc+0x96d>:
    7615:	eda0a2        	movi	a10, 237
    7618:	eea0c2        	movi	a12, 238
    761b:	c0cc90        	sub	a12, a12, a9
    761e:	292a97        	blt	a10, a9, 764b <two_mic_WB_NR_NSN_proc+0x9a3>
    7621:	90abd0        	addx2	a10, a11, a13
    7624:	e90c           	movi.n	a9, 14
    7626:	c099a0        	sub	a9, a9, a10
    7629:	349934        	ae_sllasq56s	aeq2, aeq1, a9
    762c:	fd547d181f 	{ ae_lq32f.iu	aeq0, a8, 4; ae_roundsq32sym	aeq1, aeq2 }
    7631:	f8e54ffcae 	{ addi	a10, a12, -1; ae_mulrfq32sp24s.l	aeq1, aeq1, aep1 }
    7636:	0caa76        	loopgtz	a10, 7646 <two_mic_WB_NR_NSN_proc+0x99e>
    7639:	340934        	ae_sllasq56s	aeq0, aeq0, a9
    763c:	fc447998ff 	{ ae_sq32f.i	aeq1, a8, -4; ae_roundsq32sym	aeq0, aeq0 }
    7641:	f8e47d181f 	{ ae_lq32f.iu	aeq0, a8, 4; ae_mulrfq32sp24s.l	aeq1, aeq0, aep1 }

00007646 <two_mic_WB_NR_NSN_proc+0x99e>:
    7646:	6218f4        	ae_sq32f.i	aeq1, a8, -4
    7649:	f01d           	retw.n

0000764b <two_mic_WB_NR_NSN_proc+0x9a3>:
    764b:	f01d           	retw.n

0000764d <two_mic_WB_NR_NSN_proc+0x9a5>:
    764d:	0b7c           	movi.n	a11, -16
    764f:	0f2b87        	blt	a11, a8, 7662 <two_mic_WB_NR_NSN_proc+0x9ba>
    7652:	9294c2        	l16si	a12, a4, 0x124
    7655:	0d3c           	movi.n	a13, 48
    7657:	cc5b           	addi.n	a12, a12, 5
    7659:	43ccd0        	min	a12, a12, a13
    765c:	9254c2        	s16i	a12, a4, 0x124
    765f:	fe5c86        	j	6fd5 <two_mic_WB_NR_NSN_proc+0x32d>

00007662 <two_mic_WB_NR_NSN_proc+0x9ba>:
    7662:	0208a6        	blti	a8, -1, 7668 <two_mic_WB_NR_NSN_proc+0x9c0>
    7665:	fe5b06        	j	6fd5 <two_mic_WB_NR_NSN_proc+0x32d>
    7668:	9294d2        	l16si	a13, a4, 0x124
    766b:	0e3c           	movi.n	a14, 48
    766d:	dd3b           	addi.n	a13, a13, 3
    766f:	43dde0        	min	a13, a13, a14
    7672:	9254d2        	s16i	a13, a4, 0x124
    7675:	fe5706        	j	6fd5 <two_mic_WB_NR_NSN_proc+0x32d>

00007678 <two_mic_WB_NR_NSN_proc+0x9d0>:
    7678:	4824b2        	l32i	a11, a4, 0x120
    767b:	e39fe1        	l32r	a14, 4f8 (4000000 <_end+0x3ff3560>)
    767e:	06aeb7        	bge	a14, a11, 7688 <two_mic_WB_NR_NSN_proc+0x9e0>
    7681:	550c           	movi.n	a5, 5
    7683:	000386        	j	7695 <two_mic_WB_NR_NSN_proc+0x9ed>

00007686 <two_mic_WB_NR_NSN_proc+0x9de>:
	...

00007688 <two_mic_WB_NR_NSN_proc+0x9e0>:
    7688:	e39d61        	l32r	a6, 4fc (34ccccd <_end+0x34c022d>)
    768b:	4f0c           	movi.n	a15, 4
    768d:	350c           	movi.n	a5, 3
    768f:	7266b0        	salt	a6, a6, a11
    7692:	935f60        	movnez	a5, a15, a6

00007695 <two_mic_WB_NR_NSN_proc+0x9ed>:
    7695:	9294a2        	l16si	a10, a4, 0x124
    7698:	101aa6        	blti	a10, 1, 76ac <two_mic_WB_NR_NSN_proc+0xa04>
    769b:	4c24d2        	l32i	a13, a4, 0x130
    769e:	4a24b2        	l32i	a11, a4, 0x128
    76a1:	07abd7        	bge	a11, a13, 76ac <two_mic_WB_NR_NSN_proc+0xa04>
    76a4:	aea7e2        	movi	a14, 0x7ae
    76a7:	c1e9           	s32i.n	a14, a1, 48
    76a9:	0000c6        	j	76b0 <two_mic_WB_NR_NSN_proc+0xa08>

000076ac <two_mic_WB_NR_NSN_proc+0xa04>:
    76ac:	0f0c           	movi.n	a15, 0
    76ae:	c1f9           	s32i.n	a15, a1, 48

000076b0 <two_mic_WB_NR_NSN_proc+0xa08>:
    76b0:	e394e1        	l32r	a14, 500 (fe800000 <_end+0xfe7f3560>)
    76b3:	4724b2        	l32i	a11, a4, 0x11c
    76b6:	e39361        	l32r	a6, 504 (3fffff <_end+0x3f355f>)
    76b9:	ebea           	add.n	a14, a11, a14
    76bb:	0126e7        	blt	a6, a14, 76c0 <two_mic_WB_NR_NSN_proc+0xa18>
    76be:	ebea           	add.n	a14, a11, a14

000076c0 <two_mic_WB_NR_NSN_proc+0xa18>:
    76c0:	e392f1        	l32r	a15, 508 (ffa66666 <_end+0xffa59bc6>)
    76c3:	fefa           	add.n	a15, a14, a15
    76c5:	31f7f0        	srai	a15, a15, 23
    76c8:	021fe6        	bgei	a15, 1, 76ce <two_mic_WB_NR_NSN_proc+0xa26>
    76cb:	00ad06        	j	7983 <two_mic_WB_NR_NSN_proc+0xcdb>
    76ce:	c1a8           	l32i.n	a10, a1, 48
    76d0:	e38f61        	l32r	a6, 50c (50000000 <_end+0x4fff3560>)
    76d3:	360634        	ae_cvtq48a32s	aeq0, a6
    76d6:	2131a0        	srai	a3, a10, 1
    76d9:	a3aa           	add.n	a10, a3, a10
    76db:	c0bca0        	sub	a11, a12, a10
    76de:	11bb00        	slli	a11, a11, 16
    76e1:	aaba           	add.n	a10, a10, a11
    76e3:	308aa4        	ae_cvtp24a16x2.lh	aep0, a10, a10
    76e6:	05af76        	loopgtz	a15, 76ef <two_mic_WB_NR_NSN_proc+0xa47>
    76e9:	468814        	ae_sp16x2f.iu	aep0, a8, 4
    76ec:	624914        	ae_sq32f.iu	aeq0, a9, 4

000076ef <two_mic_WB_NR_NSN_proc+0xa47>:
    76ef:	0fbd           	mov.n	a11, a15

000076f1 <two_mic_WB_NR_NSN_proc+0xa49>:
    76f1:	36c234        	ae_cvtq48a32s	aeq3, a2
    76f4:	e387d1        	l32r	a13, 510 (c400 <sb_h2ir+0x20>)
    76f7:	c0fc30        	sub	a15, a12, a3
    76fa:	11ff00        	slli	a15, a15, 16
    76fd:	f3fa           	add.n	a15, a3, a15
    76ff:	30bff4        	ae_cvtp24a16x2.lh	aep3, a15, a15
    7702:	90d5d0        	addx2	a13, a5, a13
    7705:	1361d2        	s32i	a13, a1, 76
    7708:	e383f1        	l32r	a15, 514 (ff800000 <_end+0xff7f3560>)
    770b:	46b814        	ae_sp16x2f.iu	aep3, a8, 4
    770e:	627914        	ae_sq32f.iu	aeq3, a9, 4
    7711:	eefa           	add.n	a14, a14, a15
    7713:	7f9dd2        	l16si	a13, a13, 254
    7716:	e29ff1        	l32r	a15, 194 (1000000 <_end+0xff3560>)
    7719:	01dd90        	slli	a13, a13, 23
    771c:	80ddf0        	add	a13, a13, a15
    771f:	1461d2        	s32i	a13, a1, 80
    7722:	022ed7        	blt	a14, a13, 7728 <two_mic_WB_NR_NSN_proc+0xa80>
    7725:	002cc6        	j	77dc <two_mic_WB_NR_NSN_proc+0xb34>
    7728:	e2abd1        	l32r	a13, 1d4 (400000 <_end+0x3f3560>)
    772b:	e37b31        	l32r	a3, 518 (59999b <_end+0x58cefb>)
    772e:	e26621        	l32r	a2, c8 (800000 <_end+0x7f3560>)
    7731:	c198           	l32i.n	a9, a1, 48
    7733:	e37a81        	l32r	a8, 51c (4cccccd <_end+0x4cc022d>)
    7736:	e301b1        	l32r	a11, 33c (18000000 <_end+0x17ff3560>)
    7739:	364b34        	ae_cvtq48a32s	aeq1, a11
    773c:	36c834        	ae_cvtq48a32s	aeq3, a8
    773f:	216290        	srai	a6, a9, 2
    7742:	c0ac90        	sub	a10, a12, a9
    7745:	11aa00        	slli	a10, a10, 16
    7748:	c08c60        	sub	a8, a12, a6
    774b:	118800        	slli	a8, a8, 16
    774e:	806680        	add	a6, a6, a8
    7751:	8099a0        	add	a9, a9, a10
    7754:	116192        	s32i	a9, a1, 68
    7757:	fe2098266f 	{ ae_cvtp24a16x2.lh	aep2, a6, a6; ae_zerop48	aep4 }
    775c:	fe1c4005af 	{ movi	a10, 5; ae_movq56	aeq2, aeq3 }

00007761 <two_mic_WB_NR_NSN_proc+0xab9>:
    7761:	432492        	l32i	a9, a4, 0x10c
    7764:	412482        	l32i	a8, a4, 0x104
    7767:	feda           	add.n	a15, a14, a13
    7769:	31f7f0        	srai	a15, a15, 23
    776c:	bf1b           	addi.n	a11, a15, 1
    776e:	72afa0        	salt	a10, a15, a10
    7771:	017f90        	slli	a7, a15, 23
    7774:	772a           	add.n	a7, a7, a2
    7776:	a08f80        	addx4	a8, a15, a8
    7779:	a09f90        	addx4	a9, a15, a9
    777c:	fcc992        	addi	a9, a9, -4
    777f:	fcc882        	addi	a8, a8, -4
    7782:	46c814        	ae_sp16x2f.iu	aep4, a8, 4
    7785:	4acc           	bnez.n	a10, 778d <two_mic_WB_NR_NSN_proc+0xae5>
    7787:	e36661        	l32r	a6, 520 (1eb851f <_end+0x1eaba7f>)
    778a:	368634        	ae_cvtq48a32s	aeq2, a6

0000778d <two_mic_WB_NR_NSN_proc+0xae5>:
    778d:	626914        	ae_sq32f.iu	aeq2, a9, 4
    7790:	ae3a           	add.n	a10, a14, a3
    7792:	07a7a7        	bge	a7, a10, 779d <two_mic_WB_NR_NSN_proc+0xaf5>
    7795:	bf2b           	addi.n	a11, a15, 2
    7797:	46a814        	ae_sp16x2f.iu	aep2, a8, 4
    779a:	625914        	ae_sq32f.iu	aeq1, a9, 4

0000779d <two_mic_WB_NR_NSN_proc+0xaf5>:
    779d:	472462        	l32i	a6, a4, 0x11c
    77a0:	e35af1        	l32r	a15, 508 (ffa66666 <_end+0xffa59bc6>)
    77a3:	ee6a           	add.n	a14, a14, a6
    77a5:	fe2090feff 	{ add	a15, a14, a15; ae_zerop48	aep4 }
    77aa:	31f7f0        	srai	a15, a15, 23
    77ad:	fe1c51dfbe 	{ blt	a15, a11, 77ce <two_mic_WB_NR_NSN_proc+0xb26>; ae_movq56	aeq2, aeq3 }
    77b2:	c0afb0        	sub	a10, a15, a11
    77b5:	e33d61        	l32r	a6, 4ac (30000000 <_end+0x2fff3560>)
    77b8:	bf1b           	addi.n	a11, a15, 1
    77ba:	360634        	ae_cvtq48a32s	aeq0, a6
    77bd:	aa1b           	addi.n	a10, a10, 1
    77bf:	112162        	l32i	a6, a1, 68
    77c2:	308664        	ae_cvtp24a16x2.lh	aep0, a6, a6
    77c5:	05aa76        	loopgtz	a10, 77ce <two_mic_WB_NR_NSN_proc+0xb26>
    77c8:	468814        	ae_sp16x2f.iu	aep0, a8, 4
    77cb:	624914        	ae_sq32f.iu	aeq0, a9, 4

000077ce <two_mic_WB_NR_NSN_proc+0xb26>:
    77ce:	5a0c           	movi.n	a10, 5
    77d0:	1421f2        	l32i	a15, a1, 80
    77d3:	46a814        	ae_sp16x2f.iu	aep2, a8, 4
    77d6:	625914        	ae_sq32f.iu	aeq1, a9, 4
    77d9:	842ef7        	blt	a14, a15, 7761 <two_mic_WB_NR_NSN_proc+0xab9>

000077dc <two_mic_WB_NR_NSN_proc+0xb34>:
    77dc:	eda062        	movi	a6, 237
    77df:	02a6b7        	bge	a6, a11, 77e5 <two_mic_WB_NR_NSN_proc+0xb3d>
    77e2:	fe1c06        	j	7056 <two_mic_WB_NR_NSN_proc+0x3ae>
    77e5:	eea0a2        	movi	a10, 238
    77e8:	e32ad1        	l32r	a13, 490 (20000000 <_end+0x1fff3560>)
    77eb:	360d34        	ae_cvtq48a32s	aeq0, a13
    77ee:	fc2095aabf 	{ sub	a10, a10, a11; ae_zerop48	aep0 }
    77f3:	f03d           	nop.n
    77f5:	05aa76        	loopgtz	a10, 77fe <two_mic_WB_NR_NSN_proc+0xb56>
    77f8:	468814        	ae_sp16x2f.iu	aep0, a8, 4
    77fb:	624914        	ae_sq32f.iu	aeq0, a9, 4

000077fe <two_mic_WB_NR_NSN_proc+0xb56>:
    77fe:	fe1506        	j	7056 <two_mic_WB_NR_NSN_proc+0x3ae>

00007801 <two_mic_WB_NR_NSN_proc+0xb59>:
    7801:	05a2c7        	bge	a2, a12, 780a <two_mic_WB_NR_NSN_proc+0xb62>
    7804:	88bd           	ae_sext16	a11, a8
    7806:	bbcb           	addi.n	a11, a11, 12
    7808:	6ebd           	ae_s16i.n	a11, a14, 0

0000780a <two_mic_WB_NR_NSN_proc+0xb62>:
    780a:	1ff8           	l32i.n	a15, a15, 4
    780c:	e346d1        	l32r	a13, 524 (e666 <_end+0x1bc6>)
    780f:	53ecf0        	max	a14, a12, a15
    7812:	8cfa           	add.n	a8, a12, a15
    7814:	022d87        	blt	a13, a8, 781a <two_mic_WB_NR_NSN_proc+0xb72>
    7817:	002406        	j	78ab <two_mic_WB_NR_NSN_proc+0xc03>
    781a:	0222e7        	blt	a2, a14, 7820 <two_mic_WB_NR_NSN_proc+0xb78>
    781d:	002286        	j	78ab <two_mic_WB_NR_NSN_proc+0xc03>
    7820:	3b24f2        	l32i	a15, a4, 236
    7823:	3fed           	ae_l16si.n	a14, a15, 2
    7825:	2f6d           	ae_l16si.n	a6, a15, 0
    7827:	18cee2        	addi	a14, a14, 24
    782a:	24c662        	addi	a6, a6, 36
    782d:	6f6d           	ae_s16i.n	a6, a15, 0
    782f:	7fed           	ae_s16i.n	a14, a15, 2

00007831 <two_mic_WB_NR_NSN_proc+0xb89>:
    7831:	020c           	movi.n	a2, 0
    7833:	fe8bc6        	j	7266 <two_mic_WB_NR_NSN_proc+0x5be>

00007836 <two_mic_WB_NR_NSN_proc+0xb8e>:
    7836:	00000000 18e60000                                ......

0000783c <two_mic_WB_NR_NSN_proc+0xb94>:
    783c:	0218e6        	bgei	a8, 1, 7842 <two_mic_WB_NR_NSN_proc+0xb9a>
    783f:	003386        	j	7911 <two_mic_WB_NR_NSN_proc+0xc69>

00007842 <two_mic_WB_NR_NSN_proc+0xb9a>:
    7842:	192182        	l32i	a8, a1, 100
    7845:	4c0c           	movi.n	a12, 4
    7847:	14c882        	addi	a8, a8, 20
    784a:	156182        	s32i	a8, a1, 84
    784d:	e33681        	l32r	a8, 528 (500000 <_end+0x4f3560>)

00007850 <two_mic_WB_NR_NSN_proc+0xba8>:
    7850:	4324a2        	l32i	a10, a4, 0x10c
    7853:	77a092        	movi	a9, 119
    7856:	398884        	ae_movpa24x2	aep0, a8, a8
    7859:	600a04        	ae_lq32f.i	aeq0, a10, 0
    785c:	0a8d           	mov.n	a8, a10
    785e:	0f8976        	loop	a9, 7871 <two_mic_WB_NR_NSN_proc+0xbc9>
    7861:	f8807d081f 	{ ae_lq32f.i	aeq0, a8, 4; ae_mulfq32sp24s.l	aeq1, aeq0, aep0 }
    7866:	f9803d182f 	{ ae_lq32f.iu	aeq0, a8, 8; ae_mulfq32sp24s.l	aeq2, aeq0, aep0 }
    786b:	6218e4        	ae_sq32f.i	aeq1, a8, -8
    786e:	6228f4        	ae_sq32f.i	aeq2, a8, -4

00007871 <two_mic_WB_NR_NSN_proc+0xbc9>:
    7871:	ff3206        	j	753d <two_mic_WB_NR_NSN_proc+0x895>

00007874 <two_mic_WB_NR_NSN_proc+0xbcc>:
    7874:	08ad           	mov.n	a10, a8
    7876:	e26a81        	l32r	a8, 220 (8b28 <airoha_divide>)
    7879:	0008e0        	callx8	a8
    787c:	e32c81        	l32r	a8, 52c (6ccd1333 <_end+0x6ccc4893>)
    787f:	190c           	movi.n	a9, 1
    7881:	c099a0        	sub	a9, a9, a10
    7884:	400900        	ssr	a9
    7887:	b1c0b0        	sra	a12, a11
    788a:	21c9           	s32i.n	a12, a1, 8
    788c:	ff2206        	j	7518 <two_mic_WB_NR_NSN_proc+0x870>

0000788f <two_mic_WB_NR_NSN_proc+0xbe7>:
	...

00007890 <two_mic_WB_NR_NSN_proc+0xbe8>:
    7890:	4424f2        	l32i	a15, a4, 0x110
    7893:	e327a1        	l32r	a10, 530 (7c28 <fft_wo+0x104>)
    7896:	0fc8           	l32i.n	a12, a15, 0
    7898:	e32721        	l32r	a2, 534 (7998 <two_mic_WB_NR_proc+0x8>)
    789b:	022ac7        	blt	a10, a12, 78a1 <two_mic_WB_NR_NSN_proc+0xbf9>
    789e:	ffd7c6        	j	7801 <two_mic_WB_NR_NSN_proc+0xb59>
    78a1:	88bd           	ae_sext16	a11, a8
    78a3:	12cbb2        	addi	a11, a11, 18
    78a6:	6ebd           	ae_s16i.n	a11, a14, 0
    78a8:	ffd786        	j	780a <two_mic_WB_NR_NSN_proc+0xb62>

000078ab <two_mic_WB_NR_NSN_proc+0xc03>:
    78ab:	e323d1        	l32r	a13, 538 (e000 <_end+0x1560>)
    78ae:	36ad87        	bge	a13, a8, 78e8 <two_mic_WB_NR_NSN_proc+0xc40>
    78b1:	e32261        	l32r	a6, 53c (7666 <two_mic_WB_NR_NSN_proc+0x9be>)
    78b4:	30a6e7        	bge	a6, a14, 78e8 <two_mic_WB_NR_NSN_proc+0xc40>
    78b7:	3b2492        	l32i	a9, a4, 236
    78ba:	398d           	ae_l16si.n	a8, a9, 2
    78bc:	29ad           	ae_l16si.n	a10, a9, 0
    78be:	886b           	addi.n	a8, a8, 6
    78c0:	12caa2        	addi	a10, a10, 18
    78c3:	69ad           	ae_s16i.n	a10, a9, 0
    78c5:	798d           	ae_s16i.n	a8, a9, 2
    78c7:	ffd986        	j	7831 <two_mic_WB_NR_NSN_proc+0xb89>

000078ca <two_mic_WB_NR_NSN_proc+0xc22>:
    78ca:	7faeb2        	movi	a11, 0xfffffe7f
    78cd:	e2f5c1        	l32r	a12, 4a4 (46666666 <_end+0x46659bc6>)
    78d0:	21c9           	s32i.n	a12, a1, 8
    78d2:	0c2b87        	blt	a11, a8, 78e2 <two_mic_WB_NR_NSN_proc+0xc3a>
    78d5:	9294d2        	l16si	a13, a4, 0x124
    78d8:	0e3c           	movi.n	a14, 48
    78da:	049de7        	bne	a13, a14, 78e2 <two_mic_WB_NR_NSN_proc+0xc3a>
    78dd:	e318c1        	l32r	a12, 540 (5999999a <_end+0x5998cefa>)
    78e0:	21c9           	s32i.n	a12, a1, 8
    78e2:	e31881        	l32r	a8, 544 (799a0666 <_end+0x79993bc6>)
    78e5:	ff0bc6        	j	7518 <two_mic_WB_NR_NSN_proc+0x870>

000078e8 <two_mic_WB_NR_NSN_proc+0xc40>:
    78e8:	e31861        	l32r	a6, 548 (228e <Xfrac_num_pd_td16+0xe2>)
    78eb:	02a687        	bge	a6, a8, 78f1 <two_mic_WB_NR_NSN_proc+0xc49>
    78ee:	ffcfc6        	j	7831 <two_mic_WB_NR_NSN_proc+0xb89>
    78f1:	e31671        	l32r	a7, 54c (999 <wind_noise_alpha+0x11>)
    78f4:	438cf0        	min	a8, a12, a15
    78f7:	02a787        	bge	a7, a8, 78fd <two_mic_WB_NR_NSN_proc+0xc55>
    78fa:	ffccc6        	j	7831 <two_mic_WB_NR_NSN_proc+0xb89>
    78fd:	3b24a2        	l32i	a10, a4, 236
    7900:	3a9d           	ae_l16si.n	a9, a10, 2
    7902:	2abd           	ae_l16si.n	a11, a10, 0
    7904:	f4c992        	addi	a9, a9, -12
    7907:	e8cbb2        	addi	a11, a11, -24
    790a:	6abd           	ae_s16i.n	a11, a10, 0
    790c:	7a9d           	ae_s16i.n	a9, a10, 2
    790e:	ffc7c6        	j	7831 <two_mic_WB_NR_NSN_proc+0xb89>

00007911 <two_mic_WB_NR_NSN_proc+0xc69>:
    7911:	1921c2        	l32i	a12, a1, 100
    7914:	0020f0        	nop
    7917:	029cc2        	l16si	a12, a12, 4
    791a:	021ca6        	blti	a12, 1, 7920 <two_mic_WB_NR_NSN_proc+0xc78>
    791d:	ffc846        	j	7842 <two_mic_WB_NR_NSN_proc+0xb9a>
    7920:	1921d2        	l32i	a13, a1, 100
    7923:	039dd2        	l16si	a13, a13, 6
    7926:	021da6        	blti	a13, 1, 792c <two_mic_WB_NR_NSN_proc+0xc84>
    7929:	ffc546        	j	7842 <two_mic_WB_NR_NSN_proc+0xb9a>
    792c:	1921e2        	l32i	a14, a1, 100
    792f:	099ed2        	l16si	a13, a14, 18
    7932:	089ec2        	l16si	a12, a14, 16
    7935:	14cee2        	addi	a14, a14, 20
    7938:	1561e2        	s32i	a14, a1, 84
    793b:	161cd7        	beq	a12, a13, 7955 <two_mic_WB_NR_NSN_proc+0xcad>
    793e:	0ebd           	mov.n	a11, a14
    7940:	e2d681        	l32r	a8, 498 (7af8 <equal_power>)
    7943:	4024a2        	l32i	a10, a4, 0x100
    7946:	eea0e2        	movi	a14, 238
    7949:	0008e0        	callx8	a8
    794c:	192192        	l32i	a9, a1, 100
    794f:	0959a2        	s16i	a10, a9, 18
    7952:	0859a2        	s16i	a10, a9, 16

00007955 <two_mic_WB_NR_NSN_proc+0xcad>:
    7955:	152192        	l32i	a9, a1, 84
    7958:	e2feb1        	l32r	a11, 550 (c1e0 <NR_immediate_num>)
    795b:	402482        	l32i	a8, a4, 0x100
    795e:	1921a2        	l32i	a10, a1, 100
    7961:	440b44        	ae_lp16x2f.i	aep0, a11, 16
    7964:	600804        	ae_lq32f.i	aeq0, a8, 0
    7967:	604a54        	ae_lq32f.i	aeq1, a10, 20
    796a:	eea0a2        	movi	a10, 238
    796d:	0a8a76        	loop	a10, 797b <two_mic_WB_NR_NSN_proc+0xcd3>
    7970:	0d00bd181f 	{ ae_lq32f.iu	aeq0, a8, 4; ae_mulzaafq32sp16s.lh	aeq2, aeq0, aep0, aeq1, aep0 }
    7975:	605914        	ae_lq32f.iu	aeq1, a9, 4
    7978:	6229f4        	ae_sq32f.i	aeq2, a9, -4

0000797b <two_mic_WB_NR_NSN_proc+0xcd3>:
    797b:	5c0c           	movi.n	a12, 5
    797d:	e2f581        	l32r	a8, 554 (480000 <_end+0x473560>)
    7980:	ffb306        	j	7850 <two_mic_WB_NR_NSN_proc+0xba8>

00007983 <two_mic_WB_NR_NSN_proc+0xcdb>:
    7983:	c138           	l32i.n	a3, a1, 48
    7985:	0b0c           	movi.n	a11, 0
    7987:	213130        	srai	a3, a3, 1
    798a:	ff58c6        	j	76f1 <two_mic_WB_NR_NSN_proc+0xa49>

0000798d <two_mic_WB_NR_NSN_proc+0xce5>:
    798d:	000000                                        ...

00007990 <two_mic_WB_NR_proc>:
    7990:	006136        	entry	a1, 48
    7993:	03dd           	mov.n	a13, a3
    7995:	e1b931        	l32r	a3, 7c (ca94 <p_ecnr_mem>)
    7998:	0338           	l32i.n	a3, a3, 0
    799a:	02cd           	mov.n	a12, a2
    799c:	e2ef81        	l32r	a8, 558 (6ca8 <two_mic_WB_NR_NSN_proc>)
    799f:	3fd322        	addmi	a2, a3, 0x3f00
    79a2:	1ad332        	addmi	a3, a3, 0x1a00
    79a5:	1c2332        	l32i	a3, a3, 112
    79a8:	78c222        	addi	a2, a2, 120
    79ab:	02ad           	mov.n	a10, a2
    79ad:	03bd           	mov.n	a11, a3
    79af:	0008e0        	callx8	a8
    79b2:	08d262        	addmi	a6, a2, 0x800
    79b5:	089382        	l16si	a8, a3, 16
    79b8:	079392        	l16si	a9, a3, 14
    79bb:	165292        	s16i	a9, a2, 44
    79be:	945682        	s16i	a8, a6, 0x128
    79c1:	e2a181        	l32r	a8, 448 (7da4 <NR_vad1>)
    79c4:	02ad           	mov.n	a10, a2
    79c6:	2cc662        	addi	a6, a6, 44
    79c9:	0008e0        	callx8	a8
    79cc:	e2a081        	l32r	a8, 44c (7f1c <NR_vad2>)
    79cf:	02ad           	mov.n	a10, a2
    79d1:	0008e0        	callx8	a8
    79d4:	e29f81        	l32r	a8, 450 (806c <NR_NoiseEstimate>)
    79d7:	02ad           	mov.n	a10, a2
    79d9:	0008e0        	callx8	a8
    79dc:	7f96b2        	l16si	a11, a6, 254
    79df:	e2c581        	l32r	a8, 4f4 (6b78 <est_pow_aver>)
    79e2:	02d2a2        	addmi	a10, a2, 0x200
    79e5:	a0caa2        	addi	a10, a10, -96
    79e8:	0008e0        	callx8	a8
    79eb:	06d3b2        	addmi	a11, a3, 0x600
    79ee:	368a34        	ae_cvtq48a32s	aeq2, a10
    79f1:	e2dad1        	l32r	a13, 55c (75c30a3d <_end+0x75c23f9d>)
    79f4:	308dd4        	ae_cvtp24a16x2.lh	aep0, a13, a13
    79f7:	05d3a2        	addmi	a10, a3, 0x500
    79fa:	4b2ac2        	l32i	a12, a10, 0x12c
    79fd:	364c34        	ae_cvtq48a32s	aeq1, a12
    7a00:	c10864        	ae_mulzaafq32sp16s.lh	aeq1, aeq1, aep0, aeq2, aep0
    7a03:	2ccbb2        	addi	a11, a11, 44
    7a06:	fc2c414a3e 	{ addi	a3, a10, 20; ae_roundsq32asym	aeq0, aeq1 }
    7a0b:	620b04        	ae_sq32f.i	aeq0, a11, 0
    7a0e:	4b2ab2        	l32i	a11, a10, 0x12c
    7a11:	4c2aa2        	l32i	a10, a10, 0x130
    7a14:	11d292        	addmi	a9, a2, 0x1100
    7a17:	40c972        	addi	a7, a9, 64
    7a1a:	5e2ab7        	blt	a10, a11, 7a7c <two_mic_WB_NR_proc+0xec>
    7a1d:	9f99e2        	l16si	a14, a9, 0x13e
    7a20:	9e99f2        	l16si	a15, a9, 0x13c
    7a23:	0e52f2        	s16i	a15, a2, 28
    7a26:	1152e2        	s16i	a14, a2, 34

00007a29 <two_mic_WB_NR_proc+0x99>:
    7a29:	e28a81        	l32r	a8, 454 (8190 <NR_NoiseWithGain>)
    7a2c:	02ad           	mov.n	a10, a2
    7a2e:	0008e0        	callx8	a8
    7a31:	8293d2        	l16si	a13, a3, 0x104
    7a34:	0278           	l32i.n	a7, a2, 0
    7a36:	8096c2        	l16si	a12, a6, 0x100
    7a39:	08d772        	addmi	a7, a7, 0x800
    7a3c:	c09cd0        	sub	a9, a12, a13
    7a3f:	097956        	bnez	a9, 7ada <two_mic_WB_NR_proc+0x14a>

00007a42 <two_mic_WB_NR_proc+0xb2>:
    7a42:	3d2382        	l32i	a8, a3, 244
    7a45:	604704        	ae_lq32f.i	aeq1, a7, 0
    7a48:	eea0a2        	movi	a10, 238
    7a4b:	fcc882        	addi	a8, a8, -4
    7a4e:	0a8a76        	loop	a10, 7a5c <two_mic_WB_NR_proc+0xcc>
    7a51:	601814        	ae_lq32f.iu	aeq0, a8, 4
    7a54:	f8673d371f 	{ ae_lq32f.iu	aeq1, a7, 4; ae_maxq56s	aeq0, aeq1, aeq0 }
    7a59:	6207f4        	ae_sq32f.i	aeq0, a7, -4

00007a5c <two_mic_WB_NR_proc+0xcc>:
    7a5c:	e27f81        	l32r	a8, 458 (84b0 <NR_WienerFilter>)
    7a5f:	02ad           	mov.n	a10, a2
    7a61:	0008e0        	callx8	a8
    7a64:	e28181        	l32r	a8, 468 (720 <comfort_noise_gen_wb>)
    7a67:	02ad           	mov.n	a10, a2
    7a69:	05bd           	mov.n	a11, a5
    7a6b:	0008e0        	callx8	a8
    7a6e:	05cd           	mov.n	a12, a5
    7a70:	e27b81        	l32r	a8, 45c (8808 <ifft_wo>)
    7a73:	04bd           	mov.n	a11, a4
    7a75:	02ad           	mov.n	a10, a2
    7a77:	0008e0        	callx8	a8
    7a7a:	f01d           	retw.n

00007a7c <two_mic_WB_NR_proc+0xec>:
    7a7c:	e1e981        	l32r	a8, 220 (8b28 <airoha_divide>)
    7a7f:	f03d           	nop.n
    7a81:	0008e0        	callx8	a8
    7a84:	60c0a0        	neg	a12, a10
    7a87:	7e97d2        	l16si	a13, a7, 252
    7a8a:	301dd4        	ae_cvtp24a16x2.ll	aep1, a13, a13
    7a8d:	400c00        	ssr	a12
    7a90:	b1b0b0        	sra	a11, a11
    7a93:	36cb34        	ae_cvtq48a32s	aeq3, a11
    7a96:	089de4        	ae_mulfq32sp24s.l	aeq3, aeq3, aep1
    7a99:	e1e181        	l32r	a8, 220 (8b28 <airoha_divide>)
    7a9c:	623104        	ae_sq32f.i	aeq3, a1, 0
    7a9f:	0198           	l32i.n	a9, a1, 0
    7aa1:	4623a2        	l32i	a10, a3, 0x118
    7aa4:	4723b2        	l32i	a11, a3, 0x11c
    7aa7:	319090        	srai	a9, a9, 16
    7aaa:	0e5292        	s16i	a9, a2, 28
    7aad:	0008e0        	callx8	a8
    7ab0:	e17281        	l32r	a8, 78 (808 <HIFI_sqrt>)
    7ab3:	01b9           	s32i.n	a11, a1, 0
    7ab5:	0008e0        	callx8	a8
    7ab8:	368b34        	ae_cvtq48a32s	aeq2, a11
    7abb:	7f97c2        	l16si	a12, a7, 254
    7abe:	302cc4        	ae_cvtp24a16x2.ll	aep2, a12, a12
    7ac1:	08a5a4        	ae_mulfq32sp24s.l	aeq2, aeq2, aep2
    7ac4:	fc24feaa4f 	{ ae_slaasq56s	aeq1, aeq2, a10; nop }
    7ac9:	061834        	ae_roundsq32sym	aeq0, aeq1
    7acc:	620104        	ae_sq32f.i	aeq0, a1, 0
    7acf:	0198           	l32i.n	a9, a1, 0
    7ad1:	319090        	srai	a9, a9, 16
    7ad4:	115292        	s16i	a9, a2, 34
    7ad7:	ffd386        	j	7a29 <two_mic_WB_NR_proc+0x99>

00007ada <two_mic_WB_NR_proc+0x14a>:
    7ada:	07ad           	mov.n	a10, a7
    7adc:	e26f81        	l32r	a8, 498 (7af8 <equal_power>)
    7adf:	3d23b2        	l32i	a11, a3, 244
    7ae2:	eea0e2        	movi	a14, 238
    7ae5:	0008e0        	callx8	a8
    7ae8:	8253a2        	s16i	a10, a3, 0x104
    7aeb:	8056a2        	s16i	a10, a6, 0x100
    7aee:	ffd406        	j	7a42 <two_mic_WB_NR_proc+0xb2>

00007af1 <two_mic_WB_NR_proc+0x161>:
    7af1:	00000000 36000000                                .......

00007af8 <equal_power>:
    7af8:	004136        	entry	a1, 32
    7afb:	c08450        	sub	a8, a4, a5
    7afe:	017896        	bltz	a8, 7b19 <equal_power+0x21>
    7b01:	205440        	or	a5, a4, a4

00007b04 <equal_power+0xc>:
    7b04:	fcc322        	addi	a2, a3, -4
    7b07:	083d           	mov.n	a3, a8
    7b09:	08a676        	loopgtz	a6, 7b15 <equal_power+0x1d>
    7b0c:	601214        	ae_lq32f.iu	aeq0, a2, 4
    7b0f:	3403a4        	ae_srlaq56	aeq0, aeq0, a3
    7b12:	620204        	ae_sq32f.i	aeq0, a2, 0

00007b15 <equal_power+0x1d>:
    7b15:	052d           	mov.n	a2, a5
    7b17:	f01d           	retw.n

00007b19 <equal_power+0x21>:
    7b19:	023d           	mov.n	a3, a2
    7b1b:	c08540        	sub	a8, a5, a4
    7b1e:	fff886        	j	7b04 <equal_power+0xc>

00007b21 <equal_power+0x29>:
    7b21:	000000                                        ...

00007b24 <fft_wo>:
    7b24:	00a136        	entry	a1, 80
    7b27:	340282        	l8ui	a8, a2, 52
    7b2a:	e28d71        	l32r	a7, 560 (bb34 <fftorder_512_12b+0x4>)
    7b2d:	00a262        	movi	a6, 0x200
    7b30:	0288f6        	bgeui	a8, 8, 7b36 <fft_wo+0x12>
    7b33:	0096c6        	j	7d92 <fft_wo+0x26e>
    7b36:	f0a092        	movi	a9, 240
    7b39:	2a0c           	movi.n	a10, 2
    7b3b:	0761a2        	s32i	a10, a1, 28
    7b3e:	6199           	s32i.n	a9, a1, 24

00007b40 <fft_wo+0x1c>:
    7b40:	61c8           	l32i.n	a12, a1, 24
    7b42:	038d           	mov.n	a8, a3
    7b44:	0a0c           	movi.n	a10, 0
    7b46:	0cbd           	mov.n	a11, a12
    7b48:	11dcf0        	slli	a13, a12, 1
    7b4b:	01d9           	s32i.n	a13, a1, 0
    7b4d:	2192b0        	srai	a9, a11, 2
    7b50:	14c0c0        	extui	a12, a12, 0, 2
    7b53:	09ac76        	loopgtz	a12, 7b60 <fft_wo+0x3c>
    7b56:	28ed           	ae_l16si.n	a14, a8, 0
    7b58:	882b           	addi.n	a8, a8, 2
    7b5a:	60e1e0        	abs	a14, a14
    7b5d:	20aae0        	or	a10, a10, a14

00007b60 <fft_wo+0x3c>:
    7b60:	f63b           	addi.n	a15, a6, 3
    7b62:	b3f660        	movgez	a15, a6, a6
    7b65:	21f2f0        	srai	a15, a15, 2
    7b68:	fe249441ff 	{ s32i.n	a15, a1, 16; ae_zeroq56	aeq2 }
    7b6d:	23a976        	loopgtz	a9, 7b94 <fft_wo+0x70>
    7b70:	289d           	ae_l16si.n	a9, a8, 0
    7b72:	38bd           	ae_l16si.n	a11, a8, 2
    7b74:	0298c2        	l16si	a12, a8, 4
    7b77:	0398d2        	l16si	a13, a8, 6
    7b7a:	609190        	abs	a9, a9
    7b7d:	60b1b0        	abs	a11, a11
    7b80:	60c1c0        	abs	a12, a12
    7b83:	60d1d0        	abs	a13, a13
    7b86:	888b           	addi.n	a8, a8, 8
    7b88:	209a90        	or	a9, a10, a9
    7b8b:	2099b0        	or	a9, a9, a11
    7b8e:	2099c0        	or	a9, a9, a12
    7b91:	20a9d0        	or	a10, a9, a13
    7b94:	1592d2        	l16si	a13, a2, 42
    7b97:	0288           	l32i.n	a8, a2, 0
    7b99:	0a9d           	mov.n	a9, a10
    7b9b:	10d2a2        	addmi	a10, a2, 0x1000
    7b9e:	40e990        	nsa	a9, a9
    7ba1:	f0c992        	addi	a9, a9, -16
    7ba4:	18ca52        	addi	a5, a10, 24
    7ba7:	872ab2        	l32i	a11, a10, 0x21c
    7baa:	a08680        	addx4	a8, a6, a8
    7bad:	0acd           	mov.n	a12, a10
    7baf:	440cc4        	ae_lp16x2f.i	aep0, a12, -16
    7bb2:	8189           	s32i.n	a8, a1, 32
    7bb4:	0c0c           	movi.n	a12, 0
    7bb6:	884b           	addi.n	a8, a8, 4
    7bb8:	f0caa2        	addi	a10, a10, -16
    7bbb:	9189           	s32i.n	a8, a1, 36
    7bbd:	5399c0        	max	a9, a9, a12
    7bc0:	442b04        	ae_lp16x2f.i	aep2, a11, 0
    7bc3:	1199           	s32i.n	a9, a1, 4
    7bc5:	4399d0        	min	a9, a9, a13
    7bc8:	031694        	wur.ae_sar	a9
    7bcb:	11d6e0        	slli	a13, a6, 2
    7bce:	f82394219f 	{ s32i.n	a9, a1, 8; ae_sllssp24s	aep0, aep0 }
    7bd3:	e840d431df 	{ s32i.n	a13, a1, 12; ae_mulfp24s.hh	aeq1, aep0, aep2 }
    7bd8:	ea41b0619e 	{ l32i	a9, a1, 24; ae_mulfp24s.ll	aeq0, aep0, aep2 }
    7bdd:	3b1fa6        	blti	a15, 1, 7c1c <fft_wo+0xf8>
    7be0:	ff0b           	addi.n	a15, a15, -1
    7be2:	8188           	l32i.n	a8, a1, 32
    7be4:	71e8           	l32i.n	a14, a1, 28
    7be6:	91d8           	l32i.n	a13, a1, 36
    7be8:	6298c4        	ae_sq32f.x	aeq1, a8, a12
    7beb:	11eef0        	slli	a14, a14, 1
    7bee:	628dc4        	ae_sq32f.x	aeq0, a13, a12
    7bf1:	08cd           	mov.n	a12, a8
    7bf3:	449a14        	ae_lp16x2f.iu	aep1, a10, 4

00007bf6 <fft_wo+0xd2>:
    7bf6:	f827ad9b1f 	{ ae_lp16x2f.iu	aep1, a11, 4; ae_sllssp24s	aep0, aep1 }
    7bfb:	278d           	ae_l16si.n	a8, a7, 0
    7bfd:	17af76        	loopgtz	a15, 7c18 <fft_wo+0xf4>
    7c00:	e8209077ef 	{ add	a7, a7, a14; ae_mulfp24s.hh	aeq0, aep0, aep1 }
    7c05:	010974        	ae_mulfp24s.ll	aeq1, aep0, aep1
    7c08:	628c84        	ae_sq32f.x	aeq0, a12, a8
    7c0b:	629d84        	ae_sq32f.x	aeq1, a13, a8
    7c0e:	278d           	ae_l16si.n	a8, a7, 0
    7c10:	449a14        	ae_lp16x2f.iu	aep1, a10, 4
    7c13:	f827ad9b1f 	{ ae_lp16x2f.iu	aep1, a11, 4; ae_sllssp24s	aep0, aep1 }

00007c18 <fft_wo+0xf4>:
    7c18:	77ea           	add.n	a7, a7, a14
    7c1a:	08cd           	mov.n	a12, a8

00007c1c <fft_wo+0xf8>:
    7c1c:	0188           	l32i.n	a8, a1, 0
    7c1e:	41e8           	l32i.n	a14, a1, 16
    7c20:	f91b           	addi.n	a15, a9, 1
    7c22:	b3f990        	movgez	a15, a9, a9
    7c25:	21f1f0        	srai	a15, a15, 1
    7c28:	51f9           	s32i.n	a15, a1, 20
    7c2a:	c0eef0        	sub	a14, a14, a15
    7c2d:	882a           	add.n	a8, a8, a2
    7c2f:	10d892        	addmi	a9, a8, 0x1000
    7c32:	f0c992        	addi	a9, a9, -16
    7c35:	10d882        	addmi	a8, a8, 0x1000
    7c38:	f4c882        	addi	a8, a8, -12
    7c3b:	09ad           	mov.n	a10, a9
    7c3d:	4408f4        	ae_lp16x2f.i	aep0, a8, -4
    7c40:	10d282        	addmi	a8, a2, 0x1000
    7c43:	f8d24ec88e 	{ addi	a8, a8, -20; ae_truncp24q48x2	aep1, aeq2, aeq2 }
    7c48:	09ae76        	loopgtz	a14, 7c55 <fft_wo+0x131>
    7c4b:	fc0833881f 	{ ae_sp16x2f.iu	aep0, a8, 4; ae_abssp24s	aep0, aep0 }
    7c50:	dc046d8a1f 	{ ae_lp16x2f.iu	aep0, a10, 4; ae_orp48	aep1, aep1, aep0 }

00007c55 <fft_wo+0x131>:
    7c55:	44abf4        	ae_lp16x2f.iu	aep2, a11, -4
    7c58:	571ea6        	blti	a14, 1, 7cb3 <fft_wo+0x18f>
    7c5b:	468814        	ae_sp16x2f.iu	aep0, a8, 4
    7c5e:	81d8           	l32i.n	a13, a1, 32
    7c60:	0721f2        	l32i	a15, a1, 28
    7c63:	fa23b0914e 	{ l32i	a4, a1, 36; ae_sllssp24s	aep4, aep0 }
    7c68:	ea508ffe9e 	{ addi	a9, a14, -1; ae_mulfp24s.hl	aeq0, aep4, aep2 }
    7c6d:	11fff0        	slli	a15, a15, 1
    7c70:	e951d3e44f 	{ or	a14, a4, a4; ae_mulfp24s.lh	aeq3, aep4, aep2 }
    7c75:	628dc4        	ae_sq32f.x	aeq0, a13, a12
    7c78:	62b4c4        	ae_sq32f.x	aeq3, a4, a12

00007c7b <fft_wo+0x157>:
    7c7b:	fd086d8a1f 	{ ae_lp16x2f.iu	aep0, a10, 4; ae_abssp24s	aep3, aep0 }
    7c80:	dd6453caaf 	{ or	a12, a10, a10; ae_orp48	aep3, aep1, aep3 }
    7c85:	1ea976        	loopgtz	a9, 7ca7 <fft_wo+0x183>
    7c88:	f823e0079e 	{ l16si	a9, a7, 0; ae_sllssp24s	aep1, aep0 }
    7c8d:	44abf4        	ae_lp16x2f.iu	aep2, a11, -4
    7c90:	ea449077ff 	{ add	a7, a7, a15; ae_mulfp24s.hl	aeq0, aep1, aep2 }
    7c95:	e845f3881f 	{ ae_sp16x2f.iu	aep0, a8, 4; ae_mulfp24s.lh	aeq1, aep1, aep2 }
    7c9a:	fc08784d9f 	{ ae_sq32f.x	aeq0, a13, a9; ae_abssp24s	aep1, aep0 }
    7c9f:	dd2c785e9f 	{ ae_sq32f.x	aeq1, a14, a9; ae_orp48	aep3, aep3, aep1 }
    7ca4:	448c14        	ae_lp16x2f.iu	aep0, a12, 4

00007ca7 <fft_wo+0x183>:
    7ca7:	44abf4        	ae_lp16x2f.iu	aep2, a11, -4
    7caa:	07ad           	mov.n	a10, a7
    7cac:	77fa           	add.n	a7, a7, a15
    7cae:	f86ee00ace 	{ l16si	a12, a10, 0; ae_movp48	aep1, aep3 }

00007cb3 <fft_wo+0x18f>:
    7cb3:	009ed4        	ae_cvta32p24.h	a14, aep1
    7cb6:	001dd4        	ae_cvta32p24.l	a13, aep1
    7cb9:	5198           	l32i.n	a9, a1, 20
    7cbb:	11a8           	l32i.n	a10, a1, 4
    7cbd:	20dde0        	or	a13, a13, a14
    7cc0:	40edd0        	nsa	a13, a13
    7cc3:	43aad0        	min	a10, a10, a13
    7cc6:	1552a2        	s16i	a10, a2, 42
    7cc9:	440304        	ae_lp16x2f.i	aep0, a3, 0
    7ccc:	3e19a6        	blti	a9, 1, 7d0e <fft_wo+0x1ea>
    7ccf:	990b           	addi.n	a9, a9, -1
    7cd1:	91e8           	l32i.n	a14, a1, 36
    7cd3:	fa23f071fe 	{ l32i	a15, a1, 28; ae_sllssp24s	aep5, aep0 }
    7cd8:	e855f081de 	{ l32i	a13, a1, 32; ae_mulfp24s.lh	aeq1, aep5, aep2 }
    7cdd:	eb54b3881f 	{ ae_sp16x2f.iu	aep0, a8, 4; ae_mulfp24s.hl	aeq2, aep5, aep2 }
    7ce2:	11fff0        	slli	a15, a15, 1
    7ce5:	62adc4        	ae_sq32f.x	aeq2, a13, a12
    7ce8:	629ec4        	ae_sq32f.x	aeq1, a14, a12
    7ceb:	448314        	ae_lp16x2f.iu	aep0, a3, 4
    7cee:	03cd           	mov.n	a12, a3
    7cf0:	1aa976        	loopgtz	a9, 7d0e <fft_wo+0x1ea>
    7cf3:	f823e0079e 	{ l16si	a9, a7, 0; ae_sllssp24s	aep1, aep0 }
    7cf8:	44abf4        	ae_lp16x2f.iu	aep2, a11, -4
    7cfb:	ea449077ff 	{ add	a7, a7, a15; ae_mulfp24s.hl	aeq0, aep1, aep2 }
    7d00:	e845f3881f 	{ ae_sp16x2f.iu	aep0, a8, 4; ae_mulfp24s.lh	aeq1, aep1, aep2 }
    7d05:	628d94        	ae_sq32f.x	aeq0, a13, a9
    7d08:	629e94        	ae_sq32f.x	aeq1, a14, a9
    7d0b:	448c14        	ae_lp16x2f.iu	aep0, a12, 4

00007d0e <fft_wo+0x1ea>:
    7d0e:	8c0c           	movi.n	a12, 8
    7d10:	1d0c           	movi.n	a13, 1
    7d12:	0e0c           	movi.n	a14, 0
    7d14:	31f8           	l32i.n	a15, a1, 12
    7d16:	02a8           	l32i.n	a10, a2, 0
    7d18:	21b160        	srai	a11, a6, 1
    7d1b:	e1d981        	l32r	a8, 480 (9488 <sw_fft_32b_2811>)
    7d1e:	8bbd           	ae_sext16	a11, a11
    7d20:	aafa           	add.n	a10, a10, a15
    7d22:	0008e0        	callx8	a8
    7d25:	2198           	l32i.n	a9, a1, 8
    7d27:	7e2582        	l32i	a8, a5, 0x1f8
    7d2a:	b61b           	addi.n	a11, a6, 1
    7d2c:	b3b660        	movgez	a11, a6, a6
    7d2f:	f8c882        	addi	a8, a8, -8
    7d32:	c099a0        	sub	a9, a9, a10
    7d35:	165292        	s16i	a9, a2, 44
    7d38:	21a1b0        	srai	a10, a11, 1
    7d3b:	02b8           	l32i.n	a11, a2, 0
    7d3d:	0d1aa6        	blti	a10, 1, 7d4e <fft_wo+0x22a>
    7d40:	089d           	mov.n	a9, a8
    7d42:	05aa76        	loopgtz	a10, 7d4b <fft_wo+0x227>
    7d45:	5c8b14        	ae_lp24x2f.iu	aep0, a11, 8
    7d48:	5e8914        	ae_sp24x2f.iu	aep0, a9, 8

00007d4b <fft_wo+0x227>:
    7d4b:	169292        	l16si	a9, a2, 44

00007d4e <fft_wo+0x22a>:
    7d4e:	7e2582        	l32i	a8, a5, 0x1f8
    7d51:	1a0c           	movi.n	a10, 1
    7d53:	11b9f0        	slli	a11, a9, 1
    7d56:	c0aab0        	sub	a10, a10, a11
    7d59:	0298           	l32i.n	a9, a2, 0
    7d5b:	09d2b2        	addmi	a11, a2, 0x900
    7d5e:	145ba2        	s16i	a10, a11, 40
    7d61:	3502b2        	l8ui	a11, a2, 53
    7d64:	5c0804        	ae_lp24x2f.i	aep0, a8, 0
    7d67:	fcc992        	addi	a9, a9, -4
    7d6a:	f103c03bae 	{ addi	a10, a11, 3; ae_mulzaap24s.hh.ll	aeq3, aep0, aep0 }
    7d6f:	1d1aa6        	blti	a10, 1, 7d90 <fft_wo+0x26c>
    7d72:	5c8814        	ae_lp24x2f.iu	aep0, a8, 8
    7d75:	fc5c402bae 	{ addi	a10, a11, 2; ae_roundsq32sym	aeq0, aeq3 }
    7d7a:	0020f0        	nop
    7d7d:	0aaa76        	loopgtz	a10, 7d8b <fft_wo+0x267>
    7d80:	f003b9c91f 	{ ae_sq32f.iu	aeq0, a9, 4; ae_mulzaap24s.hh.ll	aeq0, aep0, aep0 }
    7d85:	5c8814        	ae_lp24x2f.iu	aep0, a8, 8
    7d88:	060834        	ae_roundsq32sym	aeq0, aeq0

00007d8b <fft_wo+0x267>:
    7d8b:	624914        	ae_sq32f.iu	aeq0, a9, 4
    7d8e:	f01d           	retw.n

00007d90 <fft_wo+0x26c>:
    7d90:	f01d           	retw.n

00007d92 <fft_wo+0x26e>:
    7d92:	e1f471        	l32r	a7, 564 (bb38 <fftorder_512_12b+0x8>)
    7d95:	00a162        	movi	a6, 0x100
    7d98:	78a0d2        	movi	a13, 120
    7d9b:	4e0c           	movi.n	a14, 4
    7d9d:	71e9           	s32i.n	a14, a1, 28
    7d9f:	61d9           	s32i.n	a13, a1, 24
    7da1:	ff66c6        	j	7b40 <fft_wo+0x1c>

00007da4 <NR_vad1>:
    7da4:	006136        	entry	a1, 48
    7da7:	0129           	s32i.n	a2, a1, 0
    7da9:	0248           	l32i.n	a4, a2, 0
    7dab:	340282        	l8ui	a8, a2, 52
    7dae:	1189           	s32i.n	a8, a1, 4
    7db0:	44cb           	addi.n	a4, a4, 12
    7db2:	0588b6        	bltui	a8, 8, 7dbb <NR_vad1+0x17>
    7db5:	e0b331        	l32r	a3, 84 (c500 <wb_sb_ptn>)
    7db8:	000086        	j	7dbe <NR_vad1+0x1a>

00007dbb <NR_vad1+0x17>:
    7dbb:	e1eb31        	l32r	a3, 568 (c530 <nb_sb_ptn>)

00007dbe <NR_vad1+0x1a>:
    7dbe:	11a8           	l32i.n	a10, a1, 4
    7dc0:	604404        	ae_lq32f.i	aeq1, a4, 0
    7dc3:	147a16        	beqz	a10, 7f0e <NR_vad1+0x16a>
    7dc6:	0168           	l32i.n	a6, a1, 0
    7dc8:	907a30        	addx2	a7, a10, a3
    7dcb:	050c           	movi.n	a5, 0
    7dcd:	08d622        	addmi	a2, a6, 0x800
    7dd0:	10d662        	addmi	a6, a6, 0x1000
    7dd3:	fc2481866e 	{ addi	a6, a6, 24; ae_zeroq56	aeq0 }

00007dd8 <NR_vad1+0x34>:
    7dd8:	23ad           	ae_l16si.n	a10, a3, 0
    7dda:	339d           	ae_l16si.n	a9, a3, 2
    7ddc:	c099a0        	sub	a9, a9, a10
    7ddf:	04a976        	loopgtz	a9, 7de7 <NR_vad1+0x43>
    7de2:	f8663d341f 	{ ae_lq32f.iu	aeq1, a4, 4; ae_addq56	aeq0, aeq0, aeq1 }

00007de7 <NR_vad1+0x43>:
    7de7:	364d04        	ae_nsaq56s	a13, aeq0
    7dea:	9492b2        	l16si	a11, a2, 0x128
    7ded:	e0ea81        	l32r	a8, 198 (860 <Log2_norm>)
    7df0:	f8cdc2        	addi	a12, a13, -8
    7df3:	c0bbd0        	sub	a11, a11, a13
    7df6:	fc24fe8c4f 	{ ae_slaasq56s	aeq1, aeq0, a12; nop }
    7dfb:	369a04        	ae_trunca32q48	a10, aeq1
    7dfe:	08cbb2        	addi	a11, a11, 8
    7e01:	0008e0        	callx8	a8
    7e04:	7f26e2        	l32i	a14, a6, 0x1fc
    7e07:	604404        	ae_lq32f.i	aeq1, a4, 0
    7e0a:	332b           	addi.n	a3, a3, 2
    7e0c:	ee5a           	add.n	a14, a14, a5
    7e0e:	0ea9           	s32i.n	a10, a14, 0
    7e10:	fc2480455e 	{ addi	a5, a5, 4; ae_zeroq56	aeq0 }
    7e15:	bf9377        	bne	a3, a7, 7dd8 <NR_vad1+0x34>

00007e18 <NR_vad1+0x74>:
    7e18:	7f26e2        	l32i	a14, a6, 0x1fc
    7e1b:	0188           	l32i.n	a8, a1, 0
    7e1d:	11f8           	l32i.n	a15, a1, 4
    7e1f:	600e04        	ae_lq32f.i	aeq0, a14, 0
    7e22:	01d892        	addmi	a9, a8, 0x100
    7e25:	30c9b2        	addi	a11, a9, 48
    7e28:	039882        	l16si	a8, a8, 6
    7e2b:	604944        	ae_lq32f.i	aeq1, a9, 16
    7e2e:	10c9a2        	addi	a10, a9, 16
    7e31:	118800        	slli	a8, a8, 16
    7e34:	36c834        	ae_cvtq48a32s	aeq3, a8
    7e37:	0e8d           	mov.n	a8, a14
    7e39:	0cbf16        	beqz	a15, 7f08 <NR_vad1+0x164>
    7e3c:	01f8           	l32i.n	a15, a1, 0
    7e3e:	09dff2        	addmi	a15, a15, 0x900
    7e41:	d644414f3e 	{ addi	a3, a15, 20; ae_ltq56s	b1, aeq1, aeq0 }
    7e46:	10cff2        	addi	a15, a15, 16
    7e49:	0fdd           	mov.n	a13, a15
    7e4b:	c3d310        	movf	a13, a3, b1
    7e4e:	441d04        	ae_lp16x2f.i	aep1, a13, 0
    7e51:	c19114        	ae_mulzaafq32sp16s.lh	aeq2, aeq0, aep1, aeq1, aep1
    7e54:	1188           	l32i.n	a8, a1, 4
    7e56:	622944        	ae_sq32f.i	aeq2, a9, 16
    7e59:	605b14        	ae_lq32f.iu	aeq1, a11, 4
    7e5c:	d6480ff88e 	{ addi	a8, a8, -1; ae_ltq56s	b0, aeq0, aeq1 }
    7e61:	032d           	mov.n	a2, a3
    7e63:	0fcd           	mov.n	a12, a15
    7e65:	c3c300        	movf	a12, a3, b0
    7e68:	440c04        	ae_lp16x2f.i	aep0, a12, 0
    7e6b:	0c008006df 	{ movi	a13, 6; ae_mulzaafq32sp16s.lh	aeq0, aeq0, aep0, aeq1, aep0 }
    7e70:	0c0c           	movi.n	a12, 0
    7e72:	620b04        	ae_sq32f.i	aeq0, a11, 0
    7e75:	fa32fd3e1f 	{ ae_lq32f.iu	aeq1, a14, 4; ae_subq56	aeq2, aeq2, aeq0 }
    7e7a:	d6d47d1a1f 	{ ae_lq32f.iu	aeq0, a10, 4; ae_ltq56s	b1, aeq3, aeq2 }
    7e7f:	339876        	loopnez	a8, 7eb6 <NR_vad1+0x112>
    7e82:	d648138fff 	{ or	a8, a15, a15; ae_ltq56s	b0, aeq0, aeq1 }
    7e87:	089d           	mov.n	a9, a8
    7e89:	d3cd10        	movt	a12, a13, b1
    7e8c:	c38200        	movf	a8, a2, b0
    7e8f:	440804        	ae_lp16x2f.i	aep0, a8, 0
    7e92:	0c01006cde 	{ addi	a13, a12, 6; ae_mulzaafq32sp16s.lh	aeq0, aeq1, aep0, aeq0, aep0 }
    7e97:	620a04        	ae_sq32f.i	aeq0, a10, 0
    7e9a:	609b14        	ae_lq32f.iu	aeq2, a11, 4
    7e9d:	09a104        	ae_ltq56s	b0, aeq1, aeq2
    7ea0:	c39200        	movf	a9, a2, b0
    7ea3:	440904        	ae_lp16x2f.i	aep0, a9, 0
    7ea6:	c18064        	ae_mulzaafq32sp16s.lh	aeq2, aeq1, aep0, aeq2, aep0
    7ea9:	f8a2f9ab0f 	{ ae_sq32f.i	aeq2, a11, 0; ae_subq56	aeq0, aeq0, aeq2 }
    7eae:	d6c47d3e1f 	{ ae_lq32f.iu	aeq1, a14, 4; ae_ltq56s	b1, aeq3, aeq0 }
    7eb3:	601a14        	ae_lq32f.iu	aeq0, a10, 4

00007eb6 <NR_vad1+0x112>:
    7eb6:	7f2682        	l32i	a8, a6, 0x1fc
    7eb9:	d3cd10        	movt	a12, a13, b1
    7ebc:	481ca6        	blti	a12, 1, 7f08 <NR_vad1+0x164>
    7ebf:	e1ab91        	l32r	a9, 56c (c1e8 <NR_immediate_num+0x8>)

00007ec2 <NR_vad1+0x11e>:
    7ec2:	600804        	ae_lq32f.i	aeq0, a8, 0
    7ec5:	01c8           	l32i.n	a12, a1, 0
    7ec7:	11a8           	l32i.n	a10, a1, 4
    7ec9:	440904        	ae_lp16x2f.i	aep0, a9, 0
    7ecc:	109cb2        	l16si	a11, a12, 32
    7ecf:	01dcc2        	addmi	a12, a12, 0x100
    7ed2:	58cc92        	addi	a9, a12, 88
    7ed5:	11bb00        	slli	a11, a11, 16
    7ed8:	78ccc2        	addi	a12, a12, 120
    7edb:	604c84        	ae_lq32f.i	aeq1, a12, -32
    7ede:	36cb34        	ae_cvtq48a32s	aeq3, a11
    7ee1:	0aac           	beqz.n	a10, 7f05 <NR_vad1+0x161>
    7ee3:	0d008ffaae 	{ addi	a10, a10, -1; ae_mulzaafq32sp16s.lh	aeq2, aeq0, aep0, aeq1, aep0 }
    7ee8:	601814        	ae_lq32f.iu	aeq0, a8, 4
    7eeb:	faf73d391f 	{ ae_lq32f.iu	aeq1, a9, 4; ae_maxq56s	aeq2, aeq3, aeq2 }
    7ef0:	0c9a76        	loopnez	a10, 7f00 <NR_vad1+0x15c>
    7ef3:	0c00f9a9ff 	{ ae_sq32f.i	aeq2, a9, -4; ae_mulzaafq32sp16s.lh	aeq1, aeq0, aep0, aeq1, aep0 }
    7ef8:	601814        	ae_lq32f.iu	aeq0, a8, 4
    7efb:	faef3d391f 	{ ae_lq32f.iu	aeq1, a9, 4; ae_maxq56s	aeq2, aeq3, aeq1 }

00007f00 <NR_vad1+0x15c>:
    7f00:	6229f4        	ae_sq32f.i	aeq2, a9, -4
    7f03:	f01d           	retw.n

00007f05 <NR_vad1+0x161>:
    7f05:	f01d           	retw.n

00007f07 <NR_vad1+0x163>:
	...

00007f08 <NR_vad1+0x164>:
    7f08:	e19a91        	l32r	a9, 570 (c1ec <NR_immediate_num+0xc>)
    7f0b:	ffecc6        	j	7ec2 <NR_vad1+0x11e>

00007f0e <NR_vad1+0x16a>:
    7f0e:	0168           	l32i.n	a6, a1, 0
    7f10:	10d662        	addmi	a6, a6, 0x1000
    7f13:	18c662        	addi	a6, a6, 24
    7f16:	ffbf86        	j	7e18 <NR_vad1+0x74>

00007f19 <NR_vad1+0x175>:
    7f19:	000000                                        ...

00007f1c <NR_vad2>:
    7f1c:	006136        	entry	a1, 48
    7f1f:	7ca1f2        	movi	a15, 0x17c
    7f22:	340272        	l8ui	a7, a2, 52
    7f25:	1812e2        	l16ui	a14, a2, 48
    7f28:	021282        	l16ui	a8, a2, 4
    7f2b:	01d2b2        	addmi	a11, a2, 0x100
    7f2e:	58cba2        	addi	a10, a11, 88
    7f31:	5ccb92        	addi	a9, a11, 92
    7f34:	2199           	s32i.n	a9, a1, 8
    7f36:	11a9           	s32i.n	a10, a1, 4
    7f38:	7298e7        	bne	a8, a14, 7fae <NR_vad2+0x92>
    7f3b:	109252        	l16si	a5, a2, 32
    7f3e:	080c           	movi.n	a8, 0
    7f40:	7ccb92        	addi	a9, a11, 124
    7f43:	0199           	s32i.n	a9, a1, 0
    7f45:	185282        	s16i	a8, a2, 48
    7f48:	08d552        	addmi	a5, a5, 0x800
    7f4b:	115500        	slli	a5, a5, 16
    7f4e:	024716        	beqz	a7, 7f76 <NR_vad2+0x5a>
    7f51:	36c232        	addi	a3, a2, 54
    7f54:	204990        	or	a4, a9, a9
    7f57:	906770        	addx2	a6, a7, a7
    7f5a:	b06620        	addx8	a6, a6, a2
    7f5d:	36c662        	addi	a6, a6, 54

00007f60 <NR_vad2+0x44>:
    7f60:	e10981        	l32r	a8, 384 (4950 <take_min_four>)
    7f63:	03ad           	mov.n	a10, a3
    7f65:	cb0c           	movi.n	a11, 12
    7f67:	0008e0        	callx8	a8
    7f6a:	18c332        	addi	a3, a3, 24
    7f6d:	5395a0        	max	a9, a5, a10
    7f70:	09e494        	ae_s32ip	a9, a4, 4
    7f73:	e99367        	bne	a3, a6, 7f60 <NR_vad2+0x44>

00007f76 <NR_vad2+0x5a>:
    7f76:	8a1c           	movi.n	a10, 24
    7f78:	3302d2        	l8ui	a13, a2, 51
    7f7b:	1188           	l32i.n	a8, a1, 4
    7f7d:	21f8           	l32i.n	a15, a1, 8
    7f7f:	01cdd2        	addi	a13, a13, 1
    7f82:	74d0d0        	extui	a13, a13, 0, 8
    7f85:	3342d2        	s8i	a13, a2, 51
    7f88:	08ad66        	bnei	a13, 12, 7f94 <NR_vad2+0x78>
    7f8b:	00a0d2        	movi	a13, 0
    7f8e:	00a0e2        	movi	a14, 0
    7f91:	3342e2        	s8i	a14, a2, 51

00007f94 <NR_vad2+0x78>:
    7f94:	600ff4        	ae_lq32f.i	aeq0, a15, -4
    7f97:	909d20        	addx2	a9, a13, a2
    7f9a:	1ec992        	addi	a9, a9, 30
    7f9d:	079776        	loopnez	a7, 7fa8 <NR_vad2+0x8c>
    7fa0:	f8e3bd181f 	{ ae_lq32f.iu	aeq0, a8, 4; ae_roundsp16q48sym	aep0, aeq0 }
    7fa5:	4389a4        	ae_sp16f.l.xu	aep0, a9, a10

00007fa8 <NR_vad2+0x8c>:
    7fa8:	1812e2        	l16ui	a14, a2, 48
    7fab:	000ac6        	j	7fda <NR_vad2+0xbe>

00007fae <NR_vad2+0x92>:
    7fae:	0a9d           	mov.n	a9, a10
    7fb0:	330282        	l8ui	a8, a2, 51
    7fb3:	21a8           	l32i.n	a10, a1, 8
    7fb5:	b2fa           	add.n	a11, a2, a15
    7fb7:	908820        	addx2	a8, a8, a2
    7fba:	600af4        	ae_lq32f.i	aeq0, a10, -4
    7fbd:	1ec882        	addi	a8, a8, 30
    7fc0:	479c           	beqz.n	a7, 7fd8 <NR_vad2+0xbc>
    7fc2:	18a0a2        	movi	a10, 24
    7fc5:	0c9776        	loopnez	a7, 7fd5 <NR_vad2+0xb9>
    7fc8:	f8e39a18af 	{ ae_lp16f.xu	aep1, a8, a10; ae_roundsp16q48sym	aep0, aeq0 }
    7fcd:	d806fd191f 	{ ae_lq32f.iu	aeq0, a9, 4; ae_minp24s	aep1, aep1, aep0 }
    7fd2:	421804        	ae_sp16f.l.i	aep1, a8, 0

00007fd5 <NR_vad2+0xb9>:
    7fd5:	1812e2        	l16ui	a14, a2, 48

00007fd8 <NR_vad2+0xbc>:
    7fd8:	01b9           	s32i.n	a11, a1, 0

00007fda <NR_vad2+0xbe>:
    7fda:	1198           	l32i.n	a9, a1, 4
    7fdc:	fd24b001be 	{ l32i	a11, a1, 0; ae_zeroq56	aeq1 }
    7fe1:	fc20c01ece 	{ addi	a12, a14, 1; ae_zerop48	aep1 }
    7fe6:	1852c2        	s16i	a12, a2, 48
    7fe9:	0e87b6        	bltui	a7, 8, 7ffb <NR_vad2+0xdf>
    7fec:	e041a1        	l32r	a10, f0 (c4e0 <wb_score_bands>)
    7fef:	e161d1        	l32r	a13, 574 (e38e4 <_end+0xd6e44>)
    7ff2:	39add4        	ae_movpa24x2	aep2, a13, a13
    7ff5:	0002c6        	j	8004 <NR_vad2+0xe8>

00007ff8 <NR_vad2+0xdc>:
    7ff8:	000000                                        ...

00007ffb <NR_vad2+0xdf>:
    7ffb:	e15fa1        	l32r	a10, 578 (c520 <nb_score_bands>)
    7ffe:	e15fe1        	l32r	a14, 57c (124925 <_end+0x117e85>)
    8001:	39aee4        	ae_movpa24x2	aep2, a14, a14

00008004 <NR_vad2+0xe8>:
    8004:	21e8           	l32i.n	a14, a1, 8
    8006:	feca82        	addi	a8, a10, -2
    8009:	12d2d2        	addmi	a13, a2, 0x1200
    800c:	6dd8           	l32i.n	a13, a13, 24
    800e:	a26b           	addi.n	a10, a2, 6
    8010:	600ef4        	ae_lq32f.i	aeq0, a14, -4
    8013:	fccdd2        	addi	a13, a13, -4
    8016:	01d2e2        	addmi	a14, a2, 0x100
    8019:	7ccee2        	addi	a14, a14, 124
    801c:	608e04        	ae_lq32f.i	aeq2, a14, 0
    801f:	259776        	loopnez	a7, 8048 <NR_vad2+0x12c>
    8022:	f8a2ec8a1f 	{ ae_lp16f.iu	aep0, a10, 2; ae_subq56	aeq0, aeq0, aeq2 }
    8027:	0ac084        	ae_cvtq48p24s.l	aeq3, aep0
    802a:	098304        	ae_ltq56s	b0, aeq3, aeq0
    802d:	f4caec881f 	{ ae_lp16f.iu	aep0, a8, 2; ae_mulafq32sp24s.l	aeq1, aeq0, aep2 }
    8032:	020076        	bf	b0, 8038 <NR_vad2+0x11c>
    8035:	079014        	ae_addsp24s	aep1, aep1, aep0

00008038 <NR_vad2+0x11c>:
    8038:	faa6fd191f 	{ ae_lq32f.iu	aeq0, a9, 4; ae_subq56	aeq2, aeq0, aeq3 }
    803d:	35a074        	ae_sraiq56	aeq2, aeq2, 1
    8040:	fad23d5b1f 	{ ae_lq32f.iu	aeq2, a11, 4; ae_truncp24q48x2	aep4, aeq2, aeq2 }
    8045:	52cd14        	ae_sp24f.l.iu	aep4, a13, 4

00008048 <NR_vad2+0x12c>:
    8048:	40da14        	ae_lp16f.iu	aep5, a10, 2
    804b:	0ac584        	ae_cvtq48p24s.l	aeq3, aep5
    804e:	d6cc42e2fe 	{ addi	a15, a2, 46; ae_ltq56s	b1, aeq3, aeq1 }
    8053:	408814        	ae_lp16f.iu	aep0, a8, 2
    8056:	2ec282        	addi	a8, a2, 46
    8059:	070176        	bf	b1, 8064 <NR_vad2+0x148>
    805c:	079064        	ae_addsp24s	aep6, aep1, aep0
    805f:	426f04        	ae_sp16f.l.i	aep6, a15, 0
    8062:	f01d           	retw.n

00008064 <NR_vad2+0x148>:
    8064:	421804        	ae_sp16f.l.i	aep1, a8, 0
    8067:	f01d           	retw.n

00008069 <NR_vad2+0x14d>:
    8069:	000000                                        ...

0000806c <NR_NoiseEstimate>:
    806c:	004136        	entry	a1, 32
    806f:	0b0c           	movi.n	a11, 0
    8071:	002232        	l32i	a3, a2, 0
    8074:	0e92a2        	l16si	a10, a2, 28
    8077:	eea0c2        	movi	a12, 238
    807a:	08d382        	addmi	a8, a3, 0x800
    807d:	11aac0        	slli	a10, a10, 4
    8080:	0cd332        	addmi	a3, a3, 0xc00
    8083:	b8c332        	addi	a3, a3, -72
    8086:	209330        	or	a9, a3, a3
    8089:	058c76        	loop	a12, 8092 <NR_NoiseEstimate+0x26>
    808c:	09e8a4        	ae_s32ip	a10, a8, 4
    808f:	09e9b4        	ae_s32ip	a11, a9, 4

00008092 <NR_NoiseEstimate+0x26>:
    8092:	320282        	l8ui	a8, a2, 50
    8095:	08d292        	addmi	a9, a2, 0x800
    8098:	24c962        	addi	a6, a9, 36
    809b:	55e817        	bbsi	a8, 1, 80f4 <NR_NoiseEstimate+0x88>
    809e:	1712a2        	l16ui	a10, a2, 46
    80a1:	4b1c           	movi.n	a11, 20
    80a3:	553ba7        	bltu	a11, a10, 80fc <NR_NoiseEstimate+0x90>
    80a6:	3402b2        	l8ui	a11, a2, 52
    80a9:	027ab6        	bltui	a10, 7, 80af <NR_NoiseEstimate+0x43>
    80ac:	003406        	j	8180 <NR_NoiseEstimate+0x114>
    80af:	4629a2        	l32i	a10, a9, 0x118

000080b2 <NR_NoiseEstimate+0x46>:
    80b2:	046b16        	beqz	a11, 80fc <NR_NoiseEstimate+0x90>
    80b5:	11fbe0        	slli	a15, a11, 2
    80b8:	10d2e2        	addmi	a14, a2, 0x1000
    80bb:	0c0c           	movi.n	a12, 0
    80bd:	dff1d1        	l32r	a13, 84 (c500 <wb_sb_ptn>)
    80c0:	170c           	movi.n	a7, 1

000080c2 <NR_NoiseEstimate+0x56>:
    80c2:	862e82        	l32i	a8, a14, 0x218
    80c5:	88ca           	add.n	a8, a8, a12
    80c7:	0888           	l32i.n	a8, a8, 0
    80c9:	cc4b           	addi.n	a12, a12, 4
    80cb:	1918e6        	bgei	a8, 1, 80e8 <NR_NoiseEstimate+0x7c>
    80ce:	2d5d           	ae_l16si.n	a5, a13, 0
    80d0:	3d4d           	ae_l16si.n	a4, a13, 2
    80d2:	a08530        	addx4	a8, a5, a3
    80d5:	0fa547        	bge	a5, a4, 80e8 <NR_NoiseEstimate+0x7c>
    80d8:	c09450        	sub	a9, a4, a5
    80db:	539970        	max	a9, a9, a7
    80de:	06a976        	loopgtz	a9, 80e8 <NR_NoiseEstimate+0x7c>
    80e1:	0898           	l32i.n	a9, a8, 0
    80e3:	99aa           	add.n	a9, a9, a10
    80e5:	09e894        	ae_s32ip	a9, a8, 4
    80e8:	dd2b           	addi.n	a13, a13, 2
    80ea:	d49cf7        	bne	a12, a15, 80c2 <NR_NoiseEstimate+0x56>
    80ed:	0002c6        	j	80fc <NR_NoiseEstimate+0x90>

000080f0 <NR_NoiseEstimate+0x84>:
    80f0:	00000000                                ....

000080f4 <NR_NoiseEstimate+0x88>:
    80f4:	e12381        	l32r	a8, 580 (9e0 <PD_Noise_Est>)
    80f7:	02ad           	mov.n	a10, a2
    80f9:	0008e0        	callx8	a8
    80fc:	a0a172        	movi	a7, 0x1a0
    80ff:	fcc342        	addi	a4, a3, -4
    8102:	8396d2        	l16si	a13, a6, 0x106
    8105:	0238           	l32i.n	a3, a2, 0
    8107:	8296c2        	l16si	a12, a6, 0x104
    810a:	350252        	l8ui	a5, a2, 53
    810d:	33cb           	addi.n	a3, a3, 12
    810f:	171cd7        	beq	a12, a13, 812a <NR_NoiseEstimate+0xbe>
    8112:	20a330        	or	a10, a3, a3
    8115:	20e550        	or	a14, a5, a5
    8118:	e0e081        	l32r	a8, 498 (7af8 <equal_power>)
    811b:	02d2b2        	addmi	a11, a2, 0x200
    811e:	a0cbb2        	addi	a11, a11, -96
    8121:	0008e0        	callx8	a8
    8124:	8356a2        	s16i	a10, a6, 0x106
    8127:	8256a2        	s16i	a10, a6, 0x104

0000812a <NR_NoiseEstimate+0xbe>:
    812a:	608304        	ae_lq32f.i	aeq2, a3, 0
    812d:	02d292        	addmi	a9, a2, 0x200
    8130:	fc2489c99e 	{ addi	a9, a9, -100; ae_zeroq56	aeq0 }
    8135:	169576        	loopnez	a5, 814f <NR_NoiseEstimate+0xe3>
    8138:	448414        	ae_lp16x2f.iu	aep0, a4, 4
    813b:	24ad           	ae_l16si.n	a10, a4, 0
    813d:	605914        	ae_lq32f.iu	aeq1, a9, 4
    8140:	c18864        	ae_mulzaafq32sp16s.lh	aeq3, aeq1, aep0, aeq2, aep0
    8143:	1abc           	beqz.n	a10, 8178 <NR_NoiseEstimate+0x10c>
    8145:	609314        	ae_lq32f.iu	aeq2, a3, 4
    8148:	f87b39b90f 	{ ae_sq32f.i	aeq3, a9, 0; ae_maxq56s	aeq0, aeq0, aeq3 }

0000814d <NR_NoiseEstimate+0xe1>:
    814d:	f03d           	nop.n

0000814f <NR_NoiseEstimate+0xe3>:
    814f:	364904        	ae_nsaq56s	a9, aeq0
    8152:	8b0c           	movi.n	a11, 8
    8154:	1dab97        	bge	a11, a9, 8175 <NR_NoiseEstimate+0x109>
    8157:	8396c2        	l16si	a12, a6, 0x106
    815a:	f8c9a2        	addi	a10, a9, -8
    815d:	c0cca0        	sub	a12, a12, a10
    8160:	8356c2        	s16i	a12, a6, 0x106
    8163:	e58c           	beqz.n	a5, 8175 <NR_NoiseEstimate+0x109>
    8165:	827a           	add.n	a8, a2, a7
    8167:	401a00        	ssl	a10
    816a:	079576        	loopnez	a5, 8175 <NR_NoiseEstimate+0x109>
    816d:	0898           	l32i.n	a9, a8, 0
    816f:	a19900        	sll	a9, a9
    8172:	09e894        	ae_s32ip	a9, a8, 4
    8175:	f01d           	retw.n

00008177 <NR_NoiseEstimate+0x10b>:
	...

00008178 <NR_NoiseEstimate+0x10c>:
    8178:	f86b3d531f 	{ ae_lq32f.iu	aeq2, a3, 4; ae_maxq56s	aeq0, aeq0, aeq1 }
    817d:	fff306        	j	814d <NR_NoiseEstimate+0xe1>

00008180 <NR_NoiseEstimate+0x114>:
    8180:	05baf6        	bgeui	a10, 16, 8189 <NR_NoiseEstimate+0x11d>
    8183:	4729a2        	l32i	a10, a9, 0x11c
    8186:	ffca06        	j	80b2 <NR_NoiseEstimate+0x46>

00008189 <NR_NoiseEstimate+0x11d>:
    8189:	4829a2        	l32i	a10, a9, 0x120
    818c:	ffc886        	j	80b2 <NR_NoiseEstimate+0x46>

0000818f <NR_NoiseEstimate+0x123>:
	...

00008190 <NR_NoiseWithGain>:
    8190:	004136        	entry	a1, 32
    8193:	002232        	l32i	a3, a2, 0
    8196:	320282        	l8ui	a8, a2, 50
    8199:	340242        	l8ui	a4, a2, 52
    819c:	08d332        	addmi	a3, a3, 0x800
    819f:	048180        	extui	a8, a8, 1, 1
    81a2:	097856        	bnez	a8, 823d <NR_NoiseWithGain+0xad>
    81a5:	00a0a2        	movi	a10, 0

000081a8 <NR_NoiseWithGain+0x18>:
    81a8:	171292        	l16ui	a9, a2, 46
    81ab:	5a79b6        	bltui	a9, 7, 8209 <NR_NoiseWithGain+0x79>
    81ae:	0f92c2        	l16si	a12, a2, 30
    81b1:	5b1c           	movi.n	a11, 21
    81b3:	62b9b0        	saltu	a11, a9, a11
    81b6:	8c1b           	addi.n	a8, a12, 1
    81b8:	218180        	srai	a8, a8, 1
    81bb:	40d882        	addmi	a8, a8, 0x4000
    81be:	93c8b0        	movnez	a12, a8, a11
    81c1:	44aa47        	bge	a10, a4, 8209 <NR_NoiseWithGain+0x79>
    81c4:	1144e0        	slli	a4, a4, 2
    81c7:	10d2f2        	addmi	a15, a2, 0x1000
    81ca:	300cc4        	ae_cvtp24a16x2.ll	aep0, a12, a12
    81cd:	dfadd1        	l32r	a13, 84 (c500 <wb_sb_ptn>)
    81d0:	01a052        	movi	a5, 1
    81d3:	11cae0        	slli	a12, a10, 2
    81d6:	90aad0        	addx2	a10, a10, a13

000081d9 <NR_NoiseWithGain+0x49>:
    81d9:	862fe2        	l32i	a14, a15, 0x218
    81dc:	eeca           	add.n	a14, a14, a12
    81de:	0ee8           	l32i.n	a14, a14, 0
    81e0:	cc4b           	addi.n	a12, a12, 4
    81e2:	1e1ea6        	blti	a14, 1, 8204 <NR_NoiseWithGain+0x74>
    81e5:	2aed           	ae_l16si.n	a14, a10, 0
    81e7:	3add           	ae_l16si.n	a13, a10, 2
    81e9:	a08e30        	addx4	a8, a14, a3
    81ec:	14aed7        	bge	a14, a13, 8204 <NR_NoiseWithGain+0x74>
    81ef:	c09de0        	sub	a9, a13, a14
    81f2:	539950        	max	a9, a9, a5
    81f5:	0ba976        	loopgtz	a9, 8204 <NR_NoiseWithGain+0x74>
    81f8:	600804        	ae_lq32f.i	aeq0, a8, 0
    81fb:	030214        	ae_mulfq32sp16s.l	aeq0, aeq0, aep0
    81fe:	368904        	ae_trunca32q48	a9, aeq0
    8201:	09e894        	ae_s32ip	a9, a8, 4
    8204:	aa2b           	addi.n	a10, a10, 2
    8206:	cf9c47        	bne	a12, a4, 81d9 <NR_NoiseWithGain+0x49>
    8209:	fcc3a2        	addi	a10, a3, -4
    820c:	4c0304        	ae_lp24.i	aep0, a3, 0
    820f:	3502b2        	l8ui	a11, a2, 53
    8212:	02d2c2        	addmi	a12, a2, 0x200
    8215:	08d2e2        	addmi	a14, a2, 0x800
    8218:	959ed2        	l16si	a13, a14, 0x12a
    821b:	a0cc82        	addi	a8, a12, -96
    821e:	c0ccc2        	addi	a12, a12, -64
    8221:	dd6b           	addi.n	a13, a13, 6
    8223:	965ed2        	s16i	a13, a14, 0x12c
    8226:	600c84        	ae_lq32f.i	aeq0, a12, -32
    8229:	f03d           	nop.n
    822b:	f03d           	nop.n
    822d:	0a9b76        	loopnez	a11, 823b <NR_NoiseWithGain+0xab>
    8230:	f8e07d181f 	{ ae_lq32f.iu	aeq0, a8, 4; ae_mulrfq32sp24s.l	aeq1, aeq0, aep0 }
    8235:	4c8314        	ae_lp24.iu	aep0, a3, 4
    8238:	625a14        	ae_sq32f.iu	aeq1, a10, 4

0000823b <NR_NoiseWithGain+0xab>:
    823b:	f01d           	retw.n

0000823d <NR_NoiseWithGain+0xad>:
    823d:	e0d181        	l32r	a8, 584 (fb4 <PD_Noise_Gain>)
    8240:	02ad           	mov.n	a10, a2
    8242:	0008e0        	callx8	a8
    8245:	ffd7c6        	j	81a8 <NR_NoiseWithGain+0x18>

00008248 <common_gain_limiter>:
    8248:	004136        	entry	a1, 32
    824b:	036d           	mov.n	a6, a3
    824d:	37a444        	ae_truncp24a32x2	aep2, a4, a4
    8250:	400304        	ae_lp16f.i	aep0, a3, 0
    8253:	f03d           	nop.n
    8255:	07a276        	loopgtz	a2, 8260 <common_gain_limiter+0x18>
    8258:	d80a6c862f 	{ ae_lp16f.iu	aep0, a6, 4; ae_maxp24s	aep1, aep2, aep0 }
    825d:	5216f4        	ae_sp24f.l.i	aep1, a6, -4

00008260 <common_gain_limiter+0x18>:
    8260:	062d           	mov.n	a2, a6
    8262:	f01d           	retw.n

00008264 <Mel_filter>:
    8264:	006136        	entry	a1, 48
    8267:	fcc552        	addi	a5, a5, -4
    826a:	038d           	mov.n	a8, a3
    826c:	237d           	ae_l16si.n	a7, a3, 0
    826e:	049d           	mov.n	a9, a4
    8270:	334d           	ae_l16si.n	a4, a3, 2
    8272:	fec232        	addi	a3, a2, -2
    8275:	fe2493233f 	{ or	a2, a3, a3; ae_zeroq56	aeq2 }
    827a:	fc1455447f 	{ sub	a4, a4, a7; ae_movq56	aeq0, aeq2 }
    827f:	08d416        	beqz	a4, 8310 <Mel_filter+0xac>
    8282:	fcc9a2        	addi	a10, a9, -4
    8285:	408314        	ae_lp16f.iu	aep0, a3, 2
    8288:	032d           	mov.n	a2, a3
    828a:	50aa14        	ae_lp24f.iu	aep2, a10, 4
    828d:	0a3d           	mov.n	a3, a10
    828f:	09a476        	loopgtz	a4, 829c <Mel_filter+0x38>
    8292:	cc406c821f 	{ ae_lp16f.iu	aep0, a2, 2; ae_sraip24	aep1, aep0, 8 }
    8297:	e2462ea31f 	{ ae_lp24f.iu	aep2, a3, 4; ae_mulafp24s.hh	aeq0, aep1, aep2 }

0000829c <Mel_filter+0x38>:
    829c:	fc4453a55f 	{ or	a10, a5, a5; ae_roundsq32sym	aeq0, aeq0 }
    82a1:	624a14        	ae_sq32f.iu	aeq0, a10, 4
    82a4:	287d           	ae_l16si.n	a7, a8, 0
    82a6:	029842        	l16si	a4, a8, 4
    82a9:	c04470        	sub	a4, a4, a7
    82ac:	fc144ff44e 	{ addi	a4, a4, -1; ae_movq56	aeq0, aeq2 }
    82b1:	0214e6        	bgei	a4, 1, 82b7 <Mel_filter+0x53>
    82b4:	002406        	j	8348 <Mel_filter+0xe4>
    82b7:	09a476        	loopgtz	a4, 82c4 <Mel_filter+0x60>

000082ba <Mel_filter+0x56>:
    82ba:	cc406c821f 	{ ae_lp16f.iu	aep0, a2, 2; ae_sraip24	aep1, aep0, 8 }
    82bf:	e2462ea31f 	{ ae_lp24f.iu	aep2, a3, 4; ae_mulafp24s.hh	aeq0, aep1, aep2 }

000082c4 <Mel_filter+0x60>:
    82c4:	560104        	ae_sp24x2s.i	aep0, a1, 0

000082c7 <Mel_filter+0x63>:
    82c7:	064834        	ae_roundsq32sym	aeq1, aeq0
    82ca:	625a14        	ae_sq32f.iu	aeq1, a10, 4

000082cd <Mel_filter+0x69>:
    82cd:	3d36a6        	blti	a6, 3, 830e <Mel_filter+0xaa>
    82d0:	540104        	ae_lp24x2.i	aep0, a1, 0
    82d3:	04af72        	movi	a7, -252
    82d6:	906680        	addx2	a6, a6, a8
    82d9:	08af52        	movi	a5, -248
    82dc:	585a           	add.n	a5, a8, a5
    82de:	fc1450667f 	{ add	a6, a6, a7; ae_movq56	aeq0, aeq2 }

000082e3 <Mel_filter+0x7f>:
    82e3:	7d9572        	l16si	a7, a5, 250
    82e6:	7f9542        	l16si	a4, a5, 254
    82e9:	552b           	addi.n	a5, a5, 2
    82eb:	a03790        	addx4	a3, a7, a9
    82ee:	50a304        	ae_lp24f.iu	aep2, a3, 0
    82f1:	c04470        	sub	a4, a4, a7
    82f4:	440b           	addi.n	a4, a4, -1
    82f6:	09a476        	loopgtz	a4, 8303 <Mel_filter+0x9f>
    82f9:	cc406c821f 	{ ae_lp16f.iu	aep0, a2, 2; ae_sraip24	aep1, aep0, 8 }
    82fe:	e2462ea31f 	{ ae_lp24f.iu	aep2, a3, 4; ae_mulafp24s.hh	aeq0, aep1, aep2 }

00008303 <Mel_filter+0x9f>:
    8303:	06c834        	ae_roundsq32sym	aeq3, aeq0
    8306:	fc1479fa1f 	{ ae_sq32f.iu	aeq3, a10, 4; ae_movq56	aeq0, aeq2 }
    830b:	d49567        	bne	a5, a6, 82e3 <Mel_filter+0x7f>

0000830e <Mel_filter+0xaa>:
    830e:	f01d           	retw.n

00008310 <Mel_filter+0xac>:
    8310:	626514        	ae_sq32f.iu	aeq2, a5, 4
    8313:	287d           	ae_l16si.n	a7, a8, 0
    8315:	029842        	l16si	a4, a8, 4
    8318:	05ad           	mov.n	a10, a5
    831a:	c04470        	sub	a4, a4, a7
    831d:	d4ac           	beqz.n	a4, 834e <Mel_filter+0xea>
    831f:	032d           	mov.n	a2, a3
    8321:	408214        	ae_lp16f.iu	aep0, a2, 2
    8324:	fcc932        	addi	a3, a9, -4
    8327:	50a314        	ae_lp24f.iu	aep2, a3, 4
    832a:	2a14a6        	blti	a4, 1, 8358 <Mel_filter+0xf4>
    832d:	05ad           	mov.n	a10, a5
    832f:	09a476        	loopgtz	a4, 833c <Mel_filter+0xd8>
    8332:	cc406c821f 	{ ae_lp16f.iu	aep0, a2, 2; ae_sraip24	aep1, aep0, 8 }
    8337:	e2462ea31f 	{ ae_lp24f.iu	aep2, a3, 4; ae_mulafp24s.hh	aeq0, aep1, aep2 }

0000833c <Mel_filter+0xd8>:
    833c:	560104        	ae_sp24x2s.i	aep0, a1, 0

0000833f <Mel_filter+0xdb>:
    833f:	064834        	ae_roundsq32sym	aeq1, aeq0
    8342:	625a14        	ae_sq32f.iu	aeq1, a10, 4
    8345:	ffe106        	j	82cd <Mel_filter+0x69>

00008348 <Mel_filter+0xe4>:
    8348:	560104        	ae_sp24x2s.i	aep0, a1, 0
    834b:	ffde06        	j	82c7 <Mel_filter+0x63>

0000834e <Mel_filter+0xea>:
    834e:	05ad           	mov.n	a10, a5
    8350:	626a14        	ae_sq32f.iu	aeq2, a10, 4
    8353:	ffdd86        	j	82cd <Mel_filter+0x69>

00008356 <Mel_filter+0xf2>:
	...

00008358 <Mel_filter+0xf4>:
    8358:	560104        	ae_sp24x2s.i	aep0, a1, 0
    835b:	fff806        	j	833f <Mel_filter+0xdb>

0000835e <Mel_filter+0xfa>:
	...

00008360 <Mel_filter_inv>:
    8360:	006136        	entry	a1, 48
    8363:	07cd           	mov.n	a12, a7
    8365:	fec442        	addi	a4, a4, -2
    8368:	339d           	ae_l16si.n	a9, a3, 2
    836a:	05ed           	mov.n	a14, a5
    836c:	238d           	ae_l16si.n	a8, a3, 0
    836e:	fcc652        	addi	a5, a6, -4
    8371:	860c           	movi.n	a6, 8
    8373:	151897        	beq	a8, a9, 838c <Mel_filter_inv+0x2c>
    8376:	409414        	ae_lp16f.iu	aep1, a4, 2
    8379:	0ead           	mov.n	a10, a14
    837b:	605a04        	ae_lq32f.iu	aeq1, a10, 0
    837e:	081c64        	ae_mulfq32sp24s.h	aeq1, aeq1, aep1
    8381:	fc24fe960f 	{ ae_slaasq56s	aeq0, aeq1, a6; nop }
    8386:	1b8c04        	ae_roundsp24q48sym	aep0, aeq0
    8389:	528514        	ae_sp24f.l.iu	aep0, a5, 4

0000838c <Mel_filter_inv+0x2c>:
    838c:	fec3b2        	addi	a11, a3, -2
    838f:	021ce6        	bgei	a12, 1, 8395 <Mel_filter_inv+0x35>
    8392:	004606        	j	84ae <Mel_filter_inv+0x14e>
    8395:	03ad           	mov.n	a10, a3
    8397:	fcce72        	addi	a7, a14, -4
    839a:	0d0c           	movi.n	a13, 0
    839c:	0129           	s32i.n	a2, a1, 0
    839e:	080c           	movi.n	a8, 0
    83a0:	00a192        	movi	a9, 0x100
    83a3:	39b994        	ae_movpa24x2	aep3, a9, a9
    83a6:	fe2094118f 	{ s32i.n	a8, a1, 4; ae_zerop48	aep4 }
    83ab:	0008c6        	j	83d2 <Mel_filter_inv+0x72>

000083ae <Mel_filter_inv+0x4e>:
	...

000083b0 <Mel_filter_inv+0x50>:
    83b0:	40d414        	ae_lp16f.iu	aep5, a4, 2
    83b3:	0fed           	mov.n	a14, a15
    83b5:	60df04        	ae_lq32f.iu	aeq3, a15, 0
    83b8:	08dce4        	ae_mulfq32sp24s.h	aeq3, aeq3, aep5
    83bb:	774b           	addi.n	a7, a7, 4
    83bd:	fc24feb68f 	{ ae_slaasq56s	aeq2, aeq3, a6; nop }
    83c2:	f9f793d33f 	{ or	a13, a3, a3; ae_roundsp24q48sym	aep2, aeq2 }
    83c7:	52a514        	ae_sp24f.l.iu	aep2, a5, 4

000083ca <Mel_filter_inv+0x6a>:
    83ca:	aa2b           	addi.n	a10, a10, 2
    83cc:	c083c0        	sub	a8, a3, a12
    83cf:	0db816        	beqz	a8, 84ae <Mel_filter_inv+0x14e>

000083d2 <Mel_filter_inv+0x72>:
    83d2:	40eb24        	ae_lp16f.iu	aep6, a11, 4
    83d5:	40fbf4        	ae_lp16f.iu	aep7, a11, -2
    83d8:	07e794        	ae_subsp24s	aep1, aep6, aep7
    83db:	199c04        	ae_eqp24	b0:b1, aep1, aep4
    83de:	fe4b           	addi.n	a15, a14, 4
    83e0:	d264801d3e 	{ addi	a3, a13, 1; ae_eqp24	b2:b3, aep1, aep3 }
    83e5:	c71076        	bt	b0, 83b0 <Mel_filter_inv+0x50>
    83e8:	200276        	bf	b2, 840c <Mel_filter_inv+0xac>
    83eb:	9e4b           	addi.n	a9, a14, 4
    83ed:	409414        	ae_lp16f.iu	aep1, a4, 2
    83f0:	09ed           	mov.n	a14, a9
    83f2:	605904        	ae_lq32f.iu	aeq1, a9, 0
    83f5:	f80540477e 	{ addi	a7, a7, 4; ae_mulfq32sp24s.h	aeq1, aeq1, aep1 }
    83fa:	3d1b           	addi.n	a3, a13, 1
    83fc:	fc24fe960f 	{ ae_slaasq56s	aeq0, aeq1, a6; nop }
    8401:	f8e793d33f 	{ or	a13, a3, a3; ae_roundsp24q48sym	aep0, aeq0 }
    8406:	528514        	ae_sp24f.l.iu	aep0, a5, 4
    8409:	ffef46        	j	83ca <Mel_filter_inv+0x6a>

0000840c <Mel_filter_inv+0xac>:
    840c:	3a3d           	ae_l16si.n	a3, a10, 2
    840e:	2a8d           	ae_l16si.n	a8, a10, 0
    8410:	1198           	l32i.n	a9, a1, 4
    8412:	f30b           	addi.n	a15, a3, -1
    8414:	881b           	addi.n	a8, a8, 1
    8416:	2189           	s32i.n	a8, a1, 8
    8418:	3189           	s32i.n	a8, a1, 12
    841a:	6f2f87        	blt	a15, a8, 848d <Mel_filter_inv+0x12d>
    841d:	600724        	ae_lq32f.i	aeq0, a7, 8
    8420:	dff581        	l32r	a8, 3f4 (7fff00 <_end+0x7f3460>)
    8423:	3128           	l32i.n	a2, a1, 12
    8425:	39a884        	ae_movpa24x2	aep2, a8, a8
    8428:	0188           	l32i.n	a8, a1, 0
    842a:	c02320        	sub	a2, a3, a2
    842d:	220b           	addi.n	a2, a2, -1
    842f:	903980        	addx2	a3, a9, a8
    8432:	078d           	mov.n	a8, a7
    8434:	fec332        	addi	a3, a3, -2
    8437:	40f314        	ae_lp16f.iu	aep7, a3, 2
    843a:	dceabd381f 	{ ae_lq32f.iu	aeq1, a8, 4; ae_subsp24s	aep0, aep2, aep7 }
    843f:	f8602c841f 	{ ae_lp16f.iu	aep0, a4, 2; ae_mulrfq32sp24s.h	aeq0, aeq0, aep0 }
    8444:	f87d53833f 	{ or	a8, a3, a3; ae_mulrfq32sp24s.h	aeq1, aeq1, aep7 }
    8449:	24a276        	loopgtz	a2, 8471 <Mel_filter_inv+0x111>
    844c:	072d           	mov.n	a2, a7
    844e:	061804        	ae_addsq56s	aeq0, aeq1, aeq0
    8451:	080424        	ae_mulfq32sp24s.h	aeq0, aeq0, aep0
    8454:	fc24fe860f 	{ ae_slaasq56s	aeq0, aeq0, a6; nop }
    8459:	1b8c04        	ae_roundsp24q48sym	aep0, aeq0
    845c:	528514        	ae_sp24f.l.iu	aep0, a5, 4
    845f:	408814        	ae_lp16f.iu	aep0, a8, 2
    8462:	dc0afd121f 	{ ae_lq32f.iu	aeq0, a2, 4; ae_subsp24s	aep1, aep2, aep0 }
    8467:	f8607d072f 	{ ae_lq32f.i	aeq0, a7, 8; ae_mulrfq32sp24s.h	aeq1, aeq0, aep0 }
    846c:	f8642c841f 	{ ae_lp16f.iu	aep0, a4, 2; ae_mulrfq32sp24s.h	aeq0, aeq0, aep1 }

00008471 <Mel_filter_inv+0x111>:
    8471:	2188           	l32i.n	a8, a1, 8
    8473:	069804        	ae_addsq56s	aeq2, aeq1, aeq0
    8476:	0884a4        	ae_mulfq32sp24s.h	aeq2, aeq2, aep0
    8479:	c08f80        	sub	a8, a15, a8
    847c:	fc24fea64f 	{ ae_slaasq56s	aeq1, aeq2, a6; nop }
    8481:	898a           	add.n	a8, a9, a8
    8483:	f8efc0188e 	{ addi	a8, a8, 1; ae_roundsp24q48sym	aep1, aeq1 }
    8488:	529514        	ae_sp24f.l.iu	aep1, a5, 4
    848b:	1189           	s32i.n	a8, a1, 4

0000848d <Mel_filter_inv+0x12d>:
    848d:	9e4b           	addi.n	a9, a14, 4
    848f:	40d414        	ae_lp16f.iu	aep5, a4, 2
    8492:	09ed           	mov.n	a14, a9
    8494:	601904        	ae_lq32f.iu	aeq0, a9, 0
    8497:	f81400477e 	{ addi	a7, a7, 4; ae_mulfq32sp24s.h	aeq0, aeq0, aep5 }
    849c:	3d1b           	addi.n	a3, a13, 1
    849e:	fc24fe86cf 	{ ae_slaasq56s	aeq3, aeq0, a6; nop }
    84a3:	f9ff93d33f 	{ or	a13, a3, a3; ae_roundsp24q48sym	aep2, aeq3 }
    84a8:	52a514        	ae_sp24f.l.iu	aep2, a5, 4
    84ab:	ffc6c6        	j	83ca <Mel_filter_inv+0x6a>

000084ae <Mel_filter_inv+0x14e>:
    84ae:	f01d           	retw.n

000084b0 <NR_WienerFilter>:
    84b0:	008136        	entry	a1, 64
    84b3:	350252        	l8ui	a5, a2, 53
    84b6:	0288           	l32i.n	a8, a2, 0
    84b8:	129232        	l16si	a3, a2, 36
    84bb:	08d292        	addmi	a9, a2, 0x800
    84be:	05d262        	addmi	a6, a2, 0x500
    84c1:	58c662        	addi	a6, a6, 88
    84c4:	2cc972        	addi	a7, a9, 44
    84c7:	9799d2        	l16si	a13, a9, 0x12e
    84ca:	6139           	s32i.n	a3, a1, 24
    84cc:	949992        	l16si	a9, a9, 0x128
    84cf:	08d8a2        	addmi	a10, a8, 0x800
    84d2:	51a9           	s32i.n	a10, a1, 20
    84d4:	88cb           	addi.n	a8, a8, 12
    84d6:	4189           	s32i.n	a8, a1, 16
    84d8:	094d           	mov.n	a4, a9
    84da:	0da9d7        	bge	a9, a13, 84eb <NR_WienerFilter+0x3b>
    84dd:	1169           	s32i.n	a6, a1, 4
    84df:	0d4d           	mov.n	a4, a13
    84e1:	1a0c           	movi.n	a10, 1
    84e3:	31a9           	s32i.n	a10, a1, 12
    84e5:	000206        	j	84f1 <NR_WienerFilter+0x41>

000084e8 <NR_WienerFilter+0x38>:
    84e8:	000000                                        ...

000084eb <NR_WienerFilter+0x3b>:
    84eb:	1189           	s32i.n	a8, a1, 4
    84ed:	0c0c           	movi.n	a12, 0
    84ef:	31c9           	s32i.n	a12, a1, 12

000084f1 <NR_WienerFilter+0x41>:
    84f1:	809782        	l16si	a8, a7, 0x100
    84f4:	51e8           	l32i.n	a14, a1, 20
    84f6:	03a487        	bge	a4, a8, 84fd <NR_WienerFilter+0x4d>
    84f9:	084d           	mov.n	a4, a8
    84fb:	11e9           	s32i.n	a14, a1, 4

000084fd <NR_WienerFilter+0x4d>:
    84fd:	121947        	beq	a9, a4, 8513 <NR_WienerFilter+0x63>
    8500:	09dd           	mov.n	a13, a9
    8502:	11a8           	l32i.n	a10, a1, 4
    8504:	41b8           	l32i.n	a11, a1, 16
    8506:	dfe481        	l32r	a8, 498 (7af8 <equal_power>)
    8509:	04cd           	mov.n	a12, a4
    850b:	05ed           	mov.n	a14, a5
    850d:	0008e0        	callx8	a8
    8510:	8197d2        	l16si	a13, a7, 0x102

00008513 <NR_WienerFilter+0x63>:
    8513:	0d1d47        	beq	a13, a4, 8524 <NR_WienerFilter+0x74>
    8516:	11a8           	l32i.n	a10, a1, 4
    8518:	06bd           	mov.n	a11, a6
    851a:	dfdf81        	l32r	a8, 498 (7af8 <equal_power>)
    851d:	04cd           	mov.n	a12, a4
    851f:	05ed           	mov.n	a14, a5
    8521:	0008e0        	callx8	a8

00008524 <NR_WienerFilter+0x74>:
    8524:	809782        	l16si	a8, a7, 0x100
    8527:	0f1847        	beq	a8, a4, 853a <NR_WienerFilter+0x8a>
    852a:	11a8           	l32i.n	a10, a1, 4
    852c:	51b8           	l32i.n	a11, a1, 20
    852e:	08dd           	mov.n	a13, a8
    8530:	dfda81        	l32r	a8, 498 (7af8 <equal_power>)
    8533:	04cd           	mov.n	a12, a4
    8535:	05ed           	mov.n	a14, a5
    8537:	0008e0        	callx8	a8

0000853a <NR_WienerFilter+0x8a>:
    853a:	df31d1        	l32r	a13, 200 (7fff <NR_vad2+0xe3>)
    853d:	7e5742        	s16i	a4, a7, 252
    8540:	805742        	s16i	a4, a7, 0x100
    8543:	815742        	s16i	a4, a7, 0x102
    8546:	4198           	l32i.n	a9, a1, 16
    8548:	51a8           	l32i.n	a10, a1, 20
    854a:	09d2c2        	addmi	a12, a2, 0x900
    854d:	44ccc2        	addi	a12, a12, 68
    8550:	0abd           	mov.n	a11, a10
    8552:	600a04        	ae_lq32f.i	aeq0, a10, 0
    8555:	fcc992        	addi	a9, a9, -4
    8558:	440c84        	ae_lp16x2f.i	aep0, a12, -32
    855b:	098d           	mov.n	a8, a9
    855d:	05d2a2        	addmi	a10, a2, 0x500
    8560:	78caa2        	addi	a10, a10, 120
    8563:	604a84        	ae_lq32f.i	aeq1, a10, -32
    8566:	06ad           	mov.n	a10, a6
    8568:	369576        	loopnez	a5, 85a2 <NR_WienerFilter+0xf2>
    856b:	fa6a3d781f 	{ ae_lq32f.iu	aeq3, a8, 4; ae_addq56	aeq2, aeq1, aeq0 }
    8570:	c188e4        	ae_mulzaafq32sp16s.lh	aeq3, aeq3, aep0, aeq2, aep0
    8573:	364e04        	ae_nsaq56s	a14, aeq0
    8576:	367f04        	ae_nsaq56s	a15, aeq3
    8579:	43eef0        	min	a14, a14, a15
    857c:	e9cef2        	addi	a15, a14, -23
    857f:	fc24febf8f 	{ ae_slaasq56s	aeq2, aeq3, a15; nop }
    8584:	36ac04        	ae_trunca32q48	a12, aeq2
    8587:	f8cee2        	addi	a14, a14, -8
    858a:	340e94        	ae_sllaq56	aeq0, aeq0, a14
    858d:	7cac           	beqz.n	a12, 85b8 <NR_WienerFilter+0x108>
    858f:	368e04        	ae_trunca32q48	a14, aeq0
    8592:	d2cec0        	quos	a12, a14, a12

00008595 <NR_WienerFilter+0xe5>:
    8595:	601b14        	ae_lq32f.iu	aeq0, a11, 4
    8598:	0aed           	mov.n	a14, a10
    859a:	c0fdc0        	sub	a15, a13, a12
    859d:	605a14        	ae_lq32f.iu	aeq1, a10, 4
    85a0:	0ef9           	s32i.n	a15, a14, 0

000085a2 <NR_WienerFilter+0xf2>:
    85a2:	7199           	s32i.n	a9, a1, 28
    85a4:	11d242        	addmi	a4, a2, 0x1100
    85a7:	78a0f2        	movi	a15, 120
    85aa:	22c232        	addi	a3, a2, 34
    85ad:	2139           	s32i.n	a3, a1, 8
    85af:	023f57        	bltu	a15, a5, 85b5 <NR_WienerFilter+0x105>
    85b2:	002486        	j	8648 <NR_WienerFilter+0x198>
    85b5:	0001c6        	j	85c0 <NR_WienerFilter+0x110>

000085b8 <NR_WienerFilter+0x108>:
    85b8:	deb8c1        	l32r	a12, 98 (8000 <NR_vad2+0xe4>)
    85bb:	fff586        	j	8595 <NR_WienerFilter+0xe5>

000085be <NR_WienerFilter+0x10e>:
	...

000085c0 <NR_WienerFilter+0x110>:
    85c0:	dff281        	l32r	a8, 588 (8248 <common_gain_limiter>)
    85c3:	400304        	ae_lp16f.i	aep0, a3, 0
    85c6:	12d292        	addmi	a9, a2, 0x1200
    85c9:	34c992        	addi	a9, a9, 52
    85cc:	60c904        	ae_lq32f.i	aeq3, a9, 0
    85cf:	d7e369c4ae 	{ l16si	a10, a4, 0x138; ae_mulfq32sp16s.l	aeq3, aeq3, aep0 }
    85d4:	06bd           	mov.n	a11, a6
    85d6:	36bc04        	ae_trunca32q48	a12, aeq3
    85d9:	0008e0        	callx8	a8
    85dc:	9c94c2        	l16si	a12, a4, 0x138
    85df:	0abd           	mov.n	a11, a10
    85e1:	119232        	l16si	a3, a2, 34
    85e4:	9d94a2        	l16si	a10, a4, 0x13a
    85e7:	dfe881        	l32r	a8, 588 (8248 <common_gain_limiter>)
    85ea:	113300        	slli	a3, a3, 16
    85ed:	c0aac0        	sub	a10, a10, a12
    85f0:	03cd           	mov.n	a12, a3
    85f2:	0008e0        	callx8	a8
    85f5:	dfe481        	l32r	a8, 588 (8248 <common_gain_limiter>)
    85f8:	379334        	ae_truncp24a32x2	aep1, a3, a3
    85fb:	0abd           	mov.n	a11, a10
    85fd:	12d2d2        	addmi	a13, a2, 0x1200
    8600:	dea1a1        	l32r	a10, 84 (c500 <wb_sb_ptn>)
    8603:	30cdd2        	addi	a13, a13, 48
    8606:	600d04        	ae_lq32f.i	aeq0, a13, 0
    8609:	d4e629d4ce 	{ l16si	a12, a4, 0x13a; ae_mulfq32sp16s.l	aeq0, aeq0, aep1 }
    860e:	089aa2        	l16si	a10, a10, 16
    8611:	368304        	ae_trunca32q48	a3, aeq0
    8614:	0061d2        	s32i	a13, a1, 0
    8617:	c0aac0        	sub	a10, a10, a12
    861a:	20c330        	or	a12, a3, a3
    861d:	0008e0        	callx8	a8
    8620:	dfda81        	l32r	a8, 588 (8248 <common_gain_limiter>)
    8623:	01b8           	l32i.n	a11, a1, 0
    8625:	de9791        	l32r	a9, 84 (c500 <wb_sb_ptn>)
    8628:	37a334        	ae_truncp24a32x2	aep2, a3, a3
    862b:	503b04        	ae_lp24f.i	aep3, a11, 0
    862e:	012b74        	ae_mulfp24s.ll	aeq1, aep2, aep3
    8631:	089992        	l16si	a9, a9, 16
    8634:	369304        	ae_trunca32q48	a3, aeq1
    8637:	0abd           	mov.n	a11, a10
    8639:	c0a590        	sub	a10, a5, a9
    863c:	03cd           	mov.n	a12, a3
    863e:	0008e0        	callx8	a8
    8641:	2188           	l32i.n	a8, a1, 8
    8643:	7198           	l32i.n	a9, a1, 28
    8645:	000546        	j	865e <NR_WienerFilter+0x1ae>

00008648 <NR_WienerFilter+0x198>:
    8648:	05ad           	mov.n	a10, a5
    864a:	119232        	l16si	a3, a2, 34
    864d:	06bd           	mov.n	a11, a6
    864f:	dfce81        	l32r	a8, 588 (8248 <common_gain_limiter>)
    8652:	113300        	slli	a3, a3, 16
    8655:	03cd           	mov.n	a12, a3
    8657:	0008e0        	callx8	a8
    865a:	2188           	l32i.n	a8, a1, 8
    865c:	7198           	l32i.n	a9, a1, 28

0000865e <NR_WienerFilter+0x1ae>:
    865e:	02a8           	l32i.n	a10, a2, 0
    8660:	4d24b2        	l32i	a11, a4, 0x134
    8663:	404804        	ae_lp16f.i	aep4, a8, 0
    8666:	368b34        	ae_cvtq48a32s	aeq2, a11
    8669:	d7f213899f 	{ or	a8, a9, a9; ae_mulfq32sp16s.l	aeq2, aeq2, aep4 }
    866e:	06bd           	mov.n	a11, a6
    8670:	f8f78fcaae 	{ addi	a10, a10, -4; ae_roundsp24q48sym	aep0, aeq2 }
    8675:	528a14        	ae_sp24f.l.iu	aep0, a10, 4
    8678:	528a14        	ae_sp24f.l.iu	aep0, a10, 4
    867b:	528a14        	ae_sp24f.l.iu	aep0, a10, 4
    867e:	500604        	ae_lp24f.i	aep0, a6, 0
    8681:	0fb516        	beqz	a5, 8780 <NR_WienerFilter+0x2d0>
    8684:	605814        	ae_lq32f.iu	aeq1, a8, 4
    8687:	080d64        	ae_mulfq32sp24s.l	aeq1, aeq1, aep0
    868a:	f8e14000cf 	{ movi	a12, 0; ae_mulrfq32sp24s.l	aeq1, aeq1, aep0 }
    868f:	950b           	addi.n	a9, a5, -1
    8691:	621604        	ae_sq32f.i	aeq1, a6, 0
    8694:	528a14        	ae_sp24f.l.iu	aep0, a10, 4
    8697:	508b14        	ae_lp24f.iu	aep0, a11, 4
    869a:	0bed           	mov.n	a14, a11
    869c:	0abd           	mov.n	a11, a10
    869e:	169976        	loopnez	a9, 86b8 <NR_WienerFilter+0x208>
    86a1:	601814        	ae_lq32f.iu	aeq0, a8, 4
    86a4:	f8803f19ef 	{ ae_trunca32q48	a9, aeq1; ae_mulfq32sp24s.l	aeq0, aeq0, aep0 }
    86a9:	080d14        	ae_mulrfq32sp24s.l	aeq1, aeq0, aep0
    86ac:	53cc90        	max	a12, a12, a9
    86af:	621e04        	ae_sq32f.i	aeq1, a14, 0
    86b2:	528b14        	ae_sp24f.l.iu	aep0, a11, 4
    86b5:	508e14        	ae_lp24f.iu	aep0, a14, 4

000086b8 <NR_WienerFilter+0x208>:
    86b8:	369804        	ae_trunca32q48	a8, aeq1
    86bb:	0bad           	mov.n	a10, a11
    86bd:	538c80        	max	a8, a12, a8

000086c0 <NR_WienerFilter+0x210>:
    86c0:	3198           	l32i.n	a9, a1, 12
    86c2:	378334        	ae_truncp24a32x2	aep0, a3, a3
    86c5:	fb0c           	movi.n	a11, 15
    86c7:	990b           	addi.n	a9, a9, -1
    86c9:	093916        	beqz	a9, 8760 <NR_WienerFilter+0x2b0>

000086cc <NR_WienerFilter+0x21c>:
    86cc:	3402d2        	l8ui	a13, a2, 52
    86cf:	590c           	movi.n	a9, 5
    86d1:	7c0c           	movi.n	a12, 7
    86d3:	62ccd0        	saltu	a12, a12, a13
    86d6:	939bc0        	movnez	a9, a11, a12
    86d9:	02a976        	loopgtz	a9, 86df <NR_WienerFilter+0x22f>
    86dc:	528a14        	ae_sp24f.l.iu	aep0, a10, 4

000086df <NR_WienerFilter+0x22f>:
    86df:	0268           	l32i.n	a6, a2, 0
    86e1:	6188           	l32i.n	a8, a1, 24
    86e3:	61f8           	l32i.n	a15, a1, 24
    86e5:	06ed           	mov.n	a14, a6
    86e7:	04d652        	addmi	a5, a6, 0x400
    86ea:	ff0b           	addi.n	a15, a15, -1
    86ec:	095f16        	beqz	a15, 8785 <NR_WienerFilter+0x2d5>
    86ef:	fec882        	addi	a8, a8, -2
    86f2:	0bc816        	beqz	a8, 87b2 <NR_WienerFilter+0x302>
    86f5:	6198           	l32i.n	a9, a1, 24
    86f7:	fdc992        	addi	a9, a9, -3
    86fa:	0de916        	beqz	a9, 87dc <NR_WienerFilter+0x32c>

000086fd <NR_WienerFilter+0x24d>:
    86fd:	00a1b2        	movi	a11, 0x100
    8700:	80a0c2        	movi	a12, 128
    8703:	3402f2        	l8ui	a15, a2, 52
    8706:	7d0c           	movi.n	a13, 7
    8708:	fccea2        	addi	a10, a14, -4
    870b:	442492        	l32i	a9, a4, 0x110
    870e:	0ed282        	addmi	a8, a2, 0xe00
    8711:	409884        	ae_lp16f.iu	aep1, a8, -16
    8714:	5c2904        	ae_lp24x2f.i	aep2, a9, 0
    8717:	eb28ae8a1f 	{ ae_lp24f.iu	aep0, a10, 4; ae_mulfp24s.hl	aeq2, aep2, aep1 }
    871c:	62ddf0        	saltu	a13, a13, a15
    871f:	93cbd0        	movnez	a12, a11, a13
    8722:	361ca6        	blti	a12, 1, 875c <NR_WienerFilter+0x2ac>
    8725:	bc0b           	addi.n	a11, a12, -1
    8727:	fbe02fd91f 	{ ae_lp24x2f.iu	aep5, a9, 8; ae_mulrfq32sp24s.l	aeq2, aeq2, aep0 }
    872c:	ea29eeaa1f 	{ ae_lp24f.iu	aep2, a10, 4; ae_mulfp24s.ll	aeq1, aep2, aep1 }
    8731:	409814        	ae_lp16f.iu	aep1, a8, 2
    8734:	f8e179a9ef 	{ ae_sq32f.i	aeq2, a9, -8; ae_mulrfq32sp24s.l	aeq1, aeq1, aep0 }
    8739:	f03d           	nop.n
    873b:	f03d           	nop.n
    873d:	16ab76        	loopgtz	a11, 8757 <NR_WienerFilter+0x2a7>
    8740:	ea34b999ff 	{ ae_sq32f.i	aeq1, a9, -4; ae_mulfp24s.hl	aeq0, aep5, aep1 }
    8745:	ea35ec981f 	{ ae_lp16f.iu	aep1, a8, 2; ae_mulfp24s.ll	aeq1, aep5, aep1 }
    874a:	f8e82fd91f 	{ ae_lp24x2f.iu	aep5, a9, 8; ae_mulrfq32sp24s.l	aeq0, aeq0, aep2 }
    874f:	f8e96eaa1f 	{ ae_lp24f.iu	aep2, a10, 4; ae_mulrfq32sp24s.l	aeq1, aeq1, aep2 }
    8754:	6209e4        	ae_sq32f.i	aeq0, a9, -8

00008757 <NR_WienerFilter+0x2a7>:
    8757:	6219f4        	ae_sq32f.i	aeq1, a9, -4
    875a:	f01d           	retw.n

0000875c <NR_WienerFilter+0x2ac>:
    875c:	f01d           	retw.n

0000875e <NR_WienerFilter+0x2ae>:
	...

00008760 <NR_WienerFilter+0x2b0>:
    8760:	819792        	l16si	a9, a7, 0x102
    8763:	40e880        	nsa	a8, a8
    8766:	c09980        	sub	a9, a9, a8
    8769:	815792        	s16i	a9, a7, 0x102
    876c:	f5c516        	beqz	a5, 86cc <NR_WienerFilter+0x21c>
    876f:	401800        	ssl	a8
    8772:	079576        	loopnez	a5, 877d <NR_WienerFilter+0x2cd>
    8775:	0698           	l32i.n	a9, a6, 0
    8777:	a19900        	sll	a9, a9
    877a:	09e694        	ae_s32ip	a9, a6, 4

0000877d <NR_WienerFilter+0x2cd>:
    877d:	ffd2c6        	j	86cc <NR_WienerFilter+0x21c>

00008780 <NR_WienerFilter+0x2d0>:
    8780:	080c           	movi.n	a8, 0
    8782:	ffce86        	j	86c0 <NR_WienerFilter+0x210>

00008785 <NR_WienerFilter+0x2d5>:
    8785:	4b24a2        	l32i	a10, a4, 0x12c
    8788:	4924b2        	l32i	a11, a4, 0x124
    878b:	06cd           	mov.n	a12, a6
    878d:	df7f81        	l32r	a8, 58c (8264 <Mel_filter>)
    8790:	05dd           	mov.n	a13, a5
    8792:	42a0e2        	movi	a14, 66
    8795:	0008e0        	callx8	a8
    8798:	06ed           	mov.n	a14, a6
    879a:	05dd           	mov.n	a13, a5
    879c:	4a24a2        	l32i	a10, a4, 0x128
    879f:	4924b2        	l32i	a11, a4, 0x124
    87a2:	df7b81        	l32r	a8, 590 (8360 <Mel_filter_inv>)
    87a5:	4824c2        	l32i	a12, a4, 0x120
    87a8:	1f4c           	movi.n	a15, 65
    87aa:	0008e0        	callx8	a8

000087ad <NR_WienerFilter+0x2fd>:
    87ad:	02e8           	l32i.n	a14, a2, 0
    87af:	ffd286        	j	86fd <NR_WienerFilter+0x24d>

000087b2 <NR_WienerFilter+0x302>:
    87b2:	4b24a2        	l32i	a10, a4, 0x12c
    87b5:	4924b2        	l32i	a11, a4, 0x124
    87b8:	06cd           	mov.n	a12, a6
    87ba:	df7481        	l32r	a8, 58c (8264 <Mel_filter>)
    87bd:	05dd           	mov.n	a13, a5
    87bf:	2e2c           	movi.n	a14, 34
    87c1:	0008e0        	callx8	a8
    87c4:	06ed           	mov.n	a14, a6
    87c6:	05dd           	mov.n	a13, a5
    87c8:	4a24a2        	l32i	a10, a4, 0x128
    87cb:	4924b2        	l32i	a11, a4, 0x124
    87ce:	df7081        	l32r	a8, 590 (8360 <Mel_filter_inv>)
    87d1:	4824c2        	l32i	a12, a4, 0x120
    87d4:	1f2c           	movi.n	a15, 33
    87d6:	0008e0        	callx8	a8
    87d9:	fff406        	j	87ad <NR_WienerFilter+0x2fd>

000087dc <NR_WienerFilter+0x32c>:
    87dc:	4b24a2        	l32i	a10, a4, 0x12c
    87df:	4924b2        	l32i	a11, a4, 0x124
    87e2:	06cd           	mov.n	a12, a6
    87e4:	df6a81        	l32r	a8, 58c (8264 <Mel_filter>)
    87e7:	05dd           	mov.n	a13, a5
    87e9:	2e1c           	movi.n	a14, 18
    87eb:	0008e0        	callx8	a8
    87ee:	06ed           	mov.n	a14, a6
    87f0:	05dd           	mov.n	a13, a5
    87f2:	4a24a2        	l32i	a10, a4, 0x128
    87f5:	4924b2        	l32i	a11, a4, 0x124
    87f8:	df6681        	l32r	a8, 590 (8360 <Mel_filter_inv>)
    87fb:	4824c2        	l32i	a12, a4, 0x120
    87fe:	1f1c           	movi.n	a15, 17
    8800:	0008e0        	callx8	a8
    8803:	ffe986        	j	87ad <NR_WienerFilter+0x2fd>

00008806 <NR_WienerFilter+0x356>:
	...

00008808 <ifft_wo>:
    8808:	00a136        	entry	a1, 80
    880b:	026d           	mov.n	a6, a2
    880d:	7139           	s32i.n	a3, a1, 28
    880f:	340252        	l8ui	a5, a2, 52
    8812:	df4ff1        	l32r	a15, 550 (c1e0 <NR_immediate_num>)
    8815:	0278           	l32i.n	a7, a2, 0
    8817:	10d2c2        	addmi	a12, a2, 0x1000
    881a:	9149           	s32i.n	a4, a1, 36
    881c:	91e8           	l32i.n	a14, a1, 36
    881e:	18ccd2        	addi	a13, a12, 24
    8821:	51d9           	s32i.n	a13, a1, 20
    8823:	842cc2        	l32i	a12, a12, 0x210
    8826:	0d0c           	movi.n	a13, 0
    8828:	07d9           	s32i.n	a13, a7, 0
    882a:	17d9           	s32i.n	a13, a7, 4
    882c:	5c1c04        	ae_lp24x2f.i	aep1, a12, 0
    882f:	444f04        	ae_lp16x2f.i	aep4, a15, 0
    8832:	445f14        	ae_lp16x2f.i	aep5, a15, 4
    8835:	1385b6        	bltui	a5, 8, 884c <ifft_wo+0x44>
    8838:	00a232        	movi	a3, 0x200
    883b:	120c           	movi.n	a2, 1
    883d:	df0f91        	l32r	a9, 47c (bb32 <fftorder_512_12b+0x2>)
    8840:	f0a052        	movi	a5, 240
    8843:	980c           	movi.n	a8, 9
    8845:	6189           	s32i.n	a8, a1, 24
    8847:	8159           	s32i.n	a5, a1, 32
    8849:	000406        	j	885d <ifft_wo+0x55>

0000884c <ifft_wo+0x44>:
    884c:	00a132        	movi	a3, 0x100
    884f:	220c           	movi.n	a2, 2
    8851:	df4391        	l32r	a9, 560 (bb34 <fftorder_512_12b+0x4>)
    8854:	78a0a2        	movi	a10, 120
    8857:	8b0c           	movi.n	a11, 8
    8859:	61b9           	s32i.n	a11, a1, 24
    885b:	81a9           	s32i.n	a10, a1, 32

0000885d <ifft_wo+0x55>:
    885d:	1696a2        	l16si	a10, a6, 44
    8860:	440e04        	ae_lp16x2f.i	aep0, a14, 0
    8863:	0ebd           	mov.n	a11, a14
    8865:	2ada96        	bltz	a10, 8b16 <ifft_wo+0x30e>
    8868:	0316d4        	wur.ae_sar	a13
    886b:	0a4d           	mov.n	a4, a10

0000886d <ifft_wo+0x65>:
    886d:	f8a38013ae 	{ addi	a10, a3, 1; ae_srasp24	aep0, aep0 }
    8872:	b3a330        	movgez	a10, a3, a3
    8875:	21f1a0        	srai	a15, a10, 1
    8878:	021fe6        	bgei	a15, 1, 887e <ifft_wo+0x76>
    887b:	002886        	j	8921 <ifft_wo+0x119>
    887e:	11e2f0        	slli	a14, a2, 1
    8881:	1b6a17        	bbci	a10, 1, 88a0 <ifft_wo+0x98>
    8884:	df05be10df 	{ ae_selp24.hl	aep3, aep1, aep0; ae_selp24.lh	aep6, aep1, aep0 }
    8889:	f0bae0095e 	{ l16si	a5, a9, 0; ae_mulzaafp24s.hh.ll	aeq1, aep6, aep5 }
    888e:	f08e91929f 	{ addx2	a9, a2, a9; ae_mulzaafp24s.hh.ll	aeq0, aep3, aep4 }
    8893:	5c9c14        	ae_lp24x2f.iu	aep1, a12, 8
    8896:	f9462d8b1f 	{ ae_lp16x2f.iu	aep0, a11, 4; ae_truncp24q48x2	aep2, aeq0, aeq1 }
    889b:	f8a3a9275f 	{ ae_sp24x2f.x	aep2, a7, a5; ae_srasp24	aep0, aep0 }

000088a0 <ifft_wo+0x98>:
    88a0:	21a1f0        	srai	a10, a15, 1
    88a3:	07aa16        	beqz	a10, 8921 <ifft_wo+0x119>
    88a6:	29dd           	ae_l16si.n	a13, a9, 0
    88a8:	5c3c14        	ae_lp24x2f.i	aep3, a12, 8
    88ab:	8a0b           	addi.n	a8, a10, -1
    88ad:	df04d059ef 	{ add	a5, a9, a14; ae_selp24.hl	aep7, aep1, aep0 }
    88b2:	f19ebe10af 	{ ae_selp24.lh	aep2, aep1, aep0; ae_mulzaafp24s.hh.ll	aeq2, aep7, aep4 }
    88b7:	f1aaed6b1f 	{ ae_lp16x2f.i	aep6, a11, 4; ae_mulzaafp24s.hh.ll	aeq3, aep2, aep5 }
    88bc:	fbbb93a55f 	{ or	a10, a5, a5; ae_srasp24	aep6, aep6 }
    88c1:	fbd67e369f 	{ ae_selp24.hl	aep2, aep3, aep6; ae_truncp24q48x2	aep7, aeq2, aeq3 }
    88c6:	ddcde977df 	{ ae_sp24x2f.x	aep7, a7, a13; ae_selp24.lh	aep3, aep3, aep6 }
    88cb:	f0aeef8c2f 	{ ae_lp24x2f.iu	aep0, a12, 16; ae_mulzaafp24s.hh.ll	aeq1, aep3, aep5 }
    88d0:	f08aad9b2f 	{ ae_lp16x2f.iu	aep1, a11, 8; ae_mulzaafp24s.hh.ll	aeq0, aep2, aep4 }
    88d5:	f8a7e0059e 	{ l16si	a9, a5, 0; ae_srasp24	aep1, aep1 }
    88da:	0020f0        	nop
    88dd:	36a876        	loopgtz	a8, 8917 <ifft_wo+0x10f>
    88e0:	dd20908aef 	{ add	a8, a10, a14; ae_selp24.hl	aep2, aep0, aep1 }
    88e5:	f94650a8ef 	{ add	a10, a8, a14; ae_truncp24q48x2	aep3, aeq0, aeq1 }
    88ea:	f08ae9379f 	{ ae_sp24x2f.x	aep3, a7, a9; ae_mulzaafp24s.hh.ll	aeq1, aep2, aep4 }
    88ef:	dd21ed2b1f 	{ ae_lp16x2f.i	aep2, a11, 4; ae_selp24.lh	aep3, aep0, aep1 }
    88f4:	f0aea0089e 	{ l16si	a9, a8, 0; ae_mulzaafp24s.hh.ll	aeq0, aep3, aep5 }
    88f9:	f9abef2c1f 	{ ae_lp24x2f.i	aep2, a12, 8; ae_srasp24	aep3, aep2 }
    88fe:	f84a7e232f 	{ ae_selp24.lh	aep0, aep2, aep3; ae_truncp24q48x2	aep1, aeq1, aeq0 }
    8903:	f0a2e9179f 	{ ae_sp24x2f.x	aep1, a7, a9; ae_mulzaafp24s.hh.ll	aeq1, aep0, aep5 }
    8908:	dd68edab2f 	{ ae_lp16x2f.iu	aep2, a11, 8; ae_selp24.hl	aep3, aep2, aep3 }
    890d:	f08ea00a9e 	{ l16si	a9, a10, 0; ae_mulzaafp24s.hh.ll	aeq0, aep3, aep4 }
    8912:	f8abef8c2f 	{ ae_lp24x2f.iu	aep0, a12, 16; ae_srasp24	aep1, aep2 }

00008917 <ifft_wo+0x10f>:
    8917:	095d           	mov.n	a5, a9
    8919:	f946509aef 	{ add	a9, a10, a14; ae_truncp24q48x2	aep3, aeq0, aeq1 }
    891e:	5f3754        	ae_sp24x2f.x	aep3, a7, a5

00008921 <ifft_wo+0x119>:
    8921:	feb86d8bef 	{ ae_lp16x2f.iu	aep0, a11, -8; ae_negsp24s	aep5, aep5 }
    8926:	f8a3af9cef 	{ ae_lp24x2f.iu	aep1, a12, -16; ae_srasp24	aep0, aep0 }
    892b:	022fe6        	bgei	a15, 2, 8931 <ifft_wo+0x129>
    892e:	002786        	j	89d0 <ifft_wo+0x1c8>
    8931:	11e2f0        	slli	a14, a2, 1
    8934:	af0b           	addi.n	a10, a15, -1
    8936:	1b6a07        	bbci	a10, 0, 8955 <ifft_wo+0x14d>
    8939:	df05be10df 	{ ae_selp24.hl	aep3, aep1, aep0; ae_selp24.lh	aep6, aep1, aep0 }
    893e:	f09ae0098e 	{ l16si	a8, a9, 0; ae_mulzaafp24s.hh.ll	aeq1, aep6, aep4 }
    8943:	f0ae91929f 	{ addx2	a9, a2, a9; ae_mulzaafp24s.hh.ll	aeq0, aep3, aep5 }
    8948:	5c9cf4        	ae_lp24x2f.iu	aep1, a12, -8
    894b:	f9462d8bff 	{ ae_lp16x2f.iu	aep0, a11, -4; ae_truncp24q48x2	aep2, aeq0, aeq1 }
    8950:	f8a3a9278f 	{ ae_sp24x2f.x	aep2, a7, a8; ae_srasp24	aep0, aep0 }

00008955 <ifft_wo+0x14d>:
    8955:	21a1a0        	srai	a10, a10, 1
    8958:	074a16        	beqz	a10, 89d0 <ifft_wo+0x1c8>
    895b:	dd059059ef 	{ add	a5, a9, a14; ae_selp24.lh	aep2, aep1, aep0 }
    8960:	f18afe18df 	{ ae_selp24.hl	aep7, aep1, aep0; ae_mulzaafp24s.hh.ll	aeq3, aep2, aep4 }
    8965:	f1bea0098e 	{ l16si	a8, a9, 0; ae_mulzaafp24s.hh.ll	aeq2, aep7, aep5 }
    896a:	5c3cf4        	ae_lp24x2f.i	aep3, a12, -8
    896d:	fbd66d6bff 	{ ae_lp16x2f.i	aep6, a11, -4; ae_truncp24q48x2	aep7, aeq2, aeq3 }
    8972:	fbbba9778f 	{ ae_sp24x2f.x	aep7, a7, a8; ae_srasp24	aep6, aep6 }
    8977:	ddcca0059e 	{ l16si	a9, a5, 0; ae_selp24.hl	aep2, aep3, aep6 }
    897c:	ddcdef8cef 	{ ae_lp24x2f.iu	aep0, a12, -16; ae_selp24.lh	aep3, aep3, aep6 }
    8981:	f08eed9bef 	{ ae_lp16x2f.iu	aep1, a11, -8; ae_mulzaafp24s.hh.ll	aeq1, aep3, aep4 }
    8986:	f0aa8ffa8e 	{ addi	a8, a10, -1; ae_mulzaafp24s.hh.ll	aeq0, aep2, aep5 }
    898b:	f8a7d3a55f 	{ or	a10, a5, a5; ae_srasp24	aep1, aep1 }
    8990:	36a876        	loopgtz	a8, 89ca <ifft_wo+0x1c2>
    8993:	dd20908aef 	{ add	a8, a10, a14; ae_selp24.hl	aep2, aep0, aep1 }
    8998:	f94650a8ef 	{ add	a10, a8, a14; ae_truncp24q48x2	aep3, aeq0, aeq1 }
    899d:	f0aae9379f 	{ ae_sp24x2f.x	aep3, a7, a9; ae_mulzaafp24s.hh.ll	aeq1, aep2, aep5 }
    89a2:	dd21ed2bff 	{ ae_lp16x2f.i	aep2, a11, -4; ae_selp24.lh	aep3, aep0, aep1 }
    89a7:	f08ea0089e 	{ l16si	a9, a8, 0; ae_mulzaafp24s.hh.ll	aeq0, aep3, aep4 }
    89ac:	f9abef2cff 	{ ae_lp24x2f.i	aep2, a12, -8; ae_srasp24	aep3, aep2 }
    89b1:	f84a7e232f 	{ ae_selp24.lh	aep0, aep2, aep3; ae_truncp24q48x2	aep1, aeq1, aeq0 }
    89b6:	f082e9179f 	{ ae_sp24x2f.x	aep1, a7, a9; ae_mulzaafp24s.hh.ll	aeq1, aep0, aep4 }
    89bb:	dd68edabef 	{ ae_lp16x2f.iu	aep2, a11, -8; ae_selp24.hl	aep3, aep2, aep3 }
    89c0:	f0aea00a9e 	{ l16si	a9, a10, 0; ae_mulzaafp24s.hh.ll	aeq0, aep3, aep5 }
    89c5:	f8abef8cef 	{ ae_lp24x2f.iu	aep0, a12, -16; ae_srasp24	aep1, aep2 }

000089ca <ifft_wo+0x1c2>:
    89ca:	098d34        	ae_truncp24q48x2	aep3, aeq0, aeq1
    89cd:	5f3794        	ae_sp24x2f.x	aep3, a7, a9

000089d0 <ifft_wo+0x1c8>:
    89d0:	07ad           	mov.n	a10, a7
    89d2:	83bd           	ae_sext16	a11, a3
    89d4:	8c0c           	movi.n	a12, 8
    89d6:	deaa81        	l32r	a8, 480 (9488 <sw_fft_32b_2811>)
    89d9:	0d0c           	movi.n	a13, 0
    89db:	01a0e2        	movi	a14, 1
    89de:	0008e0        	callx8	a8
    89e1:	6158           	l32i.n	a5, a1, 24
    89e3:	1696f2        	l16si	a15, a6, 44
    89e6:	81b8           	l32i.n	a11, a1, 32
    89e8:	51c8           	l32i.n	a12, a1, 20
    89ea:	91d8           	l32i.n	a13, a1, 36
    89ec:	604704        	ae_lq32f.i	aeq1, a7, 0
    89ef:	09d692        	addmi	a9, a6, 0x900
    89f2:	2cc992        	addi	a9, a9, 44
    89f5:	601714        	ae_lq32f.iu	aeq0, a7, 4
    89f8:	fecdd2        	addi	a13, a13, -2
    89fb:	812cc2        	l32i	a12, a12, 0x204
    89fe:	c083b0        	sub	a8, a3, a11
    8a01:	c0faf0        	sub	a15, a10, a15
    8a04:	c0ff50        	sub	a15, a15, a5
    8a07:	4189           	s32i.n	a8, a1, 16
    8a09:	9158           	l32i.n	a5, a1, 36
    8a0b:	fecca2        	addi	a10, a12, -2
    8a0e:	9088c0        	addx2	a8, a8, a12
    8a11:	71c8           	l32i.n	a12, a1, 28
    8a13:	ff4b           	addi.n	a15, a15, 4
    8a15:	4f4a           	add.n	a4, a15, a4
    8a17:	feccc2        	addi	a12, a12, -2
    8a1a:	721ba6        	blti	a11, 1, 8a90 <ifft_wo+0x288>
    8a1d:	40a8f4        	ae_lp16f.iu	aep2, a8, -2
    8a20:	630104        	ae_sq56s.i	aeq0, a1, 0
    8a23:	449914        	ae_lp16x2f.iu	aep1, a9, 4
    8a26:	fc24fe9f0f 	{ ae_slaasq56s	aeq0, aeq1, a15; nop }
    8a2b:	618104        	ae_lq56.i	aeq2, a1, 0
    8a2e:	eb44fea48f 	{ ae_slaasq56s	aeq2, aeq2, a4; ae_mulfp24s.hl	aeq3, aep1, aep2 }
    8a33:	fc446c8a1f 	{ ae_lp16f.iu	aep0, a10, 2; ae_roundsq32sym	aeq0, aeq0 }
    8a38:	038814        	ae_mulafq32sp16s.l	aeq3, aeq0, aep0
    8a3b:	011a74        	ae_mulfp24s.ll	aeq1, aep1, aep2
    8a3e:	fbfbcffb2e 	{ addi	a2, a11, -1; ae_roundsp16q48sym	aep7, aeq3 }
    8a43:	ff547d071f 	{ ae_lq32f.i	aeq0, a7, 4; ae_roundsq32sym	aeq3, aeq2 }
    8a48:	fa81fd572f 	{ ae_lq32f.iu	aeq2, a7, 8; ae_mulsfq32sp16s.l	aeq1, aeq3, aep0 }
    8a4d:	632104        	ae_sq56s.i	aeq2, a1, 0
    8a50:	f8ebb2fc1f 	{ ae_sp16f.l.iu	aep7, a12, 2; ae_roundsp16q48sym	aep0, aeq1 }
    8a55:	34a276        	loopgtz	a2, 8a8d <ifft_wo+0x285>
    8a58:	fc24fe8f0f 	{ ae_slaasq56s	aeq0, aeq0, a15; nop }
    8a5d:	428d14        	ae_sp16f.l.iu	aep0, a13, 2
    8a60:	614104        	ae_lq56.i	aeq1, a1, 0
    8a63:	4088f4        	ae_lp16f.iu	aep0, a8, -2
    8a66:	449914        	ae_lp16x2f.iu	aep1, a9, 4
    8a69:	eb04be944f 	{ ae_slaasq56s	aeq1, aeq1, a4; ae_mulfp24s.hl	aeq2, aep1, aep0 }
    8a6e:	ff4c7d372f 	{ ae_lq32f.iu	aeq1, a7, 8; ae_roundsq32sym	aeq3, aeq1 }
    8a73:	fc447a110f 	{ ae_sq56s.i	aeq1, a1, 0; ae_roundsq32sym	aeq0, aeq0 }
    8a78:	ea05ec8a1f 	{ ae_lp16f.iu	aep0, a10, 2; ae_mulfp24s.ll	aeq1, aep1, aep0 }
    8a7d:	f582bd07ff 	{ ae_lq32f.i	aeq0, a7, -4; ae_mulafq32sp16s.l	aeq2, aeq0, aep0 }
    8a82:	030cd4        	ae_mulsfq32sp16s.l	aeq1, aeq3, aep0
    8a85:	1bae04        	ae_roundsp16q48sym	aep0, aeq2
    8a88:	f8ebb28c1f 	{ ae_sp16f.l.iu	aep0, a12, 2; ae_roundsp16q48sym	aep0, aeq1 }

00008a8d <ifft_wo+0x285>:
    8a8d:	428d14        	ae_sp16f.l.iu	aep0, a13, 2

00008a90 <ifft_wo+0x288>:
    8a90:	400504        	ae_lp16f.i	aep0, a5, 0
    8a93:	81c8           	l32i.n	a12, a1, 32
    8a95:	71b8           	l32i.n	a11, a1, 28
    8a97:	089d           	mov.n	a9, a8
    8a99:	41a8           	l32i.n	a10, a1, 16
    8a9b:	058d           	mov.n	a8, a5
    8a9d:	401b04        	ae_lp16f.i	aep1, a11, 0
    8aa0:	a0aa60        	addx4	a10, a10, a6
    8aa3:	11dcf0        	slli	a13, a12, 1
    8aa6:	c0d3d0        	sub	a13, a3, a13
    8aa9:	a0cc60        	addx4	a12, a12, a6
    8aac:	09daa2        	addmi	a10, a10, 0x900
    8aaf:	2ccaa2        	addi	a10, a10, 44
    8ab2:	09dcc2        	addmi	a12, a12, 0x900
    8ab5:	2cccc2        	addi	a12, a12, 44
    8ab8:	23ad76        	loopgtz	a13, 8adf <ifft_wo+0x2d7>
    8abb:	fc0c2c89ff 	{ ae_lp16f.iu	aep0, a9, -2; ae_cvtq48p24s.l	aeq0, aep0 }
    8ac0:	fd2c2d9a1f 	{ ae_lp16x2f.iu	aep1, a10, 4; ae_cvtq48p24s.l	aeq1, aep1 }
    8ac5:	e2076dac1f 	{ ae_lp16x2f.iu	aep2, a12, 4; ae_mulafp24s.hl	aeq1, aep1, aep0 }
    8aca:	e207ac881f 	{ ae_lp16f.iu	aep0, a8, 2; ae_mulafp24s.ll	aeq0, aep1, aep0 }
    8acf:	f9ebec9b1f 	{ ae_lp16f.iu	aep1, a11, 2; ae_roundsp16q48sym	aep3, aeq1 }
    8ad4:	f9e3b32a0f 	{ ae_sp16x2f.i	aep2, a10, 0; ae_roundsp16q48sym	aep2, aeq0 }
    8ad9:	423bf4        	ae_sp16f.l.i	aep3, a11, -2
    8adc:	4228f4        	ae_sp16f.l.i	aep2, a8, -2

00008adf <ifft_wo+0x2d7>:
    8adf:	0fbd           	mov.n	a11, a15
    8ae1:	04ad           	mov.n	a10, a4
    8ae3:	6007f4        	ae_lq32f.i	aeq0, a7, -4
    8ae6:	604704        	ae_lq32f.i	aeq1, a7, 0
    8ae9:	41c8           	l32i.n	a12, a1, 16
    8aeb:	09d692        	addmi	a9, a6, 0x900
    8aee:	2ec992        	addi	a9, a9, 46
    8af1:	f03d           	nop.n
    8af3:	f03d           	nop.n
    8af5:	1bac76        	loopgtz	a12, 8b14 <ifft_wo+0x30c>
    8af8:	fc24fe8b0f 	{ ae_slaasq56s	aeq0, aeq0, a11; nop }
    8afd:	fc24fe9a4f 	{ ae_slaasq56s	aeq1, aeq1, a10; nop }

00008b02 <ifft_wo+0x2fa>:
    8b02:	f8e3bd071f 	{ ae_lq32f.i	aeq0, a7, 4; ae_roundsp16q48sym	aep0, aeq0 }
    8b07:	fe14bd372f 	{ ae_lq32f.iu	aeq1, a7, 8; ae_negq56	aeq2, aeq1 }
    8b0c:	f8f3b2091f 	{ ae_sp16f.l.i	aep0, a9, 2; ae_roundsp16q48sym	aep0, aeq2 }
    8b11:	428924        	ae_sp16f.l.iu	aep0, a9, 4

00008b14 <ifft_wo+0x30c>:
    8b14:	f01d           	retw.n

00008b16 <ifft_wo+0x30e>:
    8b16:	040c           	movi.n	a4, 0
    8b18:	60d0a0        	neg	a13, a10
    8b1b:	0316d4        	wur.ae_sar	a13
    8b1e:	ff52c6        	j	886d <ifft_wo+0x65>

00008b21 <ifft_wo+0x319>:
    8b21:	00000000 36000000                                .......

00008b28 <airoha_divide>:
    8b28:	006136        	entry	a1, 48
    8b2b:	027d           	mov.n	a7, a2
    8b2d:	0d8216        	beqz	a2, 8c09 <airoha_divide+0xe1>
    8b30:	dd57d1        	l32r	a13, 8c (7fffffff <_end+0x7fff355f>)
    8b33:	de9851        	l32r	a5, 594 (80000001 <_end+0x7fff3561>)
    8b36:	0f1316        	beqz	a3, 8c2b <airoha_divide+0x103>
    8b39:	2159           	s32i.n	a5, a1, 8
    8b3b:	602120        	abs	a2, a2
    8b3e:	608130        	abs	a8, a3
    8b41:	086d           	mov.n	a6, a8
    8b43:	029d           	mov.n	a9, a2
    8b45:	0d4296        	bltz	a2, 8c1d <airoha_divide+0xf5>
    8b48:	020c           	movi.n	a2, 0

00008b4a <airoha_divide+0x22>:
    8b4a:	0068d6        	bgez	a8, 8b54 <airoha_divide+0x2c>
    8b4d:	416180        	srli	a6, a8, 1
    8b50:	220b           	addi.n	a2, a2, -1
    8b52:	2159           	s32i.n	a5, a1, 8

00008b54 <airoha_divide+0x2c>:
    8b54:	40e9e0        	nsa	a14, a9
    8b57:	40e6c0        	nsa	a12, a6
    8b5a:	cc1b           	addi.n	a12, a12, 1
    8b5c:	401e00        	ssl	a14
    8b5f:	a19900        	sll	a9, a9
    8b62:	c0ece0        	sub	a14, a12, a14
    8b65:	22ea           	add.n	a2, a2, a14
    8b67:	401c00        	ssl	a12
    8b6a:	a16600        	sll	a6, a6
    8b6d:	96bd           	ae_zext16	a11, a6
    8b6f:	f5c060        	extui	a12, a6, 16, 16
    8b72:	c2f9c0        	quou	a15, a9, a12
    8b75:	0fad           	mov.n	a10, a15
    8b77:	82ecf0        	mull	a14, a12, a15
    8b7a:	82bfb0        	mull	a11, a15, a11
    8b7d:	c0e9e0        	sub	a14, a9, a14
    8b80:	11ee00        	slli	a14, a14, 16
    8b83:	0e8d           	mov.n	a8, a14
    8b85:	17beb7        	bgeu	a14, a11, 8ba0 <airoha_divide+0x78>
    8b88:	af0b           	addi.n	a10, a15, -1
    8b8a:	8e6a           	add.n	a8, a14, a6
    8b8c:	103867        	bltu	a8, a6, 8ba0 <airoha_divide+0x78>
    8b8f:	0538b7        	bltu	a8, a11, 8b98 <airoha_divide+0x70>
    8b92:	000286        	j	8ba0 <airoha_divide+0x78>

00008b95 <airoha_divide+0x6d>:
    8b95:	07b8b7        	bgeu	a8, a11, 8ba0 <airoha_divide+0x78>

00008b98 <airoha_divide+0x70>:
    8b98:	aa0b           	addi.n	a10, a10, -1
    8b9a:	808860        	add	a8, a8, a6
    8b9d:	f4b867        	bgeu	a8, a6, 8b95 <airoha_divide+0x6d>
    8ba0:	c088b0        	sub	a8, a8, a11
    8ba3:	f5e0a0        	extui	a14, a10, 16, 16
    8ba6:	0b0c           	movi.n	a11, 0
    8ba8:	c288c0        	quou	a8, a8, a12
    8bab:	11aa00        	slli	a10, a10, 16
    8bae:	8a8a           	add.n	a8, a10, a8
    8bb0:	62a8a0        	saltu	a10, a8, a10
    8bb3:	aaea           	add.n	a10, a10, a14
    8bb5:	143967        	bltu	a9, a6, 8bcd <airoha_divide+0xa5>
    8bb8:	221b           	addi.n	a2, a2, 1
    8bba:	682b           	addi.n	a6, a8, 2
    8bbc:	404200        	ssai	2
    8bbf:	628680        	saltu	a8, a6, a8
    8bc2:	88aa           	add.n	a8, a8, a10
    8bc4:	816860        	src	a6, a8, a6
    8bc7:	418280        	srli	a8, a8, 2
    8bca:	0003c6        	j	8bdd <airoha_divide+0xb5>

00008bcd <airoha_divide+0xa5>:
    8bcd:	404100        	ssai	1
    8bd0:	681b           	addi.n	a6, a8, 1
    8bd2:	628680        	saltu	a8, a6, a8
    8bd5:	88aa           	add.n	a8, a8, a10
    8bd7:	816860        	src	a6, a8, a6
    8bda:	418180        	srli	a8, a8, 1

00008bdd <airoha_divide+0xb5>:
    8bdd:	dd2ba1        	l32r	a10, 8c (7fffffff <_end+0x7fff355f>)
    8be0:	00a092        	movi	a9, 0
    8be3:	0338b7        	bltu	a8, a11, 8bea <airoha_divide+0xc2>
    8be6:	b8bc           	beqz.n	a8, 8c25 <airoha_divide+0xfd>

00008be8 <airoha_divide+0xc0>:
    8be8:	190c           	movi.n	a9, 1

00008bea <airoha_divide+0xc2>:
    8bea:	398c           	beqz.n	a9, 8bf1 <airoha_divide+0xc9>
    8bec:	ddd161        	l32r	a6, 330 (40000000 <_end+0x3fff3560>)
    8bef:	221b           	addi.n	a2, a2, 1

00008bf1 <airoha_divide+0xc9>:
    8bf1:	60c060        	neg	a12, a6
    8bf4:	1e0c           	movi.n	a14, 1
    8bf6:	305730        	xor	a5, a7, a3
    8bf9:	315f50        	srai	a5, a5, 31
    8bfc:	935e50        	movnez	a5, a14, a5
    8bff:	936c50        	movnez	a6, a12, a5
    8c02:	0cd226        	beqi	a2, 64, 8c12 <airoha_divide+0xea>
    8c05:	063d           	mov.n	a3, a6
    8c07:	f01d           	retw.n

00008c09 <airoha_divide+0xe1>:
    8c09:	c3ac           	beqz.n	a3, 8c39 <airoha_divide+0x111>
    8c0b:	c1af22        	movi	a2, -63
    8c0e:	030c           	movi.n	a3, 0
    8c10:	f01d           	retw.n

00008c12 <airoha_divide+0xea>:
    8c12:	2188           	l32i.n	a8, a1, 8
    8c14:	f23c           	movi.n	a2, 63
    8c16:	93d850        	movnez	a13, a8, a5
    8c19:	0d3d           	mov.n	a3, a13
    8c1b:	f01d           	retw.n

00008c1d <airoha_divide+0xf5>:
    8c1d:	419120        	srli	a9, a2, 1
    8c20:	120c           	movi.n	a2, 1
    8c22:	ffc906        	j	8b4a <airoha_divide+0x22>

00008c25 <airoha_divide+0xfd>:
    8c25:	c1ba67        	bgeu	a10, a6, 8bea <airoha_divide+0xc2>
    8c28:	ffef06        	j	8be8 <airoha_divide+0xc0>

00008c2b <airoha_divide+0x103>:
    8c2b:	090c           	movi.n	a9, 0
    8c2d:	729920        	salt	a9, a9, a2
    8c30:	f23c           	movi.n	a2, 63
    8c32:	935d90        	movnez	a5, a13, a9
    8c35:	053d           	mov.n	a3, a5
    8c37:	f01d           	retw.n

00008c39 <airoha_divide+0x111>:
    8c39:	dd1431        	l32r	a3, 8c (7fffffff <_end+0x7fff355f>)
    8c3c:	020c           	movi.n	a2, 0
    8c3e:	f01d           	retw.n

00008c40 <airoha_divide_limit_1>:
    8c40:	006136        	entry	a1, 48
    8c43:	dd7781        	l32r	a8, 220 (8b28 <airoha_divide>)
    8c46:	03bd           	mov.n	a11, a3
    8c48:	02ad           	mov.n	a10, a2
    8c4a:	0008e0        	callx8	a8
    8c4d:	368b34        	ae_cvtq48a32s	aeq2, a11
    8c50:	fc24feaa4f 	{ ae_slaasq56s	aeq1, aeq2, a10; nop }
    8c55:	061934        	ae_roundsq32asym	aeq0, aeq1
    8c58:	620104        	ae_sq32f.i	aeq0, a1, 0
    8c5b:	0128           	l32i.n	a2, a1, 0
    8c5d:	f01d           	retw.n

00008c5f <airoha_divide_limit_1+0x1f>:
	...

00008c60 <xtensa_fft4_32b>:
    8c60:	006136        	entry	a1, 48
    8c63:	60c274        	ae_lq32f.i	aeq3, a2, 28
    8c66:	608234        	ae_lq32f.i	aeq2, a2, 12
    8c69:	600214        	ae_lq32f.i	aeq0, a2, 4
    8c6c:	f8e23d225f 	{ ae_lq32f.i	aeq1, a2, 20; ae_addq56	aeq0, aeq0, aeq2 }
    8c71:	f9ee3d621f 	{ ae_lq32f.i	aeq3, a2, 4; ae_addq56	aeq1, aeq1, aeq3 }
    8c76:	fa663a310f 	{ ae_sq56s.i	aeq3, a1, 0; ae_addq56	aeq2, aeq0, aeq1 }
    8c7b:	f826fd226f 	{ ae_lq32f.i	aeq1, a2, 24; ae_subq56	aeq0, aeq0, aeq1 }
    8c80:	622214        	ae_sq32f.i	aeq2, a2, 4
    8c83:	60c254        	ae_lq32f.i	aeq3, a2, 20
    8c86:	620254        	ae_sq32f.i	aeq0, a2, 20
    8c89:	608244        	ae_lq32f.i	aeq2, a2, 16
    8c8c:	600224        	ae_lq32f.i	aeq0, a2, 8
    8c8f:	f9ea3d420f 	{ ae_lq32f.i	aeq2, a2, 0; ae_addq56	aeq1, aeq1, aeq2 }
    8c94:	01a8c4        	ae_addq56	aeq2, aeq2, aeq0
    8c97:	0129c4        	ae_addq56	aeq0, aeq2, aeq1
    8c9a:	fa36fd220f 	{ ae_lq32f.i	aeq1, a2, 0; ae_subq56	aeq2, aeq2, aeq1 }
    8c9f:	620204        	ae_sq32f.i	aeq0, a2, 0
    8ca2:	600274        	ae_lq32f.i	aeq0, a2, 28
    8ca5:	fb3afd022f 	{ ae_lq32f.i	aeq0, a2, 8; ae_subq56	aeq3, aeq3, aeq0 }
    8caa:	f92afd024f 	{ ae_lq32f.i	aeq0, a2, 16; ae_subq56	aeq1, aeq1, aeq0 }
    8caf:	faaef9a24f 	{ ae_sq32f.i	aeq2, a2, 16; ae_subq56	aeq2, aeq1, aeq3 }
    8cb4:	f9ee3d626f 	{ ae_lq32f.i	aeq3, a2, 24; ae_addq56	aeq1, aeq1, aeq3 }
    8cb9:	fb3afd023f 	{ ae_lq32f.i	aeq0, a2, 12; ae_subq56	aeq3, aeq3, aeq0 }
    8cbe:	621224        	ae_sq32f.i	aeq1, a2, 8
    8cc1:	614104        	ae_lq56.i	aeq1, a1, 0
    8cc4:	015cc4        	ae_subq56	aeq1, aeq1, aeq0
    8cc7:	f8ee39a26f 	{ ae_sq32f.i	aeq2, a2, 24; ae_addq56	aeq0, aeq1, aeq3 }
    8ccc:	f9aef9823f 	{ ae_sq32f.i	aeq0, a2, 12; ae_subq56	aeq1, aeq1, aeq3 }
    8cd1:	621274        	ae_sq32f.i	aeq1, a2, 28
    8cd4:	f01d           	retw.n

00008cd6 <xtensa_fft4_32b+0x76>:
	...

00008cd8 <xtensa_fft8_32b>:
    8cd8:	010136        	entry	a1, 128
    8cdb:	604244        	ae_lq32f.i	aeq1, a2, 16
    8cde:	600264        	ae_lq32f.i	aeq0, a2, 24
    8ce1:	de2df1        	l32r	a15, 598 (5a82 <beam1_mid_band+0x11a>)
    8ce4:	fa26c781ce 	{ addi	a12, a1, 120; ae_subq56	aeq2, aeq0, aeq1 }
    8ce9:	632154        	ae_sq56s.i	aeq2, a1, 40
    8cec:	f8663d220f 	{ ae_lq32f.i	aeq1, a2, 0; ae_addq56	aeq0, aeq0, aeq1 }
    8cf1:	608224        	ae_lq32f.i	aeq2, a2, 8
    8cf4:	fbaafa0ccf 	{ ae_sq56s.i	aeq0, a12, -32; ae_subq56	aeq3, aeq1, aeq2 }
    8cf9:	f9ea3d425f 	{ ae_lq32f.i	aeq2, a2, 20; ae_addq56	aeq1, aeq1, aeq2 }
    8cfe:	633164        	ae_sq56s.i	aeq3, a1, 48
    8d01:	631c94        	ae_sq56s.i	aeq1, a12, -56
    8d04:	60c274        	ae_lq32f.i	aeq3, a2, 28
    8d07:	f8b6fd221f 	{ ae_lq32f.i	aeq1, a2, 4; ae_subq56	aeq0, aeq2, aeq3 }
    8d0c:	faf63d623f 	{ ae_lq32f.i	aeq3, a2, 12; ae_addq56	aeq2, aeq2, aeq3 }
    8d11:	f8aefa017f 	{ ae_sq56s.i	aeq0, a1, 56; ae_subq56	aeq0, aeq1, aeq3 }
    8d16:	f9ee0202de 	{ addi	a13, a2, 32; ae_addq56	aeq1, aeq1, aeq3 }
    8d1b:	fbaafa0caf 	{ ae_sq56s.i	aeq0, a12, -48; ae_subq56	aeq3, aeq1, aeq2 }
    8d20:	623254        	ae_sq32f.i	aeq3, a2, 20
    8d23:	f9ea3dcc9f 	{ ae_lq56.i	aeq2, a12, -56; ae_addq56	aeq1, aeq1, aeq2 }
    8d28:	61ccc4        	ae_lq56.i	aeq3, a12, -32
    8d2b:	f8f639921f 	{ ae_sq32f.i	aeq1, a2, 4; ae_addq56	aeq0, aeq2, aeq3 }
    8d30:	620204        	ae_sq32f.i	aeq0, a2, 0
    8d33:	fab6fde16f 	{ ae_lq56.i	aeq3, a1, 48; ae_subq56	aeq2, aeq2, aeq3 }
    8d38:	610174        	ae_lq56.i	aeq0, a1, 56
    8d3b:	f93af9a24f 	{ ae_sq32f.i	aeq2, a2, 16; ae_subq56	aeq1, aeq3, aeq0 }
    8d40:	fb7a3d8caf 	{ ae_lq56.i	aeq0, a12, -48; ae_addq56	aeq3, aeq3, aeq0 }
    8d45:	621264        	ae_sq32f.i	aeq1, a2, 24
    8d48:	614154        	ae_lq56.i	aeq1, a1, 40
    8d4b:	fa6639b22f 	{ ae_sq32f.i	aeq3, a2, 8; ae_addq56	aeq2, aeq0, aeq1 }
    8d50:	f826f9a23f 	{ ae_sq32f.i	aeq2, a2, 12; ae_subq56	aeq0, aeq0, aeq1 }
    8d55:	620274        	ae_sq32f.i	aeq0, a2, 28
    8d58:	60cd74        	ae_lq32f.i	aeq3, a13, 28
    8d5b:	604d54        	ae_lq32f.i	aeq1, a13, 20
    8d5e:	faee3d0d3f 	{ ae_lq32f.i	aeq0, a13, 12; ae_addq56	aeq2, aeq1, aeq3 }
    8d63:	622d54        	ae_sq32f.i	aeq2, a13, 20
    8d66:	f9aefd4d1f 	{ ae_lq32f.i	aeq2, a13, 4; ae_subq56	aeq1, aeq1, aeq3 }
    8d6b:	fb72399d7f 	{ ae_sq32f.i	aeq1, a13, 28; ae_addq56	aeq3, aeq2, aeq0 }
    8d70:	623d14        	ae_sq32f.i	aeq3, a13, 4
    8d73:	fa32fd0d2f 	{ ae_lq32f.i	aeq0, a13, 8; ae_subq56	aeq2, aeq2, aeq0 }
    8d78:	60cd04        	ae_lq32f.i	aeq3, a13, 0
    8d7b:	622d34        	ae_sq32f.i	aeq2, a13, 12
    8d7e:	f93afd4d4f 	{ ae_lq32f.i	aeq2, a13, 16; ae_subq56	aeq1, aeq3, aeq0 }
    8d83:	621d24        	ae_sq32f.i	aeq1, a13, 8
    8d86:	fb7a3d0d6f 	{ ae_lq32f.i	aeq0, a13, 24; ae_addq56	aeq3, aeq3, aeq0 }
    8d8b:	f932f9bd0f 	{ ae_sq32f.i	aeq3, a13, 0; ae_subq56	aeq1, aeq2, aeq0 }
    8d90:	621d64        	ae_sq32f.i	aeq1, a13, 24
    8d93:	fa723d2d0f 	{ ae_lq32f.i	aeq1, a13, 0; ae_addq56	aeq2, aeq2, aeq0 }
    8d98:	622d44        	ae_sq32f.i	aeq2, a13, 16
    8d9b:	60cd44        	ae_lq32f.i	aeq3, a13, 16
    8d9e:	011bc4        	ae_addq56	aeq0, aeq1, aeq3
    8da1:	fb3efd420f 	{ ae_lq32f.i	aeq2, a2, 0; ae_subq56	aeq3, aeq3, aeq1 }
    8da6:	633134        	ae_sq56s.i	aeq3, a1, 24
    8da9:	f932fd621f 	{ ae_lq32f.i	aeq3, a2, 4; ae_subq56	aeq1, aeq2, aeq0 }
    8dae:	fa72399d0f 	{ ae_sq32f.i	aeq1, a13, 0; ae_addq56	aeq2, aeq2, aeq0 }
    8db3:	632144        	ae_sq56s.i	aeq2, a1, 32
    8db6:	604d54        	ae_lq32f.i	aeq1, a13, 20
    8db9:	608d14        	ae_lq32f.i	aeq2, a13, 4
    8dbc:	0129c4        	ae_addq56	aeq0, aeq2, aeq1
    8dbf:	01adc4        	ae_subq56	aeq2, aeq2, aeq1
    8dc2:	017cc4        	ae_subq56	aeq1, aeq3, aeq0
    8dc5:	fb7a3d814f 	{ ae_lq56.i	aeq0, a1, 32; ae_addq56	aeq3, aeq3, aeq0 }
    8dca:	621d14        	ae_sq32f.i	aeq1, a13, 4
    8dcd:	623214        	ae_sq32f.i	aeq3, a2, 4
    8dd0:	604244        	ae_lq32f.i	aeq1, a2, 16
    8dd3:	f8ea39820f 	{ ae_sq32f.i	aeq0, a2, 0; ae_addq56	aeq0, aeq1, aeq2 }
    8dd8:	f9aafd625f 	{ ae_lq32f.i	aeq3, a2, 20; ae_subq56	aeq1, aeq1, aeq2 }
    8ddd:	621d44        	ae_sq32f.i	aeq1, a13, 16
    8de0:	614134        	ae_lq56.i	aeq1, a1, 24
    8de3:	01bdc4        	ae_subq56	aeq2, aeq3, aeq1
    8de6:	fb7e39ad5f 	{ ae_sq32f.i	aeq2, a13, 20; ae_addq56	aeq3, aeq3, aeq1 }
    8deb:	623254        	ae_sq32f.i	aeq3, a2, 20
    8dee:	620244        	ae_sq32f.i	aeq0, a2, 16
    8df1:	600d64        	ae_lq32f.i	aeq0, a13, 24
    8df4:	604d74        	ae_lq32f.i	aeq1, a13, 28
    8df7:	0198c4        	ae_addq56	aeq2, aeq1, aeq0
    8dfa:	632cb4        	ae_sq56s.i	aeq2, a12, -40
    8dfd:	f826fd2d2f 	{ ae_lq32f.i	aeq1, a13, 8; ae_subq56	aeq0, aeq0, aeq1 }
    8e02:	608d34        	ae_lq32f.i	aeq2, a13, 12
    8e05:	01edc4        	ae_subq56	aeq3, aeq2, aeq1
    8e08:	f9ea18afff 	{ ae_cvtp24a16x2.ll	aep2, a15, a15; ae_addq56	aeq1, aeq1, aeq2 }
    8e0d:	c1a244        	ae_mulzaafq32sp16s.lh	aeq2, aeq1, aep2, aeq0, aep2
    8e10:	3c48ba312f 	{ ae_sq56s.i	aeq3, a1, 16; ae_mulzasfq32sp16s.lh	aeq0, aeq0, aep2, aeq1, aep2 }
    8e15:	604224        	ae_lq32f.i	aeq1, a2, 8
    8e18:	fbea3a010f 	{ ae_sq56s.i	aeq0, a1, 0; ae_addq56	aeq3, aeq1, aeq2 }
    8e1d:	f9aafd423f 	{ ae_lq32f.i	aeq2, a2, 12; ae_subq56	aeq1, aeq1, aeq2 }
    8e22:	621d24        	ae_sq32f.i	aeq1, a13, 8
    8e25:	610cb4        	ae_lq56.i	aeq0, a12, -40
    8e28:	614124        	ae_lq56.i	aeq1, a1, 16
    8e2b:	0d497a311f 	{ ae_sq56s.i	aeq3, a1, 8; ae_mulzaafq32sp16s.lh	aeq3, aeq1, aep2, aeq0, aep2 }
    8e30:	c52a44        	ae_mulzasfq32sp16s.lh	aeq1, aeq1, aep2, aeq0, aep2
    8e33:	012fc4        	ae_subq56	aeq0, aeq2, aeq3
    8e36:	faf63de11f 	{ ae_lq56.i	aeq3, a1, 8; ae_addq56	aeq2, aeq2, aeq3 }
    8e3b:	620d34        	ae_sq32f.i	aeq0, a13, 12
    8e3e:	622234        	ae_sq32f.i	aeq2, a2, 12
    8e41:	600264        	ae_lq32f.i	aeq0, a2, 24
    8e44:	fb6639b22f 	{ ae_sq32f.i	aeq3, a2, 8; ae_addq56	aeq3, aeq0, aeq1 }
    8e49:	f826fd427f 	{ ae_lq32f.i	aeq2, a2, 28; ae_subq56	aeq0, aeq0, aeq1 }
    8e4e:	620d64        	ae_sq32f.i	aeq0, a13, 24
    8e51:	610104        	ae_lq56.i	aeq0, a1, 0
    8e54:	016cc4        	ae_subq56	aeq1, aeq2, aeq0
    8e57:	621d74        	ae_sq32f.i	aeq1, a13, 28
    8e5a:	fa7239b26f 	{ ae_sq32f.i	aeq3, a2, 24; ae_addq56	aeq2, aeq2, aeq0 }
    8e5f:	622274        	ae_sq32f.i	aeq2, a2, 28
    8e62:	f01d           	retw.n

00008e64 <F_get_oft_32b>:
    8e64:	004136        	entry	a1, 32
    8e67:	fcc242        	addi	a4, a2, -4
    8e6a:	7ca032        	movi	a3, 124
    8e6d:	0c3347        	bltu	a3, a4, 8e7d <F_get_oft_32b+0x19>
    8e70:	ddcb31        	l32r	a3, 59c (bd24 <fftorder_512_12b+0x1f4>)
    8e73:	1122e0        	slli	a2, a2, 2
    8e76:	223a           	add.n	a2, a2, a3
    8e78:	7f2222        	l32i	a2, a2, 0x1fc
    8e7b:	f01d           	retw.n

00008e7d <F_get_oft_32b+0x19>:
    8e7d:	220c           	movi.n	a2, 2
    8e7f:	f01d           	retw.n

00008e81 <F_get_oft_32b+0x1d>:
    8e81:	000000                                        ...

00008e84 <xtensa_fft_pass_32b>:
    8e84:	00a136        	entry	a1, 80
    8e87:	83ad           	ae_sext16	a10, a3
    8e89:	b09320        	addx8	a9, a3, a2
    8e8c:	600204        	ae_lq32f.i	aeq0, a2, 0
    8e8f:	904330        	addx2	a4, a3, a3
    8e92:	1153c0        	slli	a5, a3, 4
    8e95:	606254        	ae_lq32f.x	aeq1, a2, a5
    8e98:	b04420        	addx8	a4, a4, a2
    8e9b:	608404        	ae_lq32f.i	aeq2, a4, 0
    8e9e:	f9ea10825f 	{ add	a8, a2, a5; ae_addq56	aeq1, aeq1, aeq2 }
    8ea3:	fa663d681f 	{ ae_lq32f.i	aeq3, a8, 4; ae_addq56	aeq2, aeq0, aeq1 }
    8ea8:	f826fa211f 	{ ae_sq56s.i	aeq2, a1, 8; ae_subq56	aeq0, aeq0, aeq1 }
    8ead:	630144        	ae_sq56s.i	aeq0, a1, 32
    8eb0:	600414        	ae_lq32f.i	aeq0, a4, 4
    8eb3:	fb7a3d421f 	{ ae_lq32f.i	aeq2, a2, 4; ae_addq56	aeq3, aeq3, aeq0 }
    8eb8:	f9f60fc86e 	{ addi	a6, a8, -4; ae_addq56	aeq1, aeq2, aeq3 }
    8ebd:	fab6fd681f 	{ ae_lq32f.i	aeq3, a8, 4; ae_subq56	aeq2, aeq2, aeq3 }
    8ec2:	631124        	ae_sq56s.i	aeq1, a1, 16
    8ec5:	ddb681        	l32r	a8, 5a0 (8e64 <F_get_oft_32b>)
    8ec8:	fb3afb925f 	{ ae_lq32f.x	aeq0, a2, a5; ae_subq56	aeq3, aeq3, aeq0 }
    8ecd:	614144        	ae_lq56.i	aeq1, a1, 32
    8ed0:	fcc252        	addi	a5, a2, -4
    8ed3:	633134        	ae_sq56s.i	aeq3, a1, 24
    8ed6:	ff4c7d240f 	{ ae_lq32f.i	aeq1, a4, 0; ae_roundsq32sym	aeq3, aeq1 }
    8edb:	f92af9f61f 	{ ae_sq32f.iu	aeq3, a6, 4; ae_subq56	aeq1, aeq1, aeq0 }
    8ee0:	fc547de11f 	{ ae_lq56.i	aeq3, a1, 8; ae_roundsq32sym	aeq0, aeq2 }
    8ee5:	624614        	ae_sq32f.iu	aeq0, a6, 4
    8ee8:	fe5c7d812f 	{ ae_lq56.i	aeq0, a1, 16; ae_roundsq32sym	aeq2, aeq3 }
    8eed:	ff4479e51f 	{ ae_sq32f.iu	aeq2, a5, 4; ae_roundsq32sym	aeq3, aeq0 }
    8ef2:	627514        	ae_sq32f.iu	aeq3, a5, 4
    8ef5:	600914        	ae_lq32f.i	aeq0, a9, 4
    8ef8:	0189c4        	ae_addq56	aeq2, aeq0, aeq1
    8efb:	632104        	ae_sq56s.i	aeq2, a1, 0
    8efe:	f826fda13f 	{ ae_lq56.i	aeq1, a1, 24; ae_subq56	aeq0, aeq0, aeq1 }
    8f03:	608904        	ae_lq32f.i	aeq2, a9, 0
    8f06:	01edc4        	ae_subq56	aeq3, aeq2, aeq1
    8f09:	fa760fc92e 	{ addi	a2, a9, -4; ae_addq56	aeq2, aeq2, aeq1 }
    8f0e:	fd5c4fc44e 	{ addi	a4, a4, -4; ae_roundsq32sym	aeq1, aeq3 }
    8f13:	ff447d810f 	{ ae_lq56.i	aeq0, a1, 0; ae_roundsq32sym	aeq3, aeq0 }
    8f18:	625414        	ae_sq32f.iu	aeq1, a4, 4
    8f1b:	fd5479f41f 	{ ae_sq32f.iu	aeq3, a4, 4; ae_roundsq32sym	aeq1, aeq2 }
    8f20:	ff4479d21f 	{ ae_sq32f.iu	aeq1, a2, 4; ae_roundsq32sym	aeq3, aeq0 }
    8f25:	627214        	ae_sq32f.iu	aeq3, a2, 4
    8f28:	0008e0        	callx8	a8
    8f2b:	21c130        	srai	a12, a3, 1
    8f2e:	dd9d91        	l32r	a9, 5a4 (ba2c <Index_16+0x2c>)
    8f31:	00a082        	movi	a8, 0
    8f34:	11baf0        	slli	a11, a10, 1
    8f37:	809b90        	add	a9, a11, a9
    8f3a:	458984        	ae_lp16x2f.xu	aep0, a9, a8
    8f3d:	88ac76        	loopgtz	a12, 8fc9 <xtensa_fft_pass_32b+0x145>
    8f40:	60c424        	ae_lq32f.i	aeq3, a4, 8
    8f43:	600414        	ae_lq32f.i	aeq0, a4, 4
    8f46:	6002fd462f 	{ ae_lq32f.i	aeq2, a6, 8; ae_mulzasq32sp16u.lh	aeq1, aeq0, aep0, aeq3, aep0 }
    8f4b:	33017d061f 	{ ae_lq32f.i	aeq0, a6, 4; ae_mulzaaq32sp16u.lh	aeq3, aeq3, aep0, aeq0, aep0 }
    8f50:	62007a110f 	{ ae_sq56s.i	aeq1, a1, 0; ae_mulzasq32sp16u.lh	aeq1, aeq2, aep0, aeq0, aep0 }
    8f55:	c20024        	ae_mulzaaq32sp16u.lh	aeq0, aeq0, aep0, aeq2, aep0
    8f58:	019bc4        	ae_addq56	aeq2, aeq1, aeq3
    8f5b:	015fc4        	ae_subq56	aeq1, aeq1, aeq3
    8f5e:	631134        	ae_sq56s.i	aeq1, a1, 24
    8f61:	604524        	ae_lq32f.i	aeq1, a5, 8
    8f64:	01dac4        	ae_addq56	aeq3, aeq1, aeq2
    8f67:	633124        	ae_sq56s.i	aeq3, a1, 16
    8f6a:	f9aafde10f 	{ ae_lq56.i	aeq3, a1, 0; ae_subq56	aeq1, aeq1, aeq2 }
    8f6f:	018bc4        	ae_addq56	aeq2, aeq0, aeq3
    8f72:	fb3afd051f 	{ ae_lq32f.i	aeq0, a5, 4; ae_subq56	aeq3, aeq3, aeq0 }
    8f77:	fbe23a311f 	{ ae_sq56s.i	aeq3, a1, 8; ae_addq56	aeq3, aeq0, aeq2 }
    8f7c:	010ec4        	ae_subq56	aeq0, aeq0, aeq2
    8f7f:	fe445b89bf 	{ ae_lp16x2f.xu	aep0, a9, a11; ae_roundsq32sym	aeq2, aeq0 }
    8f84:	fc4c7da12f 	{ ae_lq56.i	aeq1, a1, 16; ae_roundsq32sym	aeq0, aeq1 }
    8f89:	626614        	ae_sq32f.iu	aeq2, a6, 4
    8f8c:	fe5c79c61f 	{ ae_sq32f.iu	aeq0, a6, 4; ae_roundsq32sym	aeq2, aeq3 }
    8f91:	626514        	ae_sq32f.iu	aeq2, a5, 4
    8f94:	fc4c7dc11f 	{ ae_lq56.i	aeq2, a1, 8; ae_roundsq32sym	aeq0, aeq1 }
    8f99:	624514        	ae_sq32f.iu	aeq0, a5, 4
    8f9c:	604224        	ae_lq32f.i	aeq1, a2, 8
    8f9f:	fbaafd021f 	{ ae_lq32f.i	aeq0, a2, 4; ae_subq56	aeq3, aeq1, aeq2 }
    8fa4:	f9ea3dc13f 	{ ae_lq56.i	aeq2, a1, 24; ae_addq56	aeq1, aeq1, aeq2 }
    8fa9:	fba2fa314f 	{ ae_sq56s.i	aeq3, a1, 32; ae_subq56	aeq3, aeq0, aeq2 }
    8fae:	010ac4        	ae_addq56	aeq0, aeq0, aeq2
    8fb1:	068834        	ae_roundsq32sym	aeq2, aeq0
    8fb4:	fc4c7da14f 	{ ae_lq56.i	aeq1, a1, 32; ae_roundsq32sym	aeq0, aeq1 }
    8fb9:	626214        	ae_sq32f.iu	aeq2, a2, 4
    8fbc:	fe5c79c21f 	{ ae_sq32f.iu	aeq0, a2, 4; ae_roundsq32sym	aeq2, aeq3 }
    8fc1:	fc4c79e41f 	{ ae_sq32f.iu	aeq2, a4, 4; ae_roundsq32sym	aeq0, aeq1 }
    8fc6:	624414        	ae_sq32f.iu	aeq0, a4, 4

00008fc9 <xtensa_fft_pass_32b+0x145>:
    8fc9:	60b0b0        	neg	a11, a11
    8fcc:	dc0b           	addi.n	a13, a12, -1
    8fce:	11eae0        	slli	a14, a10, 2
    8fd1:	60e0e0        	neg	a14, a14
    8fd4:	4589e4        	ae_lp16x2f.xu	aep0, a9, a14
    8fd7:	88ad76        	loopgtz	a13, 9063 <xtensa_fft_pass_32b+0x1df>
    8fda:	608414        	ae_lq32f.i	aeq2, a4, 4
    8fdd:	60c424        	ae_lq32f.i	aeq3, a4, 8
    8fe0:	92033d261f 	{ ae_lq32f.i	aeq1, a6, 4; ae_mulzsaq32sp16u.lh	aeq0, aeq3, aep0, aeq2, aep0 }

00008fe5 <xtensa_fft_pass_32b+0x161>:
    8fe5:	3302bd662f 	{ ae_lq32f.i	aeq3, a6, 8; ae_mulzaaq32sp16u.lh	aeq2, aeq2, aep0, aeq3, aep0 }
    8fea:	9003ba014f 	{ ae_sq56s.i	aeq0, a1, 32; ae_mulzsaq32sp16u.lh	aeq0, aeq1, aep0, aeq3, aep0 }
    8fef:	c288d4        	ae_mulzaaq32sp16u.lh	aeq3, aeq3, aep0, aeq1, aep0
    8ff2:	014ac4        	ae_addq56	aeq1, aeq0, aeq2
    8ff5:	010ec4        	ae_subq56	aeq0, aeq0, aeq2
    8ff8:	630114        	ae_sq56s.i	aeq0, a1, 8
    8ffb:	600524        	ae_lq32f.i	aeq0, a5, 8
    8ffe:	0189c4        	ae_addq56	aeq2, aeq0, aeq1
    9001:	632124        	ae_sq56s.i	aeq2, a1, 16
    9004:	f826fdc14f 	{ ae_lq56.i	aeq2, a1, 32; ae_subq56	aeq0, aeq0, aeq1 }
    9009:	017ac4        	ae_addq56	aeq1, aeq3, aeq2
    900c:	fab6fd651f 	{ ae_lq32f.i	aeq3, a5, 4; ae_subq56	aeq2, aeq2, aeq3 }
    9011:	fa7e3a213f 	{ ae_sq56s.i	aeq2, a1, 24; ae_addq56	aeq2, aeq3, aeq1 }
    9016:	01fdc4        	ae_subq56	aeq3, aeq3, aeq1
    9019:	fd5c5b89bf 	{ ae_lp16x2f.xu	aep0, a9, a11; ae_roundsq32sym	aeq1, aeq3 }
    901e:	ff447d812f 	{ ae_lq56.i	aeq0, a1, 16; ae_roundsq32sym	aeq3, aeq0 }
    9023:	625614        	ae_sq32f.iu	aeq1, a6, 4
    9026:	fd5479f61f 	{ ae_sq32f.iu	aeq3, a6, 4; ae_roundsq32sym	aeq1, aeq2 }
    902b:	625514        	ae_sq32f.iu	aeq1, a5, 4
    902e:	ff447da13f 	{ ae_lq56.i	aeq1, a1, 24; ae_roundsq32sym	aeq3, aeq0 }
    9033:	627514        	ae_sq32f.iu	aeq3, a5, 4
    9036:	600224        	ae_lq32f.i	aeq0, a2, 8
    9039:	fa26fd621f 	{ ae_lq32f.i	aeq3, a2, 4; ae_subq56	aeq2, aeq0, aeq1 }
    903e:	f8663da11f 	{ ae_lq56.i	aeq1, a1, 8; ae_addq56	aeq0, aeq0, aeq1 }
    9043:	fa3efa210f 	{ ae_sq56s.i	aeq2, a1, 0; ae_subq56	aeq2, aeq3, aeq1 }
    9048:	01f9c4        	ae_addq56	aeq3, aeq3, aeq1
    904b:	067834        	ae_roundsq32sym	aeq1, aeq3
    904e:	ff447d810f 	{ ae_lq56.i	aeq0, a1, 0; ae_roundsq32sym	aeq3, aeq0 }
    9053:	625214        	ae_sq32f.iu	aeq1, a2, 4
    9056:	fd5479f21f 	{ ae_sq32f.iu	aeq3, a2, 4; ae_roundsq32sym	aeq1, aeq2 }
    905b:	ff4479d41f 	{ ae_sq32f.iu	aeq1, a4, 4; ae_roundsq32sym	aeq3, aeq0 }
    9060:	627414        	ae_sq32f.iu	aeq3, a4, 4

00009063 <xtensa_fft_pass_32b+0x1df>:
    9063:	f01d           	retw.n

00009065 <xtensa_fft_pass_32b+0x1e1>:
    9065:	000000                                        ...

00009068 <xtensa_fft16_32b>:
    9068:	004136        	entry	a1, 32
    906b:	dd4f81        	l32r	a8, 5a8 (8cd8 <xtensa_fft8_32b>)
    906e:	02ad           	mov.n	a10, a2
    9070:	0008e0        	callx8	a8
    9073:	dd4e81        	l32r	a8, 5ac (8c60 <xtensa_fft4_32b>)
    9076:	40c2a2        	addi	a10, a2, 64
    9079:	0008e0        	callx8	a8
    907c:	dd4c81        	l32r	a8, 5ac (8c60 <xtensa_fft4_32b>)
    907f:	60c2a2        	addi	a10, a2, 96
    9082:	0008e0        	callx8	a8
    9085:	dd4a81        	l32r	a8, 5b0 (8e84 <xtensa_fft_pass_32b>)
    9088:	02ad           	mov.n	a10, a2
    908a:	04a0b2        	movi	a11, 4
    908d:	0008e0        	callx8	a8
    9090:	f01d           	retw.n

00009092 <xtensa_fft16_32b+0x2a>:
	...

00009094 <xtensa_fft32_32b>:
    9094:	004136        	entry	a1, 32
    9097:	dd4781        	l32r	a8, 5b4 (9068 <xtensa_fft16_32b>)
    909a:	20a220        	or	a10, a2, a2
    909d:	0008e0        	callx8	a8
    90a0:	dd4281        	l32r	a8, 5a8 (8cd8 <xtensa_fft8_32b>)
    90a3:	01d2a2        	addmi	a10, a2, 0x100
    90a6:	80caa2        	addi	a10, a10, -128
    90a9:	0008e0        	callx8	a8
    90ac:	dd3f81        	l32r	a8, 5a8 (8cd8 <xtensa_fft8_32b>)
    90af:	01d2a2        	addmi	a10, a2, 0x100
    90b2:	c0caa2        	addi	a10, a10, -64
    90b5:	0008e0        	callx8	a8
    90b8:	dd3e81        	l32r	a8, 5b0 (8e84 <xtensa_fft_pass_32b>)
    90bb:	02ad           	mov.n	a10, a2
    90bd:	8b0c           	movi.n	a11, 8
    90bf:	0008e0        	callx8	a8
    90c2:	f01d           	retw.n

000090c4 <xtensa_fft64_32b>:
    90c4:	004136        	entry	a1, 32
    90c7:	dd3c81        	l32r	a8, 5b8 (9094 <xtensa_fft32_32b>)
    90ca:	20a220        	or	a10, a2, a2
    90cd:	0008e0        	callx8	a8
    90d0:	dd3981        	l32r	a8, 5b4 (9068 <xtensa_fft16_32b>)
    90d3:	01d2a2        	addmi	a10, a2, 0x100
    90d6:	0008e0        	callx8	a8
    90d9:	dd3681        	l32r	a8, 5b4 (9068 <xtensa_fft16_32b>)
    90dc:	02d2a2        	addmi	a10, a2, 0x200
    90df:	80caa2        	addi	a10, a10, -128
    90e2:	0008e0        	callx8	a8
    90e5:	dd3281        	l32r	a8, 5b0 (8e84 <xtensa_fft_pass_32b>)
    90e8:	02ad           	mov.n	a10, a2
    90ea:	10a0b2        	movi	a11, 16
    90ed:	0008e0        	callx8	a8
    90f0:	f01d           	retw.n

000090f2 <xtensa_fft64_32b+0x2e>:
	...

000090f4 <xtensa_fft128_32b>:
    90f4:	004136        	entry	a1, 32
    90f7:	dd3181        	l32r	a8, 5bc (90c4 <xtensa_fft64_32b>)
    90fa:	20a220        	or	a10, a2, a2
    90fd:	0008e0        	callx8	a8
    9100:	dd2e81        	l32r	a8, 5b8 (9094 <xtensa_fft32_32b>)
    9103:	02d2a2        	addmi	a10, a2, 0x200
    9106:	0008e0        	callx8	a8
    9109:	dd2b81        	l32r	a8, 5b8 (9094 <xtensa_fft32_32b>)
    910c:	03d2a2        	addmi	a10, a2, 0x300
    910f:	0008e0        	callx8	a8
    9112:	dd2781        	l32r	a8, 5b0 (8e84 <xtensa_fft_pass_32b>)
    9115:	02ad           	mov.n	a10, a2
    9117:	0b2c           	movi.n	a11, 32
    9119:	0008e0        	callx8	a8
    911c:	f01d           	retw.n

0000911e <xtensa_fft128_32b+0x2a>:
	...

00009120 <xtensa_fft256_32b>:
    9120:	004136        	entry	a1, 32
    9123:	dd2681        	l32r	a8, 5bc (90c4 <xtensa_fft64_32b>)
    9126:	02ad           	mov.n	a10, a2
    9128:	0008e0        	callx8	a8
    912b:	dd2381        	l32r	a8, 5b8 (9094 <xtensa_fft32_32b>)
    912e:	02d2a2        	addmi	a10, a2, 0x200
    9131:	0008e0        	callx8	a8
    9134:	dd2181        	l32r	a8, 5b8 (9094 <xtensa_fft32_32b>)
    9137:	03d2a2        	addmi	a10, a2, 0x300
    913a:	0008e0        	callx8	a8
    913d:	dd1c81        	l32r	a8, 5b0 (8e84 <xtensa_fft_pass_32b>)
    9140:	02ad           	mov.n	a10, a2
    9142:	20a0b2        	movi	a11, 32
    9145:	0008e0        	callx8	a8
    9148:	dd1d81        	l32r	a8, 5bc (90c4 <xtensa_fft64_32b>)
    914b:	04d2a2        	addmi	a10, a2, 0x400
    914e:	0008e0        	callx8	a8
    9151:	dd1a81        	l32r	a8, 5bc (90c4 <xtensa_fft64_32b>)
    9154:	06d2a2        	addmi	a10, a2, 0x600
    9157:	0008e0        	callx8	a8
    915a:	dd1581        	l32r	a8, 5b0 (8e84 <xtensa_fft_pass_32b>)
    915d:	02ad           	mov.n	a10, a2
    915f:	0b4c           	movi.n	a11, 64
    9161:	0008e0        	callx8	a8
    9164:	f01d           	retw.n

00009166 <xtensa_fft256_32b+0x46>:
	...

00009168 <xtensa_fft512_32b>:
    9168:	004136        	entry	a1, 32
    916b:	dd1581        	l32r	a8, 5c0 (9120 <xtensa_fft256_32b>)
    916e:	02ad           	mov.n	a10, a2
    9170:	0008e0        	callx8	a8
    9173:	dd1481        	l32r	a8, 5c4 (90f4 <xtensa_fft128_32b>)
    9176:	08d2a2        	addmi	a10, a2, 0x800
    9179:	0008e0        	callx8	a8
    917c:	dd1281        	l32r	a8, 5c4 (90f4 <xtensa_fft128_32b>)
    917f:	0cd2a2        	addmi	a10, a2, 0xc00
    9182:	0008e0        	callx8	a8
    9185:	dd0a81        	l32r	a8, 5b0 (8e84 <xtensa_fft_pass_32b>)
    9188:	02ad           	mov.n	a10, a2
    918a:	80a0b2        	movi	a11, 128
    918d:	0008e0        	callx8	a8
    9190:	f01d           	retw.n

00009192 <xtensa_fft512_32b+0x2a>:
	...

00009194 <real_split>:
    9194:	00c136        	entry	a1, 96
    9197:	dd0281        	l32r	a8, 5a0 (8e64 <F_get_oft_32b>)
    919a:	03c8           	l32i.n	a12, a3, 0
    919c:	13d8           	l32i.n	a13, a3, 4
    919e:	070c           	movi.n	a7, 0
    91a0:	045d           	mov.n	a5, a4
    91a2:	1479           	s32i.n	a7, a4, 4
    91a4:	214120        	srai	a4, a2, 1
    91a7:	b07450        	addx8	a7, a4, a5
    91aa:	ccda           	add.n	a12, a12, a13
    91ac:	c06240        	sub	a6, a2, a4
    91af:	1194d0        	slli	a9, a4, 3
    91b2:	6199           	s32i.n	a9, a1, 24
    91b4:	5169           	s32i.n	a6, a1, 20
    91b6:	05c9           	s32i.n	a12, a5, 0
    91b8:	b06630        	addx8	a6, a6, a3
    91bb:	06a8           	l32i.n	a10, a6, 0
    91bd:	16b8           	l32i.n	a11, a6, 4
    91bf:	07a9           	s32i.n	a10, a7, 0
    91c1:	82ad           	ae_sext16	a10, a2
    91c3:	bbba           	add.n	a11, a11, a11
    91c5:	60b0b0        	neg	a11, a11
    91c8:	21b1b0        	srai	a11, a11, 1
    91cb:	17b9           	s32i.n	a11, a7, 4
    91cd:	0008e0        	callx8	a8
    91d0:	3169           	s32i.n	a6, a1, 12
    91d2:	2129           	s32i.n	a2, a1, 8
    91d4:	11faf0        	slli	a15, a10, 1
    91d7:	0aed           	mov.n	a14, a10
    91d9:	1139           	s32i.n	a3, a1, 4
    91db:	b38b           	addi.n	a11, a3, 8
    91dd:	81a082        	movi	a8, 129
    91e0:	4179           	s32i.n	a7, a1, 16
    91e2:	c58b           	addi.n	a12, a5, 8
    91e4:	b0d230        	addx8	a13, a2, a3
    91e7:	fccdd2        	addi	a13, a13, -4
    91ea:	050c           	movi.n	a5, 0
    91ec:	dcf771        	l32r	a7, 5c8 (ba30 <ROOTS_512_Q16>)
    91ef:	728280        	salt	a8, a2, a8
    91f2:	130c           	movi.n	a3, 1
    91f4:	93ef80        	movnez	a14, a15, a8
    91f7:	fecea2        	addi	a10, a14, -2
    91fa:	21f1a0        	srai	a15, a10, 1
    91fd:	a0ff70        	addx4	a15, a15, a7
    9200:	441f04        	ae_lp16x2f.i	aep1, a15, 0
    9203:	dc25807d2f 	{ movi	a2, 125; ae_selp24.lh	aep0, aep1, aep1 }
    9208:	07eea6        	blti	a14, 128, 9213 <real_split+0x7f>
    920b:	160c           	movi.n	a6, 1
    920d:	60e0e0        	neg	a14, a14
    9210:	000046        	j	9215 <real_split+0x81>

00009213 <real_split+0x7f>:
    9213:	060c           	movi.n	a6, 0

00009215 <real_split+0x81>:
    9215:	0149           	s32i.n	a4, a1, 0
    9217:	604b04        	ae_lq32f.i	aeq1, a11, 0
    921a:	9b4b           	addi.n	a9, a11, 4
    921c:	600b14        	ae_lq32f.i	aeq0, a11, 4
    921f:	835360        	moveqz	a5, a3, a6
    9222:	bb8b           	addi.n	a11, a11, 8
    9224:	15cc           	bnez.n	a5, 9229 <real_split+0x95>
    9226:	091484        	ae_movp48	aep0, aep1

00009229 <real_split+0x95>:
    9229:	0224e6        	bgei	a4, 2, 922f <real_split+0x9b>
    922c:	0022c6        	j	92bb <real_split+0x127>
    922f:	f8cbb2        	addi	a11, a11, -8
    9232:	f8ccc2        	addi	a12, a12, -8
    9235:	fccdf2        	addi	a15, a13, -4
    9238:	840b           	addi.n	a8, a4, -1
    923a:	dd8b           	addi.n	a13, a13, 8
    923c:	db9741        	l32r	a4, 98 (8000 <NR_vad2+0xe4>)
    923f:	ff8b           	addi.n	a15, a15, 8
    9241:	301444        	ae_cvtp24a16x2.ll	aep1, a4, a4
    9244:	094d           	mov.n	a4, a9
    9246:	63a876        	loopgtz	a8, 92ad <real_split+0x119>
    9249:	630154        	ae_sq56s.i	aeq0, a1, 40
    924c:	91013d7fef 	{ ae_lq32f.iu	aeq3, a15, -8; ae_mulzsaq32sp16u.lh	aeq2, aeq1, aep0, aeq0, aep0 }
    9251:	182790aaef 	{ add	a10, a10, a14; ae_mulzaafq32sp16u.lh	aeq0, aeq1, aep1, aeq3, aep1 }
    9256:	2191a0        	srai	a9, a10, 1
    9259:	f8e23d5def 	{ ae_lq32f.iu	aeq2, a13, -8; ae_addq56	aeq0, aeq0, aeq2 }
    925e:	32037a114f 	{ ae_sq56s.i	aeq1, a1, 32; ae_mulzaaq32sp16u.lh	aeq1, aeq3, aep0, aeq2, aep0 }
    9263:	a09970        	addx4	a9, a9, a7
    9266:	0109c4        	ae_addq56	aeq0, aeq0, aeq1
    9269:	630164        	ae_sq56s.i	aeq0, a1, 48
    926c:	9302fd815f 	{ ae_lq56.i	aeq0, a1, 40; ae_mulzsaq32sp16u.lh	aeq3, aeq2, aep0, aeq3, aep0 }
    9271:	49263da14f 	{ ae_lq56.i	aeq1, a1, 32; ae_mulzasfq32sp16u.lh	aeq2, aeq0, aep1, aeq2, aep1 }
    9276:	c00080018f 	{ movi	a8, 1; ae_mulzssq32sp16u.lh	aeq0, aeq0, aep0, aeq1, aep0 }
    927b:	442904        	ae_lp16x2f.i	aep2, a9, 0
    927e:	fa723d816f 	{ ae_lq56.i	aeq0, a1, 48; ae_addq56	aeq2, aeq2, aeq0 }
    9283:	faf63b001f 	{ ae_sraiq56	aeq0, aeq0, 1; ae_addq56	aeq2, aeq2, aeq3 }
    9288:	ff447b209f 	{ ae_sraiq56	aeq2, aeq2, 1; ae_roundsq32sym	aeq3, aeq0 }
    928d:	fd5479fc2f 	{ ae_sq32f.iu	aeq3, a12, 8; ae_roundsq32sym	aeq1, aeq2 }
    9292:	dc49b99c1f 	{ ae_sq32f.i	aeq1, a12, 4; ae_selp24.lh	aep0, aep2, aep2 }
    9297:	0aa2a7        	bge	a2, a10, 92a5 <real_split+0x111>
    929a:	60e0e0        	neg	a14, a14
    929d:	306630        	xor	a6, a6, a3
    92a0:	050c           	movi.n	a5, 0
    92a2:	835860        	moveqz	a5, a8, a6

000092a5 <real_split+0x111>:
    92a5:	605b24        	ae_lq32f.iu	aeq1, a11, 8
    92a8:	658c           	beqz.n	a5, 92b2 <real_split+0x11e>

000092aa <real_split+0x116>:
    92aa:	601424        	ae_lq32f.iu	aeq0, a4, 8

000092ad <real_split+0x119>:
    92ad:	0148           	l32i.n	a4, a1, 0
    92af:	000206        	j	92bb <real_split+0x127>

000092b2 <real_split+0x11e>:
    92b2:	092484        	ae_movp48	aep0, aep2
    92b5:	fffc46        	j	92aa <real_split+0x116>

000092b8 <real_split+0x124>:
    92b8:	000000                                        ...

000092bb <real_split+0x127>:
    92bb:	31d8           	l32i.n	a13, a1, 12
    92bd:	11c8           	l32i.n	a12, a1, 4
    92bf:	61b8           	l32i.n	a11, a1, 24
    92c1:	60e0e0        	neg	a14, a14
    92c4:	fecea2        	addi	a10, a14, -2
    92c7:	bbca           	add.n	a11, a11, a12
    92c9:	41c8           	l32i.n	a12, a1, 16
    92cb:	fccdd2        	addi	a13, a13, -4
    92ce:	bb8b           	addi.n	a11, a11, 8
    92d0:	cc8b           	addi.n	a12, a12, 8
    92d2:	0deea6        	blti	a14, 128, 92e3 <real_split+0x14f>
    92d5:	60e0e0        	neg	a14, a14
    92d8:	306630        	xor	a6, a6, a3
    92db:	1f0c           	movi.n	a15, 1
    92dd:	00a052        	movi	a5, 0
    92e0:	835f60        	moveqz	a5, a15, a6

000092e3 <real_split+0x14f>:
    92e3:	21f8           	l32i.n	a15, a1, 8
    92e5:	604b04        	ae_lq32f.i	aeq1, a11, 0
    92e8:	600b14        	ae_lq32f.i	aeq0, a11, 4
    92eb:	941b           	addi.n	a9, a4, 1
    92ed:	2181a0        	srai	a8, a10, 1
    92f0:	4b4b           	addi.n	a4, a11, 4
    92f2:	a08870        	addx4	a8, a8, a7
    92f5:	441804        	ae_lp16x2f.i	aep1, a8, 0
    92f8:	dc25808bbe 	{ addi	a11, a11, 8; ae_selp24.lh	aep0, aep1, aep1 }
    92fd:	08f516        	beqz	a5, 9390 <real_split+0x1fc>

00009300 <real_split+0x16c>:
    9300:	0229f7        	blt	a9, a15, 9306 <real_split+0x172>
    9303:	0023c6        	j	9396 <real_split+0x202>
    9306:	f8cbb2        	addi	a11, a11, -8
    9309:	f8ccc2        	addi	a12, a12, -8
    930c:	5188           	l32i.n	a8, a1, 20
    930e:	fccdf2        	addi	a15, a13, -4
    9311:	db6191        	l32r	a9, 98 (8000 <NR_vad2+0xe4>)
    9314:	301994        	ae_cvtp24a16x2.ll	aep1, a9, a9
    9317:	dd8b           	addi.n	a13, a13, 8
    9319:	ff8b           	addi.n	a15, a15, 8
    931b:	880b           	addi.n	a8, a8, -1
    931d:	63a876        	loopgtz	a8, 9384 <real_split+0x1f0>
    9320:	630154        	ae_sq56s.i	aeq0, a1, 40
    9323:	c1013d7fef 	{ ae_lq32f.iu	aeq3, a15, -8; ae_mulzssq32sp16u.lh	aeq2, aeq1, aep0, aeq0, aep0 }
    9328:	182790aaef 	{ add	a10, a10, a14; ae_mulzaafq32sp16u.lh	aeq0, aeq1, aep1, aeq3, aep1 }
    932d:	2191a0        	srai	a9, a10, 1
    9330:	f8e23d5def 	{ ae_lq32f.iu	aeq2, a13, -8; ae_addq56	aeq0, aeq0, aeq2 }
    9335:	63033a217f 	{ ae_sq56s.i	aeq2, a1, 56; ae_mulzasq32sp16u.lh	aeq2, aeq3, aep0, aeq2, aep0 }
    933a:	a09970        	addx4	a9, a9, a7
    933d:	f8e23dc17f 	{ ae_lq56.i	aeq2, a1, 56; ae_addq56	aeq0, aeq0, aeq2 }
    9342:	630164        	ae_sq56s.i	aeq0, a1, 48
    9345:	c302fd815f 	{ ae_lq56.i	aeq0, a1, 40; ae_mulzssq32sp16u.lh	aeq3, aeq2, aep0, aeq3, aep0 }
    934a:	c79124        	ae_mulzasfq32sp16u.lh	aeq2, aeq0, aep1, aeq2, aep1
    934d:	900080018f 	{ movi	a8, 1; ae_mulzsaq32sp16u.lh	aeq0, aeq0, aep0, aeq1, aep0 }
    9352:	442904        	ae_lp16x2f.i	aep2, a9, 0
    9355:	fa723d816f 	{ ae_lq56.i	aeq0, a1, 48; ae_addq56	aeq2, aeq2, aeq0 }
    935a:	faf63b001f 	{ ae_sraiq56	aeq0, aeq0, 1; ae_addq56	aeq2, aeq2, aeq3 }
    935f:	ff447b209f 	{ ae_sraiq56	aeq2, aeq2, 1; ae_roundsq32sym	aeq3, aeq0 }
    9364:	fc5479fc2f 	{ ae_sq32f.iu	aeq3, a12, 8; ae_roundsq32sym	aeq0, aeq2 }
    9369:	dc49b98c1f 	{ ae_sq32f.i	aeq0, a12, 4; ae_selp24.lh	aep0, aep2, aep2 }
    936e:	0aa2a7        	bge	a2, a10, 937c <real_split+0x1e8>
    9371:	60e0e0        	neg	a14, a14
    9374:	306630        	xor	a6, a6, a3
    9377:	050c           	movi.n	a5, 0
    9379:	835860        	moveqz	a5, a8, a6

0000937c <real_split+0x1e8>:
    937c:	605b24        	ae_lq32f.iu	aeq1, a11, 8
    937f:	558c           	beqz.n	a5, 9388 <real_split+0x1f4>

00009381 <real_split+0x1ed>:
    9381:	601424        	ae_lq32f.iu	aeq0, a4, 8

00009384 <real_split+0x1f0>:
    9384:	f01d           	retw.n

00009386 <real_split+0x1f2>:
	...

00009388 <real_split+0x1f4>:
    9388:	092484        	ae_movp48	aep0, aep2
    938b:	fffc86        	j	9381 <real_split+0x1ed>

0000938e <real_split+0x1fa>:
	...

00009390 <real_split+0x1fc>:
    9390:	091484        	ae_movp48	aep0, aep1
    9393:	ffda46        	j	9300 <real_split+0x16c>

00009396 <real_split+0x202>:
    9396:	f01d           	retw.n

00009398 <xtensa_real_fft_32b>:
    9398:	004136        	entry	a1, 32
    939b:	0b8266        	bnei	a2, 8, 93aa <xtensa_real_fft_32b+0x12>
    939e:	dc8281        	l32r	a8, 5a8 (8cd8 <xtensa_fft8_32b>)
    93a1:	20a330        	or	a10, a3, a3
    93a4:	0020f0        	nop
    93a7:	0008e0        	callx8	a8

000093aa <xtensa_real_fft_32b+0x12>:
    93aa:	07d266        	bnei	a2, 64, 93b5 <xtensa_real_fft_32b+0x1d>
    93ad:	dc8381        	l32r	a8, 5bc (90c4 <xtensa_fft64_32b>)
    93b0:	03ad           	mov.n	a10, a3
    93b2:	0008e0        	callx8	a8

000093b5 <xtensa_real_fft_32b+0x1d>:
    93b5:	07e266        	bnei	a2, 128, 93c0 <xtensa_real_fft_32b+0x28>
    93b8:	dc8381        	l32r	a8, 5c4 (90f4 <xtensa_fft128_32b>)
    93bb:	03ad           	mov.n	a10, a3
    93bd:	0008e0        	callx8	a8

000093c0 <xtensa_real_fft_32b+0x28>:
    93c0:	07f266        	bnei	a2, 0x100, 93cb <xtensa_real_fft_32b+0x33>
    93c3:	dc7f81        	l32r	a8, 5c0 (9120 <xtensa_fft256_32b>)
    93c6:	03ad           	mov.n	a10, a3
    93c8:	0008e0        	callx8	a8

000093cb <xtensa_real_fft_32b+0x33>:
    93cb:	02ad           	mov.n	a10, a2
    93cd:	03bd           	mov.n	a11, a3
    93cf:	1142d0        	slli	a4, a2, 3
    93d2:	dc7e81        	l32r	a8, 5cc (9194 <real_split>)
    93d5:	c04340        	sub	a4, a3, a4
    93d8:	04cd           	mov.n	a12, a4
    93da:	0008e0        	callx8	a8
    93dd:	848b           	addi.n	a8, a4, 8
    93df:	0398           	l32i.n	a9, a3, 0
    93e1:	13a8           	l32i.n	a10, a3, 4
    93e3:	0b0c           	movi.n	a11, 0
    93e5:	11c2c0        	slli	a12, a2, 4
    93e8:	c4ca           	add.n	a12, a4, a12
    93ea:	13b9           	s32i.n	a11, a3, 4
    93ec:	fcccb2        	addi	a11, a12, -4
    93ef:	c099a0        	sub	a9, a9, a10
    93f2:	0399           	s32i.n	a9, a3, 0
    93f4:	4722a6        	blti	a2, 2, 943f <xtensa_real_fft_32b+0xa7>
    93f7:	a20b           	addi.n	a10, a2, -1
    93f9:	2191a0        	srai	a9, a10, 1
    93fc:	156a07        	bbci	a10, 0, 9415 <xtensa_real_fft_32b+0x7d>
    93ff:	10c482        	addi	a8, a4, 16
    9402:	34f8           	l32i.n	a15, a4, 12
    9404:	ffdbe2        	addmi	a14, a11, 0xffffff00
    9407:	24d8           	l32i.n	a13, a4, 8
    9409:	60f0f0        	neg	a15, a15
    940c:	006bf2        	s32i	a15, a11, 0
    940f:	3f6ed2        	s32i	a13, a14, 252
    9412:	f4ccb2        	addi	a11, a12, -12
    9415:	26a976        	loopgtz	a9, 943f <xtensa_real_fft_32b+0xa7>
    9418:	1898           	l32i.n	a9, a8, 4
    941a:	08a8           	l32i.n	a10, a8, 0
    941c:	ffdbc2        	addmi	a12, a11, 0xffffff00
    941f:	f8cbd2        	addi	a13, a11, -8
    9422:	609090        	neg	a9, a9
    9425:	ffdde2        	addmi	a14, a13, 0xffffff00
    9428:	0b99           	s32i.n	a9, a11, 0
    942a:	3f6ca2        	s32i	a10, a12, 252
    942d:	3898           	l32i.n	a9, a8, 12
    942f:	f0cbb2        	addi	a11, a11, -16
    9432:	28a8           	l32i.n	a10, a8, 8
    9434:	609090        	neg	a9, a9
    9437:	10c882        	addi	a8, a8, 16
    943a:	0d99           	s32i.n	a9, a13, 0
    943c:	3f6ea2        	s32i	a10, a14, 252

0000943f <xtensa_real_fft_32b+0xa7>:
    943f:	f01d           	retw.n

00009441 <xtensa_real_fft_32b+0xa9>:
    9441:	000000                                        ...

00009444 <xtensa_comp_fft_32b>:
    9444:	004136        	entry	a1, 32
    9447:	0fb226        	beqi	a2, 16, 945a <xtensa_comp_fft_32b+0x16>
    944a:	17e226        	beqi	a2, 128, 9465 <xtensa_comp_fft_32b+0x21>

0000944d <xtensa_comp_fft_32b+0x9>:
    944d:	1ff226        	beqi	a2, 0x100, 9470 <xtensa_comp_fft_32b+0x2c>

00009450 <xtensa_comp_fft_32b+0xc>:
    9450:	00a282        	movi	a8, 0x200
    9453:	241287        	beq	a2, a8, 947b <xtensa_comp_fft_32b+0x37>
    9456:	f01d           	retw.n

00009458 <xtensa_comp_fft_32b+0x14>:
	...

0000945a <xtensa_comp_fft_32b+0x16>:
    945a:	dc5681        	l32r	a8, 5b4 (9068 <xtensa_fft16_32b>)
    945d:	03ad           	mov.n	a10, a3
    945f:	0008e0        	callx8	a8
    9462:	e7e266        	bnei	a2, 128, 944d <xtensa_comp_fft_32b+0x9>

00009465 <xtensa_comp_fft_32b+0x21>:
    9465:	dc5781        	l32r	a8, 5c4 (90f4 <xtensa_fft128_32b>)
    9468:	03ad           	mov.n	a10, a3
    946a:	0008e0        	callx8	a8
    946d:	dff266        	bnei	a2, 0x100, 9450 <xtensa_comp_fft_32b+0xc>

00009470 <xtensa_comp_fft_32b+0x2c>:
    9470:	dc5481        	l32r	a8, 5c0 (9120 <xtensa_fft256_32b>)
    9473:	03ad           	mov.n	a10, a3
    9475:	0008e0        	callx8	a8
    9478:	fff506        	j	9450 <xtensa_comp_fft_32b+0xc>

0000947b <xtensa_comp_fft_32b+0x37>:
    947b:	dc5581        	l32r	a8, 5d0 (9168 <xtensa_fft512_32b>)
    947e:	03ad           	mov.n	a10, a3
    9480:	0008e0        	callx8	a8
    9483:	f01d           	retw.n

00009485 <xtensa_comp_fft_32b+0x41>:
    9485:	000000                                        ...

00009488 <sw_fft_32b_2811>:
    9488:	006136        	entry	a1, 48
    948b:	ffc682        	addi	a8, a6, -1
    948e:	077816        	beqz	a8, 9509 <sw_fft_32b_2811+0x81>

00009491 <sw_fft_32b_2811+0x9>:
    9491:	090616        	beqz	a6, 9525 <sw_fft_32b_2811+0x9d>

00009494 <sw_fft_32b_2811+0xc>:
    9494:	1173f0        	slli	a7, a3, 1
    9497:	600204        	ae_lq32f.i	aeq0, a2, 0
    949a:	960b           	addi.n	a9, a6, -1
    949c:	0d13a6        	blti	a3, 1, 94ad <sw_fft_32b_2811+0x25>
    949f:	028d           	mov.n	a8, a2
    94a1:	08a776        	loopgtz	a7, 94ad <sw_fft_32b_2811+0x25>
    94a4:	3404b4        	ae_sraaq56	aeq0, aeq0, a4
    94a7:	620804        	ae_sq32f.i	aeq0, a8, 0
    94aa:	601814        	ae_lq32f.iu	aeq0, a8, 4

000094ad <sw_fft_32b_2811+0x25>:
    94ad:	08c916        	beqz	a9, 953d <sw_fft_32b_2811+0xb5>
    94b0:	dc4981        	l32r	a8, 5d4 (9398 <xtensa_real_fft_32b>)
    94b3:	03ad           	mov.n	a10, a3
    94b5:	20b220        	or	a11, a2, a2
    94b8:	0008e0        	callx8	a8
    94bb:	078d           	mov.n	a8, a7
    94bd:	11a3e0        	slli	a10, a3, 2

000094c0 <sw_fft_32b_2811+0x38>:
    94c0:	411566        	bnei	a5, 1, 9505 <sw_fft_32b_2811+0x7d>
    94c3:	11b8e0        	slli	a11, a8, 2
    94c6:	c0b2b0        	sub	a11, a2, a11
    94c9:	600b04        	ae_lq32f.i	aeq0, a11, 0
    94cc:	fe24938bbf 	{ or	a8, a11, a11; ae_zeroq56	aeq2 }
    94d1:	f03d           	nop.n
    94d3:	f03d           	nop.n
    94d5:	07aa76        	loopgtz	a10, 94e0 <sw_fft_32b_2811+0x58>
    94d8:	fd00bd181f 	{ ae_lq32f.iu	aeq0, a8, 4; ae_absq56	aeq1, aeq0 }
    94dd:	019ae4        	ae_orq56	aeq2, aeq2, aeq1

000094e0 <sw_fft_32b_2811+0x58>:
    94e0:	622104        	ae_sq32f.i	aeq2, a1, 0
    94e3:	01e8           	l32i.n	a14, a1, 0
    94e5:	600b04        	ae_lq32f.i	aeq0, a11, 0
    94e8:	090c           	movi.n	a9, 0
    94ea:	40eed0        	nsa	a13, a14
    94ed:	b39de0        	movgez	a9, a13, a14
    94f0:	0aaa76        	loopgtz	a10, 94fe <sw_fft_32b_2811+0x76>
    94f3:	fc24fe890f 	{ ae_slaasq56s	aeq0, aeq0, a9; nop }
    94f8:	620b04        	ae_sq32f.i	aeq0, a11, 0
    94fb:	601b14        	ae_lq32f.iu	aeq0, a11, 4
    94fe:	c02490        	sub	a2, a4, a9
    9501:	822d           	ae_sext16	a2, a2
    9503:	f01d           	retw.n

00009505 <sw_fft_32b_2811+0x7d>:
    9505:	842d           	ae_sext16	a2, a4
    9507:	f01d           	retw.n

00009509 <sw_fft_32b_2811+0x81>:
    9509:	f0c382        	addi	a8, a3, -16
    950c:	f81816        	beqz	a8, 9491 <sw_fft_32b_2811+0x9>
    950f:	80c392        	addi	a9, a3, -128
    9512:	f7b916        	beqz	a9, 9491 <sw_fft_32b_2811+0x9>
    9515:	ffd3a2        	addmi	a10, a3, 0xffffff00
    9518:	f75a16        	beqz	a10, 9491 <sw_fft_32b_2811+0x9>
    951b:	fed3b2        	addmi	a11, a3, 0xfffffe00
    951e:	f6fb16        	beqz	a11, 9491 <sw_fft_32b_2811+0x9>

00009521 <sw_fft_32b_2811+0x99>:
    9521:	126c           	movi.n	a2, -31
    9523:	f01d           	retw.n

00009525 <sw_fft_32b_2811+0x9d>:
    9525:	f8c3c2        	addi	a12, a3, -8
    9528:	f68c16        	beqz	a12, 9494 <sw_fft_32b_2811+0xc>
    952b:	c0c3d2        	addi	a13, a3, -64
    952e:	f62d16        	beqz	a13, 9494 <sw_fft_32b_2811+0xc>
    9531:	80c3e2        	addi	a14, a3, -128
    9534:	f5ce16        	beqz	a14, 9494 <sw_fft_32b_2811+0xc>
    9537:	e6f366        	bnei	a3, 0x100, 9521 <sw_fft_32b_2811+0x99>
    953a:	ffd586        	j	9494 <sw_fft_32b_2811+0xc>

0000953d <sw_fft_32b_2811+0xb5>:
    953d:	dc2681        	l32r	a8, 5d8 (9444 <xtensa_comp_fft_32b>)
    9540:	03ad           	mov.n	a10, a3
    9542:	20b220        	or	a11, a2, a2
    9545:	0008e0        	callx8	a8
    9548:	07ad           	mov.n	a10, a7
    954a:	080c           	movi.n	a8, 0
    954c:	ffdc06        	j	94c0 <sw_fft_32b_2811+0x38>

0000954f <sw_fft_32b_2811+0xc7>:
	...

00009550 <fractional_peak>:
    9550:	004136        	entry	a1, 32
    9553:	2388           	l32i.n	a8, a3, 8
    9555:	0398           	l32i.n	a9, a3, 0
    9557:	1368           	l32i.n	a6, a3, 4
    9559:	66a6a2        	movi	a10, 0x666
    955c:	300aa4        	ae_cvtp24a16x2.ll	aep0, a10, a10
    955f:	c03690        	sub	a3, a6, a9
    9562:	360334        	ae_cvtq48a32s	aeq0, a3
    9565:	d5e215668f 	{ sub	a6, a6, a8; ae_mulfq32sp16s.l	aeq2, aeq0, aep0 }
    956a:	364634        	ae_cvtq48a32s	aeq1, a6
    956d:	09a104        	ae_ltq56s	b0, aeq1, aeq2
    9570:	21b330        	srai	a11, a3, 3
    9573:	551076        	bt	b0, 95cc <fractional_peak+0x7c>
    9576:	5e26b7        	blt	a6, a11, 95d8 <fractional_peak+0x88>
    9579:	21c230        	srai	a12, a3, 2
    957c:	6426c7        	blt	a6, a12, 95e4 <fractional_peak+0x94>
    957f:	dc17d1        	l32r	a13, 5dc (3333 <tx_upsample_by2+0x1f>)
    9582:	301dd4        	ae_cvtp24a16x2.ll	aep1, a13, a13
    9585:	039a14        	ae_mulfq32sp16s.l	aeq3, aeq0, aep1
    9588:	dc16e1        	l32r	a14, 5e0 (599a <beam1_mid_band+0x32>)
    958b:	09b114        	ae_ltq56s	b1, aeq1, aeq3
    958e:	302ee4        	ae_cvtp24a16x2.ll	aep2, a14, a14
    9591:	03a214        	ae_mulfq32sp16s.l	aeq2, aeq0, aep2
    9594:	581176        	bt	b1, 95f0 <fractional_peak+0xa0>
    9597:	09a124        	ae_ltq56s	b2, aeq1, aeq2
    959a:	038a54        	ae_mulfq32sp16s.l	aeq3, aeq1, aep0
    959d:	5b1276        	bt	b2, 95fc <fractional_peak+0xac>
    95a0:	09b034        	ae_ltq56s	b3, aeq0, aeq3
    95a3:	21f360        	srai	a15, a6, 3
    95a6:	5e1376        	bt	b3, 9608 <fractional_peak+0xb8>
    95a9:	6723f7        	blt	a3, a15, 9614 <fractional_peak+0xc4>
    95ac:	039254        	ae_mulfq32sp16s.l	aeq2, aeq1, aep1
    95af:	214260        	srai	a4, a6, 2
    95b2:	7c2347        	blt	a3, a4, 9632 <fractional_peak+0xe2>
    95b5:	d65100323e 	{ addi	a3, a2, 3; ae_ltq56s	b4, aeq0, aeq2 }
    95ba:	d5eb40324e 	{ addi	a4, a2, 3; ae_mulfq32sp16s.l	aeq3, aeq1, aep2 }
    95bf:	014490        	slli	a4, a4, 23
    95c2:	5a0476        	bf	b4, 9620 <fractional_peak+0xd0>
    95c5:	dc0721        	l32r	a2, 5e4 (ffe66666 <_end+0xffe59bc6>)
    95c8:	224a           	add.n	a2, a2, a4
    95ca:	f01d           	retw.n

000095cc <fractional_peak+0x7c>:
    95cc:	423b           	addi.n	a4, a2, 3
    95ce:	dc0621        	l32r	a2, 5e8 (3eb852 <_end+0x3dedb2>)
    95d1:	014490        	slli	a4, a4, 23
    95d4:	224a           	add.n	a2, a2, a4
    95d6:	f01d           	retw.n

000095d8 <fractional_peak+0x88>:
    95d8:	423b           	addi.n	a4, a2, 3
    95da:	dc0421        	l32r	a2, 5ec (333334 <_end+0x326894>)
    95dd:	014490        	slli	a4, a4, 23
    95e0:	224a           	add.n	a2, a2, a4
    95e2:	f01d           	retw.n

000095e4 <fractional_peak+0x94>:
    95e4:	423b           	addi.n	a4, a2, 3
    95e6:	dc0221        	l32r	a2, 5f0 (266667 <_end+0x259bc7>)
    95e9:	014490        	slli	a4, a4, 23
    95ec:	224a           	add.n	a2, a2, a4
    95ee:	f01d           	retw.n

000095f0 <fractional_peak+0xa0>:
    95f0:	423b           	addi.n	a4, a2, 3
    95f2:	dc0021        	l32r	a2, 5f4 (19999a <_end+0x18cefa>)
    95f5:	014490        	slli	a4, a4, 23
    95f8:	224a           	add.n	a2, a2, a4
    95fa:	f01d           	retw.n

000095fc <fractional_peak+0xac>:
    95fc:	423b           	addi.n	a4, a2, 3
    95fe:	dadb21        	l32r	a2, 16c (ccccd <_end+0xc022d>)
    9601:	014490        	slli	a4, a4, 23
    9604:	224a           	add.n	a2, a2, a4
    9606:	f01d           	retw.n

00009608 <fractional_peak+0xb8>:
    9608:	423b           	addi.n	a4, a2, 3
    960a:	dbfb21        	l32r	a2, 5f8 (ffc147ae <_end+0xffc07d0e>)
    960d:	014490        	slli	a4, a4, 23
    9610:	224a           	add.n	a2, a2, a4
    9612:	f01d           	retw.n

00009614 <fractional_peak+0xc4>:
    9614:	423b           	addi.n	a4, a2, 3
    9616:	dbf921        	l32r	a2, 5fc (ffcccccc <_end+0xffcc022c>)
    9619:	014490        	slli	a4, a4, 23
    961c:	224a           	add.n	a2, a2, a4
    961e:	f01d           	retw.n

00009620 <fractional_peak+0xd0>:
    9620:	09b054        	ae_ltq56s	b5, aeq0, aeq3
    9623:	dbf741        	l32r	a4, 600 (fff33333 <_end+0xfff26893>)
    9626:	013390        	slli	a3, a3, 23
    9629:	020c           	movi.n	a2, 0
    962b:	d32450        	movt	a2, a4, b5
    962e:	223a           	add.n	a2, a2, a3
    9630:	f01d           	retw.n

00009632 <fractional_peak+0xe2>:
    9632:	423b           	addi.n	a4, a2, 3
    9634:	dbf421        	l32r	a2, 604 (ffd99999 <_end+0xffd8cef9>)
    9637:	014490        	slli	a4, a4, 23
    963a:	224a           	add.n	a2, a2, a4
    963c:	f01d           	retw.n

0000963e <fractional_peak+0xee>:
	...

00009640 <check_multiples>:
    9640:	004136        	entry	a1, 32
    9643:	dbf3e1        	l32r	a14, 610 (6400000 <_end+0x63f3560>)
    9646:	dbf3d1        	l32r	a13, 614 (16db22c <_end+0x16ce78c>)
    9649:	450c           	movi.n	a5, 4
    964b:	dbefa1        	l32r	a10, 608 (ffe00000 <_end+0xffdf3560>)
    964e:	b23a           	add.n	a11, a2, a3
    9650:	c09230        	sub	a9, a2, a3
    9653:	dbeec1        	l32r	a12, 60c (ffc00000 <_end+0xffbf3560>)
    9656:	130c           	movi.n	a3, 1
    9658:	a2aa           	add.n	a10, a2, a10
    965a:	020c           	movi.n	a2, 0
    965c:	8099c0        	add	a9, a9, a12
    965f:	609190        	abs	a9, a9
    9662:	dbedc1        	l32r	a12, 618 (28f5d <_end+0x1c4bd>)
    9665:	3ea576        	loopgtz	a5, 96a7 <check_multiples+0x67>
    9668:	b2fc           	bnez.n	a2, 96a7 <check_multiples+0x67>
    966a:	826a30        	mull	a6, a10, a3
    966d:	d2f690        	quos	a15, a6, a9
    9670:	827f90        	mull	a7, a15, a9
    9673:	0f8d           	mov.n	a8, a15
    9675:	c06670        	sub	a6, a6, a7
    9678:	067d           	mov.n	a7, a6
    967a:	0416a6        	blti	a6, 1, 9682 <check_multiples+0x42>
    967d:	c07690        	sub	a7, a6, a9
    9680:	8f1b           	addi.n	a8, a15, 1

00009682 <check_multiples+0x42>:
    9682:	583a           	add.n	a5, a8, a3
    9684:	575a           	add.n	a5, a7, a5
    9686:	907830        	addx2	a7, a8, a3
    9689:	331b           	addi.n	a3, a3, 1
    968b:	877d           	ae_sext16	a7, a7
    968d:	60f070        	neg	a15, a7
    9690:	01ffa0        	slli	a15, a15, 22
    9693:	0eaf57        	bge	a15, a5, 96a5 <check_multiples+0x65>
    9696:	d22b70        	quos	a2, a11, a7
    9699:	c06240        	sub	a6, a2, a4
    969c:	606160        	abs	a6, a6
    969f:	072c67        	blt	a12, a6, 96aa <check_multiples+0x6a>
    96a2:	db9c21        	l32r	a2, 514 (ff800000 <_end+0xff7f3560>)

000096a5 <check_multiples+0x65>:
    96a5:	833d           	ae_sext16	a3, a3

000096a7 <check_multiples+0x67>:
    96a7:	f01d           	retw.n

000096a9 <check_multiples+0x69>:
	...

000096aa <check_multiples+0x6a>:
    96aa:	02ad27        	bge	a13, a2, 96b0 <check_multiples+0x70>
    96ad:	f4ae27        	bge	a14, a2, 96a5 <check_multiples+0x65>

000096b0 <check_multiples+0x70>:
    96b0:	020c           	movi.n	a2, 0
    96b2:	fffbc6        	j	96a5 <check_multiples+0x65>

000096b5 <check_multiples+0x75>:
    96b5:	000000                                        ...

000096b8 <harmonic_scan>:
    96b8:	006136        	entry	a1, 48
    96bb:	057d           	mov.n	a7, a5
    96bd:	0213e6        	bgei	a3, 1, 96c3 <harmonic_scan+0xb>
    96c0:	002bc6        	j	9773 <harmonic_scan+0xbb>
    96c3:	dabdb1        	l32r	a11, 1b8 (13ffffff <_end+0x13ff355f>)
    96c6:	050c           	movi.n	a5, 0
    96c8:	0179           	s32i.n	a7, a1, 0
    96ca:	21f140        	srai	a15, a4, 1
    96cd:	0e0c           	movi.n	a14, 0
    96cf:	21e9           	s32i.n	a14, a1, 8
    96d1:	11f9           	s32i.n	a15, a1, 4
    96d3:	0e0c           	movi.n	a14, 0
    96d5:	00a0f2        	movi	a15, 0
    96d8:	46a376        	loopgtz	a3, 9722 <harmonic_scan+0x6a>
    96db:	0238           	l32i.n	a3, a2, 0
    96dd:	1168           	l32i.n	a6, a1, 4
    96df:	224b           	addi.n	a2, a2, 4
    96e1:	d2d340        	quos	a13, a3, a4
    96e4:	82cd40        	mull	a12, a13, a4
    96e7:	4aab37        	bge	a11, a3, 9735 <harmonic_scan+0x7d>
    96ea:	dbc0a1        	l32r	a10, 5ec (333334 <_end+0x326894>)

000096ed <harmonic_scan+0x35>:
    96ed:	0d8d           	mov.n	a8, a13
    96ef:	c0c3c0        	sub	a12, a3, a12
    96f2:	0c9d           	mov.n	a9, a12
    96f4:	04a6c7        	bge	a6, a12, 96fc <harmonic_scan+0x44>
    96f7:	c09c40        	sub	a9, a12, a4
    96fa:	8d1b           	addi.n	a8, a13, 1

000096fc <harmonic_scan+0x44>:
    96fc:	606190        	abs	a6, a9
    96ff:	d8aa           	add.n	a13, a8, a10
    9701:	1b2d67        	blt	a13, a6, 9720 <harmonic_scan+0x68>
    9704:	ff1b           	addi.n	a15, a15, 1
    9706:	217330        	srai	a7, a3, 3
    9709:	2168           	l32i.n	a6, a1, 8
    970b:	585a           	add.n	a5, a8, a5
    970d:	855d           	ae_sext16	a5, a5
    970f:	667a           	add.n	a6, a6, a7
    9711:	dbc271        	l32r	a7, 61c (11000000 <_end+0x10ff3560>)
    9714:	8ffd           	ae_sext16	a15, a15
    9716:	2169           	s32i.n	a6, a1, 8
    9718:	372737        	blt	a7, a3, 9753 <harmonic_scan+0x9b>
    971b:	da6b81        	l32r	a8, c8 (800000 <_end+0x7f3560>)
    971e:	ee8a           	add.n	a14, a14, a8

00009720 <harmonic_scan+0x68>:
    9720:	f03d           	nop.n

00009722 <harmonic_scan+0x6a>:
    9722:	433fa6        	blti	a15, 3, 9769 <harmonic_scan+0xb1>
    9725:	2198           	l32i.n	a9, a1, 8
    9727:	0e2d           	mov.n	a2, a14
    9729:	01a8           	l32i.n	a10, a1, 0
    972b:	d29950        	quos	a9, a9, a5
    972e:	1199d0        	slli	a9, a9, 3
    9731:	0a99           	s32i.n	a9, a10, 0
    9733:	f01d           	retw.n

00009735 <harmonic_scan+0x7d>:
    9735:	dbba81        	l32r	a8, 620 (effffff <_end+0xeff355f>)
    9738:	da75a1        	l32r	a10, 10c (2ccccd <_end+0x2c022d>)
    973b:	02a837        	bge	a8, a3, 9741 <harmonic_scan+0x89>
    973e:	ffeac6        	j	96ed <harmonic_scan+0x35>

00009741 <harmonic_scan+0x89>:
    9741:	dbb8a1        	l32r	a10, 624 (77fffff <_end+0x77f355f>)
    9744:	05aa37        	bge	a10, a3, 974d <harmonic_scan+0x95>
    9747:	dbaaa1        	l32r	a10, 5f0 (266667 <_end+0x259bc7>)
    974a:	ffe7c6        	j	96ed <harmonic_scan+0x35>

0000974d <harmonic_scan+0x95>:
    974d:	dbb6a1        	l32r	a10, 628 (21eb86 <_end+0x2120e6>)
    9750:	ffe646        	j	96ed <harmonic_scan+0x35>

00009753 <harmonic_scan+0x9b>:
    9753:	dbb6c1        	l32r	a12, 62c (15000000 <_end+0x14ff3560>)
    9756:	dbb6d1        	l32r	a13, 630 (666667 <_end+0x659bc7>)
    9759:	da9e61        	l32r	a6, 1d4 (400000 <_end+0x3f3560>)
    975c:	042c37        	blt	a12, a3, 9764 <harmonic_scan+0xac>
    975f:	eeda           	add.n	a14, a14, a13
    9761:	ffeec6        	j	9720 <harmonic_scan+0x68>

00009764 <harmonic_scan+0xac>:
    9764:	ee6a           	add.n	a14, a14, a6
    9766:	ffed86        	j	9720 <harmonic_scan+0x68>

00009769 <harmonic_scan+0xb1>:
    9769:	0198           	l32i.n	a9, a1, 0
    976b:	0e2d           	mov.n	a2, a14
    976d:	080c           	movi.n	a8, 0
    976f:	0989           	s32i.n	a8, a9, 0
    9771:	f01d           	retw.n

00009773 <harmonic_scan+0xbb>:
    9773:	020c           	movi.n	a2, 0
    9775:	0a0c           	movi.n	a10, 0
    9777:	05a9           	s32i.n	a10, a5, 0
    9779:	f01d           	retw.n

0000977b <harmonic_scan+0xc3>:
	...

0000977c <Max5>:
    977c:	004136        	entry	a1, 32
    977f:	024d           	mov.n	a4, a2
    9781:	4438           	l32i.n	a3, a4, 16
    9783:	1478           	l32i.n	a7, a4, 4
    9785:	0228           	l32i.n	a2, a2, 0
    9787:	2468           	l32i.n	a6, a4, 8
    9789:	3458           	l32i.n	a5, a4, 12
    978b:	532270        	max	a2, a2, a7
    978e:	532260        	max	a2, a2, a6
    9791:	532250        	max	a2, a2, a5
    9794:	532230        	max	a2, a2, a3
    9797:	f01d           	retw.n

00009799 <Max5+0x1d>:
    9799:	000000                                        ...

0000979c <Pitch_2Mic>:
    979c:	00c136        	entry	a1, 96
    979f:	030c           	movi.n	a3, 0
    97a1:	05d272        	addmi	a7, a2, 0x500
    97a4:	412762        	l32i	a6, a7, 0x104
    97a7:	402782        	l32i	a8, a7, 0x100
    97aa:	97cb           	addi.n	a9, a7, 12
    97ac:	6199           	s32i.n	a9, a1, 24
    97ae:	b189           	s32i.n	a8, a1, 44
    97b0:	3f2772        	l32i	a7, a7, 252
    97b3:	01d652        	addmi	a5, a6, 0x100
    97b6:	d4c552        	addi	a5, a5, -44
    97b9:	c179           	s32i.n	a7, a1, 48
    97bb:	02d672        	addmi	a7, a6, 0x200
    97be:	a8c772        	addi	a7, a7, -88

000097c1 <Pitch_2Mic+0x25>:
    97c1:	b1a8           	l32i.n	a10, a1, 44
    97c3:	1143e0        	slli	a4, a3, 2
    97c6:	a0a3a0        	addx4	a10, a3, a10
    97c9:	0aa8           	l32i.n	a10, a10, 0
    97cb:	da7381        	l32r	a8, 198 (860 <Log2_norm>)
    97ce:	0892b2        	l16si	a11, a2, 16
    97d1:	40eac0        	nsa	a12, a10
    97d4:	8ccd           	ae_sext16	a12, a12
    97d6:	c0bbc0        	sub	a11, a11, a12
    97d9:	401c00        	ssl	a12
    97dc:	a1aa00        	sll	a10, a10
    97df:	0008e0        	callx8	a8
    97e2:	c1d8           	l32i.n	a13, a1, 48
    97e4:	e46a           	add.n	a14, a4, a6
    97e6:	0ea9           	s32i.n	a10, a14, 0
    97e8:	d4da           	add.n	a13, a4, a13
    97ea:	0da8           	l32i.n	a10, a13, 0
    97ec:	da6b81        	l32r	a8, 198 (860 <Log2_norm>)
    97ef:	0892b2        	l16si	a11, a2, 16
    97f2:	40eac0        	nsa	a12, a10
    97f5:	8ccd           	ae_sext16	a12, a12
    97f7:	c0bbc0        	sub	a11, a11, a12
    97fa:	401c00        	ssl	a12
    97fd:	a1aa00        	sll	a10, a10
    9800:	0008e0        	callx8	a8
    9803:	5e3c           	movi.n	a14, 53
    9805:	331b           	addi.n	a3, a3, 1
    9807:	845a           	add.n	a8, a4, a5
    9809:	08a9           	s32i.n	a10, a8, 0
    980b:	833d           	ae_sext16	a3, a3
    980d:	b093e7        	bne	a3, a14, 97c1 <Pitch_2Mic+0x25>
    9810:	558b           	addi.n	a5, a5, 8
    9812:	230c           	movi.n	a3, 2
    9814:	0c0c           	movi.n	a12, 0
    9816:	468b           	addi.n	a4, a6, 8
    9818:	0d0c           	movi.n	a13, 0
    981a:	0a61d2        	s32i	a13, a1, 40
    981d:	db8561        	l32r	a6, 634 (cb333333 <_end+0xcb326893>)
    9820:	0761c2        	s32i	a12, a1, 28
    9823:	33a0c2        	movi	a12, 51

00009826 <Pitch_2Mic+0x8a>:
    9826:	04e8           	l32i.n	a14, a4, 0
    9828:	68a6e7        	bge	a6, a14, 9894 <Pitch_2Mic+0xf8>
    982b:	db8381        	l32r	a8, 638 (977c <Max5>)
    982e:	f8c4a2        	addi	a10, a4, -8
    9831:	0008e0        	callx8	a8
    9834:	04d8           	l32i.n	a13, a4, 0
    9836:	3c3c           	movi.n	a12, 51
    9838:	589ad7        	bne	a10, a13, 9894 <Pitch_2Mic+0xf8>
    983b:	05a8           	l32i.n	a10, a5, 0
    983d:	db7f91        	l32r	a9, 63c (fb333333 <_end+0xfb326893>)
    9840:	c0ada0        	sub	a10, a13, a10
    9843:	91a9           	s32i.n	a10, a1, 36
    9845:	4ba9a7        	bge	a9, a10, 9894 <Pitch_2Mic+0xf8>
    9848:	db7c81        	l32r	a8, 638 (977c <Max5>)
    984b:	f8c5a2        	addi	a10, a5, -8
    984e:	0008e0        	callx8	a8
    9851:	db7b91        	l32r	a9, 640 (f4000000 <_end+0xf3ff3560>)
    9854:	04d8           	l32i.n	a13, a4, 0
    9856:	3c3c           	movi.n	a12, 51
    9858:	9a9a           	add.n	a9, a10, a9
    985a:	36a9d7        	bge	a9, a13, 9894 <Pitch_2Mic+0xf8>
    985d:	91e8           	l32i.n	a14, a1, 36
    985f:	db79b1        	l32r	a11, 644 (4cccccc <_end+0x4cc022c>)
    9862:	02abe7        	bge	a11, a14, 9868 <Pitch_2Mic+0xcc>
    9865:	2baad7        	bge	a10, a13, 9894 <Pitch_2Mic+0xf8>

00009868 <Pitch_2Mic+0xcc>:
    9868:	fcc4b2        	addi	a11, a4, -4
    986b:	db7781        	l32r	a8, 648 (9550 <fractional_peak>)
    986e:	a31b           	addi.n	a10, a3, 1
    9870:	8aad           	ae_sext16	a10, a10
    9872:	0008e0        	callx8	a8
    9875:	3c3c           	movi.n	a12, 51
    9877:	71b8           	l32i.n	a11, a1, 28
    9879:	a1d8           	l32i.n	a13, a1, 40
    987b:	682c           	movi.n	a8, 38
    987d:	728380        	salt	a8, a3, a8
    9880:	ed1b           	addi.n	a14, a13, 1
    9882:	fb1b           	addi.n	a15, a11, 1
    9884:	a09d70        	addx4	a9, a13, a7
    9887:	09a9           	s32i.n	a10, a9, 0
    9889:	93bf80        	movnez	a11, a15, a8
    988c:	8bbd           	ae_sext16	a11, a11
    988e:	8edd           	ae_sext16	a13, a14
    9890:	a1d9           	s32i.n	a13, a1, 40
    9892:	71b9           	s32i.n	a11, a1, 28
    9894:	444b           	addi.n	a4, a4, 4
    9896:	554b           	addi.n	a5, a5, 4
    9898:	331b           	addi.n	a3, a3, 1
    989a:	833d           	ae_sext16	a3, a3
    989c:	8693c7        	bne	a3, a12, 9826 <Pitch_2Mic+0x8a>
    989f:	0a0c           	movi.n	a10, 0
    98a1:	7188           	l32i.n	a8, a1, 28
    98a3:	01a9           	s32i.n	a10, a1, 0
    98a5:	11a9           	s32i.n	a10, a1, 4
    98a7:	0238e6        	bgei	a8, 3, 98ad <Pitch_2Mic+0x111>
    98aa:	005746        	j	9a0b <Pitch_2Mic+0x26f>
    98ad:	0a9d           	mov.n	a9, a10
    98af:	0199           	s32i.n	a9, a1, 0
    98b1:	0228e6        	bgei	a8, 2, 98b7 <Pitch_2Mic+0x11b>
    98b4:	006246        	j	9a41 <Pitch_2Mic+0x2a5>
    98b7:	480b           	addi.n	a4, a8, -1
    98b9:	030c           	movi.n	a3, 0
    98bb:	db6461        	l32r	a6, 64c (13000000 <_end+0x12ff3560>)
    98be:	3199           	s32i.n	a9, a1, 12
    98c0:	06d2d2        	addmi	a13, a2, 0x600
    98c3:	0c0c           	movi.n	a12, 0
    98c5:	51c9           	s32i.n	a12, a1, 20
    98c7:	1ccdd2        	addi	a13, a13, 28
    98ca:	41d9           	s32i.n	a13, a1, 16
    98cc:	000306        	j	98dc <Pitch_2Mic+0x140>

000098cf <Pitch_2Mic+0x133>:
    98cf:	000000                                        ...

000098d2 <Pitch_2Mic+0x136>:
    98d2:	331b           	addi.n	a3, a3, 1
    98d4:	833d           	ae_sext16	a3, a3
    98d6:	c08430        	sub	a8, a4, a3
    98d9:	0eb816        	beqz	a8, 99c8 <Pitch_2Mic+0x22c>

000098dc <Pitch_2Mic+0x140>:
    98dc:	032d           	mov.n	a2, a3
    98de:	a05370        	addx4	a5, a3, a7

000098e1 <Pitch_2Mic+0x145>:
    98e1:	eda247        	bge	a2, a4, 98d2 <Pitch_2Mic+0x136>

000098e4 <Pitch_2Mic+0x148>:
    98e4:	05a8           	l32i.n	a10, a5, 0
    98e6:	e826a7        	blt	a6, a10, 98d2 <Pitch_2Mic+0x136>
    98e9:	31c8           	l32i.n	a12, a1, 12
    98eb:	db5981        	l32r	a8, 650 (9640 <check_multiples>)
    98ee:	221b           	addi.n	a2, a2, 1
    98f0:	822d           	ae_sext16	a2, a2
    98f2:	a0b270        	addx4	a11, a2, a7
    98f5:	0bb8           	l32i.n	a11, a11, 0
    98f7:	0008e0        	callx8	a8
    98fa:	e31aa6        	blti	a10, 1, 98e1 <Pitch_2Mic+0x145>
    98fd:	a1b8           	l32i.n	a11, a1, 40
    98ff:	0acd           	mov.n	a12, a10
    9901:	db5481        	l32r	a8, 654 (96b8 <harmonic_scan>)
    9904:	d14b           	addi.n	a13, a1, 4
    9906:	07ad           	mov.n	a10, a7
    9908:	0008e0        	callx8	a8
    990b:	11d8           	l32i.n	a13, a1, 4
    990d:	81a9           	s32i.n	a10, a1, 32
    990f:	ce1da6        	blti	a13, 1, 98e1 <Pitch_2Mic+0x145>
    9912:	db51a1        	l32r	a10, 658 (399999a <_end+0x398cefa>)
    9915:	da2081        	l32r	a8, 198 (860 <Log2_norm>)
    9918:	8b0c           	movi.n	a11, 8
    991a:	43ada0        	min	a10, a13, a10
    991d:	21a9           	s32i.n	a10, a1, 8
    991f:	40eac0        	nsa	a12, a10
    9922:	8ccd           	ae_sext16	a12, a12
    9924:	c0bbc0        	sub	a11, a11, a12
    9927:	401c00        	ssl	a12
    992a:	a1aa00        	sll	a10, a10
    992d:	0008e0        	callx8	a8
    9930:	41c8           	l32i.n	a12, a1, 16
    9932:	6198           	l32i.n	a9, a1, 24
    9934:	21b2a0        	srai	a11, a10, 2
    9937:	da9dd1        	l32r	a13, 3ac (4666 <TWO_MIC_WB_init+0x12>)
    993a:	a18b           	addi.n	a10, a1, 8
    993c:	360b34        	ae_cvtq48a32s	aeq0, a11
    993f:	300dd4        	ae_cvtp24a16x2.ll	aep0, a13, a13
    9942:	21b9           	s32i.n	a11, a1, 8
    9944:	51d8           	l32i.n	a13, a1, 20
    9946:	871992        	l16ui	a9, a9, 0x10e
    9949:	d4e23081be 	{ l32i	a11, a1, 32; ae_mulfq32sp16s.l	aeq0, aeq0, aep0 }
    994e:	604c04        	ae_lq32f.i	aeq1, a12, 0
    9951:	620a04        	ae_sq32f.i	aeq0, a10, 0
    9954:	21a8           	l32i.n	a10, a1, 8
    9956:	c14b           	addi.n	a12, a1, 4
    9958:	600c04        	ae_lq32f.i	aeq0, a12, 0
    995b:	fb2ad0aabf 	{ add	a10, a10, a11; ae_subq56	aeq3, aeq1, aeq0 }
    9960:	3029b6        	bltui	a9, 2, 9994 <Pitch_2Mic+0x1f8>
    9963:	1fa5e2        	movi	a14, 0x51f
    9966:	301ee4        	ae_cvtp24a16x2.ll	aep1, a14, a14
    9969:	039254        	ae_mulfq32sp16s.l	aeq2, aeq1, aep1
    996c:	063b24        	ae_abssq56s	aeq0, aeq3
    996f:	09a004        	ae_ltq56s	b0, aeq0, aeq2
    9972:	d9d5f1        	l32r	a15, c8 (800000 <_end+0x7f3560>)
    9975:	b8a692        	movi	a9, 0x6b8
    9978:	040076        	bf	b0, 9980 <Pitch_2Mic+0x1e4>
    997b:	aafa           	add.n	a10, a10, a15
    997d:	000bc6        	j	99b0 <Pitch_2Mic+0x214>

00009980 <Pitch_2Mic+0x1e4>:
    9980:	302994        	ae_cvtp24a16x2.ll	aep2, a9, a9
    9983:	03a254        	ae_mulfq32sp16s.l	aeq2, aeq1, aep2
    9986:	d9e781        	l32r	a8, 124 (600000 <_end+0x5f3560>)
    9989:	09a014        	ae_ltq56s	b1, aeq0, aeq2
    998c:	8a8a           	add.n	a8, a10, a8
    998e:	d3a810        	movt	a10, a8, b1
    9991:	0006c6        	j	99b0 <Pitch_2Mic+0x214>

00009994 <Pitch_2Mic+0x1f8>:
    9994:	181966        	bnei	a9, 1, 99b0 <Pitch_2Mic+0x214>
    9997:	dad0b1        	l32r	a11, 4d8 (266666 <_end+0x259bc6>)
    999a:	1fa5c2        	movi	a12, 0x51f
    999d:	fb2ad8bccf 	{ ae_cvtp24a16x2.ll	aep3, a12, a12; ae_subq56	aeq3, aeq1, aeq0 }
    99a2:	03b254        	ae_mulfq32sp16s.l	aeq2, aeq1, aep3
    99a5:	06fb24        	ae_abssq56s	aeq3, aeq3
    99a8:	09a324        	ae_ltq56s	b2, aeq3, aeq2
    99ab:	baba           	add.n	a11, a10, a11
    99ad:	d3ab20        	movt	a10, a11, b2
    99b0:	022da7        	blt	a13, a10, 99b6 <Pitch_2Mic+0x21a>
    99b3:	ffca86        	j	98e1 <Pitch_2Mic+0x145>
    99b6:	51a9           	s32i.n	a10, a1, 20
    99b8:	11e8           	l32i.n	a14, a1, 4
    99ba:	31e9           	s32i.n	a14, a1, 12
    99bc:	01e9           	s32i.n	a14, a1, 0
    99be:	02a247        	bge	a2, a4, 99c4 <Pitch_2Mic+0x228>
    99c1:	ffc7c6        	j	98e4 <Pitch_2Mic+0x148>
    99c4:	ffc286        	j	98d2 <Pitch_2Mic+0x136>

000099c7 <Pitch_2Mic+0x22b>:
	...

000099c8 <Pitch_2Mic+0x22c>:
    99c8:	5198           	l32i.n	a9, a1, 20
    99ca:	db2481        	l32r	a8, 65c (2999999 <_end+0x298cef9>)
    99cd:	022897        	blt	a8, a9, 99d3 <Pitch_2Mic+0x237>
    99d0:	001f86        	j	9a52 <Pitch_2Mic+0x2b6>
    99d3:	6198           	l32i.n	a9, a1, 24
    99d5:	41a8           	l32i.n	a10, a1, 16
    99d7:	871992        	l16ui	a9, a9, 0x10e
    99da:	600104        	ae_lq32f.i	aeq0, a1, 0
    99dd:	604a04        	ae_lq32f.i	aeq1, a10, 0
    99e0:	3629b6        	bltui	a9, 2, 9a1a <Pitch_2Mic+0x27e>
    99e3:	1fa5a2        	movi	a10, 0x51f
    99e6:	368054        	ae_sllisq56s	aeq2, aeq0, 1
    99e9:	faaad8caaf 	{ ae_cvtp24a16x2.ll	aep4, a10, a10; ae_subq56	aeq2, aeq1, aeq2 }
    99ee:	03ca54        	ae_mulfq32sp16s.l	aeq3, aeq1, aep4
    99f1:	06ba24        	ae_abssq56s	aeq2, aeq2
    99f4:	09b234        	ae_ltq56s	b3, aeq2, aeq3
    99f7:	790376        	bf	b3, 9a74 <Pitch_2Mic+0x2d8>
    99fa:	61c8           	l32i.n	a12, a1, 24
    99fc:	31b8           	l32i.n	a11, a1, 12
    99fe:	51d8           	l32i.n	a13, a1, 20
    9a00:	456cd2        	s32i	a13, a12, 0x114
    9a03:	11bbf0        	slli	a11, a11, 1
    9a06:	446cb2        	s32i	a11, a12, 0x110
    9a09:	f01d           	retw.n

00009a0b <Pitch_2Mic+0x26f>:
    9a0b:	61f8           	l32i.n	a15, a1, 24
    9a0d:	0e0c           	movi.n	a14, 0
    9a0f:	875fe2        	s16i	a14, a15, 0x10e
    9a12:	446fe2        	s32i	a14, a15, 0x110
    9a15:	456fe2        	s32i	a14, a15, 0x114
    9a18:	f01d           	retw.n

00009a1a <Pitch_2Mic+0x27e>:
    9a1a:	66a682        	movi	a8, 0x666
    9a1d:	fb2ad8d88f 	{ ae_cvtp24a16x2.ll	aep5, a8, a8; ae_subq56	aeq3, aeq1, aeq0 }
    9a22:	03d254        	ae_mulfq32sp16s.l	aeq2, aeq1, aep5
    9a25:	06fb24        	ae_abssq56s	aeq3, aeq3
    9a28:	09a344        	ae_ltq56s	b4, aeq3, aeq2
    9a2b:	320476        	bf	b4, 9a61 <Pitch_2Mic+0x2c5>
    9a2e:	a91b           	addi.n	a10, a9, 1
    9a30:	61b8           	l32i.n	a11, a1, 24
    9a32:	51c8           	l32i.n	a12, a1, 20
    9a34:	31d8           	l32i.n	a13, a1, 12
    9a36:	446bd2        	s32i	a13, a11, 0x110
    9a39:	456bc2        	s32i	a12, a11, 0x114
    9a3c:	875ba2        	s16i	a10, a11, 0x10e
    9a3f:	f01d           	retw.n

00009a41 <Pitch_2Mic+0x2a5>:
    9a41:	61f8           	l32i.n	a15, a1, 24
    9a43:	0e0c           	movi.n	a14, 0
    9a45:	080c           	movi.n	a8, 0
    9a47:	875f82        	s16i	a8, a15, 0x10e
    9a4a:	446f82        	s32i	a8, a15, 0x110
    9a4d:	456fe2        	s32i	a14, a15, 0x114
    9a50:	f01d           	retw.n

00009a52 <Pitch_2Mic+0x2b6>:
    9a52:	61a8           	l32i.n	a10, a1, 24
    9a54:	0b0c           	movi.n	a11, 0
    9a56:	875ab2        	s16i	a11, a10, 0x10e
    9a59:	446ab2        	s32i	a11, a10, 0x110
    9a5c:	456a92        	s32i	a9, a10, 0x114
    9a5f:	f01d           	retw.n

00009a61 <Pitch_2Mic+0x2c5>:
    9a61:	51c8           	l32i.n	a12, a1, 20
    9a63:	61d8           	l32i.n	a13, a1, 24
    9a65:	31e8           	l32i.n	a14, a1, 12
    9a67:	0f0c           	movi.n	a15, 0
    9a69:	875df2        	s16i	a15, a13, 0x10e
    9a6c:	446de2        	s32i	a14, a13, 0x110
    9a6f:	456dc2        	s32i	a12, a13, 0x114
    9a72:	f01d           	retw.n

00009a74 <Pitch_2Mic+0x2d8>:
    9a74:	358074        	ae_sraiq56	aeq2, aeq0, 1
    9a77:	019ec4        	ae_subq56	aeq2, aeq1, aeq2
    9a7a:	06ba24        	ae_abssq56s	aeq2, aeq2
    9a7d:	09b254        	ae_ltq56s	b5, aeq2, aeq3
    9a80:	960576        	bf	b5, 9a1a <Pitch_2Mic+0x27e>
    9a83:	6198           	l32i.n	a9, a1, 24
    9a85:	3188           	l32i.n	a8, a1, 12
    9a87:	51a8           	l32i.n	a10, a1, 20
    9a89:	4569a2        	s32i	a10, a9, 0x114
    9a8c:	218180        	srai	a8, a8, 1
    9a8f:	446982        	s32i	a8, a9, 0x110
    9a92:	f01d           	retw.n

00009a94 <Pitch_2Mic+0x2f8>:
    9a94:	00000000                                ....

00009a98 <common_ECNR_PARA_init_v2>:
    9a98:	004136        	entry	a1, 32
    9a9b:	a28b           	addi.n	a10, a2, 8
    9a9d:	d98181        	l32r	a8, a4 (9de0 <xt_memcpy>)
    9aa0:	b32b           	addi.n	a11, a3, 2
    9aa2:	79a0c2        	movi	a12, 121
    9aa5:	0008e0        	callx8	a8
    9aa8:	5c0c           	movi.n	a12, 5
    9aaa:	01d3b2        	addmi	a11, a3, 0x100
    9aad:	01d2a2        	addmi	a10, a2, 0x100
    9ab0:	d97d81        	l32r	a8, a4 (9de0 <xt_memcpy>)
    9ab3:	fccaa2        	addi	a10, a10, -4
    9ab6:	f4cbb2        	addi	a11, a11, -12
    9ab9:	0008e0        	callx8	a8
    9abc:	60a0c2        	movi	a12, 96
    9abf:	01d2a2        	addmi	a10, a2, 0x100
    9ac2:	01d3b2        	addmi	a11, a3, 0x100
    9ac5:	d97781        	l32r	a8, a4 (9de0 <xt_memcpy>)
    9ac8:	fecbb2        	addi	a11, a11, -2
    9acb:	aa8b           	addi.n	a10, a10, 8
    9acd:	0008e0        	callx8	a8
    9ad0:	d96b91        	l32r	a9, 7c (ca94 <p_ecnr_mem>)
    9ad3:	0998           	l32i.n	a9, a9, 0
    9ad5:	0299           	s32i.n	a9, a2, 0
    9ad7:	f01d           	retw.n

00009ad9 <common_ECNR_PARA_init_v2+0x41>:
    9ad9:	000000                                        ...

00009adc <TX_ECNR_PARA_init>:
    9adc:	004136        	entry	a1, 32
    9adf:	03bd           	mov.n	a11, a3
    9ae1:	d96651        	l32r	a5, 7c (ca94 <p_ecnr_mem>)
    9ae4:	d96f31        	l32r	a3, a0 (ca9c <aec_nr_para>)
    9ae7:	dade81        	l32r	a8, 660 (9a98 <common_ECNR_PARA_init_v2>)
    9aea:	05a8           	l32i.n	a10, a5, 0
    9aec:	03a9           	s32i.n	a10, a3, 0
    9aee:	0008e0        	callx8	a8
    9af1:	05e8           	l32i.n	a14, a5, 0
    9af3:	03d8           	l32i.n	a13, a3, 0
    9af5:	b42b           	addi.n	a11, a4, 2
    9af7:	1adee2        	addmi	a14, a14, 0x1a00
    9afa:	041dc2        	l16ui	a12, a13, 8
    9afd:	02dda2        	addmi	a10, a13, 0x200
    9b00:	c8caa2        	addi	a10, a10, -56
    9b03:	1c5ec2        	s16i	a12, a14, 56
    9b06:	047216        	beqz	a2, 9b51 <TX_ECNR_PARA_init+0x75>
    9b09:	80a0c2        	movi	a12, 128
    9b0c:	d96681        	l32r	a8, a4 (9de0 <xt_memcpy>)
    9b0f:	821d92        	l16ui	a9, a13, 0x104
    9b12:	025d92        	s16i	a9, a13, 4
    9b15:	0008e0        	callx8	a8
    9b18:	03d8           	l32i.n	a13, a3, 0
    9b1a:	da0291        	l32r	a9, 324 (1000 <voiced_decision+0x3c>)
    9b1d:	80a0a2        	movi	a10, 128
    9b20:	03dd82        	addmi	a8, a13, 0x300
    9b23:	c8c882        	addi	a8, a8, -56
    9b26:	028a76        	loop	a10, 9b2c <TX_ECNR_PARA_init+0x50>
    9b29:	09c894        	ae_s16ip	a9, a8, 2

00009b2c <TX_ECNR_PARA_init+0x50>:
    9b2c:	4c0c           	movi.n	a12, 4
    9b2e:	d95d81        	l32r	a8, a4 (9de0 <xt_memcpy>)
    9b31:	05a8           	l32i.n	a10, a5, 0
    9b33:	02ddb2        	addmi	a11, a13, 0x200
    9b36:	bacbb2        	addi	a11, a11, -70
    9b39:	1adaa2        	addmi	a10, a10, 0x1a00
    9b3c:	24caa2        	addi	a10, a10, 36
    9b3f:	0008e0        	callx8	a8
    9b42:	05c8           	l32i.n	a12, a5, 0
    9b44:	03b8           	l32i.n	a11, a3, 0
    9b46:	6adcc2        	addmi	a12, a12, 0x6a00
    9b49:	db1bb2        	l16ui	a11, a11, 0x1b6
    9b4c:	3f5cb2        	s16i	a11, a12, 126
    9b4f:	f01d           	retw.n

00009b51 <TX_ECNR_PARA_init+0x75>:
    9b51:	00a1c2        	movi	a12, 0x100
    9b54:	d95481        	l32r	a8, a4 (9de0 <xt_memcpy>)
    9b57:	811d92        	l16ui	a9, a13, 0x102
    9b5a:	025d92        	s16i	a9, a13, 4
    9b5d:	0008e0        	callx8	a8
    9b60:	03d8           	l32i.n	a13, a3, 0
    9b62:	fff186        	j	9b2c <TX_ECNR_PARA_init+0x50>

00009b65 <TX_ECNR_PARA_init+0x89>:
    9b65:	000000                                        ...

00009b68 <RX_ECNR_PARA_init>:
    9b68:	004136        	entry	a1, 32
    9b6b:	03bd           	mov.n	a11, a3
    9b6d:	d94351        	l32r	a5, 7c (ca94 <p_ecnr_mem>)
    9b70:	d94c31        	l32r	a3, a0 (ca9c <aec_nr_para>)
    9b73:	dabb81        	l32r	a8, 660 (9a98 <common_ECNR_PARA_init_v2>)
    9b76:	05a8           	l32i.n	a10, a5, 0
    9b78:	0063a2        	s32i	a10, a3, 0
    9b7b:	0008e0        	callx8	a8
    9b7e:	03a8           	l32i.n	a10, a3, 0
    9b80:	b42b           	addi.n	a11, a4, 2
    9b82:	02daa2        	addmi	a10, a10, 0x200
    9b85:	c8caa2        	addi	a10, a10, -56
    9b88:	c2ac           	beqz.n	a2, 9bb8 <RX_ECNR_PARA_init+0x50>
    9b8a:	d94681        	l32r	a8, a4 (9de0 <xt_memcpy>)
    9b8d:	80a0c2        	movi	a12, 128
    9b90:	0008e0        	callx8	a8
    9b93:	03b8           	l32i.n	a11, a3, 0
    9b95:	d9e391        	l32r	a9, 324 (1000 <voiced_decision+0x3c>)
    9b98:	80a0a2        	movi	a10, 128
    9b9b:	03db82        	addmi	a8, a11, 0x300
    9b9e:	c8c882        	addi	a8, a8, -56
    9ba1:	028a76        	loop	a10, 9ba7 <RX_ECNR_PARA_init+0x3f>
    9ba4:	09c894        	ae_s16ip	a9, a8, 2

00009ba7 <RX_ECNR_PARA_init+0x3f>:
    9ba7:	05a8           	l32i.n	a10, a5, 0
    9ba9:	da1b92        	l16ui	a9, a11, 0x1b4
    9bac:	6adaa2        	addmi	a10, a10, 0x6a00
    9baf:	990b           	addi.n	a9, a9, -1
    9bb1:	3e5a92        	s16i	a9, a10, 124
    9bb4:	f01d           	retw.n

00009bb6 <RX_ECNR_PARA_init+0x4e>:
	...

00009bb8 <RX_ECNR_PARA_init+0x50>:
    9bb8:	d93b81        	l32r	a8, a4 (9de0 <xt_memcpy>)
    9bbb:	00a1c2        	movi	a12, 0x100
    9bbe:	0008e0        	callx8	a8
    9bc1:	0398           	l32i.n	a9, a3, 0
    9bc3:	05a8           	l32i.n	a10, a5, 0
    9bc5:	da1992        	l16ui	a9, a9, 0x1b4
    9bc8:	6adaa2        	addmi	a10, a10, 0x6a00
    9bcb:	990b           	addi.n	a9, a9, -1
    9bcd:	3e5a92        	s16i	a9, a10, 124
    9bd0:	f01d           	retw.n

00009bd2 <RX_ECNR_PARA_init+0x6a>:
	...

00009bd4 <EQ_update>:
    9bd4:	004136        	entry	a1, 32
    9bd7:	03bd           	mov.n	a11, a3
    9bd9:	00a1c2        	movi	a12, 0x100
    9bdc:	d92891        	l32r	a9, 7c (ca94 <p_ecnr_mem>)
    9bdf:	66d2a2        	addmi	a10, a2, 0x6600
    9be2:	d93081        	l32r	a8, a4 (9de0 <xt_memcpy>)
    9be5:	e8caa2        	addi	a10, a10, -24
    9be8:	0929           	s32i.n	a2, a9, 0
    9bea:	0008e0        	callx8	a8
    9bed:	f01d           	retw.n

00009bef <EQ_update+0x1b>:
	...

00009bf0 <cal_wind_score>:
    9bf0:	006136        	entry	a1, 48
    9bf3:	117330        	slli	a7, a3, 13
    9bf6:	c02270        	sub	a2, a2, a7
    9bf9:	3412a6        	blti	a2, 1, 9c31 <cal_wind_score+0x41>
    9bfc:	152277        	blt	a2, a7, 9c15 <cal_wind_score+0x25>
    9bff:	300444        	ae_cvtp24a16x2.ll	aep0, a4, a4
    9c02:	d99621        	l32r	a2, 25c (2000 <pitch_by_harmonic+0x4b8>)
    9c05:	360234        	ae_cvtq48a32s	aeq0, a2
    9c08:	030414        	ae_mulsfq32sp16s.l	aeq0, aeq0, aep0
    9c0b:	350054        	ae_slliq56	aeq0, aeq0, 1
    9c0e:	620104        	ae_sq32f.i	aeq0, a1, 0
    9c11:	212d           	ae_l16si.n	a2, a1, 0
    9c13:	f01d           	retw.n

00009c15 <cal_wind_score+0x25>:
    9c15:	301444        	ae_cvtp24a16x2.ll	aep1, a4, a4
    9c18:	d99151        	l32r	a5, 25c (2000 <pitch_by_harmonic+0x4b8>)
    9c1b:	d28230        	quos	a8, a2, a3
    9c1e:	36c834        	ae_cvtq48a32s	aeq3, a8
    9c21:	368534        	ae_cvtq48a32s	aeq2, a5
    9c24:	0394d4        	ae_mulsfq32sp16s.l	aeq2, aeq3, aep1
    9c27:	35a054        	ae_slliq56	aeq2, aeq2, 1
    9c2a:	622104        	ae_sq32f.i	aeq2, a1, 0
    9c2d:	212d           	ae_l16si.n	a2, a1, 0
    9c2f:	f01d           	retw.n

00009c31 <cal_wind_score+0x41>:
    9c31:	302444        	ae_cvtp24a16x2.ll	aep2, a4, a4
    9c34:	d98a91        	l32r	a9, 25c (2000 <pitch_by_harmonic+0x4b8>)
    9c37:	0a0c           	movi.n	a10, 0
    9c39:	364a34        	ae_cvtq48a32s	aeq1, a10
    9c3c:	360934        	ae_cvtq48a32s	aeq0, a9
    9c3f:	032454        	ae_mulsfq32sp16s.l	aeq0, aeq1, aep2
    9c42:	350054        	ae_slliq56	aeq0, aeq0, 1
    9c45:	620104        	ae_sq32f.i	aeq0, a1, 0
    9c48:	212d           	ae_l16si.n	a2, a1, 0
    9c4a:	f01d           	retw.n

00009c4c <__eqdf2>:
    9c4c:	002136        	entry	a1, 16
    9c4f:	0d9247        	bne	a2, a4, 9c60 <__eqdf2+0x14>
    9c52:	179357        	bne	a3, a5, 9c6d <__eqdf2+0x21>
    9c55:	da8361        	l32r	a6, 664 (7ff00000 <_end+0x7fef3560>)
    9c58:	084367        	ball	a3, a6, 9c64 <__eqdf2+0x18>
    9c5b:	020c           	movi.n	a2, 0
    9c5d:	f01d           	retw.n

00009c5f <__eqdf2+0x13>:
	...

00009c60 <__eqdf2+0x14>:
    9c60:	120c           	movi.n	a2, 1
    9c62:	f01d           	retw.n

00009c64 <__eqdf2+0x18>:
    9c64:	117340        	slli	a7, a3, 12
    9c67:	207720        	or	a7, a7, a2
    9c6a:	000206        	j	9c76 <__eqdf2+0x2a>

00009c6d <__eqdf2+0x21>:
    9c6d:	207350        	or	a7, a3, a5
    9c70:	1177f0        	slli	a7, a7, 1
    9c73:	207720        	or	a7, a7, a2

00009c76 <__eqdf2+0x2a>:
    9c76:	020c           	movi.n	a2, 0
    9c78:	130c           	movi.n	a3, 1
    9c7a:	932370        	movnez	a2, a3, a7
    9c7d:	f01d           	retw.n

00009c7f <__eqdf2+0x33>:
	...

00009c80 <__gtdf2>:
    9c80:	002136        	entry	a1, 16
    9c83:	da7861        	l32r	a6, 664 (7ff00000 <_end+0x7fef3560>)
    9c86:	0e4367        	ball	a3, a6, 9c98 <__gtdf2+0x18>

00009c89 <__gtdf2+0x9>:
    9c89:	40c567        	bnall	a5, a6, 9ccd <__ledf2+0x25>
    9c8c:	117540        	slli	a7, a5, 12
    9c8f:	207740        	or	a7, a7, a4
    9c92:	77bc           	beqz.n	a7, 9ccd <__ledf2+0x25>
    9c94:	020c           	movi.n	a2, 0
    9c96:	f01d           	retw.n

00009c98 <__gtdf2+0x18>:
    9c98:	117340        	slli	a7, a3, 12
    9c9b:	207720        	or	a7, a7, a2
    9c9e:	fe7716        	beqz	a7, 9c89 <__gtdf2+0x9>
    9ca1:	020c           	movi.n	a2, 0
    9ca3:	f01d           	retw.n

00009ca5 <__gtdf2+0x25>:
    9ca5:	000000                                        ...

00009ca8 <__ledf2>:
    9ca8:	002136        	entry	a1, 16
    9cab:	da6e61        	l32r	a6, 664 (7ff00000 <_end+0x7fef3560>)
    9cae:	0e4367        	ball	a3, a6, 9cc0 <__ledf2+0x18>

00009cb1 <__ledf2+0x9>:
    9cb1:	18c567        	bnall	a5, a6, 9ccd <__ledf2+0x25>
    9cb4:	117540        	slli	a7, a5, 12
    9cb7:	207740        	or	a7, a7, a4
    9cba:	f78c           	beqz.n	a7, 9ccd <__ledf2+0x25>
    9cbc:	120c           	movi.n	a2, 1
    9cbe:	f01d           	retw.n

00009cc0 <__ledf2+0x18>:
    9cc0:	117340        	slli	a7, a3, 12
    9cc3:	207720        	or	a7, a7, a2
    9cc6:	fe7716        	beqz	a7, 9cb1 <__ledf2+0x9>
    9cc9:	120c           	movi.n	a2, 1
    9ccb:	f01d           	retw.n

00009ccd <__ledf2+0x25>:
    9ccd:	307350        	xor	a7, a3, a5
    9cd0:	01d796        	bltz	a7, 9cf1 <__ledf2+0x49>
    9cd3:	00d396        	bltz	a3, 9ce4 <__ledf2+0x3c>
    9cd6:	053357        	bltu	a3, a5, 9cdf <__ledf2+0x37>
    9cd9:	109357        	bne	a3, a5, 9ced <__ledf2+0x45>
    9cdc:	0d3427        	bltu	a4, a2, 9ced <__ledf2+0x45>

00009cdf <__ledf2+0x37>:
    9cdf:	020c           	movi.n	a2, 0
    9ce1:	f01d           	retw.n

00009ce3 <__ledf2+0x3b>:
	...

00009ce4 <__ledf2+0x3c>:
    9ce4:	f73537        	bltu	a5, a3, 9cdf <__ledf2+0x37>
    9ce7:	029537        	bne	a5, a3, 9ced <__ledf2+0x45>
    9cea:	f1b247        	bgeu	a2, a4, 9cdf <__ledf2+0x37>

00009ced <__ledf2+0x45>:
    9ced:	120c           	movi.n	a2, 1
    9cef:	f01d           	retw.n

00009cf1 <__ledf2+0x49>:
    9cf1:	fea396        	bltz	a3, 9cdf <__ledf2+0x37>
    9cf4:	207350        	or	a7, a3, a5
    9cf7:	1177f0        	slli	a7, a7, 1
    9cfa:	207720        	or	a7, a7, a2
    9cfd:	207740        	or	a7, a7, a4
    9d00:	120c           	movi.n	a2, 1
    9d02:	030c           	movi.n	a3, 0
    9d04:	832370        	moveqz	a2, a3, a7
    9d07:	f01d           	retw.n

00009d09 <__ledf2+0x61>:
    9d09:	000000                                        ...

00009d0c <__gedf2>:
    9d0c:	002136        	entry	a1, 16
    9d0f:	da5561        	l32r	a6, 664 (7ff00000 <_end+0x7fef3560>)
    9d12:	0e4367        	ball	a3, a6, 9d24 <__gedf2+0x18>

00009d15 <__gedf2+0x9>:
    9d15:	40c567        	bnall	a5, a6, 9d59 <__ltdf2+0x25>
    9d18:	117540        	slli	a7, a5, 12
    9d1b:	207740        	or	a7, a7, a4
    9d1e:	77bc           	beqz.n	a7, 9d59 <__ltdf2+0x25>
    9d20:	f27c           	movi.n	a2, -1
    9d22:	f01d           	retw.n

00009d24 <__gedf2+0x18>:
    9d24:	117340        	slli	a7, a3, 12
    9d27:	207720        	or	a7, a7, a2
    9d2a:	fe7716        	beqz	a7, 9d15 <__gedf2+0x9>
    9d2d:	f27c           	movi.n	a2, -1
    9d2f:	f01d           	retw.n

00009d31 <__gedf2+0x25>:
    9d31:	000000                                        ...

00009d34 <__ltdf2>:
    9d34:	002136        	entry	a1, 16
    9d37:	da4b61        	l32r	a6, 664 (7ff00000 <_end+0x7fef3560>)
    9d3a:	0e4367        	ball	a3, a6, 9d4c <__ltdf2+0x18>

00009d3d <__ltdf2+0x9>:
    9d3d:	18c567        	bnall	a5, a6, 9d59 <__ltdf2+0x25>
    9d40:	117540        	slli	a7, a5, 12
    9d43:	207740        	or	a7, a7, a4
    9d46:	f78c           	beqz.n	a7, 9d59 <__ltdf2+0x25>
    9d48:	020c           	movi.n	a2, 0
    9d4a:	f01d           	retw.n

00009d4c <__ltdf2+0x18>:
    9d4c:	117340        	slli	a7, a3, 12
    9d4f:	207720        	or	a7, a7, a2
    9d52:	fe7716        	beqz	a7, 9d3d <__ltdf2+0x9>
    9d55:	020c           	movi.n	a2, 0
    9d57:	f01d           	retw.n

00009d59 <__ltdf2+0x25>:
    9d59:	307350        	xor	a7, a3, a5
    9d5c:	01d796        	bltz	a7, 9d7d <__ltdf2+0x49>
    9d5f:	00d396        	bltz	a3, 9d70 <__ltdf2+0x3c>
    9d62:	053357        	bltu	a3, a5, 9d6b <__ltdf2+0x37>
    9d65:	109357        	bne	a3, a5, 9d79 <__ltdf2+0x45>
    9d68:	0db247        	bgeu	a2, a4, 9d79 <__ltdf2+0x45>

00009d6b <__ltdf2+0x37>:
    9d6b:	f27c           	movi.n	a2, -1
    9d6d:	f01d           	retw.n

00009d6f <__ltdf2+0x3b>:
	...

00009d70 <__ltdf2+0x3c>:
    9d70:	f73537        	bltu	a5, a3, 9d6b <__ltdf2+0x37>
    9d73:	029537        	bne	a5, a3, 9d79 <__ltdf2+0x45>
    9d76:	f13427        	bltu	a4, a2, 9d6b <__ltdf2+0x37>

00009d79 <__ltdf2+0x45>:
    9d79:	020c           	movi.n	a2, 0
    9d7b:	f01d           	retw.n

00009d7d <__ltdf2+0x49>:
    9d7d:	ff83d6        	bgez	a3, 9d79 <__ltdf2+0x45>
    9d80:	207350        	or	a7, a3, a5
    9d83:	1177f0        	slli	a7, a7, 1
    9d86:	207720        	or	a7, a7, a2
    9d89:	207740        	or	a7, a7, a4
    9d8c:	020c           	movi.n	a2, 0
    9d8e:	f37c           	movi.n	a3, -1
    9d90:	932370        	movnez	a2, a3, a7
    9d93:	f01d           	retw.n

00009d95 <__ltdf2+0x61>:
    9d95:	000000                                        ...

00009d98 <__unorddf2>:
    9d98:	002136        	entry	a1, 16
    9d9b:	da3261        	l32r	a6, 664 (7ff00000 <_end+0x7fef3560>)
    9d9e:	064367        	ball	a3, a6, 9da8 <__unorddf2+0x10>

00009da1 <__unorddf2+0x9>:
    9da1:	104567        	ball	a5, a6, 9db5 <__unorddf2+0x1d>

00009da4 <__unorddf2+0xc>:
    9da4:	020c           	movi.n	a2, 0
    9da6:	f01d           	retw.n

00009da8 <__unorddf2+0x10>:
    9da8:	117340        	slli	a7, a3, 12
    9dab:	207720        	or	a7, a7, a2
    9dae:	fef716        	beqz	a7, 9da1 <__unorddf2+0x9>
    9db1:	120c           	movi.n	a2, 1
    9db3:	f01d           	retw.n

00009db5 <__unorddf2+0x1d>:
    9db5:	117540        	slli	a7, a5, 12
    9db8:	207740        	or	a7, a7, a4
    9dbb:	fe5716        	beqz	a7, 9da4 <__unorddf2+0xc>
    9dbe:	120c           	movi.n	a2, 1
    9dc0:	f01d           	retw.n

00009dc2 <__unorddf2+0x2a>:
    9dc2:	00000000 41360000                                ......

00009dc8 <xt_memset>:
    9dc8:	004136        	entry	a1, 32
    9dcb:	026d           	mov.n	a6, a2
    9dcd:	828c           	beqz.n	a2, 9dd9 <xt_memset+0x11>
    9dcf:	029476        	loopnez	a4, 9dd5 <xt_memset+0xd>
    9dd2:	09c234        	ae_s16ip	a3, a2, 2

00009dd5 <xt_memset+0xd>:
    9dd5:	062d           	mov.n	a2, a6
    9dd7:	f01d           	retw.n

00009dd9 <xt_memset+0x11>:
    9dd9:	020c           	movi.n	a2, 0
    9ddb:	f01d           	retw.n

00009ddd <xt_memset+0x15>:
    9ddd:	000000                                        ...

00009de0 <xt_memcpy>:
    9de0:	004136        	entry	a1, 32
    9de3:	027d           	mov.n	a7, a2
    9de5:	032d           	mov.n	a2, a3
    9de7:	043d           	mov.n	a3, a4
    9de9:	07c716        	beqz	a7, 9e69 <xt_memcpy+0x89>
    9dec:	079216        	beqz	a2, 9e69 <xt_memcpy+0x89>
    9def:	25b277        	bgeu	a2, a7, 9e18 <xt_memcpy+0x38>
    9df2:	904420        	addx2	a4, a4, a2
    9df5:	1fb747        	bgeu	a7, a4, 9e18 <xt_memcpy+0x38>
    9df8:	fec422        	addi	a2, a4, -2
    9dfb:	530b           	addi.n	a5, a3, -1
    9dfd:	904370        	addx2	a4, a3, a7
    9e00:	fec442        	addi	a4, a4, -2
    9e03:	5e0526        	beqi	a5, -1, 9e65 <xt_memcpy+0x85>
    9e06:	099376        	loopnez	a3, 9e13 <xt_memcpy+0x33>
    9e09:	223d           	ae_l16si.n	a3, a2, 0
    9e0b:	fec222        	addi	a2, a2, -2
    9e0e:	fec442        	addi	a4, a4, -2
    9e11:	743d           	ae_s16i.n	a3, a4, 2

00009e13 <xt_memcpy+0x33>:
    9e13:	072d           	mov.n	a2, a7
    9e15:	f01d           	retw.n

00009e17 <xt_memcpy+0x37>:
	...

00009e18 <xt_memcpy+0x38>:
    9e18:	074d           	mov.n	a4, a7
    9e1a:	530b           	addi.n	a5, a3, -1
    9e1c:	450526        	beqi	a5, -1, 9e65 <xt_memcpy+0x85>
    9e1f:	248030        	extui	a8, a3, 0, 3
    9e22:	036d           	mov.n	a6, a3
    9e24:	413360        	srli	a3, a6, 3
    9e27:	069876        	loopnez	a8, 9e31 <xt_memcpy+0x51>
    9e2a:	229d           	ae_l16si.n	a9, a2, 0
    9e2c:	09c494        	ae_s16ip	a9, a4, 2
    9e2f:	222b           	addi.n	a2, a2, 2
    9e31:	309376        	loopnez	a3, 9e65 <xt_memcpy+0x85>
    9e34:	223d           	ae_l16si.n	a3, a2, 0
    9e36:	09c434        	ae_s16ip	a3, a4, 2
    9e39:	323d           	ae_l16si.n	a3, a2, 2
    9e3b:	09c434        	ae_s16ip	a3, a4, 2
    9e3e:	029232        	l16si	a3, a2, 4
    9e41:	09c434        	ae_s16ip	a3, a4, 2
    9e44:	039232        	l16si	a3, a2, 6
    9e47:	09c434        	ae_s16ip	a3, a4, 2
    9e4a:	049232        	l16si	a3, a2, 8
    9e4d:	09c434        	ae_s16ip	a3, a4, 2
    9e50:	059232        	l16si	a3, a2, 10
    9e53:	09c434        	ae_s16ip	a3, a4, 2
    9e56:	069232        	l16si	a3, a2, 12
    9e59:	09c434        	ae_s16ip	a3, a4, 2
    9e5c:	079232        	l16si	a3, a2, 14
    9e5f:	09c434        	ae_s16ip	a3, a4, 2
    9e62:	10c222        	addi	a2, a2, 16
    9e65:	072d           	mov.n	a2, a7
    9e67:	f01d           	retw.n

00009e69 <xt_memcpy+0x89>:
    9e69:	020c           	movi.n	a2, 0
    9e6b:	f01d           	retw.n

00009e6d <xt_memcpy+0x8d>:
    9e6d:	000000                                        ...

00009e70 <__floatunsidf>:
    9e70:	002136        	entry	a1, 16
    9e73:	32bc           	beqz.n	a2, 9eaa <__floatsidf+0x2e>
    9e75:	070c           	movi.n	a7, 0
    9e77:	000346        	j	9e88 <__floatsidf+0xc>

00009e7a <__floatunsidf+0xa>:
	...

00009e7c <__floatsidf>:
    9e7c:	002136        	entry	a1, 16
    9e7f:	027216        	beqz	a2, 9eaa <__floatsidf+0x2e>
    9e82:	057f20        	extui	a7, a2, 31, 1
    9e85:	602120        	abs	a2, a2

00009e88 <__floatsidf+0xc>:
    9e88:	40f240        	nsau	a4, a2
    9e8b:	401400        	ssl	a4
    9e8e:	a15200        	sll	a5, a2
    9e91:	413b50        	srli	a3, a5, 11
    9e94:	0125b0        	slli	a2, a5, 21
    9e97:	1da452        	movi	a5, 0x41d
    9e9a:	c05540        	sub	a5, a5, a4
    9e9d:	0155c0        	slli	a5, a5, 20
    9ea0:	335a           	add.n	a3, a3, a5
    9ea2:	017710        	slli	a7, a7, 31
    9ea5:	203370        	or	a3, a3, a7
    9ea8:	f01d           	retw.n

00009eaa <__floatsidf+0x2e>:
    9eaa:	030c           	movi.n	a3, 0
    9eac:	f01d           	retw.n

00009eae <__floatsidf+0x32>:
	...

00009eb0 <__udivdi3>:
    9eb0:	008136        	entry	a1, 64
    9eb3:	049d           	mov.n	a9, a4
    9eb5:	02ad           	mov.n	a10, a2
    9eb7:	038d           	mov.n	a8, a3
    9eb9:	0b2c           	movi.n	a11, 32
    9ebb:	09b516        	beqz	a5, 9f5a <__udivdi3+0xaa>
    9ebe:	06b357        	bgeu	a3, a5, 9ec8 <__udivdi3+0x18>
    9ec1:	020c           	movi.n	a2, 0
    9ec3:	030c           	movi.n	a3, 0
    9ec5:	f01d           	retw.n

00009ec7 <__udivdi3+0x17>:
	...

00009ec8 <__udivdi3+0x18>:
    9ec8:	40f540        	nsau	a4, a5
    9ecb:	1d4416        	beqz	a4, a0a3 <__udivdi3+0x1f3>
    9ece:	c02b40        	sub	a2, a11, a4
    9ed1:	400200        	ssr	a2
    9ed4:	91f030        	srl	a15, a3
    9ed7:	401400        	ssl	a4
    9eda:	81c3a0        	src	a12, a3, a10
    9edd:	81b590        	src	a11, a5, a9
    9ee0:	9b8d           	ae_zext16	a8, a11
    9ee2:	f5d0b0        	extui	a13, a11, 16, 16
    9ee5:	404010        	ssai	16
    9ee8:	c2efd0        	quou	a14, a15, a13
    9eeb:	0e5d           	mov.n	a5, a14
    9eed:	8238e0        	mull	a3, a8, a14
    9ef0:	e2ffd0        	remu	a15, a15, a13
    9ef3:	81ffc0        	src	a15, a15, a12
    9ef6:	0f2d           	mov.n	a2, a15
    9ef8:	0ebf37        	bgeu	a15, a3, 9f0a <__udivdi3+0x5a>
    9efb:	5e0b           	addi.n	a5, a14, -1
    9efd:	2bfa           	add.n	a2, a11, a15
    9eff:	0732b7        	bltu	a2, a11, 9f0a <__udivdi3+0x5a>
    9f02:	04b237        	bgeu	a2, a3, 9f0a <__udivdi3+0x5a>
    9f05:	2b2a           	add.n	a2, a11, a2
    9f07:	fece52        	addi	a5, a14, -2
    9f0a:	116500        	slli	a6, a5, 16
    9f0d:	401400        	ssl	a4
    9f10:	c03230        	sub	a3, a2, a3
    9f13:	c2e3d0        	quou	a14, a3, a13
    9f16:	0e2d           	mov.n	a2, a14
    9f18:	a15900        	sll	a5, a9
    9f1b:	8288e0        	mull	a8, a8, a14
    9f1e:	e233d0        	remu	a3, a3, a13
    9f21:	0bf3c0        	depbits	a12, a3, 16, 16
    9f24:	0c3d           	mov.n	a3, a12
    9f26:	0ebc87        	bgeu	a12, a8, 9f38 <__udivdi3+0x88>
    9f29:	2e0b           	addi.n	a2, a14, -1
    9f2b:	3bca           	add.n	a3, a11, a12
    9f2d:	0733b7        	bltu	a3, a11, 9f38 <__udivdi3+0x88>
    9f30:	04b387        	bgeu	a3, a8, 9f38 <__udivdi3+0x88>
    9f33:	3b3a           	add.n	a3, a11, a3
    9f35:	fece22        	addi	a2, a14, -2
    9f38:	c03380        	sub	a3, a3, a8
    9f3b:	202260        	or	a2, a2, a6
    9f3e:	828250        	mull	a8, a2, a5
    9f41:	a25250        	muluh	a5, a2, a5
    9f44:	0b3357        	bltu	a3, a5, 9f53 <__udivdi3+0xa3>
    9f47:	c09350        	sub	a9, a3, a5
    9f4a:	07f956        	bnez	a9, 9fcd <__udivdi3+0x11d>
    9f4d:	a1ba00        	sll	a11, a10
    9f50:	79bb87        	bgeu	a11, a8, 9fcd <__udivdi3+0x11d>

00009f53 <__udivdi3+0xa3>:
    9f53:	220b           	addi.n	a2, a2, -1
    9f55:	030c           	movi.n	a3, 0
    9f57:	f01d           	retw.n

00009f59 <__udivdi3+0xa9>:
	...

00009f5a <__udivdi3+0xaa>:
    9f5a:	75b347        	bgeu	a3, a4, 9fd3 <__udivdi3+0x123>
    9f5d:	40f450        	nsau	a5, a4
    9f60:	a58c           	beqz.n	a5, 9f6e <__udivdi3+0xbe>
    9f62:	401500        	ssl	a5
    9f65:	a14400        	sll	a4, a4
    9f68:	813320        	src	a3, a3, a2
    9f6b:	a12200        	sll	a2, a2

00009f6e <__udivdi3+0xbe>:
    9f6e:	945d           	ae_zext16	a5, a4
    9f70:	404010        	ssai	16
    9f73:	f58040        	extui	a8, a4, 16, 16
    9f76:	e2c380        	remu	a12, a3, a8
    9f79:	c2b380        	quou	a11, a3, a8
    9f7c:	0bad           	mov.n	a10, a11
    9f7e:	81cc20        	src	a12, a12, a2
    9f81:	8295b0        	mull	a9, a5, a11
    9f84:	0c3d           	mov.n	a3, a12
    9f86:	0ebc97        	bgeu	a12, a9, 9f98 <__udivdi3+0xe8>
    9f89:	ab0b           	addi.n	a10, a11, -1
    9f8b:	3c4a           	add.n	a3, a12, a4
    9f8d:	073347        	bltu	a3, a4, 9f98 <__udivdi3+0xe8>
    9f90:	04b397        	bgeu	a3, a9, 9f98 <__udivdi3+0xe8>
    9f93:	343a           	add.n	a3, a4, a3
    9f95:	fecba2        	addi	a10, a11, -2
    9f98:	c0d390        	sub	a13, a3, a9
    9f9b:	c29d80        	quou	a9, a13, a8
    9f9e:	093d           	mov.n	a3, a9
    9fa0:	825590        	mull	a5, a5, a9
    9fa3:	e2dd80        	remu	a13, a13, a8
    9fa6:	0bfd20        	depbits	a2, a13, 16, 16
    9fa9:	16b257        	bgeu	a2, a5, 9fc3 <__udivdi3+0x113>
    9fac:	390b           	addi.n	a3, a9, -1
    9fae:	224a           	add.n	a2, a2, a4
    9fb0:	0f3247        	bltu	a2, a4, 9fc3 <__udivdi3+0x113>
    9fb3:	0cb257        	bgeu	a2, a5, 9fc3 <__udivdi3+0x113>
    9fb6:	112a00        	slli	a2, a10, 16
    9fb9:	fec932        	addi	a3, a9, -2
    9fbc:	202320        	or	a2, a3, a2
    9fbf:	030c           	movi.n	a3, 0
    9fc1:	f01d           	retw.n

00009fc3 <__udivdi3+0x113>:
    9fc3:	112a00        	slli	a2, a10, 16
    9fc6:	202320        	or	a2, a3, a2
    9fc9:	030c           	movi.n	a3, 0
    9fcb:	f01d           	retw.n

00009fcd <__udivdi3+0x11d>:
    9fcd:	030c           	movi.n	a3, 0
    9fcf:	f01d           	retw.n

00009fd1 <__udivdi3+0x121>:
	...

00009fd3 <__udivdi3+0x123>:
    9fd3:	130c           	movi.n	a3, 1
    9fd5:	c24340        	quou	a4, a3, a4
    9fd8:	839490        	moveqz	a9, a4, a9
    9fdb:	094d           	mov.n	a4, a9
    9fdd:	40f950        	nsau	a5, a9
    9fe0:	0dc516        	beqz	a5, a0c0 <__udivdi3+0x210>
    9fe3:	401500        	ssl	a5
    9fe6:	c0eb50        	sub	a14, a11, a5
    9fe9:	a14900        	sll	a4, a9
    9fec:	400e00        	ssr	a14
    9fef:	91d080        	srl	a13, a8
    9ff2:	401500        	ssl	a5
    9ff5:	813820        	src	a3, a8, a2
    9ff8:	945d           	ae_zext16	a5, a4
    9ffa:	a12200        	sll	a2, a2
    9ffd:	f58040        	extui	a8, a4, 16, 16
    a000:	404010        	ssai	16
    a003:	c2cd80        	quou	a12, a13, a8
    a006:	0cbd           	mov.n	a11, a12
    a008:	82a5c0        	mull	a10, a5, a12
    a00b:	e2dd80        	remu	a13, a13, a8
    a00e:	81dd30        	src	a13, a13, a3
    a011:	0d9d           	mov.n	a9, a13
    a013:	0ebda7        	bgeu	a13, a10, a025 <__udivdi3+0x175>
    a016:	bc0b           	addi.n	a11, a12, -1
    a018:	9d4a           	add.n	a9, a13, a4
    a01a:	073947        	bltu	a9, a4, a025 <__udivdi3+0x175>
    a01d:	04b9a7        	bgeu	a9, a10, a025 <__udivdi3+0x175>
    a020:	949a           	add.n	a9, a4, a9
    a022:	feccb2        	addi	a11, a12, -2
    a025:	c0d9a0        	sub	a13, a9, a10
    a028:	e2ed80        	remu	a14, a13, a8
    a02b:	0bfe30        	depbits	a3, a14, 16, 16
    a02e:	c2dd80        	quou	a13, a13, a8
    a031:	0dad           	mov.n	a10, a13
    a033:	82c5d0        	mull	a12, a5, a13
    a036:	039d           	mov.n	a9, a3
    a038:	0eb3c7        	bgeu	a3, a12, a04a <__udivdi3+0x19a>
    a03b:	ad0b           	addi.n	a10, a13, -1
    a03d:	934a           	add.n	a9, a3, a4
    a03f:	073947        	bltu	a9, a4, a04a <__udivdi3+0x19a>
    a042:	04b9c7        	bgeu	a9, a12, a04a <__udivdi3+0x19a>
    a045:	949a           	add.n	a9, a4, a9
    a047:	fecda2        	addi	a10, a13, -2
    a04a:	c039c0        	sub	a3, a9, a12
    a04d:	11fb00        	slli	a15, a11, 16
    a050:	20aaf0        	or	a10, a10, a15

0000a053 <__udivdi3+0x1a3>:
    a053:	404010        	ssai	16
    a056:	e2d380        	remu	a13, a3, a8
    a059:	c2c380        	quou	a12, a3, a8
    a05c:	0cbd           	mov.n	a11, a12
    a05e:	8295c0        	mull	a9, a5, a12
    a061:	81dd20        	src	a13, a13, a2
    a064:	0d3d           	mov.n	a3, a13
    a066:	0ebd97        	bgeu	a13, a9, a078 <__udivdi3+0x1c8>
    a069:	bc0b           	addi.n	a11, a12, -1
    a06b:	3d4a           	add.n	a3, a13, a4
    a06d:	073347        	bltu	a3, a4, a078 <__udivdi3+0x1c8>
    a070:	04b397        	bgeu	a3, a9, a078 <__udivdi3+0x1c8>
    a073:	343a           	add.n	a3, a4, a3
    a075:	feccb2        	addi	a11, a12, -2
    a078:	c0e390        	sub	a14, a3, a9
    a07b:	c29e80        	quou	a9, a14, a8
    a07e:	093d           	mov.n	a3, a9
    a080:	825590        	mull	a5, a5, a9
    a083:	e2ee80        	remu	a14, a14, a8
    a086:	0bfe20        	depbits	a2, a14, 16, 16
    a089:	23b257        	bgeu	a2, a5, a0b0 <__udivdi3+0x200>
    a08c:	390b           	addi.n	a3, a9, -1
    a08e:	224a           	add.n	a2, a2, a4
    a090:	1c3247        	bltu	a2, a4, a0b0 <__udivdi3+0x200>
    a093:	19b257        	bgeu	a2, a5, a0b0 <__udivdi3+0x200>
    a096:	113b00        	slli	a3, a11, 16
    a099:	fec922        	addi	a2, a9, -2
    a09c:	202230        	or	a2, a2, a3
    a09f:	0a3d           	mov.n	a3, a10
    a0a1:	f01d           	retw.n

0000a0a3 <__udivdi3+0x1f3>:
    a0a3:	023537        	bltu	a5, a3, a0a9 <__udivdi3+0x1f9>
    a0a6:	103297        	bltu	a2, a9, a0ba <__udivdi3+0x20a>

0000a0a9 <__udivdi3+0x1f9>:
    a0a9:	120c           	movi.n	a2, 1
    a0ab:	030c           	movi.n	a3, 0
    a0ad:	f01d           	retw.n

0000a0af <__udivdi3+0x1ff>:
	...

0000a0b0 <__udivdi3+0x200>:
    a0b0:	112b00        	slli	a2, a11, 16
    a0b3:	202320        	or	a2, a3, a2
    a0b6:	0a3d           	mov.n	a3, a10
    a0b8:	f01d           	retw.n

0000a0ba <__udivdi3+0x20a>:
    a0ba:	020c           	movi.n	a2, 0
    a0bc:	030c           	movi.n	a3, 0
    a0be:	f01d           	retw.n

0000a0c0 <__udivdi3+0x210>:
    a0c0:	03ad           	mov.n	a10, a3
    a0c2:	995d           	ae_zext16	a5, a9
    a0c4:	c03890        	sub	a3, a8, a9
    a0c7:	f58090        	extui	a8, a9, 16, 16
    a0ca:	ffe146        	j	a053 <__udivdi3+0x1a3>

0000a0cd <__udivdi3+0x21d>:
    a0cd:	000000                                        ...

0000a0d0 <_fini>:
    a0d0:	008136        	entry	a1, 64

0000a0d3 <_fini+0x3>:
    a0d3:	f01d           	retw.n
