
Build/lib/pisplit_ecnr_inear_position_independent.splitload.lib:     file format elf32-xtensa-le


Disassembly of section .text:

00000000 <_init-0x420>:
       0:	0000a684 00008820 0000d784 00000428     .... .......(...
      10:	0000a778 0000d778 00000450 00001000     x...x...P.......
      20:	0000a3f0 0000ab10 7fffffff 0000ab80     ................
      30:	80000000 000094d0 00009540 00010000     ........@.......
      40:	00001922 ffff54e0 00008000 000054e0     "....T.......T..
      50:	00000b1f 00007fff 00006488 00004001     .........d...@..
      60:	0000c001 ffffc000 ffff8000 ffff4000     .............@..
      70:	ffffb49b 00004000 0000ffff ffff0000     .....@..........
      80:	00002688 000241f8 00009570 00002c5d     .&...A..p...],..
      90:	00029973 00009580 ffff7fff 7fffff00     s...............
      a0:	0000d560 00000db0 00000930 00000d40     `.......0...@...
      b0:	00000ccd 00000b00 0000fffe fffeffff     ................
      c0:	000049af 00000f70 00008808 ffffb800     .I..p...........
      d0:	0000d5b0 00006a4d ffff8400 00000e39     ....Mj......9...
      e0:	0000d5f0 0000d5d0 0000b3a0 00004800     .............H..
      f0:	0015cc64 007af1aa 00004938 00800000     d.....z.8I......
     100:	00000cd0 00000eb8 00001004 01000000     ................
     110:	0019999a 00002d78 000008d8 fffe7961     ....x-......ay..
     120:	0000d610 6a4d3c26 0000b4fa ffffb4fa     ....&<Mj........
     130:	ffffcb05 c0000000 000088b0 00001f1c     ................
     140:	00001944 00001aa4 000028dc 00003664     D........(..d6..
     150:	00003ab4 00001d20 00001414 00001320     .:.. ....... ...
     160:	00000800 0000195c 00001488 00002914     ....\........)..
     170:	00001b60 00003df8 000022d4 00001abc     `....=..."......
     180:	00001350 00002da0 000030c0 00003ae0     P....-...0...:..
     190:	00003684 00001d54 00000f14 00003224     .6..T.......$2..
     1a0:	0000d780 0000958c 00005738 000095a8     ........8W......
     1b0:	000057f4 000095c8 00006220 000095e8     .W...... b......
     1c0:	00006974 00009604 00006f04 00009618     ti.......o......
     1d0:	000068b0 00009630 00006c68 00009644     .h..0...hl..D...
     1e0:	00006910 0000965c 000069b4 0000967c     .i..\....i..|...
     1f0:	000069e0 00009698 00000824 000096a8     .i......$.......
     200:	00005740 000096c4 000069d8 000096e8     @W.......i......
     210:	000069e8 00009708 000069f0 00009728     .i.......i..(...
     220:	000057dc 0000aa40 00009740 00008710     .W..@...@.......
     230:	00009b40 00009f40 0000a688 00004d28     @...@.......(M..
     240:	00004d10 00200000 002aaa00 0000aa80     .M.... ...*.....
     250:	0000aa84 00080000 00007e78 00007d60     ........x~..`}..
     260:	00004da0 0000aa98 00004f08 00004e30     .M.......O..0N..
     270:	00004ff4 00000840 0000a890 00003ca8     .O..@........<..
     280:	0000049c 000057a8 00005754 00005768     .....W..TW..hW..
     290:	0000a788 00004a68 00006cf8 0000577c     ....hJ...l..|W..
     2a0:	0000d788 00002000 00003cd8 0000ac9c     ..... ...<......
     2b0:	0000aab0 0000acac 0000acec 0000ad30     ............0...
     2c0:	0000acb0 007fffff 00011111 0000a780     ................
     2d0:	000059bc 0000689c 00005e3c 00005c18     .Y...h..<^...\..
     2e0:	000059f8 00005cc4 00005fc4 0000509c     .Y...\..._...P..
     2f0:	00005380 00005ff8 00005d98 00005b54     .S..._...]..T[..
     300:	000060c4 000056a0 000056ec 00003ec0     .`...V...V...>..
     310:	7fff0000 0000615c 000060e0 00005c64     ....\a...`..d\..
     320:	0000a88a 00006f40 0000a830 00006ca8     ....@o..0....l..
     330:	00007f80 00000918 00006aa0 00006a20     .........j.. j..
     340:	00006a50 0000b070 0000a768 0000a868     Pj..p...h...h...
     350:	b8000000 40000000 000007a8 00009600     .......@........
     360:	00006ab0 0000a864 00006d08 0000a86c     .j..d....m..l...
     370:	00007074 000072f4 0000746c 000075bc     tp...r..lt...u..
     380:	000076c8 00007784 00007a40 0000b290     .v...w..@z......
     390:	00006d5c 00006f90 0000a444 0000a448     \m...o..D...H...
     3a0:	0000ae10 0000ae40 00000898 0000aaf8     ....@...........
     3b0:	0000aafc 00006fe8 000e38e4 0000adf0     .....o...8......
     3c0:	0000ae30 00124925 00007048 00007768     0...%I..Hp..hw..
     3d0:	0000a442 0000aaf0 80000001 00005a82     B............Z..
     3e0:	0000a634 0000809c 0000a33c 00007f10     4.......<.......
     3f0:	00007e98 000080bc 000082a0 000082cc     .~..............
     400:	000082fc 00008358 0000832c 0000a340     ....X...,...@...
     410:	000083a0 000083cc 000085d0 000086a0     ................

00000420 <_init>:
     420:	008136        	entry	a1, 64
     423:	f01d           	retw.n

00000425 <_init+0x5>:
     425:	000000                                        ...

00000428 <share_tmp_buffer>:
     428:	004136        	entry	a1, 32
     42b:	fef541        	l32r	a4, 0 (a684 <fftorder_512_12b+0x244>)
     42e:	60d282        	addmi	a8, a2, 0x6000
     431:	68d232        	addmi	a3, a2, 0x6800
     434:	50d292        	addmi	a9, a2, 0x5000
     437:	a0c992        	addi	a9, a9, -96
     43a:	a0c882        	addi	a8, a8, -96
     43d:	a0c332        	addi	a3, a3, -96
     440:	424a           	add.n	a4, a2, a4
     442:	7e6492        	s32i	a9, a4, 0x1f8
     445:	806432        	s32i	a3, a4, 0x200
     448:	7f6482        	s32i	a8, a4, 0x1fc
     44b:	f01d           	retw.n

0000044d <share_tmp_buffer+0x25>:
     44d:	000000                                        ...

00000450 <common_ECNR_PARA_init_v2>:
     450:	004136        	entry	a1, 32
     453:	a28b           	addi.n	a10, a2, 8
     455:	feeb81        	l32r	a8, 4 (8820 <xt_memcpy>)
     458:	b32b           	addi.n	a11, a3, 2
     45a:	79a0c2        	movi	a12, 121
     45d:	0008e0        	callx8	a8
     460:	5c0c           	movi.n	a12, 5
     462:	01d3b2        	addmi	a11, a3, 0x100
     465:	01d2a2        	addmi	a10, a2, 0x100
     468:	fee781        	l32r	a8, 4 (8820 <xt_memcpy>)
     46b:	fccaa2        	addi	a10, a10, -4
     46e:	f4cbb2        	addi	a11, a11, -12
     471:	0008e0        	callx8	a8
     474:	60a0c2        	movi	a12, 96
     477:	01d2a2        	addmi	a10, a2, 0x100
     47a:	01d3b2        	addmi	a11, a3, 0x100
     47d:	fee181        	l32r	a8, 4 (8820 <xt_memcpy>)
     480:	fecbb2        	addi	a11, a11, -2
     483:	aa8b           	addi.n	a10, a10, 8
     485:	0008e0        	callx8	a8
     488:	fee091        	l32r	a9, 8 (d784 <p_ecnr_mem>)
     48b:	0998           	l32i.n	a9, a9, 0
     48d:	29d992        	addmi	a9, a9, 0x2900
     490:	7fd992        	addmi	a9, a9, 0x7f00
     493:	1f2992        	l32i	a9, a9, 124
     496:	0299           	s32i.n	a9, a2, 0
     498:	f01d           	retw.n

0000049a <common_ECNR_PARA_init_v2+0x4a>:
	...

0000049c <TX_ECNR_PARA_init>:
     49c:	006136        	entry	a1, 48
     49f:	0129           	s32i.n	a2, a1, 0
     4a1:	fed921        	l32r	a2, 8 (d784 <p_ecnr_mem>)
     4a4:	feda81        	l32r	a8, c (428 <share_tmp_buffer>)
     4a7:	0022a2        	l32i	a10, a2, 0
     4aa:	0008e0        	callx8	a8
     4ad:	03bd           	mov.n	a11, a3
     4af:	fed8c1        	l32r	a12, 10 (a778 <fftorder_512_12b+0x338>)
     4b2:	02a8           	l32i.n	a10, a2, 0
     4b4:	fed981        	l32r	a8, 18 (450 <common_ECNR_PARA_init_v2>)
     4b7:	fed771        	l32r	a7, 14 (d778 <__bss_start>)
     4ba:	aaca           	add.n	a10, a10, a12
     4bc:	412aa2        	l32i	a10, a10, 0x104
     4bf:	07a9           	s32i.n	a10, a7, 0
     4c1:	0008e0        	callx8	a8
     4c4:	02e8           	l32i.n	a14, a2, 0
     4c6:	b42b           	addi.n	a11, a4, 2
     4c8:	07d8           	l32i.n	a13, a7, 0
     4ca:	c8a342        	movi	a4, 0x3c8
     4cd:	02dee2        	addmi	a14, a14, 0x200
     4d0:	041dc2        	l16ui	a12, a13, 8
     4d3:	405ec2        	s16i	a12, a14, 128
     4d6:	01e8           	l32i.n	a14, a1, 0
     4d8:	02dda2        	addmi	a10, a13, 0x200
     4db:	c8caa2        	addi	a10, a10, -56
     4de:	2b1e16        	beqz	a14, 793 <TX_ECNR_PARA_init+0x2f7>
     4e1:	80a0c2        	movi	a12, 128
     4e4:	fec881        	l32r	a8, 4 (8820 <xt_memcpy>)
     4e7:	821d92        	l16ui	a9, a13, 0x104
     4ea:	025d92        	s16i	a9, a13, 4
     4ed:	0008e0        	callx8	a8
     4f0:	07d8           	l32i.n	a13, a7, 0
     4f2:	feca91        	l32r	a9, 1c (1000 <inv_mel_filter+0x90>)
     4f5:	80a0a2        	movi	a10, 128
     4f8:	03dd82        	addmi	a8, a13, 0x300
     4fb:	c8c882        	addi	a8, a8, -56
     4fe:	028a76        	loop	a10, 504 <TX_ECNR_PARA_init+0x68>
     501:	09c894        	ae_s16ip	a9, a8, 2

00000504 <TX_ECNR_PARA_init+0x68>:
     504:	4c0c           	movi.n	a12, 4
     506:	febf81        	l32r	a8, 4 (8820 <xt_memcpy>)
     509:	02a8           	l32i.n	a10, a2, 0
     50b:	02ddb2        	addmi	a11, a13, 0x200
     50e:	bacbb2        	addi	a11, a11, -70
     511:	02daa2        	addmi	a10, a10, 0x200
     514:	70caa2        	addi	a10, a10, 112
     517:	0008e0        	callx8	a8
     51a:	b52b           	addi.n	a11, a5, 2
     51c:	00a1c2        	movi	a12, 0x100
     51f:	febce1        	l32r	a14, 10 (a778 <fftorder_512_12b+0x338>)
     522:	07a8           	l32i.n	a10, a7, 0
     524:	0022d2        	l32i	a13, a2, 0
     527:	feb781        	l32r	a8, 4 (8820 <xt_memcpy>)
     52a:	db1a92        	l16ui	a9, a10, 0x1b6
     52d:	80dde0        	add	a13, a13, a14
     530:	04daa2        	addmi	a10, a10, 0x400
     533:	48caa2        	addi	a10, a10, 72
     536:	7f5d92        	s16i	a9, a13, 254
     539:	0008e0        	callx8	a8
     53c:	b62b           	addi.n	a11, a6, 2
     53e:	07a8           	l32i.n	a10, a7, 0
     540:	feb181        	l32r	a8, 4 (8820 <xt_memcpy>)
     543:	0c4c           	movi.n	a12, 64
     545:	aa4a           	add.n	a10, a10, a4
     547:	0008e0        	callx8	a8
     54a:	cc1c           	movi.n	a12, 28
     54c:	feae81        	l32r	a8, 4 (8820 <xt_memcpy>)
     54f:	07a8           	l32i.n	a10, a7, 0
     551:	02d3b2        	addmi	a11, a3, 0x200
     554:	becbb2        	addi	a11, a11, -66
     557:	06daa2        	addmi	a10, a10, 0x600
     55a:	48caa2        	addi	a10, a10, 72
     55d:	0008e0        	callx8	a8
     560:	e0a542        	movi	a4, 0x5e0
     563:	8c3c           	movi.n	a12, 56
     565:	fea781        	l32r	a8, 4 (8820 <xt_memcpy>)
     568:	07a8           	l32i.n	a10, a7, 0
     56a:	01d322        	addmi	a2, a3, 0x100
     56d:	02d3b2        	addmi	a11, a3, 0x200
     570:	f6cbb2        	addi	a11, a11, -10
     573:	78c222        	addi	a2, a2, 120
     576:	01d292        	addmi	a9, a2, 0x100
     579:	1609e2        	l8ui	a14, a9, 22
     57c:	1709f2        	l8ui	a15, a9, 23
     57f:	180952        	l8ui	a5, a9, 24
     582:	06dad2        	addmi	a13, a10, 0x600
     585:	190992        	l8ui	a9, a9, 25
     588:	07daa2        	addmi	a10, a10, 0x700
     58b:	88caa2        	addi	a10, a10, -120
     58e:	119980        	slli	a9, a9, 8
     591:	209950        	or	a9, a9, a5
     594:	119980        	slli	a9, a9, 8
     597:	2099f0        	or	a9, a9, a15
     59a:	119980        	slli	a9, a9, 8
     59d:	2099e0        	or	a9, a9, a14
     5a0:	206d92        	s32i	a9, a13, 128
     5a3:	0008e0        	callx8	a8
     5a6:	07a8           	l32i.n	a10, a7, 0
     5a8:	f102b2        	l8ui	a11, a2, 241
     5ab:	02d2e2        	addmi	a14, a2, 0x200
     5ae:	01d262        	addmi	a6, a2, 0x100
     5b1:	760682        	l8ui	a8, a6, 118
     5b4:	6306f2        	l8ui	a15, a6, 99
     5b7:	620652        	l8ui	a5, a6, 98
     5ba:	8ccee2        	addi	a14, a14, -116
     5bd:	11ff80        	slli	a15, a15, 8
     5c0:	20ff50        	or	a15, a15, a5
     5c3:	770652        	l8ui	a5, a6, 119
     5c6:	030ed2        	l8ui	a13, a14, 3
     5c9:	11bb80        	slli	a11, a11, 8
     5cc:	115580        	slli	a5, a5, 8
     5cf:	205580        	or	a5, a5, a8
     5d2:	750682        	l8ui	a8, a6, 117
     5d5:	ca4a           	add.n	a12, a10, a4
     5d7:	115580        	slli	a5, a5, 8
     5da:	205580        	or	a5, a5, a8
     5dd:	610682        	l8ui	a8, a6, 97
     5e0:	07daa2        	addmi	a10, a10, 0x700
     5e3:	11ff80        	slli	a15, a15, 8
     5e6:	20ff80        	or	a15, a15, a8
     5e9:	600682        	l8ui	a8, a6, 96
     5ec:	740662        	l8ui	a6, a6, 116
     5ef:	aa4b           	addi.n	a10, a10, 4
     5f1:	115580        	slli	a5, a5, 8
     5f4:	205560        	or	a5, a5, a6
     5f7:	020e62        	l8ui	a6, a14, 2
     5fa:	11dd80        	slli	a13, a13, 8
     5fd:	11ff80        	slli	a15, a15, 8
     600:	20dd60        	or	a13, a13, a6
     603:	010e62        	l8ui	a6, a14, 1
     606:	11dd80        	slli	a13, a13, 8
     609:	000ee2        	l8ui	a14, a14, 0
     60c:	20dd60        	or	a13, a13, a6
     60f:	11dd80        	slli	a13, a13, 8
     612:	20dde0        	or	a13, a13, a14
     615:	296cd2        	s32i	a13, a12, 164
     618:	f002d2        	l8ui	a13, a2, 240
     61b:	20ff80        	or	a15, a15, a8
     61e:	fe7981        	l32r	a8, 4 (8820 <xt_memcpy>)
     621:	20bbd0        	or	a11, a11, a13
     624:	ef02d2        	l8ui	a13, a2, 239
     627:	466c52        	s32i	a5, a12, 0x118
     62a:	11bb80        	slli	a11, a11, 8
     62d:	20bbd0        	or	a11, a11, a13
     630:	ee02d2        	l8ui	a13, a2, 238
     633:	486cf2        	s32i	a15, a12, 0x120
     636:	11bb80        	slli	a11, a11, 8
     639:	20bbd0        	or	a11, a11, a13
     63c:	476cb2        	s32i	a11, a12, 0x11c
     63f:	06a0c2        	movi	a12, 6
     642:	02d3b2        	addmi	a11, a3, 0x200
     645:	6acbb2        	addi	a11, a11, 106
     648:	0008e0        	callx8	a8
     64b:	07a8           	l32i.n	a10, a7, 0
     64d:	7fc2b2        	addi	a11, a2, 127
     650:	01d2f2        	addmi	a15, a2, 0x100
     653:	7a0f92        	l8ui	a9, a15, 122
     656:	660f82        	l8ui	a8, a15, 102
     659:	7b0fe2        	l8ui	a14, a15, 123
     65c:	810bc2        	l8ui	a12, a11, 129
     65f:	670fd2        	l8ui	a13, a15, 103
     662:	820bb2        	l8ui	a11, a11, 130
     665:	11ee80        	slli	a14, a14, 8
     668:	11dd80        	slli	a13, a13, 8
     66b:	11bb80        	slli	a11, a11, 8
     66e:	20dd80        	or	a13, a13, a8
     671:	20ee90        	or	a14, a14, a9
     674:	790f82        	l8ui	a8, a15, 121
     677:	11ee80        	slli	a14, a14, 8
     67a:	650f92        	l8ui	a9, a15, 101
     67d:	20bbc0        	or	a11, a11, a12
     680:	11dd80        	slli	a13, a13, 8
     683:	ca4a           	add.n	a12, a10, a4
     685:	11bb80        	slli	a11, a11, 8
     688:	07daa2        	addmi	a10, a10, 0x700
     68b:	1ccaa2        	addi	a10, a10, 28
     68e:	20dd90        	or	a13, a13, a9
     691:	20ee80        	or	a14, a14, a8
     694:	11ee80        	slli	a14, a14, 8
     697:	640f82        	l8ui	a8, a15, 100
     69a:	780ff2        	l8ui	a15, a15, 120
     69d:	11dd80        	slli	a13, a13, 8
     6a0:	20dd80        	or	a13, a13, a8
     6a3:	20eef0        	or	a14, a14, a15
     6a6:	4c6ce2        	s32i	a14, a12, 0x130
     6a9:	4e6cd2        	s32i	a13, a12, 0x138
     6ac:	ff02e2        	l8ui	a14, a2, 255
     6af:	fe5581        	l32r	a8, 4 (8820 <xt_memcpy>)
     6b2:	fe02d2        	l8ui	a13, a2, 254
     6b5:	20bbe0        	or	a11, a11, a14
     6b8:	11bb80        	slli	a11, a11, 8
     6bb:	20bbd0        	or	a11, a11, a13
     6be:	4d6cb2        	s32i	a11, a12, 0x134
     6c1:	2c0c           	movi.n	a12, 2
     6c3:	02d3b2        	addmi	a11, a3, 0x200
     6c6:	7acbb2        	addi	a11, a11, 122
     6c9:	0008e0        	callx8	a8
     6cc:	2c0c           	movi.n	a12, 2
     6ce:	fe4d81        	l32r	a8, 4 (8820 <xt_memcpy>)
     6d1:	07a8           	l32i.n	a10, a7, 0
     6d3:	03d3b2        	addmi	a11, a3, 0x300
     6d6:	8acbb2        	addi	a11, a11, -118
     6d9:	07daa2        	addmi	a10, a10, 0x700
     6dc:	20caa2        	addi	a10, a10, 32
     6df:	0008e0        	callx8	a8
     6e2:	3c0c           	movi.n	a12, 3
     6e4:	fe4881        	l32r	a8, 4 (8820 <xt_memcpy>)
     6e7:	07a8           	l32i.n	a10, a7, 0
     6e9:	03d3b2        	addmi	a11, a3, 0x300
     6ec:	e4cbb2        	addi	a11, a11, -28
     6ef:	07daa2        	addmi	a10, a10, 0x700
     6f2:	24caa2        	addi	a10, a10, 36
     6f5:	0008e0        	callx8	a8
     6f8:	9c0c           	movi.n	a12, 9
     6fa:	fe4281        	l32r	a8, 4 (8820 <xt_memcpy>)
     6fd:	07a8           	l32i.n	a10, a7, 0
     6ff:	03d3b2        	addmi	a11, a3, 0x300
     702:	92cbb2        	addi	a11, a11, -110
     705:	07daa2        	addmi	a10, a10, 0x700
     708:	2ccaa2        	addi	a10, a10, 44
     70b:	0008e0        	callx8	a8
     70e:	2c0c           	movi.n	a12, 2
     710:	fe3d81        	l32r	a8, 4 (8820 <xt_memcpy>)
     713:	07a8           	l32i.n	a10, a7, 0
     715:	03d3b2        	addmi	a11, a3, 0x300
     718:	01d292        	addmi	a9, a2, 0x100
     71b:	1009e2        	l8ui	a14, a9, 16
     71e:	e0cbb2        	addi	a11, a11, -32
     721:	110992        	l8ui	a9, a9, 17
     724:	80da40        	add	a13, a10, a4
     727:	07daa2        	addmi	a10, a10, 0x700
     72a:	40caa2        	addi	a10, a10, 64
     72d:	119980        	slli	a9, a9, 8
     730:	2099e0        	or	a9, a9, a14
     733:	899d           	ae_sext16	a9, a9
     735:	af5d92        	s16i	a9, a13, 0x15e
     738:	0008e0        	callx8	a8
     73b:	2c0c           	movi.n	a12, 2
     73d:	fe3181        	l32r	a8, 4 (8820 <xt_memcpy>)
     740:	07a8           	l32i.n	a10, a7, 0
     742:	03d3b2        	addmi	a11, a3, 0x300
     745:	bb8b           	addi.n	a11, a11, 8
     747:	07daa2        	addmi	a10, a10, 0x700
     74a:	44caa2        	addi	a10, a10, 68
     74d:	0008e0        	callx8	a8
     750:	6c0c           	movi.n	a12, 6
     752:	fe2c81        	l32r	a8, 4 (8820 <xt_memcpy>)
     755:	07a8           	l32i.n	a10, a7, 0
     757:	03d3b2        	addmi	a11, a3, 0x300
     75a:	bbcb           	addi.n	a11, a11, 12
     75c:	07daa2        	addmi	a10, a10, 0x700
     75f:	48caa2        	addi	a10, a10, 72
     762:	0008e0        	callx8	a8
     765:	5c0c           	movi.n	a12, 5
     767:	fe2781        	l32r	a8, 4 (8820 <xt_memcpy>)
     76a:	07a8           	l32i.n	a10, a7, 0
     76c:	02d3b2        	addmi	a11, a3, 0x200
     76f:	7ecbb2        	addi	a11, a11, 126
     772:	07daa2        	addmi	a10, a10, 0x700
     775:	54caa2        	addi	a10, a10, 84
     778:	0008e0        	callx8	a8
     77b:	ac1c           	movi.n	a12, 26
     77d:	fe2181        	l32r	a8, 4 (8820 <xt_memcpy>)
     780:	07a8           	l32i.n	a10, a7, 0
     782:	03d3b2        	addmi	a11, a3, 0x300
     785:	a4cbb2        	addi	a11, a11, -92
     788:	07daa2        	addmi	a10, a10, 0x700
     78b:	60caa2        	addi	a10, a10, 96
     78e:	0008e0        	callx8	a8
     791:	f01d           	retw.n

00000793 <TX_ECNR_PARA_init+0x2f7>:
     793:	00a1c2        	movi	a12, 0x100
     796:	fe1b81        	l32r	a8, 4 (8820 <xt_memcpy>)
     799:	811d92        	l16ui	a9, a13, 0x102
     79c:	025d92        	s16i	a9, a13, 4
     79f:	0008e0        	callx8	a8
     7a2:	07d8           	l32i.n	a13, a7, 0
     7a4:	ff5706        	j	504 <TX_ECNR_PARA_init+0x68>

000007a7 <TX_ECNR_PARA_init+0x30b>:
	...

000007a8 <RX_ECNR_PARA_init>:
     7a8:	004136        	entry	a1, 32
     7ab:	fe1761        	l32r	a6, 8 (d784 <p_ecnr_mem>)
     7ae:	fe1781        	l32r	a8, c (428 <share_tmp_buffer>)
     7b1:	0020f0        	nop
     7b4:	06a8           	l32i.n	a10, a6, 0
     7b6:	0008e0        	callx8	a8
     7b9:	fe1551        	l32r	a5, 10 (a778 <fftorder_512_12b+0x338>)
     7bc:	06a8           	l32i.n	a10, a6, 0
     7be:	03bd           	mov.n	a11, a3
     7c0:	fe1681        	l32r	a8, 18 (450 <common_ECNR_PARA_init_v2>)
     7c3:	fe1431        	l32r	a3, 14 (d778 <__bss_start>)
     7c6:	aa5a           	add.n	a10, a10, a5
     7c8:	412aa2        	l32i	a10, a10, 0x104
     7cb:	03a9           	s32i.n	a10, a3, 0
     7cd:	0008e0        	callx8	a8
     7d0:	03a8           	l32i.n	a10, a3, 0
     7d2:	b42b           	addi.n	a11, a4, 2
     7d4:	02daa2        	addmi	a10, a10, 0x200
     7d7:	c8caa2        	addi	a10, a10, -56
     7da:	b2ac           	beqz.n	a2, 809 <RX_ECNR_PARA_init+0x61>
     7dc:	fe0a81        	l32r	a8, 4 (8820 <xt_memcpy>)
     7df:	80a0c2        	movi	a12, 128
     7e2:	0008e0        	callx8	a8
     7e5:	03b8           	l32i.n	a11, a3, 0
     7e7:	fe0d91        	l32r	a9, 1c (1000 <inv_mel_filter+0x90>)
     7ea:	80a0a2        	movi	a10, 128
     7ed:	03db82        	addmi	a8, a11, 0x300
     7f0:	c8c882        	addi	a8, a8, -56
     7f3:	f03d           	nop.n
     7f5:	028a76        	loop	a10, 7fb <RX_ECNR_PARA_init+0x53>
     7f8:	09c894        	ae_s16ip	a9, a8, 2

000007fb <RX_ECNR_PARA_init+0x53>:
     7fb:	06a8           	l32i.n	a10, a6, 0
     7fd:	da1b92        	l16ui	a9, a11, 0x1b4
     800:	aa5a           	add.n	a10, a10, a5
     802:	990b           	addi.n	a9, a9, -1
     804:	7e5a92        	s16i	a9, a10, 252
     807:	f01d           	retw.n

00000809 <RX_ECNR_PARA_init+0x61>:
     809:	fdfe81        	l32r	a8, 4 (8820 <xt_memcpy>)
     80c:	00a1c2        	movi	a12, 0x100
     80f:	0008e0        	callx8	a8
     812:	0398           	l32i.n	a9, a3, 0
     814:	06a8           	l32i.n	a10, a6, 0
     816:	da1992        	l16ui	a9, a9, 0x1b4
     819:	aa5a           	add.n	a10, a10, a5
     81b:	990b           	addi.n	a9, a9, -1
     81d:	7e5a92        	s16i	a9, a10, 252
     820:	f01d           	retw.n

00000822 <RX_ECNR_PARA_init+0x7a>:
	...

00000824 <EQ_update>:
     824:	004136        	entry	a1, 32
     827:	03bd           	mov.n	a11, a3
     829:	fdf7c1        	l32r	a12, 8 (d784 <p_ecnr_mem>)
     82c:	fdfda1        	l32r	a10, 20 (a3f0 <ROOTS_512_Q16+0xb0>)
     82f:	fdf581        	l32r	a8, 4 (8820 <xt_memcpy>)
     832:	0c29           	s32i.n	a2, a12, 0
     834:	a2aa           	add.n	a10, a2, a10
     836:	00a1c2        	movi	a12, 0x100
     839:	0008e0        	callx8	a8
     83c:	f01d           	retw.n

0000083e <EQ_update+0x1a>:
	...

00000840 <HIFI_sqrt>:
     840:	006136        	entry	a1, 48
     843:	070c           	movi.n	a7, 0
     845:	4913a6        	blti	a3, 1, 892 <HIFI_sqrt+0x52>
     848:	fdf751        	l32r	a5, 24 (ab10 <TABLE_SQRT>)
     84b:	40e380        	nsa	a8, a3
     84e:	401800        	ssl	a8
     851:	c02280        	sub	a2, a2, a8
     854:	a16300        	sll	a6, a3
     857:	043020        	extui	a3, a2, 0, 1
     85a:	400300        	ssr	a3
     85d:	b16060        	sra	a6, a6
     860:	416960        	srli	a6, a6, 9
     863:	314060        	srai	a4, a6, 16
     866:	f0c442        	addi	a4, a4, -16
     869:	534470        	max	a4, a4, a7
     86c:	904450        	addx2	a4, a4, a5
     86f:	245d           	ae_l16si.n	a5, a4, 0
     871:	344d           	ae_l16si.n	a4, a4, 2
     873:	300664        	ae_cvtp24a16x2.ll	aep0, a6, a6
     876:	c04450        	sub	a4, a4, a5
     879:	115500        	slli	a5, a5, 16
     87c:	114400        	slli	a4, a4, 16
     87f:	364434        	ae_cvtq48a32s	aeq1, a4
     882:	360534        	ae_cvtq48a32s	aeq0, a5
     885:	d4e110223f 	{ add	a2, a2, a3; ae_mulaq32sp16u.l	aeq0, aeq1, aep0 }
     88a:	212120        	srai	a2, a2, 1
     88d:	368304        	ae_trunca32q48	a3, aeq0
     890:	f01d           	retw.n

00000892 <HIFI_sqrt+0x52>:
     892:	072d           	mov.n	a2, a7
     894:	023d           	mov.n	a3, a2
     896:	f01d           	retw.n

00000898 <Log2_norm>:
     898:	004136        	entry	a1, 32
     89b:	3212a6        	blti	a2, 1, 8d1 <Log2_norm+0x39>
     89e:	046c           	movi.n	a4, -32
     8a0:	2da437        	bge	a4, a3, 8d1 <Log2_norm+0x39>
     8a3:	052c           	movi.n	a5, 32
     8a5:	04a537        	bge	a5, a3, 8ad <Log2_norm+0x15>
     8a8:	fde021        	l32r	a2, 28 (7fffffff <_end+0x7fff2873>)
     8ab:	f01d           	retw.n

000008ad <Log2_norm+0x15>:
     8ad:	fddf41        	l32r	a4, 2c (ab80 <TABLE_LOG2_1530>)
     8b0:	558820        	extui	a8, a2, 24, 6
     8b3:	1188e0        	slli	a8, a8, 2
     8b6:	603484        	ae_lq32f.xu	aeq0, a4, a8
     8b9:	604414        	ae_lq32f.i	aeq1, a4, 4
     8bc:	f92ae2022f 	{ ae_movpa24x2	aep0, a2, a2; ae_subq56	aeq1, aeq1, aeq0 }
     8c1:	030174        	ae_mulaq32sp16u.l	aeq0, aeq1, aep0
     8c4:	368204        	ae_trunca32q48	a2, aeq0
     8c7:	014360        	slli	a4, a3, 26
     8ca:	212520        	srai	a2, a2, 5
     8cd:	224a           	add.n	a2, a2, a4
     8cf:	f01d           	retw.n

000008d1 <Log2_norm+0x39>:
     8d1:	fdd721        	l32r	a2, 30 (80000000 <_end+0x7fff2874>)
     8d4:	f01d           	retw.n

000008d6 <Log2_norm+0x3e>:
	...

000008d8 <HIFI_sqrt_ie>:
     8d8:	006136        	entry	a1, 48
     8db:	070c           	movi.n	a7, 0
     8dd:	4913a6        	blti	a3, 1, 92a <HIFI_sqrt_ie+0x52>
     8e0:	fdd551        	l32r	a5, 34 (94d0 <TABLE_IE_43>)
     8e3:	40e380        	nsa	a8, a3
     8e6:	401800        	ssl	a8
     8e9:	c02280        	sub	a2, a2, a8
     8ec:	a16300        	sll	a6, a3
     8ef:	043020        	extui	a3, a2, 0, 1
     8f2:	400300        	ssr	a3
     8f5:	b16060        	sra	a6, a6
     8f8:	416960        	srli	a6, a6, 9
     8fb:	314060        	srai	a4, a6, 16
     8fe:	f0c442        	addi	a4, a4, -16
     901:	534470        	max	a4, a4, a7
     904:	904450        	addx2	a4, a4, a5
     907:	245d           	ae_l16si.n	a5, a4, 0
     909:	344d           	ae_l16si.n	a4, a4, 2
     90b:	300664        	ae_cvtp24a16x2.ll	aep0, a6, a6
     90e:	c04450        	sub	a4, a4, a5
     911:	115500        	slli	a5, a5, 16
     914:	114400        	slli	a4, a4, 16
     917:	364434        	ae_cvtq48a32s	aeq1, a4
     91a:	360534        	ae_cvtq48a32s	aeq0, a5
     91d:	d4e110223f 	{ add	a2, a2, a3; ae_mulaq32sp16u.l	aeq0, aeq1, aep0 }
     922:	212120        	srai	a2, a2, 1
     925:	368304        	ae_trunca32q48	a3, aeq0
     928:	f01d           	retw.n

0000092a <HIFI_sqrt_ie+0x52>:
     92a:	072d           	mov.n	a2, a7
     92c:	023d           	mov.n	a3, a2
     92e:	f01d           	retw.n

00000930 <fxexp>:
     930:	006136        	entry	a1, 48
     933:	fdc141        	l32r	a4, 38 (9540 <K_VAL_45>)
     936:	fdbc31        	l32r	a3, 28 (7fffffff <_end+0x7fff2873>)
     939:	368234        	ae_cvtq48a32s	aeq2, a2
     93c:	fc24bd340f 	{ ae_lq32f.iu	aeq1, a4, 0; ae_zeroq56	aeq0 }
     941:	0169c4        	ae_addq56	aeq1, aeq2, aeq1
     944:	064944        	ae_satq48s	aeq1, aeq1
     947:	098504        	ae_leq56s	b0, aeq1, aeq0
     94a:	36c334        	ae_cvtq48a32s	aeq3, a3
     94d:	601414        	ae_lq32f.iu	aeq0, a4, 4
     950:	040076        	bf	b0, 958 <fxexp+0x28>
     953:	fe0c7b33cf 	{ ae_sraiq56	aeq3, aeq3, 12; ae_movq56	aeq2, aeq1 }

00000958 <fxexp+0x28>:
     958:	0168c4        	ae_addq56	aeq1, aeq2, aeq0
     95b:	0a1084        	ae_zeroq56	aeq0
     95e:	064944        	ae_satq48s	aeq1, aeq1
     961:	098514        	ae_leq56s	b1, aeq1, aeq0
     964:	601414        	ae_lq32f.iu	aeq0, a4, 4
     967:	0020f0        	nop
     96a:	040176        	bf	b1, 972 <fxexp+0x42>
     96d:	fe0c7b32cf 	{ ae_sraiq56	aeq3, aeq3, 8; ae_movq56	aeq2, aeq1 }

00000972 <fxexp+0x42>:
     972:	0168c4        	ae_addq56	aeq1, aeq2, aeq0
     975:	0a1084        	ae_zeroq56	aeq0
     978:	064944        	ae_satq48s	aeq1, aeq1
     97b:	098524        	ae_leq56s	b2, aeq1, aeq0
     97e:	601414        	ae_lq32f.iu	aeq0, a4, 4
     981:	f03d           	nop.n
     983:	040276        	bf	b2, 98b <fxexp+0x5b>
     986:	fe0c7b31cf 	{ ae_sraiq56	aeq3, aeq3, 4; ae_movq56	aeq2, aeq1 }

0000098b <fxexp+0x5b>:
     98b:	0168c4        	ae_addq56	aeq1, aeq2, aeq0
     98e:	0a1084        	ae_zeroq56	aeq0
     991:	064944        	ae_satq48s	aeq1, aeq1
     994:	098534        	ae_leq56s	b3, aeq1, aeq0
     997:	601414        	ae_lq32f.iu	aeq0, a4, 4
     99a:	040376        	bf	b3, 9a2 <fxexp+0x72>
     99d:	fe0c7b30ef 	{ ae_sraiq56	aeq3, aeq3, 2; ae_movq56	aeq2, aeq1 }

000009a2 <fxexp+0x72>:
     9a2:	0168c4        	ae_addq56	aeq1, aeq2, aeq0
     9a5:	0a1084        	ae_zeroq56	aeq0
     9a8:	064944        	ae_satq48s	aeq1, aeq1
     9ab:	098544        	ae_leq56s	b4, aeq1, aeq0
     9ae:	601414        	ae_lq32f.iu	aeq0, a4, 4
     9b1:	040476        	bf	b4, 9b9 <fxexp+0x89>
     9b4:	fe0c7b30df 	{ ae_sraiq56	aeq3, aeq3, 1; ae_movq56	aeq2, aeq1 }

000009b9 <fxexp+0x89>:
     9b9:	0168c4        	ae_addq56	aeq1, aeq2, aeq0
     9bc:	0a1084        	ae_zeroq56	aeq0
     9bf:	064944        	ae_satq48s	aeq1, aeq1
     9c2:	098554        	ae_leq56s	b5, aeq1, aeq0
     9c5:	ff7c7d141f 	{ ae_lq32f.iu	aeq0, a4, 4; ae_truncq32	aeq3, aeq3 }
     9ca:	0a0576        	bf	b5, 9d8 <fxexp+0xa8>
     9cd:	35b0b4        	ae_sraiq56	aeq2, aeq3, 2
     9d0:	06aa34        	ae_truncq32	aeq2, aeq2
     9d3:	fbbaff11bf 	{ ae_movq56	aeq2, aeq1; ae_subq56	aeq3, aeq3, aeq2 }

000009d8 <fxexp+0xa8>:
     9d8:	0168c4        	ae_addq56	aeq1, aeq2, aeq0
     9db:	0a1084        	ae_zeroq56	aeq0
     9de:	064944        	ae_satq48s	aeq1, aeq1
     9e1:	098564        	ae_leq56s	b6, aeq1, aeq0
     9e4:	601414        	ae_lq32f.iu	aeq0, a4, 4
     9e7:	0a0676        	bf	b6, 9f5 <fxexp+0xc5>
     9ea:	35b0f4        	ae_sraiq56	aeq2, aeq3, 3
     9ed:	06aa34        	ae_truncq32	aeq2, aeq2
     9f0:	fbbaff11bf 	{ ae_movq56	aeq2, aeq1; ae_subq56	aeq3, aeq3, aeq2 }

000009f5 <fxexp+0xc5>:
     9f5:	0168c4        	ae_addq56	aeq1, aeq2, aeq0
     9f8:	0a1084        	ae_zeroq56	aeq0
     9fb:	064944        	ae_satq48s	aeq1, aeq1
     9fe:	098574        	ae_leq56s	b7, aeq1, aeq0
     a01:	601414        	ae_lq32f.iu	aeq0, a4, 4
     a04:	0a0776        	bf	b7, a12 <fxexp+0xe2>
     a07:	35b134        	ae_sraiq56	aeq2, aeq3, 4
     a0a:	06aa34        	ae_truncq32	aeq2, aeq2
     a0d:	fbbaff11bf 	{ ae_movq56	aeq2, aeq1; ae_subq56	aeq3, aeq3, aeq2 }

00000a12 <fxexp+0xe2>:
     a12:	0168c4        	ae_addq56	aeq1, aeq2, aeq0
     a15:	0a1084        	ae_zeroq56	aeq0
     a18:	064944        	ae_satq48s	aeq1, aeq1
     a1b:	098584        	ae_leq56s	b8, aeq1, aeq0
     a1e:	601414        	ae_lq32f.iu	aeq0, a4, 4
     a21:	0a0876        	bf	b8, a2f <fxexp+0xff>
     a24:	35b174        	ae_sraiq56	aeq2, aeq3, 5
     a27:	06aa34        	ae_truncq32	aeq2, aeq2
     a2a:	fbbaff11bf 	{ ae_movq56	aeq2, aeq1; ae_subq56	aeq3, aeq3, aeq2 }

00000a2f <fxexp+0xff>:
     a2f:	0168c4        	ae_addq56	aeq1, aeq2, aeq0
     a32:	0a1084        	ae_zeroq56	aeq0
     a35:	064944        	ae_satq48s	aeq1, aeq1
     a38:	098594        	ae_leq56s	b9, aeq1, aeq0
     a3b:	601414        	ae_lq32f.iu	aeq0, a4, 4
     a3e:	0a0976        	bf	b9, a4c <fxexp+0x11c>
     a41:	35b1b4        	ae_sraiq56	aeq2, aeq3, 6
     a44:	06aa34        	ae_truncq32	aeq2, aeq2
     a47:	fbbaff11bf 	{ ae_movq56	aeq2, aeq1; ae_subq56	aeq3, aeq3, aeq2 }

00000a4c <fxexp+0x11c>:
     a4c:	0168c4        	ae_addq56	aeq1, aeq2, aeq0
     a4f:	0a1084        	ae_zeroq56	aeq0
     a52:	064944        	ae_satq48s	aeq1, aeq1
     a55:	0985a4        	ae_leq56s	b10, aeq1, aeq0
     a58:	601414        	ae_lq32f.iu	aeq0, a4, 4
     a5b:	0a0a76        	bf	b10, a69 <fxexp+0x139>
     a5e:	35b1f4        	ae_sraiq56	aeq2, aeq3, 7
     a61:	06aa34        	ae_truncq32	aeq2, aeq2
     a64:	fbbaff11bf 	{ ae_movq56	aeq2, aeq1; ae_subq56	aeq3, aeq3, aeq2 }

00000a69 <fxexp+0x139>:
     a69:	0168c4        	ae_addq56	aeq1, aeq2, aeq0
     a6c:	0a1084        	ae_zeroq56	aeq0
     a6f:	064944        	ae_satq48s	aeq1, aeq1
     a72:	098504        	ae_leq56s	b0, aeq1, aeq0
     a75:	fd7181        	l32r	a8, 3c (10000 <_end+0x2874>)
     a78:	360834        	ae_cvtq48a32s	aeq0, a8
     a7b:	260076        	bf	b0, aa5 <fxexp+0x175>
     a7e:	0118c4        	ae_addq56	aeq0, aeq1, aeq0
     a81:	fc00fb328f 	{ ae_sraiq56	aeq2, aeq3, 8; ae_satq48s	aeq0, aeq0 }
     a86:	06aa34        	ae_truncq32	aeq2, aeq2
     a89:	fabafa832f 	{ ae_slliq56	aeq0, aeq0, 14; ae_subq56	aeq2, aeq3, aeq2 }
     a8e:	060844        	ae_satq48s	aeq0, aeq0
     a91:	098c04        	ae_truncp24q48x2	aep0, aeq0, aeq0
     a94:	0885a4        	ae_mulfq32sp24s.l	aeq2, aeq2, aep0
     a97:	062934        	ae_roundsq32asym	aeq0, aeq2
     a9a:	350054        	ae_slliq56	aeq0, aeq0, 1
     a9d:	068844        	ae_satq48s	aeq2, aeq0
     aa0:	36a204        	ae_trunca32q48	a2, aeq2
     aa3:	f01d           	retw.n

00000aa5 <fxexp+0x175>:
     aa5:	fd6591        	l32r	a9, 3c (10000 <_end+0x2874>)
     aa8:	360934        	ae_cvtq48a32s	aeq0, a9
     aab:	0128c4        	ae_addq56	aeq0, aeq2, aeq0
     aae:	064844        	ae_satq48s	aeq1, aeq0
     ab1:	355394        	ae_slliq56	aeq1, aeq1, 14
     ab4:	060944        	ae_satq48s	aeq0, aeq1
     ab7:	098c14        	ae_truncp24q48x2	aep1, aeq0, aeq0
     aba:	081de4        	ae_mulfq32sp24s.l	aeq1, aeq3, aep1
     abd:	061934        	ae_roundsq32asym	aeq0, aeq1
     ac0:	350054        	ae_slliq56	aeq0, aeq0, 1
     ac3:	064844        	ae_satq48s	aeq1, aeq0
     ac6:	369204        	ae_trunca32q48	a2, aeq1
     ac9:	f01d           	retw.n

00000acb <fxexp+0x19b>:
	...

00000acc <fxarctan2>:
     acc:	004136        	entry	a1, 32
     acf:	0a9237        	bne	a2, a3, add <fxarctan2+0x11>
     ad2:	0212e6        	bgei	a2, 1, ad8 <fxarctan2+0xc>
     ad5:	003846        	j	bba <fxarctan2+0xee>
     ad8:	fd5a21        	l32r	a2, 40 (1922 <fn_st_noise_est+0x49a>)
     adb:	f01d           	retw.n

00000add <fxarctan2+0x11>:
     add:	fd5b71        	l32r	a7, 4c (54e0 <subband_aec_mid_channel+0x160>)
     ae0:	fd5a61        	l32r	a6, 48 (8000 <xtensa_fft8_32b+0xf0>)
     ae3:	fd5891        	l32r	a9, 44 (ffff54e0 <_end+0xfffe7d54>)
     ae6:	605120        	abs	a5, a2
     ae9:	604130        	abs	a4, a3
     aec:	604040        	neg	a4, a4
     aef:	605050        	neg	a5, a5
     af2:	855d           	ae_sext16	a5, a5
     af4:	844d           	ae_sext16	a4, a4
     af6:	4ea457        	bge	a4, a5, b48 <fxarctan2+0x7c>
     af9:	fd55c1        	l32r	a12, 50 (b1f <fxarctan2+0x53>)
     afc:	118210        	slli	a8, a2, 15
     aff:	d28830        	quos	a8, a8, a3
     b02:	888d           	ae_sext16	a8, a8
     b04:	60b180        	abs	a11, a8
     b07:	60b0b0        	neg	a11, a11
     b0a:	d1bbc0        	mul16s	a11, a11, a12
     b0d:	fd5151        	l32r	a5, 54 (7fff <xtensa_fft8_32b+0xef>)
     b10:	11bbf0        	slli	a11, a11, 1
     b13:	bb6a           	add.n	a11, a11, a6
     b15:	31b0b0        	srai	a11, a11, 16
     b18:	0227b7        	blt	a7, a11, b1e <fxarctan2+0x52>
     b1b:	002a46        	j	bc8 <fxarctan2+0xfc>

00000b1e <fxarctan2+0x52>:
     b1e:	d18580        	mul16s	a8, a5, a8
     b21:	908860        	addx2	a8, a8, a6
     b24:	318080        	srai	a8, a8, 16
     b27:	087d           	mov.n	a7, a8
     b29:	07f3d6        	bgez	a3, bac <fxarctan2+0xe0>
     b2c:	135296        	bltz	a2, c65 <fxarctan2+0x199>
     b2f:	fd4a41        	l32r	a4, 58 (6488 <Voice_WB_TX_Inear_Prcs+0x268>)
     b32:	0218e6        	bgei	a8, 1, b38 <fxarctan2+0x6c>
     b35:	005706        	j	c95 <fxarctan2+0x1c9>
     b38:	fd4721        	l32r	a2, 54 (7fff <xtensa_fft8_32b+0xef>)

00000b3b <fxarctan2+0x6f>:
     b3b:	d12240        	mul16s	a2, a2, a4
     b3e:	902260        	addx2	a2, a2, a6
     b41:	312020        	srai	a2, a2, 16
     b44:	f01d           	retw.n

00000b46 <fxarctan2+0x7a>:
	...

00000b48 <fxarctan2+0x7c>:
     b48:	fd45c1        	l32r	a12, 5c (4001 <inear_ast_nr_proc+0x141>)
     b4b:	fd41d1        	l32r	a13, 50 (b1f <fxarctan2+0x53>)
     b4e:	11b310        	slli	a11, a3, 15
     b51:	d2bb20        	quos	a11, a11, a2
     b54:	8b3d           	ae_sext16	a3, a11
     b56:	60a130        	abs	a10, a3
     b59:	60a0a0        	neg	a10, a10
     b5c:	d1aad0        	mul16s	a10, a10, a13
     b5f:	fd40d1        	l32r	a13, 60 (c001 <M_norm64+0x81>)
     b62:	11aaf0        	slli	a10, a10, 1
     b65:	aa6a           	add.n	a10, a10, a6
     b67:	31a0a0        	srai	a10, a10, 16
     b6a:	63a7a7        	bge	a7, a10, bd1 <fxarctan2+0x105>
     b6d:	117310        	slli	a7, a3, 15
     b70:	c07730        	sub	a7, a7, a3
     b73:	1177f0        	slli	a7, a7, 1
     b76:	776a           	add.n	a7, a7, a6
     b78:	317070        	srai	a7, a7, 16
     b7b:	0c9296        	bltz	a2, c48 <fxarctan2+0x17c>
     b7e:	fd3981        	l32r	a8, 64 (ffffc000 <_end+0xfffee874>)
     b81:	022877        	blt	a8, a7, b87 <fxarctan2+0xbb>
     b84:	0020c6        	j	c0b <fxarctan2+0x13f>
     b87:	02a7d7        	bge	a7, a13, b8d <fxarctan2+0xc1>
     b8a:	002686        	j	c28 <fxarctan2+0x15c>

00000b8d <fxarctan2+0xc1>:
     b8d:	fd3241        	l32r	a4, 58 (6488 <Voice_WB_TX_Inear_Prcs+0x268>)
     b90:	fd3621        	l32r	a2, 68 (ffff8000 <_end+0xfffea874>)
     b93:	d12240        	mul16s	a2, a2, a4
     b96:	902260        	addx2	a2, a2, a6
     b99:	312020        	srai	a2, a2, 16
     b9c:	f01d           	retw.n

00000b9e <fxarctan2+0xd2>:
	...

00000ba0 <fxarctan2+0xd4>:
     ba0:	fd3391        	l32r	a9, 6c (ffff4000 <_end+0xfffe6874>)
     ba3:	02a937        	bge	a9, a3, ba9 <fxarctan2+0xdd>
     ba6:	004786        	j	cc8 <fxarctan2+0x1fc>

00000ba9 <fxarctan2+0xdd>:
     ba9:	fd2a71        	l32r	a7, 54 (7fff <xtensa_fft8_32b+0xef>)

00000bac <fxarctan2+0xe0>:
     bac:	fd2b21        	l32r	a2, 58 (6488 <Voice_WB_TX_Inear_Prcs+0x268>)
     baf:	d12720        	mul16s	a2, a7, a2
     bb2:	902260        	addx2	a2, a2, a6
     bb5:	312020        	srai	a2, a2, 16
     bb8:	f01d           	retw.n

00000bba <fxarctan2+0xee>:
     bba:	fd2d31        	l32r	a3, 70 (ffffb49b <_end+0xfffedd0f>)
     bbd:	040c           	movi.n	a4, 0
     bbf:	b33420        	movgez	a3, a4, a2
     bc2:	032d           	mov.n	a2, a3
     bc4:	f01d           	retw.n

00000bc6 <fxarctan2+0xfa>:
	...

00000bc8 <fxarctan2+0xfc>:
     bc8:	5029b7        	blt	a9, a11, c1c <fxarctan2+0x150>
     bcb:	fd2751        	l32r	a5, 68 (ffff8000 <_end+0xfffea874>)
     bce:	ffd306        	j	b1e <fxarctan2+0x52>

00000bd1 <fxarctan2+0x105>:
     bd1:	1c29a7        	blt	a9, a10, bf1 <fxarctan2+0x125>
     bd4:	113310        	slli	a3, a3, 15
     bd7:	603030        	neg	a3, a3
     bda:	1133f0        	slli	a3, a3, 1
     bdd:	336a           	add.n	a3, a3, a6
     bdf:	313030        	srai	a3, a3, 16
     be2:	0bb296        	bltz	a2, ca1 <fxarctan2+0x1d5>
     be5:	fd1f41        	l32r	a4, 64 (ffffc000 <_end+0xfffee874>)
     be8:	1fa437        	bge	a4, a3, c0b <fxarctan2+0x13f>
     beb:	9ea3d7        	bge	a3, a13, b8d <fxarctan2+0xc1>
     bee:	000e06        	j	c2a <fxarctan2+0x15e>

00000bf1 <fxarctan2+0x125>:
     bf1:	2bda32        	addmi	a3, a10, 0x2b00
     bf4:	1fc332        	addi	a3, a3, 31
     bf7:	d133b0        	mul16s	a3, a3, a11
     bfa:	1133f0        	slli	a3, a3, 1
     bfd:	336a           	add.n	a3, a3, a6
     bff:	313030        	srai	a3, a3, 16
     c02:	f9a296        	bltz	a2, ba0 <fxarctan2+0xd4>
     c05:	fd1741        	l32r	a4, 64 (ffffc000 <_end+0xfffee874>)
     c08:	342437        	blt	a4, a3, c40 <fxarctan2+0x174>

00000c0b <fxarctan2+0x13f>:
     c0b:	fd1341        	l32r	a4, 58 (6488 <Voice_WB_TX_Inear_Prcs+0x268>)
     c0e:	fd1121        	l32r	a2, 54 (7fff <xtensa_fft8_32b+0xef>)
     c11:	d12240        	mul16s	a2, a2, a4
     c14:	902260        	addx2	a2, a2, a6
     c17:	312020        	srai	a2, a2, 16
     c1a:	f01d           	retw.n

00000c1c <fxarctan2+0x150>:
     c1c:	2bdb52        	addmi	a5, a11, 0x2b00
     c1f:	1fc552        	addi	a5, a5, 31
     c22:	855d           	ae_sext16	a5, a5
     c24:	ffbd86        	j	b1e <fxarctan2+0x52>

00000c27 <fxarctan2+0x15b>:
	...

00000c28 <fxarctan2+0x15c>:
     c28:	073d           	mov.n	a3, a7

00000c2a <fxarctan2+0x15e>:
     c2a:	fd1221        	l32r	a2, 74 (4000 <inear_ast_nr_proc+0x140>)
     c2d:	fd0a41        	l32r	a4, 58 (6488 <Voice_WB_TX_Inear_Prcs+0x268>)
     c30:	c02230        	sub	a2, a2, a3
     c33:	822d           	ae_sext16	a2, a2
     c35:	d12240        	mul16s	a2, a2, a4
     c38:	902260        	addx2	a2, a2, a6
     c3b:	312020        	srai	a2, a2, 16
     c3e:	f01d           	retw.n

00000c40 <fxarctan2+0x174>:
     c40:	e623d7        	blt	a3, a13, c2a <fxarctan2+0x15e>
     c43:	ffd186        	j	b8d <fxarctan2+0xc1>

00000c46 <fxarctan2+0x17a>:
	...

00000c48 <fxarctan2+0x17c>:
     c48:	fd0941        	l32r	a4, 6c (ffff4000 <_end+0xfffe6874>)
     c4b:	022477        	blt	a4, a7, c51 <fxarctan2+0x185>
     c4e:	ffd5c6        	j	ba9 <fxarctan2+0xdd>
     c51:	5b27c7        	blt	a7, a12, cb0 <fxarctan2+0x1e4>

00000c54 <fxarctan2+0x188>:
     c54:	fd0121        	l32r	a2, 58 (6488 <Voice_WB_TX_Inear_Prcs+0x268>)
     c57:	fd0471        	l32r	a7, 68 (ffff8000 <_end+0xfffea874>)
     c5a:	d12720        	mul16s	a2, a7, a2
     c5d:	902260        	addx2	a2, a2, a6
     c60:	312020        	srai	a2, a2, 16
     c63:	f01d           	retw.n

00000c65 <fxarctan2+0x199>:
     c65:	fd0451        	l32r	a5, 78 (ffff <_end+0x2873>)
     c68:	10a587        	bge	a5, a8, c7c <fxarctan2+0x1b0>
     c6b:	fcfb41        	l32r	a4, 58 (6488 <Voice_WB_TX_Inear_Prcs+0x268>)
     c6e:	fcf921        	l32r	a2, 54 (7fff <xtensa_fft8_32b+0xef>)
     c71:	d12240        	mul16s	a2, a2, a4
     c74:	902260        	addx2	a2, a2, a6
     c77:	312020        	srai	a2, a2, 16
     c7a:	f01d           	retw.n

00000c7c <fxarctan2+0x1b0>:
     c7c:	fcf741        	l32r	a4, 58 (6488 <Voice_WB_TX_Inear_Prcs+0x268>)
     c7f:	fcfa21        	l32r	a2, 68 (ffff8000 <_end+0xfffea874>)
     c82:	80d892        	addmi	a9, a8, 0xffff8000
     c85:	899d           	ae_sext16	a9, a9
     c87:	b32980        	movgez	a2, a9, a8
     c8a:	d12240        	mul16s	a2, a2, a4
     c8d:	902260        	addx2	a2, a2, a6
     c90:	312020        	srai	a2, a2, 16
     c93:	f01d           	retw.n

00000c95 <fxarctan2+0x1c9>:
     c95:	fcf951        	l32r	a5, 7c (ffff0000 <_end+0xfffe2874>)
     c98:	212587        	blt	a5, a8, cbd <fxarctan2+0x1f1>
     c9b:	fcf321        	l32r	a2, 68 (ffff8000 <_end+0xfffea874>)
     c9e:	ffa646        	j	b3b <fxarctan2+0x6f>

00000ca1 <fxarctan2+0x1d5>:
     ca1:	fcf281        	l32r	a8, 6c (ffff4000 <_end+0xfffe6874>)
     ca4:	022837        	blt	a8, a3, caa <fxarctan2+0x1de>
     ca7:	ffbf86        	j	ba9 <fxarctan2+0xdd>
     caa:	a6a3c7        	bge	a3, a12, c54 <fxarctan2+0x188>
     cad:	000046        	j	cb2 <fxarctan2+0x1e6>

00000cb0 <fxarctan2+0x1e4>:
     cb0:	073d           	mov.n	a3, a7

00000cb2 <fxarctan2+0x1e6>:
     cb2:	fcec71        	l32r	a7, 64 (ffffc000 <_end+0xfffee874>)
     cb5:	c07730        	sub	a7, a7, a3
     cb8:	877d           	ae_sext16	a7, a7
     cba:	ffbb86        	j	bac <fxarctan2+0xe0>

00000cbd <fxarctan2+0x1f1>:
     cbd:	fce521        	l32r	a2, 54 (7fff <xtensa_fft8_32b+0xef>)
     cc0:	282a           	add.n	a2, a8, a2
     cc2:	822d           	ae_sext16	a2, a2
     cc4:	ff9cc6        	j	b3b <fxarctan2+0x6f>

00000cc7 <fxarctan2+0x1fb>:
	...

00000cc8 <fxarctan2+0x1fc>:
     cc8:	e623c7        	blt	a3, a12, cb2 <fxarctan2+0x1e6>
     ccb:	ffe146        	j	c54 <fxarctan2+0x188>

00000cce <fxarctan2+0x202>:
	...

00000cd0 <fxsqrt_ie>:
     cd0:	004136        	entry	a1, 32
     cd3:	063216        	beqz	a2, d3a <fxsqrt_ie+0x6a>
     cd6:	fcdc31        	l32r	a3, 48 (8000 <xtensa_fft8_32b+0xf0>)
     cd9:	fcd661        	l32r	a6, 34 (94d0 <TABLE_IE_43>)
     cdc:	090c           	movi.n	a9, 0
     cde:	f40c           	movi.n	a4, 15
     ce0:	40e280        	nsa	a8, a2
     ce3:	401800        	ssl	a8
     ce6:	c04480        	sub	a4, a4, a8
     ce9:	a17200        	sll	a7, a2
     cec:	044040        	extui	a4, a4, 0, 1
     cef:	400400        	ssr	a4
     cf2:	c04480        	sub	a4, a4, a8
     cf5:	b17070        	sra	a7, a7
     cf8:	417970        	srli	a7, a7, 9
     cfb:	44fb           	addi.n	a4, a4, 15
     cfd:	315070        	srai	a5, a7, 16
     d00:	f0c552        	addi	a5, a5, -16
     d03:	535590        	max	a5, a5, a9
     d06:	905560        	addx2	a5, a5, a6
     d09:	256d           	ae_l16si.n	a6, a5, 0
     d0b:	355d           	ae_l16si.n	a5, a5, 2
     d0d:	214140        	srai	a4, a4, 1
     d10:	300774        	ae_cvtp24a16x2.ll	aep0, a7, a7
     d13:	c05560        	sub	a5, a5, a6
     d16:	116600        	slli	a6, a6, 16
     d19:	115500        	slli	a5, a5, 16
     d1c:	36c534        	ae_cvtq48a32s	aeq3, a5
     d1f:	368634        	ae_cvtq48a32s	aeq2, a6
     d22:	d7e13ec37f 	{ ae_cvtq48a32s	aeq1, a3; ae_mulaq32sp16u.l	aeq2, aeq3, aep0 }
     d27:	f9c442        	addi	a4, a4, -7
     d2a:	fc24fea40f 	{ ae_slaasq56s	aeq0, aeq2, a4; nop }
     d2f:	0109c4        	ae_addq56	aeq0, aeq0, aeq1
     d32:	368204        	ae_trunca32q48	a2, aeq0
     d35:	312020        	srai	a2, a2, 16
     d38:	f01d           	retw.n

00000d3a <fxsqrt_ie+0x6a>:
     d3a:	020c           	movi.n	a2, 0
     d3c:	f01d           	retw.n

00000d3e <fxsqrt_ie+0x6e>:
	...

00000d40 <fxlog10>:
     d40:	004136        	entry	a1, 32
     d43:	061216        	beqz	a2, da8 <fxlog10+0x68>
     d46:	530c           	movi.n	a3, 5
     d48:	fccf81        	l32r	a8, 84 (241f8 <_end+0x16a6c>)
     d4b:	fcb9b1        	l32r	a11, 30 (80000000 <_end+0x7fff2874>)
     d4e:	fccc91        	l32r	a9, 80 (2688 <fn_calc_jnd_gain+0x3b4>)
     d51:	04d296        	bltz	a2, da2 <fxlog10+0x62>
     d54:	40e250        	nsa	a5, a2
     d57:	551b           	addi.n	a5, a5, 1
     d59:	855d           	ae_sext16	a5, a5

00000d5b <fxlog10+0x1b>:
     d5b:	401500        	ssl	a5
     d5e:	d19590        	mul16s	a9, a5, a9
     d61:	a1a200        	sll	a10, a2
     d64:	fcc921        	l32r	a2, 88 (9570 <log_coef_49>)
     d67:	aaba           	add.n	a10, a10, a11
     d69:	c08890        	sub	a8, a8, a9
     d6c:	118880        	slli	a8, a8, 8
     d6f:	f5a0a0        	extui	a10, a10, 16, 16
     d72:	301aa4        	ae_cvtp24a16x2.ll	aep1, a10, a10
     d75:	360834        	ae_cvtq48a32s	aeq0, a8
     d78:	408204        	ae_lp16f.iu	aep0, a2, 0
     d7b:	350214        	ae_slliq56	aeq0, aeq0, 8
     d7e:	fcbfa1        	l32r	a10, 7c (ffff0000 <_end+0xfffe2874>)
     d81:	f966becabf 	{ ae_cvtq48a32s	aeq2, a10; ae_movp48	aep2, aep1 }
     d86:	0a8376        	loop	a3, d94 <fxlog10+0x54>
     d89:	011a74        	ae_mulfp24s.ll	aeq1, aep1, aep2
     d8c:	e6232c821f 	{ ae_lp16f.iu	aep0, a2, 2; ae_mulap24s.ll	aeq0, aep0, aep1 }
     d91:	1b9f14        	ae_roundsp16q48asym	aep1, aeq1

00000d94 <fxlog10+0x54>:
     d94:	3540f4        	ae_sraiq56	aeq1, aeq0, 3
     d97:	0161e4        	ae_andq56	aeq1, aeq1, aeq2
     d9a:	1b9f04        	ae_roundsp16q48asym	aep0, aeq1
     d9d:	360224        	ae_trunca16p24s.l	a2, aep0
     da0:	f01d           	retw.n

00000da2 <fxlog10+0x62>:
     da2:	050c           	movi.n	a5, 0
     da4:	ffecc6        	j	d5b <fxlog10+0x1b>

00000da7 <fxlog10+0x67>:
	...

00000da8 <fxlog10+0x68>:
     da8:	fcb021        	l32r	a2, 68 (ffff8000 <_end+0xfffea874>)
     dab:	f01d           	retw.n

00000dad <fxlog10+0x6d>:
     dad:	000000                                        ...

00000db0 <fxln>:
     db0:	004136        	entry	a1, 32
     db3:	061216        	beqz	a2, e18 <fxln+0x68>
     db6:	530c           	movi.n	a3, 5
     db8:	fcb681        	l32r	a8, 90 (29973 <_end+0x1c1e7>)
     dbb:	fc9db1        	l32r	a11, 30 (80000000 <_end+0x7fff2874>)
     dbe:	fcb391        	l32r	a9, 8c (2c5d <fn_win_detection+0x349>)
     dc1:	04d296        	bltz	a2, e12 <fxln+0x62>
     dc4:	40e250        	nsa	a5, a2
     dc7:	551b           	addi.n	a5, a5, 1
     dc9:	855d           	ae_sext16	a5, a5

00000dcb <fxln+0x1b>:
     dcb:	401500        	ssl	a5
     dce:	d19590        	mul16s	a9, a5, a9
     dd1:	a1a200        	sll	a10, a2
     dd4:	fcb021        	l32r	a2, 94 (9580 <ln_coef_51>)
     dd7:	aaba           	add.n	a10, a10, a11
     dd9:	c08890        	sub	a8, a8, a9
     ddc:	118880        	slli	a8, a8, 8
     ddf:	f5a0a0        	extui	a10, a10, 16, 16
     de2:	301aa4        	ae_cvtp24a16x2.ll	aep1, a10, a10
     de5:	360834        	ae_cvtq48a32s	aeq0, a8
     de8:	408204        	ae_lp16f.iu	aep0, a2, 0
     deb:	350214        	ae_slliq56	aeq0, aeq0, 8
     dee:	fca3a1        	l32r	a10, 7c (ffff0000 <_end+0xfffe2874>)
     df1:	f966becabf 	{ ae_cvtq48a32s	aeq2, a10; ae_movp48	aep2, aep1 }
     df6:	0a8376        	loop	a3, e04 <fxln+0x54>
     df9:	011a74        	ae_mulfp24s.ll	aeq1, aep1, aep2
     dfc:	e6232c821f 	{ ae_lp16f.iu	aep0, a2, 2; ae_mulap24s.ll	aeq0, aep0, aep1 }
     e01:	1b9f14        	ae_roundsp16q48asym	aep1, aeq1

00000e04 <fxln+0x54>:
     e04:	3540f4        	ae_sraiq56	aeq1, aeq0, 3
     e07:	0161e4        	ae_andq56	aeq1, aeq1, aeq2
     e0a:	1b9f04        	ae_roundsp16q48asym	aep0, aeq1
     e0d:	360224        	ae_trunca16p24s.l	a2, aep0
     e10:	f01d           	retw.n

00000e12 <fxln+0x62>:
     e12:	050c           	movi.n	a5, 0
     e14:	ffecc6        	j	dcb <fxln+0x1b>

00000e17 <fxln+0x67>:
	...

00000e18 <fxln+0x68>:
     e18:	fc9421        	l32r	a2, 68 (ffff8000 <_end+0xfffea874>)
     e1b:	f01d           	retw.n

00000e1d <fxln+0x6d>:
     e1d:	000000                                        ...

00000e20 <_saturate16>:
     e20:	004136        	entry	a1, 32
     e23:	fc8c81        	l32r	a8, 54 (7fff <xtensa_fft8_32b+0xef>)
     e26:	fc9c31        	l32r	a3, 98 (ffff7fff <_end+0xfffea873>)
     e29:	0b2827        	blt	a8, a2, e38 <_saturate16+0x18>
     e2c:	042327        	blt	a3, a2, e34 <_saturate16+0x14>
     e2f:	fc8e21        	l32r	a2, 68 (ffff8000 <_end+0xfffea874>)
     e32:	f01d           	retw.n

00000e34 <_saturate16+0x14>:
     e34:	822d           	ae_sext16	a2, a2
     e36:	f01d           	retw.n

00000e38 <_saturate16+0x18>:
     e38:	082d           	mov.n	a2, a8
     e3a:	f01d           	retw.n

00000e3c <_saturate32>:
     e3c:	004136        	entry	a1, 32
     e3f:	fc7a71        	l32r	a7, 28 (7fffffff <_end+0x7fff2873>)
     e42:	060c           	movi.n	a6, 0
     e44:	003396        	bltz	a3, e4b <_saturate32+0xf>
     e47:	939c           	beqz.n	a3, e64 <_saturate32+0x28>

00000e49 <_saturate32+0xd>:
     e49:	160c           	movi.n	a6, 1

00000e4b <_saturate32+0xf>:
     e4b:	368c           	beqz.n	a6, e52 <_saturate32+0x16>
     e4d:	fc7621        	l32r	a2, 28 (7fffffff <_end+0x7fff2873>)
     e50:	f01d           	retw.n

00000e52 <_saturate32+0x16>:
     e52:	fc7571        	l32r	a7, 28 (7fffffff <_end+0x7fff2873>)
     e55:	060c           	movi.n	a6, 0
     e57:	00f396        	bltz	a3, e6a <_saturate32+0x2e>

00000e5a <_saturate32+0x1e>:
     e5a:	fc7531        	l32r	a3, 30 (80000000 <_end+0x7fff2874>)
     e5d:	833260        	moveqz	a3, a2, a6
     e60:	032d           	mov.n	a2, a3
     e62:	f01d           	retw.n

00000e64 <_saturate32+0x28>:
     e64:	e3b727        	bgeu	a7, a2, e4b <_saturate32+0xf>
     e67:	fff786        	j	e49 <_saturate32+0xd>

00000e6a <_saturate32+0x2e>:
     e6a:	040326        	beqi	a3, -1, e72 <_saturate32+0x36>

00000e6d <_saturate32+0x31>:
     e6d:	fc7021        	l32r	a2, 30 (80000000 <_end+0x7fff2874>)
     e70:	f01d           	retw.n

00000e72 <_saturate32+0x36>:
     e72:	e43727        	bltu	a7, a2, e5a <_saturate32+0x1e>
     e75:	fffd06        	j	e6d <_saturate32+0x31>

00000e78 <_saturate24>:
     e78:	004136        	entry	a1, 32
     e7b:	fc8871        	l32r	a7, 9c (7fffff00 <_end+0x7fff2774>)
     e7e:	00a062        	movi	a6, 0
     e81:	003396        	bltz	a3, e88 <_saturate24+0x10>
     e84:	a39c           	beqz.n	a3, ea2 <_saturate24+0x2a>

00000e86 <_saturate24+0xe>:
     e86:	160c           	movi.n	a6, 1

00000e88 <_saturate24+0x10>:
     e88:	368c           	beqz.n	a6, e8f <_saturate24+0x17>
     e8a:	fc8421        	l32r	a2, 9c (7fffff00 <_end+0x7fff2774>)
     e8d:	f01d           	retw.n

00000e8f <_saturate24+0x17>:
     e8f:	fc6671        	l32r	a7, 28 (7fffffff <_end+0x7fff2873>)
     e92:	00a062        	movi	a6, 0
     e95:	00f396        	bltz	a3, ea8 <_saturate24+0x30>

00000e98 <_saturate24+0x20>:
     e98:	fc6631        	l32r	a3, 30 (80000000 <_end+0x7fff2874>)
     e9b:	833260        	moveqz	a3, a2, a6
     e9e:	032d           	mov.n	a2, a3
     ea0:	f01d           	retw.n

00000ea2 <_saturate24+0x2a>:
     ea2:	e2b727        	bgeu	a7, a2, e88 <_saturate24+0x10>
     ea5:	fff746        	j	e86 <_saturate24+0xe>

00000ea8 <_saturate24+0x30>:
     ea8:	040326        	beqi	a3, -1, eb0 <_saturate24+0x38>

00000eab <_saturate24+0x33>:
     eab:	fc6121        	l32r	a2, 30 (80000000 <_end+0x7fff2874>)
     eae:	f01d           	retw.n

00000eb0 <_saturate24+0x38>:
     eb0:	e43727        	bltu	a7, a2, e98 <_saturate24+0x20>
     eb3:	fffd06        	j	eab <_saturate24+0x33>

00000eb6 <_saturate24+0x3e>:
	...

00000eb8 <mel_filter>:
     eb8:	004136        	entry	a1, 32
     ebb:	fcc3a2        	addi	a10, a3, -4
     ebe:	fc78d1        	l32r	a13, a0 (d560 <all_amt_tab>)
     ec1:	02cd           	mov.n	a12, a2
     ec3:	a0b440        	addx4	a11, a4, a4
     ec6:	b0bbd0        	addx8	a11, a11, a13
     ec9:	2b2d           	ae_l16si.n	a2, a11, 0
     ecb:	7b88           	l32i.n	a8, a11, 28
     ecd:	022bb2        	l32i	a11, a11, 8
     ed0:	3d12a6        	blti	a2, 1, f11 <mel_filter+0x59>
     ed3:	90d280        	addx2	a13, a2, a8
     ed6:	fe2480007f 	{ movi	a7, 0; ae_zeroq56	aeq2 }
     edb:	fc145137bf 	{ addx2	a3, a7, a11; ae_movq56	aeq0, aeq2 }

00000ee0 <mel_filter+0x28>:
     ee0:	28ed           	ae_l16si.n	a14, a8, 0
     ee2:	029892        	l16si	a9, a8, 4
     ee5:	408304        	ae_lp16f.iu	aep0, a3, 0
     ee8:	a02ec0        	addx4	a2, a14, a12
     eeb:	c099e0        	sub	a9, a9, a14
     eee:	224b           	addi.n	a2, a2, 4
     ef0:	605204        	ae_lq32f.iu	aeq1, a2, 0
     ef3:	990b           	addi.n	a9, a9, -1
     ef5:	07a976        	loopgtz	a9, f00 <mel_filter+0x48>
     ef8:	f483bd321f 	{ ae_lq32f.iu	aeq1, a2, 4; ae_mulafq32sp16s.l	aeq0, aeq1, aep0 }
     efd:	408314        	ae_lp16f.iu	aep0, a3, 2

00000f00 <mel_filter+0x48>:
     f00:	882b           	addi.n	a8, a8, 2
     f02:	779a           	add.n	a7, a7, a9
     f04:	f8679137bf 	{ addx2	a3, a7, a11; ae_roundsp24q48asym	aep0, aeq0 }
     f09:	fc14748a1f 	{ ae_sp24f.l.iu	aep0, a10, 4; ae_movq56	aeq0, aeq2 }
     f0e:	ce98d7        	bne	a8, a13, ee0 <mel_filter+0x28>

00000f11 <mel_filter+0x59>:
     f11:	f01d           	retw.n

00000f13 <mel_filter+0x5b>:
	...

00000f14 <mel_filter16>:
     f14:	004136        	entry	a1, 32
     f17:	fec3a2        	addi	a10, a3, -2
     f1a:	fc61d1        	l32r	a13, a0 (d560 <all_amt_tab>)
     f1d:	02cd           	mov.n	a12, a2
     f1f:	a0b440        	addx4	a11, a4, a4
     f22:	b0bbd0        	addx8	a11, a11, a13
     f25:	2b2d           	ae_l16si.n	a2, a11, 0
     f27:	7b88           	l32i.n	a8, a11, 28
     f29:	2bb8           	l32i.n	a11, a11, 8
     f2b:	3d12a6        	blti	a2, 1, f6c <mel_filter16+0x58>
     f2e:	90d280        	addx2	a13, a2, a8
     f31:	fe2480007f 	{ movi	a7, 0; ae_zeroq56	aeq2 }
     f36:	fc145137bf 	{ addx2	a3, a7, a11; ae_movq56	aeq0, aeq2 }

00000f3b <mel_filter16+0x27>:
     f3b:	28ed           	ae_l16si.n	a14, a8, 0
     f3d:	029892        	l16si	a9, a8, 4
     f40:	409304        	ae_lp16f.iu	aep1, a3, 0
     f43:	902ec0        	addx2	a2, a14, a12
     f46:	c099e0        	sub	a9, a9, a14
     f49:	222b           	addi.n	a2, a2, 2
     f4b:	408204        	ae_lp16f.iu	aep0, a2, 0
     f4e:	990b           	addi.n	a9, a9, -1
     f50:	07a976        	loopgtz	a9, f5b <mel_filter16+0x47>
     f53:	e223ac821f 	{ ae_lp16f.iu	aep0, a2, 2; ae_mulafp24s.ll	aeq0, aep0, aep1 }
     f58:	409314        	ae_lp16f.iu	aep1, a3, 2

00000f5b <mel_filter16+0x47>:
     f5b:	882b           	addi.n	a8, a8, 2
     f5d:	779a           	add.n	a7, a7, a9
     f5f:	f8e39137bf 	{ addx2	a3, a7, a11; ae_roundsp16q48sym	aep0, aeq0 }
     f64:	fc14728a1f 	{ ae_sp16f.l.iu	aep0, a10, 2; ae_movq56	aeq0, aeq2 }
     f69:	ce98d7        	bne	a8, a13, f3b <mel_filter16+0x27>

00000f6c <mel_filter16+0x58>:
     f6c:	f01d           	retw.n

00000f6e <mel_filter16+0x5a>:
	...

00000f70 <inv_mel_filter>:
     f70:	004136        	entry	a1, 32
     f73:	fc4b71        	l32r	a7, a0 (d560 <all_amt_tab>)
     f76:	a05440        	addx4	a5, a4, a4
     f79:	03dd           	mov.n	a13, a3
     f7b:	028d           	mov.n	a8, a2
     f7d:	02d332        	addmi	a3, a3, 0x200
     f80:	020c           	movi.n	a2, 0
     f82:	b05570        	addx8	a5, a5, a7
     f85:	1598           	l32i.n	a9, a5, 4
     f87:	0225c2        	l32i	a12, a5, 8
     f8a:	254d           	ae_l16si.n	a4, a5, 0
     f8c:	072572        	l32i	a7, a5, 28
     f8f:	632d           	ae_s16i.n	a2, a3, 0
     f91:	fccd22        	addi	a2, a13, -4
     f94:	fc2080803f 	{ movi	a3, 128; ae_zerop48	aep0 }
     f99:	028376        	loop	a3, f9f <inv_mel_filter+0x2f>
     f9c:	468214        	ae_sp16x2f.iu	aep0, a2, 4

00000f9f <inv_mel_filter+0x2f>:
     f9f:	509904        	ae_lp24f.iu	aep1, a9, 0
     fa2:	40a804        	ae_lp16f.iu	aep2, a8, 0
     fa5:	408c04        	ae_lp16f.iu	aep0, a12, 0
     fa8:	5414a6        	blti	a4, 1, 1000 <inv_mel_filter+0x90>
     fab:	ea4591e47f 	{ addx2	a14, a4, a7; ae_mulfp24s.ll	aeq0, aep1, aep2 }

00000fb0 <inv_mel_filter+0x40>:
     fb0:	27bd           	ae_l16si.n	a11, a7, 0
     fb2:	0297a2        	l16si	a10, a7, 4
     fb5:	02c772        	addi	a7, a7, 2
     fb8:	01cbb2        	addi	a11, a11, 1
     fbb:	8bbd           	ae_sext16	a11, a11
     fbd:	f967912bdf 	{ addx2	a2, a11, a13; ae_roundsp24q48asym	aep2, aeq0 }
     fc2:	ea09ec920f 	{ ae_lp16f.iu	aep1, a2, 0; ae_mulfp24s.ll	aeq1, aep2, aep0 }
     fc7:	29aba7        	bge	a11, a10, ff4 <inv_mel_filter+0x84>
     fca:	1b9d44        	ae_roundsp24q48asym	aep4, aeq1
     fcd:	c952554abf 	{ sub	a4, a10, a11; ae_sllisp24s	aep3, aep4, 8 }
     fd2:	d82d0ff44e 	{ addi	a4, a4, -1; ae_addsp24s	aep0, aep3, aep1 }
     fd7:	428204        	ae_sp16f.l.iu	aep0, a2, 0
     fda:	408c14        	ae_lp16f.iu	aep0, a12, 2
     fdd:	13a476        	loopgtz	a4, ff4 <inv_mel_filter+0x84>
     fe0:	ea09ac921f 	{ ae_lp16f.iu	aep1, a2, 2; ae_mulfp24s.ll	aeq0, aep2, aep0 }
     fe5:	1b8d04        	ae_roundsp24q48asym	aep0, aeq0
     fe8:	0b8404        	ae_sllisp24s	aep0, aep0, 8
     feb:	078104        	ae_addsp24s	aep0, aep0, aep1
     fee:	428204        	ae_sp16f.l.iu	aep0, a2, 0
     ff1:	408c14        	ae_lp16f.iu	aep0, a12, 2

00000ff4 <inv_mel_filter+0x84>:
     ff4:	40a814        	ae_lp16f.iu	aep2, a8, 2
     ff7:	509914        	ae_lp24f.iu	aep1, a9, 4
     ffa:	011274        	ae_mulfp24s.ll	aeq0, aep1, aep2
     ffd:	af97e7        	bne	a7, a14, fb0 <inv_mel_filter+0x40>

00001000 <inv_mel_filter+0x90>:
    1000:	f01d           	retw.n

00001002 <inv_mel_filter+0x92>:
	...

00001004 <calc_amt>:
    1004:	012136        	entry	a1, 144
    1007:	7149           	s32i.n	a4, a1, 28
    1009:	8169           	s32i.n	a6, a1, 32
    100b:	6159           	s32i.n	a5, a1, 24
    100d:	b129           	s32i.n	a2, a1, 44
    100f:	039d           	mov.n	a9, a3
    1011:	fd248781be 	{ addi	a11, a1, 120; ae_zeroq56	aeq1 }
    1016:	631bc4        	ae_sq56s.i	aeq1, a11, -32
    1019:	fc2131        	l32r	a3, a0 (d560 <all_amt_tab>)
    101c:	0199           	s32i.n	a9, a1, 0
    101e:	a02660        	addx4	a2, a6, a6
    1021:	b02230        	addx8	a2, a2, a3
    1024:	4258           	l32i.n	a5, a2, 16
    1026:	8238           	l32i.n	a3, a2, 32
    1028:	5288           	l32i.n	a8, a2, 20
    102a:	3268           	l32i.n	a6, a2, 12
    102c:	6278           	l32i.n	a7, a2, 24
    102e:	2179           	s32i.n	a7, a1, 8
    1030:	3169           	s32i.n	a6, a1, 12
    1032:	1189           	s32i.n	a8, a1, 4
    1034:	4139           	s32i.n	a3, a1, 16
    1036:	228d           	ae_l16si.n	a8, a2, 0
    1038:	b138           	l32i.n	a3, a1, 44
    103a:	9268           	l32i.n	a6, a2, 36
    103c:	087d           	mov.n	a7, a8
    103e:	601304        	ae_lq32f.iu	aeq0, a3, 0
    1041:	630bd4        	ae_sq56s.i	aeq0, a11, -24
    1044:	fc20a0122e 	{ l16si	a2, a2, 2; ae_zerop48	aep0 }
    1049:	4018a6        	blti	a8, 1, 108d <calc_amt+0x89>
    104c:	040c           	movi.n	a4, 0
    104e:	560be4        	ae_sp24x2s.i	aep0, a11, -16

00001051 <calc_amt+0x4d>:
    1051:	fc1481        	l32r	a8, a4 (db0 <fxln>)
    1054:	78c1a2        	addi	a10, a1, 120
    1057:	61cad4        	ae_lq56.i	aeq3, a10, -24
    105a:	35f2f4        	ae_sraiq56	aeq3, aeq3, 11
    105d:	fe3c770aef 	{ ae_sp24x2s.i	aep0, a10, -16; ae_roundsq32asym	aeq2, aeq3 }
    1062:	36aa04        	ae_trunca32q48	a10, aeq2
    1065:	0008e0        	callx8	a8
    1068:	441b           	addi.n	a4, a4, 1
    106a:	301aa4        	ae_cvtp24a16x2.ll	aep1, a10, a10
    106d:	78c1f2        	addi	a15, a1, 120
    1070:	540fe4        	ae_lp24x2.i	aep0, a15, -16
    1073:	610fd4        	ae_lq56.i	aeq0, a15, -24
    1076:	cc447dafcf 	{ ae_lq56.i	aeq1, a15, -32; ae_sraip24	aep1, aep1, 8 }
    107b:	fa6a3d131f 	{ ae_lq32f.iu	aeq0, a3, 4; ae_addq56	aeq2, aeq1, aeq0 }
    1080:	fd80fa0fdf 	{ ae_sq56s.i	aeq0, a15, -24; ae_satq48s	aeq1, aeq2 }
    1085:	d8213a1fcf 	{ ae_sq56s.i	aeq1, a15, -32; ae_addsp24s	aep0, aep0, aep1 }
    108a:	c39747        	bne	a7, a4, 1051 <calc_amt+0x4d>

0000108d <calc_amt+0x89>:
    108d:	fc0681        	l32r	a8, a8 (930 <fxexp>)
    1090:	302224        	ae_cvtp24a16x2.ll	aep2, a2, a2
    1093:	ea418781ae 	{ addi	a10, a1, 120; ae_mulfp24s.ll	aeq0, aep0, aep2 }
    1098:	61cac4        	ae_lq56.i	aeq3, a10, -32
    109b:	d7eb3b020f 	{ ae_sraiq56	aeq0, aeq0, 8; ae_mulfq32sp16s.l	aeq2, aeq3, aep2 }
    10a0:	fd2447819e 	{ addi	a9, a1, 120; ae_roundsq32asym	aeq1, aeq0 }
    10a5:	355154        	ae_slliq56	aeq1, aeq1, 5
    10a8:	fc347f1aef 	{ ae_trunca32q48	a10, aeq1; ae_roundsq32asym	aeq0, aeq2 }
    10ad:	35c114        	ae_slliq56	aeq3, aeq0, 4
    10b0:	6339c4        	ae_sq56s.i	aeq3, a9, -32
    10b3:	0008e0        	callx8	a8
    10b6:	78c1b2        	addi	a11, a1, 120
    10b9:	614bc4        	ae_lq56.i	aeq1, a11, -32
    10bc:	369904        	ae_trunca32q48	a9, aeq1
    10bf:	257916        	beqz	a9, 131a <calc_amt+0x316>
    10c2:	052a97        	blt	a10, a9, 10cb <calc_amt+0xc7>
    10c5:	fbe3e1        	l32r	a14, 54 (7fff <xtensa_fft8_32b+0xef>)
    10c8:	000986        	j	10f2 <calc_amt+0xee>

000010cb <calc_amt+0xc7>:
    10cb:	364934        	ae_cvtq48a32s	aeq1, a9
    10ce:	36ca34        	ae_cvtq48a32s	aeq3, a10
    10d1:	40e980        	nsa	a8, a9
    10d4:	888d           	ae_sext16	a8, a8
    10d6:	fc24feb88f 	{ ae_slaasq56s	aeq2, aeq3, a8; nop }
    10db:	fc80cf188e 	{ addi	a8, a8, -15; ae_satq48s	aeq0, aeq2 }
    10e0:	fc24fe98cf 	{ ae_slaasq56s	aeq3, aeq1, a8; nop }
    10e5:	fe84ff0eef 	{ ae_trunca32q48	a14, aeq0; ae_satq48s	aeq2, aeq3 }
    10ea:	36af04        	ae_trunca32q48	a15, aeq2
    10ed:	d2eef0        	quos	a14, a14, a15
    10f0:	aeed           	ae_clamps16	a14, a14

000010f2 <calc_amt+0xee>:
    10f2:	fbee81        	l32r	a8, ac (d40 <fxlog10>)
    10f5:	364e34        	ae_cvtq48a32s	aeq1, a14
    10f8:	355054        	ae_slliq56	aeq1, aeq1, 1
    10fb:	060944        	ae_satq48s	aeq0, aeq1
    10fe:	368a04        	ae_trunca32q48	a10, aeq0
    1101:	0008e0        	callx8	a8
    1104:	a0caa0        	addx4	a12, a10, a10
    1107:	3aadd2        	movi	a13, 0xfffffd3a
    110a:	304dd4        	ae_cvtp24a16x2.ll	aep4, a13, a13
    110d:	11ccf0        	slli	a12, a12, 1
    1110:	360c34        	ae_cvtq48a32s	aeq0, a12
    1113:	034214        	ae_mulfq32sp16s.l	aeq0, aeq0, aep4
    1116:	78c1b2        	addi	a11, a1, 120
    1119:	36c4d4        	ae_sllisq56s	aeq3, aeq0, 19
    111c:	fe84d3955f 	{ or	a9, a5, a5; ae_satq48s	aeq2, aeq3 }
    1121:	f9f3ec890f 	{ ae_lp16f.iu	aep0, a9, 0; ae_roundsp16q48sym	aep3, aeq2 }
    1126:	563bb4        	ae_sp24x2s.i	aep3, a11, -40
    1129:	363a24        	ae_trunca16p24s.l	a10, aep3
    112c:	91a9           	s32i.n	a10, a1, 36
    112e:	0217e6        	bgei	a7, 1, 1134 <calc_amt+0x130>
    1131:	007586        	j	130b <calc_amt+0x307>
    1134:	0138           	l32i.n	a3, a1, 0
    1136:	3158           	l32i.n	a5, a1, 12
    1138:	7128           	l32i.n	a2, a1, 28
    113a:	78c182        	addi	a8, a1, 120
    113d:	fbdcb1        	l32r	a11, b0 (ccd <fxarctan2+0x201>)
    1140:	fbdda1        	l32r	a10, b4 (b00 <fxarctan2+0x34>)
    1143:	21c8           	l32i.n	a12, a1, 8
    1145:	064d           	mov.n	a4, a6
    1147:	41e8           	l32i.n	a14, a1, 16
    1149:	d1e9           	s32i.n	a14, a1, 52
    114b:	1168           	l32i.n	a6, a1, 4
    114d:	e1c9           	s32i.n	a12, a1, 56
    114f:	306ab4        	ae_cvtp24a16x2.ll	aep6, a10, a11
    1152:	5668a4        	ae_sp24x2s.i	aep6, a8, -48
    1155:	90d7c0        	addx2	a13, a7, a12
    1158:	fc2494a1df 	{ s32i.n	a13, a1, 40; ae_zeroq56	aeq0 }
    115d:	fbbd71        	l32r	a7, 54 (7fff <xtensa_fft8_32b+0xef>)
    1160:	002386        	j	11f2 <calc_amt+0x1ee>

00001163 <calc_amt+0x15f>:
    1163:	360e34        	ae_cvtq48a32s	aeq0, a14
    1166:	368f34        	ae_cvtq48a32s	aeq2, a15
    1169:	40ee90        	nsa	a9, a14
    116c:	899d           	ae_sext16	a9, a9
    116e:	fc24fea94f 	{ ae_slaasq56s	aeq1, aeq2, a9; nop }
    1173:	ff04cf199e 	{ addi	a9, a9, -15; ae_satq48s	aeq3, aeq1 }
    1178:	fc24fe898f 	{ ae_slaasq56s	aeq2, aeq0, a9; nop }
    117d:	fd80ff3eef 	{ ae_trunca32q48	a14, aeq3; ae_satq48s	aeq1, aeq2 }
    1182:	369804        	ae_trunca32q48	a8, aeq1
    1185:	d2ee80        	quos	a14, a14, a8
    1188:	aeed           	ae_clamps16	a14, a14

0000118a <calc_amt+0x186>:
    118a:	fbc681        	l32r	a8, a4 (db0 <fxln>)
    118d:	404300        	ssai	3
    1190:	31cfe0        	srai	a12, a14, 31
    1193:	be4b           	addi.n	a11, a14, 4
    1195:	62abe0        	saltu	a10, a11, a14
    1198:	aaca           	add.n	a10, a10, a12
    119a:	81aab0        	src	a10, a10, a11
    119d:	0008e0        	callx8	a8
    11a0:	fbc281        	l32r	a8, a8 (930 <fxexp>)
    11a3:	360a34        	ae_cvtq48a32s	aeq0, a10
    11a6:	350154        	ae_slliq56	aeq0, aeq0, 5
    11a9:	06c844        	ae_satq48s	aeq3, aeq0
    11ac:	36ba04        	ae_trunca32q48	a10, aeq3
    11af:	0008e0        	callx8	a8
    11b2:	5198           	l32i.n	a9, a1, 20
    11b4:	334b           	addi.n	a3, a3, 4
    11b6:	364a34        	ae_cvtq48a32s	aeq1, a10
    11b9:	fbebe002ee 	{ l16si	a14, a2, 0; ae_roundsp16q48sym	aep7, aeq1 }
    11be:	367f24        	ae_trunca16p24s.l	a15, aep7
    11c1:	78c182        	addi	a8, a1, 120
    11c4:	540894        	ae_lp24x2.i	aep0, a8, -56
    11c7:	fc2490eeff 	{ add	a14, a14, a15; ae_zeroq56	aeq0 }
    11cc:	0227e7        	blt	a7, a14, 11d2 <calc_amt+0x1ce>
    11cf:	004906        	j	12f7 <calc_amt+0x2f3>
    11d2:	fba0e1        	l32r	a14, 54 (7fff <xtensa_fft8_32b+0xef>)

000011d5 <calc_amt+0x1d1>:
    11d5:	662b           	addi.n	a6, a6, 2
    11d7:	552b           	addi.n	a5, a5, 2
    11d9:	444b           	addi.n	a4, a4, 4
    11db:	09c2e4        	ae_s16ip	a14, a2, 2
    11de:	e1a8           	l32i.n	a10, a1, 56
    11e0:	d1c8           	l32i.n	a12, a1, 52
    11e2:	a1b8           	l32i.n	a11, a1, 40
    11e4:	aa2b           	addi.n	a10, a10, 2
    11e6:	cc2b           	addi.n	a12, a12, 2
    11e8:	d1c9           	s32i.n	a12, a1, 52
    11ea:	e1a9           	s32i.n	a10, a1, 56
    11ec:	c0aab0        	sub	a10, a10, a11
    11ef:	118a16        	beqz	a10, 130b <calc_amt+0x307>

000011f2 <calc_amt+0x1ee>:
    11f2:	e188           	l32i.n	a8, a1, 56
    11f4:	b1a8           	l32i.n	a10, a1, 44
    11f6:	288d           	ae_l16si.n	a8, a8, 0
    11f8:	a088a0        	addx4	a8, a8, a10
    11fb:	26ad           	ae_l16si.n	a10, a6, 0
    11fd:	605804        	ae_lq32f.iu	aeq1, a8, 0
    1200:	07aa76        	loopgtz	a10, 120b <calc_amt+0x207>
    1203:	f403bd381f 	{ ae_lq32f.iu	aeq1, a8, 4; ae_mulafq32sp16s.h	aeq0, aeq1, aep0 }
    1208:	408914        	ae_lp16f.iu	aep0, a9, 2

0000120b <calc_amt+0x207>:
    120b:	fba881        	l32r	a8, ac (d40 <fxlog10>)
    120e:	404b00        	ssai	11
    1211:	91b8           	l32i.n	a11, a1, 36
    1213:	fb90e1        	l32r	a14, 54 (7fff <xtensa_fft8_32b+0xef>)
    1216:	78c1f2        	addi	a15, a1, 120
    1219:	5199           	s32i.n	a9, a1, 20
    121b:	78c1a2        	addi	a10, a1, 120
    121e:	d198           	l32i.n	a9, a1, 52
    1220:	560a94        	ae_sp24x2s.i	aep0, a10, -56
    1223:	fd24705fbf 	{ ae_lp24x2.i	aep5, a15, -40; ae_roundsq32asym	aeq1, aeq0 }
    1228:	369a04        	ae_trunca32q48	a10, aeq1
    122b:	299d           	ae_l16si.n	a9, a9, 0
    122d:	304ee4        	ae_cvtp24a16x2.ll	aep4, a14, a14
    1230:	31cfa0        	srai	a12, a10, 31
    1233:	d199b0        	mul16s	a9, a9, a11
    1236:	04dab2        	addmi	a11, a10, 0x400
    1239:	360934        	ae_cvtq48a32s	aeq0, a9
    123c:	ddb2fa801f 	{ ae_slliq56	aeq0, aeq0, 1; ae_subsp24s	aep3, aep4, aep5 }
    1241:	ff00f02faf 	{ ae_lp24x2.i	aep2, a15, -48; ae_satq48s	aeq3, aeq0 }
    1246:	00ba24        	ae_mulafs32p16s.lh	aeq3, aep3, aep2
    1249:	62aba0        	saltu	a10, a11, a10
    124c:	1bbe14        	ae_roundsp16q48sym	aep1, aeq3
    124f:	eb4710aacf 	{ add	a10, a10, a12; ae_mulfs32p16s.ll	aeq2, aep1, aep2 }
    1254:	81aab0        	src	a10, a10, a11
    1257:	1bae04        	ae_roundsp16q48sym	aep0, aeq2
    125a:	360924        	ae_trunca16p24s.l	a9, aep0
    125d:	c199           	s32i.n	a9, a1, 48
    125f:	0008e0        	callx8	a8
    1262:	c1e8           	l32i.n	a14, a1, 48
    1264:	0afd           	mov.n	a15, a10
    1266:	fb9481        	l32r	a8, b8 (fffe <_end+0x2872>)
    1269:	11eed0        	slli	a14, a14, 3
    126c:	0ea7e7        	bge	a7, a14, 127e <calc_amt+0x27a>
    126f:	fb79e1        	l32r	a14, 54 (7fff <xtensa_fft8_32b+0xef>)
    1272:	2528a7        	blt	a8, a10, 129b <calc_amt+0x297>
    1275:	320ae6        	bgei	a10, -1, 12ab <calc_amt+0x2a7>

00001278 <calc_amt+0x274>:
    1278:	fb7ce1        	l32r	a14, 68 (ffff8000 <_end+0xfffea874>)
    127b:	000c46        	j	12b0 <calc_amt+0x2ac>

0000127e <calc_amt+0x27a>:
    127e:	fb8691        	l32r	a9, 98 (ffff7fff <_end+0xfffea873>)
    1281:	0e29e7        	blt	a9, a14, 1293 <calc_amt+0x28f>
    1284:	fb79e1        	l32r	a14, 68 (ffff8000 <_end+0xfffea874>)
    1287:	010ad6        	bgez	a10, 129b <calc_amt+0x297>
    128a:	fb8cb1        	l32r	a11, bc (fffeffff <_end+0xfffe2873>)
    128d:	1a2ba7        	blt	a11, a10, 12ab <calc_amt+0x2a7>
    1290:	fff906        	j	1278 <calc_amt+0x274>

00001293 <calc_amt+0x28f>:
    1293:	8eed           	ae_sext16	a14, a14
    1295:	c0aae0        	sub	a10, a10, a14
    1298:	05a7a7        	bge	a7, a10, 12a1 <calc_amt+0x29d>

0000129b <calc_amt+0x297>:
    129b:	fb6ee1        	l32r	a14, 54 (7fff <xtensa_fft8_32b+0xef>)
    129e:	000386        	j	12b0 <calc_amt+0x2ac>

000012a1 <calc_amt+0x29d>:
    12a1:	fb7dc1        	l32r	a12, 98 (ffff7fff <_end+0xfffea873>)
    12a4:	f03d           	nop.n
    12a6:	f03d           	nop.n
    12a8:	ccaca7        	bge	a12, a10, 1278 <calc_amt+0x274>
    12ab:	c0efe0        	sub	a14, a15, a14
    12ae:	8eed           	ae_sext16	a14, a14

000012b0 <calc_amt+0x2ac>:
    12b0:	fb84a1        	l32r	a10, c0 (49af <real_512_ifft+0x77>)
    12b3:	fb7d81        	l32r	a8, a8 (930 <fxexp>)
    12b6:	d1aea0        	mul16s	a10, a14, a10
    12b9:	404900        	ssai	9
    12bc:	31cfa0        	srai	a12, a10, 31
    12bf:	01dab2        	addmi	a11, a10, 0x100
    12c2:	62aba0        	saltu	a10, a11, a10
    12c5:	aaca           	add.n	a10, a10, a12
    12c7:	81aab0        	src	a10, a10, a11
    12ca:	0008e0        	callx8	a8
    12cd:	406504        	ae_lp16f.i	aep6, a5, 0
    12d0:	364a34        	ae_cvtq48a32s	aeq1, a10
    12d3:	036a54        	ae_mulfq32sp16s.l	aeq1, aeq1, aep6
    12d6:	361054        	ae_sllisq56s	aeq0, aeq1, 1
    12d9:	06c844        	ae_satq48s	aeq3, aeq0
    12dc:	fe3c7004fe 	{ l32i	a15, a4, 0; ae_roundsq32asym	aeq2, aeq3 }
    12e1:	36a804        	ae_trunca32q48	a8, aeq2
    12e4:	03e8           	l32i.n	a14, a3, 0
    12e6:	53ff80        	max	a15, a15, a8
    12e9:	9e9c           	beqz.n	a14, 1306 <calc_amt+0x302>
    12eb:	02afe7        	bge	a15, a14, 12f1 <calc_amt+0x2ed>
    12ee:	ff9c46        	j	1163 <calc_amt+0x15f>
    12f1:	fb58e1        	l32r	a14, 54 (7fff <xtensa_fft8_32b+0xef>)
    12f4:	ffa486        	j	118a <calc_amt+0x186>

000012f7 <calc_amt+0x2f3>:
    12f7:	fb68a1        	l32r	a10, 98 (ffff7fff <_end+0xfffea873>)
    12fa:	02aae7        	bge	a10, a14, 1300 <calc_amt+0x2fc>
    12fd:	ffb506        	j	11d5 <calc_amt+0x1d1>
    1300:	fb5ae1        	l32r	a14, 68 (ffff8000 <_end+0xfffea874>)
    1303:	ffb386        	j	11d5 <calc_amt+0x1d1>

00001306 <calc_amt+0x302>:
    1306:	0e0c           	movi.n	a14, 0
    1308:	ff9f86        	j	118a <calc_amt+0x186>

0000130b <calc_amt+0x307>:
    130b:	71a8           	l32i.n	a10, a1, 28
    130d:	fb6d81        	l32r	a8, c4 (f70 <inv_mel_filter>)
    1310:	61b8           	l32i.n	a11, a1, 24
    1312:	0821c2        	l32i	a12, a1, 32
    1315:	0008e0        	callx8	a8
    1318:	f01d           	retw.n

0000131a <calc_amt+0x316>:
    131a:	0e0c           	movi.n	a14, 0
    131c:	ff7486        	j	10f2 <calc_amt+0xee>

0000131f <calc_amt+0x31b>:
	...

00001320 <fn_ini_fb_noise_est>:
    1320:	004136        	entry	a1, 32
    1323:	02ad           	mov.n	a10, a2
    1325:	fb6881        	l32r	a8, c8 (8808 <xt_memset>)
    1328:	0b0c           	movi.n	a11, 0
    132a:	0ea2c2        	movi	a12, 0x20e
    132d:	0008e0        	callx8	a8
    1330:	03bd           	mov.n	a11, a3
    1332:	fb3481        	l32r	a8, 4 (8820 <xt_memcpy>)
    1335:	02ad           	mov.n	a10, a2
    1337:	cc0c           	movi.n	a12, 12
    1339:	0008e0        	callx8	a8
    133c:	18c282        	addi	a8, a2, 24
    133f:	00a192        	movi	a9, 0x100
    1342:	01a1a2        	movi	a10, 0x101
    1345:	028a76        	loop	a10, 134b <fn_ini_fb_noise_est+0x2b>
    1348:	09e894        	ae_s32ip	a9, a8, 4

0000134b <fn_ini_fb_noise_est+0x2b>:
    134b:	f01d           	retw.n

0000134d <fn_ini_fb_noise_est+0x2d>:
    134d:	000000                                        ...

00001350 <fn_fb_noise_est>:
    1350:	004136        	entry	a1, 32
    1353:	509304        	ae_lp24f.iu	aep1, a3, 0
    1356:	027d           	mov.n	a7, a2
    1358:	18c282        	addi	a8, a2, 24
    135b:	082d           	mov.n	a2, a8
    135d:	508204        	ae_lp24f.iu	aep0, a2, 0
    1360:	076416        	beqz	a4, 13da <fn_fb_noise_est+0x8a>
    1363:	2738           	l32i.n	a3, a7, 8
    1365:	213830        	srai	a3, a3, 8
    1368:	399334        	ae_movpa24x2	aep1, a3, a3
    136b:	81a032        	movi	a3, 129
    136e:	0b8376        	loop	a3, 137d <fn_fb_noise_est+0x2d>
    1371:	010144        	ae_mulfp24s.hh	aeq0, aep0, aep1
    1374:	1b8d04        	ae_roundsp24q48asym	aep0, aeq0
    1377:	528204        	ae_sp24f.l.iu	aep0, a2, 0
    137a:	508214        	ae_lp24f.iu	aep0, a2, 4

0000137d <fn_fb_noise_est+0x2d>:
    137d:	032762        	l32i	a6, a7, 12
    1380:	80a032        	movi	a3, 128
    1383:	216860        	srai	a6, a6, 8
    1386:	399664        	ae_movpa24x2	aep1, a6, a6
    1389:	0b8376        	loop	a3, 1398 <fn_fb_noise_est+0x48>
    138c:	010144        	ae_mulfp24s.hh	aeq0, aep0, aep1
    138f:	1b8d04        	ae_roundsp24q48asym	aep0, aeq0
    1392:	528204        	ae_sp24f.l.iu	aep0, a2, 0
    1395:	508214        	ae_lp24f.iu	aep0, a2, 4

00001398 <fn_fb_noise_est+0x48>:
    1398:	fcc522        	addi	a2, a5, -4
    139b:	4798           	l32i.n	a9, a7, 16
    139d:	508804        	ae_lp24f.iu	aep0, a8, 0
    13a0:	80a042        	movi	a4, 128
    13a3:	219890        	srai	a9, a9, 8
    13a6:	39a994        	ae_movpa24x2	aep2, a9, a9
    13a9:	0e8476        	loop	a4, 13bb <fn_fb_noise_est+0x6b>
    13ac:	010274        	ae_mulfp24s.ll	aeq0, aep0, aep2
    13af:	1b8d14        	ae_roundsp24q48asym	aep1, aeq0
    13b2:	079014        	ae_addsp24s	aep1, aep1, aep0
    13b5:	529214        	ae_sp24f.l.iu	aep1, a2, 4
    13b8:	508814        	ae_lp24f.iu	aep0, a8, 4

000013bb <fn_fb_noise_est+0x6b>:
    13bb:	57a8           	l32i.n	a10, a7, 20
    13bd:	81a042        	movi	a4, 129
    13c0:	21a8a0        	srai	a10, a10, 8
    13c3:	39aaa4        	ae_movpa24x2	aep2, a10, a10
    13c6:	0e8476        	loop	a4, 13d8 <fn_fb_noise_est+0x88>
    13c9:	010274        	ae_mulfp24s.ll	aeq0, aep0, aep2
    13cc:	1b8d14        	ae_roundsp24q48asym	aep1, aeq0
    13cf:	079014        	ae_addsp24s	aep1, aep1, aep0
    13d2:	529214        	ae_sp24f.l.iu	aep1, a2, 4
    13d5:	508814        	ae_lp24f.iu	aep0, a8, 4
    13d8:	f01d           	retw.n

000013da <fn_fb_noise_est+0x8a>:
    13da:	17d8           	l32i.n	a13, a7, 4
    13dc:	07c8           	l32i.n	a12, a7, 0
    13de:	0020f0        	nop
    13e1:	21d8d0        	srai	a13, a13, 8
    13e4:	21c8c0        	srai	a12, a12, 8
    13e7:	39acd4        	ae_movpa24x2	aep2, a12, a13
    13ea:	010244        	ae_mulfp24s.hh	aeq0, aep0, aep2
    13ed:	011234        	ae_mulafp24s.ll	aeq0, aep1, aep2
    13f0:	f967c1004f 	{ movi	a4, 0x100; ae_roundsp24q48asym	aep3, aeq0 }
    13f5:	52b204        	ae_sp24f.l.iu	aep3, a2, 0
    13f8:	f86aee821f 	{ ae_lp24f.iu	aep0, a2, 4; ae_movp48	aep1, aep2 }
    13fd:	108476        	loop	a4, 1411 <fn_fb_noise_est+0xc1>
    1400:	e820ae831f 	{ ae_lp24f.iu	aep0, a3, 4; ae_mulfp24s.hh	aeq0, aep0, aep1 }
    1405:	010134        	ae_mulafp24s.ll	aeq0, aep0, aep1
    1408:	1b8d04        	ae_roundsp24q48asym	aep0, aeq0
    140b:	528204        	ae_sp24f.l.iu	aep0, a2, 0
    140e:	508214        	ae_lp24f.iu	aep0, a2, 4

00001411 <fn_fb_noise_est+0xc1>:
    1411:	ffe0c6        	j	1398 <fn_fb_noise_est+0x48>

00001414 <fn_ini_st_noise_est>:
    1414:	004136        	entry	a1, 32
    1417:	02ad           	mov.n	a10, a2
    1419:	fb2b81        	l32r	a8, c8 (8808 <xt_memset>)
    141c:	00a0b2        	movi	a11, 0
    141f:	5ea3c2        	movi	a12, 0x35e
    1422:	0008e0        	callx8	a8
    1425:	0a0c           	movi.n	a10, 0
    1427:	98a4d2        	movi	a13, 0x498
    142a:	fb2891        	l32r	a9, cc (ffffb800 <_end+0xfffee074>)
    142d:	9c0c           	movi.n	a12, 9
    142f:	06d2b2        	addmi	a11, a2, 0x600
    1432:	6ccbb2        	addi	a11, a11, 108
    1435:	2eac76        	loopgtz	a12, 1467 <fn_ini_st_noise_est+0x53>
    1438:	ca2a           	add.n	a12, a10, a2
    143a:	0b99           	s32i.n	a9, a11, 0
    143c:	30caa2        	addi	a10, a10, 48
    143f:	bb4b           	addi.n	a11, a11, 4
    1441:	ccda           	add.n	a12, a12, a13
    1443:	09ec94        	ae_s32ip	a9, a12, 4
    1446:	09ec94        	ae_s32ip	a9, a12, 4
    1449:	09ec94        	ae_s32ip	a9, a12, 4
    144c:	09ec94        	ae_s32ip	a9, a12, 4
    144f:	09ec94        	ae_s32ip	a9, a12, 4
    1452:	09ec94        	ae_s32ip	a9, a12, 4
    1455:	09ec94        	ae_s32ip	a9, a12, 4
    1458:	09ec94        	ae_s32ip	a9, a12, 4
    145b:	09ec94        	ae_s32ip	a9, a12, 4
    145e:	09ec94        	ae_s32ip	a9, a12, 4
    1461:	09ec94        	ae_s32ip	a9, a12, 4
    1464:	09ec94        	ae_s32ip	a9, a12, 4

00001467 <fn_ini_st_noise_est+0x53>:
    1467:	03bd           	mov.n	a11, a3
    1469:	fae681        	l32r	a8, 4 (8820 <xt_memcpy>)
    146c:	02ad           	mov.n	a10, a2
    146e:	14a0c2        	movi	a12, 20
    1471:	0008e0        	callx8	a8
    1474:	28c282        	addi	a8, a2, 40
    1477:	00a192        	movi	a9, 0x100
    147a:	eda0a2        	movi	a10, 237
    147d:	028a76        	loop	a10, 1483 <fn_ini_st_noise_est+0x6f>
    1480:	09e894        	ae_s32ip	a9, a8, 4
    1483:	f01d           	retw.n

00001485 <fn_ini_st_noise_est+0x71>:
    1485:	000000                                        ...

00001488 <fn_st_noise_est>:
    1488:	00e136        	entry	a1, 112
    148b:	d139           	s32i.n	a3, a1, 52
    148d:	faee71        	l32r	a7, 48 (8000 <xtensa_fft8_32b+0xf0>)
    1490:	0b0c           	movi.n	a11, 0
    1492:	03d282        	addmi	a8, a2, 0x300
    1495:	a149           	s32i.n	a4, a1, 40
    1497:	04a0d2        	movi	a13, 4
    149a:	fb0d41        	l32r	a4, d0 (d5b0 <sb_ptn>)
    149d:	39bdd4        	ae_movpa24x2	aep3, a13, a13
    14a0:	0b6182        	s32i	a8, a1, 44
    14a3:	0c61b2        	s32i	a11, a1, 48
    14a6:	206880        	or	a6, a8, a8
    14a9:	00a0b2        	movi	a11, 0
    14ac:	fd2082488e 	{ addi	a8, a8, 36; ae_zerop48	aep2 }
    14b1:	106182        	s32i	a8, a1, 64

000014b4 <fn_st_noise_est+0x2c>:
    14b4:	24ad           	ae_l16si.n	a10, a4, 0
    14b6:	349d           	ae_l16si.n	a9, a4, 2
    14b8:	d188           	l32i.n	a8, a1, 52
    14ba:	01b9           	s32i.n	a11, a1, 0
    14bc:	c099a0        	sub	a9, a9, a10
    14bf:	a08a80        	addx4	a8, a10, a8
    14c2:	508804        	ae_lp24f.iu	aep0, a8, 0
    14c5:	0aa976        	loopgtz	a9, 14d3 <fn_st_noise_est+0x4b>
    14c8:	d8616e881f 	{ ae_lp24f.iu	aep0, a8, 4; ae_addsp24s	aep1, aep0, aep3 }
    14cd:	0f1194        	ae_sraip24	aep1, aep1, 3
    14d0:	07a124        	ae_addsp24s	aep2, aep2, aep1

000014d3 <fn_st_noise_est+0x4b>:
    14d3:	522104        	ae_sp24f.l.i	aep2, a1, 0
    14d6:	0021a2        	l32i	a10, a1, 0
    14d9:	faf481        	l32r	a8, ac (d40 <fxlog10>)
    14dc:	0020f0        	nop
    14df:	21a8a0        	srai	a10, a10, 8
    14e2:	0008e0        	callx8	a8
    14e5:	fafbc1        	l32r	a12, d4 (6a4d <fill_vad_thrd_Nbands+0x2d>)
    14e8:	f03d           	nop.n
    14ea:	f03d           	nop.n
    14ec:	d1cac0        	mul16s	a12, a10, a12
    14ef:	5d2692        	l32i	a9, a6, 0x174
    14f2:	90cc70        	addx2	a12, a12, a7
    14f5:	31c0c0        	srai	a12, a12, 16
    14f8:	11ac00        	slli	a10, a12, 16
    14fb:	4b66c2        	s32i	a12, a6, 0x12c
    14fe:	228d           	ae_l16si.n	a8, a2, 0
    1500:	323d           	ae_l16si.n	a3, a2, 2
    1502:	31b0c0        	srai	a11, a12, 16
    1505:	7299c0        	salt	a9, a9, a12
    1508:	933890        	movnez	a3, a8, a9
    150b:	833d           	ae_sext16	a3, a3
    150d:	ff92e5        	call8	e3c <_saturate32>
    1510:	4b26e2        	l32i	a14, a6, 0x12c
    1513:	5d26d2        	l32i	a13, a6, 0x174
    1516:	205aa0        	or	a5, a10, a10
    1519:	f03d           	nop.n
    151b:	c0ade0        	sub	a10, a13, a14
    151e:	ff9025        	call8	e20 <_saturate16>
    1521:	d1d3a0        	mul16s	a13, a3, a10
    1524:	31cf50        	srai	a12, a5, 31
    1527:	90ad50        	addx2	a10, a13, a5
    152a:	62ba50        	saltu	a11, a10, a5
    152d:	11ddf0        	slli	a13, a13, 1
    1530:	31dfd0        	srai	a13, a13, 31
    1533:	80ccd0        	add	a12, a12, a13
    1536:	80bbc0        	add	a11, a11, a12
    1539:	ff9025        	call8	e3c <_saturate32>
    153c:	5426c2        	l32i	a12, a6, 0x150
    153f:	4b2692        	l32i	a9, a6, 0x12c
    1542:	80da70        	add	a13, a10, a7
    1545:	31d0d0        	srai	a13, a13, 16
    1548:	5d66d2        	s32i	a13, a6, 0x174
    154b:	029282        	l16si	a8, a2, 4
    154e:	039232        	l16si	a3, a2, 6
    1551:	31b090        	srai	a11, a9, 16
    1554:	11a900        	slli	a10, a9, 16
    1557:	7299c0        	salt	a9, a9, a12
    155a:	933890        	movnez	a3, a8, a9
    155d:	833d           	ae_sext16	a3, a3
    155f:	ff8de5        	call8	e3c <_saturate32>
    1562:	4b26f2        	l32i	a15, a6, 0x12c
    1565:	5426e2        	l32i	a14, a6, 0x150
    1568:	0a5d           	mov.n	a5, a10
    156a:	c0aef0        	sub	a10, a14, a15
    156d:	ff8b25        	call8	e20 <_saturate16>
    1570:	d1d3a0        	mul16s	a13, a3, a10
    1573:	31cf50        	srai	a12, a5, 31
    1576:	90ad50        	addx2	a10, a13, a5
    1579:	62ba50        	saltu	a11, a10, a5
    157c:	11ddf0        	slli	a13, a13, 1
    157f:	31dfd0        	srai	a13, a13, 31
    1582:	ccda           	add.n	a12, a12, a13
    1584:	bbca           	add.n	a11, a11, a12
    1586:	ff8b65        	call8	e3c <_saturate32>
    1589:	ba7a           	add.n	a11, a10, a7
    158b:	5d26a2        	l32i	a10, a6, 0x174
    158e:	31b0b0        	srai	a11, a11, 16
    1591:	5466b2        	s32i	a11, a6, 0x150
    1594:	c0aab0        	sub	a10, a10, a11
    1597:	ff88a5        	call8	e20 <_saturate16>
    159a:	0492c2        	l16si	a12, a2, 8
    159d:	0baca7        	bge	a12, a10, 15ac <fn_st_noise_est+0x124>
    15a0:	c1b8           	l32i.n	a11, a1, 48
    15a2:	0592a2        	l16si	a10, a2, 10
    15a5:	aaba           	add.n	a10, a10, a11
    15a7:	ff87a5        	call8	e20 <_saturate16>
    15aa:	c1a9           	s32i.n	a10, a1, 48

000015ac <fn_st_noise_est+0x124>:
    15ac:	442b           	addi.n	a4, a4, 2
    15ae:	0b0c           	movi.n	a11, 0
    15b0:	664b           	addi.n	a6, a6, 4
    15b2:	1021c2        	l32i	a12, a1, 64
    15b5:	4d0c           	movi.n	a13, 4
    15b7:	39bdd4        	ae_movpa24x2	aep3, a13, a13
    15ba:	fd2095c6cf 	{ sub	a12, a6, a12; ae_zerop48	aep2 }
    15bf:	ef1c56        	bnez	a12, 14b4 <fn_st_noise_est+0x2c>
    15c2:	069242        	l16si	a4, a2, 12
    15c5:	c188           	l32i.n	a8, a1, 48
    15c7:	079232        	l16si	a3, a2, 14
    15ca:	060c           	movi.n	a6, 0
    15cc:	726680        	salt	a6, a6, a8
    15cf:	933460        	movnez	a3, a4, a6
    15d2:	833d           	ae_sext16	a3, a3
    15d4:	b168           	l32i.n	a6, a1, 44
    15d6:	940c           	movi.n	a4, 9
    15d8:	000346        	j	15e9 <fn_st_noise_est+0x161>

000015db <fn_st_noise_est+0x153>:
    15db:	fabfb1        	l32r	a11, d8 (ffff8400 <_end+0xfffeac74>)

000015de <fn_st_noise_est+0x156>:
    15de:	d266b2        	s32i	a11, a6, 0x348
    15e1:	440b           	addi.n	a4, a4, -1
    15e3:	04c662        	addi	a6, a6, 4
    15e6:	077416        	beqz	a4, 1661 <fn_st_noise_est+0x1d9>

000015e9 <fn_st_noise_est+0x161>:
    15e9:	4b26a2        	l32i	a10, a6, 0x12c
    15ec:	404010        	ssai	16
    15ef:	f03d           	nop.n
    15f1:	31bfa0        	srai	a11, a10, 31
    15f4:	81bba0        	src	a11, a11, a10
    15f7:	11aa00        	slli	a10, a10, 16
    15fa:	ff8425        	call8	e3c <_saturate32>
    15fd:	4b26d2        	l32i	a13, a6, 0x12c
    1600:	d226c2        	l32i	a12, a6, 0x348
    1603:	0a5d           	mov.n	a5, a10
    1605:	c0acd0        	sub	a10, a12, a13
    1608:	ff8165        	call8	e20 <_saturate16>
    160b:	4159           	s32i.n	a5, a1, 16
    160d:	d1a3a0        	mul16s	a10, a3, a10
    1610:	31cf50        	srai	a12, a5, 31
    1613:	e1c9           	s32i.n	a12, a1, 56
    1615:	11daf0        	slli	a13, a10, 1
    1618:	90aa50        	addx2	a10, a10, a5
    161b:	31dfd0        	srai	a13, a13, 31
    161e:	ccda           	add.n	a12, a12, a13
    1620:	62ba50        	saltu	a11, a10, a5
    1623:	bbca           	add.n	a11, a11, a12
    1625:	ff8165        	call8	e3c <_saturate32>
    1628:	faac81        	l32r	a8, d8 (ffff8400 <_end+0xfffeac74>)
    162b:	ba7a           	add.n	a11, a10, a7
    162d:	31b0b0        	srai	a11, a11, 16
    1630:	a72b87        	blt	a11, a8, 15db <fn_st_noise_est+0x153>
    1633:	4b26b2        	l32i	a11, a6, 0x12c
    1636:	d226a2        	l32i	a10, a6, 0x348
    1639:	4158           	l32i.n	a5, a1, 16
    163b:	c0aab0        	sub	a10, a10, a11
    163e:	ff7e25        	call8	e20 <_saturate16>
    1641:	d1d3a0        	mul16s	a13, a3, a10
    1644:	e1c8           	l32i.n	a12, a1, 56
    1646:	90ad50        	addx2	a10, a13, a5
    1649:	62ba50        	saltu	a11, a10, a5
    164c:	11ddf0        	slli	a13, a13, 1
    164f:	31dfd0        	srai	a13, a13, 31
    1652:	ccda           	add.n	a12, a12, a13
    1654:	bbca           	add.n	a11, a11, a12
    1656:	ff7e65        	call8	e3c <_saturate32>
    1659:	ba7a           	add.n	a11, a10, a7
    165b:	31b0b0        	srai	a11, a11, 16
    165e:	ffdf06        	j	15de <fn_st_noise_est+0x156>

00001661 <fn_st_noise_est+0x1d9>:
    1661:	06d2b2        	addmi	a11, a2, 0x600
    1664:	5a9b82        	l16si	a8, a11, 180
    1667:	b8cb92        	addi	a9, a11, -72
    166a:	f199           	s32i.n	a9, a1, 60
    166c:	881b           	addi.n	a8, a8, 1
    166e:	888d           	ae_sext16	a8, a8
    1670:	5a5b82        	s16i	a8, a11, 180
    1673:	06a8a6        	blti	a8, 12, 167d <fn_st_noise_est+0x1f5>
    1676:	080c           	movi.n	a8, 0
    1678:	0a0c           	movi.n	a10, 0
    167a:	5a5ba2        	s16i	a10, a11, 180

0000167d <fn_st_noise_est+0x1f5>:
    167d:	180816        	beqz	a8, 1801 <fn_st_noise_est+0x379>
    1680:	090c           	movi.n	a9, 0
    1682:	f1e8           	l32i.n	a14, a1, 60
    1684:	9ca2f2        	movi	a15, 0x29c
    1687:	0b21a2        	l32i	a10, a1, 44
    168a:	09a082        	movi	a8, 9
    168d:	198876        	loop	a8, 16aa <fn_st_noise_est+0x222>
    1690:	7f9e82        	l16si	a8, a14, 254
    1693:	d22ab2        	l32i	a11, a10, 0x348
    1696:	aa4b           	addi.n	a10, a10, 4
    1698:	889a           	add.n	a8, a8, a9
    169a:	a08820        	addx4	a8, a8, a2
    169d:	88fa           	add.n	a8, a8, a15
    169f:	7f28c2        	l32i	a12, a8, 0x1fc
    16a2:	99cb           	addi.n	a9, a9, 12
    16a4:	43bcb0        	min	a11, a12, a11
    16a7:	7f68b2        	s32i	a11, a8, 0x1fc

000016aa <fn_st_noise_est+0x222>:
    16aa:	b168           	l32i.n	a6, a1, 44
    16ac:	040c           	movi.n	a4, 0

000016ae <fn_st_noise_est+0x226>:
    16ae:	db26b2        	l32i	a11, a6, 0x36c
    16b1:	d226a2        	l32i	a10, a6, 0x348
    16b4:	c0aab0        	sub	a10, a10, a11
    16b7:	ff76a5        	call8	e20 <_saturate16>
    16ba:	fa88b1        	l32r	a11, dc (e39 <_saturate16+0x19>)
    16bd:	d1aab0        	mul16s	a10, a10, a11
    16c0:	90aa70        	addx2	a10, a10, a7
    16c3:	31a0a0        	srai	a10, a10, 16
    16c6:	a4aa           	add.n	a10, a4, a10
    16c8:	ff7565        	call8	e20 <_saturate16>
    16cb:	1021c2        	l32i	a12, a1, 64
    16ce:	0a4d           	mov.n	a4, a10
    16d0:	664b           	addi.n	a6, a6, 4
    16d2:	d896c7        	bne	a6, a12, 16ae <fn_st_noise_est+0x226>
    16d5:	b168           	l32i.n	a6, a1, 44
    16d7:	fa8331        	l32r	a3, e4 (d5d0 <score_bands>)
    16da:	fa8171        	l32r	a7, e0 (d5f0 <vad_thrd_bands>)
    16dd:	f1e8           	l32i.n	a14, a1, 60
    16df:	0d0c           	movi.n	a13, 0
    16e1:	099792        	l16si	a9, a7, 18
    16e4:	080c           	movi.n	a8, 0
    16e6:	fa5bf1        	l32r	a15, 54 (7fff <xtensa_fft8_32b+0xef>)
    16e9:	c09a90        	sub	a9, a10, a9
    16ec:	728890        	salt	a8, a8, a9
    16ef:	93df80        	movnez	a13, a15, a8
    16f2:	805ed2        	s16i	a13, a14, 0x100

000016f5 <fn_st_noise_est+0x26d>:
    16f5:	db26b2        	l32i	a11, a6, 0x36c
    16f8:	d226a2        	l32i	a10, a6, 0x348
    16fb:	c0aab0        	sub	a10, a10, a11
    16fe:	ff7225        	call8	e20 <_saturate16>
    1701:	27cd           	ae_l16si.n	a12, a7, 0
    1703:	c0aac0        	sub	a10, a10, a12
    1706:	ff71a5        	call8	e20 <_saturate16>
    1709:	e466a2        	s32i	a10, a6, 0x390
    170c:	101aa6        	blti	a10, 1, 1720 <fn_st_noise_est+0x298>
    170f:	f1b8           	l32i.n	a11, a1, 60
    1711:	23ad           	ae_l16si.n	a10, a3, 0
    1713:	809bb2        	l16si	a11, a11, 0x100
    1716:	aaba           	add.n	a10, a10, a11
    1718:	ff7065        	call8	e20 <_saturate16>
    171b:	f1c8           	l32i.n	a12, a1, 60
    171d:	805ca2        	s16i	a10, a12, 0x100

00001720 <fn_st_noise_est+0x298>:
    1720:	332b           	addi.n	a3, a3, 2
    1722:	1021d2        	l32i	a13, a1, 64
    1725:	772b           	addi.n	a7, a7, 2
    1727:	664b           	addi.n	a6, a6, 4
    1729:	c896d7        	bne	a6, a13, 16f5 <fn_st_noise_est+0x26d>
    172c:	f188           	l32i.n	a8, a1, 60
    172e:	0892e2        	l16si	a14, a2, 16
    1731:	809882        	l16si	a8, a8, 0x100
    1734:	0228e7        	blt	a8, a14, 173a <fn_st_noise_est+0x2b2>
    1737:	002246        	j	17c4 <fn_st_noise_est+0x33c>
    173a:	0a9292        	l16si	a9, a2, 20
    173d:	042987        	blt	a9, a8, 1745 <fn_st_noise_est+0x2bd>
    1740:	62b8           	l32i.n	a11, a2, 24
    1742:	000306        	j	1752 <fn_st_noise_est+0x2ca>

00001745 <fn_st_noise_est+0x2bd>:
    1745:	72a8           	l32i.n	a10, a2, 28
    1747:	0992c2        	l16si	a12, a2, 18
    174a:	82b8           	l32i.n	a11, a2, 32
    174c:	72cc80        	salt	a12, a12, a8
    174f:	83bac0        	moveqz	a11, a10, a12

00001752 <fn_st_noise_est+0x2ca>:
    1752:	b168           	l32i.n	a6, a1, 44
    1754:	fa5f41        	l32r	a4, d0 (d5b0 <sb_ptn>)
    1757:	21f8b0        	srai	a15, a11, 8
    175a:	00af72        	movi	a7, 0xffffff00

0000175d <fn_st_noise_est+0x2d5>:
    175d:	e426d2        	l32i	a13, a6, 0x390
    1760:	1021c2        	l32i	a12, a1, 64
    1763:	664b           	addi.n	a6, a6, 4
    1765:	561de6        	bgei	a13, 1, 17bf <fn_st_noise_est+0x337>
    1768:	24ed           	ae_l16si.n	a14, a4, 0
    176a:	34dd           	ae_l16si.n	a13, a4, 2
    176c:	d198           	l32i.n	a9, a1, 52
    176e:	a0ae20        	addx4	a10, a14, a2
    1771:	24ca82        	addi	a8, a10, 36
    1774:	a09e90        	addx4	a9, a14, a9
    1777:	605904        	ae_lq32f.iu	aeq1, a9, 0
    177a:	28caa2        	addi	a10, a10, 40
    177d:	601a04        	ae_lq32f.iu	aeq0, a10, 0
    1780:	3baed7        	bge	a14, a13, 17bf <fn_st_noise_est+0x337>
    1783:	36c734        	ae_cvtq48a32s	aeq3, a7
    1786:	01b1e4        	ae_andq56	aeq2, aeq1, aeq3
    1789:	010ec4        	ae_subq56	aeq0, aeq0, aeq2
    178c:	f942621fff 	{ ae_movpa24x2	aep1, a15, a15; ae_truncp24q48x2	aep3, aeq0, aeq0 }
    1791:	013934        	ae_mulafp24s.ll	aeq1, aep3, aep1
    1794:	c0bde0        	sub	a11, a13, a14
    1797:	f96f8ffbbe 	{ addi	a11, a11, -1; ae_roundsp24q48asym	aep2, aeq1 }
    179c:	52a814        	ae_sp24f.l.iu	aep2, a8, 4
    179f:	601914        	ae_lq32f.iu	aeq0, a9, 4
    17a2:	0020f0        	nop
    17a5:	16ab76        	loopgtz	a11, 17bf <fn_st_noise_est+0x337>
    17a8:	f95b3d5a1f 	{ ae_lq32f.iu	aeq2, a10, 4; ae_andq56	aeq1, aeq0, aeq3 }
    17ad:	016dc4        	ae_subq56	aeq1, aeq2, aeq1
    17b0:	099d04        	ae_truncp24q48x2	aep0, aeq1, aeq1
    17b3:	010134        	ae_mulafp24s.ll	aeq0, aep0, aep1
    17b6:	1b8d04        	ae_roundsp24q48asym	aep0, aeq0
    17b9:	528814        	ae_sp24f.l.iu	aep0, a8, 4
    17bc:	601914        	ae_lq32f.iu	aeq0, a9, 4
    17bf:	442b           	addi.n	a4, a4, 2
    17c1:	9896c7        	bne	a6, a12, 175d <fn_st_noise_est+0x2d5>

000017c4 <fn_st_noise_est+0x33c>:
    17c4:	9298           	l32i.n	a9, a2, 36
    17c6:	a188           	l32i.n	a8, a1, 40
    17c8:	eda0a2        	movi	a10, 237
    17cb:	219890        	srai	a9, a9, 8
    17ce:	fcc882        	addi	a8, a8, -4
    17d1:	39a994        	ae_movpa24x2	aep2, a9, a9
    17d4:	28c292        	addi	a9, a2, 40
    17d7:	508904        	ae_lp24f.iu	aep0, a9, 0
    17da:	0e8a76        	loop	a10, 17ec <fn_st_noise_est+0x364>
    17dd:	010274        	ae_mulfp24s.ll	aeq0, aep0, aep2
    17e0:	1b8d14        	ae_roundsp24q48asym	aep1, aeq0
    17e3:	079014        	ae_addsp24s	aep1, aep1, aep0
    17e6:	529814        	ae_sp24f.l.iu	aep1, a8, 4
    17e9:	508914        	ae_lp24f.iu	aep0, a9, 4

000017ec <fn_st_noise_est+0x364>:
    17ec:	a188           	l32i.n	a8, a1, 40
    17ee:	090c           	movi.n	a9, 0
    17f0:	14a0a2        	movi	a10, 20
    17f3:	04d882        	addmi	a8, a8, 0x400
    17f6:	b4c882        	addi	a8, a8, -76
    17f9:	028a76        	loop	a10, 17ff <fn_st_noise_est+0x377>
    17fc:	09e894        	ae_s32ip	a9, a8, 4
    17ff:	f01d           	retw.n

00001801 <fn_st_noise_est+0x379>:
    1801:	f1a8           	l32i.n	a10, a1, 60
    1803:	7f9a92        	l16si	a9, a10, 254
    1806:	991b           	addi.n	a9, a9, 1
    1808:	899d           	ae_sext16	a9, a9
    180a:	7f5a92        	s16i	a9, a10, 254
    180d:	07a9a6        	blti	a9, 12, 1818 <fn_st_noise_est+0x390>
    1810:	f1b8           	l32i.n	a11, a1, 60
    1812:	00a0a2        	movi	a10, 0
    1815:	7f5ba2        	s16i	a10, a11, 254

00001818 <fn_st_noise_est+0x390>:
    1818:	b168           	l32i.n	a6, a1, 44
    181a:	03d2d2        	addmi	a13, a2, 0x300
    181d:	9c0c           	movi.n	a12, 9
    181f:	e1ab           	addi.n	a14, a1, 10
    1821:	0f0c           	movi.n	a15, 0
    1823:	61f9           	s32i.n	a15, a1, 24
    1825:	91e9           	s32i.n	a14, a1, 36
    1827:	71c9           	s32i.n	a12, a1, 28
    1829:	9ccdd2        	addi	a13, a13, -100
    182c:	51d9           	s32i.n	a13, a1, 20
    182e:	002246        	j	18bb <fn_st_noise_est+0x433>

00001831 <fn_st_noise_est+0x3a9>:
    1831:	0591a2        	l16si	a10, a1, 10
    1834:	0491b2        	l16si	a11, a1, 8
    1837:	31dfa0        	srai	a13, a10, 31
    183a:	31cfb0        	srai	a12, a11, 31
    183d:	80aba0        	add	a10, a11, a10
    1840:	80ccd0        	add	a12, a12, a13
    1843:	62bab0        	saltu	a11, a10, a11
    1846:	80bbc0        	add	a11, a11, a12
    1849:	ff5f25        	call8	e3c <_saturate32>
    184c:	0691b2        	l16si	a11, a1, 12
    184f:	31dfa0        	srai	a13, a10, 31
    1852:	31cfb0        	srai	a12, a11, 31
    1855:	ccda           	add.n	a12, a12, a13
    1857:	abaa           	add.n	a10, a11, a10
    1859:	62bab0        	saltu	a11, a10, a11
    185c:	bbca           	add.n	a11, a11, a12
    185e:	ff5de5        	call8	e3c <_saturate32>
    1861:	0791b2        	l16si	a11, a1, 14
    1864:	31dfa0        	srai	a13, a10, 31
    1867:	31cfb0        	srai	a12, a11, 31
    186a:	ccda           	add.n	a12, a12, a13
    186c:	abaa           	add.n	a10, a11, a10
    186e:	62bab0        	saltu	a11, a10, a11
    1871:	bbca           	add.n	a11, a11, a12
    1873:	ff5ca5        	call8	e3c <_saturate32>
    1876:	5158           	l32i.n	a5, a1, 20
    1878:	6138           	l32i.n	a3, a1, 24
    187a:	7148           	l32i.n	a4, a1, 28
    187c:	404200        	ssai	2
    187f:	31cfa0        	srai	a12, a10, 31
    1882:	ba2b           	addi.n	a11, a10, 2
    1884:	62aba0        	saltu	a10, a11, a10
    1887:	80aac0        	add	a10, a10, a12
    188a:	81aab0        	src	a10, a10, a11
    188d:	ff5925        	call8	e20 <_saturate16>
    1890:	d226d2        	l32i	a13, a6, 0x348
    1893:	440b           	addi.n	a4, a4, -1
    1895:	db66a2        	s32i	a10, a6, 0x36c
    1898:	f1e8           	l32i.n	a14, a1, 60
    189a:	30c552        	addi	a5, a5, 48
    189d:	5159           	s32i.n	a5, a1, 20
    189f:	7f9ee2        	l16si	a14, a14, 254
    18a2:	7149           	s32i.n	a4, a1, 28
    18a4:	664b           	addi.n	a6, a6, 4
    18a6:	ee3a           	add.n	a14, a14, a3
    18a8:	a0ee20        	addx4	a14, a14, a2
    18ab:	8138           	l32i.n	a3, a1, 32
    18ad:	6139           	s32i.n	a3, a1, 24
    18af:	03dee2        	addmi	a14, a14, 0x300
    18b2:	9ccee2        	addi	a14, a14, -100
    18b5:	7f6ed2        	s32i	a13, a14, 0x1fc
    18b8:	dee416        	beqz	a4, 16aa <fn_st_noise_est+0x222>

000018bb <fn_st_noise_est+0x433>:
    18bb:	5148           	l32i.n	a4, a1, 20
    18bd:	f9e581        	l32r	a8, 54 (7fff <xtensa_fft8_32b+0xef>)
    18c0:	065182        	s16i	a8, a1, 12
    18c3:	7f2442        	l32i	a4, a4, 0x1fc
    18c6:	075142        	s16i	a4, a1, 14
    18c9:	6148           	l32i.n	a4, a1, 24
    18cb:	055182        	s16i	a8, a1, 10
    18ce:	045182        	s16i	a8, a1, 8
    18d1:	341b           	addi.n	a3, a4, 1
    18d3:	a03320        	addx4	a3, a3, a2
    18d6:	44cb           	addi.n	a4, a4, 12
    18d8:	8149           	s32i.n	a4, a1, 32
    18da:	03d332        	addmi	a3, a3, 0x300
    18dd:	9cc332        	addi	a3, a3, -100
    18e0:	a04420        	addx4	a4, a4, a2
    18e3:	03d442        	addmi	a4, a4, 0x300
    18e6:	9cc442        	addi	a4, a4, -100

000018e9 <fn_st_noise_est+0x461>:
    18e9:	079192        	l16si	a9, a1, 14
    18ec:	7f2382        	l32i	a8, a3, 0x1fc
    18ef:	0691a2        	l16si	a10, a1, 12
    18f2:	142897        	blt	a8, a9, 190a <fn_st_noise_est+0x482>
    18f5:	2828a7        	blt	a8, a10, 1921 <fn_st_noise_est+0x499>
    18f8:	0591d2        	l16si	a13, a1, 10
    18fb:	0491a2        	l16si	a10, a1, 8
    18fe:	34a8d7        	bge	a8, a13, 1936 <fn_st_noise_est+0x4ae>
    1901:	0451d2        	s16i	a13, a1, 8
    1904:	055182        	s16i	a8, a1, 10
    1907:	000c46        	j	193c <fn_st_noise_est+0x4b4>

0000190a <fn_st_noise_est+0x482>:
    190a:	a18b           	addi.n	a10, a1, 8
    190c:	f9be81        	l32r	a8, 4 (8820 <xt_memcpy>)
    190f:	0921b2        	l32i	a11, a1, 36
    1912:	03a0c2        	movi	a12, 3
    1915:	0008e0        	callx8	a8
    1918:	7f2392        	l32i	a9, a3, 0x1fc
    191b:	075192        	s16i	a9, a1, 14
    191e:	000686        	j	193c <fn_st_noise_est+0x4b4>

00001921 <fn_st_noise_est+0x499>:
    1921:	a18b           	addi.n	a10, a1, 8
    1923:	f9b881        	l32r	a8, 4 (8820 <xt_memcpy>)
    1926:	91b8           	l32i.n	a11, a1, 36
    1928:	2c0c           	movi.n	a12, 2
    192a:	0008e0        	callx8	a8
    192d:	7f2392        	l32i	a9, a3, 0x1fc
    1930:	065192        	s16i	a9, a1, 12
    1933:	000146        	j	193c <fn_st_noise_est+0x4b4>

00001936 <fn_st_noise_est+0x4ae>:
    1936:	43a8a0        	min	a10, a8, a10
    1939:	0451a2        	s16i	a10, a1, 8
    193c:	334b           	addi.n	a3, a3, 4
    193e:	a79347        	bne	a3, a4, 18e9 <fn_st_noise_est+0x461>
    1941:	ffbb06        	j	1831 <fn_st_noise_est+0x3a9>

00001944 <fn_ini_analysis_frame>:
    1944:	004136        	entry	a1, 32
    1947:	02ad           	mov.n	a10, a2
    1949:	f9df81        	l32r	a8, c8 (8808 <xt_memset>)
    194c:	0b0c           	movi.n	a11, 0
    194e:	c8a3c2        	movi	a12, 0x3c8
    1951:	0008e0        	callx8	a8
    1954:	07d292        	addmi	a9, a2, 0x700
    1957:	226932        	s32i	a3, a9, 136
    195a:	f01d           	retw.n

0000195c <fn_analysis_frame>:
    195c:	004136        	entry	a1, 32
    195f:	78a082        	movi	a8, 120
    1962:	f0a0b2        	movi	a11, 240
    1965:	a50b           	addi.n	a10, a5, -1
    1967:	07d2d2        	addmi	a13, a2, 0x700
    196a:	222dd2        	l32i	a13, a13, 136
    196d:	04d292        	addmi	a9, a2, 0x400
    1970:	c4c992        	addi	a9, a9, -60
    1973:	08dd52        	addmi	a5, a13, 0x800
    1976:	0afa16        	beqz	a10, 1a29 <fn_analysis_frame+0xcd>
    1979:	fcc3e2        	addi	a14, a3, -4
    197c:	301664        	ae_cvtp24a16x2.ll	aep1, a6, a6
    197f:	08ad           	mov.n	a10, a8
    1981:	238a76        	loop	a10, 19a8 <fn_analysis_frame+0x4c>
    1984:	448e14        	ae_lp16x2f.iu	aep0, a14, 4
    1987:	0a4084        	ae_cvtq48p24s.l	aeq1, aep0
    198a:	031a54        	ae_mulfq32sp16s.l	aeq1, aeq1, aep1
    198d:	0a0884        	ae_cvtq48p24s.h	aeq0, aep0
    1990:	d4e63ad14f 	{ ae_sllisq56s	aeq1, aeq1, 4; ae_mulfq32sp16s.l	aeq0, aeq0, aep1 }
    1995:	064944        	ae_satq48s	aeq1, aeq1
    1998:	fc2c7ac14f 	{ ae_sllisq56s	aeq1, aeq0, 4; ae_roundsq32asym	aeq0, aeq1 }
    199d:	fd04f9c92f 	{ ae_sq32f.iu	aeq0, a9, 8; ae_satq48s	aeq1, aeq1 }
    19a2:	065934        	ae_roundsq32asym	aeq1, aeq1
    19a5:	6219f4        	ae_sq32f.i	aeq1, a9, -4

000019a8 <fn_analysis_frame+0x4c>:
    19a8:	fccd82        	addi	a8, a13, -4
    19ab:	f9cfa1        	l32r	a10, e8 (b3a0 <window>)
    19ae:	328b           	addi.n	a3, a2, 8
    19b0:	209330        	or	a9, a3, a3
    19b3:	601904        	ae_lq32f.iu	aeq0, a9, 0
    19b6:	448a04        	ae_lp16x2f.iu	aep0, a10, 0
    19b9:	1a8b76        	loop	a11, 19d7 <fn_analysis_frame+0x7b>
    19bc:	030204        	ae_mulfq32sp16s.h	aeq0, aeq0, aep0
    19bf:	060934        	ae_roundsq32asym	aeq0, aeq0
    19c2:	620814        	ae_sq32f.i	aeq0, a8, 4
    19c5:	600914        	ae_lq32f.i	aeq0, a9, 4
    19c8:	030214        	ae_mulfq32sp16s.l	aeq0, aeq0, aep0
    19cb:	060934        	ae_roundsq32asym	aeq0, aeq0
    19ce:	624824        	ae_sq32f.iu	aeq0, a8, 8
    19d1:	601924        	ae_lq32f.iu	aeq0, a9, 8
    19d4:	448a14        	ae_lp16x2f.iu	aep0, a10, 4

000019d7 <fn_analysis_frame+0x7b>:
    19d7:	090c           	movi.n	a9, 0
    19d9:	0a2c           	movi.n	a10, 32
    19db:	08dd82        	addmi	a8, a13, 0x800
    19de:	80c882        	addi	a8, a8, -128
    19e1:	028a76        	loop	a10, 19e7 <fn_analysis_frame+0x8b>
    19e4:	09e894        	ae_s32ip	a9, a8, 4
    19e7:	f9c181        	l32r	a8, ec (4800 <real_512_fft>)
    19ea:	0dad           	mov.n	a10, a13
    19ec:	05bd           	mov.n	a11, a5
    19ee:	0008e0        	callx8	a8
    19f1:	f8c482        	addi	a8, a4, -8
    19f4:	01a1d2        	movi	a13, 0x101
    19f7:	fccab2        	addi	a11, a10, -4
    19fa:	059d           	mov.n	a9, a5
    19fc:	5c8904        	ae_lp24x2f.iu	aep0, a9, 0
    19ff:	8bbd           	ae_sext16	a11, a11
    1a01:	021be6        	bgei	a11, 1, 1a07 <fn_analysis_frame+0xab>
    1a04:	002146        	j	1a8d <fn_analysis_frame+0x131>
    1a07:	0316b4        	wur.ae_sar	a11
    1a0a:	088d76        	loop	a13, 1a16 <fn_analysis_frame+0xba>
    1a0d:	0b0084        	ae_sllssp24s	aep0, aep0
    1a10:	5e8814        	ae_sp24x2f.iu	aep0, a8, 8
    1a13:	5c8914        	ae_lp24x2f.iu	aep0, a9, 8

00001a16 <fn_analysis_frame+0xba>:
    1a16:	03ad           	mov.n	a10, a3
    1a18:	e0a1c2        	movi	a12, 0x1e0
    1a1b:	f97a81        	l32r	a8, 4 (8820 <xt_memcpy>)
    1a1e:	04d2b2        	addmi	a11, a2, 0x400
    1a21:	c8cbb2        	addi	a11, a11, -56
    1a24:	0008e0        	callx8	a8
    1a27:	f01d           	retw.n

00001a29 <fn_analysis_frame+0xcd>:
    1a29:	303664        	ae_cvtp24a16x2.ll	aep3, a6, a6
    1a2c:	448304        	ae_lp16x2f.iu	aep0, a3, 0
    1a2f:	12c8           	l32i.n	a12, a2, 4
    1a31:	02e8           	l32i.n	a14, a2, 0
    1a33:	f9afa1        	l32r	a10, f0 (15cc64 <_end+0x14f4d8>)
    1a36:	f9aff1        	l32r	a15, f4 (7af1aa <_end+0x7a1a1e>)
    1a39:	39cfa4        	ae_movpa24x2	aep4, a15, a10
    1a3c:	21e8e0        	srai	a14, a14, 8
    1a3f:	08ad           	mov.n	a10, a8
    1a41:	21c8c0        	srai	a12, a12, 8
    1a44:	208990        	or	a8, a9, a9
    1a47:	399ce4        	ae_movpa24x2	aep1, a12, a14
    1a4a:	209330        	or	a9, a3, a3
    1a4d:	338a76        	loop	a10, 1a84 <fn_analysis_frame+0x128>
    1a50:	fc043e018f 	{ ae_selp24.hh	aep2, aep0, aep1; ae_cvtq48p24s.h	aeq0, aep0 }
    1a55:	0a4084        	ae_cvtq48p24s.l	aeq1, aep0
    1a58:	054a84        	ae_mulsafp24s.hh.ll	aeq1, aep4, aep2
    1a5b:	ec303e006f 	{ ae_selp24.lh	aep1, aep0, aep0; ae_mulsafp24s.hh.ll	aeq0, aep4, aep1 }
    1a60:	065934        	ae_roundsq32asym	aeq1, aeq1
    1a63:	033a54        	ae_mulfq32sp16s.l	aeq1, aeq1, aep3
    1a66:	060934        	ae_roundsq32asym	aeq0, aeq0
    1a69:	d4ee7ad10f 	{ ae_sllisq56s	aeq0, aeq1, 4; ae_mulfq32sp16s.l	aeq1, aeq0, aep3 }
    1a6e:	060844        	ae_satq48s	aeq0, aeq0
    1a71:	fd247ad10f 	{ ae_sllisq56s	aeq0, aeq1, 4; ae_roundsq32asym	aeq1, aeq0 }
    1a76:	fc00f9d82f 	{ ae_sq32f.iu	aeq1, a8, 8; ae_satq48s	aeq0, aeq0 }
    1a7b:	060934        	ae_roundsq32asym	aeq0, aeq0
    1a7e:	6208f4        	ae_sq32f.i	aeq0, a8, -4
    1a81:	448914        	ae_lp16x2f.iu	aep0, a9, 4

00001a84 <fn_analysis_frame+0x128>:
    1a84:	1a9184        	ae_selp24.lh	aep0, aep1, aep1
    1a87:	5e0204        	ae_sp24x2f.i	aep0, a2, 0
    1a8a:	ffc686        	j	19a8 <fn_analysis_frame+0x4c>

00001a8d <fn_analysis_frame+0x131>:
    1a8d:	60c0b0        	neg	a12, a11
    1a90:	0316c4        	wur.ae_sar	a12
    1a93:	f03d           	nop.n
    1a95:	088d76        	loop	a13, 1aa1 <fn_analysis_frame+0x145>
    1a98:	0b0384        	ae_srasp24	aep0, aep0
    1a9b:	5e8814        	ae_sp24x2f.iu	aep0, a8, 8
    1a9e:	5c8914        	ae_lp24x2f.iu	aep0, a9, 8

00001aa1 <fn_analysis_frame+0x145>:
    1aa1:	ffdc46        	j	1a16 <fn_analysis_frame+0xba>

00001aa4 <fn_ini_syn_frame>:
    1aa4:	004136        	entry	a1, 32
    1aa7:	02ad           	mov.n	a10, a2
    1aa9:	f98781        	l32r	a8, c8 (8808 <xt_memset>)
    1aac:	0b0c           	movi.n	a11, 0
    1aae:	e8a1c2        	movi	a12, 0x1e8
    1ab1:	0008e0        	callx8	a8
    1ab4:	f26232        	s32i	a3, a2, 0x3c8
    1ab7:	f01d           	retw.n

00001ab9 <fn_ini_syn_frame+0x15>:
    1ab9:	000000                                        ...

00001abc <fn_syn_frame>:
    1abc:	004136        	entry	a1, 32
    1abf:	03ad           	mov.n	a10, a3
    1ac1:	f98d81        	l32r	a8, f8 (4938 <real_512_ifft>)
    1ac4:	f22232        	l32i	a3, a2, 0x3c8
    1ac7:	20b440        	or	a11, a4, a4
    1aca:	0008e0        	callx8	a8
    1acd:	fcc382        	addi	a8, a3, -4
    1ad0:	f0a0e2        	movi	a14, 240
    1ad3:	ba4b           	addi.n	a11, a10, 4
    1ad5:	049d           	mov.n	a9, a4
    1ad7:	f984a1        	l32r	a10, e8 (b3a0 <window>)
    1ada:	601904        	ae_lq32f.iu	aeq0, a9, 0
    1add:	8bbd           	ae_sext16	a11, a11
    1adf:	448a04        	ae_lp16x2f.iu	aep0, a10, 0
    1ae2:	651ba6        	blti	a11, 1, 1b4b <fn_syn_frame+0x8f>
    1ae5:	2a8e76        	loop	a14, 1b13 <fn_syn_frame+0x57>
    1ae8:	fc24fe8b0f 	{ ae_slaasq56s	aeq0, aeq0, a11; nop }
    1aed:	030204        	ae_mulfq32sp16s.h	aeq0, aeq0, aep0
    1af0:	060844        	ae_satq48s	aeq0, aeq0
    1af3:	098c14        	ae_truncp24q48x2	aep1, aeq0, aeq0
    1af6:	521814        	ae_sp24f.l.i	aep1, a8, 4
    1af9:	600914        	ae_lq32f.i	aeq0, a9, 4
    1afc:	fc24fe8b0f 	{ ae_slaasq56s	aeq0, aeq0, a11; nop }
    1b01:	030214        	ae_mulfq32sp16s.l	aeq0, aeq0, aep0
    1b04:	060844        	ae_satq48s	aeq0, aeq0
    1b07:	098c14        	ae_truncp24q48x2	aep1, aeq0, aeq0
    1b0a:	529824        	ae_sp24f.l.iu	aep1, a8, 8
    1b0d:	601924        	ae_lq32f.iu	aeq0, a9, 8
    1b10:	448a14        	ae_lp16x2f.iu	aep0, a10, 4

00001b13 <fn_syn_frame+0x57>:
    1b13:	f8c482        	addi	a8, a4, -8
    1b16:	78a0b2        	movi	a11, 120
    1b19:	20a330        	or	a10, a3, a3
    1b1c:	08c292        	addi	a9, a2, 8
    1b1f:	5c8904        	ae_lp24x2f.iu	aep0, a9, 0
    1b22:	5c9a04        	ae_lp24x2f.iu	aep1, a10, 0
    1b25:	0b8b76        	loop	a11, 1b34 <fn_syn_frame+0x78>
    1b28:	078104        	ae_addsp24s	aep0, aep0, aep1
    1b2b:	5e8814        	ae_sp24x2f.iu	aep0, a8, 8
    1b2e:	5c8914        	ae_lp24x2f.iu	aep0, a9, 8
    1b31:	5c9a14        	ae_lp24x2f.iu	aep1, a10, 8

00001b34 <fn_syn_frame+0x78>:
    1b34:	6d1526        	beqi	a5, 1, 1ba5 <fn_syn_frame+0xe9>

00001b37 <fn_syn_frame+0x7b>:
    1b37:	78a0a2        	movi	a10, 120
    1b3a:	04d382        	addmi	a8, a3, 0x400
    1b3d:	b8c882        	addi	a8, a8, -72
    1b40:	058a76        	loop	a10, 1b49 <fn_syn_frame+0x8d>
    1b43:	5c8814        	ae_lp24x2f.iu	aep0, a8, 8
    1b46:	5e8214        	ae_sp24x2f.iu	aep0, a2, 8

00001b49 <fn_syn_frame+0x8d>:
    1b49:	f01d           	retw.n

00001b4b <fn_syn_frame+0x8f>:
    1b4b:	fc24fe8b0f 	{ ae_slaasq56s	aeq0, aeq0, a11; nop }
    1b50:	06c934        	ae_roundsq32asym	aeq3, aeq0
    1b53:	038ac4        	ae_mulfq32sp16s.h	aeq3, aeq3, aep0
    1b56:	1bbd24        	ae_roundsp24q48asym	aep2, aeq3
    1b59:	522304        	ae_sp24f.l.i	aep2, a3, 0
    1b5c:	608914        	ae_lq32f.i	aeq2, a9, 4
    1b5f:	fc24feab4f 	{ ae_slaasq56s	aeq1, aeq2, a11; nop }
    1b64:	061934        	ae_roundsq32asym	aeq0, aeq1
    1b67:	030214        	ae_mulfq32sp16s.l	aeq0, aeq0, aep0
    1b6a:	f867c0efcf 	{ movi	a12, 239; ae_roundsp24q48asym	aep1, aeq0 }
    1b6f:	529824        	ae_sp24f.l.iu	aep1, a8, 8
    1b72:	601924        	ae_lq32f.iu	aeq0, a9, 8
    1b75:	298c76        	loop	a12, 1ba2 <fn_syn_frame+0xe6>
    1b78:	fc24fe8b0f 	{ ae_slaasq56s	aeq0, aeq0, a11; nop }
    1b7d:	fc246d8a1f 	{ ae_lp16x2f.iu	aep0, a10, 4; ae_roundsq32asym	aeq0, aeq0 }
    1b82:	030204        	ae_mulfq32sp16s.h	aeq0, aeq0, aep0
    1b85:	1b8d14        	ae_roundsp24q48asym	aep1, aeq0
    1b88:	521814        	ae_sp24f.l.i	aep1, a8, 4
    1b8b:	600914        	ae_lq32f.i	aeq0, a9, 4
    1b8e:	fc24fe8b0f 	{ ae_slaasq56s	aeq0, aeq0, a11; nop }
    1b93:	060934        	ae_roundsq32asym	aeq0, aeq0
    1b96:	030214        	ae_mulfq32sp16s.l	aeq0, aeq0, aep0
    1b99:	1b8d14        	ae_roundsp24q48asym	aep1, aeq0
    1b9c:	529824        	ae_sp24f.l.iu	aep1, a8, 8
    1b9f:	601924        	ae_lq32f.iu	aeq0, a9, 8

00001ba2 <fn_syn_frame+0xe6>:
    1ba2:	ffdb46        	j	1b13 <fn_syn_frame+0x57>

00001ba5 <fn_syn_frame+0xe9>:
    1ba5:	f92061        	l32r	a6, 28 (7fffffff <_end+0x7fff2873>)
    1ba8:	f955a1        	l32r	a10, fc (800000 <_end+0x7f2874>)
    1bab:	404010        	ssai	16
    1bae:	04b8           	l32i.n	a11, a4, 0
    1bb0:	f950e1        	l32r	a14, f0 (15cc64 <_end+0x14f4d8>)
    1bb3:	02d8           	l32i.n	a13, a2, 0
    1bb5:	12f8           	l32i.n	a15, a2, 4
    1bb7:	f94f51        	l32r	a5, f4 (7af1aa <_end+0x7a1a1e>)
    1bba:	21d8d0        	srai	a13, a13, 8
    1bbd:	21f8f0        	srai	a15, a15, 8
    1bc0:	82cf50        	mull	a12, a15, a5
    1bc3:	829de0        	mull	a9, a13, a14
    1bc6:	b2ff50        	mulsh	a15, a15, a5
    1bc9:	b2dde0        	mulsh	a13, a13, a14
    1bcc:	050c           	movi.n	a5, 0
    1bce:	31efb0        	srai	a14, a11, 31
    1bd1:	81eeb0        	src	a14, a14, a11
    1bd4:	058d           	mov.n	a8, a5
    1bd6:	11bb00        	slli	a11, a11, 16
    1bd9:	404f10        	ssai	31
    1bdc:	81dd90        	src	a13, a13, a9
    1bdf:	81ffc0        	src	a15, a15, a12
    1be2:	eefa           	add.n	a14, a14, a15
    1be4:	1199f0        	slli	a9, a9, 1
    1be7:	11ccf0        	slli	a12, a12, 1
    1bea:	404810        	ssai	24
    1bed:	cbca           	add.n	a12, a11, a12
    1bef:	62bcb0        	saltu	a11, a12, a11
    1bf2:	c09c90        	sub	a9, a12, a9
    1bf5:	bbea           	add.n	a11, a11, a14
    1bf7:	80e9a0        	add	a14, a9, a10
    1bfa:	62cc90        	saltu	a12, a12, a9
    1bfd:	c0bbd0        	sub	a11, a11, a13
    1c00:	c0bbc0        	sub	a11, a11, a12
    1c03:	629e90        	saltu	a9, a14, a9
    1c06:	8099b0        	add	a9, a9, a11
    1c09:	81e9e0        	src	a14, a9, a14
    1c0c:	f924b1        	l32r	a11, 9c (7fffff00 <_end+0x7fff2774>)
    1c0f:	319890        	srai	a9, a9, 24
    1c12:	8199e0        	src	a9, a9, a14
    1c15:	11ee80        	slli	a14, a14, 8
    1c18:	004996        	bltz	a9, 1c20 <fn_syn_frame+0x164>
    1c1b:	0e4916        	beqz	a9, 1d03 <fn_syn_frame+0x247>

00001c1e <fn_syn_frame+0x162>:
    1c1e:	180c           	movi.n	a8, 1

00001c20 <fn_syn_frame+0x164>:
    1c20:	0b9816        	beqz	a8, 1cdd <fn_syn_frame+0x221>
    1c23:	f91e91        	l32r	a9, 9c (7fffff00 <_end+0x7fff2774>)

00001c26 <fn_syn_frame+0x16a>:
    1c26:	404010        	ssai	16
    1c29:	14c8           	l32i.n	a12, a4, 4
    1c2b:	0499           	s32i.n	a9, a4, 0
    1c2d:	218890        	srai	a8, a9, 8
    1c30:	f93191        	l32r	a9, f4 (7af1aa <_end+0x7a1a1e>)
    1c33:	12e8           	l32i.n	a14, a2, 4
    1c35:	f92ef1        	l32r	a15, f0 (15cc64 <_end+0x14f4d8>)
    1c38:	82d890        	mull	a13, a8, a9
    1c3b:	21e8e0        	srai	a14, a14, 8
    1c3e:	b28890        	mulsh	a8, a8, a9
    1c41:	829ef0        	mull	a9, a14, a15
    1c44:	b2eef0        	mulsh	a14, a14, a15
    1c47:	31ffc0        	srai	a15, a12, 31
    1c4a:	81ffc0        	src	a15, a15, a12
    1c4d:	11cc00        	slli	a12, a12, 16
    1c50:	404f10        	ssai	31
    1c53:	81ee90        	src	a14, a14, a9
    1c56:	8188d0        	src	a8, a8, a13
    1c59:	1199f0        	slli	a9, a9, 1
    1c5c:	ff8a           	add.n	a15, a15, a8
    1c5e:	11ddf0        	slli	a13, a13, 1
    1c61:	080c           	movi.n	a8, 0
    1c63:	404810        	ssai	24
    1c66:	dcda           	add.n	a13, a12, a13
    1c68:	62cdc0        	saltu	a12, a13, a12
    1c6b:	c09d90        	sub	a9, a13, a9
    1c6e:	a9aa           	add.n	a10, a9, a10
    1c70:	ccfa           	add.n	a12, a12, a15
    1c72:	62dd90        	saltu	a13, a13, a9
    1c75:	c0cce0        	sub	a12, a12, a14
    1c78:	629a90        	saltu	a9, a10, a9
    1c7b:	c0ccd0        	sub	a12, a12, a13
    1c7e:	8099c0        	add	a9, a9, a12
    1c81:	81a9a0        	src	a10, a9, a10
    1c84:	319890        	srai	a9, a9, 24
    1c87:	8199a0        	src	a9, a9, a10
    1c8a:	11aa80        	slli	a10, a10, 8
    1c8d:	072957        	blt	a9, a5, 1c98 <fn_syn_frame+0x1dc>
    1c90:	c0c950        	sub	a12, a9, a5
    1c93:	075c16        	beqz	a12, 1d0c <fn_syn_frame+0x250>

00001c96 <fn_syn_frame+0x1da>:
    1c96:	180c           	movi.n	a8, 1

00001c98 <fn_syn_frame+0x1dc>:
    1c98:	054816        	beqz	a8, 1cf0 <fn_syn_frame+0x234>
    1c9b:	f90081        	l32r	a8, 9c (7fffff00 <_end+0x7fff2774>)

00001c9e <fn_syn_frame+0x1e2>:
    1c9e:	eea092        	movi	a9, 238
    1ca1:	f913e1        	l32r	a14, f0 (15cc64 <_end+0x14f4d8>)
    1ca4:	1489           	s32i.n	a8, a4, 4
    1ca6:	f913d1        	l32r	a13, f4 (7af1aa <_end+0x7a1a1e>)
    1ca9:	848b           	addi.n	a8, a4, 8
    1cab:	39bde4        	ae_movpa24x2	aep3, a13, a14
    1cae:	50c804        	ae_lp24f.iu	aep4, a8, 0
    1cb1:	5008f4        	ae_lp24f.i	aep0, a8, -4
    1cb4:	fc8c2e18ef 	{ ae_lp24f.i	aep1, a8, -8; ae_cvtq48p24s.l	aeq0, aep4 }
    1cb9:	138976        	loop	a9, 1cd0 <fn_syn_frame+0x214>
    1cbc:	010304        	ae_mulafp24s.hh	aeq0, aep0, aep3
    1cbf:	ee65bf007f 	{ ae_movp48	aep1, aep0; ae_mulsfp24s.ll	aeq0, aep1, aep3 }
    1cc4:	1b8d04        	ae_roundsp24q48asym	aep0, aeq0
    1cc7:	528804        	ae_sp24f.l.iu	aep0, a8, 0
    1cca:	50a814        	ae_lp24f.iu	aep2, a8, 4
    1ccd:	0a0284        	ae_cvtq48p24s.l	aeq0, aep2

00001cd0 <fn_syn_frame+0x214>:
    1cd0:	ee2482        	l32i	a8, a4, 0x3b8
    1cd3:	0289           	s32i.n	a8, a2, 0
    1cd5:	ef24f2        	l32i	a15, a4, 0x3bc
    1cd8:	12f9           	s32i.n	a15, a2, 4
    1cda:	ff9646        	j	1b37 <fn_syn_frame+0x7b>

00001cdd <fn_syn_frame+0x221>:
    1cdd:	080c           	movi.n	a8, 0
    1cdf:	0049d6        	bgez	a9, 1ce7 <fn_syn_frame+0x22b>
    1ce2:	2c0926        	beqi	a9, -1, 1d12 <fn_syn_frame+0x256>

00001ce5 <fn_syn_frame+0x229>:
    1ce5:	180c           	movi.n	a8, 1

00001ce7 <fn_syn_frame+0x22b>:
    1ce7:	f8d291        	l32r	a9, 30 (80000000 <_end+0x7fff2874>)
    1cea:	839e80        	moveqz	a9, a14, a8
    1ced:	ffcd46        	j	1c26 <fn_syn_frame+0x16a>

00001cf0 <fn_syn_frame+0x234>:
    1cf0:	0b0c           	movi.n	a11, 0
    1cf2:	0049d6        	bgez	a9, 1cfa <fn_syn_frame+0x23e>
    1cf5:	1f0926        	beqi	a9, -1, 1d18 <fn_syn_frame+0x25c>

00001cf8 <fn_syn_frame+0x23c>:
    1cf8:	1b0c           	movi.n	a11, 1

00001cfa <fn_syn_frame+0x23e>:
    1cfa:	f8cd81        	l32r	a8, 30 (80000000 <_end+0x7fff2874>)
    1cfd:	838ab0        	moveqz	a8, a10, a11
    1d00:	ffe686        	j	1c9e <fn_syn_frame+0x1e2>

00001d03 <fn_syn_frame+0x247>:
    1d03:	023be7        	bltu	a11, a14, 1d09 <fn_syn_frame+0x24d>
    1d06:	ffc586        	j	1c20 <fn_syn_frame+0x164>
    1d09:	ffc446        	j	1c1e <fn_syn_frame+0x162>

00001d0c <fn_syn_frame+0x250>:
    1d0c:	88bba7        	bgeu	a11, a10, 1c98 <fn_syn_frame+0x1dc>
    1d0f:	ffe0c6        	j	1c96 <fn_syn_frame+0x1da>

00001d12 <fn_syn_frame+0x256>:
    1d12:	d136e7        	bltu	a6, a14, 1ce7 <fn_syn_frame+0x22b>
    1d15:	fff306        	j	1ce5 <fn_syn_frame+0x229>

00001d18 <fn_syn_frame+0x25c>:
    1d18:	de36a7        	bltu	a6, a10, 1cfa <fn_syn_frame+0x23e>
    1d1b:	fff646        	j	1cf8 <fn_syn_frame+0x23c>

00001d1e <fn_syn_frame+0x262>:
	...

00001d20 <fn_ini_calc_sup_gain>:
    1d20:	004136        	entry	a1, 32
    1d23:	02ad           	mov.n	a10, a2
    1d25:	f8e881        	l32r	a8, c8 (8808 <xt_memset>)
    1d28:	00a0b2        	movi	a11, 0
    1d2b:	08a2c2        	movi	a12, 0x208
    1d2e:	0008e0        	callx8	a8
    1d31:	03bd           	mov.n	a11, a3
    1d33:	f8b481        	l32r	a8, 4 (8820 <xt_memcpy>)
    1d36:	02ad           	mov.n	a10, a2
    1d38:	4c0c           	movi.n	a12, 4
    1d3a:	0008e0        	callx8	a8
    1d3d:	828b           	addi.n	a8, a2, 8
    1d3f:	00a192        	movi	a9, 0x100
    1d42:	01a1a2        	movi	a10, 0x101
    1d45:	028a76        	loop	a10, 1d4b <fn_ini_calc_sup_gain+0x2b>
    1d48:	09e894        	ae_s32ip	a9, a8, 4

00001d4b <fn_ini_calc_sup_gain+0x2b>:
    1d4b:	04d292        	addmi	a9, a2, 0x400
    1d4e:	3949           	s32i.n	a4, a9, 12
    1d50:	f01d           	retw.n

00001d52 <fn_ini_calc_sup_gain+0x32>:
	...

00001d54 <fn_calc_sup_gain>:
    1d54:	012136        	entry	a1, 144
    1d57:	9129           	s32i.n	a2, a1, 36
    1d59:	029d           	mov.n	a9, a2
    1d5b:	22ad           	ae_l16si.n	a10, a2, 0
    1d5d:	998b           	addi.n	a9, a9, 8
    1d5f:	f8bd21        	l32r	a2, 54 (7fff <xtensa_fft8_32b+0xef>)
    1d62:	0a2a56        	bnez	a10, 1e08 <fn_calc_sup_gain+0xb4>
    1d65:	01a1a2        	movi	a10, 0x101
    1d68:	91e8           	l32i.n	a14, a1, 36
    1d6a:	04bd           	mov.n	a11, a4
    1d6c:	03cd           	mov.n	a12, a3
    1d6e:	20d990        	or	a13, a9, a9
    1d71:	609d04        	ae_lq32f.iu	aeq2, a13, 0
    1d74:	601c04        	ae_lq32f.iu	aeq0, a12, 0
    1d77:	605b04        	ae_lq32f.iu	aeq1, a11, 0
    1d7a:	029ef2        	l16si	a15, a14, 4
    1d7d:	3eed           	ae_l16si.n	a14, a14, 2
    1d7f:	300ef4        	ae_cvtp24a16x2.ll	aep0, a14, a15
    1d82:	560154        	ae_sp24x2s.i	aep0, a1, 40
    1d85:	7daa76        	loopgtz	a10, 1e06 <fn_calc_sup_gain+0xb2>
    1d88:	01e9c4        	ae_addq56	aeq3, aeq2, aeq1
    1d8b:	ff84f0215f 	{ ae_lp24x2.i	aep2, a1, 40; ae_satq48s	aeq3, aeq3 }
    1d90:	03aac4        	ae_mulfq32sp16s.h	aeq3, aeq3, aep2
    1d93:	03a814        	ae_mulafq32sp16s.l	aeq3, aeq0, aep2
    1d96:	f87ff0919e 	{ l32i	a9, a1, 36; ae_roundsp24q48asym	aep1, aeq3 }
    1d9b:	009ad4        	ae_cvta32p24.h	a10, aep1
    1d9e:	369e04        	ae_trunca32q48	a14, aeq1
    1da1:	fa4260399e 	{ l16si	a9, a9, 6; ae_truncp24q48x2	aep5, aeq0, aeq0 }
    1da6:	7a8c           	beqz.n	a10, 1db1 <fn_calc_sup_gain+0x5d>
    1da8:	0a2ea7        	blt	a14, a10, 1db6 <fn_calc_sup_gain+0x62>
    1dab:	f8aaa1        	l32r	a10, 54 (7fff <xtensa_fft8_32b+0xef>)
    1dae:	000ac6        	j	1ddd <fn_calc_sup_gain+0x89>

00001db1 <fn_calc_sup_gain+0x5d>:
    1db1:	0a0c           	movi.n	a10, 0
    1db3:	000986        	j	1ddd <fn_calc_sup_gain+0x89>

00001db6 <fn_calc_sup_gain+0x62>:
    1db6:	364a34        	ae_cvtq48a32s	aeq1, a10
    1db9:	36ce34        	ae_cvtq48a32s	aeq3, a14
    1dbc:	40ea80        	nsa	a8, a10
    1dbf:	888d           	ae_sext16	a8, a8
    1dc1:	fc24feb88f 	{ ae_slaasq56s	aeq2, aeq3, a8; nop }
    1dc6:	ff80cf188e 	{ addi	a8, a8, -15; ae_satq48s	aeq3, aeq2 }
    1dcb:	fc24fe988f 	{ ae_slaasq56s	aeq2, aeq1, a8; nop }
    1dd0:	fd80ff3aef 	{ ae_trunca32q48	a10, aeq3; ae_satq48s	aeq1, aeq2 }
    1dd5:	369f04        	ae_trunca32q48	a15, aeq1
    1dd8:	d2aaf0        	quos	a10, a10, a15
    1ddb:	aaad           	ae_clamps16	a10, a10
    1ddd:	c0e2a0        	sub	a14, a2, a10
    1de0:	8eed           	ae_sext16	a14, a14
    1de2:	5399e0        	max	a9, a9, a14
    1de5:	306994        	ae_cvtp24a16x2.ll	aep6, a9, a9
    1de8:	01e644        	ae_mulfp24s.hh	aeq2, aep6, aep6
    1deb:	1bad44        	ae_roundsp24q48asym	aep4, aeq2
    1dee:	014d44        	ae_mulfp24s.hh	aeq1, aep4, aep5
    1df1:	09c594        	ae_s16ip	a9, a5, 2
    1df4:	1b9d34        	ae_roundsp24q48asym	aep3, aeq1
    1df7:	0a0384        	ae_cvtq48p24s.l	aeq0, aep3
    1dfa:	624d04        	ae_sq32f.iu	aeq0, a13, 0
    1dfd:	609d14        	ae_lq32f.iu	aeq2, a13, 4
    1e00:	601c14        	ae_lq32f.iu	aeq0, a12, 4
    1e03:	605b14        	ae_lq32f.iu	aeq1, a11, 4

00001e06 <fn_calc_sup_gain+0xb2>:
    1e06:	f01d           	retw.n

00001e08 <fn_calc_sup_gain+0xb4>:
    1e08:	ba0b           	addi.n	a11, a10, -1
    1e0a:	1bdb16        	beqz	a11, 1fcb <fn_calc_sup_gain+0x277>
    1e0d:	01a162        	movi	a6, 0x101
    1e10:	508304        	ae_lp24f.iu	aep0, a3, 0
    1e13:	509404        	ae_lp24f.iu	aep1, a4, 0
    1e16:	91c8           	l32i.n	a12, a1, 36
    1e18:	097d           	mov.n	a7, a9
    1e1a:	f88be1        	l32r	a14, 48 (8000 <xtensa_fft8_32b+0xf0>)
    1e1d:	364e34        	ae_cvtq48a32s	aeq1, a14
    1e20:	50a704        	ae_lp24f.iu	aep2, a7, 0
    1e23:	029cd2        	l16si	a13, a12, 4
    1e26:	fc2c201cce 	{ l16si	a12, a12, 2; ae_cvtq48p24s.l	aeq0, aep1 }
    1e2b:	fe0c18fcdf 	{ ae_cvtp24a16x2.ll	aep7, a12, a13; ae_cvtq48p24s.l	aeq2, aep0 }
    1e30:	fa32f7715f 	{ ae_sp24x2s.i	aep7, a1, 40; ae_subq56	aeq2, aeq2, aeq0 }

00001e35 <fn_calc_sup_gain+0xe1>:
    1e35:	06ca44        	ae_satq48s	aeq3, aeq2
    1e38:	0a9084        	ae_zeroq56	aeq2
    1e3b:	09a304        	ae_ltq56s	b0, aeq3, aeq2
    1e3e:	0304d0        	rsr.br	a13
    1e41:	04d0d0        	extui	a13, a13, 0, 1
    1e44:	1dcc           	bnez.n	a13, 1e49 <fn_calc_sup_gain+0xf5>
    1e46:	06bb34        	ae_movq56	aeq2, aeq3

00001e49 <fn_calc_sup_gain+0xf5>:
    1e49:	35a234        	ae_sraiq56	aeq2, aeq2, 8
    1e4c:	09a414        	ae_leq56s	b1, aeq0, aeq2
    1e4f:	364c04        	ae_nsaq56s	a12, aeq0
    1e52:	f880a1        	l32r	a10, 54 (7fff <xtensa_fft8_32b+0xef>)
    1e55:	020176        	bf	b1, 1e5b <fn_calc_sup_gain+0x107>
    1e58:	000806        	j	1e7c <fn_calc_sup_gain+0x128>

00001e5b <fn_calc_sup_gain+0x107>:
    1e5b:	f8ccc2        	addi	a12, a12, -8
    1e5e:	8ccd           	ae_sext16	a12, a12
    1e60:	fc24feaccf 	{ ae_slaasq56s	aeq3, aeq2, a12; nop }
    1e65:	fe84cf1cce 	{ addi	a12, a12, -15; ae_satq48s	aeq2, aeq3 }
    1e6a:	fc24fe8ccf 	{ ae_slaasq56s	aeq3, aeq0, a12; nop }
    1e6f:	fe84ff2aef 	{ ae_trunca32q48	a10, aeq2; ae_satq48s	aeq2, aeq3 }
    1e74:	36ab04        	ae_trunca32q48	a11, aeq2
    1e77:	d2aab0        	quos	a10, a10, a11
    1e7a:	aaad           	ae_clamps16	a10, a10

00001e7c <fn_calc_sup_gain+0x128>:
    1e7c:	11ea80        	slli	a14, a10, 8
    1e7f:	f87591        	l32r	a9, 54 (7fff <xtensa_fft8_32b+0xef>)
    1e82:	0a8284        	ae_cvtq48p24s.l	aeq2, aep2
    1e85:	35a234        	ae_sraiq56	aeq2, aeq2, 8
    1e88:	09a424        	ae_leq56s	b2, aeq0, aeq2
    1e8b:	543154        	ae_lp24x2.i	aep3, a1, 40
    1e8e:	302aa4        	ae_cvtp24a16x2.ll	aep2, a10, a10
    1e91:	020276        	bf	b2, 1e97 <fn_calc_sup_gain+0x143>
    1e94:	0008c6        	j	1ebb <fn_calc_sup_gain+0x167>

00001e97 <fn_calc_sup_gain+0x143>:
    1e97:	364c04        	ae_nsaq56s	a12, aeq0
    1e9a:	f8ccc2        	addi	a12, a12, -8
    1e9d:	8ccd           	ae_sext16	a12, a12
    1e9f:	fc24feaccf 	{ ae_slaasq56s	aeq3, aeq2, a12; nop }
    1ea4:	fe84cf1cce 	{ addi	a12, a12, -15; ae_satq48s	aeq2, aeq3 }
    1ea9:	fc24fe8ccf 	{ ae_slaasq56s	aeq3, aeq0, a12; nop }
    1eae:	fe84ff29ef 	{ ae_trunca32q48	a9, aeq2; ae_satq48s	aeq2, aeq3 }
    1eb3:	36ab04        	ae_trunca32q48	a11, aeq2
    1eb6:	d299b0        	quos	a9, a9, a11
    1eb9:	a99d           	ae_clamps16	a9, a9

00001ebb <fn_calc_sup_gain+0x167>:
    1ebb:	304994        	ae_cvtp24a16x2.ll	aep4, a9, a9
    1ebe:	01c344        	ae_mulfp24s.hh	aeq2, aep4, aep3
    1ec1:	01a334        	ae_mulafp24s.ll	aeq2, aep2, aep3
    1ec4:	f864a1        	l32r	a10, 54 (7fff <xtensa_fft8_32b+0xef>)
    1ec7:	1bad14        	ae_roundsp24q48asym	aep1, aeq2
    1eca:	019144        	ae_mulfp24s.hh	aeq2, aep1, aep1
    1ecd:	fc2c0781fe 	{ addi	a15, a1, 120; ae_cvtq48p24s.l	aeq0, aep1 }
    1ed2:	ff347ecebf 	{ ae_cvtq48a32s	aeq2, a14; ae_roundsq32asym	aeq3, aeq2 }
    1ed7:	fa763b020f 	{ ae_sraiq56	aeq0, aeq0, 8; ae_addq56	aeq2, aeq2, aeq1 }
    1edc:	fbe63a3fcf 	{ ae_sq56s.i	aeq3, a15, -32; ae_addq56	aeq3, aeq0, aeq3 }
    1ee1:	ff84fa016f 	{ ae_sq56s.i	aeq0, a1, 48; ae_satq48s	aeq3, aeq3 }
    1ee6:	f8663b32cf 	{ ae_sraiq56	aeq3, aeq3, 8; ae_addq56	aeq0, aeq0, aeq1 }
    1eeb:	ff3c7f2caf 	{ ae_nsaq56s	a12, aeq2; ae_roundsq32asym	aeq3, aeq3 }
    1ef0:	d5da3a017f 	{ ae_sq56s.i	aeq0, a1, 56; ae_leq56s	b8, aeq2, aeq3 }
    1ef5:	610fc4        	ae_lq56.i	aeq0, a15, -32
    1ef8:	f8ccc2        	addi	a12, a12, -8
    1efb:	050876        	bf	b8, 1f04 <fn_calc_sup_gain+0x1b0>
    1efe:	560f94        	ae_sp24x2s.i	aep0, a15, -56
    1f01:	000906        	j	1f29 <fn_calc_sup_gain+0x1d5>

00001f04 <fn_calc_sup_gain+0x1b0>:
    1f04:	8ccd           	ae_sext16	a12, a12
    1f06:	fc24febccf 	{ ae_slaasq56s	aeq3, aeq3, a12; nop }
    1f0b:	ff84cf1cce 	{ addi	a12, a12, -15; ae_satq48s	aeq3, aeq3 }
    1f10:	36ba04        	ae_trunca32q48	a10, aeq3
    1f13:	fc24feaccf 	{ ae_slaasq56s	aeq3, aeq2, a12; nop }
    1f18:	06cb44        	ae_satq48s	aeq3, aeq3
    1f1b:	36bb04        	ae_trunca32q48	a11, aeq3
    1f1e:	560f94        	ae_sp24x2s.i	aep0, a15, -56
    1f21:	0020f0        	nop
    1f24:	d2aab0        	quos	a10, a10, a11
    1f27:	aaad           	ae_clamps16	a10, a10

00001f29 <fn_calc_sup_gain+0x1d5>:
    1f29:	f87581        	l32r	a8, 100 (cd0 <fxsqrt_ie>)
    1f2c:	3580f4        	ae_sraiq56	aeq2, aeq0, 3
    1f2f:	364a34        	ae_cvtq48a32s	aeq1, a10
    1f32:	fc347a915f 	{ ae_slliq56	aeq1, aeq1, 5; ae_roundsq32asym	aeq0, aeq2 }
    1f37:	0109c4        	ae_addq56	aeq0, aeq0, aeq1
    1f3a:	368a04        	ae_trunca32q48	a10, aeq0
    1f3d:	0008e0        	callx8	a8
    1f40:	f842c1        	l32r	a12, 48 (8000 <xtensa_fft8_32b+0xf0>)
    1f43:	61c164        	ae_lq56.i	aeq3, a1, 48
    1f46:	119a70        	slli	a9, a10, 9
    1f49:	360934        	ae_cvtq48a32s	aeq0, a9
    1f4c:	fb7a3d817f 	{ ae_lq56.i	aeq0, a1, 56; ae_addq56	aeq3, aeq3, aeq0 }
    1f51:	350054        	ae_slliq56	aeq0, aeq0, 1
    1f54:	fe00c781be 	{ addi	a11, a1, 120; ae_satq48s	aeq2, aeq0 }
    1f59:	fc84f00b9f 	{ ae_lp24x2.i	aep0, a11, -56; ae_satq48s	aeq0, aeq3 }
    1f5e:	d5c27ecc7f 	{ ae_cvtq48a32s	aeq1, a12; ae_leq56s	b9, aeq2, aeq0 }
    1f63:	f83ca1        	l32r	a10, 54 (7fff <xtensa_fft8_32b+0xef>)
    1f66:	366c04        	ae_nsaq56s	a12, aeq2
    1f69:	040976        	bf	b9, 1f71 <fn_calc_sup_gain+0x21d>
    1f6c:	652d           	ae_s16i.n	a2, a5, 0
    1f6e:	000886        	j	1f94 <fn_calc_sup_gain+0x240>

00001f71 <fn_calc_sup_gain+0x21d>:
    1f71:	f8ccc2        	addi	a12, a12, -8
    1f74:	8ccd           	ae_sext16	a12, a12
    1f76:	fc24fe8ccf 	{ ae_slaasq56s	aeq3, aeq0, a12; nop }
    1f7b:	fc84cf1cce 	{ addi	a12, a12, -15; ae_satq48s	aeq0, aeq3 }
    1f80:	fc24feaccf 	{ ae_slaasq56s	aeq3, aeq2, a12; nop }
    1f85:	fc84ff0aef 	{ ae_trunca32q48	a10, aeq0; ae_satq48s	aeq0, aeq3 }
    1f8a:	368b04        	ae_trunca32q48	a11, aeq0
    1f8d:	d2aab0        	quos	a10, a10, a11
    1f90:	aaad           	ae_clamps16	a10, a10
    1f92:	65ad           	ae_s16i.n	a10, a5, 0

00001f94 <fn_calc_sup_gain+0x240>:
    1f94:	91b8           	l32i.n	a11, a1, 36
    1f96:	039bb2        	l16si	a11, a11, 6
    1f99:	660b           	addi.n	a6, a6, -1
    1f9b:	03aab7        	bge	a10, a11, 1fa2 <fn_calc_sup_gain+0x24e>
    1f9e:	65bd           	ae_s16i.n	a11, a5, 0
    1fa0:	0bad           	mov.n	a10, a11

00001fa2 <fn_calc_sup_gain+0x24e>:
    1fa2:	307aa4        	ae_cvtp24a16x2.ll	aep7, a10, a10
    1fa5:	01f774        	ae_mulfp24s.ll	aeq2, aep7, aep7
    1fa8:	1bad64        	ae_roundsp24q48asym	aep6, aeq2
    1fab:	016074        	ae_mulfp24s.ll	aeq0, aep6, aep0
    1fae:	1b8d54        	ae_roundsp24q48asym	aep5, aeq0
    1fb1:	52d704        	ae_sp24f.l.iu	aep5, a7, 0
    1fb4:	509414        	ae_lp24f.iu	aep1, a4, 4
    1fb7:	fc2c2e831f 	{ ae_lp24f.iu	aep0, a3, 4; ae_cvtq48p24s.l	aeq0, aep1 }
    1fbc:	fe0c00255e 	{ addi	a5, a5, 2; ae_cvtq48p24s.l	aeq2, aep0 }
    1fc1:	fa32eea71f 	{ ae_lp24f.iu	aep2, a7, 4; ae_subq56	aeq2, aeq2, aeq0 }
    1fc6:	e6b656        	bnez	a6, 1e35 <fn_calc_sup_gain+0xe1>
    1fc9:	f01d           	retw.n

00001fcb <fn_calc_sup_gain+0x277>:
    1fcb:	1199           	s32i.n	a9, a1, 4
    1fcd:	f81e71        	l32r	a7, 48 (8000 <xtensa_fft8_32b+0xf0>)
    1fd0:	f84b61        	l32r	a6, fc (800000 <_end+0x7f2874>)
    1fd3:	01a1e2        	movi	a14, 0x101
    1fd6:	61e9           	s32i.n	a14, a1, 24

00001fd8 <fn_calc_sup_gain+0x284>:
    1fd8:	04a8           	l32i.n	a10, a4, 0
    1fda:	03b8           	l32i.n	a11, a3, 0
    1fdc:	31dfa0        	srai	a13, a10, 31
    1fdf:	c0aba0        	sub	a10, a11, a10
    1fe2:	62cba0        	saltu	a12, a11, a10
    1fe5:	31bfb0        	srai	a11, a11, 31
    1fe8:	c0bbd0        	sub	a11, a11, a13
    1feb:	c0bbc0        	sub	a11, a11, a12
    1fee:	fee4e5        	call8	e3c <_saturate32>
    1ff1:	11f8           	l32i.n	a15, a1, 4
    1ff3:	04b8           	l32i.n	a11, a4, 0
    1ff5:	0c0c           	movi.n	a12, 0
    1ff7:	0ff8           	l32i.n	a15, a15, 0
    1ff9:	fb8c           	beqz.n	a11, 200c <fn_calc_sup_gain+0x2b8>
    1ffb:	0d0c           	movi.n	a13, 0
    1ffd:	53ada0        	max	a10, a13, a10
    2000:	21a8a0        	srai	a10, a10, 8
    2003:	0a2ab7        	blt	a10, a11, 2011 <fn_calc_sup_gain+0x2bd>
    2006:	f813a1        	l32r	a10, 54 (7fff <xtensa_fft8_32b+0xef>)
    2009:	000ac6        	j	2038 <fn_calc_sup_gain+0x2e4>

0000200c <fn_calc_sup_gain+0x2b8>:
    200c:	0a0c           	movi.n	a10, 0
    200e:	000986        	j	2038 <fn_calc_sup_gain+0x2e4>

00002011 <fn_calc_sup_gain+0x2bd>:
    2011:	368b34        	ae_cvtq48a32s	aeq2, a11
    2014:	360a34        	ae_cvtq48a32s	aeq0, a10
    2017:	40ebe0        	nsa	a14, a11
    201a:	8eed           	ae_sext16	a14, a14
    201c:	fc24fe8ecf 	{ ae_slaasq56s	aeq3, aeq0, a14; nop }
    2021:	fd84cf1eee 	{ addi	a14, a14, -15; ae_satq48s	aeq1, aeq3 }
    2026:	fc24feae0f 	{ ae_slaasq56s	aeq0, aeq2, a14; nop }
    202b:	ff00ff1aef 	{ ae_trunca32q48	a10, aeq1; ae_satq48s	aeq3, aeq0 }
    2030:	36bd04        	ae_trunca32q48	a13, aeq3
    2033:	d2aad0        	quos	a10, a10, a13
    2036:	aaad           	ae_clamps16	a10, a10
    2038:	71a9           	s32i.n	a10, a1, 28
    203a:	21a8f0        	srai	a10, a15, 8
    203d:	7b8c           	beqz.n	a11, 2048 <fn_calc_sup_gain+0x2f4>
    203f:	0a2ab7        	blt	a10, a11, 204d <fn_calc_sup_gain+0x2f9>
    2042:	f804a1        	l32r	a10, 54 (7fff <xtensa_fft8_32b+0xef>)
    2045:	000ac6        	j	2074 <fn_calc_sup_gain+0x320>

00002048 <fn_calc_sup_gain+0x2f4>:
    2048:	0a0c           	movi.n	a10, 0
    204a:	000986        	j	2074 <fn_calc_sup_gain+0x320>

0000204d <fn_calc_sup_gain+0x2f9>:
    204d:	360b34        	ae_cvtq48a32s	aeq0, a11
    2050:	368a34        	ae_cvtq48a32s	aeq2, a10
    2053:	40ebe0        	nsa	a14, a11
    2056:	8eed           	ae_sext16	a14, a14
    2058:	fc24feae4f 	{ ae_slaasq56s	aeq1, aeq2, a14; nop }
    205d:	ff04cf1eee 	{ addi	a14, a14, -15; ae_satq48s	aeq3, aeq1 }
    2062:	fc24fe8e8f 	{ ae_slaasq56s	aeq2, aeq0, a14; nop }
    2067:	fd80ff3aef 	{ ae_trunca32q48	a10, aeq3; ae_satq48s	aeq1, aeq2 }
    206c:	369d04        	ae_trunca32q48	a13, aeq1
    206f:	d2aad0        	quos	a10, a10, a13
    2072:	aaad           	ae_clamps16	a10, a10
    2074:	91f8           	l32i.n	a15, a1, 36
    2076:	404f10        	ssai	31
    2079:	118a00        	slli	a8, a10, 16
    207c:	3fed           	ae_l16si.n	a14, a15, 2
    207e:	218880        	srai	a8, a8, 8
    2081:	029ff2        	l16si	a15, a15, 4
    2084:	11ee00        	slli	a14, a14, 16
    2087:	21e8e0        	srai	a14, a14, 8
    208a:	82de80        	mull	a13, a14, a8
    208d:	b2ee80        	mulsh	a14, a14, a8
    2090:	7188           	l32i.n	a8, a1, 28
    2092:	11ff00        	slli	a15, a15, 16
    2095:	21f8f0        	srai	a15, a15, 8
    2098:	118800        	slli	a8, a8, 16
    209b:	218880        	srai	a8, a8, 8
    209e:	82bf80        	mull	a11, a15, a8
    20a1:	b2ff80        	mulsh	a15, a15, a8
    20a4:	81eed0        	src	a14, a14, a13
    20a7:	81ffb0        	src	a15, a15, a11
    20aa:	404810        	ssai	24
    20ad:	eefa           	add.n	a14, a14, a15
    20af:	11bbf0        	slli	a11, a11, 1
    20b2:	90bdb0        	addx2	a11, a13, a11
    20b5:	ab6a           	add.n	a10, a11, a6
    20b7:	11ddf0        	slli	a13, a13, 1
    20ba:	62dbd0        	saltu	a13, a11, a13
    20bd:	ddea           	add.n	a13, a13, a14
    20bf:	62bab0        	saltu	a11, a10, a11
    20c2:	cdca           	add.n	a12, a13, a12
    20c4:	bbca           	add.n	a11, a11, a12
    20c6:	81aba0        	src	a10, a11, a10
    20c9:	31b8b0        	srai	a11, a11, 24
    20cc:	81bba0        	src	a11, a11, a10
    20cf:	11aa80        	slli	a10, a10, 8
    20d2:	feda65        	call8	e78 <_saturate24>
    20d5:	404700        	ssai	7
    20d8:	2128a0        	srai	a2, a10, 8
    20db:	82ba20        	mull	a11, a10, a2
    20de:	b2ca20        	mulsh	a12, a10, a2
    20e1:	319f20        	srai	a9, a2, 31
    20e4:	8199           	s32i.n	a9, a1, 32
    20e6:	81bcb0        	src	a11, a12, a11
    20e9:	404010        	ssai	16
    20ec:	80ab70        	add	a10, a11, a7
    20ef:	21c7c0        	srai	a12, a12, 7
    20f2:	62bab0        	saltu	a11, a10, a11
    20f5:	bbca           	add.n	a11, a11, a12
    20f7:	81aba0        	src	a10, a11, a10
    20fa:	31b0b0        	srai	a11, a11, 16
    20fd:	fed3e5        	call8	e3c <_saturate32>
    2100:	81d8           	l32i.n	a13, a1, 32
    2102:	21a9           	s32i.n	a10, a1, 8
    2104:	c27a           	add.n	a12, a2, a7
    2106:	62bc20        	saltu	a11, a12, a2
    2109:	20acc0        	or	a10, a12, a12
    210c:	80bbd0        	add	a11, a11, a13
    210f:	fed2e5        	call8	e3c <_saturate32>
    2112:	71b8           	l32i.n	a11, a1, 28
    2114:	31a9           	s32i.n	a10, a1, 12
    2116:	11fb80        	slli	a15, a11, 8
    2119:	31b8b0        	srai	a11, a11, 24
    211c:	0fad           	mov.n	a10, a15
    211e:	fed1e5        	call8	e3c <_saturate32>
    2121:	0acd           	mov.n	a12, a10
    2123:	aa7a           	add.n	a10, a10, a7
    2125:	62bac0        	saltu	a11, a10, a12
    2128:	31cfc0        	srai	a12, a12, 31
    212b:	bbca           	add.n	a11, a11, a12
    212d:	fed0e5        	call8	e3c <_saturate32>
    2130:	81e8           	l32i.n	a14, a1, 32
    2132:	21c8           	l32i.n	a12, a1, 8
    2134:	01a9           	s32i.n	a10, a1, 0
    2136:	51c9           	s32i.n	a12, a1, 20
    2138:	dc2a           	add.n	a13, a12, a2
    213a:	62bdc0        	saltu	a11, a13, a12
    213d:	0dad           	mov.n	a10, a13
    213f:	31cfc0        	srai	a12, a12, 31
    2142:	41c9           	s32i.n	a12, a1, 16
    2144:	ccea           	add.n	a12, a12, a14
    2146:	bbca           	add.n	a11, a11, a12
    2148:	fecf25        	call8	e3c <_saturate32>
    214b:	0abd           	mov.n	a11, a10
    214d:	31cfa0        	srai	a12, a10, 31
    2150:	ccca           	add.n	a12, a12, a12
    2152:	aaaa           	add.n	a10, a10, a10
    2154:	62bab0        	saltu	a11, a10, a11
    2157:	bbca           	add.n	a11, a11, a12
    2159:	fece25        	call8	e3c <_saturate32>
    215c:	01b8           	l32i.n	a11, a1, 0
    215e:	404800        	ssai	8
    2161:	31dfa0        	srai	a13, a10, 31
    2164:	5b9c           	beqz.n	a11, 217d <fn_calc_sup_gain+0x429>
    2166:	01dac2        	addmi	a12, a10, 0x100
    2169:	80ccc2        	addi	a12, a12, -128
    216c:	62aca0        	saltu	a10, a12, a10
    216f:	aada           	add.n	a10, a10, a13
    2171:	81aac0        	src	a10, a10, a12
    2174:	0a2ab7        	blt	a10, a11, 2182 <fn_calc_sup_gain+0x42e>
    2177:	f7b7a1        	l32r	a10, 54 (7fff <xtensa_fft8_32b+0xef>)
    217a:	000ac6        	j	21a9 <fn_calc_sup_gain+0x455>

0000217d <fn_calc_sup_gain+0x429>:
    217d:	0a0c           	movi.n	a10, 0
    217f:	000986        	j	21a9 <fn_calc_sup_gain+0x455>

00002182 <fn_calc_sup_gain+0x42e>:
    2182:	368b34        	ae_cvtq48a32s	aeq2, a11
    2185:	360a34        	ae_cvtq48a32s	aeq0, a10
    2188:	40ebd0        	nsa	a13, a11
    218b:	8ddd           	ae_sext16	a13, a13
    218d:	fc24fe8dcf 	{ ae_slaasq56s	aeq3, aeq0, a13; nop }
    2192:	fd84cf1dde 	{ addi	a13, a13, -15; ae_satq48s	aeq1, aeq3 }
    2197:	fc24fead0f 	{ ae_slaasq56s	aeq0, aeq2, a13; nop }
    219c:	ff00ff1aef 	{ ae_trunca32q48	a10, aeq1; ae_satq48s	aeq3, aeq0 }
    21a1:	36bc04        	ae_trunca32q48	a12, aeq3
    21a4:	d2aac0        	quos	a10, a10, a12
    21a7:	aaad           	ae_clamps16	a10, a10
    21a9:	31bba0        	srai	a11, a10, 27
    21ac:	11eab0        	slli	a14, a10, 5
    21af:	0ead           	mov.n	a10, a14
    21b1:	fec8a5        	call8	e3c <_saturate32>
    21b4:	404300        	ssai	3
    21b7:	4188           	l32i.n	a8, a1, 16
    21b9:	51e8           	l32i.n	a14, a1, 20
    21bb:	0abd           	mov.n	a11, a10
    21bd:	31cfb0        	srai	a12, a11, 31
    21c0:	fe4b           	addi.n	a15, a14, 4
    21c2:	62efe0        	saltu	a14, a15, a14
    21c5:	ee8a           	add.n	a14, a14, a8
    21c7:	81eef0        	src	a14, a14, a15
    21ca:	aaea           	add.n	a10, a10, a14
    21cc:	31dfe0        	srai	a13, a14, 31
    21cf:	ccda           	add.n	a12, a12, a13
    21d1:	62bab0        	saltu	a11, a10, a11
    21d4:	80bbc0        	add	a11, a11, a12
    21d7:	fec665        	call8	e3c <_saturate32>
    21da:	f7c981        	l32r	a8, 100 (cd0 <fxsqrt_ie>)
    21dd:	0008e0        	callx8	a8
    21e0:	0abd           	mov.n	a11, a10
    21e2:	11aa70        	slli	a10, a10, 9
    21e5:	31b7b0        	srai	a11, a11, 23
    21e8:	fec525        	call8	e3c <_saturate32>
    21eb:	0abd           	mov.n	a11, a10
    21ed:	81d8           	l32i.n	a13, a1, 32
    21ef:	aa2a           	add.n	a10, a10, a2
    21f1:	31cfb0        	srai	a12, a11, 31
    21f4:	ccda           	add.n	a12, a12, a13
    21f6:	62bab0        	saltu	a11, a10, a11
    21f9:	bbca           	add.n	a11, a11, a12
    21fb:	fec425        	call8	e3c <_saturate32>
    21fe:	31b8           	l32i.n	a11, a1, 12
    2200:	0a2d           	mov.n	a2, a10
    2202:	31cfb0        	srai	a12, a11, 31
    2205:	ebba           	add.n	a14, a11, a11
    2207:	0ead           	mov.n	a10, a14
    2209:	ccca           	add.n	a12, a12, a12
    220b:	62beb0        	saltu	a11, a14, a11
    220e:	bbca           	add.n	a11, a11, a12
    2210:	fec2a5        	call8	e3c <_saturate32>
    2213:	7a8c           	beqz.n	a10, 221e <fn_calc_sup_gain+0x4ca>
    2215:	0a22a7        	blt	a2, a10, 2223 <fn_calc_sup_gain+0x4cf>
    2218:	f78fa1        	l32r	a10, 54 (7fff <xtensa_fft8_32b+0xef>)
    221b:	000ac6        	j	224a <fn_calc_sup_gain+0x4f6>

0000221e <fn_calc_sup_gain+0x4ca>:
    221e:	0a0c           	movi.n	a10, 0
    2220:	000986        	j	224a <fn_calc_sup_gain+0x4f6>

00002223 <fn_calc_sup_gain+0x4cf>:
    2223:	360a34        	ae_cvtq48a32s	aeq0, a10
    2226:	368234        	ae_cvtq48a32s	aeq2, a2
    2229:	40eac0        	nsa	a12, a10
    222c:	8ccd           	ae_sext16	a12, a12
    222e:	fc24feac4f 	{ ae_slaasq56s	aeq1, aeq2, a12; nop }
    2233:	ff04cf1cce 	{ addi	a12, a12, -15; ae_satq48s	aeq3, aeq1 }
    2238:	fc24fe8c8f 	{ ae_slaasq56s	aeq2, aeq0, a12; nop }
    223d:	fd80ff3aef 	{ ae_trunca32q48	a10, aeq3; ae_satq48s	aeq1, aeq2 }
    2242:	369b04        	ae_trunca32q48	a11, aeq1
    2245:	d2aab0        	quos	a10, a10, a11
    2248:	aaad           	ae_clamps16	a10, a10
    224a:	91b8           	l32i.n	a11, a1, 36
    224c:	65ad           	ae_s16i.n	a10, a5, 0
    224e:	039bb2        	l16si	a11, a11, 6
    2251:	0c0c           	movi.n	a12, 0
    2253:	03aab7        	bge	a10, a11, 225a <fn_calc_sup_gain+0x506>
    2256:	0bad           	mov.n	a10, a11
    2258:	65bd           	ae_s16i.n	a11, a5, 0

0000225a <fn_calc_sup_gain+0x506>:
    225a:	404f10        	ssai	31
    225d:	11da00        	slli	a13, a10, 16
    2260:	21d8d0        	srai	a13, a13, 8
    2263:	82add0        	mull	a10, a13, a13
    2266:	b2ddd0        	mulsh	a13, a13, a13
    2269:	11baf0        	slli	a11, a10, 1
    226c:	81dda0        	src	a13, a13, a10
    226f:	cdca           	add.n	a12, a13, a12
    2271:	90aa60        	addx2	a10, a10, a6
    2274:	62bab0        	saltu	a11, a10, a11
    2277:	404810        	ssai	24
    227a:	bbca           	add.n	a11, a11, a12
    227c:	81aba0        	src	a10, a11, a10
    227f:	31b8b0        	srai	a11, a11, 24
    2282:	81bba0        	src	a11, a11, a10
    2285:	11aa80        	slli	a10, a10, 8
    2288:	febee5        	call8	e78 <_saturate24>
    228b:	1128           	l32i.n	a2, a1, 4
    228d:	03c8           	l32i.n	a12, a3, 0
    228f:	404f10        	ssai	31
    2292:	21d8a0        	srai	a13, a10, 8
    2295:	21c8c0        	srai	a12, a12, 8
    2298:	82acd0        	mull	a10, a12, a13
    229b:	b2ccd0        	mulsh	a12, a12, a13
    229e:	11baf0        	slli	a11, a10, 1
    22a1:	81cca0        	src	a12, a12, a10
    22a4:	90aa60        	addx2	a10, a10, a6
    22a7:	62bab0        	saltu	a11, a10, a11
    22aa:	404810        	ssai	24
    22ad:	bbca           	add.n	a11, a11, a12
    22af:	81aba0        	src	a10, a11, a10
    22b2:	31b8b0        	srai	a11, a11, 24
    22b5:	81bba0        	src	a11, a11, a10
    22b8:	11aa80        	slli	a10, a10, 8
    22bb:	febbe5        	call8	e78 <_saturate24>
    22be:	444b           	addi.n	a4, a4, 4
    22c0:	334b           	addi.n	a3, a3, 4
    22c2:	552b           	addi.n	a5, a5, 2
    22c4:	61d8           	l32i.n	a13, a1, 24
    22c6:	09e2a4        	ae_s32ip	a10, a2, 4
    22c9:	1129           	s32i.n	a2, a1, 4
    22cb:	dd0b           	addi.n	a13, a13, -1
    22cd:	61d9           	s32i.n	a13, a1, 24
    22cf:	d05d56        	bnez	a13, 1fd8 <fn_calc_sup_gain+0x284>
    22d2:	f01d           	retw.n

000022d4 <fn_calc_jnd_gain>:
    22d4:	018136        	entry	a1, 192
    22d7:	06cd           	mov.n	a12, a6
    22d9:	f77181        	l32r	a8, a0 (d560 <all_amt_tab>)
    22dc:	a07660        	addx4	a7, a6, a6
    22df:	03ad           	mov.n	a10, a3
    22e1:	05dd           	mov.n	a13, a5
    22e3:	21d9           	s32i.n	a13, a1, 8
    22e5:	065d           	mov.n	a5, a6
    22e7:	04d232        	addmi	a3, a2, 0x400
    22ea:	3338           	l32i.n	a3, a3, 12
    22ec:	b07780        	addx8	a7, a7, a8
    22ef:	277d           	ae_l16si.n	a7, a7, 0
    22f1:	02d3b2        	addmi	a11, a3, 0x200
    22f4:	f78481        	l32r	a8, 104 (eb8 <mel_filter>)
    22f7:	04d362        	addmi	a6, a3, 0x400
    22fa:	0361b2        	s32i	a11, a1, 12
    22fd:	0008e0        	callx8	a8
    2300:	04ad           	mov.n	a10, a4
    2302:	f78081        	l32r	a8, 104 (eb8 <mel_filter>)
    2305:	03bd           	mov.n	a11, a3
    2307:	05cd           	mov.n	a12, a5
    2309:	0008e0        	callx8	a8
    230c:	229d           	ae_l16si.n	a9, a2, 0
    230e:	a28b           	addi.n	a10, a2, 8
    2310:	51a9           	s32i.n	a10, a1, 20
    2312:	1ef916        	beqz	a9, 2505 <fn_calc_jnd_gain+0x231>
    2315:	166172        	s32i	a7, a1, 88
    2318:	1169           	s32i.n	a6, a1, 4
    231a:	c90b           	addi.n	a12, a9, -1
    231c:	28fc16        	beqz	a12, 25af <fn_calc_jnd_gain+0x2db>
    231f:	0139           	s32i.n	a3, a1, 0
    2321:	176152        	s32i	a5, a1, 92
    2324:	162192        	l32i	a9, a1, 88
    2327:	3178           	l32i.n	a7, a1, 12
    2329:	78c1d2        	addi	a13, a1, 120
    232c:	0292f2        	l16si	a15, a2, 4
    232f:	32ed           	ae_l16si.n	a14, a2, 2
    2331:	034d           	mov.n	a4, a3
    2333:	0a6d           	mov.n	a6, a10
    2335:	50a604        	ae_lp24f.iu	aep2, a6, 0
    2338:	509404        	ae_lp24f.iu	aep1, a4, 0
    233b:	300ef4        	ae_cvtp24a16x2.ll	aep0, a14, a15
    233e:	560d94        	ae_sp24x2s.i	aep0, a13, -56
    2341:	508704        	ae_lp24f.iu	aep0, a7, 0
    2344:	0219e6        	bgei	a9, 1, 234a <fn_calc_jnd_gain+0x76>
    2347:	006a06        	j	24f3 <fn_calc_jnd_gain+0x21f>
    234a:	fd2c30113e 	{ l32i	a3, a1, 4; ae_cvtq48p24s.l	aeq1, aep1 }
    234f:	f73e81        	l32r	a8, 48 (8000 <xtensa_fft8_32b+0xf0>)
    2352:	fe0c3ec83f 	{ ae_cvtq48a32s	aeq0, a8; ae_cvtq48p24s.l	aeq2, aep0 }
    2357:	fa36d1593f 	{ addx2	a5, a9, a3; ae_subq56	aeq2, aeq2, aeq1 }

0000235c <fn_calc_jnd_gain+0x88>:
    235c:	06ca44        	ae_satq48s	aeq3, aeq2
    235f:	0a9084        	ae_zeroq56	aeq2
    2362:	09a304        	ae_ltq56s	b0, aeq3, aeq2
    2365:	030490        	rsr.br	a9
    2368:	049090        	extui	a9, a9, 0, 1
    236b:	19cc           	bnez.n	a9, 2370 <fn_calc_jnd_gain+0x9c>
    236d:	06bb34        	ae_movq56	aeq2, aeq3

00002370 <fn_calc_jnd_gain+0x9c>:
    2370:	35a234        	ae_sraiq56	aeq2, aeq2, 8
    2373:	09a514        	ae_leq56s	b1, aeq1, aeq2
    2376:	365904        	ae_nsaq56s	a9, aeq1
    2379:	f736f1        	l32r	a15, 54 (7fff <xtensa_fft8_32b+0xef>)
    237c:	020176        	bf	b1, 2382 <fn_calc_jnd_gain+0xae>
    237f:	000806        	j	23a3 <fn_calc_jnd_gain+0xcf>

00002382 <fn_calc_jnd_gain+0xae>:
    2382:	f8c992        	addi	a9, a9, -8
    2385:	899d           	ae_sext16	a9, a9
    2387:	fc24fea9cf 	{ ae_slaasq56s	aeq3, aeq2, a9; nop }
    238c:	fe84cf199e 	{ addi	a9, a9, -15; ae_satq48s	aeq2, aeq3 }
    2391:	fc24fe99cf 	{ ae_slaasq56s	aeq3, aeq1, a9; nop }
    2396:	fe84ff2fef 	{ ae_trunca32q48	a15, aeq2; ae_satq48s	aeq2, aeq3 }
    239b:	36a804        	ae_trunca32q48	a8, aeq2
    239e:	d2ff80        	quos	a15, a15, a8
    23a1:	affd           	ae_clamps16	a15, a15

000023a3 <fn_calc_jnd_gain+0xcf>:
    23a3:	fe4c3f1baf 	{ ae_nsaq56s	a11, aeq1; ae_cvtq48p24s.l	aeq2, aep2 }
    23a8:	35a234        	ae_sraiq56	aeq2, aeq2, 8
    23ab:	09a524        	ae_leq56s	b2, aeq1, aeq2
    23ae:	f72991        	l32r	a9, 54 (7fff <xtensa_fft8_32b+0xef>)
    23b1:	f8cbb2        	addi	a11, a11, -8
    23b4:	020276        	bf	b2, 23ba <fn_calc_jnd_gain+0xe6>
    23b7:	000746        	j	23d8 <fn_calc_jnd_gain+0x104>

000023ba <fn_calc_jnd_gain+0xe6>:
    23ba:	8bbd           	ae_sext16	a11, a11
    23bc:	fc24feabcf 	{ ae_slaasq56s	aeq3, aeq2, a11; nop }
    23c1:	fe84cf1bbe 	{ addi	a11, a11, -15; ae_satq48s	aeq2, aeq3 }
    23c6:	fc24fe9bcf 	{ ae_slaasq56s	aeq3, aeq1, a11; nop }
    23cb:	fe84ff29ef 	{ ae_trunca32q48	a9, aeq2; ae_satq48s	aeq2, aeq3 }
    23d0:	36aa04        	ae_trunca32q48	a10, aeq2
    23d3:	d299a0        	quos	a9, a9, a10
    23d6:	a99d           	ae_clamps16	a9, a9

000023d8 <fn_calc_jnd_gain+0x104>:
    23d8:	304994        	ae_cvtp24a16x2.ll	aep4, a9, a9
    23db:	78c1b2        	addi	a11, a1, 120
    23de:	543b94        	ae_lp24x2.i	aep3, a11, -56
    23e1:	e97098afff 	{ ae_cvtp24a16x2.ll	aep2, a15, a15; ae_mulfp24s.hh	aeq2, aep4, aep3 }
    23e6:	01a334        	ae_mulafp24s.ll	aeq2, aep2, aep3
    23e9:	118f80        	slli	a8, a15, 8
    23ec:	1bad14        	ae_roundsp24q48asym	aep1, aeq2
    23ef:	019144        	ae_mulfp24s.hh	aeq2, aep1, aep1
    23f2:	0a4184        	ae_cvtq48p24s.l	aeq1, aep1
    23f5:	ff347ec8bf 	{ ae_cvtq48a32s	aeq2, a8; ae_roundsq32asym	aeq3, aeq2 }
    23fa:	fa723b124f 	{ ae_sraiq56	aeq1, aeq1, 8; ae_addq56	aeq2, aeq2, aeq0 }
    23ff:	fbee3a3b1f 	{ ae_sq56s.i	aeq3, a11, 8; ae_addq56	aeq3, aeq1, aeq3 }
    2404:	ff84fa1baf 	{ ae_sq56s.i	aeq1, a11, -48; ae_satq48s	aeq3, aeq3 }
    2409:	f96a3b32cf 	{ ae_sraiq56	aeq3, aeq3, 8; ae_addq56	aeq1, aeq1, aeq0 }
    240e:	ff3c7f29af 	{ ae_nsaq56s	a9, aeq2; ae_roundsq32asym	aeq3, aeq3 }
    2413:	d5da3a1bbf 	{ ae_sq56s.i	aeq1, a11, -40; ae_leq56s	b8, aeq2, aeq3 }
    2418:	614b14        	ae_lq56.i	aeq1, a11, 8
    241b:	f8c992        	addi	a9, a9, -8
    241e:	080876        	bf	b8, 242a <fn_calc_jnd_gain+0x156>
    2421:	f70cf1        	l32r	a15, 54 (7fff <xtensa_fft8_32b+0xef>)
    2424:	560be4        	ae_sp24x2s.i	aep0, a11, -16
    2427:	000846        	j	244c <fn_calc_jnd_gain+0x178>

0000242a <fn_calc_jnd_gain+0x156>:
    242a:	899d           	ae_sext16	a9, a9
    242c:	fc24feb9cf 	{ ae_slaasq56s	aeq3, aeq3, a9; nop }
    2431:	ff84cf199e 	{ addi	a9, a9, -15; ae_satq48s	aeq3, aeq3 }
    2436:	36bf04        	ae_trunca32q48	a15, aeq3
    2439:	fc24fea9cf 	{ ae_slaasq56s	aeq3, aeq2, a9; nop }
    243e:	06cb44        	ae_satq48s	aeq3, aeq3
    2441:	36b804        	ae_trunca32q48	a8, aeq3
    2444:	560be4        	ae_sp24x2s.i	aep0, a11, -16
    2447:	d2ff80        	quos	a15, a15, a8
    244a:	affd           	ae_clamps16	a15, a15

0000244c <fn_calc_jnd_gain+0x178>:
    244c:	f72d81        	l32r	a8, 100 (cd0 <fxsqrt_ie>)
    244f:	3590f4        	ae_sraiq56	aeq2, aeq1, 3
    2452:	364f34        	ae_cvtq48a32s	aeq1, a15
    2455:	fc347a915f 	{ ae_slliq56	aeq1, aeq1, 5; ae_roundsq32asym	aeq0, aeq2 }
    245a:	0109c4        	ae_addq56	aeq0, aeq0, aeq1
    245d:	368a04        	ae_trunca32q48	a10, aeq0
    2460:	0008e0        	callx8	a8
    2463:	f6f9d1        	l32r	a13, 48 (8000 <xtensa_fft8_32b+0xf0>)
    2466:	78c1c2        	addi	a12, a1, 120
    2469:	11ba70        	slli	a11, a10, 9
    246c:	364b34        	ae_cvtq48a32s	aeq1, a11
    246f:	61cca4        	ae_lq56.i	aeq3, a12, -48
    2472:	fb7e3dacbf 	{ ae_lq56.i	aeq1, a12, -40; ae_addq56	aeq3, aeq3, aeq1 }
    2477:	355054        	ae_slliq56	aeq1, aeq1, 1
    247a:	068944        	ae_satq48s	aeq2, aeq1
    247d:	fd84ff29af 	{ ae_nsaq56s	a9, aeq2; ae_satq48s	aeq1, aeq3 }
    2482:	d5ca7ecd3f 	{ ae_cvtq48a32s	aeq0, a13; ae_leq56s	b9, aeq2, aeq1 }
    2487:	540ce4        	ae_lp24x2.i	aep0, a12, -16
    248a:	f8c992        	addi	a9, a9, -8
    248d:	0a0976        	bf	b9, 249b <fn_calc_jnd_gain+0x1c7>
    2490:	f6f1f1        	l32r	a15, 54 (7fff <xtensa_fft8_32b+0xef>)
    2493:	f6f0e1        	l32r	a14, 54 (7fff <xtensa_fft8_32b+0xef>)
    2496:	63ed           	ae_s16i.n	a14, a3, 0
    2498:	0007c6        	j	24bb <fn_calc_jnd_gain+0x1e7>

0000249b <fn_calc_jnd_gain+0x1c7>:
    249b:	899d           	ae_sext16	a9, a9
    249d:	fc24fe99cf 	{ ae_slaasq56s	aeq3, aeq1, a9; nop }
    24a2:	fd84cf199e 	{ addi	a9, a9, -15; ae_satq48s	aeq1, aeq3 }
    24a7:	fc24fea9cf 	{ ae_slaasq56s	aeq3, aeq2, a9; nop }
    24ac:	fd84ff1fef 	{ ae_trunca32q48	a15, aeq1; ae_satq48s	aeq1, aeq3 }
    24b1:	369804        	ae_trunca32q48	a8, aeq1
    24b4:	d2ff80        	quos	a15, a15, a8
    24b7:	affd           	ae_clamps16	a15, a15
    24b9:	63fd           	ae_s16i.n	a15, a3, 0

000024bb <fn_calc_jnd_gain+0x1e7>:
    24bb:	0392e2        	l16si	a14, a2, 6
    24be:	03afe7        	bge	a15, a14, 24c5 <fn_calc_jnd_gain+0x1f1>
    24c1:	0efd           	mov.n	a15, a14
    24c3:	63ed           	ae_s16i.n	a14, a3, 0

000024c5 <fn_calc_jnd_gain+0x1f1>:
    24c5:	307ff4        	ae_cvtp24a16x2.ll	aep7, a15, a15
    24c8:	01f774        	ae_mulfp24s.ll	aeq2, aep7, aep7
    24cb:	1bad64        	ae_roundsp24q48asym	aep6, aeq2
    24ce:	016874        	ae_mulfp24s.ll	aeq1, aep6, aep0
    24d1:	fa6fc0233e 	{ addi	a3, a3, 2; ae_roundsp24q48asym	aep5, aeq1 }
    24d6:	52d604        	ae_sp24f.l.iu	aep5, a6, 0
    24d9:	509414        	ae_lp24f.iu	aep1, a4, 4
    24dc:	fd2c2e871f 	{ ae_lp24f.iu	aep0, a7, 4; ae_cvtq48p24s.l	aeq1, aep1 }
    24e1:	fe0c15a35f 	{ sub	a10, a3, a5; ae_cvtq48p24s.l	aeq2, aep0 }
    24e6:	fa36eea61f 	{ ae_lp24f.iu	aep2, a6, 4; ae_subq56	aeq2, aeq2, aeq1 }
    24eb:	e6da56        	bnez	a10, 235c <fn_calc_jnd_gain+0x88>
    24ee:	172152        	l32i	a5, a1, 92
    24f1:	0138           	l32i.n	a3, a1, 0

000024f3 <fn_calc_jnd_gain+0x21f>:
    24f3:	51a8           	l32i.n	a10, a1, 20
    24f5:	11c8           	l32i.n	a12, a1, 4
    24f7:	21d8           	l32i.n	a13, a1, 8
    24f9:	f70381        	l32r	a8, 108 (1004 <calc_amt>)
    24fc:	05ed           	mov.n	a14, a5
    24fe:	03bd           	mov.n	a11, a3
    2500:	0008e0        	callx8	a8
    2503:	f01d           	retw.n

00002505 <fn_calc_jnd_gain+0x231>:
    2505:	064d           	mov.n	a4, a6
    2507:	51e8           	l32i.n	a14, a1, 20
    2509:	31c8           	l32i.n	a12, a1, 12
    250b:	78c192        	addi	a9, a1, 120
    250e:	0292b2        	l16si	a11, a2, 4
    2511:	32ad           	ae_l16si.n	a10, a2, 2
    2513:	300ab4        	ae_cvtp24a16x2.ll	aep0, a10, a11
    2516:	560994        	ae_sp24x2s.i	aep0, a9, -56
    2519:	601c04        	ae_lq32f.iu	aeq0, a12, 0
    251c:	609e04        	ae_lq32f.iu	aeq2, a14, 0
    251f:	20b330        	or	a11, a3, a3
    2522:	605b04        	ae_lq32f.iu	aeq1, a11, 0
    2525:	81a776        	loopgtz	a7, 25aa <fn_calc_jnd_gain+0x2d6>
    2528:	fb760781de 	{ addi	a13, a1, 120; ae_addq56	aeq3, aeq2, aeq1 }
    252d:	ff84f02d9f 	{ ae_lp24x2.i	aep2, a13, -56; ae_satq48s	aeq3, aeq3 }
    2532:	03aac4        	ae_mulfq32sp16s.h	aeq3, aeq3, aep2
    2535:	03a814        	ae_mulafq32sp16s.l	aeq3, aeq0, aep2
    2538:	f87fe032ae 	{ l16si	a10, a2, 6; ae_roundsp24q48asym	aep1, aeq3 }
    253d:	009fd4        	ae_cvta32p24.h	a15, aep1
    2540:	fa427f17ef 	{ ae_trunca32q48	a7, aeq1; ae_truncp24q48x2	aep5, aeq0, aeq0 }
    2545:	f6c3d1        	l32r	a13, 54 (7fff <xtensa_fft8_32b+0xef>)
    2548:	7f8c           	beqz.n	a15, 2553 <fn_calc_jnd_gain+0x27f>
    254a:	0a27f7        	blt	a7, a15, 2558 <fn_calc_jnd_gain+0x284>
    254d:	f6c1f1        	l32r	a15, 54 (7fff <xtensa_fft8_32b+0xef>)
    2550:	000b46        	j	2581 <fn_calc_jnd_gain+0x2ad>

00002553 <fn_calc_jnd_gain+0x27f>:
    2553:	0f0c           	movi.n	a15, 0
    2555:	000a06        	j	2581 <fn_calc_jnd_gain+0x2ad>

00002558 <fn_calc_jnd_gain+0x284>:
    2558:	364f34        	ae_cvtq48a32s	aeq1, a15
    255b:	36c734        	ae_cvtq48a32s	aeq3, a7
    255e:	40ef90        	nsa	a9, a15
    2561:	899d           	ae_sext16	a9, a9
    2563:	fc24feb98f 	{ ae_slaasq56s	aeq2, aeq3, a9; nop }
    2568:	ff80cf199e 	{ addi	a9, a9, -15; ae_satq48s	aeq3, aeq2 }
    256d:	fc24fe998f 	{ ae_slaasq56s	aeq2, aeq1, a9; nop }
    2572:	fd80ff3fef 	{ ae_trunca32q48	a15, aeq3; ae_satq48s	aeq1, aeq2 }
    2577:	369804        	ae_trunca32q48	a8, aeq1
    257a:	f03d           	nop.n
    257c:	d2ff80        	quos	a15, a15, a8
    257f:	affd           	ae_clamps16	a15, a15
    2581:	c0ddf0        	sub	a13, a13, a15
    2584:	8ddd           	ae_sext16	a13, a13
    2586:	53aad0        	max	a10, a10, a13
    2589:	306aa4        	ae_cvtp24a16x2.ll	aep6, a10, a10
    258c:	01e644        	ae_mulfp24s.hh	aeq2, aep6, aep6
    258f:	1bad44        	ae_roundsp24q48asym	aep4, aeq2
    2592:	014d44        	ae_mulfp24s.hh	aeq1, aep4, aep5
    2595:	09c4a4        	ae_s16ip	a10, a4, 2
    2598:	1b9d34        	ae_roundsp24q48asym	aep3, aeq1
    259b:	0a0384        	ae_cvtq48p24s.l	aeq0, aep3
    259e:	624e04        	ae_sq32f.iu	aeq0, a14, 0
    25a1:	609e14        	ae_lq32f.iu	aeq2, a14, 4
    25a4:	601c14        	ae_lq32f.iu	aeq0, a12, 4
    25a7:	605b14        	ae_lq32f.iu	aeq1, a11, 4

000025aa <fn_calc_jnd_gain+0x2d6>:
    25aa:	1169           	s32i.n	a6, a1, 4
    25ac:	ffd0c6        	j	24f3 <fn_calc_jnd_gain+0x21f>

000025af <fn_calc_jnd_gain+0x2db>:
    25af:	0139           	s32i.n	a3, a1, 0
    25b1:	176152        	s32i	a5, a1, 92
    25b4:	0217e6        	bgei	a7, 1, 25ba <fn_calc_jnd_gain+0x2e6>
    25b7:	ffce06        	j	24f3 <fn_calc_jnd_gain+0x21f>
    25ba:	f6d041        	l32r	a4, fc (800000 <_end+0x7f2874>)
    25bd:	b1a9           	s32i.n	a10, a1, 44
    25bf:	3168           	l32i.n	a6, a1, 12
    25c1:	1138           	l32i.n	a3, a1, 4
    25c3:	e169           	s32i.n	a6, a1, 56
    25c5:	0168           	l32i.n	a6, a1, 0
    25c7:	905730        	addx2	a5, a7, a3
    25ca:	f69f71        	l32r	a7, 48 (8000 <xtensa_fft8_32b+0xf0>)

000025cd <fn_calc_jnd_gain+0x2f9>:
    25cd:	e1b8           	l32i.n	a11, a1, 56
    25cf:	06a8           	l32i.n	a10, a6, 0
    25d1:	0bb8           	l32i.n	a11, a11, 0
    25d3:	31dfa0        	srai	a13, a10, 31
    25d6:	c0aba0        	sub	a10, a11, a10
    25d9:	62cba0        	saltu	a12, a11, a10
    25dc:	31bfb0        	srai	a11, a11, 31
    25df:	c0bbd0        	sub	a11, a11, a13
    25e2:	c0bbc0        	sub	a11, a11, a12
    25e5:	fe8565        	call8	e3c <_saturate32>
    25e8:	06e8           	l32i.n	a14, a6, 0
    25ea:	0f0c           	movi.n	a15, 0
    25ec:	53ffa0        	max	a15, a15, a10
    25ef:	ae8c           	beqz.n	a14, 25fd <fn_calc_jnd_gain+0x329>
    25f1:	21f8f0        	srai	a15, a15, 8
    25f4:	0a2fe7        	blt	a15, a14, 2602 <fn_calc_jnd_gain+0x32e>
    25f7:	f697f1        	l32r	a15, 54 (7fff <xtensa_fft8_32b+0xef>)
    25fa:	000ac6        	j	2629 <fn_calc_jnd_gain+0x355>

000025fd <fn_calc_jnd_gain+0x329>:
    25fd:	0f0c           	movi.n	a15, 0
    25ff:	000986        	j	2629 <fn_calc_jnd_gain+0x355>

00002602 <fn_calc_jnd_gain+0x32e>:
    2602:	368e34        	ae_cvtq48a32s	aeq2, a14
    2605:	360f34        	ae_cvtq48a32s	aeq0, a15
    2608:	40ee90        	nsa	a9, a14
    260b:	899d           	ae_sext16	a9, a9
    260d:	fc24fe89cf 	{ ae_slaasq56s	aeq3, aeq0, a9; nop }
    2612:	fd84cf199e 	{ addi	a9, a9, -15; ae_satq48s	aeq1, aeq3 }
    2617:	fc24fea90f 	{ ae_slaasq56s	aeq0, aeq2, a9; nop }
    261c:	ff00ff1fef 	{ ae_trunca32q48	a15, aeq1; ae_satq48s	aeq3, aeq0 }
    2621:	36b804        	ae_trunca32q48	a8, aeq3
    2624:	d2ff80        	quos	a15, a15, a8
    2627:	affd           	ae_clamps16	a15, a15
    2629:	b1a8           	l32i.n	a10, a1, 44
    262b:	0aa8           	l32i.n	a10, a10, 0
    262d:	a1f9           	s32i.n	a15, a1, 40
    262f:	21f8a0        	srai	a15, a10, 8
    2632:	7e8c           	beqz.n	a14, 263d <fn_calc_jnd_gain+0x369>
    2634:	0a2fe7        	blt	a15, a14, 2642 <fn_calc_jnd_gain+0x36e>
    2637:	f687f1        	l32r	a15, 54 (7fff <xtensa_fft8_32b+0xef>)
    263a:	000b46        	j	266b <fn_calc_jnd_gain+0x397>

0000263d <fn_calc_jnd_gain+0x369>:
    263d:	0f0c           	movi.n	a15, 0
    263f:	000a06        	j	266b <fn_calc_jnd_gain+0x397>

00002642 <fn_calc_jnd_gain+0x36e>:
    2642:	360e34        	ae_cvtq48a32s	aeq0, a14
    2645:	368f34        	ae_cvtq48a32s	aeq2, a15
    2648:	40ee90        	nsa	a9, a14
    264b:	899d           	ae_sext16	a9, a9
    264d:	fc24fea94f 	{ ae_slaasq56s	aeq1, aeq2, a9; nop }
    2652:	ff04cf199e 	{ addi	a9, a9, -15; ae_satq48s	aeq3, aeq1 }
    2657:	fc24fe898f 	{ ae_slaasq56s	aeq2, aeq0, a9; nop }
    265c:	fd80ff3fef 	{ ae_trunca32q48	a15, aeq3; ae_satq48s	aeq1, aeq2 }
    2661:	369804        	ae_trunca32q48	a8, aeq1
    2664:	f03d           	nop.n
    2666:	d2ff80        	quos	a15, a15, a8
    2669:	affd           	ae_clamps16	a15, a15
    266b:	404f10        	ssai	31
    266e:	11ef00        	slli	a14, a15, 16
    2671:	32dd           	ae_l16si.n	a13, a2, 2
    2673:	a1f8           	l32i.n	a15, a1, 40
    2675:	21e8e0        	srai	a14, a14, 8
    2678:	11dd00        	slli	a13, a13, 16
    267b:	21d8d0        	srai	a13, a13, 8
    267e:	82cde0        	mull	a12, a13, a14
    2681:	b2dde0        	mulsh	a13, a13, a14
    2684:	0292e2        	l16si	a14, a2, 4
    2687:	11ff00        	slli	a15, a15, 16
    268a:	21f8f0        	srai	a15, a15, 8
    268d:	11ee00        	slli	a14, a14, 16
    2690:	21e8e0        	srai	a14, a14, 8
    2693:	82bef0        	mull	a11, a14, a15
    2696:	b2eef0        	mulsh	a14, a14, a15
    2699:	81ddc0        	src	a13, a13, a12
    269c:	81eeb0        	src	a14, a14, a11
    269f:	404810        	ssai	24
    26a2:	ddea           	add.n	a13, a13, a14
    26a4:	11bbf0        	slli	a11, a11, 1
    26a7:	90bcb0        	addx2	a11, a12, a11
    26aa:	ab4a           	add.n	a10, a11, a4
    26ac:	11ccf0        	slli	a12, a12, 1
    26af:	62cbc0        	saltu	a12, a11, a12
    26b2:	ccda           	add.n	a12, a12, a13
    26b4:	62bab0        	saltu	a11, a10, a11
    26b7:	bbca           	add.n	a11, a11, a12
    26b9:	81aba0        	src	a10, a11, a10
    26bc:	31b8b0        	srai	a11, a11, 24
    26bf:	81bba0        	src	a11, a11, a10
    26c2:	11aa80        	slli	a10, a10, 8
    26c5:	fe7b25        	call8	e78 <_saturate24>
    26c8:	404700        	ssai	7
    26cb:	21f8a0        	srai	a15, a10, 8
    26ce:	82baf0        	mull	a11, a10, a15
    26d1:	b2caf0        	mulsh	a12, a10, a15
    26d4:	d1f9           	s32i.n	a15, a1, 52
    26d6:	81bcb0        	src	a11, a12, a11
    26d9:	31fff0        	srai	a15, a15, 31
    26dc:	c1f9           	s32i.n	a15, a1, 48
    26de:	404010        	ssai	16
    26e1:	ab7a           	add.n	a10, a11, a7
    26e3:	21c7c0        	srai	a12, a12, 7
    26e6:	62bab0        	saltu	a11, a10, a11
    26e9:	bbca           	add.n	a11, a11, a12
    26eb:	81aba0        	src	a10, a11, a10
    26ee:	31b0b0        	srai	a11, a11, 16
    26f1:	fe74a5        	call8	e3c <_saturate32>
    26f4:	d1b8           	l32i.n	a11, a1, 52
    26f6:	c1d8           	l32i.n	a13, a1, 48
    26f8:	61a9           	s32i.n	a10, a1, 24
    26fa:	cb7a           	add.n	a12, a11, a7
    26fc:	0cad           	mov.n	a10, a12
    26fe:	62bcb0        	saltu	a11, a12, a11
    2701:	bbda           	add.n	a11, a11, a13
    2703:	fe73a5        	call8	e3c <_saturate32>
    2706:	a1b8           	l32i.n	a11, a1, 40
    2708:	71a9           	s32i.n	a10, a1, 28
    270a:	11cb80        	slli	a12, a11, 8
    270d:	31b8b0        	srai	a11, a11, 24
    2710:	0cad           	mov.n	a10, a12
    2712:	fe72a5        	call8	e3c <_saturate32>
    2715:	0acd           	mov.n	a12, a10
    2717:	aa7a           	add.n	a10, a10, a7
    2719:	62bac0        	saltu	a11, a10, a12
    271c:	31cfc0        	srai	a12, a12, 31
    271f:	bbca           	add.n	a11, a11, a12
    2721:	fe71a5        	call8	e3c <_saturate32>
    2724:	c1e8           	l32i.n	a14, a1, 48
    2726:	d1d8           	l32i.n	a13, a1, 52
    2728:	61c8           	l32i.n	a12, a1, 24
    272a:	41a9           	s32i.n	a10, a1, 16
    272c:	91c9           	s32i.n	a12, a1, 36
    272e:	dcda           	add.n	a13, a12, a13
    2730:	62bdc0        	saltu	a11, a13, a12
    2733:	0dad           	mov.n	a10, a13
    2735:	31cfc0        	srai	a12, a12, 31
    2738:	81c9           	s32i.n	a12, a1, 32
    273a:	ccea           	add.n	a12, a12, a14
    273c:	bbca           	add.n	a11, a11, a12
    273e:	fe6fe5        	call8	e3c <_saturate32>
    2741:	0abd           	mov.n	a11, a10
    2743:	31cfa0        	srai	a12, a10, 31
    2746:	ccca           	add.n	a12, a12, a12
    2748:	aaaa           	add.n	a10, a10, a10
    274a:	62bab0        	saltu	a11, a10, a11
    274d:	bbca           	add.n	a11, a11, a12
    274f:	fe6ee5        	call8	e3c <_saturate32>
    2752:	41f8           	l32i.n	a15, a1, 16
    2754:	404800        	ssai	8
    2757:	319fa0        	srai	a9, a10, 31
    275a:	5f9c           	beqz.n	a15, 2773 <fn_calc_jnd_gain+0x49f>
    275c:	01da82        	addmi	a8, a10, 0x100
    275f:	80c882        	addi	a8, a8, -128
    2762:	62e8a0        	saltu	a14, a8, a10
    2765:	ee9a           	add.n	a14, a14, a9
    2767:	81ee80        	src	a14, a14, a8
    276a:	0a2ef7        	blt	a14, a15, 2778 <fn_calc_jnd_gain+0x4a4>
    276d:	f639f1        	l32r	a15, 54 (7fff <xtensa_fft8_32b+0xef>)
    2770:	000bc6        	j	27a3 <fn_calc_jnd_gain+0x4cf>

00002773 <fn_calc_jnd_gain+0x49f>:
    2773:	0f0c           	movi.n	a15, 0
    2775:	000a86        	j	27a3 <fn_calc_jnd_gain+0x4cf>

00002778 <fn_calc_jnd_gain+0x4a4>:
    2778:	368f34        	ae_cvtq48a32s	aeq2, a15
    277b:	360e34        	ae_cvtq48a32s	aeq0, a14
    277e:	40ef90        	nsa	a9, a15
    2781:	899d           	ae_sext16	a9, a9
    2783:	fc24fe89cf 	{ ae_slaasq56s	aeq3, aeq0, a9; nop }
    2788:	fd84cf199e 	{ addi	a9, a9, -15; ae_satq48s	aeq1, aeq3 }
    278d:	fc24fea90f 	{ ae_slaasq56s	aeq0, aeq2, a9; nop }
    2792:	ff00ff1fef 	{ ae_trunca32q48	a15, aeq1; ae_satq48s	aeq3, aeq0 }
    2797:	36b804        	ae_trunca32q48	a8, aeq3
    279a:	f03d           	nop.n
    279c:	f03d           	nop.n
    279e:	d2ff80        	quos	a15, a15, a8
    27a1:	affd           	ae_clamps16	a15, a15
    27a3:	11afb0        	slli	a10, a15, 5
    27a6:	31bbf0        	srai	a11, a15, 27
    27a9:	fe6925        	call8	e3c <_saturate32>
    27ac:	404300        	ssai	3
    27af:	8188           	l32i.n	a8, a1, 32
    27b1:	91e8           	l32i.n	a14, a1, 36
    27b3:	0abd           	mov.n	a11, a10
    27b5:	31cfb0        	srai	a12, a11, 31
    27b8:	fe4b           	addi.n	a15, a14, 4
    27ba:	62efe0        	saltu	a14, a15, a14
    27bd:	ee8a           	add.n	a14, a14, a8
    27bf:	81eef0        	src	a14, a14, a15
    27c2:	aaea           	add.n	a10, a10, a14
    27c4:	31dfe0        	srai	a13, a14, 31
    27c7:	80ccd0        	add	a12, a12, a13
    27ca:	62bab0        	saltu	a11, a10, a11
    27cd:	bbca           	add.n	a11, a11, a12
    27cf:	fe66e5        	call8	e3c <_saturate32>
    27d2:	f64b81        	l32r	a8, 100 (cd0 <fxsqrt_ie>)
    27d5:	f03d           	nop.n
    27d7:	0008e0        	callx8	a8
    27da:	0abd           	mov.n	a11, a10
    27dc:	11aa70        	slli	a10, a10, 9
    27df:	31b7b0        	srai	a11, a11, 23
    27e2:	fe65a5        	call8	e3c <_saturate32>
    27e5:	0abd           	mov.n	a11, a10
    27e7:	c1d8           	l32i.n	a13, a1, 48
    27e9:	d1a8           	l32i.n	a10, a1, 52
    27eb:	31cfb0        	srai	a12, a11, 31
    27ee:	ccda           	add.n	a12, a12, a13
    27f0:	abaa           	add.n	a10, a11, a10
    27f2:	62bab0        	saltu	a11, a10, a11
    27f5:	bbca           	add.n	a11, a11, a12
    27f7:	fe6465        	call8	e3c <_saturate32>
    27fa:	71b8           	l32i.n	a11, a1, 28
    27fc:	1861a2        	s32i	a10, a1, 96
    27ff:	31dfb0        	srai	a13, a11, 31
    2802:	cbba           	add.n	a12, a11, a11
    2804:	0cad           	mov.n	a10, a12
    2806:	ddda           	add.n	a13, a13, a13
    2808:	62bcb0        	saltu	a11, a12, a11
    280b:	bbda           	add.n	a11, a11, a13
    280d:	fe62e5        	call8	e3c <_saturate32>
    2810:	1821f2        	l32i	a15, a1, 96
    2813:	7a8c           	beqz.n	a10, 281e <fn_calc_jnd_gain+0x54a>
    2815:	0a2fa7        	blt	a15, a10, 2823 <fn_calc_jnd_gain+0x54f>
    2818:	f60ff1        	l32r	a15, 54 (7fff <xtensa_fft8_32b+0xef>)
    281b:	000b86        	j	284d <fn_calc_jnd_gain+0x579>

0000281e <fn_calc_jnd_gain+0x54a>:
    281e:	0f0c           	movi.n	a15, 0
    2820:	000a46        	j	284d <fn_calc_jnd_gain+0x579>

00002823 <fn_calc_jnd_gain+0x54f>:
    2823:	360a34        	ae_cvtq48a32s	aeq0, a10
    2826:	368f34        	ae_cvtq48a32s	aeq2, a15
    2829:	40ea90        	nsa	a9, a10
    282c:	899d           	ae_sext16	a9, a9
    282e:	fc24fea94f 	{ ae_slaasq56s	aeq1, aeq2, a9; nop }
    2833:	ff04cf199e 	{ addi	a9, a9, -15; ae_satq48s	aeq3, aeq1 }
    2838:	fc24fe898f 	{ ae_slaasq56s	aeq2, aeq0, a9; nop }
    283d:	fd80ff3fef 	{ ae_trunca32q48	a15, aeq3; ae_satq48s	aeq1, aeq2 }
    2842:	369804        	ae_trunca32q48	a8, aeq1
    2845:	0020f0        	nop
    2848:	d2ff80        	quos	a15, a15, a8
    284b:	affd           	ae_clamps16	a15, a15
    284d:	63fd           	ae_s16i.n	a15, a3, 0
    284f:	0392e2        	l16si	a14, a2, 6
    2852:	03afe7        	bge	a15, a14, 2859 <fn_calc_jnd_gain+0x585>
    2855:	0efd           	mov.n	a15, a14
    2857:	63ed           	ae_s16i.n	a14, a3, 0

00002859 <fn_calc_jnd_gain+0x585>:
    2859:	404f10        	ssai	31
    285c:	11cf00        	slli	a12, a15, 16
    285f:	21c8c0        	srai	a12, a12, 8
    2862:	82acc0        	mull	a10, a12, a12
    2865:	b2ccc0        	mulsh	a12, a12, a12
    2868:	11baf0        	slli	a11, a10, 1
    286b:	81cca0        	src	a12, a12, a10
    286e:	90aa40        	addx2	a10, a10, a4
    2871:	62bab0        	saltu	a11, a10, a11
    2874:	404810        	ssai	24
    2877:	bbca           	add.n	a11, a11, a12
    2879:	81aba0        	src	a10, a11, a10
    287c:	31b8b0        	srai	a11, a11, 24
    287f:	81bba0        	src	a11, a11, a10
    2882:	11aa80        	slli	a10, a10, 8
    2885:	fe5f25        	call8	e78 <_saturate24>
    2888:	e1c8           	l32i.n	a12, a1, 56
    288a:	0cc8           	l32i.n	a12, a12, 0
    288c:	404f10        	ssai	31
    288f:	21d8a0        	srai	a13, a10, 8
    2892:	21c8c0        	srai	a12, a12, 8
    2895:	82acd0        	mull	a10, a12, a13
    2898:	b2ccd0        	mulsh	a12, a12, a13
    289b:	11baf0        	slli	a11, a10, 1
    289e:	81cca0        	src	a12, a12, a10
    28a1:	90aa40        	addx2	a10, a10, a4
    28a4:	62bab0        	saltu	a11, a10, a11
    28a7:	404810        	ssai	24
    28aa:	bbca           	add.n	a11, a11, a12
    28ac:	81aba0        	src	a10, a11, a10
    28af:	31b8b0        	srai	a11, a11, 24
    28b2:	81bba0        	src	a11, a11, a10
    28b5:	11aa80        	slli	a10, a10, 8
    28b8:	fe5be5        	call8	e78 <_saturate24>
    28bb:	664b           	addi.n	a6, a6, 4
    28bd:	b1f8           	l32i.n	a15, a1, 44
    28bf:	e1e8           	l32i.n	a14, a1, 56
    28c1:	332b           	addi.n	a3, a3, 2
    28c3:	c0d350        	sub	a13, a3, a5
    28c6:	ee4b           	addi.n	a14, a14, 4
    28c8:	09efa4        	ae_s32ip	a10, a15, 4
    28cb:	b1f9           	s32i.n	a15, a1, 44
    28cd:	e1e9           	s32i.n	a14, a1, 56
    28cf:	cfad56        	bnez	a13, 25cd <fn_calc_jnd_gain+0x2f9>
    28d2:	172152        	l32i	a5, a1, 92
    28d5:	0138           	l32i.n	a3, a1, 0
    28d7:	ff0606        	j	24f3 <fn_calc_jnd_gain+0x21f>

000028da <fn_calc_jnd_gain+0x606>:
	...

000028dc <fn_ini_win_detection>:
    28dc:	004136        	entry	a1, 32
    28df:	02ad           	mov.n	a10, a2
    28e1:	f5f981        	l32r	a8, c8 (8808 <xt_memset>)
    28e4:	0b0c           	movi.n	a11, 0
    28e6:	64a2c2        	movi	a12, 0x264
    28e9:	0008e0        	callx8	a8
    28ec:	03bd           	mov.n	a11, a3
    28ee:	f5c581        	l32r	a8, 4 (8820 <xt_memcpy>)
    28f1:	02ad           	mov.n	a10, a2
    28f3:	8c1c           	movi.n	a12, 24
    28f5:	0008e0        	callx8	a8
    28f8:	f605c1        	l32r	a12, 10c (1000000 <_end+0xff2874>)
    28fb:	92b8           	l32i.n	a11, a2, 36
    28fd:	0292a2        	l16si	a10, a2, 4
    2900:	03d292        	addmi	a9, a2, 0x300
    2903:	bbca           	add.n	a11, a11, a12
    2905:	6e69b2        	s32i	a11, a9, 0x1b8
    2908:	1952a2        	s16i	a10, a2, 50
    290b:	1852a2        	s16i	a10, a2, 48
    290e:	706942        	s32i	a4, a9, 0x1c0
    2911:	f01d           	retw.n

00002913 <fn_ini_win_detection+0x37>:
	...

00002914 <fn_win_detection>:
    2914:	00c136        	entry	a1, 96
    2917:	4129           	s32i.n	a2, a1, 16
    2919:	3169           	s32i.n	a6, a1, 12
    291b:	026172        	s32i	a7, a1, 8
    291e:	00a092        	movi	a9, 0
    2921:	10c582        	addi	a8, a5, 16
    2924:	04a0a2        	movi	a10, 4
    2927:	39baa4        	ae_movpa24x2	aep3, a10, a10
    292a:	5c8804        	ae_lp24x2f.iu	aep0, a8, 0
    292d:	006192        	s32i	a9, a1, 0
    2930:	fd20803e9f 	{ movi	a9, 62; ae_zerop48	aep2 }
    2935:	0a8976        	loop	a9, 2943 <fn_win_detection+0x2f>
    2938:	d8616f881f 	{ ae_lp24x2f.iu	aep0, a8, 8; ae_addsp24s	aep1, aep0, aep3 }
    293d:	0f1194        	ae_sraip24	aep1, aep1, 3
    2940:	07a124        	ae_addsp24s	aep2, aep2, aep1

00002943 <fn_win_detection+0x2f>:
    2943:	1aaa94        	ae_selp24.hh	aep1, aep2, aep2
    2946:	07a104        	ae_addsp24s	aep0, aep2, aep1
    2949:	520104        	ae_sp24f.l.i	aep0, a1, 0
    294c:	0021a2        	l32i	a10, a1, 0
    294f:	f5d781        	l32r	a8, ac (d40 <fxlog10>)
    2952:	f03d           	nop.n
    2954:	21a8a0        	srai	a10, a10, 8
    2957:	0008e0        	callx8	a8
    295a:	41b8           	l32i.n	a11, a1, 16
    295c:	f5de81        	l32r	a8, d4 (6a4d <fill_vad_thrd_Nbands+0x2d>)
    295f:	f5ba51        	l32r	a5, 48 (8000 <xtensa_fft8_32b+0xf0>)
    2962:	029b22        	l16si	a2, a11, 4
    2965:	d18a80        	mul16s	a8, a10, a8
    2968:	189bb2        	l16si	a11, a11, 48
    296b:	1188f0        	slli	a8, a8, 1
    296e:	808850        	add	a8, a8, a5
    2971:	318080        	srai	a8, a8, 16
    2974:	532280        	max	a2, a2, a8
    2977:	822d           	ae_sext16	a2, a2
    2979:	c0a2b0        	sub	a10, a2, a11
    297c:	20ab27        	bge	a11, a2, 29a0 <fn_win_detection+0x8c>
    297f:	fe4a25        	call8	e20 <_saturate16>
    2982:	41c8           	l32i.n	a12, a1, 16
    2984:	039cb2        	l16si	a11, a12, 6
    2987:	d1bba0        	mul16s	a11, a11, a10
    298a:	189ca2        	l16si	a10, a12, 48
    298d:	90bb50        	addx2	a11, a11, a5
    2990:	31b0b0        	srai	a11, a11, 16
    2993:	aaba           	add.n	a10, a10, a11
    2995:	fe48a5        	call8	e20 <_saturate16>
    2998:	41c8           	l32i.n	a12, a1, 16
    299a:	185ca2        	s16i	a10, a12, 48
    299d:	000746        	j	29be <fn_win_detection+0xaa>

000029a0 <fn_win_detection+0x8c>:
    29a0:	fe47e5        	call8	e20 <_saturate16>
    29a3:	41c8           	l32i.n	a12, a1, 16
    29a5:	049cb2        	l16si	a11, a12, 8
    29a8:	d1bba0        	mul16s	a11, a11, a10
    29ab:	189ca2        	l16si	a10, a12, 48
    29ae:	90bb50        	addx2	a11, a11, a5
    29b1:	31b0b0        	srai	a11, a11, 16
    29b4:	aaba           	add.n	a10, a10, a11
    29b6:	fe46a5        	call8	e20 <_saturate16>
    29b9:	41c8           	l32i.n	a12, a1, 16
    29bb:	185ca2        	s16i	a10, a12, 48

000029be <fn_win_detection+0xaa>:
    29be:	41d8           	l32i.n	a13, a1, 16
    29c0:	199dd2        	l16si	a13, a13, 50
    29c3:	c0a2d0        	sub	a10, a2, a13
    29c6:	20ad27        	bge	a13, a2, 29ea <fn_win_detection+0xd6>
    29c9:	fe4565        	call8	e20 <_saturate16>
    29cc:	41c8           	l32i.n	a12, a1, 16
    29ce:	059cb2        	l16si	a11, a12, 10
    29d1:	d1bba0        	mul16s	a11, a11, a10
    29d4:	199ca2        	l16si	a10, a12, 50
    29d7:	90bb50        	addx2	a11, a11, a5
    29da:	31b0b0        	srai	a11, a11, 16
    29dd:	aaba           	add.n	a10, a10, a11
    29df:	fe4425        	call8	e20 <_saturate16>
    29e2:	41c8           	l32i.n	a12, a1, 16
    29e4:	195ca2        	s16i	a10, a12, 50
    29e7:	000746        	j	2a08 <fn_win_detection+0xf4>

000029ea <fn_win_detection+0xd6>:
    29ea:	fe4365        	call8	e20 <_saturate16>
    29ed:	41c8           	l32i.n	a12, a1, 16
    29ef:	069cb2        	l16si	a11, a12, 12
    29f2:	d1bba0        	mul16s	a11, a11, a10
    29f5:	199ca2        	l16si	a10, a12, 50
    29f8:	90bb50        	addx2	a11, a11, a5
    29fb:	31b0b0        	srai	a11, a11, 16
    29fe:	aaba           	add.n	a10, a10, a11
    2a00:	fe41e5        	call8	e20 <_saturate16>
    2a03:	41c8           	l32i.n	a12, a1, 16
    2a05:	195ca2        	s16i	a10, a12, 50

00002a08 <fn_win_detection+0xf4>:
    2a08:	41a8           	l32i.n	a10, a1, 16
    2a0a:	189ab2        	l16si	a11, a10, 48
    2a0d:	2aad           	ae_l16si.n	a10, a10, 0
    2a0f:	aaba           	add.n	a10, a10, a11
    2a11:	fe40e5        	call8	e20 <_saturate16>
    2a14:	41b8           	l32i.n	a11, a1, 16
    2a16:	199bb2        	l16si	a11, a11, 50
    2a19:	0eaab7        	bge	a10, a11, 2a2b <fn_win_detection+0x117>
    2a1c:	41d8           	l32i.n	a13, a1, 16
    2a1e:	1c0c           	movi.n	a12, 1
    2a20:	0e0c           	movi.n	a14, 0
    2a22:	1b5de2        	s16i	a14, a13, 54
    2a25:	1a5dc2        	s16i	a12, a13, 52
    2a28:	000506        	j	2a40 <fn_win_detection+0x12c>

00002a2b <fn_win_detection+0x117>:
    2a2b:	41a8           	l32i.n	a10, a1, 16
    2a2d:	1a9af2        	l16si	a15, a10, 52
    2a30:	1b9aa2        	l16si	a10, a10, 54
    2a33:	ffcff2        	addi	a15, a15, -1
    2a36:	2d3f16        	beqz	a15, 2d0d <fn_win_detection+0x3f9>

00002a39 <fn_win_detection+0x125>:
    2a39:	41c8           	l32i.n	a12, a1, 16
    2a3b:	ba1b           	addi.n	a11, a10, 1
    2a3d:	1b5cb2        	s16i	a11, a12, 54

00002a40 <fn_win_detection+0x12c>:
    2a40:	4178           	l32i.n	a7, a1, 16
    2a42:	31a8           	l32i.n	a10, a1, 12
    2a44:	076d           	mov.n	a6, a7
    2a46:	47c8           	l32i.n	a12, a7, 16
    2a48:	9788           	l32i.n	a8, a7, 36
    2a4a:	77b8           	l32i.n	a11, a7, 28
    2a4c:	38c752        	addi	a5, a7, 56
    2a4f:	1a9792        	l16si	a9, a7, 52
    2a52:	02d722        	addmi	a2, a7, 0x200
    2a55:	6a9d           	ae_s16i.n	a9, a10, 0
    2a57:	0a0c           	movi.n	a10, 0
    2a59:	5ca274        	ae_lp24x2f.iu	aep2, a2, 56
    2a5c:	509504        	ae_lp24f.iu	aep1, a5, 0
    2a5f:	21b8b0        	srai	a11, a11, 8
    2a62:	218e80        	srai	a8, a8, 14
    2a65:	21c8c0        	srai	a12, a12, 8
    2a68:	398cc4        	ae_movpa24x2	aep0, a12, a12
    2a6b:	04d882        	addmi	a8, a8, 0x400
    2a6e:	5189           	s32i.n	a8, a1, 20
    2a70:	560144        	ae_sp24x2s.i	aep0, a1, 32
    2a73:	0c0c           	movi.n	a12, 0
    2a75:	01c9           	s32i.n	a12, a1, 0
    2a77:	39fbc4        	ae_movpa24x2	aep7, a11, a12
    2a7a:	567134        	ae_sp24x2s.i	aep7, a1, 24
    2a7d:	04bd           	mov.n	a11, a4
    2a7f:	5cbb04        	ae_lp24x2f.iu	aep3, a11, 0
    2a82:	03cd           	mov.n	a12, a3
    2a84:	03d742        	addmi	a4, a7, 0x300
    2a87:	3cc442        	addi	a4, a4, 60
    2a8a:	5ccc04        	ae_lp24x2f.iu	aep4, a12, 0
    2a8d:	01d732        	addmi	a3, a7, 0x100
    2a90:	074c           	movi.n	a7, 64
    2a92:	38c332        	addi	a3, a3, 56
    2a95:	508304        	ae_lp24f.iu	aep0, a3, 0

00002a98 <fn_win_detection+0x184>:
    2a98:	545134        	ae_lp24x2.i	aep5, a1, 24
    2a9b:	07b574        	ae_addsp24s	aep7, aep3, aep5
    2a9e:	07c564        	ae_addsp24s	aep6, aep4, aep5
    2aa1:	04e604        	ae_mulzaafp24s.hh.ll	aeq2, aep6, aep6
    2aa4:	047704        	ae_mulzaafp24s.hh.ll	aeq0, aep7, aep7
    2aa7:	046f04        	ae_mulzaafp24s.hh.ll	aeq1, aep6, aep7
    2aaa:	f7f8fac20f 	{ ae_sllisq56s	aeq0, aeq0, 8; ae_mulzsafp24s.hl.lh	aeq3, aep6, aep7 }
    2aaf:	060844        	ae_satq48s	aeq0, aeq0
    2ab2:	fa67fae20f 	{ ae_sllisq56s	aeq0, aeq2, 8; ae_roundsp24q48asym	aep5, aeq0 }
    2ab7:	068844        	ae_satq48s	aeq2, aeq0
    2aba:	df16baf20f 	{ ae_sllisq56s	aeq0, aeq3, 8; ae_subsp24s	aep6, aep5, aep0 }
    2abf:	fd00fad2cf 	{ ae_sllisq56s	aeq3, aeq1, 8; ae_satq48s	aeq1, aeq0 }
    2ac4:	1bad74        	ae_roundsp24q48asym	aep7, aeq2
    2ac7:	07f1d4        	ae_subsp24s	aep5, aep7, aep1
    2aca:	fc84f0714f 	{ ae_lp24x2.i	aep7, a1, 32; ae_satq48s	aeq0, aeq3 }
    2acf:	01d744        	ae_mulfp24s.hh	aeq2, aep5, aep7
    2ad2:	01ef44        	ae_mulfp24s.hh	aeq3, aep6, aep7
    2ad5:	1b8d54        	ae_roundsp24q48asym	aep5, aeq0
    2ad8:	07d2e4        	ae_subsp24s	aep6, aep5, aep2
    2adb:	016744        	ae_mulfp24s.hh	aeq0, aep6, aep7
    2ade:	1b9d54        	ae_roundsp24q48asym	aep5, aeq1
    2ae1:	07d2e4        	ae_subsp24s	aep6, aep5, aep2
    2ae4:	016f64        	ae_mulfp24s.lh	aeq1, aep6, aep7
    2ae7:	1bbd54        	ae_roundsp24q48asym	aep5, aeq3
    2aea:	078504        	ae_addsp24s	aep0, aep0, aep5
    2aed:	1bad74        	ae_roundsp24q48asym	aep7, aeq2
    2af0:	1b9d64        	ae_roundsp24q48asym	aep6, aeq1
    2af3:	07a664        	ae_addsp24s	aep6, aep2, aep6
    2af6:	079754        	ae_addsp24s	aep5, aep1, aep7
    2af9:	01d874        	ae_mulfp24s.ll	aeq3, aep5, aep0
    2afc:	1b8d74        	ae_roundsp24q48asym	aep7, aeq0
    2aff:	07a774        	ae_addsp24s	aep7, aep2, aep7
    2b02:	dfdcc100ff 	{ movi	a15, 0x100; ae_selp24.hl	aep7, aep7, aep6 }
    2b07:	fe3c76f20f 	{ ae_sp24x2f.iu	aep7, a2, 0; ae_roundsq32asym	aeq2, aeq3 }
    2b0c:	36ad04        	ae_trunca32q48	a13, aeq2
    2b0f:	52d504        	ae_sp24f.l.iu	aep5, a5, 0
    2b12:	f1fef4830f 	{ ae_sp24f.l.iu	aep0, a3, 0; ae_mulzaafp24s.hh.ll	aeq3, aep7, aep7 }
    2b17:	4aafd7        	bge	a15, a13, 2b65 <fn_win_detection+0x251>
    2b1a:	3dcc           	bnez.n	a13, 2b21 <fn_win_detection+0x20d>
    2b1c:	0e0c           	movi.n	a14, 0
    2b1e:	000dc6        	j	2b59 <fn_win_detection+0x245>

00002b21 <fn_win_detection+0x20d>:
    2b21:	067934        	ae_roundsq32asym	aeq1, aeq3
    2b24:	369e04        	ae_trunca32q48	a14, aeq1
    2b27:	364d34        	ae_cvtq48a32s	aeq1, a13
    2b2a:	36ce34        	ae_cvtq48a32s	aeq3, a14
    2b2d:	052ed7        	blt	a14, a13, 2b36 <fn_win_detection+0x222>
    2b30:	f549e1        	l32r	a14, 54 (7fff <xtensa_fft8_32b+0xef>)
    2b33:	000886        	j	2b59 <fn_win_detection+0x245>

00002b36 <fn_win_detection+0x222>:
    2b36:	40ed80        	nsa	a8, a13
    2b39:	888d           	ae_sext16	a8, a8
    2b3b:	fc24feb88f 	{ ae_slaasq56s	aeq2, aeq3, a8; nop }
    2b40:	fc80cf188e 	{ addi	a8, a8, -15; ae_satq48s	aeq0, aeq2 }
    2b45:	fc24fe98cf 	{ ae_slaasq56s	aeq3, aeq1, a8; nop }
    2b4a:	fe84ff0eef 	{ ae_trunca32q48	a14, aeq0; ae_satq48s	aeq2, aeq3 }
    2b4f:	36af04        	ae_trunca32q48	a15, aeq2
    2b52:	f03d           	nop.n
    2b54:	d2eef0        	quos	a14, a14, a15
    2b57:	aeed           	ae_clamps16	a14, a14
    2b59:	11a9           	s32i.n	a10, a1, 4
    2b5b:	b1b9           	s32i.n	a11, a1, 44
    2b5d:	a1c9           	s32i.n	a12, a1, 40
    2b5f:	7e54e2        	s16i	a14, a4, 252
    2b62:	000286        	j	2b70 <fn_win_detection+0x25c>

00002b65 <fn_win_detection+0x251>:
    2b65:	a1c9           	s32i.n	a12, a1, 40
    2b67:	b1b9           	s32i.n	a11, a1, 44
    2b69:	11a9           	s32i.n	a10, a1, 4
    2b6b:	51e8           	l32i.n	a14, a1, 20
    2b6d:	7e54e2        	s16i	a14, a4, 252

00002b70 <fn_win_detection+0x25c>:
    2b70:	01c8           	l32i.n	a12, a1, 0
    2b72:	11ae00        	slli	a10, a14, 16
    2b75:	00afb2        	movi	a11, 0xffffff00
    2b78:	21a8a0        	srai	a10, a10, 8
    2b7b:	10aab0        	and	a10, a10, a11
    2b7e:	acaa           	add.n	a10, a12, a10
    2b80:	62bac0        	saltu	a11, a10, a12
    2b83:	31cfc0        	srai	a12, a12, 31
    2b86:	bbca           	add.n	a11, a11, a12
    2b88:	fe2ee5        	call8	e78 <_saturate24>
    2b8b:	11c8           	l32i.n	a12, a1, 4
    2b8d:	e6b8           	l32i.n	a11, a6, 56
    2b8f:	01a9           	s32i.n	a10, a1, 0
    2b91:	31efc0        	srai	a14, a12, 31
    2b94:	31dfb0        	srai	a13, a11, 31
    2b97:	cbca           	add.n	a12, a11, a12
    2b99:	0cad           	mov.n	a10, a12
    2b9b:	ddea           	add.n	a13, a13, a14
    2b9d:	62bcb0        	saltu	a11, a12, a11
    2ba0:	bbda           	add.n	a11, a11, a13
    2ba2:	fe2d65        	call8	e78 <_saturate24>
    2ba5:	664b           	addi.n	a6, a6, 4
    2ba7:	442b           	addi.n	a4, a4, 2
    2ba9:	5ca214        	ae_lp24x2f.iu	aep2, a2, 8
    2bac:	509514        	ae_lp24f.iu	aep1, a5, 4
    2baf:	508314        	ae_lp24f.iu	aep0, a3, 4
    2bb2:	a1c8           	l32i.n	a12, a1, 40
    2bb4:	b1b8           	l32i.n	a11, a1, 44
    2bb6:	770b           	addi.n	a7, a7, -1
    2bb8:	5ccc14        	ae_lp24x2f.iu	aep4, a12, 8
    2bbb:	5cbb14        	ae_lp24x2f.iu	aep3, a11, 8
    2bbe:	ed6756        	bnez	a7, 2a98 <fn_win_detection+0x184>
    2bc1:	00aff2        	movi	a15, 0xffffff00
    2bc4:	21e6a0        	srai	a14, a10, 6
    2bc7:	10eef0        	and	a14, a14, a15
    2bca:	41f8           	l32i.n	a15, a1, 16
    2bcc:	aff8           	l32i.n	a15, a15, 40
    2bce:	050c           	movi.n	a5, 0
    2bd0:	f54b41        	l32r	a4, fc (800000 <_end+0x7f2874>)
    2bd3:	02aef7        	bge	a14, a15, 2bd9 <fn_win_detection+0x2c5>
    2bd6:	002046        	j	2c5b <fn_win_detection+0x347>
    2bd9:	4138           	l32i.n	a3, a1, 16
    2bdb:	03d332        	addmi	a3, a3, 0x300
    2bde:	6e23c2        	l32i	a12, a3, 0x1b8
    2be1:	309182        	l16si	a8, a1, 96
    2be4:	c0c332        	addi	a3, a3, -64
    2be7:	0cad           	mov.n	a10, a12
    2be9:	791866        	bnei	a8, 1, 2c66 <fn_win_detection+0x352>
    2bec:	0188           	l32i.n	a8, a1, 0
    2bee:	31dfc0        	srai	a13, a12, 31
    2bf1:	f03d           	nop.n
    2bf3:	31bf80        	srai	a11, a8, 31
    2bf6:	c0a8c0        	sub	a10, a8, a12
    2bf9:	c0bbd0        	sub	a11, a11, a13
    2bfc:	62d8a0        	saltu	a13, a8, a10
    2bff:	c0bbd0        	sub	a11, a11, a13
    2c02:	022c87        	blt	a12, a8, 2c08 <fn_win_detection+0x2f4>
    2c05:	0046c6        	j	2d24 <fn_win_detection+0x410>
    2c08:	fe26e5        	call8	e78 <_saturate24>
    2c0b:	41c8           	l32i.n	a12, a1, 16
    2c0d:	5cc8           	l32i.n	a12, a12, 20
    2c0f:	404f10        	ssai	31
    2c12:	21d8a0        	srai	a13, a10, 8
    2c15:	21c8c0        	srai	a12, a12, 8
    2c18:	82acd0        	mull	a10, a12, a13
    2c1b:	b2ccd0        	mulsh	a12, a12, a13
    2c1e:	11baf0        	slli	a11, a10, 1
    2c21:	81cca0        	src	a12, a12, a10
    2c24:	cc5a           	add.n	a12, a12, a5
    2c26:	90aa40        	addx2	a10, a10, a4
    2c29:	62bab0        	saltu	a11, a10, a11
    2c2c:	404810        	ssai	24
    2c2f:	bbca           	add.n	a11, a11, a12
    2c31:	81aba0        	src	a10, a11, a10
    2c34:	31b8b0        	srai	a11, a11, 24
    2c37:	81bba0        	src	a11, a11, a10
    2c3a:	11aa80        	slli	a10, a10, 8
    2c3d:	fe23a5        	call8	e78 <_saturate24>
    2c40:	7e23b2        	l32i	a11, a3, 0x1f8
    2c43:	31dfa0        	srai	a13, a10, 31
    2c46:	31cfb0        	srai	a12, a11, 31
    2c49:	ccda           	add.n	a12, a12, a13
    2c4b:	abaa           	add.n	a10, a11, a10
    2c4d:	62bab0        	saltu	a11, a10, a11
    2c50:	bbca           	add.n	a11, a11, a12
    2c52:	fe2265        	call8	e78 <_saturate24>
    2c55:	7e63a2        	s32i	a10, a3, 0x1f8
    2c58:	000286        	j	2c66 <fn_win_detection+0x352>

00002c5b <fn_win_detection+0x347>:
    2c5b:	41a8           	l32i.n	a10, a1, 16
    2c5d:	03daa2        	addmi	a10, a10, 0x300
    2c60:	c0ca32        	addi	a3, a10, -64
    2c63:	6e2aa2        	l32i	a10, a10, 0x1b8

00002c66 <fn_win_detection+0x352>:
    2c66:	41b8           	l32i.n	a11, a1, 16
    2c68:	8bb8           	l32i.n	a11, a11, 32
    2c6a:	08aab7        	bge	a10, a11, 2c76 <fn_win_detection+0x362>
    2c6d:	21d8           	l32i.n	a13, a1, 8
    2c6f:	2c0c           	movi.n	a12, 2
    2c71:	6dcd           	ae_s16i.n	a12, a13, 0
    2c73:	000286        	j	2c81 <fn_win_detection+0x36d>

00002c76 <fn_win_detection+0x362>:
    2c76:	41e8           	l32i.n	a14, a1, 16
    2c78:	9ee8           	l32i.n	a14, a14, 36
    2c7a:	21f8           	l32i.n	a15, a1, 8
    2c7c:	72eae0        	salt	a14, a10, a14
    2c7f:	6fed           	ae_s16i.n	a14, a15, 0

00002c81 <fn_win_detection+0x36d>:
    2c81:	01b8           	l32i.n	a11, a1, 0
    2c83:	7f23a2        	l32i	a10, a3, 0x1fc
    2c86:	1f2ab7        	blt	a10, a11, 2ca9 <fn_win_detection+0x395>
    2c89:	7f63b2        	s32i	a11, a3, 0x1fc
    2c8c:	0bad           	mov.n	a10, a11

00002c8e <fn_win_detection+0x37a>:
    2c8e:	41f8           	l32i.n	a15, a1, 16
    2c90:	bff8           	l32i.n	a15, a15, 44
    2c92:	062fa7        	blt	a15, a10, 2c9c <fn_win_detection+0x388>
    2c95:	802382        	l32i	a8, a3, 0x200
    2c98:	08b9           	s32i.n	a11, a8, 0
    2c9a:	f01d           	retw.n

00002c9c <fn_win_detection+0x388>:
    2c9c:	31c8           	l32i.n	a12, a1, 12
    2c9e:	802392        	l32i	a9, a3, 0x200
    2ca1:	0a0c           	movi.n	a10, 0
    2ca3:	6cad           	ae_s16i.n	a10, a12, 0
    2ca5:	09b9           	s32i.n	a11, a9, 0
    2ca7:	f01d           	retw.n

00002ca9 <fn_win_detection+0x395>:
    2ca9:	31dfa0        	srai	a13, a10, 31
    2cac:	c0aba0        	sub	a10, a11, a10
    2caf:	62cba0        	saltu	a12, a11, a10
    2cb2:	31bfb0        	srai	a11, a11, 31
    2cb5:	c0bbd0        	sub	a11, a11, a13
    2cb8:	c0bbc0        	sub	a11, a11, a12
    2cbb:	fe1be5        	call8	e78 <_saturate24>
    2cbe:	f514d1        	l32r	a13, 110 (19999a <_end+0x18c20e>)
    2cc1:	404f10        	ssai	31
    2cc4:	21c8a0        	srai	a12, a10, 8
    2cc7:	82bcd0        	mull	a11, a12, a13
    2cca:	b2ccd0        	mulsh	a12, a12, a13
    2ccd:	90ab40        	addx2	a10, a11, a4
    2cd0:	81ccb0        	src	a12, a12, a11
    2cd3:	cc5a           	add.n	a12, a12, a5
    2cd5:	11bbf0        	slli	a11, a11, 1
    2cd8:	62bab0        	saltu	a11, a10, a11
    2cdb:	404810        	ssai	24
    2cde:	80bbc0        	add	a11, a11, a12
    2ce1:	81aba0        	src	a10, a11, a10
    2ce4:	31b8b0        	srai	a11, a11, 24
    2ce7:	81bba0        	src	a11, a11, a10
    2cea:	11aa80        	slli	a10, a10, 8
    2ced:	fe18a5        	call8	e78 <_saturate24>
    2cf0:	7f23b2        	l32i	a11, a3, 0x1fc
    2cf3:	31dfa0        	srai	a13, a10, 31
    2cf6:	31cfb0        	srai	a12, a11, 31
    2cf9:	ccda           	add.n	a12, a12, a13
    2cfb:	abaa           	add.n	a10, a11, a10
    2cfd:	62bab0        	saltu	a11, a10, a11
    2d00:	bbca           	add.n	a11, a11, a12
    2d02:	fe1765        	call8	e78 <_saturate24>
    2d05:	7f63a2        	s32i	a10, a3, 0x1fc
    2d08:	01b8           	l32i.n	a11, a1, 0
    2d0a:	ffe006        	j	2c8e <fn_win_detection+0x37a>

00002d0d <fn_win_detection+0x3f9>:
    2d0d:	41e8           	l32i.n	a14, a1, 16
    2d0f:	3eed           	ae_l16si.n	a14, a14, 2
    2d11:	022ea7        	blt	a14, a10, 2d17 <fn_win_detection+0x403>
    2d14:	ff4846        	j	2a39 <fn_win_detection+0x125>
    2d17:	4188           	l32i.n	a8, a1, 16
    2d19:	0f0c           	movi.n	a15, 0
    2d1b:	1a58f2        	s16i	a15, a8, 52
    2d1e:	1b58f2        	s16i	a15, a8, 54
    2d21:	ff46c6        	j	2a40 <fn_win_detection+0x12c>

00002d24 <fn_win_detection+0x410>:
    2d24:	fe1525        	call8	e78 <_saturate24>
    2d27:	41c8           	l32i.n	a12, a1, 16
    2d29:	6cc8           	l32i.n	a12, a12, 24
    2d2b:	404f10        	ssai	31
    2d2e:	21d8a0        	srai	a13, a10, 8
    2d31:	21c8c0        	srai	a12, a12, 8
    2d34:	82acd0        	mull	a10, a12, a13
    2d37:	b2ccd0        	mulsh	a12, a12, a13
    2d3a:	11baf0        	slli	a11, a10, 1
    2d3d:	81cca0        	src	a12, a12, a10
    2d40:	cc5a           	add.n	a12, a12, a5
    2d42:	90aa40        	addx2	a10, a10, a4
    2d45:	62bab0        	saltu	a11, a10, a11
    2d48:	404810        	ssai	24
    2d4b:	bbca           	add.n	a11, a11, a12
    2d4d:	81aba0        	src	a10, a11, a10
    2d50:	31b8b0        	srai	a11, a11, 24
    2d53:	81bba0        	src	a11, a11, a10
    2d56:	11aa80        	slli	a10, a10, 8
    2d59:	fe11e5        	call8	e78 <_saturate24>
    2d5c:	7e23b2        	l32i	a11, a3, 0x1f8
    2d5f:	31dfa0        	srai	a13, a10, 31
    2d62:	31cfb0        	srai	a12, a11, 31
    2d65:	ccda           	add.n	a12, a12, a13
    2d67:	abaa           	add.n	a10, a11, a10
    2d69:	62bab0        	saltu	a11, a10, a11
    2d6c:	bbca           	add.n	a11, a11, a12
    2d6e:	fe10a5        	call8	e78 <_saturate24>
    2d71:	7e63a2        	s32i	a10, a3, 0x1f8
    2d74:	ffbb86        	j	2c66 <fn_win_detection+0x352>

00002d77 <fn_win_detection+0x463>:
	...

00002d78 <fn_calc_pow>:
    2d78:	004136        	entry	a1, 32
    2d7b:	fcc362        	addi	a6, a3, -4
    2d7e:	5c8204        	ae_lp24x2f.iu	aep0, a2, 0
    2d81:	c04540        	sub	a4, a5, a4
    2d84:	023d           	mov.n	a3, a2
    2d86:	202660        	or	a2, a6, a6
    2d89:	11a476        	loopgtz	a4, 2d9e <fn_calc_pow+0x26>
    2d8c:	040004        	ae_mulzaafp24s.hh.ll	aeq0, aep0, aep0
    2d8f:	360114        	ae_sllisq56s	aeq0, aeq0, 4
    2d92:	060844        	ae_satq48s	aeq0, aeq0
    2d95:	060934        	ae_roundsq32asym	aeq0, aeq0
    2d98:	624214        	ae_sq32f.iu	aeq0, a2, 4
    2d9b:	5c8314        	ae_lp24x2f.iu	aep0, a3, 8

00002d9e <fn_calc_pow+0x26>:
    2d9e:	f01d           	retw.n

00002da0 <fn_low_bin_noise_est>:
    2da0:	014136        	entry	a1, 160
    2da3:	f4aca1        	l32r	a10, 54 (7fff <xtensa_fft8_32b+0xef>)
    2da6:	f4bd71        	l32r	a7, 9c (7fffff00 <_end+0x7fff2774>)
    2da9:	fb7c           	movi.n	a11, -1
    2dab:	f149           	s32i.n	a4, a1, 60
    2dad:	e139           	s32i.n	a3, a1, 56
    2daf:	05cd           	mov.n	a12, a5
    2db1:	02fd           	mov.n	a15, a2
    2db3:	f4d251        	l32r	a5, fc (800000 <_end+0x7f2874>)
    2db6:	b1c9           	s32i.n	a12, a1, 44
    2db8:	020c           	movi.n	a2, 0
    2dba:	04dfd2        	addmi	a13, a15, 0x400
    2dbd:	c1d9           	s32i.n	a13, a1, 48
    2dbf:	80cd62        	addi	a6, a13, -128
    2dc2:	272d32        	l32i	a3, a13, 156
    2dc5:	439d82        	l16si	a8, a13, 134
    2dc8:	3d9dd2        	l16si	a13, a13, 122
    2dcb:	024d           	mov.n	a4, a2
    2dcd:	048580        	extui	a8, a8, 5, 1
    2dd0:	b0ed30        	addx8	a14, a13, a3
    2dd3:	16b816        	beqz	a8, 2f42 <fn_low_bin_noise_est+0x1a2>
    2dd6:	61e9           	s32i.n	a14, a1, 24
    2dd8:	d139           	s32i.n	a3, a1, 52
    2dda:	021de6        	bgei	a13, 1, 2de0 <fn_low_bin_noise_est+0x40>
    2ddd:	006546        	j	2f76 <fn_low_bin_noise_est+0x1d6>
    2de0:	20e220        	or	a14, a2, a2
    2de3:	03dff2        	addmi	a15, a15, 0x300
    2de6:	fccff2        	addi	a15, a15, -4
    2de9:	d18076        	loop	a0, 2ebe <fn_low_bin_noise_est+0x11e>
    2dec:	7e9f92        	l16si	a9, a15, 252
    2def:	0cd8           	l32i.n	a13, a12, 0
    2df1:	404b10        	ssai	27
    2df4:	119900        	slli	a9, a9, 16
    2df7:	21d8d0        	srai	a13, a13, 8
    2dfa:	219890        	srai	a9, a9, 8
    2dfd:	828d90        	mull	a8, a13, a9
    2e00:	b2dd90        	mulsh	a13, a13, a9
    2e03:	166192        	s32i	a9, a1, 88
    2e06:	81dd80        	src	a13, a13, a8
    2e09:	1188b0        	slli	a8, a8, 5
    2e0c:	1a6182        	s32i	a8, a1, 104
    2e0f:	0a2da7        	blt	a13, a10, 2e1d <fn_low_bin_noise_est+0x7d>
    2e12:	029da7        	bne	a13, a10, 2e18 <fn_low_bin_noise_est+0x78>
    2e15:	0438b7        	bltu	a8, a11, 2e1d <fn_low_bin_noise_est+0x7d>

00002e18 <fn_low_bin_noise_est+0x78>:
    2e18:	0add           	mov.n	a13, a10
    2e1a:	1a61b2        	s32i	a11, a1, 104

00002e1d <fn_low_bin_noise_est+0x7d>:
    2e1d:	1a2182        	l32i	a8, a1, 104
    2e20:	404810        	ssai	24
    2e23:	dd4a           	add.n	a13, a13, a4
    2e25:	985a           	add.n	a9, a8, a5
    2e27:	628980        	saltu	a8, a9, a8
    2e2a:	88da           	add.n	a8, a8, a13
    2e2c:	819890        	src	a9, a8, a9
    2e2f:	0d0c           	movi.n	a13, 0
    2e31:	318880        	srai	a8, a8, 24
    2e34:	818890        	src	a8, a8, a9
    2e37:	176182        	s32i	a8, a1, 92
    2e3a:	119980        	slli	a9, a9, 8
    2e3d:	146192        	s32i	a9, a1, 80
    2e40:	042827        	blt	a8, a2, 2e48 <fn_low_bin_noise_est+0xa8>
    2e43:	7a1827        	beq	a8, a2, 2ec1 <fn_low_bin_noise_est+0x121>

00002e46 <fn_low_bin_noise_est+0xa6>:
    2e46:	1d0c           	movi.n	a13, 1

00002e48 <fn_low_bin_noise_est+0xa8>:
    2e48:	07bd16        	beqz	a13, 2ec7 <fn_low_bin_noise_est+0x127>
    2e4b:	f494d1        	l32r	a13, 9c (7fffff00 <_end+0x7fff2774>)

00002e4e <fn_low_bin_noise_est+0xae>:
    2e4e:	03d9           	s32i.n	a13, a3, 0
    2e50:	1cd8           	l32i.n	a13, a12, 4
    2e52:	162192        	l32i	a9, a1, 88
    2e55:	21d8d0        	srai	a13, a13, 8
    2e58:	828d90        	mull	a8, a13, a9
    2e5b:	b2dd90        	mulsh	a13, a13, a9
    2e5e:	404b10        	ssai	27
    2e61:	81dd80        	src	a13, a13, a8
    2e64:	1188b0        	slli	a8, a8, 5
    2e67:	1b6182        	s32i	a8, a1, 108
    2e6a:	0a2da7        	blt	a13, a10, 2e78 <fn_low_bin_noise_est+0xd8>
    2e6d:	029da7        	bne	a13, a10, 2e73 <fn_low_bin_noise_est+0xd3>
    2e70:	002246        	j	2efd <fn_low_bin_noise_est+0x15d>

00002e73 <fn_low_bin_noise_est+0xd3>:
    2e73:	0add           	mov.n	a13, a10
    2e75:	1b61b2        	s32i	a11, a1, 108

00002e78 <fn_low_bin_noise_est+0xd8>:
    2e78:	1b2192        	l32i	a9, a1, 108
    2e7b:	404810        	ssai	24
    2e7e:	dd4a           	add.n	a13, a13, a4
    2e80:	895a           	add.n	a8, a9, a5
    2e82:	629890        	saltu	a9, a8, a9
    2e85:	99da           	add.n	a9, a9, a13
    2e87:	818980        	src	a8, a9, a8
    2e8a:	0d0c           	movi.n	a13, 0
    2e8c:	319890        	srai	a9, a9, 24
    2e8f:	819980        	src	a9, a9, a8
    2e92:	186192        	s32i	a9, a1, 96
    2e95:	118880        	slli	a8, a8, 8
    2e98:	156182        	s32i	a8, a1, 84
    2e9b:	042927        	blt	a9, a2, 2ea3 <fn_low_bin_noise_est+0x103>
    2e9e:	641927        	beq	a9, a2, 2f06 <fn_low_bin_noise_est+0x166>

00002ea1 <fn_low_bin_noise_est+0x101>:
    2ea1:	1d0c           	movi.n	a13, 1

00002ea3 <fn_low_bin_noise_est+0x103>:
    2ea3:	ff2b           	addi.n	a15, a15, 2
    2ea5:	cc8b           	addi.n	a12, a12, 8
    2ea7:	061d16        	beqz	a13, 2f0c <fn_low_bin_noise_est+0x16c>
    2eaa:	f47cd1        	l32r	a13, 9c (7fffff00 <_end+0x7fff2774>)

00002ead <fn_low_bin_noise_est+0x10d>:
    2ead:	13d9           	s32i.n	a13, a3, 4
    2eaf:	7d96d2        	l16si	a13, a6, 250
    2eb2:	ee1b           	addi.n	a14, a14, 1
    2eb4:	338b           	addi.n	a3, a3, 8
    2eb6:	022ed7        	blt	a14, a13, 2ebc <fn_low_bin_noise_est+0x11c>
    2eb9:	002dc6        	j	2f74 <fn_low_bin_noise_est+0x1d4>
    2ebc:	f03d           	nop.n

00002ebe <fn_low_bin_noise_est+0x11e>:
    2ebe:	ffc9c6        	j	2de9 <fn_low_bin_noise_est+0x49>

00002ec1 <fn_low_bin_noise_est+0x121>:
    2ec1:	83b797        	bgeu	a7, a9, 2e48 <fn_low_bin_noise_est+0xa8>
    2ec4:	ffdf86        	j	2e46 <fn_low_bin_noise_est+0xa6>

00002ec7 <fn_low_bin_noise_est+0x127>:
    2ec7:	142182        	l32i	a8, a1, 80
    2eca:	f45791        	l32r	a9, 28 (7fffffff <_end+0x7fff2873>)
    2ecd:	1199           	s32i.n	a9, a1, 4
    2ecf:	0189           	s32i.n	a8, a1, 0
    2ed1:	172182        	l32i	a8, a1, 92
    2ed4:	090c           	movi.n	a9, 0
    2ed6:	8199           	s32i.n	a9, a1, 32
    2ed8:	00d8d6        	bgez	a8, 2ee9 <fn_low_bin_noise_est+0x149>
    2edb:	060866        	bnei	a8, -1, 2ee5 <fn_low_bin_noise_est+0x145>
    2ede:	01d8           	l32i.n	a13, a1, 0
    2ee0:	1198           	l32i.n	a9, a1, 4
    2ee2:	0339d7        	bltu	a9, a13, 2ee9 <fn_low_bin_noise_est+0x149>

00002ee5 <fn_low_bin_noise_est+0x145>:
    2ee5:	180c           	movi.n	a8, 1
    2ee7:	8189           	s32i.n	a8, a1, 32

00002ee9 <fn_low_bin_noise_est+0x149>:
    2ee9:	8188           	l32i.n	a8, a1, 32
    2eeb:	1d6122        	s32i	a2, a1, 116
    2eee:	f450d1        	l32r	a13, 30 (80000000 <_end+0x7fff2874>)
    2ef1:	142122        	l32i	a2, a1, 80
    2ef4:	83d280        	moveqz	a13, a2, a8
    2ef7:	1d2122        	l32i	a2, a1, 116
    2efa:	ffd406        	j	2e4e <fn_low_bin_noise_est+0xae>

00002efd <fn_low_bin_noise_est+0x15d>:
    2efd:	02b8b7        	bgeu	a8, a11, 2f03 <fn_low_bin_noise_est+0x163>
    2f00:	ffdd06        	j	2e78 <fn_low_bin_noise_est+0xd8>
    2f03:	ffdb06        	j	2e73 <fn_low_bin_noise_est+0xd3>

00002f06 <fn_low_bin_noise_est+0x166>:
    2f06:	99b787        	bgeu	a7, a8, 2ea3 <fn_low_bin_noise_est+0x103>
    2f09:	ffe506        	j	2ea1 <fn_low_bin_noise_est+0x101>

00002f0c <fn_low_bin_noise_est+0x16c>:
    2f0c:	080c           	movi.n	a8, 0
    2f0e:	f446d1        	l32r	a13, 28 (7fffffff <_end+0x7fff2873>)
    2f11:	152192        	l32i	a9, a1, 84
    2f14:	2199           	s32i.n	a9, a1, 8
    2f16:	182192        	l32i	a9, a1, 96
    2f19:	31d9           	s32i.n	a13, a1, 12
    2f1b:	9189           	s32i.n	a8, a1, 36
    2f1d:	00d9d6        	bgez	a9, 2f2e <fn_low_bin_noise_est+0x18e>
    2f20:	060966        	bnei	a9, -1, 2f2a <fn_low_bin_noise_est+0x18a>
    2f23:	21d8           	l32i.n	a13, a1, 8
    2f25:	3198           	l32i.n	a9, a1, 12
    2f27:	0339d7        	bltu	a9, a13, 2f2e <fn_low_bin_noise_est+0x18e>

00002f2a <fn_low_bin_noise_est+0x18a>:
    2f2a:	180c           	movi.n	a8, 1
    2f2c:	9189           	s32i.n	a8, a1, 36

00002f2e <fn_low_bin_noise_est+0x18e>:
    2f2e:	9188           	l32i.n	a8, a1, 36
    2f30:	1d6122        	s32i	a2, a1, 116
    2f33:	f43fd1        	l32r	a13, 30 (80000000 <_end+0x7fff2874>)
    2f36:	152122        	l32i	a2, a1, 84
    2f39:	83d280        	moveqz	a13, a2, a8
    2f3c:	1d2122        	l32i	a2, a1, 116
    2f3f:	ffda86        	j	2ead <fn_low_bin_noise_est+0x10d>

00002f42 <fn_low_bin_noise_est+0x1a2>:
    2f42:	c1c8           	l32i.n	a12, a1, 48
    2f44:	3e9cc2        	l16si	a12, a12, 124
    2f47:	61e9           	s32i.n	a14, a1, 24
    2f49:	71c9           	s32i.n	a12, a1, 28
    2f4b:	021ce6        	bgei	a12, 1, 2f51 <fn_low_bin_noise_est+0x1b1>
    2f4e:	005886        	j	30b4 <fn_low_bin_noise_est+0x314>
    2f51:	03fd           	mov.n	a15, a3
    2f53:	71d8           	l32i.n	a13, a1, 28
    2f55:	b1c8           	l32i.n	a12, a1, 44
    2f57:	20e220        	or	a14, a2, a2
    2f5a:	11ddf0        	slli	a13, a13, 1
    2f5d:	108076        	loop	a0, 2f71 <fn_low_bin_noise_est+0x1d1>
    2f60:	ee1b           	addi.n	a14, a14, 1
    2f62:	0c88           	l32i.n	a8, a12, 0
    2f64:	09ef84        	ae_s32ip	a8, a15, 4
    2f67:	cc4b           	addi.n	a12, a12, 4
    2f69:	022ed7        	blt	a14, a13, 2f6f <fn_low_bin_noise_est+0x1cf>
    2f6c:	0022c6        	j	2ffb <fn_low_bin_noise_est+0x25b>
    2f6f:	f03d           	nop.n

00002f71 <fn_low_bin_noise_est+0x1d1>:
    2f71:	fffa06        	j	2f5d <fn_low_bin_noise_est+0x1bd>

00002f74 <fn_low_bin_noise_est+0x1d4>:
    2f74:	d138           	l32i.n	a3, a1, 52

00002f76 <fn_low_bin_noise_est+0x1d6>:
    2f76:	f57c           	movi.n	a5, -1
    2f78:	61b8           	l32i.n	a11, a1, 24
    2f7a:	f46681        	l32r	a8, 114 (2d78 <fn_calc_pow>)
    2f7d:	0c0c           	movi.n	a12, 0
    2f7f:	03ad           	mov.n	a10, a3
    2f81:	0008e0        	callx8	a8
    2f84:	7d9692        	l16si	a9, a6, 250
    2f87:	6e19a6        	blti	a9, 1, 2ff9 <fn_low_bin_noise_est+0x259>
    2f8a:	e138           	l32i.n	a3, a1, 56
    2f8c:	61b8           	l32i.n	a11, a1, 24
    2f8e:	f148           	l32i.n	a4, a1, 60
    2f90:	0e0c           	movi.n	a14, 0
    2f92:	3c8076        	loop	a0, 2fd2 <fn_low_bin_noise_est+0x232>
    2f95:	0bd8           	l32i.n	a13, a11, 0
    2f97:	04f8           	l32i.n	a15, a4, 0
    2f99:	0a0c           	movi.n	a10, 0
    2f9b:	318fd0        	srai	a8, a13, 31
    2f9e:	31cff0        	srai	a12, a15, 31
    2fa1:	c0dfd0        	sub	a13, a15, a13
    2fa4:	62ffd0        	saltu	a15, a15, a13
    2fa7:	c0cc80        	sub	a12, a12, a8
    2faa:	c0ccf0        	sub	a12, a12, a15
    2fad:	042c27        	blt	a12, a2, 2fb5 <fn_low_bin_noise_est+0x215>
    2fb0:	211c27        	beq	a12, a2, 2fd5 <fn_low_bin_noise_est+0x235>

00002fb3 <fn_low_bin_noise_est+0x213>:
    2fb3:	1a0c           	movi.n	a10, 1

00002fb5 <fn_low_bin_noise_est+0x215>:
    2fb5:	2aac           	beqz.n	a10, 2fdb <fn_low_bin_noise_est+0x23b>
    2fb7:	f43991        	l32r	a9, 9c (7fffff00 <_end+0x7fff2774>)

00002fba <fn_low_bin_noise_est+0x21a>:
    2fba:	0399           	s32i.n	a9, a3, 0
    2fbc:	bb4b           	addi.n	a11, a11, 4
    2fbe:	7d9682        	l16si	a8, a6, 250
    2fc1:	444b           	addi.n	a4, a4, 4
    2fc3:	ee1b           	addi.n	a14, a14, 1
    2fc5:	0419e6        	bgei	a9, 1, 2fcd <fn_low_bin_noise_est+0x22d>
    2fc8:	00a1f2        	movi	a15, 0x100
    2fcb:	03f9           	s32i.n	a15, a3, 0

00002fcd <fn_low_bin_noise_est+0x22d>:
    2fcd:	334b           	addi.n	a3, a3, 4
    2fcf:	26ae87        	bge	a14, a8, 2ff9 <fn_low_bin_noise_est+0x259>

00002fd2 <fn_low_bin_noise_est+0x232>:
    2fd2:	ffef06        	j	2f92 <fn_low_bin_noise_est+0x1f2>

00002fd5 <fn_low_bin_noise_est+0x235>:
    2fd5:	dcb7d7        	bgeu	a7, a13, 2fb5 <fn_low_bin_noise_est+0x215>
    2fd8:	fff5c6        	j	2fb3 <fn_low_bin_noise_est+0x213>

00002fdb <fn_low_bin_noise_est+0x23b>:
    2fdb:	f41391        	l32r	a9, 28 (7fffffff <_end+0x7fff2873>)
    2fde:	0a0c           	movi.n	a10, 0
    2fe0:	0425c7        	blt	a5, a12, 2fe8 <fn_low_bin_noise_est+0x248>
    2fe3:	0a1c57        	beq	a12, a5, 2ff1 <fn_low_bin_noise_est+0x251>

00002fe6 <fn_low_bin_noise_est+0x246>:
    2fe6:	1a0c           	movi.n	a10, 1

00002fe8 <fn_low_bin_noise_est+0x248>:
    2fe8:	f41291        	l32r	a9, 30 (80000000 <_end+0x7fff2874>)
    2feb:	839da0        	moveqz	a9, a13, a10
    2fee:	fff206        	j	2fba <fn_low_bin_noise_est+0x21a>

00002ff1 <fn_low_bin_noise_est+0x251>:
    2ff1:	09cd           	mov.n	a12, a9
    2ff3:	f13cd7        	bltu	a12, a13, 2fe8 <fn_low_bin_noise_est+0x248>
    2ff6:	fffb06        	j	2fe6 <fn_low_bin_noise_est+0x246>

00002ff9 <fn_low_bin_noise_est+0x259>:
    2ff9:	f01d           	retw.n

00002ffb <fn_low_bin_noise_est+0x25b>:
    2ffb:	7d96d2        	l16si	a13, a6, 250
    2ffe:	f03d           	nop.n
    3000:	f03d           	nop.n
    3002:	11fdf0        	slli	a15, a13, 1
    3005:	022ef7        	blt	a14, a15, 300b <fn_low_bin_noise_est+0x26b>
    3008:	ffda86        	j	2f76 <fn_low_bin_noise_est+0x1d6>

0000300b <fn_low_bin_noise_est+0x26b>:
    300b:	b1c8           	l32i.n	a12, a1, 44
    300d:	d139           	s32i.n	a3, a1, 52
    300f:	a0fe30        	addx4	a15, a14, a3
    3012:	a0cec0        	addx4	a12, a14, a12
    3015:	5f8076        	loop	a0, 3078 <fn_low_bin_noise_est+0x2d8>
    3018:	7c9632        	l16si	a3, a6, 248
    301b:	0cd8           	l32i.n	a13, a12, 0
    301d:	404b10        	ssai	27
    3020:	113300        	slli	a3, a3, 16
    3023:	21d8d0        	srai	a13, a13, 8
    3026:	213830        	srai	a3, a3, 8
    3029:	82bd30        	mull	a11, a13, a3
    302c:	b2dd30        	mulsh	a13, a13, a3
    302f:	f37c           	movi.n	a3, -1
    3031:	81ddb0        	src	a13, a13, a11
    3034:	11bbb0        	slli	a11, a11, 5
    3037:	404810        	ssai	24
    303a:	062da7        	blt	a13, a10, 3044 <fn_low_bin_noise_est+0x2a4>
    303d:	3a1da7        	beq	a13, a10, 307b <fn_low_bin_noise_est+0x2db>

00003040 <fn_low_bin_noise_est+0x2a0>:
    3040:	03bd           	mov.n	a11, a3
    3042:	0add           	mov.n	a13, a10

00003044 <fn_low_bin_noise_est+0x2a4>:
    3044:	dd4a           	add.n	a13, a13, a4
    3046:	3b5a           	add.n	a3, a11, a5
    3048:	62b3b0        	saltu	a11, a3, a11
    304b:	bbda           	add.n	a11, a11, a13
    304d:	813b30        	src	a3, a11, a3
    3050:	0d0c           	movi.n	a13, 0
    3052:	31b8b0        	srai	a11, a11, 24
    3055:	81bb30        	src	a11, a11, a3
    3058:	113380        	slli	a3, a3, 8
    305b:	042b27        	blt	a11, a2, 3063 <fn_low_bin_noise_est+0x2c3>
    305e:	1f1b27        	beq	a11, a2, 3081 <fn_low_bin_noise_est+0x2e1>

00003061 <fn_low_bin_noise_est+0x2c1>:
    3061:	1d0c           	movi.n	a13, 1

00003063 <fn_low_bin_noise_est+0x2c3>:
    3063:	0dac           	beqz.n	a13, 3087 <fn_low_bin_noise_est+0x2e7>
    3065:	f40dd1        	l32r	a13, 9c (7fffff00 <_end+0x7fff2774>)

00003068 <fn_low_bin_noise_est+0x2c8>:
    3068:	09efd4        	ae_s32ip	a13, a15, 4
    306b:	7d96d2        	l16si	a13, a6, 250
    306e:	cc4b           	addi.n	a12, a12, 4
    3070:	ee1b           	addi.n	a14, a14, 1
    3072:	118df0        	slli	a8, a13, 1
    3075:	36ae87        	bge	a14, a8, 30af <fn_low_bin_noise_est+0x30f>

00003078 <fn_low_bin_noise_est+0x2d8>:
    3078:	ffe646        	j	3015 <fn_low_bin_noise_est+0x275>

0000307b <fn_low_bin_noise_est+0x2db>:
    307b:	c53b37        	bltu	a11, a3, 3044 <fn_low_bin_noise_est+0x2a4>
    307e:	ffef86        	j	3040 <fn_low_bin_noise_est+0x2a0>

00003081 <fn_low_bin_noise_est+0x2e1>:
    3081:	deb737        	bgeu	a7, a3, 3063 <fn_low_bin_noise_est+0x2c3>
    3084:	fff646        	j	3061 <fn_low_bin_noise_est+0x2c1>

00003087 <fn_low_bin_noise_est+0x2e7>:
    3087:	f3e8d1        	l32r	a13, 28 (7fffffff <_end+0x7fff2873>)
    308a:	f97c           	movi.n	a9, -1
    308c:	00a082        	movi	a8, 0
    308f:	1c6182        	s32i	a8, a1, 112
    3092:	007bd6        	bgez	a11, 309d <fn_low_bin_noise_est+0x2fd>
    3095:	100b26        	beqi	a11, -1, 30a9 <fn_low_bin_noise_est+0x309>

00003098 <fn_low_bin_noise_est+0x2f8>:
    3098:	1b0c           	movi.n	a11, 1
    309a:	1c61b2        	s32i	a11, a1, 112

0000309d <fn_low_bin_noise_est+0x2fd>:
    309d:	1c2182        	l32i	a8, a1, 112
    30a0:	f3e4d1        	l32r	a13, 30 (80000000 <_end+0x7fff2874>)
    30a3:	83d380        	moveqz	a13, a3, a8
    30a6:	ffef86        	j	3068 <fn_low_bin_noise_est+0x2c8>

000030a9 <fn_low_bin_noise_est+0x309>:
    30a9:	f03d37        	bltu	a13, a3, 309d <fn_low_bin_noise_est+0x2fd>
    30ac:	fffa06        	j	3098 <fn_low_bin_noise_est+0x2f8>

000030af <fn_low_bin_noise_est+0x30f>:
    30af:	d138           	l32i.n	a3, a1, 52
    30b1:	ffb046        	j	2f76 <fn_low_bin_noise_est+0x1d6>

000030b4 <fn_low_bin_noise_est+0x314>:
    30b4:	021de6        	bgei	a13, 1, 30ba <fn_low_bin_noise_est+0x31a>
    30b7:	ffaec6        	j	2f76 <fn_low_bin_noise_est+0x1d6>
    30ba:	02ed           	mov.n	a14, a2
    30bc:	ffd2c6        	j	300b <fn_low_bin_noise_est+0x26b>

000030bf <fn_low_bin_noise_est+0x31f>:
	...

000030c0 <fn_low_bin_compensate_phase>:
    30c0:	008136        	entry	a1, 64
    30c3:	045d           	mov.n	a5, a4
    30c5:	03d282        	addmi	a8, a2, 0x300
    30c8:	5c8304        	ae_lp24x2f.iu	aep0, a3, 0
    30cb:	560124        	ae_sp24x2s.i	aep0, a1, 16
    30ce:	7cc892        	addi	a9, a8, 124
    30d1:	bd9882        	l16si	a8, a8, 0x17a
    30d4:	2199           	s32i.n	a9, a1, 8
    30d6:	5c8504        	ae_lp24x2f.iu	aep0, a5, 0
    30d9:	0218e6        	bgei	a8, 1, 30df <fn_low_bin_compensate_phase+0x1f>
    30dc:	005086        	j	3222 <fn_low_bin_compensate_phase+0x162>
    30df:	00a062        	movi	a6, 0

000030e2 <fn_low_bin_compensate_phase+0x22>:
    30e2:	048004        	ae_mulzaafp24s.hh.ll	aeq2, aep0, aep0
    30e5:	f40681        	l32r	a8, 100 (cd0 <fxsqrt_ie>)
    30e8:	366054        	ae_sllisq56s	aeq1, aeq2, 1
    30eb:	060944        	ae_satq48s	aeq0, aeq1
    30ee:	1b8d14        	ae_roundsp24q48asym	aep1, aeq0
    30f1:	4e1104        	ae_sp24s.l.i	aep1, a1, 0
    30f4:	01a8           	l32i.n	a10, a1, 0
    30f6:	0008e0        	callx8	a8
    30f9:	f3cbf1        	l32r	a15, 28 (7fffffff <_end+0x7fff2873>)
    30fc:	04b8           	l32i.n	a11, a4, 0
    30fe:	01ead0        	slli	a14, a10, 19
    3101:	21cda0        	srai	a12, a10, 13
    3104:	0a0c           	movi.n	a10, 0
    3106:	003c96        	bltz	a12, 310d <fn_low_bin_compensate_phase+0x4d>
    3109:	1c9c           	beqz.n	a12, 311e <fn_low_bin_compensate_phase+0x5e>

0000310b <fn_low_bin_compensate_phase+0x4b>:
    310b:	1a0c           	movi.n	a10, 1

0000310d <fn_low_bin_compensate_phase+0x4d>:
    310d:	3a9c           	beqz.n	a10, 3124 <fn_low_bin_compensate_phase+0x64>
    310f:	f3c6a1        	l32r	a10, 28 (7fffffff <_end+0x7fff2873>)
    3112:	4b2ba7        	blt	a11, a10, 3161 <fn_low_bin_compensate_phase+0xa1>
    3115:	f3c4a1        	l32r	a10, 28 (7fffffff <_end+0x7fff2873>)

00003118 <fn_low_bin_compensate_phase+0x58>:
    3118:	f3cf21        	l32r	a2, 54 (7fff <xtensa_fft8_32b+0xef>)
    311b:	001b06        	j	318b <fn_low_bin_compensate_phase+0xcb>

0000311e <fn_low_bin_compensate_phase+0x5e>:
    311e:	ebbfe7        	bgeu	a15, a14, 310d <fn_low_bin_compensate_phase+0x4d>
    3121:	fff986        	j	310b <fn_low_bin_compensate_phase+0x4b>

00003124 <fn_low_bin_compensate_phase+0x64>:
    3124:	f3c1f1        	l32r	a15, 28 (7fffffff <_end+0x7fff2873>)
    3127:	00a0a2        	movi	a10, 0
    312a:	004cd6        	bgez	a12, 3132 <fn_low_bin_compensate_phase+0x72>
    312d:	0b0c26        	beqi	a12, -1, 313c <fn_low_bin_compensate_phase+0x7c>

00003130 <fn_low_bin_compensate_phase+0x70>:
    3130:	1a0c           	movi.n	a10, 1

00003132 <fn_low_bin_compensate_phase+0x72>:
    3132:	ca8c           	beqz.n	a10, 3142 <fn_low_bin_compensate_phase+0x82>
    3134:	631ba6        	blti	a11, 1, 319b <fn_low_bin_compensate_phase+0xdb>
    3137:	1a0c           	movi.n	a10, 1
    3139:	fff6c6        	j	3118 <fn_low_bin_compensate_phase+0x58>

0000313c <fn_low_bin_compensate_phase+0x7c>:
    313c:	f23fe7        	bltu	a15, a14, 3132 <fn_low_bin_compensate_phase+0x72>
    313f:	fffb46        	j	3130 <fn_low_bin_compensate_phase+0x70>

00003142 <fn_low_bin_compensate_phase+0x82>:
    3142:	1a0c           	movi.n	a10, 1
    3144:	53aae0        	max	a10, a10, a14
    3147:	4a8c           	beqz.n	a10, 314f <fn_low_bin_compensate_phase+0x8f>
    3149:	172ba7        	blt	a11, a10, 3164 <fn_low_bin_compensate_phase+0xa4>
    314c:	fff206        	j	3118 <fn_low_bin_compensate_phase+0x58>

0000314f <fn_low_bin_compensate_phase+0x8f>:
    314f:	14b8           	l32i.n	a11, a4, 4
    3151:	3a8c           	beqz.n	a10, 3158 <fn_low_bin_compensate_phase+0x98>
    3153:	020c           	movi.n	a2, 0
    3155:	000dc6        	j	3190 <fn_low_bin_compensate_phase+0xd0>

00003158 <fn_low_bin_compensate_phase+0x98>:
    3158:	020c           	movi.n	a2, 0

0000315a <fn_low_bin_compensate_phase+0x9a>:
    315a:	027d           	mov.n	a7, a2
    315c:	020c           	movi.n	a2, 0
    315e:	0019c6        	j	31c9 <fn_low_bin_compensate_phase+0x109>

00003161 <fn_low_bin_compensate_phase+0xa1>:
    3161:	f3b1a1        	l32r	a10, 28 (7fffffff <_end+0x7fff2873>)

00003164 <fn_low_bin_compensate_phase+0xa4>:
    3164:	368a34        	ae_cvtq48a32s	aeq2, a10
    3167:	360b34        	ae_cvtq48a32s	aeq0, a11
    316a:	40ea90        	nsa	a9, a10
    316d:	899d           	ae_sext16	a9, a9
    316f:	fc24fe89cf 	{ ae_slaasq56s	aeq3, aeq0, a9; nop }
    3174:	fd84cf199e 	{ addi	a9, a9, -15; ae_satq48s	aeq1, aeq3 }
    3179:	fc24fea90f 	{ ae_slaasq56s	aeq0, aeq2, a9; nop }
    317e:	ff00ff12ef 	{ ae_trunca32q48	a2, aeq1; ae_satq48s	aeq3, aeq0 }
    3183:	36b804        	ae_trunca32q48	a8, aeq3
    3186:	d22280        	quos	a2, a2, a8
    3189:	a22d           	ae_clamps16	a2, a2

0000318b <fn_low_bin_compensate_phase+0xcb>:
    318b:	14b8           	l32i.n	a11, a4, 4
    318d:	fc9a16        	beqz	a10, 315a <fn_low_bin_compensate_phase+0x9a>

00003190 <fn_low_bin_compensate_phase+0xd0>:
    3190:	027d           	mov.n	a7, a2
    3192:	0a2ba7        	blt	a11, a10, 31a0 <fn_low_bin_compensate_phase+0xe0>
    3195:	f3af21        	l32r	a2, 54 (7fff <xtensa_fft8_32b+0xef>)
    3198:	000b46        	j	31c9 <fn_low_bin_compensate_phase+0x109>

0000319b <fn_low_bin_compensate_phase+0xdb>:
    319b:	1a0c           	movi.n	a10, 1
    319d:	fff0c6        	j	3164 <fn_low_bin_compensate_phase+0xa4>

000031a0 <fn_low_bin_compensate_phase+0xe0>:
    31a0:	360a34        	ae_cvtq48a32s	aeq0, a10
    31a3:	368b34        	ae_cvtq48a32s	aeq2, a11
    31a6:	40ea90        	nsa	a9, a10
    31a9:	899d           	ae_sext16	a9, a9
    31ab:	fc24fea94f 	{ ae_slaasq56s	aeq1, aeq2, a9; nop }
    31b0:	ff04cf199e 	{ addi	a9, a9, -15; ae_satq48s	aeq3, aeq1 }
    31b5:	fc24fe898f 	{ ae_slaasq56s	aeq2, aeq0, a9; nop }
    31ba:	fd80ff32ef 	{ ae_trunca32q48	a2, aeq3; ae_satq48s	aeq1, aeq2 }
    31bf:	369804        	ae_trunca32q48	a8, aeq1
    31c2:	f03d           	nop.n
    31c4:	d22280        	quos	a2, a2, a8
    31c7:	a22d           	ae_clamps16	a2, a2
    31c9:	543124        	ae_lp24x2.i	aep3, a1, 16
    31cc:	043b04        	ae_mulzaafp24s.hh.ll	aeq1, aep3, aep3
    31cf:	f3cc81        	l32r	a8, 100 (cd0 <fxsqrt_ie>)
    31d2:	361054        	ae_sllisq56s	aeq0, aeq1, 1
    31d5:	06c844        	ae_satq48s	aeq3, aeq0
    31d8:	f97f80419e 	{ addi	a9, a1, 4; ae_roundsp24q48asym	aep2, aeq3 }
    31dd:	4e2904        	ae_sp24s.l.i	aep2, a9, 0
    31e0:	11a8           	l32i.n	a10, a1, 4
    31e2:	0008e0        	callx8	a8
    31e5:	301774        	ae_cvtp24a16x2.ll	aep1, a7, a7
    31e8:	307aa4        	ae_cvtp24a16x2.ll	aep7, a10, a10
    31eb:	eb3dd8822f 	{ ae_cvtp24a16x2.ll	aep0, a2, a2; ae_mulfp24s.ll	aeq3, aep7, aep1 }
    31f0:	01f074        	ae_mulfp24s.ll	aeq2, aep7, aep0
    31f3:	3670d4        	ae_sllisq56s	aeq1, aeq3, 3
    31f6:	fe04fae03f 	{ ae_sllisq56s	aeq0, aeq2, 3; ae_satq48s	aeq2, aeq1 }
    31fb:	06c844        	ae_satq48s	aeq3, aeq0
    31fe:	fb7f80844e 	{ addi	a4, a4, 8; ae_roundsp24q48asym	aep6, aeq3 }
    3203:	fa77c0166e 	{ addi	a6, a6, 1; ae_roundsp24q48asym	aep5, aeq2 }
    3208:	ded57021ae 	{ l32i	a10, a1, 8; ae_selp24.hh	aep5, aep5, aep6 }
    320d:	5ed304        	ae_sp24x2f.iu	aep5, a3, 0
    3210:	5c8514        	ae_lp24x2f.iu	aep0, a5, 8
    3213:	7f9aa2        	l16si	a10, a10, 254
    3216:	5cc314        	ae_lp24x2f.iu	aep4, a3, 8
    3219:	564124        	ae_sp24x2s.i	aep4, a1, 16
    321c:	02a6a7        	bge	a6, a10, 3222 <fn_low_bin_compensate_phase+0x162>
    321f:	ffafc6        	j	30e2 <fn_low_bin_compensate_phase+0x22>

00003222 <fn_low_bin_compensate_phase+0x162>:
    3222:	f01d           	retw.n

00003224 <fn_calc_zp_gain>:
    3224:	00e136        	entry	a1, 112
    3227:	5c8304        	ae_lp24x2f.iu	aep0, a3, 0
    322a:	070c           	movi.n	a7, 0
    322c:	f129           	s32i.n	a2, a1, 60
    322e:	116152        	s32i	a5, a1, 68
    3231:	048d           	mov.n	a8, a4
    3233:	0cd262        	addmi	a6, a2, 0xc00
    3236:	664b           	addi.n	a6, a6, 4
    3238:	01a142        	movi	a4, 0x101
    323b:	750c           	movi.n	a5, 7
    323d:	6189           	s32i.n	a8, a1, 24
    323f:	fcc222        	addi	a2, a2, -4
    3242:	7129           	s32i.n	a2, a1, 28

00003244 <fn_calc_zp_gain+0x20>:
    3244:	048804        	ae_mulzaafp24s.hh.ll	aeq3, aep0, aep0
    3247:	36b054        	ae_sllisq56s	aeq2, aeq3, 1
    324a:	066934        	ae_roundsq32asym	aeq1, aeq2
    324d:	369b04        	ae_trunca32q48	a11, aeq1
    3250:	f3b281        	l32r	a8, 118 (8d8 <HIFI_sqrt_ie>)
    3253:	40ebc0        	nsa	a12, a11
    3256:	8ccd           	ae_sext16	a12, a12
    3258:	c0a5c0        	sub	a10, a5, a12
    325b:	401c00        	ssl	a12
    325e:	a1bb00        	sll	a11, a11
    3261:	0008e0        	callx8	a8
    3264:	771b           	addi.n	a7, a7, 1
    3266:	40ebd0        	nsa	a13, a11
    3269:	fc248fea8e 	{ addi	a8, a10, -2; ae_zeroq56	aeq0 }
    326e:	888d           	ae_sext16	a8, a8
    3270:	8ddd           	ae_sext16	a13, a13
    3272:	05ad87        	bge	a13, a8, 327b <fn_calc_zp_gain+0x57>
    3275:	f36ce1        	l32r	a14, 28 (7fffffff <_end+0x7fff2873>)
    3278:	0002c6        	j	3287 <fn_calc_zp_gain+0x63>

0000327b <fn_calc_zp_gain+0x57>:
    327b:	1d18a6        	blti	a8, 1, 329c <fn_calc_zp_gain+0x78>
    327e:	401800        	ssl	a8
    3281:	a1eb00        	sll	a14, a11

00003284 <fn_calc_zp_gain+0x60>:
    3284:	0a1084        	ae_zeroq56	aeq0

00003287 <fn_calc_zp_gain+0x63>:
    3287:	364e34        	ae_cvtq48a32s	aeq1, a14
    328a:	625614        	ae_sq32f.iu	aeq1, a6, 4
    328d:	625214        	ae_sq32f.iu	aeq1, a2, 4
    3290:	624614        	ae_sq32f.iu	aeq0, a6, 4
    3293:	5c8314        	ae_lp24x2f.iu	aep0, a3, 8
    3296:	aa9747        	bne	a7, a4, 3244 <fn_calc_zp_gain+0x20>
    3299:	0002c6        	j	32a8 <fn_calc_zp_gain+0x84>

0000329c <fn_calc_zp_gain+0x78>:
    329c:	609080        	neg	a9, a8
    329f:	400900        	ssr	a9
    32a2:	b1e0b0        	sra	a14, a11
    32a5:	fff6c6        	j	3284 <fn_calc_zp_gain+0x60>

000032a8 <fn_calc_zp_gain+0x84>:
    32a8:	f1a8           	l32i.n	a10, a1, 60
    32aa:	f39381        	l32r	a8, f8 (4938 <real_512_ifft>)
    32ad:	0020f0        	nop
    32b0:	04dab2        	addmi	a11, a10, 0x400
    32b3:	0cdaa2        	addmi	a10, a10, 0xc00
    32b6:	08cbb2        	addi	a11, a11, 8
    32b9:	0961b2        	s32i	a11, a1, 36
    32bc:	08caa2        	addi	a10, a10, 8
    32bf:	0c61a2        	s32i	a10, a1, 48
    32c2:	0008e0        	callx8	a8
    32c5:	00a2d2        	movi	a13, 0x200
    32c8:	533c           	movi.n	a3, 53
    32ca:	f394e1        	l32r	a14, 11c (fffe7961 <_end+0xfffda1d5>)
    32cd:	9188           	l32i.n	a8, a1, 36
    32cf:	feca92        	addi	a9, a10, -2
    32d2:	899d           	ae_sext16	a9, a9
    32d4:	601804        	ae_lq32f.iu	aeq0, a8, 0
    32d7:	0219e6        	bgei	a9, 1, 32dd <fn_calc_zp_gain+0xb9>
    32da:	00d586        	j	3634 <fn_calc_zp_gain+0x410>
    32dd:	0d8d76        	loop	a13, 32ee <fn_calc_zp_gain+0xca>
    32e0:	fc24fe890f 	{ ae_slaasq56s	aeq0, aeq0, a9; nop }
    32e5:	060844        	ae_satq48s	aeq0, aeq0
    32e8:	624804        	ae_sq32f.iu	aeq0, a8, 0
    32eb:	601814        	ae_lq32f.iu	aeq0, a8, 4

000032ee <fn_calc_zp_gain+0xca>:
    32ee:	573c           	movi.n	a7, 53
    32f0:	f35941        	l32r	a4, 54 (7fff <xtensa_fft8_32b+0xef>)
    32f3:	0f21f2        	l32i	a15, a1, 60
    32f6:	0f2182        	l32i	a8, a1, 60
    32f9:	f38961        	l32r	a6, 120 (d610 <scale_tab>)
    32fc:	6ba0a2        	movi	a10, 107
    32ff:	03d882        	addmi	a8, a8, 0x300
    3302:	e0c882        	addi	a8, a8, -32
    3305:	0daa76        	loopgtz	a10, 3316 <fn_calc_zp_gain+0xf2>
    3308:	7f2892        	l32i	a9, a8, 0x1fc
    330b:	884b           	addi.n	a8, a8, 4
    330d:	03ae97        	bge	a14, a9, 3314 <fn_calc_zp_gain+0xf0>
    3310:	09ed           	mov.n	a14, a9
    3312:	073d           	mov.n	a3, a7

00003314 <fn_calc_zp_gain+0xf0>:
    3314:	771b           	addi.n	a7, a7, 1

00003316 <fn_calc_zp_gain+0xf2>:
    3316:	f344e1        	l32r	a14, 28 (7fffffff <_end+0x7fff2873>)
    3319:	070c           	movi.n	a7, 0
    331b:	02df82        	addmi	a8, a15, 0x200
    331e:	491c           	movi.n	a9, 20
    3320:	a0f3f0        	addx4	a15, a3, a15
    3323:	88cb           	addi.n	a8, a8, 12
    3325:	903360        	addx2	a3, a3, a6
    3328:	02dff2        	addmi	a15, a15, 0x200
    332b:	ffcb           	addi.n	a15, a15, 12

0000332d <fn_calc_zp_gain+0x109>:
    332d:	1a3916        	beqz	a9, 34d4 <fn_calc_zp_gain+0x2b0>
    3330:	1a0996        	bltz	a9, 34d4 <fn_calc_zp_gain+0x2b0>
    3333:	17a976        	loopgtz	a9, 334e <fn_calc_zp_gain+0x12a>
    3336:	030190        	rsr.lend	a9
    3339:	130090        	wsr.lbeg	a9
    333c:	86c992        	addi	a9, a9, -122
    333f:	02d992        	addmi	a9, a9, 0x200
    3342:	130190        	wsr.lend	a9
    3345:	002000        	isync
    3348:	030290        	rsr.lcount	a9
    334b:	01c992        	addi	a9, a9, 1
    334e:	23bd           	ae_l16si.n	a11, a3, 0
    3350:	26cd           	ae_l16si.n	a12, a6, 0
    3352:	090c           	movi.n	a9, 0
    3354:	112b10        	slli	a2, a11, 15
    3357:	31a3c0        	srai	a10, a12, 19
    335a:	31b1b0        	srai	a11, a11, 17
    335d:	11cc30        	slli	a12, a12, 13
    3360:	0461c2        	s32i	a12, a1, 16
    3363:	042a77        	blt	a10, a7, 336b <fn_calc_zp_gain+0x147>
    3366:	421a77        	beq	a10, a7, 33ac <fn_calc_zp_gain+0x188>

00003369 <fn_calc_zp_gain+0x145>:
    3369:	190c           	movi.n	a9, 1

0000336b <fn_calc_zp_gain+0x147>:
    336b:	064916        	beqz	a9, 33d3 <fn_calc_zp_gain+0x1af>
    336e:	090c           	movi.n	a9, 0
    3370:	042b77        	blt	a11, a7, 3378 <fn_calc_zp_gain+0x154>
    3373:	3b1b77        	beq	a11, a7, 33b2 <fn_calc_zp_gain+0x18e>

00003376 <fn_calc_zp_gain+0x152>:
    3376:	190c           	movi.n	a9, 1

00003378 <fn_calc_zp_gain+0x154>:
    3378:	c9bc           	beqz.n	a9, 33b8 <fn_calc_zp_gain+0x194>
    337a:	f32b91        	l32r	a9, 28 (7fffffff <_end+0x7fff2873>)

0000337d <fn_calc_zp_gain+0x159>:
    337d:	0f2916        	beqz	a9, 3473 <fn_calc_zp_gain+0x24f>

00003380 <fn_calc_zp_gain+0x15c>:
    3380:	f33591        	l32r	a9, 54 (7fff <xtensa_fft8_32b+0xef>)

00003383 <fn_calc_zp_gain+0x15f>:
    3383:	7f2fa2        	l32i	a10, a15, 0x1fc
    3386:	fb7c           	movi.n	a11, -1
    3388:	8229a0        	mull	a2, a9, a10
    338b:	b299a0        	mulsh	a9, a9, a10
    338e:	404d10        	ssai	29
    3391:	819920        	src	a9, a9, a2
    3394:	1122d0        	slli	a2, a2, 3
    3397:	02a947        	bge	a9, a4, 339d <fn_calc_zp_gain+0x179>
    339a:	0043c6        	j	34ad <fn_calc_zp_gain+0x289>
    339d:	c0c940        	sub	a12, a9, a4
    33a0:	104c56        	bnez	a12, 34a8 <fn_calc_zp_gain+0x284>
    33a3:	02b2b7        	bgeu	a2, a11, 33a9 <fn_calc_zp_gain+0x185>
    33a6:	0040c6        	j	34ad <fn_calc_zp_gain+0x289>
    33a9:	003ec6        	j	34a8 <fn_calc_zp_gain+0x284>

000033ac <fn_calc_zp_gain+0x188>:
    33ac:	bbbec7        	bgeu	a14, a12, 336b <fn_calc_zp_gain+0x147>
    33af:	ffed86        	j	3369 <fn_calc_zp_gain+0x145>

000033b2 <fn_calc_zp_gain+0x18e>:
    33b2:	c2be27        	bgeu	a14, a2, 3378 <fn_calc_zp_gain+0x154>
    33b5:	ffef46        	j	3376 <fn_calc_zp_gain+0x152>

000033b8 <fn_calc_zp_gain+0x194>:
    33b8:	0a0c           	movi.n	a10, 0
    33ba:	f31bd1        	l32r	a13, 28 (7fffffff <_end+0x7fff2873>)
    33bd:	009bd6        	bgez	a11, 33ca <fn_calc_zp_gain+0x1a6>
    33c0:	040b66        	bnei	a11, -1, 33c8 <fn_calc_zp_gain+0x1a4>
    33c3:	0d9d           	mov.n	a9, a13
    33c5:	013927        	bltu	a9, a2, 33ca <fn_calc_zp_gain+0x1a6>

000033c8 <fn_calc_zp_gain+0x1a4>:
    33c8:	1a0c           	movi.n	a10, 1

000033ca <fn_calc_zp_gain+0x1a6>:
    33ca:	f31991        	l32r	a9, 30 (80000000 <_end+0x7fff2874>)
    33cd:	8392a0        	moveqz	a9, a2, a10
    33d0:	ffea46        	j	337d <fn_calc_zp_gain+0x159>

000033d3 <fn_calc_zp_gain+0x1af>:
    33d3:	4198           	l32i.n	a9, a1, 16
    33d5:	0d0c           	movi.n	a13, 0
    33d7:	f314c1        	l32r	a12, 28 (7fffffff <_end+0x7fff2873>)
    33da:	a1c9           	s32i.n	a12, a1, 40
    33dc:	51d9           	s32i.n	a13, a1, 20
    33de:	fc7c           	movi.n	a12, -1
    33e0:	00cad6        	bgez	a10, 33f0 <fn_calc_zp_gain+0x1cc>
    33e3:	050a66        	bnei	a10, -1, 33ec <fn_calc_zp_gain+0x1c8>
    33e6:	0a21a2        	l32i	a10, a1, 40
    33e9:	033a97        	bltu	a10, a9, 33f0 <fn_calc_zp_gain+0x1cc>

000033ec <fn_calc_zp_gain+0x1c8>:
    33ec:	1c0c           	movi.n	a12, 1
    33ee:	51c9           	s32i.n	a12, a1, 20

000033f0 <fn_calc_zp_gain+0x1cc>:
    33f0:	51a8           	l32i.n	a10, a1, 20
    33f2:	042a16        	beqz	a10, 3438 <fn_calc_zp_gain+0x214>
    33f5:	f30ea1        	l32r	a10, 30 (80000000 <_end+0x7fff2874>)
    33f8:	090c           	movi.n	a9, 0
    33fa:	072b77        	blt	a11, a7, 3405 <fn_calc_zp_gain+0x1e1>
    33fd:	029b77        	bne	a11, a7, 3403 <fn_calc_zp_gain+0x1df>
    3400:	01be27        	bgeu	a14, a2, 3405 <fn_calc_zp_gain+0x1e1>

00003403 <fn_calc_zp_gain+0x1df>:
    3403:	190c           	movi.n	a9, 1

00003405 <fn_calc_zp_gain+0x1e1>:
    3405:	498c           	beqz.n	a9, 340d <fn_calc_zp_gain+0x1e9>
    3407:	f30891        	l32r	a9, 28 (7fffffff <_end+0x7fff2873>)
    340a:	000786        	j	342c <fn_calc_zp_gain+0x208>

0000340d <fn_calc_zp_gain+0x1e9>:
    340d:	f30691        	l32r	a9, 28 (7fffffff <_end+0x7fff2873>)
    3410:	0d0c           	movi.n	a13, 0
    3412:	31d9           	s32i.n	a13, a1, 12
    3414:	00cbd6        	bgez	a11, 3424 <fn_calc_zp_gain+0x200>
    3417:	050b66        	bnei	a11, -1, 3420 <fn_calc_zp_gain+0x1fc>
    341a:	20b990        	or	a11, a9, a9
    341d:	033b27        	bltu	a11, a2, 3424 <fn_calc_zp_gain+0x200>

00003420 <fn_calc_zp_gain+0x1fc>:
    3420:	1c0c           	movi.n	a12, 1
    3422:	31c9           	s32i.n	a12, a1, 12

00003424 <fn_calc_zp_gain+0x200>:
    3424:	31d8           	l32i.n	a13, a1, 12
    3426:	f30291        	l32r	a9, 30 (80000000 <_end+0x7fff2874>)
    3429:	8392d0        	moveqz	a9, a2, a13

0000342c <fn_calc_zp_gain+0x208>:
    342c:	043916        	beqz	a9, 3473 <fn_calc_zp_gain+0x24f>
    342f:	f300b1        	l32r	a11, 30 (80000000 <_end+0x7fff2874>)
    3432:	482b97        	blt	a11, a9, 347e <fn_calc_zp_gain+0x25a>
    3435:	ffd1c6        	j	3380 <fn_calc_zp_gain+0x15c>

00003438 <fn_calc_zp_gain+0x214>:
    3438:	09ad           	mov.n	a10, a9
    343a:	00a092        	movi	a9, 0
    343d:	072b77        	blt	a11, a7, 3448 <fn_calc_zp_gain+0x224>
    3440:	029b77        	bne	a11, a7, 3446 <fn_calc_zp_gain+0x222>
    3443:	01be27        	bgeu	a14, a2, 3448 <fn_calc_zp_gain+0x224>

00003446 <fn_calc_zp_gain+0x222>:
    3446:	190c           	movi.n	a9, 1

00003448 <fn_calc_zp_gain+0x224>:
    3448:	798c           	beqz.n	a9, 3453 <fn_calc_zp_gain+0x22f>
    344a:	f2f791        	l32r	a9, 28 (7fffffff <_end+0x7fff2873>)
    344d:	2d2a97        	blt	a10, a9, 347e <fn_calc_zp_gain+0x25a>
    3450:	ffcb06        	j	3380 <fn_calc_zp_gain+0x15c>

00003453 <fn_calc_zp_gain+0x22f>:
    3453:	f2f591        	l32r	a9, 28 (7fffffff <_end+0x7fff2873>)
    3456:	0d0c           	movi.n	a13, 0
    3458:	11d9           	s32i.n	a13, a1, 4
    345a:	00bbd6        	bgez	a11, 3469 <fn_calc_zp_gain+0x245>
    345d:	040b66        	bnei	a11, -1, 3465 <fn_calc_zp_gain+0x241>
    3460:	09bd           	mov.n	a11, a9
    3462:	033b27        	bltu	a11, a2, 3469 <fn_calc_zp_gain+0x245>

00003465 <fn_calc_zp_gain+0x241>:
    3465:	1c0c           	movi.n	a12, 1
    3467:	11c9           	s32i.n	a12, a1, 4

00003469 <fn_calc_zp_gain+0x245>:
    3469:	11d8           	l32i.n	a13, a1, 4
    346b:	f2f191        	l32r	a9, 30 (80000000 <_end+0x7fff2874>)
    346e:	8392d0        	moveqz	a9, a2, a13
    3471:	39cc           	bnez.n	a9, 3478 <fn_calc_zp_gain+0x254>

00003473 <fn_calc_zp_gain+0x24f>:
    3473:	090c           	movi.n	a9, 0
    3475:	ffc286        	j	3383 <fn_calc_zp_gain+0x15f>

00003478 <fn_calc_zp_gain+0x254>:
    3478:	022a97        	blt	a10, a9, 347e <fn_calc_zp_gain+0x25a>
    347b:	ffc046        	j	3380 <fn_calc_zp_gain+0x15c>
    347e:	364934        	ae_cvtq48a32s	aeq1, a9
    3481:	36ca34        	ae_cvtq48a32s	aeq3, a10
    3484:	40e9c0        	nsa	a12, a9
    3487:	8ccd           	ae_sext16	a12, a12
    3489:	fc24febc8f 	{ ae_slaasq56s	aeq2, aeq3, a12; nop }
    348e:	fc80cf1cce 	{ addi	a12, a12, -15; ae_satq48s	aeq0, aeq2 }
    3493:	fc24fe9ccf 	{ ae_slaasq56s	aeq3, aeq1, a12; nop }
    3498:	fe84ff09ef 	{ ae_trunca32q48	a9, aeq0; ae_satq48s	aeq2, aeq3 }
    349d:	36ab04        	ae_trunca32q48	a11, aeq2
    34a0:	d299b0        	quos	a9, a9, a11
    34a3:	a99d           	ae_clamps16	a9, a9
    34a5:	ffb686        	j	3383 <fn_calc_zp_gain+0x15f>

000034a8 <fn_calc_zp_gain+0x284>:
    34a8:	0b2d           	mov.n	a2, a11
    34aa:	209440        	or	a9, a4, a4

000034ad <fn_calc_zp_gain+0x289>:
    34ad:	f2e6b1        	l32r	a11, 48 (8000 <xtensa_fft8_32b+0xf0>)
    34b0:	404010        	ssai	16
    34b3:	b2ba           	add.n	a11, a2, a11
    34b5:	622b20        	saltu	a2, a11, a2
    34b8:	229a           	add.n	a2, a2, a9
    34ba:	090c           	movi.n	a9, 0
    34bc:	81b2b0        	src	a11, a2, a11
    34bf:	312020        	srai	a2, a2, 16
    34c2:	042277        	blt	a2, a7, 34ca <fn_calc_zp_gain+0x2a6>
    34c5:	1f1277        	beq	a2, a7, 34e8 <fn_calc_zp_gain+0x2c4>

000034c8 <fn_calc_zp_gain+0x2a4>:
    34c8:	190c           	movi.n	a9, 1

000034ca <fn_calc_zp_gain+0x2a6>:
    34ca:	ff4b           	addi.n	a15, a15, 4
    34cc:	332b           	addi.n	a3, a3, 2
    34ce:	662b           	addi.n	a6, a6, 2
    34d0:	a99c           	beqz.n	a9, 34ee <fn_calc_zp_gain+0x2ca>

000034d2 <fn_calc_zp_gain+0x2ae>:
    34d2:	884b           	addi.n	a8, a8, 4

000034d4 <fn_calc_zp_gain+0x2b0>:
    34d4:	f188           	l32i.n	a8, a1, 60
    34d6:	71a8           	l32i.n	a10, a1, 28
    34d8:	3b0c           	movi.n	a11, 3
    34da:	02d882        	addmi	a8, a8, 0x200
    34dd:	0adaa2        	addmi	a10, a10, 0xa00
    34e0:	aacb           	addi.n	a10, a10, 12
    34e2:	10c882        	addi	a8, a8, 16
    34e5:	000d86        	j	351f <fn_calc_zp_gain+0x2fb>

000034e8 <fn_calc_zp_gain+0x2c4>:
    34e8:	debeb7        	bgeu	a14, a11, 34ca <fn_calc_zp_gain+0x2a6>
    34eb:	fff646        	j	34c8 <fn_calc_zp_gain+0x2a4>

000034ee <fn_calc_zp_gain+0x2ca>:
    34ee:	fc7c           	movi.n	a12, -1
    34f0:	f2ce91        	l32r	a9, 28 (7fffffff <_end+0x7fff2873>)
    34f3:	0a0c           	movi.n	a10, 0
    34f5:	b199           	s32i.n	a9, a1, 44
    34f7:	7f2892        	l32i	a9, a8, 0x1fc
    34fa:	00a2d6        	bgez	a2, 3508 <fn_calc_zp_gain+0x2e4>
    34fd:	050266        	bnei	a2, -1, 3506 <fn_calc_zp_gain+0x2e2>
    3500:	0b21d2        	l32i	a13, a1, 44
    3503:	013db7        	bltu	a13, a11, 3508 <fn_calc_zp_gain+0x2e4>

00003506 <fn_calc_zp_gain+0x2e2>:
    3506:	1a0c           	movi.n	a10, 1

00003508 <fn_calc_zp_gain+0x2e4>:
    3508:	aa8c           	beqz.n	a10, 3516 <fn_calc_zp_gain+0x2f2>
    350a:	f2c9a1        	l32r	a10, 30 (80000000 <_end+0x7fff2874>)
    350d:	f2c8b1        	l32r	a11, 30 (80000000 <_end+0x7fff2874>)
    3510:	beaa97        	bge	a10, a9, 34d2 <fn_calc_zp_gain+0x2ae>
    3513:	000086        	j	3519 <fn_calc_zp_gain+0x2f5>

00003516 <fn_calc_zp_gain+0x2f2>:
    3516:	b8ab97        	bge	a11, a9, 34d2 <fn_calc_zp_gain+0x2ae>

00003519 <fn_calc_zp_gain+0x2f5>:
    3519:	7f68b2        	s32i	a11, a8, 0x1fc
    351c:	ffec86        	j	34d2 <fn_calc_zp_gain+0x2ae>

0000351f <fn_calc_zp_gain+0x2fb>:
    351f:	290c           	movi.n	a9, 2
    3521:	0aab76        	loopgtz	a11, 352f <fn_calc_zp_gain+0x30b>
    3524:	7f28c2        	l32i	a12, a8, 0x1fc
    3527:	fccaa2        	addi	a10, a10, -4
    352a:	806ac2        	s32i	a12, a10, 0x200
    352d:	884b           	addi.n	a8, a8, 4
    352f:	358976        	loop	a9, 3568 <fn_calc_zp_gain+0x344>
    3532:	7f2892        	l32i	a9, a8, 0x1fc
    3535:	20c882        	addi	a8, a8, 32
    3538:	e0caa2        	addi	a10, a10, -32
    353b:	876a92        	s32i	a9, a10, 0x21c
    353e:	782892        	l32i	a9, a8, 0x1e0
    3541:	866a92        	s32i	a9, a10, 0x218
    3544:	792892        	l32i	a9, a8, 0x1e4
    3547:	856a92        	s32i	a9, a10, 0x214
    354a:	7a2892        	l32i	a9, a8, 0x1e8
    354d:	846a92        	s32i	a9, a10, 0x210
    3550:	7b2892        	l32i	a9, a8, 0x1ec
    3553:	836a92        	s32i	a9, a10, 0x20c
    3556:	7c2892        	l32i	a9, a8, 0x1f0
    3559:	826a92        	s32i	a9, a10, 0x208
    355c:	7d2892        	l32i	a9, a8, 0x1f4
    355f:	816a92        	s32i	a9, a10, 0x204
    3562:	7e2892        	l32i	a9, a8, 0x1f8
    3565:	806a92        	s32i	a9, a10, 0x200

00003568 <fn_calc_zp_gain+0x344>:
    3568:	f2e181        	l32r	a8, ec (4800 <real_512_fft>)
    356b:	91a8           	l32i.n	a10, a1, 36
    356d:	c1b8           	l32i.n	a11, a1, 48
    356f:	0008e0        	callx8	a8
    3572:	0a9d           	mov.n	a9, a10
    3574:	c168           	l32i.n	a6, a1, 48
    3576:	02a282        	movi	a8, 0x202
    3579:	6148           	l32i.n	a4, a1, 24
    357b:	601604        	ae_lq32f.iu	aeq0, a6, 0
    357e:	021ae6        	bgei	a10, 1, 3584 <fn_calc_zp_gain+0x360>
    3581:	003146        	j	364a <fn_calc_zp_gain+0x426>
    3584:	08ad           	mov.n	a10, a8
    3586:	0d8a76        	loop	a10, 3597 <fn_calc_zp_gain+0x373>
    3589:	fc24fe890f 	{ ae_slaasq56s	aeq0, aeq0, a9; nop }
    358e:	060844        	ae_satq48s	aeq0, aeq0
    3591:	624604        	ae_sq32f.iu	aeq0, a6, 0
    3594:	601614        	ae_lq32f.iu	aeq0, a6, 4

00003597 <fn_calc_zp_gain+0x373>:
    3597:	c168           	l32i.n	a6, a1, 48
    3599:	01a132        	movi	a3, 0x101
    359c:	f128           	l32i.n	a2, a1, 60
    359e:	5c8604        	ae_lp24x2f.iu	aep0, a6, 0

000035a1 <fn_calc_zp_gain+0x37d>:
    35a1:	048004        	ae_mulzaafp24s.hh.ll	aeq2, aep0, aep0
    35a4:	366054        	ae_sllisq56s	aeq1, aeq2, 1
    35a7:	061934        	ae_roundsq32asym	aeq0, aeq1
    35aa:	368b04        	ae_trunca32q48	a11, aeq0
    35ad:	f2da81        	l32r	a8, 118 (8d8 <HIFI_sqrt_ie>)
    35b0:	40ebc0        	nsa	a12, a11
    35b3:	8ccd           	ae_sext16	a12, a12
    35b5:	c0a5c0        	sub	a10, a5, a12
    35b8:	401c00        	ssl	a12
    35bb:	a1bb00        	sll	a11, a11
    35be:	0008e0        	callx8	a8
    35c1:	0288           	l32i.n	a8, a2, 0
    35c3:	40ebd0        	nsa	a13, a11
    35c6:	feca92        	addi	a9, a10, -2
    35c9:	899d           	ae_sext16	a9, a9
    35cb:	8ddd           	ae_sext16	a13, a13
    35cd:	06ad97        	bge	a13, a9, 35d7 <fn_calc_zp_gain+0x3b3>
    35d0:	28dc           	bnez.n	a8, 35e6 <fn_calc_zp_gain+0x3c2>

000035d2 <fn_calc_zp_gain+0x3ae>:
    35d2:	090c           	movi.n	a9, 0
    35d4:	000446        	j	35e9 <fn_calc_zp_gain+0x3c5>

000035d7 <fn_calc_zp_gain+0x3b3>:
    35d7:	2319a6        	blti	a9, 1, 35fe <fn_calc_zp_gain+0x3da>
    35da:	401900        	ssl	a9
    35dd:	a19b00        	sll	a9, a11

000035e0 <fn_calc_zp_gain+0x3bc>:
    35e0:	fee816        	beqz	a8, 35d2 <fn_calc_zp_gain+0x3ae>
    35e3:	232987        	blt	a9, a8, 360a <fn_calc_zp_gain+0x3e6>

000035e6 <fn_calc_zp_gain+0x3c2>:
    35e6:	f29b91        	l32r	a9, 54 (7fff <xtensa_fft8_32b+0xef>)

000035e9 <fn_calc_zp_gain+0x3c5>:
    35e9:	1121a2        	l32i	a10, a1, 68
    35ec:	224b           	addi.n	a2, a2, 4
    35ee:	330b           	addi.n	a3, a3, -1
    35f0:	53aa90        	max	a10, a10, a9
    35f3:	09c4a4        	ae_s16ip	a10, a4, 2
    35f6:	5c8614        	ae_lp24x2f.iu	aep0, a6, 8
    35f9:	fa4356        	bnez	a3, 35a1 <fn_calc_zp_gain+0x37d>
    35fc:	f01d           	retw.n

000035fe <fn_calc_zp_gain+0x3da>:
    35fe:	60c090        	neg	a12, a9
    3601:	400c00        	ssr	a12
    3604:	b190b0        	sra	a9, a11
    3607:	fff546        	j	35e0 <fn_calc_zp_gain+0x3bc>

0000360a <fn_calc_zp_gain+0x3e6>:
    360a:	368834        	ae_cvtq48a32s	aeq2, a8
    360d:	360934        	ae_cvtq48a32s	aeq0, a9
    3610:	40e8b0        	nsa	a11, a8
    3613:	8bbd           	ae_sext16	a11, a11
    3615:	fc24fe8bcf 	{ ae_slaasq56s	aeq3, aeq0, a11; nop }
    361a:	fd84cf1bbe 	{ addi	a11, a11, -15; ae_satq48s	aeq1, aeq3 }
    361f:	fc24feab0f 	{ ae_slaasq56s	aeq0, aeq2, a11; nop }
    3624:	ff00ff19ef 	{ ae_trunca32q48	a9, aeq1; ae_satq48s	aeq3, aeq0 }
    3629:	36ba04        	ae_trunca32q48	a10, aeq3
    362c:	d299a0        	quos	a9, a9, a10
    362f:	a99d           	ae_clamps16	a9, a9
    3631:	ffed06        	j	35e9 <fn_calc_zp_gain+0x3c5>

00003634 <fn_calc_zp_gain+0x410>:
    3634:	f03d           	nop.n
    3636:	0d8d76        	loop	a13, 3647 <fn_calc_zp_gain+0x423>
    3639:	fc24fe890f 	{ ae_slaasq56s	aeq0, aeq0, a9; nop }
    363e:	060934        	ae_roundsq32asym	aeq0, aeq0
    3641:	624804        	ae_sq32f.iu	aeq0, a8, 0
    3644:	601814        	ae_lq32f.iu	aeq0, a8, 4

00003647 <fn_calc_zp_gain+0x423>:
    3647:	ff28c6        	j	32ee <fn_calc_zp_gain+0xca>

0000364a <fn_calc_zp_gain+0x426>:
    364a:	08ad           	mov.n	a10, a8
    364c:	f03d           	nop.n
    364e:	0d8a76        	loop	a10, 365f <fn_calc_zp_gain+0x43b>
    3651:	fc24fe890f 	{ ae_slaasq56s	aeq0, aeq0, a9; nop }
    3656:	060934        	ae_roundsq32asym	aeq0, aeq0
    3659:	624604        	ae_sq32f.iu	aeq0, a6, 0
    365c:	601614        	ae_lq32f.iu	aeq0, a6, 4

0000365f <fn_calc_zp_gain+0x43b>:
    365f:	ffcd06        	j	3597 <fn_calc_zp_gain+0x373>

00003662 <fn_calc_zp_gain+0x43e>:
	...

00003664 <fn_ini_pitch_detection>:
    3664:	004136        	entry	a1, 32
    3667:	02ad           	mov.n	a10, a2
    3669:	f29781        	l32r	a8, c8 (8808 <xt_memset>)
    366c:	0b0c           	movi.n	a11, 0
    366e:	12a0c2        	movi	a12, 18
    3671:	0008e0        	callx8	a8
    3674:	03bd           	mov.n	a11, a3
    3676:	f26381        	l32r	a8, 4 (8820 <xt_memcpy>)
    3679:	02ad           	mov.n	a10, a2
    367b:	ec0c           	movi.n	a12, 14
    367d:	0008e0        	callx8	a8
    3680:	8249           	s32i.n	a4, a2, 32
    3682:	f01d           	retw.n

00003684 <fn_pitch_detection>:
    3684:	008136        	entry	a1, 64
    3687:	f26871        	l32r	a7, 28 (7fffffff <_end+0x7fff2873>)
    368a:	8298           	l32i.n	a9, a2, 32
    368c:	0a9282        	l16si	a8, a2, 20
    368f:	6199           	s32i.n	a9, a1, 24
    3691:	08d992        	addmi	a9, a9, 0x800
    3694:	3199           	s32i.n	a9, a1, 12
    3696:	0218e6        	bgei	a8, 1, 369c <fn_pitch_detection+0x18>
    3699:	00c246        	j	39a6 <fn_pitch_detection+0x322>
    369c:	f26b61        	l32r	a6, 48 (8000 <xtensa_fft8_32b+0xf0>)
    369f:	f2a1a1        	l32r	a10, 124 (6a4d3c26 <_end+0x6a4c649a>)
    36a2:	f2a0c1        	l32r	a12, 124 (6a4d3c26 <_end+0x6a4c649a>)
    36a5:	f270b1        	l32r	a11, 68 (ffff8000 <_end+0xfffea874>)
    36a8:	f26b91        	l32r	a9, 54 (7fff <xtensa_fft8_32b+0xef>)
    36ab:	404f10        	ssai	31
    36ae:	828bc0        	mull	a8, a11, a12
    36b1:	8259a0        	mull	a5, a9, a10
    36b4:	b2bbc0        	mulsh	a11, a11, a12
    36b7:	b299a0        	mulsh	a9, a9, a10
    36ba:	81bb80        	src	a11, a11, a8
    36bd:	404010        	ssai	16
    36c0:	1188f0        	slli	a8, a8, 1
    36c3:	a86a           	add.n	a10, a8, a6
    36c5:	628a80        	saltu	a8, a10, a8
    36c8:	88ba           	add.n	a8, a8, a11
    36ca:	81a8a0        	src	a10, a8, a10
    36cd:	21a9           	s32i.n	a10, a1, 8
    36cf:	318080        	srai	a8, a8, 16
    36d2:	404f10        	ssai	31
    36d5:	819950        	src	a9, a9, a5
    36d8:	1189           	s32i.n	a8, a1, 4
    36da:	404010        	ssai	16
    36dd:	1155f0        	slli	a5, a5, 1
    36e0:	656a           	add.n	a6, a5, a6
    36e2:	625650        	saltu	a5, a6, a5
    36e5:	559a           	add.n	a5, a5, a9
    36e7:	816560        	src	a6, a5, a6
    36ea:	5169           	s32i.n	a6, a1, 20
    36ec:	315050        	srai	a5, a5, 16
    36ef:	4159           	s32i.n	a5, a1, 16
    36f1:	6168           	l32i.n	a6, a1, 24
    36f3:	050c           	movi.n	a5, 0
    36f5:	000506        	j	370d <fn_pitch_detection+0x89>

000036f8 <fn_pitch_detection+0x74>:
    36f8:	5bbc           	beqz.n	a11, 3731 <fn_pitch_detection+0xad>

000036fa <fn_pitch_detection+0x76>:
    36fa:	190c           	movi.n	a9, 1

000036fc <fn_pitch_detection+0x78>:
    36fc:	79bc           	beqz.n	a9, 3737 <fn_pitch_detection+0xb3>

000036fe <fn_pitch_detection+0x7a>:
    36fe:	f24a91        	l32r	a9, 28 (7fffffff <_end+0x7fff2873>)

00003701 <fn_pitch_detection+0x7d>:
    3701:	0a92e2        	l16si	a14, a2, 20
    3704:	09e694        	ae_s32ip	a9, a6, 4
    3707:	0225e7        	blt	a5, a14, 370d <fn_pitch_detection+0x89>
    370a:	003946        	j	37f3 <fn_pitch_detection+0x16f>

0000370d <fn_pitch_detection+0x89>:
    370d:	03a8           	l32i.n	a10, a3, 0
    370f:	f26781        	l32r	a8, ac (d40 <fxlog10>)
    3712:	01caa2        	addi	a10, a10, 1
    3715:	0008e0        	callx8	a8
    3718:	f28481        	l32r	a8, 128 (b4fa <window+0x15a>)
    371b:	334b           	addi.n	a3, a3, 4
    371d:	551b           	addi.n	a5, a5, 1
    371f:	34a8a7        	bge	a8, a10, 3757 <fn_pitch_detection+0xd3>
    3722:	090c           	movi.n	a9, 0
    3724:	41b8           	l32i.n	a11, a1, 16
    3726:	f24b81        	l32r	a8, 54 (7fff <xtensa_fft8_32b+0xef>)
    3729:	51a8           	l32i.n	a10, a1, 20
    372b:	fc9bd6        	bgez	a11, 36f8 <fn_pitch_detection+0x74>
    372e:	fff286        	j	36fc <fn_pitch_detection+0x78>

00003731 <fn_pitch_detection+0xad>:
    3731:	c7b7a7        	bgeu	a7, a10, 36fc <fn_pitch_detection+0x78>
    3734:	fff086        	j	36fa <fn_pitch_detection+0x76>

00003737 <fn_pitch_detection+0xb3>:
    3737:	f23cf1        	l32r	a15, 28 (7fffffff <_end+0x7fff2873>)
    373a:	41e8           	l32i.n	a14, a1, 16
    373c:	51b8           	l32i.n	a11, a1, 20
    373e:	090c           	movi.n	a9, 0
    3740:	004ed6        	bgez	a14, 3748 <fn_pitch_detection+0xc4>
    3743:	0a0e26        	beqi	a14, -1, 3751 <fn_pitch_detection+0xcd>

00003746 <fn_pitch_detection+0xc2>:
    3746:	190c           	movi.n	a9, 1

00003748 <fn_pitch_detection+0xc4>:
    3748:	0a2916        	beqz	a9, 37ee <fn_pitch_detection+0x16a>

0000374b <fn_pitch_detection+0xc7>:
    374b:	f23991        	l32r	a9, 30 (80000000 <_end+0x7fff2874>)
    374e:	ffebc6        	j	3701 <fn_pitch_detection+0x7d>

00003751 <fn_pitch_detection+0xcd>:
    3751:	f33fb7        	bltu	a15, a11, 3748 <fn_pitch_detection+0xc4>
    3754:	fffb86        	j	3746 <fn_pitch_detection+0xc2>

00003757 <fn_pitch_detection+0xd3>:
    3757:	f275f1        	l32r	a15, 12c (ffffb4fa <_end+0xfffedd6e>)
    375a:	11b8           	l32i.n	a11, a1, 4
    375c:	f24381        	l32r	a8, 68 (ffff8000 <_end+0xfffea874>)
    375f:	332fa7        	blt	a15, a10, 3796 <fn_pitch_detection+0x112>
    3762:	090c           	movi.n	a9, 0
    3764:	21a8           	l32i.n	a10, a1, 8
    3766:	003b96        	bltz	a11, 376d <fn_pitch_detection+0xe9>
    3769:	db9c           	beqz.n	a11, 378a <fn_pitch_detection+0x106>

0000376b <fn_pitch_detection+0xe7>:
    376b:	190c           	movi.n	a9, 1

0000376d <fn_pitch_detection+0xe9>:
    376d:	f8d956        	bnez	a9, 36fe <fn_pitch_detection+0x7a>
    3770:	f22ef1        	l32r	a15, 28 (7fffffff <_end+0x7fff2873>)
    3773:	11d8           	l32i.n	a13, a1, 4
    3775:	21b8           	l32i.n	a11, a1, 8
    3777:	00a092        	movi	a9, 0
    377a:	004dd6        	bgez	a13, 3782 <fn_pitch_detection+0xfe>
    377d:	0f0d26        	beqi	a13, -1, 3790 <fn_pitch_detection+0x10c>

00003780 <fn_pitch_detection+0xfc>:
    3780:	190c           	movi.n	a9, 1

00003782 <fn_pitch_detection+0xfe>:
    3782:	fc5956        	bnez	a9, 374b <fn_pitch_detection+0xc7>
    3785:	2198           	l32i.n	a9, a1, 8
    3787:	ffdd86        	j	3701 <fn_pitch_detection+0x7d>

0000378a <fn_pitch_detection+0x106>:
    378a:	dfb7a7        	bgeu	a7, a10, 376d <fn_pitch_detection+0xe9>
    378d:	fff686        	j	376b <fn_pitch_detection+0xe7>

00003790 <fn_pitch_detection+0x10c>:
    3790:	ee3fb7        	bltu	a15, a11, 3782 <fn_pitch_detection+0xfe>
    3793:	fffa46        	j	3780 <fn_pitch_detection+0xfc>

00003796 <fn_pitch_detection+0x112>:
    3796:	f26681        	l32r	a8, 130 (ffffcb05 <_end+0xfffef379>)
    3799:	404f10        	ssai	31
    379c:	f262d1        	l32r	a13, 124 (6a4d3c26 <_end+0x6a4c649a>)
    379f:	8a8a           	add.n	a8, a10, a8
    37a1:	f229a1        	l32r	a10, 48 (8000 <xtensa_fft8_32b+0xf0>)
    37a4:	888d           	ae_sext16	a8, a8
    37a6:	8298d0        	mull	a9, a8, a13
    37a9:	b2d8d0        	mulsh	a13, a8, a13
    37ac:	11c9f0        	slli	a12, a9, 1
    37af:	81dd90        	src	a13, a13, a9
    37b2:	9099a0        	addx2	a9, a9, a10
    37b5:	404010        	ssai	16
    37b8:	0a0c           	movi.n	a10, 0
    37ba:	62c9c0        	saltu	a12, a9, a12
    37bd:	ccda           	add.n	a12, a12, a13
    37bf:	819c90        	src	a9, a12, a9
    37c2:	31c0c0        	srai	a12, a12, 16
    37c5:	003c96        	bltz	a12, 37cc <fn_pitch_detection+0x148>
    37c8:	6c9c           	beqz.n	a12, 37e2 <fn_pitch_detection+0x15e>

000037ca <fn_pitch_detection+0x146>:
    37ca:	1a0c           	movi.n	a10, 1

000037cc <fn_pitch_detection+0x148>:
    37cc:	f2ea56        	bnez	a10, 36fe <fn_pitch_detection+0x7a>
    37cf:	f216b1        	l32r	a11, 28 (7fffffff <_end+0x7fff2873>)
    37d2:	0a0c           	movi.n	a10, 0
    37d4:	004cd6        	bgez	a12, 37dc <fn_pitch_detection+0x158>
    37d7:	0d0c26        	beqi	a12, -1, 37e8 <fn_pitch_detection+0x164>

000037da <fn_pitch_detection+0x156>:
    37da:	1a0c           	movi.n	a10, 1

000037dc <fn_pitch_detection+0x158>:
    37dc:	f6ba56        	bnez	a10, 374b <fn_pitch_detection+0xc7>
    37df:	ffc786        	j	3701 <fn_pitch_detection+0x7d>

000037e2 <fn_pitch_detection+0x15e>:
    37e2:	e6b797        	bgeu	a7, a9, 37cc <fn_pitch_detection+0x148>
    37e5:	fff846        	j	37ca <fn_pitch_detection+0x146>

000037e8 <fn_pitch_detection+0x164>:
    37e8:	f03b97        	bltu	a11, a9, 37dc <fn_pitch_detection+0x158>
    37eb:	fffac6        	j	37da <fn_pitch_detection+0x156>

000037ee <fn_pitch_detection+0x16a>:
    37ee:	5198           	l32i.n	a9, a1, 20
    37f0:	ffc346        	j	3701 <fn_pitch_detection+0x7d>

000037f3 <fn_pitch_detection+0x16f>:
    37f3:	618d           	ae_s16i.n	a8, a1, 0
    37f5:	00a1e2        	movi	a14, 0x100
    37f8:	02ae57        	bge	a14, a5, 37fe <fn_pitch_detection+0x17a>
    37fb:	0066c6        	j	399a <fn_pitch_detection+0x316>

000037fe <fn_pitch_detection+0x17a>:
    37fe:	f24d91        	l32r	a9, 134 (c0000000 <_end+0xbfff2874>)
    3801:	062182        	l32i	a8, a1, 24
    3804:	01a1a2        	movi	a10, 0x101
    3807:	c0aa50        	sub	a10, a10, a5
    380a:	a08580        	addx4	a8, a5, a8
    380d:	02aa76        	loopgtz	a10, 3813 <fn_pitch_detection+0x18f>
    3810:	09e894        	ae_s32ip	a9, a8, 4

00003813 <fn_pitch_detection+0x18f>:
    3813:	01a152        	movi	a5, 0x101

00003816 <fn_pitch_detection+0x192>:
    3816:	1195e0        	slli	a9, a5, 2
    3819:	6188           	l32i.n	a8, a1, 24
    381b:	00a2e2        	movi	a14, 0x200
    381e:	c0ee50        	sub	a14, a14, a5
    3821:	a06580        	addx4	a6, a5, a8
    3824:	c08890        	sub	a8, a8, a9
    3827:	06d882        	addmi	a8, a8, 0x600
    382a:	2490e0        	extui	a9, a14, 0, 3
    382d:	08a976        	loopgtz	a9, 3839 <fn_pitch_detection+0x1b5>
    3830:	fcc882        	addi	a8, a8, -4
    3833:	8128f2        	l32i	a15, a8, 0x204
    3836:	09e6f4        	ae_s32ip	a15, a6, 4

00003839 <fn_pitch_detection+0x1b5>:
    3839:	2193e0        	srai	a9, a14, 3
    383c:	f03d           	nop.n
    383e:	32a976        	loopgtz	a9, 3874 <fn_pitch_detection+0x1f0>
    3841:	802892        	l32i	a9, a8, 0x200
    3844:	e0c882        	addi	a8, a8, -32
    3847:	09e694        	ae_s32ip	a9, a6, 4
    384a:	872892        	l32i	a9, a8, 0x21c
    384d:	09e694        	ae_s32ip	a9, a6, 4
    3850:	862892        	l32i	a9, a8, 0x218
    3853:	09e694        	ae_s32ip	a9, a6, 4
    3856:	852892        	l32i	a9, a8, 0x214
    3859:	09e694        	ae_s32ip	a9, a6, 4
    385c:	842892        	l32i	a9, a8, 0x210
    385f:	09e694        	ae_s32ip	a9, a6, 4
    3862:	832892        	l32i	a9, a8, 0x20c
    3865:	09e694        	ae_s32ip	a9, a6, 4
    3868:	822892        	l32i	a9, a8, 0x208
    386b:	09e694        	ae_s32ip	a9, a6, 4
    386e:	812892        	l32i	a9, a8, 0x204
    3871:	09e694        	ae_s32ip	a9, a6, 4

00003874 <fn_pitch_detection+0x1f0>:
    3874:	f21e81        	l32r	a8, ec (4800 <real_512_fft>)
    3877:	61a8           	l32i.n	a10, a1, 24
    3879:	31b8           	l32i.n	a11, a1, 12
    387b:	0008e0        	callx8	a8
    387e:	3188           	l32i.n	a8, a1, 12
    3880:	049252        	l16si	a5, a2, 8
    3883:	0a6d           	mov.n	a6, a10
    3885:	6198           	l32i.n	a9, a1, 24
    3887:	0592a2        	l16si	a10, a2, 10
    388a:	b08580        	addx8	a8, a5, a8
    388d:	a09590        	addx4	a9, a5, a9
    3890:	fcc992        	addi	a9, a9, -4
    3893:	5c8804        	ae_lp24x2f.iu	aep0, a8, 0
    3896:	0225a7        	blt	a5, a10, 389c <fn_pitch_detection+0x218>
    3899:	003dc6        	j	3994 <fn_pitch_detection+0x310>
    389c:	213d           	ae_l16si.n	a3, a1, 0
    389e:	19aca2        	movi	a10, 0xfffffc19
    38a1:	238076        	loop	a0, 38c8 <fn_pitch_detection+0x244>
    38a4:	010844        	ae_mulfp24s.hh	aeq1, aep0, aep0
    38a7:	010834        	ae_mulafp24s.ll	aeq1, aep0, aep0
    38aa:	355074        	ae_sraiq56	aeq1, aeq1, 1
    38ad:	061934        	ae_roundsq32asym	aeq0, aeq1
    38b0:	368b04        	ae_trunca32q48	a11, aeq0
    38b3:	624914        	ae_sq32f.iu	aeq0, a9, 4
    38b6:	5c8814        	ae_lp24x2f.iu	aep0, a8, 8
    38b9:	03aab7        	bge	a10, a11, 38c0 <fn_pitch_detection+0x23c>
    38bc:	0bad           	mov.n	a10, a11
    38be:	053d           	mov.n	a3, a5

000038c0 <fn_pitch_detection+0x23c>:
    38c0:	0592b2        	l16si	a11, a2, 10
    38c3:	551b           	addi.n	a5, a5, 1
    38c5:	02a5b7        	bge	a5, a11, 38cb <fn_pitch_detection+0x247>

000038c8 <fn_pitch_detection+0x244>:
    38c8:	fff546        	j	38a1 <fn_pitch_detection+0x21d>

000038cb <fn_pitch_detection+0x247>:
    38cb:	613d           	ae_s16i.n	a3, a1, 0

000038cd <fn_pitch_detection+0x249>:
    38cd:	f20c81        	l32r	a8, 100 (cd0 <fxsqrt_ie>)
    38d0:	f03d           	nop.n
    38d2:	0008e0        	callx8	a8
    38d5:	31bfa0        	srai	a11, a10, 31
    38d8:	05c662        	addi	a6, a6, 5
    38db:	f21781        	l32r	a8, 138 (88b0 <__ashldi3>)
    38de:	866d           	ae_sext16	a6, a6
    38e0:	20c660        	or	a12, a6, a6
    38e3:	0008e0        	callx8	a8
    38e6:	080c           	movi.n	a8, 0
    38e8:	004b96        	bltz	a11, 38f0 <fn_pitch_detection+0x26c>
    38eb:	0e2b16        	beqz	a11, 39d1 <fn_pitch_detection+0x34d>

000038ee <fn_pitch_detection+0x26a>:
    38ee:	180c           	movi.n	a8, 1

000038f0 <fn_pitch_detection+0x26c>:
    38f0:	0b7816        	beqz	a8, 39ab <fn_pitch_detection+0x327>

000038f3 <fn_pitch_detection+0x26f>:
    38f3:	213d           	ae_l16si.n	a3, a1, 0

000038f5 <fn_pitch_detection+0x271>:
    38f5:	0e5232        	s16i	a3, a2, 28
    38f8:	180316        	beqz	a3, 3a7c <fn_pitch_detection+0x3f8>
    38fb:	209440        	or	a9, a4, a4
    38fe:	01a182        	movi	a8, 0x101
    3901:	058876        	loop	a8, 390a <fn_pitch_detection+0x286>
    3904:	089282        	l16si	a8, a2, 16
    3907:	09c984        	ae_s16ip	a8, a9, 2

0000390a <fn_pitch_detection+0x286>:
    390a:	0d92e2        	l16si	a14, a2, 26
    390d:	04aff2        	movi	a15, -252
    3910:	f1d9c1        	l32r	a12, 74 (4000 <inear_ast_nr_proc+0x140>)
    3913:	931b           	addi.n	a9, a3, 1
    3915:	b39330        	movgez	a9, a3, a3
    3918:	219190        	srai	a9, a9, 1
    391b:	899d           	ae_sext16	a9, a9
    391d:	d2cc30        	quos	a12, a12, a3
    3920:	acca           	add.n	a10, a12, a12
    3922:	10ccd2        	addi	a13, a12, 16
    3925:	2fccb2        	addi	a11, a12, 47
    3928:	b3bdd0        	movgez	a11, a13, a13
    392b:	21b5b0        	srai	a11, a11, 5
    392e:	8bbd           	ae_sext16	a11, a11
    3930:	908b40        	addx2	a8, a11, a4
    3933:	88fa           	add.n	a8, a8, a15
    3935:	7d58e2        	s16i	a14, a8, 250
    3938:	0992d2        	l16si	a13, a2, 18
    393b:	7e58d2        	s16i	a13, a8, 252
    393e:	0d92e2        	l16si	a14, a2, 26
    3941:	d90b           	addi.n	a13, a9, -1
    3943:	7f58e2        	s16i	a14, a8, 254
    3946:	10ca82        	addi	a8, a10, 16
    3949:	29ad76        	loopgtz	a13, 3976 <fn_pitch_detection+0x2f2>
    394c:	0c92d2        	l16si	a13, a2, 24
    394f:	1fc8b2        	addi	a11, a8, 31
    3952:	b3b880        	movgez	a11, a8, a8
    3955:	21b5b0        	srai	a11, a11, 5
    3958:	8bbd           	ae_sext16	a11, a11
    395a:	909b40        	addx2	a9, a11, a4
    395d:	99fa           	add.n	a9, a9, a15
    395f:	7d59d2        	s16i	a13, a9, 250
    3962:	0792a2        	l16si	a10, a2, 14
    3965:	7e59a2        	s16i	a10, a9, 252
    3968:	0b92e2        	l16si	a14, a2, 22
    396b:	88ca           	add.n	a8, a8, a12
    396d:	0c92d2        	l16si	a13, a2, 24
    3970:	02abe7        	bge	a11, a14, 3976 <fn_pitch_detection+0x2f2>
    3973:	7f59d2        	s16i	a13, a9, 254
    3976:	5b2b           	addi.n	a5, a11, 2
    3978:	fea0e2        	movi	a14, 254
    397b:	112eb7        	blt	a14, a11, 3990 <fn_pitch_detection+0x30c>
    397e:	908540        	addx2	a8, a5, a4
    3981:	f1a691        	l32r	a9, 1c (1000 <inv_mel_filter+0x90>)
    3984:	ffa0a2        	movi	a10, 255
    3987:	c0aab0        	sub	a10, a10, a11
    398a:	02aa76        	loopgtz	a10, 3990 <fn_pitch_detection+0x30c>
    398d:	09c894        	ae_s16ip	a9, a8, 2

00003990 <fn_pitch_detection+0x30c>:
    3990:	032d           	mov.n	a2, a3
    3992:	f01d           	retw.n

00003994 <fn_pitch_detection+0x310>:
    3994:	19aca2        	movi	a10, 0xfffffc19
    3997:	ffcc86        	j	38cd <fn_pitch_detection+0x249>

0000399a <fn_pitch_detection+0x316>:
    399a:	ffa1b2        	movi	a11, 0x1ff
    399d:	022b57        	blt	a11, a5, 39a3 <fn_pitch_detection+0x31f>
    39a0:	ff9c86        	j	3816 <fn_pitch_detection+0x192>
    39a3:	ffb346        	j	3874 <fn_pitch_detection+0x1f0>

000039a6 <fn_pitch_detection+0x322>:
    39a6:	050c           	movi.n	a5, 0
    39a8:	ff9486        	j	37fe <fn_pitch_detection+0x17a>

000039ab <fn_pitch_detection+0x327>:
    39ab:	f19ff1        	l32r	a15, 28 (7fffffff <_end+0x7fff2873>)
    39ae:	0238           	l32i.n	a3, a2, 0
    39b0:	080c           	movi.n	a8, 0
    39b2:	006bd6        	bgez	a11, 39bc <fn_pitch_detection+0x338>
    39b5:	eb1b           	addi.n	a14, a11, 1
    39b7:	0c5e16        	beqz	a14, 3a80 <fn_pitch_detection+0x3fc>

000039ba <fn_pitch_detection+0x336>:
    39ba:	180c           	movi.n	a8, 1

000039bc <fn_pitch_detection+0x338>:
    39bc:	a89c           	beqz.n	a8, 39da <fn_pitch_detection+0x356>
    39be:	f19c81        	l32r	a8, 30 (80000000 <_end+0x7fff2874>)
    39c1:	022837        	blt	a8, a3, 39c7 <fn_pitch_detection+0x343>
    39c4:	ffcac6        	j	38f3 <fn_pitch_detection+0x26f>
    39c7:	12f8           	l32i.n	a15, a2, 4
    39c9:	18a8f7        	bge	a8, a15, 39e5 <fn_pitch_detection+0x361>

000039cc <fn_pitch_detection+0x348>:
    39cc:	030c           	movi.n	a3, 0
    39ce:	ffc8c6        	j	38f5 <fn_pitch_detection+0x271>

000039d1 <fn_pitch_detection+0x34d>:
    39d1:	0237a7        	bltu	a7, a10, 39d7 <fn_pitch_detection+0x353>
    39d4:	ffc606        	j	38f0 <fn_pitch_detection+0x26c>
    39d7:	ffc4c6        	j	38ee <fn_pitch_detection+0x26a>

000039da <fn_pitch_detection+0x356>:
    39da:	022a37        	blt	a10, a3, 39e0 <fn_pitch_detection+0x35c>
    39dd:	ffc486        	j	38f3 <fn_pitch_detection+0x26f>
    39e0:	1288           	l32i.n	a8, a2, 4
    39e2:	e62a87        	blt	a10, a8, 39cc <fn_pitch_detection+0x348>
    39e5:	0e9282        	l16si	a8, a2, 28
    39e8:	fe0816        	beqz	a8, 39cc <fn_pitch_detection+0x348>
    39eb:	213d           	ae_l16si.n	a3, a1, 0
    39ed:	069292        	l16si	a9, a2, 12
    39f0:	c0a830        	sub	a10, a8, a3
    39f3:	60a1a0        	abs	a10, a10
    39f6:	0229a7        	blt	a9, a10, 39fc <fn_pitch_detection+0x378>
    39f9:	ffbe06        	j	38f5 <fn_pitch_detection+0x271>
    39fc:	6188           	l32i.n	a8, a1, 24
    39fe:	090c           	movi.n	a9, 0
    3a00:	14a0a2        	movi	a10, 20
    3a03:	a08380        	addx4	a8, a3, a8
    3a06:	d8c882        	addi	a8, a8, -40
    3a09:	028a76        	loop	a10, 3a0f <fn_pitch_detection+0x38b>
    3a0c:	09e894        	ae_s32ip	a9, a8, 4

00003a0f <fn_pitch_detection+0x38b>:
    3a0f:	0592a2        	l16si	a10, a2, 10
    3a12:	049252        	l16si	a5, a2, 8
    3a15:	70a5a7        	bge	a5, a10, 3a89 <fn_pitch_detection+0x405>
    3a18:	c09a50        	sub	a9, a10, a5
    3a1b:	062182        	l32i	a8, a1, 24
    3a1e:	01a0a2        	movi	a10, 1
    3a21:	5399a0        	max	a9, a9, a10
    3a24:	a08580        	addx4	a8, a5, a8
    3a27:	19aca2        	movi	a10, 0xfffffc19
    3a2a:	0ca976        	loopgtz	a9, 3a3a <fn_pitch_detection+0x3b6>
    3a2d:	08c8           	l32i.n	a12, a8, 0
    3a2f:	884b           	addi.n	a8, a8, 4
    3a31:	03aac7        	bge	a10, a12, 3a38 <fn_pitch_detection+0x3b4>
    3a34:	0cad           	mov.n	a10, a12
    3a36:	853d           	ae_sext16	a3, a5

00003a38 <fn_pitch_detection+0x3b4>:
    3a38:	551b           	addi.n	a5, a5, 1

00003a3a <fn_pitch_detection+0x3b6>:
    3a3a:	f1b181        	l32r	a8, 100 (cd0 <fxsqrt_ie>)
    3a3d:	0008e0        	callx8	a8
    3a40:	f1be81        	l32r	a8, 138 (88b0 <__ashldi3>)
    3a43:	06cd           	mov.n	a12, a6
    3a45:	31bfa0        	srai	a11, a10, 31
    3a48:	0008e0        	callx8	a8
    3a4b:	090c           	movi.n	a9, 0
    3a4d:	00a082        	movi	a8, 0
    3a50:	004b96        	bltz	a11, 3a58 <fn_pitch_detection+0x3d4>
    3a53:	04eb16        	beqz	a11, 3aa5 <fn_pitch_detection+0x421>

00003a56 <fn_pitch_detection+0x3d2>:
    3a56:	180c           	movi.n	a8, 1

00003a58 <fn_pitch_detection+0x3d4>:
    3a58:	38bc           	beqz.n	a8, 3a8f <fn_pitch_detection+0x40b>
    3a5a:	f17381        	l32r	a8, 28 (7fffffff <_end+0x7fff2873>)

00003a5d <fn_pitch_detection+0x3d9>:
    3a5d:	12d8           	l32i.n	a13, a2, 4
    3a5f:	0e92f2        	l16si	a15, a2, 28
    3a62:	0692e2        	l16si	a14, a2, 12
    3a65:	72d8d0        	salt	a13, a8, a13
    3a68:	c0ff30        	sub	a15, a15, a3
    3a6b:	60f1f0        	abs	a15, a15
    3a6e:	72eef0        	salt	a14, a14, a15
    3a71:	9339e0        	movnez	a3, a9, a14
    3a74:	833d           	ae_sext16	a3, a3
    3a76:	9339d0        	movnez	a3, a9, a13
    3a79:	ff9e06        	j	38f5 <fn_pitch_detection+0x271>

00003a7c <fn_pitch_detection+0x3f8>:
    3a7c:	020c           	movi.n	a2, 0
    3a7e:	f01d           	retw.n

00003a80 <fn_pitch_detection+0x3fc>:
    3a80:	02bfa7        	bgeu	a15, a10, 3a86 <fn_pitch_detection+0x402>
    3a83:	ffcd46        	j	39bc <fn_pitch_detection+0x338>
    3a86:	ffcc06        	j	39ba <fn_pitch_detection+0x336>

00003a89 <fn_pitch_detection+0x405>:
    3a89:	19aca2        	movi	a10, 0xfffffc19
    3a8c:	ffea86        	j	3a3a <fn_pitch_detection+0x3b6>

00003a8f <fn_pitch_detection+0x40b>:
    3a8f:	f16671        	l32r	a7, 28 (7fffffff <_end+0x7fff2873>)
    3a92:	060c           	movi.n	a6, 0
    3a94:	004bd6        	bgez	a11, 3a9c <fn_pitch_detection+0x418>
    3a97:	100b26        	beqi	a11, -1, 3aab <fn_pitch_detection+0x427>

00003a9a <fn_pitch_detection+0x416>:
    3a9a:	160c           	movi.n	a6, 1

00003a9c <fn_pitch_detection+0x418>:
    3a9c:	f16581        	l32r	a8, 30 (80000000 <_end+0x7fff2874>)
    3a9f:	838a60        	moveqz	a8, a10, a6
    3aa2:	ffedc6        	j	3a5d <fn_pitch_detection+0x3d9>

00003aa5 <fn_pitch_detection+0x421>:
    3aa5:	afb7a7        	bgeu	a7, a10, 3a58 <fn_pitch_detection+0x3d4>
    3aa8:	ffea86        	j	3a56 <fn_pitch_detection+0x3d2>

00003aab <fn_pitch_detection+0x427>:
    3aab:	ed37a7        	bltu	a7, a10, 3a9c <fn_pitch_detection+0x418>
    3aae:	fffa06        	j	3a9a <fn_pitch_detection+0x416>

00003ab1 <fn_pitch_detection+0x42d>:
    3ab1:	000000                                        ...

00003ab4 <fn_ini_mic_chk_status>:
    3ab4:	004136        	entry	a1, 32
    3ab7:	02ad           	mov.n	a10, a2
    3ab9:	f18381        	l32r	a8, c8 (8808 <xt_memset>)
    3abc:	0b0c           	movi.n	a11, 0
    3abe:	09a0c2        	movi	a12, 9
    3ac1:	0008e0        	callx8	a8
    3ac4:	02ad           	mov.n	a10, a2
    3ac6:	f14f81        	l32r	a8, 4 (8820 <xt_memcpy>)
    3ac9:	03bd           	mov.n	a11, a3
    3acb:	6c0c           	movi.n	a12, 6
    3acd:	0008e0        	callx8	a8
    3ad0:	339d           	ae_l16si.n	a9, a3, 2
    3ad2:	02d992        	addmi	a9, a9, 0x200
    3ad5:	9ac992        	addi	a9, a9, -102
    3ad8:	075292        	s16i	a9, a2, 14
    3adb:	f01d           	retw.n

00003add <fn_ini_mic_chk_status+0x29>:
    3add:	000000                                        ...

00003ae0 <fn_mic_chk_status>:
    3ae0:	006136        	entry	a1, 48
    3ae3:	071626        	beqi	a6, 1, 3aee <fn_mic_chk_status+0xe>

00003ae6 <fn_mic_chk_status+0x6>:
    3ae6:	10d616        	beqz	a6, 3bf7 <fn_mic_chk_status+0x117>
    3ae9:	089222        	l16si	a2, a2, 16
    3aec:	f01d           	retw.n

00003aee <fn_mic_chk_status+0xe>:
    3aee:	f41566        	bnei	a5, 1, 3ae6 <fn_mic_chk_status+0x6>
    3af1:	0a4c           	movi.n	a10, 64
    3af3:	60d304        	ae_lq32f.iu	aeq3, a3, 0
    3af6:	00a282        	movi	a8, 0x200
    3af9:	300884        	ae_cvtp24a16x2.ll	aep0, a8, a8
    3afc:	039d           	mov.n	a9, a3
    3afe:	048d           	mov.n	a8, a4
    3b00:	605804        	ae_lq32f.iu	aeq1, a8, 0
    3b03:	fc24b2010f 	{ ae_sp16f.l.i	aep0, a1, 0; ae_zeroq56	aeq0 }
    3b08:	fe046c010f 	{ ae_lp16f.i	aep0, a1, 0; ae_movq56	aeq2, aeq0 }
    3b0d:	098a76        	loop	a10, 3b1a <fn_mic_chk_status+0x3a>
    3b10:	f483bd381f 	{ ae_lq32f.iu	aeq1, a8, 4; ae_mulafq32sp16s.l	aeq0, aeq1, aep0 }
    3b15:	f783bd791f 	{ ae_lq32f.iu	aeq3, a9, 4; ae_mulafq32sp16s.l	aeq2, aeq3, aep0 }

00003b1a <fn_mic_chk_status+0x3a>:
    3b1a:	f16481        	l32r	a8, ac (d40 <fxlog10>)
    3b1d:	632114        	ae_sq56s.i	aeq2, a1, 8
    3b20:	368a04        	ae_trunca32q48	a10, aeq0
    3b23:	0008e0        	callx8	a8
    3b26:	610114        	ae_lq56.i	aeq0, a1, 8
    3b29:	368904        	ae_trunca32q48	a9, aeq0
    3b2c:	f16081        	l32r	a8, ac (d40 <fxlog10>)
    3b2f:	203aa0        	or	a3, a10, a10
    3b32:	20a990        	or	a10, a9, a9
    3b35:	0008e0        	callx8	a8
    3b38:	c093a0        	sub	a9, a3, a10
    3b3b:	f14631        	l32r	a3, 54 (7fff <xtensa_fft8_32b+0xef>)
    3b3e:	fc24a0228e 	{ l16si	a8, a2, 4; ae_zeroq56	aeq0 }
    3b43:	f15551        	l32r	a5, 98 (ffff7fff <_end+0xfffea873>)
    3b46:	022397        	blt	a3, a9, 3b4c <fn_mic_chk_status+0x6c>
    3b49:	003146        	j	3c12 <fn_mic_chk_status+0x132>
    3b4c:	036d           	mov.n	a6, a3

00003b4e <fn_mic_chk_status+0x6e>:
    3b4e:	039292        	l16si	a9, a2, 6
    3b51:	a08840        	addx4	a8, a8, a4
    3b54:	f132a1        	l32r	a10, 1c (1000 <inv_mel_filter+0x90>)
    3b57:	301aa4        	ae_cvtp24a16x2.ll	aep1, a10, a10
    3b5a:	605804        	ae_lq32f.iu	aeq1, a8, 0
    3b5d:	8a0c           	movi.n	a10, 8
    3b5f:	a09940        	addx4	a9, a9, a4
    3b62:	60d904        	ae_lq32f.iu	aeq3, a9, 0
    3b65:	421114        	ae_sp16f.l.i	aep1, a1, 2
    3b68:	fe046c011f 	{ ae_lp16f.i	aep0, a1, 2; ae_movq56	aeq2, aeq0 }
    3b6d:	098a76        	loop	a10, 3b7a <fn_mic_chk_status+0x9a>
    3b70:	f483bd381f 	{ ae_lq32f.iu	aeq1, a8, 4; ae_mulafq32sp16s.l	aeq0, aeq1, aep0 }
    3b75:	f783bd791f 	{ ae_lq32f.iu	aeq3, a9, 4; ae_mulafq32sp16s.l	aeq2, aeq3, aep0 }

00003b7a <fn_mic_chk_status+0x9a>:
    3b7a:	f14c81        	l32r	a8, ac (d40 <fxlog10>)
    3b7d:	632114        	ae_sq56s.i	aeq2, a1, 8
    3b80:	368a04        	ae_trunca32q48	a10, aeq0
    3b83:	0008e0        	callx8	a8
    3b86:	614114        	ae_lq56.i	aeq1, a1, 8
    3b89:	369904        	ae_trunca32q48	a9, aeq1
    3b8c:	f14881        	l32r	a8, ac (d40 <fxlog10>)
    3b8f:	204aa0        	or	a4, a10, a10
    3b92:	20a990        	or	a10, a9, a9
    3b95:	0008e0        	callx8	a8
    3b98:	0692b2        	l16si	a11, a2, 12
    3b9b:	c094a0        	sub	a9, a4, a10
    3b9e:	79a397        	bge	a3, a9, 3c1b <fn_mic_chk_status+0x13b>
    3ba1:	f12cd1        	l32r	a13, 54 (7fff <xtensa_fft8_32b+0xef>)

00003ba4 <fn_mic_chk_status+0xc4>:
    3ba4:	0492a2        	l16si	a10, a2, 8
    3ba7:	c096b0        	sub	a9, a6, a11
    3baa:	76a397        	bge	a3, a9, 3c24 <fn_mic_chk_status+0x144>
    3bad:	f12991        	l32r	a9, 54 (7fff <xtensa_fft8_32b+0xef>)

00003bb0 <fn_mic_chk_status+0xd0>:
    3bb0:	d19a90        	mul16s	a9, a10, a9
    3bb3:	0792c2        	l16si	a12, a2, 14
    3bb6:	1199f0        	slli	a9, a9, 1
    3bb9:	319090        	srai	a9, a9, 16
    3bbc:	809b90        	add	a9, a11, a9
    3bbf:	c0bdc0        	sub	a11, a13, a12
    3bc2:	67a397        	bge	a3, a9, 3c2d <fn_mic_chk_status+0x14d>
    3bc5:	f12391        	l32r	a9, 54 (7fff <xtensa_fft8_32b+0xef>)

00003bc8 <fn_mic_chk_status+0xe8>:
    3bc8:	065292        	s16i	a9, a2, 12
    3bcb:	0592d2        	l16si	a13, a2, 10
    3bce:	1e0c           	movi.n	a14, 1
    3bd0:	62a3b7        	bge	a3, a11, 3c36 <fn_mic_chk_status+0x156>
    3bd3:	f120b1        	l32r	a11, 54 (7fff <xtensa_fft8_32b+0xef>)

00003bd6 <fn_mic_chk_status+0xf6>:
    3bd6:	d1bdb0        	mul16s	a11, a13, a11
    3bd9:	ed7c           	movi.n	a13, -2
    3bdb:	11bbf0        	slli	a11, a11, 1
    3bde:	31b0b0        	srai	a11, a11, 16
    3be1:	bcba           	add.n	a11, a12, a11
    3be3:	14a3b7        	bge	a3, a11, 3bfb <fn_mic_chk_status+0x11b>
    3be6:	22fd           	ae_l16si.n	a15, a2, 0
    3be8:	075232        	s16i	a3, a2, 14
    3beb:	0892b2        	l16si	a11, a2, 16
    3bee:	4daf97        	bge	a15, a9, 3c3f <fn_mic_chk_status+0x15f>
    3bf1:	209be0        	or	a9, a11, a14
    3bf4:	001286        	j	3c42 <fn_mic_chk_status+0x162>

00003bf7 <fn_mic_chk_status+0x117>:
    3bf7:	420c           	movi.n	a2, 4
    3bf9:	f01d           	retw.n

00003bfb <fn_mic_chk_status+0x11b>:
    3bfb:	7c25b7        	blt	a5, a11, 3c7b <fn_mic_chk_status+0x19b>
    3bfe:	0892b2        	l16si	a11, a2, 16
    3c01:	228d           	ae_l16si.n	a8, a2, 0
    3c03:	f119c1        	l32r	a12, 68 (ffff8000 <_end+0xfffea874>)
    3c06:	0752c2        	s16i	a12, a2, 14
    3c09:	49a897        	bge	a8, a9, 3c56 <fn_mic_chk_status+0x176>
    3c0c:	209be0        	or	a9, a11, a14
    3c0f:	001186        	j	3c59 <fn_mic_chk_status+0x179>

00003c12 <fn_mic_chk_status+0x132>:
    3c12:	782597        	blt	a5, a9, 3c8e <fn_mic_chk_status+0x1ae>
    3c15:	f11461        	l32r	a6, 68 (ffff8000 <_end+0xfffea874>)
    3c18:	ffcc86        	j	3b4e <fn_mic_chk_status+0x6e>

00003c1b <fn_mic_chk_status+0x13b>:
    3c1b:	742597        	blt	a5, a9, 3c93 <fn_mic_chk_status+0x1b3>
    3c1e:	f112d1        	l32r	a13, 68 (ffff8000 <_end+0xfffea874>)
    3c21:	ffdfc6        	j	3ba4 <fn_mic_chk_status+0xc4>

00003c24 <fn_mic_chk_status+0x144>:
    3c24:	702597        	blt	a5, a9, 3c98 <fn_mic_chk_status+0x1b8>
    3c27:	f11091        	l32r	a9, 68 (ffff8000 <_end+0xfffea874>)
    3c2a:	ffe086        	j	3bb0 <fn_mic_chk_status+0xd0>

00003c2d <fn_mic_chk_status+0x14d>:
    3c2d:	6c2597        	blt	a5, a9, 3c9d <fn_mic_chk_status+0x1bd>
    3c30:	f10e91        	l32r	a9, 68 (ffff8000 <_end+0xfffea874>)
    3c33:	ffe446        	j	3bc8 <fn_mic_chk_status+0xe8>

00003c36 <fn_mic_chk_status+0x156>:
    3c36:	6825b7        	blt	a5, a11, 3ca2 <fn_mic_chk_status+0x1c2>
    3c39:	f10bb1        	l32r	a11, 68 (ffff8000 <_end+0xfffea874>)
    3c3c:	ffe586        	j	3bd6 <fn_mic_chk_status+0xf6>

00003c3f <fn_mic_chk_status+0x15f>:
    3c3f:	109bd0        	and	a9, a11, a13

00003c42 <fn_mic_chk_status+0x162>:
    3c42:	32ad           	ae_l16si.n	a10, a2, 2
    3c44:	085292        	s16i	a9, a2, 16
    3c47:	2423a7        	blt	a3, a10, 3c6f <fn_mic_chk_status+0x18f>

00003c4a <fn_mic_chk_status+0x16a>:
    3c4a:	db7c           	movi.n	a11, -3
    3c4c:	1099b0        	and	a9, a9, a11
    3c4f:	085292        	s16i	a9, a2, 16
    3c52:	092d           	mov.n	a2, a9
    3c54:	f01d           	retw.n

00003c56 <fn_mic_chk_status+0x176>:
    3c56:	109bd0        	and	a9, a11, a13

00003c59 <fn_mic_chk_status+0x179>:
    3c59:	32dd           	ae_l16si.n	a13, a2, 2
    3c5b:	085292        	s16i	a9, a2, 16
    3c5e:	e8acd7        	bge	a12, a13, 3c4a <fn_mic_chk_status+0x16a>
    3c61:	000286        	j	3c6f <fn_mic_chk_status+0x18f>

00003c64 <fn_mic_chk_status+0x184>:
    3c64:	109bd0        	and	a9, a11, a13

00003c67 <fn_mic_chk_status+0x187>:
    3c67:	32ed           	ae_l16si.n	a14, a2, 2
    3c69:	085292        	s16i	a9, a2, 16
    3c6c:	daace7        	bge	a12, a14, 3c4a <fn_mic_chk_status+0x16a>

00003c6f <fn_mic_chk_status+0x18f>:
    3c6f:	2f0c           	movi.n	a15, 2
    3c71:	2099f0        	or	a9, a9, a15
    3c74:	085292        	s16i	a9, a2, 16
    3c77:	092d           	mov.n	a2, a9
    3c79:	f01d           	retw.n

00003c7b <fn_mic_chk_status+0x19b>:
    3c7b:	8bcd           	ae_sext16	a12, a11
    3c7d:	228d           	ae_l16si.n	a8, a2, 0
    3c7f:	0752c2        	s16i	a12, a2, 14
    3c82:	0892b2        	l16si	a11, a2, 16
    3c85:	dba897        	bge	a8, a9, 3c64 <fn_mic_chk_status+0x184>
    3c88:	209be0        	or	a9, a11, a14
    3c8b:	fff606        	j	3c67 <fn_mic_chk_status+0x187>

00003c8e <fn_mic_chk_status+0x1ae>:
    3c8e:	896d           	ae_sext16	a6, a9
    3c90:	ffae86        	j	3b4e <fn_mic_chk_status+0x6e>

00003c93 <fn_mic_chk_status+0x1b3>:
    3c93:	89dd           	ae_sext16	a13, a9
    3c95:	ffc2c6        	j	3ba4 <fn_mic_chk_status+0xc4>

00003c98 <fn_mic_chk_status+0x1b8>:
    3c98:	899d           	ae_sext16	a9, a9
    3c9a:	ffc486        	j	3bb0 <fn_mic_chk_status+0xd0>

00003c9d <fn_mic_chk_status+0x1bd>:
    3c9d:	899d           	ae_sext16	a9, a9
    3c9f:	ffc946        	j	3bc8 <fn_mic_chk_status+0xe8>

00003ca2 <fn_mic_chk_status+0x1c2>:
    3ca2:	8bbd           	ae_sext16	a11, a11
    3ca4:	ffcb86        	j	3bd6 <fn_mic_chk_status+0xf6>

00003ca7 <fn_mic_chk_status+0x1c7>:
	...

00003ca8 <fn_get_airdump>:
    3ca8:	004136        	entry	a1, 32
    3cab:	38d242        	addmi	a4, a2, 0x3800
    3cae:	3cd282        	addmi	a8, a2, 0x3c00
    3cb1:	7b2892        	l32i	a9, a8, 0x1ec
    3cb4:	7a2882        	l32i	a8, a8, 0x1e8
    3cb7:	025392        	s16i	a9, a3, 4
    3cba:	319090        	srai	a9, a9, 16
    3cbd:	638d           	ae_s16i.n	a8, a3, 0
    3cbf:	035392        	s16i	a9, a3, 6
    3cc2:	318080        	srai	a8, a8, 16
    3cc5:	738d           	ae_s16i.n	a8, a3, 2
    3cc7:	b19452        	l16si	a5, a4, 0x162
    3cca:	045352        	s16i	a5, a3, 8
    3ccd:	b09442        	l16si	a4, a4, 0x160
    3cd0:	055342        	s16i	a4, a3, 10
    3cd3:	f01d           	retw.n

00003cd5 <fn_get_airdump+0x2d>:
    3cd5:	000000                                        ...

00003cd8 <fn_ini_inear_ast_nr>:
    3cd8:	022136        	entry	a1, 0x110
    3cdb:	02ad           	mov.n	a10, a2
    3cdd:	f0fa81        	l32r	a8, c8 (8808 <xt_memset>)
    3ce0:	00a0b2        	movi	a11, 0
    3ce3:	f116c1        	l32r	a12, 13c (1f1c <fn_calc_sup_gain+0x1c8>)
    3ce6:	0008e0        	callx8	a8
    3ce9:	01ad           	mov.n	a10, a1
    3ceb:	f0c681        	l32r	a8, 4 (8820 <xt_memcpy>)
    3cee:	03bd           	mov.n	a11, a3
    3cf0:	04a0c2        	movi	a12, 4
    3cf3:	0008e0        	callx8	a8
    3cf6:	a18b           	addi.n	a10, a1, 8
    3cf8:	f0c381        	l32r	a8, 4 (8820 <xt_memcpy>)
    3cfb:	08c3b2        	addi	a11, a3, 8
    3cfe:	04a0c2        	movi	a12, 4
    3d01:	0008e0        	callx8	a8
    3d04:	10c1a2        	addi	a10, a1, 16
    3d07:	f0bf81        	l32r	a8, 4 (8820 <xt_memcpy>)
    3d0a:	54c3b2        	addi	a11, a3, 84
    3d0d:	14a0c2        	movi	a12, 20
    3d10:	0008e0        	callx8	a8
    3d13:	38c1a2        	addi	a10, a1, 56
    3d16:	f0bb81        	l32r	a8, 4 (8820 <xt_memcpy>)
    3d19:	7cc3b2        	addi	a11, a3, 124
    3d1c:	14a0c2        	movi	a12, 20
    3d1f:	0008e0        	callx8	a8
    3d22:	60c1a2        	addi	a10, a1, 96
    3d25:	0ca0c2        	movi	a12, 12
    3d28:	f0b781        	l32r	a8, 4 (8820 <xt_memcpy>)
    3d2b:	01d3b2        	addmi	a11, a3, 0x100
    3d2e:	a4cbb2        	addi	a11, a11, -92
    3d31:	0008e0        	callx8	a8
    3d34:	78c1a2        	addi	a10, a1, 120
    3d37:	cc0c           	movi.n	a12, 12
    3d39:	f0b281        	l32r	a8, 4 (8820 <xt_memcpy>)
    3d3c:	01d3b2        	addmi	a11, a3, 0x100
    3d3f:	bccbb2        	addi	a11, a11, -68
    3d42:	0008e0        	callx8	a8
    3d45:	10c3b2        	addi	a11, a3, 16
    3d48:	8c1c           	movi.n	a12, 24
    3d4a:	f0ae81        	l32r	a8, 4 (8820 <xt_memcpy>)
    3d4d:	7fc1a2        	addi	a10, a1, 127
    3d50:	11caa2        	addi	a10, a10, 17
    3d53:	0008e0        	callx8	a8
    3d56:	0ea0c2        	movi	a12, 14
    3d59:	01d3b2        	addmi	a11, a3, 0x100
    3d5c:	7fc1a2        	addi	a10, a1, 127
    3d5f:	f0a981        	l32r	a8, 4 (8820 <xt_memcpy>)
    3d62:	41caa2        	addi	a10, a10, 65
    3d65:	e4cbb2        	addi	a11, a11, -28
    3d68:	0008e0        	callx8	a8
    3d6b:	01d3b2        	addmi	a11, a3, 0x100
    3d6e:	06a0c2        	movi	a12, 6
    3d71:	f0a481        	l32r	a8, 4 (8820 <xt_memcpy>)
    3d74:	7fc1a2        	addi	a10, a1, 127
    3d77:	5dcaa2        	addi	a10, a10, 93
    3d7a:	0008e0        	callx8	a8
    3d7d:	40c3b2        	addi	a11, a3, 64
    3d80:	9c0c           	movi.n	a12, 9
    3d82:	f0a081        	l32r	a8, 4 (8820 <xt_memcpy>)
    3d85:	04d2a2        	addmi	a10, a2, 0x400
    3d88:	78caa2        	addi	a10, a10, 120
    3d8b:	0008e0        	callx8	a8
    3d8e:	07a0c2        	movi	a12, 7
    3d91:	05d2a2        	addmi	a10, a2, 0x500
    3d94:	01d3b2        	addmi	a11, a3, 0x100
    3d97:	f09b81        	l32r	a8, 4 (8820 <xt_memcpy>)
    3d9a:	d4cbb2        	addi	a11, a11, -44
    3d9d:	8acaa2        	addi	a10, a10, -118
    3da0:	0008e0        	callx8	a8
    3da3:	b56b           	addi.n	a11, a5, 6
    3da5:	f09781        	l32r	a8, 4 (8820 <xt_memcpy>)
    3da8:	02ad           	mov.n	a10, a2
    3daa:	fea0c2        	movi	a12, 254
    3dad:	0008e0        	callx8	a8
    3db0:	06c4b2        	addi	a11, a4, 6
    3db3:	fea0c2        	movi	a12, 254
    3db6:	f09381        	l32r	a8, 4 (8820 <xt_memcpy>)
    3db9:	02d2a2        	addmi	a10, a2, 0x200
    3dbc:	fccaa2        	addi	a10, a10, -4
    3dbf:	0008e0        	callx8	a8
    3dc2:	b62b           	addi.n	a11, a6, 2
    3dc4:	40a0c2        	movi	a12, 64
    3dc7:	f08f81        	l32r	a8, 4 (8820 <xt_memcpy>)
    3dca:	04d2a2        	addmi	a10, a2, 0x400
    3dcd:	f8caa2        	addi	a10, a10, -8
    3dd0:	0008e0        	callx8	a8
    3dd3:	3ed282        	addmi	a8, a2, 0x3e00
    3dd6:	64a092        	movi	a9, 100
    3dd9:	6dd232        	addmi	a3, a2, 0x6d00
    3ddc:	05d2a2        	addmi	a10, a2, 0x500
    3ddf:	a0caa2        	addi	a10, a10, -96
    3de2:	98c332        	addi	a3, a3, -104
    3de5:	175892        	s16i	a9, a8, 46
    3de8:	03d292        	addmi	a9, a2, 0x300
    3deb:	38c882        	addi	a8, a8, 56
    3dee:	666982        	s32i	a8, a9, 0x198
    3df1:	f0d381        	l32r	a8, 140 (1944 <fn_ini_analysis_frame>)
    3df4:	03bd           	mov.n	a11, a3
    3df6:	676932        	s32i	a3, a9, 0x19c
    3df9:	0008e0        	callx8	a8
    3dfc:	03bd           	mov.n	a11, a3
    3dfe:	f0d081        	l32r	a8, 140 (1944 <fn_ini_analysis_frame>)
    3e01:	0cd2a2        	addmi	a10, a2, 0xc00
    3e04:	30caa2        	addi	a10, a10, 48
    3e07:	0008e0        	callx8	a8
    3e0a:	03bd           	mov.n	a11, a3
    3e0c:	f0ce81        	l32r	a8, 144 (1aa4 <fn_ini_syn_frame>)
    3e0f:	14d2a2        	addmi	a10, a2, 0x1400
    3e12:	c0caa2        	addi	a10, a10, -64
    3e15:	0008e0        	callx8	a8
    3e18:	03bd           	mov.n	a11, a3
    3e1a:	f0ca81        	l32r	a8, 144 (1aa4 <fn_ini_syn_frame>)
    3e1d:	18d2a2        	addmi	a10, a2, 0x1800
    3e20:	90caa2        	addi	a10, a10, -112
    3e23:	0008e0        	callx8	a8
    3e26:	03cd           	mov.n	a12, a3
    3e28:	7fc1b2        	addi	a11, a1, 127
    3e2b:	39d2a2        	addmi	a10, a2, 0x3900
    3e2e:	f0c681        	l32r	a8, 148 (28dc <fn_ini_win_detection>)
    3e31:	30caa2        	addi	a10, a10, 48
    3e34:	11cbb2        	addi	a11, a11, 17
    3e37:	0008e0        	callx8	a8
    3e3a:	03cd           	mov.n	a12, a3
    3e3c:	7fc1b2        	addi	a11, a1, 127
    3e3f:	3ed2a2        	addmi	a10, a2, 0x3e00
    3e42:	f0c281        	l32r	a8, 14c (3664 <fn_ini_pitch_detection>)
    3e45:	f8caa2        	addi	a10, a10, -8
    3e48:	41cbb2        	addi	a11, a11, 65
    3e4b:	0008e0        	callx8	a8
    3e4e:	7fc1b2        	addi	a11, a1, 127
    3e51:	3ed2a2        	addmi	a10, a2, 0x3e00
    3e54:	f0bf81        	l32r	a8, 150 (3ab4 <fn_ini_mic_chk_status>)
    3e57:	1ccaa2        	addi	a10, a10, 28
    3e5a:	5dcbb2        	addi	a11, a11, 93
    3e5d:	0008e0        	callx8	a8
    3e60:	01bd           	mov.n	a11, a1
    3e62:	03cd           	mov.n	a12, a3
    3e64:	f0bc81        	l32r	a8, 154 (1d20 <fn_ini_calc_sup_gain>)
    3e67:	1bd2a2        	addmi	a10, a2, 0x1b00
    3e6a:	60caa2        	addi	a10, a10, 96
    3e6d:	0008e0        	callx8	a8
    3e70:	03cd           	mov.n	a12, a3
    3e72:	b18b           	addi.n	a11, a1, 8
    3e74:	f0b881        	l32r	a8, 154 (1d20 <fn_ini_calc_sup_gain>)
    3e77:	1fd2a2        	addmi	a10, a2, 0x1f00
    3e7a:	70caa2        	addi	a10, a10, 112
    3e7d:	0008e0        	callx8	a8
    3e80:	38c1b2        	addi	a11, a1, 56
    3e83:	f0b581        	l32r	a8, 158 (1414 <fn_ini_st_noise_est>)
    3e86:	2ad2a2        	addmi	a10, a2, 0x2a00
    3e89:	3ccaa2        	addi	a10, a10, 60
    3e8c:	0008e0        	callx8	a8
    3e8f:	10c1b2        	addi	a11, a1, 16
    3e92:	f0b181        	l32r	a8, 158 (1414 <fn_ini_st_noise_est>)
    3e95:	24d2a2        	addmi	a10, a2, 0x2400
    3e98:	80caa2        	addi	a10, a10, -128
    3e9b:	0008e0        	callx8	a8
    3e9e:	78c1b2        	addi	a11, a1, 120
    3ea1:	f0ae81        	l32r	a8, 15c (1320 <fn_ini_fb_noise_est>)
    3ea4:	35d2a2        	addmi	a10, a2, 0x3500
    3ea7:	14caa2        	addi	a10, a10, 20
    3eaa:	0008e0        	callx8	a8
    3ead:	60c1b2        	addi	a11, a1, 96
    3eb0:	f0ab81        	l32r	a8, 15c (1320 <fn_ini_fb_noise_est>)
    3eb3:	31d2a2        	addmi	a10, a2, 0x3100
    3eb6:	f8caa2        	addi	a10, a10, -8
    3eb9:	0008e0        	callx8	a8
    3ebc:	f01d           	retw.n

00003ebe <fn_ini_inear_ast_nr+0x1e6>:
	...

00003ec0 <inear_ast_nr_proc>:
    3ec0:	012136        	entry	a1, 144
    3ec3:	e149           	s32i.n	a4, a1, 56
    3ec5:	d169           	s32i.n	a6, a1, 52
    3ec7:	c159           	s32i.n	a5, a1, 48
    3ec9:	05d2a2        	addmi	a10, a2, 0x500
    3ecc:	03bd           	mov.n	a11, a3
    3ece:	f179           	s32i.n	a7, a1, 60
    3ed0:	03d232        	addmi	a3, a2, 0x300
    3ed3:	c393d2        	l16si	a13, a3, 0x186
    3ed6:	662372        	l32i	a7, a3, 0x198
    3ed9:	a0caa2        	addi	a10, a10, -96
    3edc:	04d0d0        	extui	a13, a13, 0, 1
    3edf:	18d792        	addmi	a9, a7, 0x1800
    3ee2:	20d7f2        	addmi	a15, a7, 0x2000
    3ee5:	28d7c2        	addmi	a12, a7, 0x2800
    3ee8:	24d7e2        	addmi	a14, a7, 0x2400
    3eeb:	1cd782        	addmi	a8, a7, 0x1c00
    3eee:	14d752        	addmi	a5, a7, 0x1400
    3ef1:	10d762        	addmi	a6, a7, 0x1000
    3ef4:	08d742        	addmi	a4, a7, 0x800
    3ef7:	10c442        	addi	a4, a4, 16
    3efa:	20c662        	addi	a6, a6, 32
    3efd:	28c552        	addi	a5, a5, 40
    3f00:	38c882        	addi	a8, a8, 56
    3f03:	48cee2        	addi	a14, a14, 72
    3f06:	50ccc2        	addi	a12, a12, 80
    3f09:	40cff2        	addi	a15, a15, 64
    3f0c:	30c992        	addi	a9, a9, 48
    3f0f:	136192        	s32i	a9, a1, 76
    3f12:	1461f2        	s32i	a15, a1, 80
    3f15:	1561c2        	s32i	a12, a1, 84
    3f18:	a1e9           	s32i.n	a14, a1, 40
    3f1a:	116182        	s32i	a8, a1, 68
    3f1d:	f09181        	l32r	a8, 164 (195c <fn_analysis_frame>)
    3f20:	f090e1        	l32r	a14, 160 (800 <RX_ECNR_PARA_init+0x58>)
    3f23:	07cd           	mov.n	a12, a7
    3f25:	0008e0        	callx8	a8
    3f28:	c893e2        	l16si	a14, a3, 0x190
    3f2b:	c393f2        	l16si	a15, a3, 0x186
    3f2e:	0cd2a2        	addmi	a10, a2, 0xc00
    3f31:	30caa2        	addi	a10, a10, 48
    3f34:	04d0f0        	extui	a13, a15, 0, 1
    3f37:	116f37        	bbci	a15, 3, 3f4c <inear_ast_nr_proc+0x8c>
    3f3a:	e1b8           	l32i.n	a11, a1, 56
    3f3c:	04cd           	mov.n	a12, a4
    3f3e:	f08981        	l32r	a8, 164 (195c <fn_analysis_frame>)
    3f41:	60e0e0        	neg	a14, a14
    3f44:	8eed           	ae_sext16	a14, a14
    3f46:	0008e0        	callx8	a8
    3f49:	000246        	j	3f56 <inear_ast_nr_proc+0x96>

00003f4c <inear_ast_nr_proc+0x8c>:
    3f4c:	f08681        	l32r	a8, 164 (195c <fn_analysis_frame>)
    3f4f:	e1b8           	l32i.n	a11, a1, 56
    3f51:	04cd           	mov.n	a12, a4
    3f53:	0008e0        	callx8	a8

00003f56 <inear_ast_nr_proc+0x96>:
    3f56:	07ad           	mov.n	a10, a7
    3f58:	06bd           	mov.n	a11, a6
    3f5a:	f06e81        	l32r	a8, 114 (2d78 <fn_calc_pow>)
    3f5d:	00a0c2        	movi	a12, 0
    3f60:	01a1d2        	movi	a13, 0x101
    3f63:	0008e0        	callx8	a8
    3f66:	04ad           	mov.n	a10, a4
    3f68:	05bd           	mov.n	a11, a5
    3f6a:	f06a81        	l32r	a8, 114 (2d78 <fn_calc_pow>)
    3f6d:	0c0c           	movi.n	a12, 0
    3f6f:	01a1d2        	movi	a13, 0x101
    3f72:	0008e0        	callx8	a8
    3f75:	05bd           	mov.n	a11, a5
    3f77:	1121c2        	l32i	a12, a1, 68
    3f7a:	f07b81        	l32r	a8, 168 (1488 <fn_st_noise_est>)
    3f7d:	2ad2a2        	addmi	a10, a2, 0x2a00
    3f80:	3ccaa2        	addi	a10, a10, 60
    3f83:	0008e0        	callx8	a8
    3f86:	06bd           	mov.n	a11, a6
    3f88:	1321c2        	l32i	a12, a1, 76
    3f8b:	106142        	s32i	a4, a1, 64
    3f8e:	f07681        	l32r	a8, 168 (1488 <fn_st_noise_est>)
    3f91:	24d2a2        	addmi	a10, a2, 0x2400
    3f94:	80caa2        	addi	a10, a10, -128
    3f97:	0008e0        	callx8	a8
    3f9a:	c693b2        	l16si	a11, a3, 0x18c
    3f9d:	f198           	l32i.n	a9, a1, 60
    3f9f:	3dd2e2        	addmi	a14, a2, 0x3d00
    3fa2:	3ed2f2        	addmi	a15, a2, 0x3e00
    3fa5:	39d2a2        	addmi	a10, a2, 0x3900
    3fa8:	30caa2        	addi	a10, a10, 48
    3fab:	30cff2        	addi	a15, a15, 48
    3fae:	34ce42        	addi	a4, a14, 52
    3fb1:	4a29b7        	blt	a9, a11, 3fff <inear_ast_nr_proc+0x13f>
    3fb4:	979eb2        	l16si	a11, a14, 0x12e
    3fb7:	c793c2        	l16si	a12, a3, 0x18e
    3fba:	bb1b           	addi.n	a11, a11, 1
    3fbc:	8bbd           	ae_sext16	a11, a11
    3fbe:	975eb2        	s16i	a11, a14, 0x12e
    3fc1:	162bc7        	blt	a11, a12, 3fdb <inear_ast_nr_proc+0x11b>
    3fc4:	07bd           	mov.n	a11, a7
    3fc6:	1021c2        	l32i	a12, a1, 64
    3fc9:	05dd           	mov.n	a13, a5
    3fcb:	10c1e2        	addi	a14, a1, 16
    3fce:	f06781        	l32r	a8, 16c (2914 <fn_win_detection>)
    3fd1:	190c           	movi.n	a9, 1
    3fd3:	0199           	s32i.n	a9, a1, 0
    3fd5:	0008e0        	callx8	a8
    3fd8:	000506        	j	3ff0 <inear_ast_nr_proc+0x130>

00003fdb <inear_ast_nr_proc+0x11b>:
    3fdb:	07bd           	mov.n	a11, a7
    3fdd:	1021c2        	l32i	a12, a1, 64
    3fe0:	05dd           	mov.n	a13, a5
    3fe2:	10c1e2        	addi	a14, a1, 16
    3fe5:	f06181        	l32r	a8, 16c (2914 <fn_win_detection>)
    3fe8:	090c           	movi.n	a9, 0
    3fea:	006192        	s32i	a9, a1, 0
    3fed:	0008e0        	callx8	a8

00003ff0 <inear_ast_nr_proc+0x130>:
    3ff0:	7d94a2        	l16si	a10, a4, 250
    3ff3:	64a0e2        	movi	a14, 100
    3ff6:	20aea7        	bge	a14, a10, 401a <inear_ast_nr_proc+0x15a>
    3ff9:	7d54e2        	s16i	a14, a4, 250
    3ffc:	000686        	j	401a <inear_ast_nr_proc+0x15a>

00003fff <inear_ast_nr_proc+0x13f>:
    3fff:	07bd           	mov.n	a11, a7
    4001:	1021c2        	l32i	a12, a1, 64
    4004:	05dd           	mov.n	a13, a5
    4006:	10c1e2        	addi	a14, a1, 16
    4009:	f05881        	l32r	a8, 16c (2914 <fn_win_detection>)
    400c:	00a092        	movi	a9, 0
    400f:	006192        	s32i	a9, a1, 0
    4012:	0008e0        	callx8	a8
    4015:	0a0c           	movi.n	a10, 0
    4017:	7d54a2        	s16i	a10, a4, 250

0000401a <inear_ast_nr_proc+0x15a>:
    401a:	c493f2        	l16si	a15, a3, 0x188
    401d:	30d2e2        	addmi	a14, a2, 0x3000
    4020:	7a9ee2        	l16si	a14, a14, 244
    4023:	0891d2        	l16si	a13, a1, 16
    4026:	0c0c           	movi.n	a12, 0
    4028:	72eef0        	salt	a14, a14, a15
    402b:	93dce0        	movnez	a13, a12, a14
    402e:	0851d2        	s16i	a13, a1, 16
    4031:	c393b2        	l16si	a11, a3, 0x186
    4034:	04b9b0        	extui	a11, a11, 9, 1
    4037:	360b56        	bnez	a11, 439b <inear_ast_nr_proc+0x4db>
    403a:	0a0c           	movi.n	a10, 0
    403c:	0f0c           	movi.n	a15, 0
    403e:	7f54f2        	s16i	a15, a4, 254

00004041 <inear_ast_nr_proc+0x181>:
    4041:	2f0c           	movi.n	a15, 2
    4043:	f04cc1        	l32r	a12, 174 (3df8 <fn_ini_inear_ast_nr+0x120>)
    4046:	089182        	l16si	a8, a1, 16
    4049:	04b1a0        	extui	a11, a10, 1, 1
    404c:	190c           	movi.n	a9, 1
    404e:	9389b0        	movnez	a8, a9, a11
    4051:	085182        	s16i	a8, a1, 16
    4054:	056a07        	bbci	a10, 0, 405d <inear_ast_nr_proc+0x19d>
    4057:	7e54f2        	s16i	a15, a4, 252
    405a:	7f94a2        	l16si	a10, a4, 254

0000405d <inear_ast_nr_proc+0x19d>:
    405d:	f044f1        	l32r	a15, 170 (1b60 <fn_syn_frame+0xa4>)
    4060:	0dea27        	bbsi	a10, 2, 4071 <inear_ast_nr_proc+0x1b1>
    4063:	0481a0        	extui	a8, a10, 1, 1
    4066:	1fc816        	beqz	a8, 4266 <inear_ast_nr_proc+0x3a6>
    4069:	7e9492        	l16si	a9, a4, 252
    406c:	f03d           	nop.n
    406e:	1f4956        	bnez	a9, 4266 <inear_ast_nr_proc+0x3a6>

00004071 <inear_ast_nr_proc+0x1b1>:
    4071:	c393a2        	l16si	a10, a3, 0x186
    4074:	04a6a0        	extui	a10, a10, 6, 1
    4077:	375a56        	bnez	a10, 43f0 <inear_ast_nr_proc+0x530>
    407a:	0c0c           	movi.n	a12, 0

0000407c <inear_ast_nr_proc+0x1bc>:
    407c:	c193e2        	l16si	a14, a3, 0x182
    407f:	80a2f0        	add	a10, a2, a15
    4082:	0861c2        	s32i	a12, a1, 32
    4085:	381e16        	beqz	a14, 440a <inear_ast_nr_proc+0x54a>
    4088:	1321c2        	l32i	a12, a1, 76
    408b:	20b660        	or	a11, a6, a6
    408e:	1521d2        	l32i	a13, a1, 84
    4091:	f03981        	l32r	a8, 178 (22d4 <fn_calc_jnd_gain>)
    4094:	ffcee2        	addi	a14, a14, -1
    4097:	8eed           	ae_sext16	a14, a14
    4099:	0008e0        	callx8	a8

0000409c <inear_ast_nr_proc+0x1dc>:
    409c:	1421a2        	l32i	a10, a1, 80
    409f:	efd981        	l32r	a8, 4 (8820 <xt_memcpy>)
    40a2:	07bd           	mov.n	a11, a7
    40a4:	04a4c2        	movi	a12, 0x404
    40a7:	0008e0        	callx8	a8
    40aa:	152192        	l32i	a9, a1, 84
    40ad:	02d992        	addmi	a9, a9, 0x200
    40b0:	994b           	addi.n	a9, a9, 4
    40b2:	126192        	s32i	a9, a1, 72

000040b5 <inear_ast_nr_proc+0x1f5>:
    40b5:	0891b2        	l16si	a11, a1, 16
    40b8:	bb0b           	addi.n	a11, a11, -1
    40ba:	2f8b16        	beqz	a11, 43b6 <inear_ast_nr_proc+0x4f6>

000040bd <inear_ast_nr_proc+0x1fd>:
    40bd:	0d0c           	movi.n	a13, 0
    40bf:	01a1a2        	movi	a10, 0x101
    40c2:	152192        	l32i	a9, a1, 84
    40c5:	078d           	mov.n	a8, a7
    40c7:	5c8804        	ae_lp24x2f.iu	aep0, a8, 0
    40ca:	409904        	ae_lp16f.iu	aep1, a9, 0
    40cd:	178a76        	loop	a10, 40e8 <inear_ast_nr_proc+0x228>
    40d0:	010174        	ae_mulfp24s.ll	aeq0, aep0, aep1
    40d3:	010954        	ae_mulfp24s.hl	aeq1, aep0, aep1
    40d6:	1b8d04        	ae_roundsp24q48asym	aep0, aeq0
    40d9:	1b9d14        	ae_roundsp24q48asym	aep1, aeq1
    40dc:	1a9884        	ae_selp24.hh	aep0, aep1, aep0
    40df:	5e8804        	ae_sp24x2f.iu	aep0, a8, 0
    40e2:	5c8814        	ae_lp24x2f.iu	aep0, a8, 8
    40e5:	409914        	ae_lp16f.iu	aep1, a9, 2

000040e8 <inear_ast_nr_proc+0x228>:
    40e8:	7e94f2        	l16si	a15, a4, 252
    40eb:	1021a2        	l32i	a10, a1, 64
    40ee:	18c7c2        	addi	a12, a7, 24
    40f1:	b1c9           	s32i.n	a12, a1, 44
    40f3:	18cae2        	addi	a14, a10, 24
    40f6:	07d9           	s32i.n	a13, a7, 0
    40f8:	17d9           	s32i.n	a13, a7, 4
    40fa:	1ad9           	s32i.n	a13, a10, 4
    40fc:	0ad9           	s32i.n	a13, a10, 0
    40fe:	37d9           	s32i.n	a13, a7, 12
    4100:	27d9           	s32i.n	a13, a7, 8
    4102:	3ad9           	s32i.n	a13, a10, 12
    4104:	2ad9           	s32i.n	a13, a10, 8
    4106:	57d9           	s32i.n	a13, a7, 20
    4108:	47d9           	s32i.n	a13, a7, 16
    410a:	4ad9           	s32i.n	a13, a10, 16
    410c:	5ad9           	s32i.n	a13, a10, 20
    410e:	048f16        	beqz	a15, 415a <inear_ast_nr_proc+0x29a>
    4111:	02d282        	addmi	a8, a2, 0x200
    4114:	c393f2        	l16si	a15, a3, 0x186
    4117:	fcc882        	addi	a8, a8, -4
    411a:	9189           	s32i.n	a8, a1, 36
    411c:	04f8f0        	extui	a15, a15, 8, 1
    411f:	2f8f56        	bnez	a15, 441b <inear_ast_nr_proc+0x55b>
    4122:	fea0a2        	movi	a10, 254
    4125:	092192        	l32i	a9, a1, 36
    4128:	208ee0        	or	a8, a14, a14
    412b:	5c8804        	ae_lp24x2f.iu	aep0, a8, 0
    412e:	409904        	ae_lp16f.iu	aep1, a9, 0
    4131:	228a76        	loop	a10, 4157 <inear_ast_nr_proc+0x297>
    4134:	010144        	ae_mulfp24s.hh	aeq0, aep0, aep1
    4137:	010974        	ae_mulfp24s.ll	aeq1, aep0, aep1
    413a:	3600d4        	ae_sllisq56s	aeq0, aeq0, 3

0000413d <inear_ast_nr_proc+0x27d>:
    413d:	fd00fad03f 	{ ae_sllisq56s	aeq0, aeq1, 3; ae_satq48s	aeq1, aeq0 }
    4142:	060844        	ae_satq48s	aeq0, aeq0
    4145:	1b8d14        	ae_roundsp24q48asym	aep1, aeq0
    4148:	1b9d04        	ae_roundsp24q48asym	aep0, aeq1
    414b:	1a8994        	ae_selp24.hh	aep1, aep0, aep1
    414e:	5e9804        	ae_sp24x2f.iu	aep1, a8, 0
    4151:	409914        	ae_lp16f.iu	aep1, a9, 2
    4154:	5c8814        	ae_lp24x2f.iu	aep0, a8, 8

00004157 <inear_ast_nr_proc+0x297>:
    4157:	7e94f2        	l16si	a15, a4, 252

0000415a <inear_ast_nr_proc+0x29a>:
    415a:	9f0b           	addi.n	a9, a15, -1
    415c:	44f916        	beqz	a9, 45af <inear_ast_nr_proc+0x6ef>
    415f:	442f66        	bnei	a15, 2, 41a7 <inear_ast_nr_proc+0x2e7>
    4162:	102192        	l32i	a9, a1, 64
    4165:	c093b2        	l16si	a11, a3, 0x180
    4168:	302bb4        	ae_cvtp24a16x2.ll	aep2, a11, a11
    416b:	5cb904        	ae_lp24x2f.iu	aep3, a9, 0
    416e:	013a74        	ae_mulfp24s.ll	aeq1, aep3, aep2
    4171:	013244        	ae_mulfp24s.hh	aeq0, aep3, aep2
    4174:	f86fc100af 	{ movi	a10, 0x100; ae_roundsp24q48asym	aep1, aeq1 }
    4179:	f86793877f 	{ or	a8, a7, a7; ae_roundsp24q48asym	aep0, aeq0 }
    417e:	dc212f980f 	{ ae_lp24x2f.iu	aep1, a8, 0; ae_selp24.hh	aep0, aep0, aep1 }
    4183:	5e8804        	ae_sp24x2f.iu	aep0, a8, 0
    4186:	5c8914        	ae_lp24x2f.iu	aep0, a9, 8
    4189:	f03d           	nop.n
    418b:	f03d           	nop.n
    418d:	168a76        	loop	a10, 41a7 <inear_ast_nr_proc+0x2e7>
    4190:	ea41af981f 	{ ae_lp24x2f.iu	aep1, a8, 8; ae_mulfp24s.ll	aeq0, aep0, aep2 }
    4195:	010a44        	ae_mulfp24s.hh	aeq1, aep0, aep2
    4198:	1b8d14        	ae_roundsp24q48asym	aep1, aeq0
    419b:	1b9d04        	ae_roundsp24q48asym	aep0, aeq1
    419e:	1a8994        	ae_selp24.hh	aep1, aep0, aep1
    41a1:	5e9804        	ae_sp24x2f.iu	aep1, a8, 0
    41a4:	5c8914        	ae_lp24x2f.iu	aep0, a9, 8

000041a7 <inear_ast_nr_proc+0x2e7>:
    41a7:	07bd           	mov.n	a11, a7
    41a9:	fea0a2        	movi	a10, 254
    41ac:	b188           	l32i.n	a8, a1, 44
    41ae:	029d           	mov.n	a9, a2
    41b0:	409904        	ae_lp16f.iu	aep1, a9, 0
    41b3:	5c8804        	ae_lp24x2f.iu	aep0, a8, 0
    41b6:	228a76        	loop	a10, 41dc <inear_ast_nr_proc+0x31c>
    41b9:	010154        	ae_mulfp24s.hl	aeq0, aep0, aep1
    41bc:	010974        	ae_mulfp24s.ll	aeq1, aep0, aep1
    41bf:	3600d4        	ae_sllisq56s	aeq0, aeq0, 3
    41c2:	fd00fad03f 	{ ae_sllisq56s	aeq0, aeq1, 3; ae_satq48s	aeq1, aeq0 }
    41c7:	060844        	ae_satq48s	aeq0, aeq0
    41ca:	1b8d04        	ae_roundsp24q48asym	aep0, aeq0
    41cd:	1b9d14        	ae_roundsp24q48asym	aep1, aeq1
    41d0:	1a9884        	ae_selp24.hh	aep0, aep1, aep0
    41d3:	5e8804        	ae_sp24x2f.iu	aep0, a8, 0
    41d6:	5c8814        	ae_lp24x2f.iu	aep0, a8, 8
    41d9:	409914        	ae_lp16f.iu	aep1, a9, 2

000041dc <inear_ast_nr_proc+0x31c>:
    41dc:	20c660        	or	a12, a6, a6
    41df:	c393d2        	l16si	a13, a3, 0x186
    41e2:	14d2a2        	addmi	a10, a2, 0x1400
    41e5:	efe581        	l32r	a8, 17c (1abc <fn_syn_frame>)
    41e8:	c0caa2        	addi	a10, a10, -64
    41eb:	04d0d0        	extui	a13, a13, 0, 1
    41ee:	0008e0        	callx8	a8
    41f1:	7e9482        	l16si	a8, a4, 252
    41f4:	1221f2        	l32i	a15, a1, 72
    41f7:	152192        	l32i	a9, a1, 84
    41fa:	ef96e1        	l32r	a14, 54 (7fff <xtensa_fft8_32b+0xef>)
    41fd:	939f80        	movnez	a9, a15, a8
    4200:	142182        	l32i	a8, a1, 80
    4203:	302ee4        	ae_cvtp24a16x2.ll	aep2, a14, a14
    4206:	408904        	ae_lp16f.iu	aep0, a9, 0
    4209:	df0aefe80f 	{ ae_lp24x2f.iu	aep6, a8, 0; ae_subsp24s	aep7, aep2, aep0 }
    420e:	01ef74        	ae_mulfp24s.ll	aeq3, aep6, aep7
    4211:	01e754        	ae_mulfp24s.hl	aeq2, aep6, aep7
    4214:	1bbd54        	ae_roundsp24q48asym	aep5, aeq3
    4217:	1bad44        	ae_roundsp24q48asym	aep4, aeq2
    421a:	deb10100af 	{ movi	a10, 0x100; ae_selp24.hh	aep4, aep4, aep5 }
    421f:	5ec804        	ae_sp24x2f.iu	aep4, a8, 0
    4222:	408914        	ae_lp16f.iu	aep0, a9, 2
    4225:	198a76        	loop	a10, 4242 <inear_ast_nr_proc+0x382>

00004228 <inear_ast_nr_proc+0x368>:
    4228:	dc0aef881f 	{ ae_lp24x2f.iu	aep0, a8, 8; ae_subsp24s	aep1, aep2, aep0 }
    422d:	010954        	ae_mulfp24s.hl	aeq1, aep0, aep1
    4230:	010174        	ae_mulfp24s.ll	aeq0, aep0, aep1
    4233:	1b9d04        	ae_roundsp24q48asym	aep0, aeq1
    4236:	1b8d14        	ae_roundsp24q48asym	aep1, aeq0
    4239:	1a8984        	ae_selp24.hh	aep0, aep0, aep1
    423c:	5e8804        	ae_sp24x2f.iu	aep0, a8, 0
    423f:	408914        	ae_lp16f.iu	aep0, a9, 2

00004242 <inear_ast_nr_proc+0x382>:
    4242:	1421b2        	l32i	a11, a1, 80
    4245:	05cd           	mov.n	a12, a5
    4247:	c393d2        	l16si	a13, a3, 0x186
    424a:	18d2a2        	addmi	a10, a2, 0x1800
    424d:	efcb81        	l32r	a8, 17c (1abc <fn_syn_frame>)
    4250:	90caa2        	addi	a10, a10, -112
    4253:	04d0d0        	extui	a13, a13, 0, 1
    4256:	0008e0        	callx8	a8
    4259:	c1f8           	l32i.n	a15, a1, 48
    425b:	d1e8           	l32i.n	a14, a1, 52
    425d:	089122        	l16si	a2, a1, 16
    4260:	0f69           	s32i.n	a6, a15, 0
    4262:	0e59           	s32i.n	a5, a14, 0
    4264:	f01d           	retw.n

00004266 <inear_ast_nr_proc+0x3a6>:
    4266:	05bd           	mov.n	a11, a5
    4268:	0891c2        	l16si	a12, a1, 16
    426b:	a1d8           	l32i.n	a13, a1, 40
    426d:	efc481        	l32r	a8, 180 (1350 <fn_fb_noise_est>)
    4270:	35d2a2        	addmi	a10, a2, 0x3500
    4273:	14caa2        	addi	a10, a10, 20
    4276:	0008e0        	callx8	a8
    4279:	06bd           	mov.n	a11, a6
    427b:	0891c2        	l16si	a12, a1, 16
    427e:	1421d2        	l32i	a13, a1, 80
    4281:	efbf81        	l32r	a8, 180 (1350 <fn_fb_noise_est>)
    4284:	31d2a2        	addmi	a10, a2, 0x3100
    4287:	f8caa2        	addi	a10, a10, -8
    428a:	0008e0        	callx8	a8
    428d:	00a1e2        	movi	a14, 0x100
    4290:	1421d2        	l32i	a13, a1, 80
    4293:	1321c2        	l32i	a12, a1, 76
    4296:	a1a8           	l32i.n	a10, a1, 40
    4298:	112182        	l32i	a8, a1, 68
    429b:	01a192        	movi	a9, 0x101
    429e:	1d8976        	loop	a9, 42bf <inear_ast_nr_proc+0x3ff>
    42a1:	0898           	l32i.n	a9, a8, 0
    42a3:	0ab8           	l32i.n	a11, a10, 0
    42a5:	aa4b           	addi.n	a10, a10, 4
    42a7:	539b90        	max	a9, a11, a9
    42aa:	5399e0        	max	a9, a9, a14
    42ad:	09e894        	ae_s32ip	a9, a8, 4
    42b0:	0c98           	l32i.n	a9, a12, 0
    42b2:	0db8           	l32i.n	a11, a13, 0
    42b4:	dd4b           	addi.n	a13, a13, 4
    42b6:	539b90        	max	a9, a11, a9
    42b9:	5399e0        	max	a9, a9, a14
    42bc:	09ec94        	ae_s32ip	a9, a12, 4

000042bf <inear_ast_nr_proc+0x3ff>:
    42bf:	c39392        	l16si	a9, a3, 0x186
    42c2:	049690        	extui	a9, a9, 6, 1
    42c5:	1f5956        	bnez	a9, 44be <inear_ast_nr_proc+0x5fe>
    42c8:	0a0c           	movi.n	a10, 0
    42ca:	81a9           	s32i.n	a10, a1, 32

000042cc <inear_ast_nr_proc+0x40c>:
    42cc:	c293e2        	l16si	a14, a3, 0x184
    42cf:	1521b2        	l32i	a11, a1, 84
    42d2:	1fd2a2        	addmi	a10, a2, 0x1f00
    42d5:	70caa2        	addi	a10, a10, 112
    42d8:	02dbb2        	addmi	a11, a11, 0x200
    42db:	bb4b           	addi.n	a11, a11, 4
    42dd:	1261b2        	s32i	a11, a1, 72
    42e0:	25de16        	beqz	a14, 4541 <inear_ast_nr_proc+0x681>
    42e3:	05bd           	mov.n	a11, a5
    42e5:	1121c2        	l32i	a12, a1, 68
    42e8:	1221d2        	l32i	a13, a1, 72
    42eb:	efa381        	l32r	a8, 178 (22d4 <fn_calc_jnd_gain>)
    42ee:	ee0b           	addi.n	a14, a14, -1
    42f0:	8eed           	ae_sext16	a14, a14
    42f2:	0008e0        	callx8	a8

000042f5 <inear_ast_nr_proc+0x435>:
    42f5:	0891f2        	l16si	a15, a1, 16
    42f8:	ff0b           	addi.n	a15, a15, -1
    42fa:	254f16        	beqz	a15, 4552 <inear_ast_nr_proc+0x692>

000042fd <inear_ast_nr_proc+0x43d>:
    42fd:	7e9482        	l16si	a8, a4, 252
    4300:	289816        	beqz	a8, 458d <inear_ast_nr_proc+0x6cd>
    4303:	1421a2        	l32i	a10, a1, 80
    4306:	ef3f81        	l32r	a8, 4 (8820 <xt_memcpy>)
    4309:	1021b2        	l32i	a11, a1, 64
    430c:	04a4c2        	movi	a12, 0x404
    430f:	0008e0        	callx8	a8

00004312 <inear_ast_nr_proc+0x452>:
    4312:	102182        	l32i	a8, a1, 64
    4315:	122192        	l32i	a9, a1, 72
    4318:	01a1a2        	movi	a10, 0x101
    431b:	5c8804        	ae_lp24x2f.iu	aep0, a8, 0
    431e:	409904        	ae_lp16f.iu	aep1, a9, 0
    4321:	178a76        	loop	a10, 433c <inear_ast_nr_proc+0x47c>
    4324:	010174        	ae_mulfp24s.ll	aeq0, aep0, aep1
    4327:	010954        	ae_mulfp24s.hl	aeq1, aep0, aep1
    432a:	1b8d04        	ae_roundsp24q48asym	aep0, aeq0
    432d:	1b9d14        	ae_roundsp24q48asym	aep1, aeq1
    4330:	1a9884        	ae_selp24.hh	aep0, aep1, aep0
    4333:	5e8804        	ae_sp24x2f.iu	aep0, a8, 0
    4336:	5c8814        	ae_lp24x2f.iu	aep0, a8, 8
    4339:	409914        	ae_lp16f.iu	aep1, a9, 2

0000433c <inear_ast_nr_proc+0x47c>:
    433c:	c393e2        	l16si	a14, a3, 0x186
    433f:	0494e0        	extui	a9, a14, 4, 1
    4342:	193956        	bnez	a9, 44d9 <inear_ast_nr_proc+0x619>

00004345 <inear_ast_nr_proc+0x485>:
    4345:	1b6e17        	bbci	a14, 1, 4364 <inear_ast_nr_proc+0x4a4>
    4348:	086e77        	bbci	a14, 7, 4354 <inear_ast_nr_proc+0x494>
    434b:	c693b2        	l16si	a11, a3, 0x18c
    434e:	0f21a2        	l32i	a10, a1, 60
    4351:	0f2ab7        	blt	a10, a11, 4364 <inear_ast_nr_proc+0x4a4>

00004354 <inear_ast_nr_proc+0x494>:
    4354:	02ad           	mov.n	a10, a2
    4356:	1321b2        	l32i	a11, a1, 76
    4359:	ef8a81        	l32r	a8, 184 (2da0 <fn_low_bin_noise_est>)
    435c:	06cd           	mov.n	a12, a6
    435e:	1021d2        	l32i	a13, a1, 64
    4361:	0008e0        	callx8	a8
    4364:	c193e2        	l16si	a14, a3, 0x182
    4367:	1bd2a2        	addmi	a10, a2, 0x1b00
    436a:	60caa2        	addi	a10, a10, 96
    436d:	22de16        	beqz	a14, 459e <inear_ast_nr_proc+0x6de>
    4370:	1321c2        	l32i	a12, a1, 76
    4373:	06bd           	mov.n	a11, a6
    4375:	1521d2        	l32i	a13, a1, 84
    4378:	ef8081        	l32r	a8, 178 (22d4 <fn_calc_jnd_gain>)
    437b:	ee0b           	addi.n	a14, a14, -1
    437d:	8eed           	ae_sext16	a14, a14
    437f:	0008e0        	callx8	a8

00004382 <inear_ast_nr_proc+0x4c2>:
    4382:	c393f2        	l16si	a15, a3, 0x186
    4385:	04f2f0        	extui	a15, a15, 2, 1
    4388:	d29f16        	beqz	a15, 40b5 <inear_ast_nr_proc+0x1f5>
    438b:	02ad           	mov.n	a10, a2
    438d:	ef7e81        	l32r	a8, 188 (30c0 <fn_low_bin_compensate_phase>)
    4390:	07bd           	mov.n	a11, a7
    4392:	1021c2        	l32i	a12, a1, 64
    4395:	0008e0        	callx8	a8
    4398:	ff4646        	j	40b5 <inear_ast_nr_proc+0x1f5>

0000439b <inear_ast_nr_proc+0x4db>:
    439b:	4891e2        	l16si	a14, a1, 144
    439e:	20b660        	or	a11, a6, a6
    43a1:	20c550        	or	a12, a5, a5
    43a4:	ef7a81        	l32r	a8, 18c (3ae0 <fn_mic_chk_status>)
    43a7:	3ed2a2        	addmi	a10, a2, 0x3e00
    43aa:	1ccaa2        	addi	a10, a10, 28
    43ad:	0008e0        	callx8	a8
    43b0:	7f54a2        	s16i	a10, a4, 254
    43b3:	ff2286        	j	4041 <inear_ast_nr_proc+0x181>

000043b6 <inear_ast_nr_proc+0x4f6>:
    43b6:	81f8           	l32i.n	a15, a1, 32
    43b8:	f03d           	nop.n
    43ba:	cfff16        	beqz	a15, 40bd <inear_ast_nr_proc+0x1fd>
    43bd:	c39382        	l16si	a8, a3, 0x186
    43c0:	048680        	extui	a8, a8, 6, 1
    43c3:	cf6816        	beqz	a8, 40bd <inear_ast_nr_proc+0x1fd>
    43c6:	152182        	l32i	a8, a1, 84
    43c9:	01a1a2        	movi	a10, 0x101
    43cc:	04d892        	addmi	a9, a8, 0x400
    43cf:	408804        	ae_lp16f.iu	aep0, a8, 0
    43d2:	409944        	ae_lp16f.iu	aep1, a9, 8
    43d5:	148a76        	loop	a10, 43ed <inear_ast_nr_proc+0x52d>
    43d8:	010174        	ae_mulfp24s.ll	aeq0, aep0, aep1
    43db:	3600d4        	ae_sllisq56s	aeq0, aeq0, 3
    43de:	060844        	ae_satq48s	aeq0, aeq0
    43e1:	1b8e04        	ae_roundsp16q48sym	aep0, aeq0
    43e4:	428804        	ae_sp16f.l.iu	aep0, a8, 0
    43e7:	408814        	ae_lp16f.iu	aep0, a8, 2
    43ea:	409914        	ae_lp16f.iu	aep1, a9, 2

000043ed <inear_ast_nr_proc+0x52d>:
    43ed:	ff3306        	j	40bd <inear_ast_nr_proc+0x1fd>

000043f0 <inear_ast_nr_proc+0x530>:
    43f0:	a2ca           	add.n	a10, a2, a12
    43f2:	1521c2        	l32i	a12, a1, 84
    43f5:	06bd           	mov.n	a11, a6
    43f7:	ef6681        	l32r	a8, 190 (3684 <fn_pitch_detection>)
    43fa:	04dcc2        	addmi	a12, a12, 0x400
    43fd:	cc8b           	addi.n	a12, a12, 8
    43ff:	0008e0        	callx8	a8
    4402:	0acd           	mov.n	a12, a10
    4404:	ef5bf1        	l32r	a15, 170 (1b60 <fn_syn_frame+0xa4>)
    4407:	ff1c46        	j	407c <inear_ast_nr_proc+0x1bc>

0000440a <inear_ast_nr_proc+0x54a>:
    440a:	1321c2        	l32i	a12, a1, 76
    440d:	ef6181        	l32r	a8, 194 (1d54 <fn_calc_sup_gain>)
    4410:	06bd           	mov.n	a11, a6
    4412:	1521d2        	l32i	a13, a1, 84
    4415:	0008e0        	callx8	a8
    4418:	ff2006        	j	409c <inear_ast_nr_proc+0x1dc>

0000441b <inear_ast_nr_proc+0x55b>:
    441b:	1221a2        	l32i	a10, a1, 72
    441e:	1521b2        	l32i	a11, a1, 84
    4421:	1c0c           	movi.n	a12, 1
    4423:	ef5d81        	l32r	a8, 198 (f14 <mel_filter16>)
    4426:	04dbb2        	addmi	a11, a11, 0x400
    4429:	bb8b           	addi.n	a11, a11, 8
    442b:	51b9           	s32i.n	a11, a1, 20
    442d:	0008e0        	callx8	a8
    4430:	51a8           	l32i.n	a10, a1, 20
    4432:	ef2481        	l32r	a8, c4 (f70 <inv_mel_filter>)
    4435:	1221b2        	l32i	a11, a1, 72
    4438:	1c0c           	movi.n	a12, 1
    443a:	0008e0        	callx8	a8
    443d:	1421a2        	l32i	a10, a1, 80
    4440:	1521b2        	l32i	a11, a1, 84
    4443:	18caa2        	addi	a10, a10, 24
    4446:	02dbb2        	addmi	a11, a11, 0x200
    4449:	40fb54        	ae_lp16f.iu	aep7, a11, 10
    444c:	5cea04        	ae_lp24x2f.iu	aep6, a10, 0
    444f:	ebf9f0919e 	{ l32i	a9, a1, 36; ae_mulfp24s.ll	aeq3, aep6, aep7 }
    4454:	01e744        	ae_mulfp24s.hh	aeq2, aep6, aep7
    4457:	1bbd34        	ae_roundsp24q48asym	aep3, aeq3
    445a:	fa77ecc90f 	{ ae_lp16f.iu	aep4, a9, 0; ae_roundsp24q48asym	aep5, aeq2 }
    445f:	015c44        	ae_mulfp24s.hh	aeq1, aep5, aep4
    4462:	013444        	ae_mulfp24s.hh	aeq0, aep3, aep4
    4465:	36d0d4        	ae_sllisq56s	aeq3, aeq1, 3
    4468:	fc84fac0bf 	{ ae_sllisq56s	aeq2, aeq0, 3; ae_satq48s	aeq0, aeq3 }
    446d:	fd80f1018e 	{ l32i	a8, a1, 64; ae_satq48s	aeq1, aeq2 }
    4472:	1b9d24        	ae_roundsp24q48asym	aep2, aeq1
    4475:	f867c0fdcf 	{ movi	a12, 253; ae_roundsp24q48asym	aep1, aeq0 }
    447a:	dc4541088e 	{ addi	a8, a8, 16; ae_selp24.hh	aep1, aep1, aep2 }
    447f:	5e9814        	ae_sp24x2f.iu	aep1, a8, 8
    4482:	5c8a14        	ae_lp24x2f.iu	aep0, a10, 8
    4485:	409b14        	ae_lp16f.iu	aep1, a11, 2
    4488:	2f8c76        	loop	a12, 44bb <inear_ast_nr_proc+0x5fb>
    448b:	e820eca91f 	{ ae_lp16f.iu	aep2, a9, 2; ae_mulfp24s.hh	aeq1, aep0, aep1 }
    4490:	010174        	ae_mulfp24s.ll	aeq0, aep0, aep1
    4493:	1b9d04        	ae_roundsp24q48asym	aep0, aeq1
    4496:	010a44        	ae_mulfp24s.hh	aeq1, aep0, aep2
    4499:	1b8d04        	ae_roundsp24q48asym	aep0, aeq0
    449c:	e840bad07f 	{ ae_sllisq56s	aeq1, aeq1, 3; ae_mulfp24s.hh	aeq0, aep0, aep2 }
    44a1:	064944        	ae_satq48s	aeq1, aeq1
    44a4:	f86fbac07f 	{ ae_sllisq56s	aeq1, aeq0, 3; ae_roundsp24q48asym	aep0, aeq1 }
    44a9:	064944        	ae_satq48s	aeq1, aeq1
    44ac:	1b9d14        	ae_roundsp24q48asym	aep1, aeq1
    44af:	1a8984        	ae_selp24.hh	aep0, aep0, aep1
    44b2:	5e8814        	ae_sp24x2f.iu	aep0, a8, 8
    44b5:	5c8a14        	ae_lp24x2f.iu	aep0, a10, 8
    44b8:	409b14        	ae_lp16f.iu	aep1, a11, 2

000044bb <inear_ast_nr_proc+0x5fb>:
    44bb:	ff2606        	j	4157 <inear_ast_nr_proc+0x297>

000044be <inear_ast_nr_proc+0x5fe>:
    44be:	05bd           	mov.n	a11, a5
    44c0:	ef3481        	l32r	a8, 190 (3684 <fn_pitch_detection>)
    44c3:	1521c2        	l32i	a12, a1, 84
    44c6:	3ed2a2        	addmi	a10, a2, 0x3e00
    44c9:	f8caa2        	addi	a10, a10, -8
    44cc:	04dcc2        	addmi	a12, a12, 0x400
    44cf:	cc8b           	addi.n	a12, a12, 8
    44d1:	0008e0        	callx8	a8
    44d4:	81a9           	s32i.n	a10, a1, 32
    44d6:	ff7c86        	j	42cc <inear_ast_nr_proc+0x40c>

000044d9 <inear_ast_nr_proc+0x619>:
    44d9:	6723a2        	l32i	a10, a3, 0x19c
    44dc:	1021b2        	l32i	a11, a1, 64
    44df:	ef2f81        	l32r	a8, 19c (3224 <fn_calc_zp_gain>)
    44e2:	1121c2        	l32i	a12, a1, 68
    44e5:	c593d2        	l16si	a13, a3, 0x18a
    44e8:	0008e0        	callx8	a8
    44eb:	c39392        	l16si	a9, a3, 0x186
    44ee:	1f6987        	bbci	a9, 8, 4511 <inear_ast_nr_proc+0x651>
    44f1:	122182        	l32i	a8, a1, 72
    44f4:	112192        	l32i	a9, a1, 68
    44f7:	01a1a2        	movi	a10, 0x101
    44fa:	408804        	ae_lp16f.iu	aep0, a8, 0
    44fd:	409904        	ae_lp16f.iu	aep1, a9, 0
    4500:	0d8a76        	loop	a10, 4511 <inear_ast_nr_proc+0x651>
    4503:	ea21ac881f 	{ ae_lp16f.iu	aep0, a8, 2; ae_mulfp24s.ll	aeq0, aep0, aep1 }
    4508:	1b8e14        	ae_roundsp16q48sym	aep1, aeq0
    450b:	4218f4        	ae_sp16f.l.i	aep1, a8, -2
    450e:	409914        	ae_lp16f.iu	aep1, a9, 2

00004511 <inear_ast_nr_proc+0x651>:
    4511:	112192        	l32i	a9, a1, 68
    4514:	102182        	l32i	a8, a1, 64
    4517:	01a1a2        	movi	a10, 0x101
    451a:	409904        	ae_lp16f.iu	aep1, a9, 0
    451d:	5c8804        	ae_lp24x2f.iu	aep0, a8, 0
    4520:	178a76        	loop	a10, 453b <inear_ast_nr_proc+0x67b>
    4523:	010174        	ae_mulfp24s.ll	aeq0, aep0, aep1
    4526:	010954        	ae_mulfp24s.hl	aeq1, aep0, aep1
    4529:	1b8d04        	ae_roundsp24q48asym	aep0, aeq0
    452c:	1b9d14        	ae_roundsp24q48asym	aep1, aeq1
    452f:	1a9884        	ae_selp24.hh	aep0, aep1, aep0
    4532:	5e8804        	ae_sp24x2f.iu	aep0, a8, 0
    4535:	5c8814        	ae_lp24x2f.iu	aep0, a8, 8
    4538:	409914        	ae_lp16f.iu	aep1, a9, 2

0000453b <inear_ast_nr_proc+0x67b>:
    453b:	c393e2        	l16si	a14, a3, 0x186
    453e:	ff80c6        	j	4345 <inear_ast_nr_proc+0x485>

00004541 <inear_ast_nr_proc+0x681>:
    4541:	05bd           	mov.n	a11, a5
    4543:	ef1481        	l32r	a8, 194 (1d54 <fn_calc_sup_gain>)
    4546:	1121c2        	l32i	a12, a1, 68
    4549:	1221d2        	l32i	a13, a1, 72
    454c:	0008e0        	callx8	a8
    454f:	ff6886        	j	42f5 <inear_ast_nr_proc+0x435>

00004552 <inear_ast_nr_proc+0x692>:
    4552:	8198           	l32i.n	a9, a1, 32
    4554:	da5916        	beqz	a9, 42fd <inear_ast_nr_proc+0x43d>
    4557:	c393a2        	l16si	a10, a3, 0x186
    455a:	04a6a0        	extui	a10, a10, 6, 1
    455d:	d9ca16        	beqz	a10, 42fd <inear_ast_nr_proc+0x43d>
    4560:	122182        	l32i	a8, a1, 72
    4563:	152192        	l32i	a9, a1, 84
    4566:	01a1a2        	movi	a10, 0x101
    4569:	408804        	ae_lp16f.iu	aep0, a8, 0
    456c:	04d992        	addmi	a9, a9, 0x400
    456f:	409944        	ae_lp16f.iu	aep1, a9, 8
    4572:	148a76        	loop	a10, 458a <inear_ast_nr_proc+0x6ca>
    4575:	010174        	ae_mulfp24s.ll	aeq0, aep0, aep1
    4578:	3600d4        	ae_sllisq56s	aeq0, aeq0, 3
    457b:	060844        	ae_satq48s	aeq0, aeq0
    457e:	1b8e04        	ae_roundsp16q48sym	aep0, aeq0
    4581:	428804        	ae_sp16f.l.iu	aep0, a8, 0
    4584:	408814        	ae_lp16f.iu	aep0, a8, 2
    4587:	409914        	ae_lp16f.iu	aep1, a9, 2

0000458a <inear_ast_nr_proc+0x6ca>:
    458a:	ff5bc6        	j	42fd <inear_ast_nr_proc+0x43d>

0000458d <inear_ast_nr_proc+0x6cd>:
    458d:	1421a2        	l32i	a10, a1, 80
    4590:	ee9d81        	l32r	a8, 4 (8820 <xt_memcpy>)
    4593:	07bd           	mov.n	a11, a7
    4595:	04a4c2        	movi	a12, 0x404
    4598:	0008e0        	callx8	a8
    459b:	ff5cc6        	j	4312 <inear_ast_nr_proc+0x452>

0000459e <inear_ast_nr_proc+0x6de>:
    459e:	1321c2        	l32i	a12, a1, 76
    45a1:	eefc81        	l32r	a8, 194 (1d54 <fn_calc_sup_gain>)
    45a4:	06bd           	mov.n	a11, a6
    45a6:	1521d2        	l32i	a13, a1, 84
    45a9:	0008e0        	callx8	a8
    45ac:	ff7486        	j	4382 <inear_ast_nr_proc+0x4c2>

000045af <inear_ast_nr_proc+0x6ef>:
    45af:	c993b2        	l16si	a11, a3, 0x192
    45b2:	eea8a1        	l32r	a10, 54 (7fff <xtensa_fft8_32b+0xef>)
    45b5:	c0aab0        	sub	a10, a10, a11
    45b8:	fc8665        	call8	e20 <_saturate16>
    45bb:	102192        	l32i	a9, a1, 64
    45be:	bf93e2        	l16si	a14, a3, 0x17e
    45c1:	303ee4        	ae_cvtp24a16x2.ll	aep3, a14, a14
    45c4:	5c8904        	ae_lp24x2f.iu	aep0, a9, 0
    45c7:	018b74        	ae_mulfp24s.ll	aeq3, aep0, aep3
    45ca:	e96098daaf 	{ ae_cvtp24a16x2.ll	aep5, a10, a10; ae_mulfp24s.hh	aeq2, aep0, aep3 }
    45cf:	fb7fac93ce 	{ l16si	a12, a3, 0x192; ae_roundsp24q48asym	aep6, aeq3 }
    45d4:	fb77d8cccf 	{ ae_cvtp24a16x2.ll	aep4, a12, a12; ae_roundsp24q48asym	aep7, aeq2 }
    45d9:	e89c93877f 	{ or	a8, a7, a7; ae_mulfp24s.hh	aeq0, aep7, aep4 }
    45de:	ea99efa80f 	{ ae_lp24x2f.iu	aep2, a8, 0; ae_mulfp24s.ll	aeq1, aep6, aep4 }
    45e3:	012d34        	ae_mulafp24s.ll	aeq1, aep2, aep5
    45e6:	012504        	ae_mulafp24s.hh	aeq0, aep2, aep5
    45e9:	f86fc781de 	{ addi	a13, a1, 120; ae_roundsp24q48asym	aep1, aeq1 }
    45ee:	f867803faf 	{ movi	a10, 63; ae_roundsp24q48asym	aep0, aeq0 }
    45f3:	dc21373dcf 	{ ae_sp24x2s.i	aep3, a13, -32; ae_selp24.hh	aep0, aep0, aep1 }
    45f8:	5e8804        	ae_sp24x2f.iu	aep0, a8, 0
    45fb:	5c8914        	ae_lp24x2f.iu	aep0, a9, 8
    45fe:	288a76        	loop	a10, 462a <inear_ast_nr_proc+0x76a>
    4601:	ea61afa81f 	{ ae_lp24x2f.iu	aep2, a8, 8; ae_mulfp24s.ll	aeq0, aep0, aep3 }
    4606:	010b44        	ae_mulfp24s.hh	aeq1, aep0, aep3
    4609:	1b8d04        	ae_roundsp24q48asym	aep0, aeq0
    460c:	1b9d14        	ae_roundsp24q48asym	aep1, aeq1
    460f:	011444        	ae_mulfp24s.hh	aeq0, aep1, aep4
    4612:	010c74        	ae_mulfp24s.ll	aeq1, aep0, aep4
    4615:	012d34        	ae_mulafp24s.ll	aeq1, aep2, aep5
    4618:	012504        	ae_mulafp24s.hh	aeq0, aep2, aep5
    461b:	1b9d04        	ae_roundsp24q48asym	aep0, aeq1
    461e:	1b8d14        	ae_roundsp24q48asym	aep1, aeq0
    4621:	1a9884        	ae_selp24.hh	aep0, aep1, aep0
    4624:	5e8804        	ae_sp24x2f.iu	aep0, a8, 0
    4627:	5c8914        	ae_lp24x2f.iu	aep0, a9, 8

0000462a <inear_ast_nr_proc+0x76a>:
    462a:	066192        	s32i	a9, a1, 24
    462d:	ca93b2        	l16si	a11, a3, 0x194
    4630:	ee89a1        	l32r	a10, 54 (7fff <xtensa_fft8_32b+0xef>)
    4633:	5c9814        	ae_lp24x2f.iu	aep1, a8, 8
    4636:	78c1d2        	addi	a13, a1, 120
    4639:	560dd4        	ae_sp24x2s.i	aep0, a13, -24
    463c:	076182        	s32i	a8, a1, 28
    463f:	561de4        	ae_sp24x2s.i	aep1, a13, -16
    4642:	c0aab0        	sub	a10, a10, a11
    4645:	fc7da5        	call8	e20 <_saturate16>
    4648:	78c192        	addi	a9, a1, 120
    464b:	5439c4        	ae_lp24x2.i	aep3, a9, -32
    464e:	5429d4        	ae_lp24x2.i	aep2, a9, -24
    4651:	01ab74        	ae_mulfp24s.ll	aeq3, aep2, aep3
    4654:	01a344        	ae_mulfp24s.hh	aeq2, aep2, aep3
    4657:	f87faca3fe 	{ l16si	a15, a3, 0x194; ae_roundsp24q48asym	aep0, aeq3 }
    465c:	f877d8cfff 	{ ae_cvtp24a16x2.ll	aep4, a15, a15; ae_roundsp24q48asym	aep1, aeq2 }
    4661:	e88498daaf 	{ ae_cvtp24a16x2.ll	aep5, a10, a10; ae_mulfp24s.hh	aeq0, aep1, aep4 }
    4666:	ea81f079ef 	{ ae_lp24x2.i	aep7, a9, -16; ae_mulfp24s.ll	aeq1, aep0, aep4 }
    466b:	017d34        	ae_mulafp24s.ll	aeq1, aep7, aep5
    466e:	017504        	ae_mulafp24s.hh	aeq0, aep7, aep5
    4671:	fb6fb0718e 	{ l32i	a8, a1, 28; ae_roundsp24q48asym	aep6, aeq1 }
    4676:	f967b0619e 	{ l32i	a9, a1, 24; ae_roundsp24q48asym	aep2, aeq0 }
    467b:	ddc9003faf 	{ movi	a10, 63; ae_selp24.hh	aep2, aep2, aep6 }
    4680:	5ea804        	ae_sp24x2f.iu	aep2, a8, 0
    4683:	5c8914        	ae_lp24x2f.iu	aep0, a9, 8
    4686:	288a76        	loop	a10, 46b2 <inear_ast_nr_proc+0x7f2>
    4689:	ea61afa81f 	{ ae_lp24x2f.iu	aep2, a8, 8; ae_mulfp24s.ll	aeq0, aep0, aep3 }
    468e:	010b44        	ae_mulfp24s.hh	aeq1, aep0, aep3
    4691:	1b8d04        	ae_roundsp24q48asym	aep0, aeq0
    4694:	1b9d14        	ae_roundsp24q48asym	aep1, aeq1
    4697:	011444        	ae_mulfp24s.hh	aeq0, aep1, aep4
    469a:	010c74        	ae_mulfp24s.ll	aeq1, aep0, aep4
    469d:	012d34        	ae_mulafp24s.ll	aeq1, aep2, aep5
    46a0:	012504        	ae_mulafp24s.hh	aeq0, aep2, aep5
    46a3:	1b9d04        	ae_roundsp24q48asym	aep0, aeq1
    46a6:	1b8d14        	ae_roundsp24q48asym	aep1, aeq0
    46a9:	1a9884        	ae_selp24.hh	aep0, aep1, aep0
    46ac:	5e8804        	ae_sp24x2f.iu	aep0, a8, 0
    46af:	5c8914        	ae_lp24x2f.iu	aep0, a9, 8
    46b2:	066192        	s32i	a9, a1, 24
    46b5:	cb93b2        	l16si	a11, a3, 0x196
    46b8:	ee67a1        	l32r	a10, 54 (7fff <xtensa_fft8_32b+0xef>)
    46bb:	5cb814        	ae_lp24x2f.iu	aep3, a8, 8
    46be:	78c1d2        	addi	a13, a1, 120
    46c1:	560dd4        	ae_sp24x2s.i	aep0, a13, -24
    46c4:	076182        	s32i	a8, a1, 28
    46c7:	563de4        	ae_sp24x2s.i	aep3, a13, -16
    46ca:	c0aab0        	sub	a10, a10, a11
    46cd:	fc7525        	call8	e20 <_saturate16>
    46d0:	78c192        	addi	a9, a1, 120
    46d3:	5439c4        	ae_lp24x2.i	aep3, a9, -32
    46d6:	5449d4        	ae_lp24x2.i	aep4, a9, -24
    46d9:	01cb74        	ae_mulfp24s.ll	aeq3, aep4, aep3
    46dc:	01c344        	ae_mulfp24s.hh	aeq2, aep4, aep3
    46df:	f87fecb3fe 	{ l16si	a15, a3, 0x196; ae_roundsp24q48asym	aep1, aeq3 }
    46e4:	f97798cfff 	{ ae_cvtp24a16x2.ll	aep4, a15, a15; ae_roundsp24q48asym	aep2, aeq2 }
    46e9:	e88898daaf 	{ ae_cvtp24a16x2.ll	aep5, a10, a10; ae_mulfp24s.hh	aeq0, aep2, aep4 }
    46ee:	ea85f009ef 	{ ae_lp24x2.i	aep0, a9, -16; ae_mulfp24s.ll	aeq1, aep1, aep4 }
    46f3:	010d34        	ae_mulafp24s.ll	aeq1, aep0, aep5
    46f6:	010504        	ae_mulafp24s.hh	aeq0, aep0, aep5
    46f9:	fb6ff0718e 	{ l32i	a8, a1, 28; ae_roundsp24q48asym	aep7, aeq1 }
    46fe:	fb67b0619e 	{ l32i	a9, a1, 24; ae_roundsp24q48asym	aep6, aeq0 }
    4703:	dff90080af 	{ movi	a10, 128; ae_selp24.hh	aep6, aep6, aep7 }
    4708:	5ee804        	ae_sp24x2f.iu	aep6, a8, 0
    470b:	5c8914        	ae_lp24x2f.iu	aep0, a9, 8
    470e:	288a76        	loop	a10, 473a <inear_ast_nr_proc+0x87a>
    4711:	ea61afa81f 	{ ae_lp24x2f.iu	aep2, a8, 8; ae_mulfp24s.ll	aeq0, aep0, aep3 }
    4716:	010b44        	ae_mulfp24s.hh	aeq1, aep0, aep3
    4719:	1b8d04        	ae_roundsp24q48asym	aep0, aeq0
    471c:	1b9d14        	ae_roundsp24q48asym	aep1, aeq1
    471f:	011444        	ae_mulfp24s.hh	aeq0, aep1, aep4
    4722:	010c74        	ae_mulfp24s.ll	aeq1, aep0, aep4
    4725:	012d34        	ae_mulafp24s.ll	aeq1, aep2, aep5
    4728:	012504        	ae_mulafp24s.hh	aeq0, aep2, aep5
    472b:	1b9d04        	ae_roundsp24q48asym	aep0, aeq1
    472e:	1b8d14        	ae_roundsp24q48asym	aep1, aeq0
    4731:	1a9884        	ae_selp24.hh	aep0, aep1, aep0
    4734:	5e8804        	ae_sp24x2f.iu	aep0, a8, 0
    4737:	5c8914        	ae_lp24x2f.iu	aep0, a9, 8
    473a:	fe9a46        	j	41a7 <inear_ast_nr_proc+0x2e7>

0000473d <inear_ast_nr_proc+0x87d>:
    473d:	000000                                        ...

00004740 <_start>:
    4740:	004136        	entry	a1, 32
    4743:	ee98a1        	l32r	a10, 1a4 (958c <ln_coef_51+0xc>)
    4746:	ee9631        	l32r	a3, 1a0 (d780 <printf_ptr>)
    4749:	0288           	l32i.n	a8, a2, 0
    474b:	ee97b1        	l32r	a11, 1a8 (5738 <get_aec_nr_memsize>)
    474e:	0389           	s32i.n	a8, a3, 0
    4750:	0008e0        	callx8	a8
    4753:	0388           	l32i.n	a8, a3, 0
    4755:	ee95a1        	l32r	a10, 1ac (95a8 <ln_coef_51+0x28>)
    4758:	ee96b1        	l32r	a11, 1b0 (57f4 <Voice_WB_TX_Inear_Init>)
    475b:	0008e0        	callx8	a8
    475e:	002382        	l32i	a8, a3, 0
    4761:	ee94a1        	l32r	a10, 1b4 (95c8 <ln_coef_51+0x48>)
    4764:	ee95b1        	l32r	a11, 1b8 (6220 <Voice_WB_TX_Inear_Prcs>)
    4767:	0008e0        	callx8	a8
    476a:	0388           	l32i.n	a8, a3, 0
    476c:	ee94a1        	l32r	a10, 1bc (95e8 <ln_coef_51+0x68>)
    476f:	ee94b1        	l32r	a11, 1c0 (6974 <EC_REF_GAIN_READBACK>)
    4772:	0008e0        	callx8	a8
    4775:	0388           	l32i.n	a8, a3, 0
    4777:	ee93a1        	l32r	a10, 1c4 (9604 <ln_coef_51+0x84>)
    477a:	ee93b1        	l32r	a11, 1c8 (6f04 <NB_RX_NR_init>)
    477d:	0008e0        	callx8	a8
    4780:	0388           	l32i.n	a8, a3, 0
    4782:	ee92a1        	l32r	a10, 1cc (9618 <ln_coef_51+0x98>)
    4785:	ee92b1        	l32r	a11, 1d0 (68b0 <Voice_NB_RX_Prcs>)
    4788:	0008e0        	callx8	a8
    478b:	0388           	l32i.n	a8, a3, 0
    478d:	ee91a1        	l32r	a10, 1d4 (9630 <ln_coef_51+0xb0>)
    4790:	ee92b1        	l32r	a11, 1d8 (6c68 <WB_RX_NR_init>)
    4793:	0008e0        	callx8	a8
    4796:	002382        	l32i	a8, a3, 0
    4799:	ee90a1        	l32r	a10, 1dc (9644 <ln_coef_51+0xc4>)
    479c:	ee91b1        	l32r	a11, 1e0 (6910 <Voice_WB_RX_Prcs>)
    479f:	0008e0        	callx8	a8
    47a2:	0388           	l32i.n	a8, a3, 0
    47a4:	ee90a1        	l32r	a10, 1e4 (965c <ln_coef_51+0xdc>)
    47a7:	ee90b1        	l32r	a11, 1e8 (69b4 <EC_PreLim_Coef_READBACK>)
    47aa:	0008e0        	callx8	a8
    47ad:	0388           	l32i.n	a8, a3, 0
    47af:	ee8fa1        	l32r	a10, 1ec (967c <ln_coef_51+0xfc>)
    47b2:	ee8fb1        	l32r	a11, 1f0 (69e0 <AEC_NR_Write_FLASH>)
    47b5:	0008e0        	callx8	a8
    47b8:	0388           	l32i.n	a8, a3, 0
    47ba:	ee8ea1        	l32r	a10, 1f4 (9698 <ln_coef_51+0x118>)
    47bd:	ee8eb1        	l32r	a11, 1f8 (824 <EQ_update>)
    47c0:	0008e0        	callx8	a8
    47c3:	0388           	l32i.n	a8, a3, 0
    47c5:	ee8da1        	l32r	a10, 1fc (96a8 <ln_coef_51+0x128>)
    47c8:	ee8eb1        	l32r	a11, 200 (5740 <get_txnr_pitch_last>)
    47cb:	0008e0        	callx8	a8
    47ce:	002382        	l32i	a8, a3, 0
    47d1:	ee8ca1        	l32r	a10, 204 (96c4 <ln_coef_51+0x144>)
    47d4:	ee8db1        	l32r	a11, 208 (69d8 <DaulMIC_power_Coef_READBACK>)
    47d7:	0008e0        	callx8	a8
    47da:	0388           	l32i.n	a8, a3, 0
    47dc:	ee8ca1        	l32r	a10, 20c (96e8 <ln_coef_51+0x168>)
    47df:	ee8cb1        	l32r	a11, 210 (69e8 <TWO_MIC_WB_Write_FLASH>)
    47e2:	0008e0        	callx8	a8
    47e5:	0388           	l32i.n	a8, a3, 0
    47e7:	ee8ba1        	l32r	a10, 214 (9708 <ln_coef_51+0x188>)
    47ea:	ee8bb1        	l32r	a11, 218 (69f0 <IE_EC_REF_GAIN_READBACK>)
    47ed:	0008e0        	callx8	a8
    47f0:	0388           	l32i.n	a8, a3, 0
    47f2:	ee8aa1        	l32r	a10, 21c (9728 <ln_coef_51+0x1a8>)
    47f5:	ee8ab1        	l32r	a11, 220 (57dc <Get_AirDump_Inear>)
    47f8:	0008e0        	callx8	a8
    47fb:	ee8a21        	l32r	a2, 224 (aa40 <export_parameter_array>)
    47fe:	f01d           	retw.n

00004800 <real_512_fft>:
    4800:	004136        	entry	a1, 32
    4803:	ee8981        	l32r	a8, 228 (9740 <fftorder_512>)
    4806:	289d           	ae_l16si.n	a9, a8, 0
    4808:	fcc252        	addi	a5, a2, -4
    480b:	882b           	addi.n	a8, a8, 2
    480d:	491b           	addi.n	a4, a9, 1
    480f:	b34990        	movgez	a4, a9, a9
    4812:	ffa092        	movi	a9, 255
    4815:	214140        	srai	a4, a4, 1
    4818:	844d           	ae_sext16	a4, a4
    481a:	1144d0        	slli	a4, a4, 3
    481d:	602244        	ae_lq32f.x	aeq0, a2, a4
    4820:	620304        	ae_sq32f.i	aeq0, a3, 0
    4823:	444b           	addi.n	a4, a4, 4
    4825:	602244        	ae_lq32f.x	aeq0, a2, a4
    4828:	fcc342        	addi	a4, a3, -4
    482b:	04bd           	mov.n	a11, a4
    482d:	1e8976        	loop	a9, 484f <real_512_fft+0x4f>
    4830:	289d           	ae_l16si.n	a9, a8, 0
    4832:	624b24        	ae_sq32f.iu	aeq0, a11, 8
    4835:	882b           	addi.n	a8, a8, 2
    4837:	a91b           	addi.n	a10, a9, 1
    4839:	b3a990        	movgez	a10, a9, a9
    483c:	2191a0        	srai	a9, a10, 1
    483f:	899d           	ae_sext16	a9, a9
    4841:	1199d0        	slli	a9, a9, 3
    4844:	602294        	ae_lq32f.x	aeq0, a2, a9
    4847:	994b           	addi.n	a9, a9, 4
    4849:	620b14        	ae_sq32f.i	aeq0, a11, 4
    484c:	602294        	ae_lq32f.x	aeq0, a2, a9

0000484f <real_512_fft+0x4f>:
    484f:	03ad           	mov.n	a10, a3
    4851:	8c0c           	movi.n	a12, 8
    4853:	1d0c           	movi.n	a13, 1
    4855:	01a0e2        	movi	a14, 1
    4858:	ee7581        	l32r	a8, 22c (8710 <sw_fft_32b_2811>)
    485b:	624b24        	ae_sq32f.iu	aeq0, a11, 8
    485e:	00a1b2        	movi	a11, 0x100
    4861:	0008e0        	callx8	a8
    4864:	028d           	mov.n	a8, a2
    4866:	ee73c1        	l32r	a12, 234 (9f40 <B_RI>)
    4869:	ee71b1        	l32r	a11, 230 (9b40 <A_RI>)
    486c:	0afd           	mov.n	a15, a10
    486e:	039d           	mov.n	a9, a3
    4870:	601904        	ae_lq32f.iu	aeq0, a9, 0
    4873:	00a2a2        	movi	a10, 0x200
    4876:	44bb04        	ae_lp16x2f.iu	aep3, a11, 0
    4879:	0b8a76        	loop	a10, 4888 <real_512_fft+0x88>
    487c:	3500b4        	ae_sraiq56	aeq0, aeq0, 2
    487f:	060934        	ae_roundsq32asym	aeq0, aeq0
    4882:	624514        	ae_sq32f.iu	aeq0, a5, 4
    4885:	601914        	ae_lq32f.iu	aeq0, a9, 4
    4888:	06d3a2        	addmi	a10, a3, 0x600
    488b:	605804        	ae_lq32f.iu	aeq1, a8, 0
    488e:	d56f7d181f 	{ ae_lq32f.iu	aeq0, a8, 4; ae_mulfq32sp16s.h	aeq3, aeq1, aep3 }
    4893:	03b204        	ae_mulfq32sp16s.h	aeq2, aeq0, aep3
    4896:	f98cedac0f 	{ ae_lp16x2f.iu	aep2, a12, 0; ae_mulsfq32sp16s.l	aeq3, aeq0, aep3 }
    489b:	03a844        	ae_mulafq32sp16s.h	aeq3, aeq1, aep2
    489e:	03b054        	ae_mulafq32sp16s.l	aeq2, aeq1, aep3
    48a1:	03a054        	ae_mulafq32sp16s.l	aeq2, aeq1, aep2
    48a4:	03a814        	ae_mulafq32sp16s.l	aeq3, aeq0, aep2
    48a7:	f90880009f 	{ movi	a9, 0; ae_mulsfq32sp16s.h	aeq2, aeq0, aep2 }
    48ac:	f92af9f41f 	{ ae_sq32f.iu	aeq3, a4, 4; ae_subq56	aeq1, aeq1, aeq0 }
    48b1:	fc04f9e41f 	{ ae_sq32f.iu	aeq2, a4, 4; ae_satq48s	aeq0, aeq1 }
    48b6:	816a92        	s32i	a9, a10, 0x204
    48b9:	368d04        	ae_trunca32q48	a13, aeq0
    48bc:	08d292        	addmi	a9, a2, 0x800
    48bf:	806ad2        	s32i	a13, a10, 0x200
    48c2:	449b14        	ae_lp16x2f.iu	aep1, a11, 4
    48c5:	605814        	ae_lq32f.iu	aeq1, a8, 4
    48c8:	60c814        	ae_lq32f.i	aeq3, a8, 4
    48cb:	0392c4        	ae_mulfq32sp16s.h	aeq2, aeq3, aep1
    48ce:	031244        	ae_mulfq32sp16s.h	aeq0, aeq1, aep1
    48d1:	fa85ad8c1f 	{ ae_lp16x2f.iu	aep0, a12, 4; ae_mulsfq32sp16s.l	aeq0, aeq3, aep1 }
    48d6:	f587bd79ef 	{ ae_lq32f.iu	aeq3, a9, -8; ae_mulafq32sp16s.l	aeq2, aeq1, aep1 }
    48db:	0380d4        	ae_mulafq32sp16s.l	aeq2, aeq3, aep0
    48de:	f603bd291f 	{ ae_lq32f.i	aeq1, a9, 4; ae_mulafq32sp16s.h	aeq0, aeq3, aep0 }
    48e3:	030054        	ae_mulafq32sp16s.l	aeq0, aeq1, aep0
    48e6:	f901802f2e 	{ addi	a2, a15, 2; ae_mulsfq32sp16s.h	aeq2, aeq1, aep0 }
    48eb:	ff2440fedf 	{ movi	a13, 254; ae_roundsq32asym	aeq3, aeq0 }
    48f0:	fd3479b41f 	{ ae_sq32f.i	aeq3, a4, 4; ae_roundsq32asym	aeq1, aeq2 }
    48f5:	625424        	ae_sq32f.iu	aeq1, a4, 8
    48f8:	04ad           	mov.n	a10, a4
    48fa:	448b14        	ae_lp16x2f.iu	aep0, a11, 4
    48fd:	605824        	ae_lq32f.iu	aeq1, a8, 8
    4900:	308d76        	loop	a13, 4934 <real_512_fft+0x134>
    4903:	d5633d081f 	{ ae_lq32f.i	aeq0, a8, 4; ae_mulfq32sp16s.h	aeq2, aeq1, aep0 }
    4908:	f980bd69ff 	{ ae_lq32f.i	aeq3, a9, -4; ae_mulsfq32sp16s.l	aeq2, aeq0, aep0 }
    490d:	d4622d9c1f 	{ ae_lp16x2f.iu	aep1, a12, 4; ae_mulfq32sp16s.h	aeq0, aeq0, aep0 }

00004912 <real_512_fft+0x112>:
    4912:	f483bd39ef 	{ ae_lq32f.iu	aeq1, a9, -8; ae_mulafq32sp16s.l	aeq0, aeq1, aep0 }
    4917:	039044        	ae_mulafq32sp16s.h	aeq2, aeq1, aep1
    491a:	031054        	ae_mulafq32sp16s.l	aeq0, aeq1, aep1
    491d:	0390d4        	ae_mulafq32sp16s.l	aeq2, aeq3, aep1
    4920:	0314c4        	ae_mulsfq32sp16s.h	aeq0, aeq3, aep1
    4923:	06e934        	ae_roundsq32asym	aeq3, aeq2
    4926:	fc2479ba1f 	{ ae_sq32f.i	aeq3, a10, 4; ae_roundsq32asym	aeq0, aeq0 }
    492b:	624a24        	ae_sq32f.iu	aeq0, a10, 8
    492e:	605824        	ae_lq32f.iu	aeq1, a8, 8
    4931:	448b14        	ae_lp16x2f.iu	aep0, a11, 4

00004934 <real_512_fft+0x134>:
    4934:	822d           	ae_sext16	a2, a2
    4936:	f01d           	retw.n

00004938 <real_512_ifft>:
    4938:	004136        	entry	a1, 32
    493b:	ee3ec1        	l32r	a12, 234 (9f40 <B_RI>)
    493e:	ee3cb1        	l32r	a11, 230 (9b40 <A_RI>)
    4941:	028d           	mov.n	a8, a2
    4943:	08d292        	addmi	a9, a2, 0x800
    4946:	609904        	ae_lq32f.iu	aeq2, a9, 0
    4949:	601804        	ae_lq32f.iu	aeq0, a8, 0
    494c:	449b04        	ae_lp16x2f.iu	aep1, a11, 0
    494f:	d5667d281f 	{ ae_lq32f.i	aeq1, a8, 4; ae_mulfq32sp16s.h	aeq3, aeq0, aep1 }
    4954:	f587ed8c0f 	{ ae_lp16x2f.iu	aep0, a12, 0; ae_mulafq32sp16s.l	aeq3, aeq1, aep1 }
    4959:	038884        	ae_mulafq32sp16s.h	aeq3, aeq2, aep0
    495c:	031a44        	ae_mulfq32sp16s.h	aeq1, aeq1, aep1
    495f:	f884fd091f 	{ ae_lq32f.i	aeq0, a9, 4; ae_mulsfq32sp16s.l	aeq1, aeq0, aep1 }
    4964:	038c14        	ae_mulsfq32sp16s.l	aeq3, aeq0, aep0
    4967:	030c94        	ae_mulsfq32sp16s.l	aeq1, aeq2, aep0
    496a:	f800c0ffdf 	{ movi	a13, 255; ae_mulsfq32sp16s.h	aeq1, aeq0, aep0 }
    496f:	fe3c4fc3ae 	{ addi	a10, a3, -4; ae_roundsq32asym	aeq2, aeq3 }
    4974:	fc2c79a30f 	{ ae_sq32f.i	aeq2, a3, 0; ae_roundsq32asym	aeq0, aeq1 }
    4979:	624a24        	ae_sq32f.iu	aeq0, a10, 8
    497c:	448b14        	ae_lp16x2f.iu	aep0, a11, 4
    497f:	605824        	ae_lq32f.iu	aeq1, a8, 8
    4982:	0020f0        	nop
    4985:	308d76        	loop	a13, 49b9 <real_512_ifft+0x81>
    4988:	d5633d081f 	{ ae_lq32f.i	aeq0, a8, 4; ae_mulfq32sp16s.h	aeq2, aeq1, aep0 }
    498d:	f582bd69ff 	{ ae_lq32f.i	aeq3, a9, -4; ae_mulafq32sp16s.l	aeq2, aeq0, aep0 }
    4992:	d4622d9c1f 	{ ae_lp16x2f.iu	aep1, a12, 4; ae_mulfq32sp16s.h	aeq0, aeq0, aep0 }
    4997:	f881bd39ef 	{ ae_lq32f.iu	aeq1, a9, -8; ae_mulsfq32sp16s.l	aeq0, aeq1, aep0 }
    499c:	039044        	ae_mulafq32sp16s.h	aeq2, aeq1, aep1
    499f:	031454        	ae_mulsfq32sp16s.l	aeq0, aeq1, aep1
    49a2:	0394d4        	ae_mulsfq32sp16s.l	aeq2, aeq3, aep1
    49a5:	0314c4        	ae_mulsfq32sp16s.h	aeq0, aeq3, aep1
    49a8:	06e934        	ae_roundsq32asym	aeq3, aeq2
    49ab:	fc2479ba1f 	{ ae_sq32f.i	aeq3, a10, 4; ae_roundsq32asym	aeq0, aeq0 }
    49b0:	624a24        	ae_sq32f.iu	aeq0, a10, 8
    49b3:	605824        	ae_lq32f.iu	aeq1, a8, 8
    49b6:	448b14        	ae_lp16x2f.iu	aep0, a11, 4

000049b9 <real_512_ifft+0x81>:
    49b9:	ee1b81        	l32r	a8, 228 (9740 <fftorder_512>)
    49bc:	02bd           	mov.n	a11, a2
    49be:	40a092        	movi	a9, 64
    49c1:	3a8976        	loop	a9, 49ff <real_512_ifft+0xc7>
    49c4:	289d           	ae_l16si.n	a9, a8, 0
    49c6:	38cd           	ae_l16si.n	a12, a8, 2
    49c8:	0298d2        	l16si	a13, a8, 4
    49cb:	0398e2        	l16si	a14, a8, 6
    49ce:	a09930        	addx4	a9, a9, a3
    49d1:	a0cc30        	addx4	a12, a12, a3
    49d4:	a0dd30        	addx4	a13, a13, a3
    49d7:	a0ee30        	addx4	a14, a14, a3
    49da:	888b           	addi.n	a8, a8, 8
    49dc:	19a8           	l32i.n	a10, a9, 4
    49de:	0ba9           	s32i.n	a10, a11, 0
    49e0:	0998           	l32i.n	a9, a9, 0
    49e2:	1b99           	s32i.n	a9, a11, 4
    49e4:	1c98           	l32i.n	a9, a12, 4
    49e6:	2b99           	s32i.n	a9, a11, 8
    49e8:	0c98           	l32i.n	a9, a12, 0
    49ea:	3b99           	s32i.n	a9, a11, 12
    49ec:	1d98           	l32i.n	a9, a13, 4
    49ee:	4b99           	s32i.n	a9, a11, 16
    49f0:	0d98           	l32i.n	a9, a13, 0
    49f2:	5b99           	s32i.n	a9, a11, 20
    49f4:	1e98           	l32i.n	a9, a14, 4
    49f6:	6b99           	s32i.n	a9, a11, 24
    49f8:	0e98           	l32i.n	a9, a14, 0
    49fa:	7b99           	s32i.n	a9, a11, 28
    49fc:	20cbb2        	addi	a11, a11, 32
    49ff:	02ad           	mov.n	a10, a2
    4a01:	00a1b2        	movi	a11, 0x100
    4a04:	8c0c           	movi.n	a12, 8
    4a06:	ee0981        	l32r	a8, 22c (8710 <sw_fft_32b_2811>)
    4a09:	1d0c           	movi.n	a13, 1
    4a0b:	01a0e2        	movi	a14, 1
    4a0e:	0008e0        	callx8	a8
    4a11:	0abd           	mov.n	a11, a10
    4a13:	092c           	movi.n	a9, 32
    4a15:	458976        	loop	a9, 4a5e <real_512_ifft+0x126>
    4a18:	1298           	l32i.n	a9, a2, 4
    4a1a:	0399           	s32i.n	a9, a3, 0
    4a1c:	0298           	l32i.n	a9, a2, 0
    4a1e:	1399           	s32i.n	a9, a3, 4
    4a20:	3298           	l32i.n	a9, a2, 12
    4a22:	2399           	s32i.n	a9, a3, 8
    4a24:	2298           	l32i.n	a9, a2, 8
    4a26:	3399           	s32i.n	a9, a3, 12
    4a28:	5298           	l32i.n	a9, a2, 20
    4a2a:	4399           	s32i.n	a9, a3, 16
    4a2c:	4298           	l32i.n	a9, a2, 16
    4a2e:	5399           	s32i.n	a9, a3, 20
    4a30:	7298           	l32i.n	a9, a2, 28
    4a32:	6399           	s32i.n	a9, a3, 24
    4a34:	6298           	l32i.n	a9, a2, 24
    4a36:	7399           	s32i.n	a9, a3, 28
    4a38:	9298           	l32i.n	a9, a2, 36
    4a3a:	8399           	s32i.n	a9, a3, 32
    4a3c:	8298           	l32i.n	a9, a2, 32
    4a3e:	9399           	s32i.n	a9, a3, 36
    4a40:	b298           	l32i.n	a9, a2, 44
    4a42:	a399           	s32i.n	a9, a3, 40
    4a44:	a298           	l32i.n	a9, a2, 40
    4a46:	b399           	s32i.n	a9, a3, 44
    4a48:	d298           	l32i.n	a9, a2, 52
    4a4a:	c399           	s32i.n	a9, a3, 48
    4a4c:	c298           	l32i.n	a9, a2, 48
    4a4e:	d399           	s32i.n	a9, a3, 52
    4a50:	f298           	l32i.n	a9, a2, 60
    4a52:	e399           	s32i.n	a9, a3, 56
    4a54:	e298           	l32i.n	a9, a2, 56
    4a56:	f399           	s32i.n	a9, a3, 60
    4a58:	40c222        	addi	a2, a2, 64
    4a5b:	40c332        	addi	a3, a3, 64
    4a5e:	f8cb22        	addi	a2, a11, -8
    4a61:	822d           	ae_sext16	a2, a2
    4a63:	f01d           	retw.n

00004a65 <real_512_ifft+0x12d>:
    4a65:	000000                                        ...

00004a68 <SBAEC_INIT>:
    4a68:	00a136        	entry	a1, 80
    4a6b:	ed6721        	l32r	a2, 8 (d784 <p_ecnr_mem>)
    4a6e:	0b0c           	movi.n	a11, 0
    4a70:	0268           	l32i.n	a6, a2, 0
    4a72:	44a1c2        	movi	a12, 0x144
    4a75:	ed9481        	l32r	a8, c8 (8808 <xt_memset>)
    4a78:	0dd642        	addmi	a4, a6, 0xd00
    4a7b:	0fd652        	addmi	a5, a6, 0xf00
    4a7e:	0ed662        	addmi	a6, a6, 0xe00
    4a81:	f8c692        	addi	a9, a6, -8
    4a84:	38c672        	addi	a7, a6, 56
    4a87:	b8c6a2        	addi	a10, a6, -72
    4a8a:	51a9           	s32i.n	a10, a1, 20
    4a8c:	7179           	s32i.n	a7, a1, 28
    4a8e:	6199           	s32i.n	a9, a1, 24
    4a90:	b8c572        	addi	a7, a5, -72
    4a93:	78c492        	addi	a9, a4, 120
    4a96:	4199           	s32i.n	a9, a1, 16
    4a98:	28c442        	addi	a4, a4, 40
    4a9b:	78c662        	addi	a6, a6, 120
    4a9e:	086162        	s32i	a6, a1, 32
    4aa1:	20a440        	or	a10, a4, a4
    4aa4:	f8c562        	addi	a6, a5, -8
    4aa7:	38c552        	addi	a5, a5, 56
    4aaa:	0008e0        	callx8	a8
    4aad:	0b0c           	movi.n	a11, 0
    4aaf:	02a8           	l32i.n	a10, a2, 0
    4ab1:	c0a4c2        	movi	a12, 0x4c0
    4ab4:	ed8581        	l32r	a8, c8 (8808 <xt_memset>)
    4ab7:	03daa2        	addmi	a10, a10, 0x300
    4aba:	b0caa2        	addi	a10, a10, -80
    4abd:	0008e0        	callx8	a8
    4ac0:	ed5531        	l32r	a3, 14 (d778 <__bss_start>)
    4ac3:	03e8           	l32i.n	a14, a3, 0
    4ac5:	e39e92        	l16si	a9, a14, 0x1c6
    4ac8:	02d422        	addmi	a2, a4, 0x200
    4acb:	227916        	beqz	a9, 4cf6 <SBAEC_INIT+0x28e>
    4ace:	131ec2        	l16ui	a12, a14, 38
    4ad1:	34f090        	extui	a15, a9, 0, 4
    4ad4:	348490        	extui	a8, a9, 4, 4
    4ad7:	881b           	addi.n	a8, a8, 1
    4ad9:	ff1b           	addi.n	a15, a15, 1
    4adb:	11ffe0        	slli	a15, a15, 2
    4ade:	1188d0        	slli	a8, a8, 3
    4ae1:	375282        	s16i	a8, a2, 110
    4ae4:	3652f2        	s16i	a15, a2, 108
    4ae7:	88ad           	ae_sext16	a10, a8
    4ae9:	8ffd           	ae_sext16	a15, a15
    4aeb:	da1b           	addi.n	a13, a10, 1
    4aed:	b3daa0        	movgez	a13, a10, a10
    4af0:	21d1d0        	srai	a13, a13, 1
    4af3:	43ccf0        	min	a12, a12, a15
    4af6:	8ddd           	ae_sext16	a13, a13
    4af8:	43ccd0        	min	a12, a12, a13
    4afb:	34d890        	extui	a13, a9, 8, 4
    4afe:	dd1b           	addi.n	a13, a13, 1
    4b00:	11dde0        	slli	a13, a13, 2
    4b03:	3852d2        	s16i	a13, a2, 112
    4b06:	8ddd           	ae_sext16	a13, a13
    4b08:	43ccd0        	min	a12, a12, a13
    4b0b:	34dc90        	extui	a13, a9, 12, 4
    4b0e:	dd1b           	addi.n	a13, a13, 1
    4b10:	11dde0        	slli	a13, a13, 2
    4b13:	3952d2        	s16i	a13, a2, 114
    4b16:	8ddd           	ae_sext16	a13, a13
    4b18:	43ccd0        	min	a12, a12, a13
    4b1b:	135ec2        	s16i	a12, a14, 38

00004b1e <SBAEC_INIT+0xb6>:
    4b1e:	beeb           	addi.n	a11, a14, 14
    4b20:	ed3981        	l32r	a8, 4 (8820 <xt_memcpy>)
    4b23:	02c4a2        	addi	a10, a4, 2
    4b26:	0ea0c2        	movi	a12, 14
    4b29:	0008e0        	callx8	a8
    4b2c:	04ed           	mov.n	a14, a4
    4b2e:	edc381        	l32r	a8, 23c (4d28 <Fill_CH_MEM_WB>)
    4b31:	ed35f1        	l32r	a15, 8 (d784 <p_ecnr_mem>)
    4b34:	03b8           	l32i.n	a11, a3, 0
    4b36:	edc091        	l32r	a9, 238 (a688 <fftorder_512_12b+0x248>)
    4b39:	0ff8           	l32i.n	a15, a15, 0
    4b3b:	061ba2        	l16ui	a10, a11, 12
    4b3e:	d99bd2        	l16si	a13, a11, 0x1b2
    4b41:	d81bc2        	l16ui	a12, a11, 0x1b0
    4b44:	1054c2        	s16i	a12, a4, 32
    4b47:	1154d2        	s16i	a13, a4, 34
    4b4a:	61c8           	l32i.n	a12, a1, 24
    4b4c:	71d8           	l32i.n	a13, a1, 28
    4b4e:	11aac0        	slli	a10, a10, 4
    4b51:	c61bb2        	l16ui	a11, a11, 0x18c
    4b54:	9f9a           	add.n	a9, a15, a9
    4b56:	7f2992        	l32i	a9, a9, 0x1fc
    4b59:	0f54b2        	s16i	a11, a4, 30
    4b5c:	94a9           	s32i.n	a10, a4, 36
    4b5e:	03dff2        	addmi	a15, a15, 0x300
    4b61:	41a8           	l32i.n	a10, a1, 16
    4b63:	b0cff2        	addi	a15, a15, -80
    4b66:	51b8           	l32i.n	a11, a1, 20
    4b68:	0199           	s32i.n	a9, a1, 0
    4b6a:	0008e0        	callx8	a8
    4b6d:	06cd           	mov.n	a12, a6
    4b6f:	05dd           	mov.n	a13, a5
    4b71:	04ed           	mov.n	a14, a4
    4b73:	3992b2        	l16si	a11, a2, 114
    4b76:	3792a2        	l16si	a10, a2, 110
    4b79:	ed2381        	l32r	a8, 8 (d784 <p_ecnr_mem>)
    4b7c:	3692f2        	l16si	a15, a2, 108
    4b7f:	389292        	l16si	a9, a2, 112
    4b82:	0888           	l32i.n	a8, a8, 0
    4b84:	ffaa           	add.n	a15, a15, a10
    4b86:	99ba           	add.n	a9, a9, a11
    4b88:	81a8           	l32i.n	a10, a1, 32
    4b8a:	07bd           	mov.n	a11, a7
    4b8c:	ff9a           	add.n	a15, a15, a9
    4b8e:	edaa91        	l32r	a9, 238 (a688 <fftorder_512_12b+0x248>)
    4b91:	a0ff80        	addx4	a15, a15, a8
    4b94:	03dff2        	addmi	a15, a15, 0x300
    4b97:	989a           	add.n	a9, a8, a9
    4b99:	7f2992        	l32i	a9, a9, 0x1fc
    4b9c:	b0cff2        	addi	a15, a15, -80
    4b9f:	eda781        	l32r	a8, 23c (4d28 <Fill_CH_MEM_WB>)
    4ba2:	01d992        	addmi	a9, a9, 0x100
    4ba5:	18c992        	addi	a9, a9, 24
    4ba8:	0199           	s32i.n	a9, a1, 0
    4baa:	0008e0        	callx8	a8
    4bad:	61d8           	l32i.n	a13, a1, 24
    4baf:	ed16a1        	l32r	a10, 8 (d784 <p_ecnr_mem>)
    4bb2:	8188           	l32i.n	a8, a1, 32
    4bb4:	51e8           	l32i.n	a14, a1, 20
    4bb6:	0aa8           	l32i.n	a10, a10, 0
    4bb8:	71b8           	l32i.n	a11, a1, 28
    4bba:	eee8           	l32i.n	a14, a14, 56
    4bbc:	a72a92        	l32i	a9, a10, 0x29c
    4bbf:	a32ac2        	l32i	a12, a10, 0x28c
    4bc2:	dbc9           	s32i.n	a12, a11, 52
    4bc4:	eb99           	s32i.n	a9, a11, 56
    4bc6:	03c8           	l32i.n	a12, a3, 0
    4bc8:	a52aa2        	l32i	a10, a10, 0x294
    4bcb:	3692b2        	l16si	a11, a2, 108
    4bce:	d5a9           	s32i.n	a10, a5, 52
    4bd0:	41a8           	l32i.n	a10, a1, 16
    4bd2:	e599           	s32i.n	a9, a5, 56
    4bd4:	169cc2        	l16si	a12, a12, 44
    4bd7:	eaf8           	l32i.n	a15, a10, 56
    4bd9:	e8f9           	s32i.n	a15, a8, 56
    4bdb:	e7e9           	s32i.n	a14, a7, 56
    4bdd:	edd8           	l32i.n	a13, a13, 56
    4bdf:	ed9881        	l32r	a8, 240 (4d10 <Fill_sbco>)
    4be2:	e6d9           	s32i.n	a13, a6, 56
    4be4:	01a0d2        	movi	a13, 1
    4be7:	0008e0        	callx8	a8
    4bea:	51a8           	l32i.n	a10, a1, 20
    4bec:	1d0c           	movi.n	a13, 1
    4bee:	03c8           	l32i.n	a12, a3, 0
    4bf0:	3792e2        	l16si	a14, a2, 110
    4bf3:	ed9381        	l32r	a8, 240 (4d10 <Fill_sbco>)
    4bf6:	179cc2        	l16si	a12, a12, 46
    4bf9:	be1b           	addi.n	a11, a14, 1
    4bfb:	b3bee0        	movgez	a11, a14, a14
    4bfe:	21b1b0        	srai	a11, a11, 1
    4c01:	8bbd           	ae_sext16	a11, a11
    4c03:	0008e0        	callx8	a8
    4c06:	61a8           	l32i.n	a10, a1, 24
    4c08:	3892b2        	l16si	a11, a2, 112
    4c0b:	03c8           	l32i.n	a12, a3, 0
    4c0d:	ed8c81        	l32r	a8, 240 (4d10 <Fill_sbco>)
    4c10:	1d0c           	movi.n	a13, 1
    4c12:	189cc2        	l16si	a12, a12, 48
    4c15:	0008e0        	callx8	a8
    4c18:	71a8           	l32i.n	a10, a1, 28
    4c1a:	3992b2        	l16si	a11, a2, 114
    4c1d:	03c8           	l32i.n	a12, a3, 0
    4c1f:	ed8881        	l32r	a8, 240 (4d10 <Fill_sbco>)
    4c22:	01a0d2        	movi	a13, 1
    4c25:	199cc2        	l16si	a12, a12, 50
    4c28:	0008e0        	callx8	a8
    4c2b:	81a8           	l32i.n	a10, a1, 32
    4c2d:	3692b2        	l16si	a11, a2, 108
    4c30:	03c8           	l32i.n	a12, a3, 0
    4c32:	4d0c           	movi.n	a13, 4
    4c34:	ed8381        	l32r	a8, 240 (4d10 <Fill_sbco>)
    4c37:	06dcc2        	addmi	a12, a12, 0x600
    4c3a:	b09cc2        	l16si	a12, a12, 0x160
    4c3d:	0008e0        	callx8	a8
    4c40:	07ad           	mov.n	a10, a7
    4c42:	4d0c           	movi.n	a13, 4
    4c44:	03c8           	l32i.n	a12, a3, 0
    4c46:	3792e2        	l16si	a14, a2, 110
    4c49:	ed7d81        	l32r	a8, 240 (4d10 <Fill_sbco>)
    4c4c:	06dcc2        	addmi	a12, a12, 0x600
    4c4f:	be1b           	addi.n	a11, a14, 1
    4c51:	b3bee0        	movgez	a11, a14, a14
    4c54:	64ccc2        	addi	a12, a12, 100
    4c57:	7f9cc2        	l16si	a12, a12, 254
    4c5a:	21b1b0        	srai	a11, a11, 1
    4c5d:	8bbd           	ae_sext16	a11, a11
    4c5f:	0008e0        	callx8	a8
    4c62:	06ad           	mov.n	a10, a6
    4c64:	3892b2        	l16si	a11, a2, 112
    4c67:	4d0c           	movi.n	a13, 4
    4c69:	03c8           	l32i.n	a12, a3, 0
    4c6b:	64a672        	movi	a7, 0x664
    4c6e:	ed7481        	l32r	a8, 240 (4d10 <Fill_sbco>)
    4c71:	06dcc2        	addmi	a12, a12, 0x600
    4c74:	64ccc2        	addi	a12, a12, 100
    4c77:	809cc2        	l16si	a12, a12, 0x100
    4c7a:	0008e0        	callx8	a8
    4c7d:	05ad           	mov.n	a10, a5
    4c7f:	ece261        	l32r	a6, 8 (d784 <p_ecnr_mem>)
    4c82:	3992b2        	l16si	a11, a2, 114
    4c85:	03c8           	l32i.n	a12, a3, 0
    4c87:	4d0c           	movi.n	a13, 4
    4c89:	ed6d81        	l32r	a8, 240 (4d10 <Fill_sbco>)
    4c8c:	cc7a           	add.n	a12, a12, a7
    4c8e:	819cc2        	l16si	a12, a12, 0x102
    4c91:	0008e0        	callx8	a8
    4c94:	03c8           	l32i.n	a12, a3, 0
    4c96:	ecefa1        	l32r	a10, 54 (7fff <xtensa_fft8_32b+0xef>)
    4c99:	06d8           	l32i.n	a13, a6, 0
    4c9b:	dc1cf2        	l16ui	a15, a12, 0x1b8
    4c9e:	021c52        	l16ui	a5, a12, 4
    4ca1:	231c82        	l16ui	a8, a12, 70
    4ca4:	051c92        	l16ui	a9, a12, 10
    4ca7:	041ce2        	l16ui	a14, a12, 8
    4caa:	01ddd2        	addmi	a13, a13, 0x100
    4cad:	74cdd2        	addi	a13, a13, 116
    4cb0:	14b1e0        	extui	a11, a14, 1, 2
    4cb3:	04e0e0        	extui	a14, a14, 0, 1
    4cb6:	151cc2        	l16ui	a12, a12, 42
    4cb9:	2852e2        	s16i	a14, a2, 80
    4cbc:	825db2        	s16i	a11, a13, 0x104
    4cbf:	7d5dc2        	s16i	a12, a13, 250
    4cc2:	1554a2        	s16i	a10, a4, 42
    4cc5:	295292        	s16i	a9, a2, 82
    4cc8:	2a5282        	s16i	a8, a2, 84
    4ccb:	645d           	ae_s16i.n	a5, a4, 0
    4ccd:	5642f2        	s8i	a15, a2, 86
    4cd0:	03e8           	l32i.n	a14, a3, 0
    4cd2:	3c0c           	movi.n	a12, 3
    4cd4:	dc1ee2        	l16ui	a14, a14, 0x1b8
    4cd7:	442dd2        	l32i	a13, a13, 0x110
    4cda:	32c4a2        	addi	a10, a4, 50
    4cdd:	41e8e0        	srli	a14, a14, 8
    4ce0:	5742e2        	s8i	a14, a2, 87
    4ce3:	03b8           	l32i.n	a11, a3, 0
    4ce5:	ecc781        	l32r	a8, 4 (8820 <xt_memcpy>)
    4ce8:	1a62d2        	s32i	a13, a2, 104
    4ceb:	07dbb2        	addmi	a11, a11, 0x700
    4cee:	54cbb2        	addi	a11, a11, 84
    4cf1:	0008e0        	callx8	a8
    4cf4:	f01d           	retw.n

00004cf6 <SBAEC_INIT+0x28e>:
    4cf6:	0c2c           	movi.n	a12, 32
    4cf8:	8d1c           	movi.n	a13, 24
    4cfa:	0f3c           	movi.n	a15, 48
    4cfc:	084c           	movi.n	a8, 64
    4cfe:	365282        	s16i	a8, a2, 108
    4d01:	3752f2        	s16i	a15, a2, 110
    4d04:	3852d2        	s16i	a13, a2, 112
    4d07:	3952c2        	s16i	a12, a2, 114
    4d0a:	ff8406        	j	4b1e <SBAEC_INIT+0xb6>

00004d0d <SBAEC_INIT+0x2a5>:
    4d0d:	000000                                        ...

00004d10 <Fill_sbco>:
    4d10:	004136        	entry	a1, 32
    4d13:	115232        	s16i	a3, a2, 34
    4d16:	125252        	s16i	a5, a2, 36
    4d19:	118400        	slli	a8, a4, 16
    4d1c:	ecce61        	l32r	a6, 54 (7fff <xtensa_fft8_32b+0xef>)
    4d1f:	105262        	s16i	a6, a2, 32
    4d22:	5289           	s32i.n	a8, a2, 20
    4d24:	4289           	s32i.n	a8, a2, 16
    4d26:	f01d           	retw.n

00004d28 <Fill_CH_MEM_WB>:
    4d28:	004136        	entry	a1, 32
    4d2b:	8188           	l32i.n	a8, a1, 32
    4d2d:	a279           	s32i.n	a7, a2, 40
    4d2f:	01d6b2        	addmi	a11, a6, 0x100
    4d32:	b99be2        	l16si	a14, a11, 0x172
    4d35:	b69bc2        	l16si	a12, a11, 0x16c
    4d38:	b89ba2        	l16si	a10, a11, 0x170
    4d3b:	b79bb2        	l16si	a11, a11, 0x16e
    4d3e:	909c70        	addx2	a9, a12, a7
    4d41:	a399           	s32i.n	a9, a3, 40
    4d43:	90db90        	addx2	a13, a11, a9
    4d46:	a4d9           	s32i.n	a13, a4, 40
    4d48:	90dad0        	addx2	a13, a10, a13
    4d4b:	a5d9           	s32i.n	a13, a5, 40
    4d4d:	90eed0        	addx2	a14, a14, a13
    4d50:	90cce0        	addx2	a12, a12, a14
    4d53:	90bbc0        	addx2	a11, a11, a12
    4d56:	90aab0        	addx2	a10, a10, a11
    4d59:	b2e9           	s32i.n	a14, a2, 44
    4d5b:	a2f8           	l32i.n	a15, a2, 40
    4d5d:	a4e8           	l32i.n	a14, a4, 40
    4d5f:	b3c9           	s32i.n	a12, a3, 44
    4d61:	b4b9           	s32i.n	a11, a4, 44
    4d63:	28c8c2        	addi	a12, a8, 40
    4d66:	50c8b2        	addi	a11, a8, 80
    4d69:	b5a9           	s32i.n	a10, a5, 44
    4d6b:	c399           	s32i.n	a9, a3, 48
    4d6d:	64c8a2        	addi	a10, a8, 100
    4d70:	78c892        	addi	a9, a8, 120
    4d73:	c2f9           	s32i.n	a15, a2, 48
    4d75:	c4e9           	s32i.n	a14, a4, 48
    4d77:	c5d9           	s32i.n	a13, a5, 48
    4d79:	d389           	s32i.n	a8, a3, 52
    4d7b:	f3c9           	s32i.n	a12, a3, 60
    4d7d:	01d882        	addmi	a8, a8, 0x100
    4d80:	d2b9           	s32i.n	a11, a2, 52
    4d82:	8cc8c2        	addi	a12, a8, -116
    4d85:	a0c8b2        	addi	a11, a8, -96
    4d88:	d4a9           	s32i.n	a10, a4, 52
    4d8a:	f299           	s32i.n	a9, a2, 60
    4d8c:	c8c8a2        	addi	a10, a8, -56
    4d8f:	f0c892        	addi	a9, a8, -16
    4d92:	f4c9           	s32i.n	a12, a4, 60
    4d94:	884b           	addi.n	a8, a8, 4
    4d96:	f5b9           	s32i.n	a11, a5, 60
    4d98:	e3a9           	s32i.n	a10, a3, 56
    4d9a:	e299           	s32i.n	a9, a2, 56
    4d9c:	e489           	s32i.n	a8, a4, 56
    4d9e:	f01d           	retw.n

00004da0 <common_x_pow>:
    4da0:	006136        	entry	a1, 48
    4da3:	36c434        	ae_cvtq48a32s	aeq3, a4
    4da6:	fe84bec33f 	{ ae_cvtq48a32s	aeq0, a3; ae_absq56	aeq2, aeq3 }
    4dab:	065864        	ae_absq56	aeq1, aeq0
    4dae:	09a104        	ae_ltq56s	b0, aeq1, aeq2
    4db1:	ed2451        	l32r	a5, 244 (200000 <_end+0x1f2874>)
    4db4:	550076        	bf	b0, 4e0d <common_x_pow+0x6d>
    4db7:	fb36fec57f 	{ ae_cvtq48a32s	aeq1, a5; ae_subq56	aeq3, aeq2, aeq1 }
    4dbc:	09b164        	ae_ltq56s	b6, aeq1, aeq3
    4dbf:	ed2381        	l32r	a8, 24c (aa80 <immediate_num>)
    4dc2:	ed2191        	l32r	a9, 248 (2aaa00 <_end+0x29d274>)
    4dc5:	240676        	bf	b6, 4ded <common_x_pow+0x4d>
    4dc8:	440804        	ae_lp16x2f.i	aep0, a8, 0
    4dcb:	399994        	ae_movpa24x2	aep1, a9, a9
    4dce:	d5e63d222f 	{ ae_lq32f.i	aeq1, a2, 8; ae_mulfq32sp16s.l	aeq2, aeq0, aep1 }
    4dd3:	c10844        	ae_mulzaafq32sp16s.lh	aeq1, aeq1, aep0, aeq0, aep0
    4dd6:	ff347d423f 	{ ae_lq32f.i	aeq2, a2, 12; ae_roundsq32asym	aeq3, aeq2 }
    4ddb:	c180b4        	ae_mulzaafq32sp16s.lh	aeq2, aeq2, aep0, aeq3, aep0
    4dde:	06d934        	ae_roundsq32asym	aeq3, aeq1
    4de1:	fd3479b22f 	{ ae_sq32f.i	aeq3, a2, 8; ae_roundsq32asym	aeq1, aeq2 }
    4de6:	621234        	ae_sq32f.i	aeq1, a2, 12
    4de9:	120c           	movi.n	a2, 1
    4deb:	f01d           	retw.n

00004ded <common_x_pow+0x4d>:
    4ded:	ed17a1        	l32r	a10, 24c (aa80 <immediate_num>)
    4df0:	60c224        	ae_lq32f.i	aeq3, a2, 8
    4df3:	442a04        	ae_lp16x2f.i	aep2, a10, 0
    4df6:	0f497d223f 	{ ae_lq32f.i	aeq1, a2, 12; ae_mulzaafq32sp16s.lh	aeq3, aeq3, aep2, aeq0, aep2 }
    4dfb:	c12a44        	ae_mulzaafq32sp16s.lh	aeq1, aeq1, aep2, aeq0, aep2
    4dfe:	06b934        	ae_roundsq32asym	aeq2, aeq3
    4e01:	ff2c79a22f 	{ ae_sq32f.i	aeq2, a2, 8; ae_roundsq32asym	aeq3, aeq1 }
    4e06:	623234        	ae_sq32f.i	aeq3, a2, 12
    4e09:	120c           	movi.n	a2, 1
    4e0b:	f01d           	retw.n

00004e0d <common_x_pow+0x6d>:
    4e0d:	ed0fb1        	l32r	a11, 24c (aa80 <immediate_num>)
    4e10:	604224        	ae_lq32f.i	aeq1, a2, 8
    4e13:	443b04        	ae_lp16x2f.i	aep3, a11, 0
    4e16:	0c6d7d423f 	{ ae_lq32f.i	aeq2, a2, 12; ae_mulzaafq32sp16s.lh	aeq1, aeq1, aep3, aeq0, aep3 }
    4e1b:	c1b3b4        	ae_mulzaafq32sp16s.lh	aeq2, aeq2, aep3, aeq3, aep3
    4e1e:	065934        	ae_roundsq32asym	aeq1, aeq1
    4e21:	fd3479922f 	{ ae_sq32f.i	aeq1, a2, 8; ae_roundsq32asym	aeq1, aeq2 }
    4e26:	621234        	ae_sq32f.i	aeq1, a2, 12
    4e29:	020c           	movi.n	a2, 0
    4e2b:	f01d           	retw.n

00004e2d <common_x_pow+0x8d>:
    4e2d:	000000                                        ...

00004e30 <ref_gain_adapt>:
    4e30:	004136        	entry	a1, 32
    4e33:	ed0781        	l32r	a8, 250 (aa84 <immediate_num+0x4>)
    4e36:	5378           	l32i.n	a7, a3, 20
    4e38:	360734        	ae_cvtq48a32s	aeq0, a7
    4e3b:	0395d6        	bgez	a5, 4e78 <ref_gain_adapt+0x48>
    4e3e:	440804        	ae_lp16x2f.i	aep0, a8, 0
    4e41:	059262        	l16si	a6, a2, 10
    4e44:	368434        	ae_cvtq48a32s	aeq2, a4
    4e47:	038a84        	ae_mulfq32sp16s.h	aeq3, aeq2, aep0
    4e4a:	116600        	slli	a6, a6, 16
    4e4d:	364634        	ae_cvtq48a32s	aeq1, a6
    4e50:	09b104        	ae_ltq56s	b0, aeq1, aeq3
    4e53:	ecfca1        	l32r	a10, 244 (200000 <_end+0x1f2874>)
    4e56:	370076        	bf	b0, 4e91 <ref_gain_adapt+0x61>
    4e59:	a10804        	ae_mulzaafq32sp16s.ll	aeq1, aeq0, aep0, aeq0, aep0
    4e5c:	06d934        	ae_roundsq32asym	aeq3, aeq1
    4e5f:	36b904        	ae_trunca32q48	a9, aeq3
    4e62:	608344        	ae_lq32f.i	aeq2, a3, 16
    4e65:	5399a0        	max	a9, a9, a10
    4e68:	5399           	s32i.n	a9, a3, 20
    4e6a:	441844        	ae_lp16x2f.i	aep1, a8, 16
    4e6d:	c191b4        	ae_mulzaafq32sp16s.lh	aeq2, aeq2, aep1, aeq3, aep1
    4e70:	066934        	ae_roundsq32asym	aeq1, aeq2
    4e73:	621344        	ae_sq32f.i	aeq1, a3, 16
    4e76:	f01d           	retw.n

00004e78 <ref_gain_adapt+0x48>:
    4e78:	ecf3b1        	l32r	a11, 244 (200000 <_end+0x1f2874>)
    4e7b:	60c344        	ae_lq32f.i	aeq3, a3, 16
    4e7e:	53b7b0        	max	a11, a7, a11
    4e81:	53b9           	s32i.n	a11, a3, 20
    4e83:	442844        	ae_lp16x2f.i	aep2, a8, 16
    4e86:	c1aac4        	ae_mulzaafq32sp16s.lh	aeq3, aeq3, aep2, aeq0, aep2
    4e89:	06b934        	ae_roundsq32asym	aeq2, aeq3
    4e8c:	622344        	ae_sq32f.i	aeq2, a3, 16
    4e8f:	f01d           	retw.n

00004e91 <ref_gain_adapt+0x61>:
    4e91:	440814        	ae_lp16x2f.i	aep0, a8, 4
    4e94:	038a84        	ae_mulfq32sp16s.h	aeq3, aeq2, aep0
    4e97:	09b114        	ae_ltq56s	b1, aeq1, aeq3
    4e9a:	ecead1        	l32r	a13, 244 (200000 <_end+0x1f2874>)
    4e9d:	3b0176        	bf	b1, 4edc <ref_gain_adapt+0xac>
    4ea0:	a10004        	ae_mulzaafq32sp16s.ll	aeq0, aeq0, aep0, aeq0, aep0
    4ea3:	06c934        	ae_roundsq32asym	aeq3, aeq0
    4ea6:	36bc04        	ae_trunca32q48	a12, aeq3
    4ea9:	608344        	ae_lq32f.i	aeq2, a3, 16
    4eac:	53ccd0        	max	a12, a12, a13
    4eaf:	53c9           	s32i.n	a12, a3, 20
    4eb1:	443844        	ae_lp16x2f.i	aep3, a8, 16
    4eb4:	c1b3b4        	ae_mulzaafq32sp16s.lh	aeq2, aeq2, aep3, aeq3, aep3
    4eb7:	066934        	ae_roundsq32asym	aeq1, aeq2
    4eba:	621344        	ae_sq32f.i	aeq1, a3, 16
    4ebd:	f01d           	retw.n

00004ebf <ref_gain_adapt+0x8f>:
	...

00004ec0 <ref_gain_adapt+0x90>:
    4ec0:	06c934        	ae_roundsq32asym	aeq3, aeq0
    4ec3:	36bc04        	ae_trunca32q48	a12, aeq3
    4ec6:	608344        	ae_lq32f.i	aeq2, a3, 16
    4ec9:	53ccd0        	max	a12, a12, a13
    4ecc:	53c9           	s32i.n	a12, a3, 20
    4ece:	443844        	ae_lp16x2f.i	aep3, a8, 16
    4ed1:	c1b3b4        	ae_mulzaafq32sp16s.lh	aeq2, aeq2, aep3, aeq3, aep3
    4ed4:	066934        	ae_roundsq32asym	aeq1, aeq2
    4ed7:	621344        	ae_sq32f.i	aeq1, a3, 16
    4eda:	f01d           	retw.n

00004edc <ref_gain_adapt+0xac>:
    4edc:	440824        	ae_lp16x2f.i	aep0, a8, 8
    4edf:	038a44        	ae_mulfq32sp16s.h	aeq3, aeq1, aep0
    4ee2:	09b224        	ae_ltq56s	b2, aeq2, aeq3
    4ee5:	ecd7d1        	l32r	a13, 244 (200000 <_end+0x1f2874>)
    4ee8:	d5e36d483f 	{ ae_lp16x2f.i	aep4, a8, 12; ae_mulfq32sp16s.l	aeq3, aeq1, aep0 }
    4eed:	cf0276        	bf	b2, 4ec0 <ref_gain_adapt+0x90>
    4ef0:	09a334        	ae_ltq56s	b3, aeq3, aeq2
    4ef3:	02d2f2        	addmi	a15, a2, 0x200
    4ef6:	3e0c           	movi.n	a14, 3
    4ef8:	051376        	bt	b3, 4f01 <ref_gain_adapt+0xd1>
    4efb:	560ff2        	l8ui	a15, a15, 86
    4efe:	be0ef7        	bnone	a14, a15, 4ec0 <ref_gain_adapt+0x90>

00004f01 <ref_gain_adapt+0xd1>:
    4f01:	034214        	ae_mulfq32sp16s.l	aeq0, aeq0, aep4
    4f04:	ffee06        	j	4ec0 <ref_gain_adapt+0x90>

00004f07 <ref_gain_adapt+0xd7>:
	...

00004f08 <aec_post_calc>:
    4f08:	006136        	entry	a1, 48
    4f0b:	ecd291        	l32r	a9, 254 (80000 <_end+0x72874>)
    4f0e:	ec4ba1        	l32r	a10, 3c (10000 <_end+0x2874>)
    4f11:	fcc482        	addi	a8, a4, -4
    4f14:	098816        	beqz	a8, 4fb0 <aec_post_calc+0xa8>
    4f17:	0323c2        	l32i	a12, a3, 12
    4f1a:	364934        	ae_cvtq48a32s	aeq1, a9
    4f1d:	1ec2e2        	addi	a14, a2, 30
    4f20:	400e04        	ae_lp16f.i	aep0, a14, 0
    4f23:	d4e3f023be 	{ l32i	a11, a3, 8; ae_mulfq32sp16u.l	aeq1, aeq1, aep0 }
    4f28:	360a34        	ae_cvtq48a32s	aeq0, a10
    4f2b:	d4e2b9910f 	{ ae_sq32f.i	aeq1, a1, 0; ae_mulfq32sp16u.l	aeq0, aeq0, aep0 }
    4f30:	0021d2        	l32i	a13, a1, 0
    4f33:	620104        	ae_sq32f.i	aeq0, a1, 0
    4f36:	0021a2        	l32i	a10, a1, 0
    4f39:	53bbd0        	max	a11, a11, a13
    4f3c:	53aca0        	max	a10, a12, a10
    4f3f:	43aba0        	min	a10, a11, a10

00004f42 <aec_post_calc+0x3a>:
    4f42:	ecc581        	l32r	a8, 258 (7e78 <airoha_divide_limit_1>)
    4f45:	0008e0        	callx8	a8
    4f48:	4c2244        	ae_lp24.i	aep2, a2, 16
    4f4b:	378aa4        	ae_truncp24a32x2	aep0, a10, a10
    4f4e:	60c364        	ae_lq32f.i	aeq3, a3, 24
    4f51:	018a34        	ae_mulafp24s.ll	aeq3, aep0, aep2
    4f54:	06b934        	ae_roundsq32asym	aeq2, aeq3
    4f57:	622364        	ae_sq32f.i	aeq2, a3, 24
    4f5a:	1792a2        	l16si	a10, a2, 46
    4f5d:	029292        	l16si	a9, a2, 4
    4f60:	604374        	ae_lq32f.i	aeq1, a3, 28
    4f63:	1692b2        	l16si	a11, a2, 44
    4f66:	1fa9a7        	bge	a9, a10, 4f89 <aec_post_calc+0x81>
    4f69:	0a9292        	l16si	a9, a2, 20
    4f6c:	6b1ba6        	blti	a11, 1, 4fdb <aec_post_calc+0xd3>
    4f6f:	c92b           	addi.n	a12, a9, 2
    4f71:	0316c4        	wur.ae_sar	a12
    4f74:	f823ec327f 	{ ae_lp16f.i	aep3, a2, 14; ae_sllssp24s	aep1, aep0 }
    4f79:	071b14        	ae_maxp24s	aep1, aep1, aep3
    4f7c:	011a34        	ae_mulafp24s.ll	aeq1, aep1, aep2
    4f7f:	061934        	ae_roundsq32asym	aeq0, aeq1
    4f82:	620374        	ae_sq32f.i	aeq0, a3, 28
    4f85:	f01d           	retw.n

00004f87 <aec_post_calc+0x7f>:
	...

00004f89 <aec_post_calc+0x81>:
    4f89:	0b92a2        	l16si	a10, a2, 22
    4f8c:	404274        	ae_lp16f.i	aep4, a2, 14
    4f8f:	f862fd637f 	{ ae_lq32f.i	aeq3, a3, 28; ae_movp48	aep1, aep0 }
    4f94:	0a2aa6        	blti	a10, 2, 4fa2 <aec_post_calc+0x9a>
    4f97:	8a0b           	addi.n	a8, a10, -1
    4f99:	05a876        	loopgtz	a8, 4fa2 <aec_post_calc+0x9a>
    4f9c:	010174        	ae_mulfp24s.ll	aeq0, aep0, aep1
    4f9f:	1b8d04        	ae_roundsp24q48asym	aep0, aeq0
    4fa2:	070c44        	ae_maxp24s	aep4, aep0, aep4
    4fa5:	01ca34        	ae_mulafp24s.ll	aeq3, aep4, aep2
    4fa8:	06b934        	ae_roundsq32asym	aeq2, aeq3
    4fab:	622374        	ae_sq32f.i	aeq2, a3, 28
    4fae:	f01d           	retw.n

00004fb0 <aec_post_calc+0xa8>:
    4fb0:	33c8           	l32i.n	a12, a3, 12
    4fb2:	364934        	ae_cvtq48a32s	aeq1, a9
    4fb5:	20c2e2        	addi	a14, a2, 32
    4fb8:	405e04        	ae_lp16f.i	aep5, a14, 0
    4fbb:	d4f7f023be 	{ l32i	a11, a3, 8; ae_mulfq32sp16u.l	aeq1, aeq1, aep5 }
    4fc0:	360a34        	ae_cvtq48a32s	aeq0, a10
    4fc3:	d4f6b9910f 	{ ae_sq32f.i	aeq1, a1, 0; ae_mulfq32sp16u.l	aeq0, aeq0, aep5 }
    4fc8:	01d8           	l32i.n	a13, a1, 0
    4fca:	620104        	ae_sq32f.i	aeq0, a1, 0
    4fcd:	01a8           	l32i.n	a10, a1, 0
    4fcf:	53bbd0        	max	a11, a11, a13
    4fd2:	53aca0        	max	a10, a12, a10
    4fd5:	43aba0        	min	a10, a11, a10
    4fd8:	ffd986        	j	4f42 <aec_post_calc+0x3a>

00004fdb <aec_post_calc+0xd3>:
    4fdb:	031694        	wur.ae_sar	a9
    4fde:	fb23ac727f 	{ ae_lp16f.i	aep7, a2, 14; ae_sllssp24s	aep6, aep0 }
    4fe3:	dbfa3d637f 	{ ae_lq32f.i	aeq3, a3, 28; ae_maxp24s	aep6, aep6, aep7 }
    4fe8:	01ea34        	ae_mulafp24s.ll	aeq3, aep6, aep2
    4feb:	06b934        	ae_roundsq32asym	aeq2, aeq3
    4fee:	622374        	ae_sq32f.i	aeq2, a3, 28
    4ff1:	f01d           	retw.n

00004ff3 <aec_post_calc+0xeb>:
	...

00004ff4 <aec_post_calc_FB>:
    4ff4:	004136        	entry	a1, 32
    4ff7:	ec9881        	l32r	a8, 258 (7e78 <airoha_divide_limit_1>)
    4ffa:	ec08b1        	l32r	a11, 1c (1000 <inv_mel_filter+0x90>)
    4ffd:	33c8           	l32i.n	a12, a3, 12
    4fff:	23a8           	l32i.n	a10, a3, 8
    5001:	00a2d2        	movi	a13, 0x200
    5004:	53ccd0        	max	a12, a12, a13
    5007:	53aab0        	max	a10, a10, a11
    500a:	0abd           	mov.n	a11, a10
    500c:	43aac0        	min	a10, a10, a12
    500f:	0008e0        	callx8	a8
    5012:	4c2244        	ae_lp24.i	aep2, a2, 16
    5015:	378aa4        	ae_truncp24a32x2	aep0, a10, a10
    5018:	604364        	ae_lq32f.i	aeq1, a3, 24
    501b:	010a34        	ae_mulafp24s.ll	aeq1, aep0, aep2
    501e:	fc2c7d637f 	{ ae_lq32f.i	aeq3, a3, 28; ae_roundsq32asym	aeq0, aeq1 }
    5023:	620364        	ae_sq32f.i	aeq0, a3, 24
    5026:	1c92f2        	l16si	a15, a2, 56
    5029:	0292e2        	l16si	a14, a2, 4
    502c:	1d9282        	l16si	a8, a2, 58
    502f:	0a9292        	l16si	a9, a2, 20
    5032:	1faef7        	bge	a14, a15, 5055 <aec_post_calc_FB+0x61>
    5035:	4718a6        	blti	a8, 1, 5080 <aec_post_calc_FB+0x8c>
    5038:	b92b           	addi.n	a11, a9, 2
    503a:	0316b4        	wur.ae_sar	a11
    503d:	32c2a2        	addi	a10, a2, 50
    5040:	f823ec3a0f 	{ ae_lp16f.i	aep3, a10, 0; ae_sllssp24s	aep1, aep0 }
    5045:	071b14        	ae_maxp24s	aep1, aep1, aep3
    5048:	019a34        	ae_mulafp24s.ll	aeq3, aep1, aep2
    504b:	06b934        	ae_roundsq32asym	aeq2, aeq3
    504e:	622374        	ae_sq32f.i	aeq2, a3, 28
    5051:	f01d           	retw.n

00005053 <aec_post_calc_FB+0x5f>:
	...

00005055 <aec_post_calc_FB+0x61>:
    5055:	0b92a2        	l16si	a10, a2, 22
    5058:	32c2c2        	addi	a12, a2, 50
    505b:	f862ec4c0f 	{ ae_lp16f.i	aep4, a12, 0; ae_movp48	aep1, aep0 }
    5060:	0a2aa6        	blti	a10, 2, 506e <aec_post_calc_FB+0x7a>
    5063:	8a0b           	addi.n	a8, a10, -1
    5065:	05a876        	loopgtz	a8, 506e <aec_post_calc_FB+0x7a>
    5068:	010174        	ae_mulfp24s.ll	aeq0, aep0, aep1
    506b:	1b8d04        	ae_roundsp24q48asym	aep0, aeq0
    506e:	da823d237f 	{ ae_lq32f.i	aeq1, a3, 28; ae_maxp24s	aep4, aep0, aep4 }
    5073:	014a34        	ae_mulafp24s.ll	aeq1, aep4, aep2
    5076:	061934        	ae_roundsq32asym	aeq0, aeq1
    5079:	620374        	ae_sq32f.i	aeq0, a3, 28
    507c:	f01d           	retw.n

0000507e <aec_post_calc_FB+0x8a>:
	...

00005080 <aec_post_calc_FB+0x8c>:
    5080:	031694        	wur.ae_sar	a9
    5083:	32c2d2        	addi	a13, a2, 50
    5086:	fa23ec6d0f 	{ ae_lp16f.i	aep6, a13, 0; ae_sllssp24s	aep5, aep0 }
    508b:	dad67d637f 	{ ae_lq32f.i	aeq3, a3, 28; ae_maxp24s	aep5, aep5, aep6 }
    5090:	01da34        	ae_mulafp24s.ll	aeq3, aep5, aep2
    5093:	06b934        	ae_roundsq32asym	aeq2, aeq3
    5096:	622374        	ae_sq32f.i	aeq2, a3, 28
    5099:	f01d           	retw.n

0000509b <aec_post_calc_FB+0xa7>:
	...

0000509c <subband_aec_block>:
    509c:	00a136        	entry	a1, 80
    509f:	4129           	s32i.n	a2, a1, 16
    50a1:	5139           	s32i.n	a3, a1, 20
    50a3:	2169           	s32i.n	a6, a1, 8
    50a5:	c388           	l32i.n	a8, a3, 48
    50a7:	60c344        	ae_lq32f.i	aeq3, a3, 16
    50aa:	1193b2        	l16si	a11, a3, 34
    50ad:	9a22a2        	l32i	a10, a2, 0x268
    50b0:	e398           	l32i.n	a9, a3, 56
    50b2:	0a23c2        	l32i	a12, a3, 40
    50b5:	f3f6c0        	wur.ae_cbegin0	a12
    50b8:	440904        	ae_lp16x2f.i	aep0, a9, 0
    50bb:	fccaa2        	addi	a10, a10, -4
    50be:	90bbc0        	addx2	a11, a11, a12
    50c1:	f3f7b0        	wur.ae_cend0	a11
    50c4:	01c4c2        	addi	a12, a4, 1
    50c7:	04a0b2        	movi	a11, 4
    50ca:	b3c440        	movgez	a12, a4, a4
    50cd:	21c1c0        	srai	a12, a12, 1
    50d0:	fe249431cf 	{ s32i.n	a12, a1, 12; ae_zeroq56	aeq2 }
    50d5:	19ac76        	loopgtz	a12, 50f2 <subband_aec_block+0x56>
    50d8:	12039ab8bf 	{ ae_lp16x2f.c	aep3, a8, a11; ae_mulzaafq32sp16s.ll	aeq0, aeq3, aep0, aeq3, aep0 }
    50dd:	0a03ed891f 	{ ae_lp16x2f.iu	aep0, a9, 4; ae_mulzaafq32sp16s.hh	aeq1, aeq3, aep0, aeq3, aep0 }
    50e2:	1b8f14        	ae_roundsp16q48asym	aep1, aeq0
    50e5:	1b9f24        	ae_roundsp16q48asym	aep2, aeq1
    50e8:	f16e3e21df 	{ ae_selp24.hl	aep3, aep2, aep1; ae_mulssfp24s.hh.ll	aeq2, aep3, aep3 }
    50ed:	e36c33ba1f 	{ ae_sp16x2f.iu	aep3, a10, 4; ae_mulaafp24s.hh.ll	aeq2, aep3, aep3 }

000050f2 <subband_aec_block+0x56>:
    50f2:	5188           	l32i.n	a8, a1, 20
    50f4:	4198           	l32i.n	a9, a1, 16
    50f6:	35a234        	ae_sraiq56	aeq2, aeq2, 8
    50f9:	614804        	ae_lq56.i	aeq1, a8, 0
    50fc:	f9ea30999e 	{ l32i	a9, a9, 36; ae_addq56	aeq1, aeq1, aeq2 }
    5101:	ff04fec93f 	{ ae_cvtq48a32s	aeq0, a9; ae_satq48s	aeq3, aeq1 }
    5106:	01c3c4        	ae_maxq56s	aeq3, aeq3, aeq0
    5109:	633804        	ae_sq56s.i	aeq3, a8, 0
    510c:	0125d6        	bgez	a5, 5122 <subband_aec_block+0x86>
    510f:	1098a2        	l16si	a10, a8, 32
    5112:	ec5281        	l32r	a8, 25c (7d60 <airoha_divide>)
    5115:	36bb04        	ae_trunca32q48	a11, aeq3
    5118:	11aa70        	slli	a10, a10, 9
    511b:	0008e0        	callx8	a8
    511e:	01b9           	s32i.n	a11, a1, 0
    5120:	11a9           	s32i.n	a10, a1, 4

00005122 <subband_aec_block+0x86>:
    5122:	51f8           	l32i.n	a15, a1, 20
    5124:	270c           	movi.n	a7, 2
    5126:	4128           	l32i.n	a2, a1, 16
    5128:	cf88           	l32i.n	a8, a15, 48
    512a:	ff98           	l32i.n	a9, a15, 60
    512c:	119f62        	l16si	a6, a15, 34
    512f:	9a2222        	l32i	a2, a2, 0x268
    5132:	6169           	s32i.n	a6, a1, 24
    5134:	bf68           	l32i.n	a6, a15, 44
    5136:	fec222        	addi	a2, a2, -2
    5139:	dff8           	l32i.n	a15, a15, 52
    513b:	fec9c2        	addi	a12, a9, -2
    513e:	fec662        	addi	a6, a6, -2
    5141:	fecfd2        	addi	a13, a15, -2
    5144:	6314a6        	blti	a4, 1, 51ab <subband_aec_block+0x10f>
    5147:	030c           	movi.n	a3, 0
    5149:	069d           	mov.n	a9, a6

0000514b <subband_aec_block+0xaf>:
    514b:	61b8           	l32i.n	a11, a1, 24
    514d:	409214        	ae_lp16f.iu	aep1, a2, 2
    5150:	fc24e2987f 	{ ae_sp16f.l.c	aep1, a8, a7; nop }
    5155:	408d14        	ae_lp16f.iu	aep0, a13, 2
    5158:	fc0c2c991f 	{ ae_lp16f.iu	aep1, a9, 2; ae_cvtq48p24s.l	aeq0, aep0 }
    515d:	09ab76        	loopgtz	a11, 516a <subband_aec_block+0xce>
    5160:	fc24d9087f 	{ ae_lp16f.c	aep0, a8, a7; nop }
    5165:	ee05ac991f 	{ ae_lp16f.iu	aep1, a9, 2; ae_mulsfp24s.ll	aeq0, aep1, aep0 }

0000516a <subband_aec_block+0xce>:
    516a:	f86380133e 	{ addi	a3, a3, 1; ae_roundsp16q48asym	aep0, aeq0 }
    516f:	428c14        	ae_sp16f.l.iu	aep0, a12, 2
    5172:	02a5d6        	bgez	a5, 51a0 <subband_aec_block+0x104>
    5175:	61b8           	l32i.n	a11, a1, 24
    5177:	0198           	l32i.n	a9, a1, 0
    5179:	360934        	ae_cvtq48a32s	aeq0, a9
    517c:	d4e23011fe 	{ l32i	a15, a1, 4; ae_mulfq32sp16s.l	aeq0, aeq0, aep0 }
    5181:	069d           	mov.n	a9, a6
    5183:	fc24fe8fcf 	{ ae_slaasq56s	aeq3, aeq0, a15; nop }
    5188:	f97fac891f 	{ ae_lp16f.iu	aep0, a9, 2; ae_roundsp24q48asym	aep2, aeq3 }
    518d:	0fab76        	loopgtz	a11, 51a0 <subband_aec_block+0x104>

00005190 <subband_aec_block+0xf4>:
    5190:	fc0c19087f 	{ ae_lp16f.c	aep0, a8, a7; ae_cvtq48p24s.l	aeq0, aep0 }
    5195:	e20bac891f 	{ ae_lp16f.iu	aep0, a9, 2; ae_mulafp24s.ll	aeq0, aep2, aep0 }
    519a:	1b8f14        	ae_roundsp16q48asym	aep1, aeq0
    519d:	4219f4        	ae_sp16f.l.i	aep1, a9, -2
    51a0:	069d           	mov.n	a9, a6
    51a2:	a59437        	bne	a4, a3, 514b <subband_aec_block+0xaf>
    51a5:	5198           	l32i.n	a9, a1, 20
    51a7:	d9f8           	l32i.n	a15, a9, 52
    51a9:	f998           	l32i.n	a9, a9, 60

000051ab <subband_aec_block+0x10f>:
    51ab:	51b8           	l32i.n	a11, a1, 20
    51ad:	fd24b031ae 	{ l32i	a10, a1, 12; ae_zeroq56	aeq1 }
    51b2:	069b34        	ae_movq56	aeq2, aeq1
    51b5:	fc0c54cb8f 	{ s32i.n	a8, a11, 48; ae_movq56	aeq0, aeq1 }
    51ba:	251aa6        	blti	a10, 1, 51e3 <subband_aec_block+0x147>
    51bd:	fcc992        	addi	a9, a9, -4
    51c0:	fccf82        	addi	a8, a15, -4
    51c3:	448814        	ae_lp16x2f.iu	aep0, a8, 4
    51c6:	e2002d991f 	{ ae_lp16x2f.iu	aep1, a9, 4; ae_mulaafp24s.hh.ll	aeq0, aep0, aep0 }
    51cb:	e2244ffaae 	{ addi	a10, a10, -1; ae_mulaafp24s.hh.ll	aeq1, aep1, aep1 }
    51d0:	0caa76        	loopgtz	a10, 51e0 <subband_aec_block+0x144>
    51d3:	e3202d881f 	{ ae_lp16x2f.iu	aep0, a8, 4; ae_mulaafp24s.hh.ll	aeq2, aep0, aep1 }
    51d8:	e2002d991f 	{ ae_lp16x2f.iu	aep1, a9, 4; ae_mulaafp24s.hh.ll	aeq0, aep0, aep0 }
    51dd:	051904        	ae_mulaafp24s.hh.ll	aeq1, aep1, aep1

000051e0 <subband_aec_block+0x144>:
    51e0:	058104        	ae_mulaafp24s.hh.ll	aeq2, aep0, aep1

000051e3 <subband_aec_block+0x147>:
    51e3:	21b8           	l32i.n	a11, a1, 8
    51e5:	114ba6        	blti	a11, 4, 51fa <subband_aec_block+0x15e>
    51e8:	35d134        	ae_sraiq56	aeq3, aeq1, 4
    51eb:	01dfc4        	ae_subq56	aeq3, aeq1, aeq3
    51ee:	09b004        	ae_ltq56s	b0, aeq0, aeq3
    51f1:	030420        	rsr.br	a2
    51f4:	042020        	extui	a2, a2, 0, 1
    51f7:	000046        	j	51fc <subband_aec_block+0x160>

000051fa <subband_aec_block+0x15e>:
    51fa:	020c           	movi.n	a2, 0

000051fc <subband_aec_block+0x160>:
    51fc:	51a8           	l32i.n	a10, a1, 20
    51fe:	ec1881        	l32r	a8, 260 (4da0 <common_x_pow>)
    5201:	35c134        	ae_sraiq56	aeq3, aeq0, 4
    5204:	fd3c7b218f 	{ ae_sraiq56	aeq2, aeq2, 4; ae_roundsq32asym	aeq1, aeq3 }
    5209:	fc347f1bef 	{ ae_trunca32q48	a11, aeq1; ae_roundsq32asym	aeq0, aeq2 }
    520e:	368c04        	ae_trunca32q48	a12, aeq0
    5211:	0008e0        	callx8	a8
    5214:	9a2a           	add.n	a9, a10, a2
    5216:	c98c           	beqz.n	a9, 5226 <subband_aec_block+0x18a>
    5218:	51b8           	l32i.n	a11, a1, 20
    521a:	04cd           	mov.n	a12, a4
    521c:	eb7a81        	l32r	a8, 4 (8820 <xt_memcpy>)
    521f:	fba8           	l32i.n	a10, a11, 60
    5221:	dbb8           	l32i.n	a11, a11, 52
    5223:	0008e0        	callx8	a8

00005226 <subband_aec_block+0x18a>:
    5226:	4198           	l32i.n	a9, a1, 16
    5228:	5188           	l32i.n	a8, a1, 20
    522a:	0d9992        	l16si	a9, a9, 26
    522d:	b8a8           	l32i.n	a10, a8, 44
    522f:	fc24a1188e 	{ l16si	a8, a8, 34; ae_zeroq56	aeq0 }
    5234:	630144        	ae_sq56s.i	aeq0, a1, 32
    5237:	d91b           	addi.n	a13, a9, 1
    5239:	9088a0        	addx2	a8, a8, a10
    523c:	b3d990        	movgez	a13, a9, a9
    523f:	21d1d0        	srai	a13, a13, 1
    5242:	1199f0        	slli	a9, a9, 1
    5245:	c08890        	sub	a8, a8, a9
    5248:	8ddd           	ae_sext16	a13, a13
    524a:	1a1da6        	blti	a13, 1, 5268 <subband_aec_block+0x1cc>
    524d:	610144        	ae_lq56.i	aeq0, a1, 32
    5250:	9d0b           	addi.n	a9, a13, -1
    5252:	fcc882        	addi	a8, a8, -4
    5255:	448814        	ae_lp16x2f.iu	aep0, a8, 4
    5258:	04a976        	loopgtz	a9, 5260 <subband_aec_block+0x1c4>
    525b:	e2002d881f 	{ ae_lp16x2f.iu	aep0, a8, 4; ae_mulaafp24s.hh.ll	aeq0, aep0, aep0 }

00005260 <subband_aec_block+0x1c4>:
    5260:	050004        	ae_mulaafp24s.hh.ll	aeq0, aep0, aep0
    5263:	f03d           	nop.n
    5265:	630144        	ae_sq56s.i	aeq0, a1, 32

00005268 <subband_aec_block+0x1cc>:
    5268:	ebfc81        	l32r	a8, 258 (7e78 <airoha_divide_limit_1>)
    526b:	0c0c           	movi.n	a12, 0
    526d:	51b8           	l32i.n	a11, a1, 20
    526f:	614144        	ae_lq56.i	aeq1, a1, 32
    5272:	3590b4        	ae_sraiq56	aeq2, aeq1, 2
    5275:	fd34703bae 	{ l32i	a10, a11, 12; ae_roundsq32asym	aeq1, aeq2 }
    527a:	631144        	ae_sq56s.i	aeq1, a1, 32
    527d:	2bb8           	l32i.n	a11, a11, 8
    527f:	53aac0        	max	a10, a10, a12
    5282:	0008e0        	callx8	a8
    5285:	31a0a0        	srai	a10, a10, 16
    5288:	51d8           	l32i.n	a13, a1, 20
    528a:	4198           	l32i.n	a9, a1, 16
    528c:	eb7281        	l32r	a8, 54 (7fff <xtensa_fft8_32b+0xef>)
    528f:	129dd2        	l16si	a13, a13, 36
    5292:	049992        	l16si	a9, a9, 8
    5295:	c088a0        	sub	a8, a8, a10
    5298:	04e1d0        	extui	a14, a13, 1, 1
    529b:	538890        	max	a8, a8, a9
    529e:	0a1e56        	bnez	a14, 5343 <subband_aec_block+0x2a7>
    52a1:	51a8           	l32i.n	a10, a1, 20
    52a3:	61c144        	ae_lq56.i	aeq3, a1, 32
    52a6:	36b404        	ae_trunca32q48	a4, aeq3
    52a9:	105a82        	s16i	a8, a10, 32

000052ac <subband_aec_block+0x210>:
    52ac:	41b8           	l32i.n	a11, a1, 16
    52ae:	059bb2        	l16si	a11, a11, 10
    52b1:	11bb00        	slli	a11, a11, 16
    52b4:	75ab47        	bge	a11, a4, 532d <subband_aec_block+0x291>
    52b7:	41c8           	l32i.n	a12, a1, 16
    52b9:	ebea81        	l32r	a8, 264 (aa98 <immediate_num+0x18>)
    52bc:	51e8           	l32i.n	a14, a1, 20
    52be:	069cc2        	l16si	a12, a12, 12
    52c1:	20dd70        	or	a13, a13, a7
    52c4:	125ed2        	s16i	a13, a14, 36
    52c7:	11cc00        	slli	a12, a12, 16
    52ca:	05ac47        	bge	a12, a4, 52d3 <subband_aec_block+0x237>
    52cd:	402804        	ae_lp16f.i	aep2, a8, 0
    52d0:	000086        	j	52d6 <subband_aec_block+0x23a>

000052d3 <subband_aec_block+0x237>:
    52d3:	402814        	ae_lp16f.i	aep2, a8, 2

000052d6 <subband_aec_block+0x23a>:
    52d6:	4198           	l32i.n	a9, a1, 16
    52d8:	5188           	l32i.n	a8, a1, 20
    52da:	0d9992        	l16si	a9, a9, 26
    52dd:	b8a8           	l32i.n	a10, a8, 44
    52df:	119882        	l16si	a8, a8, 34
    52e2:	f91b           	addi.n	a15, a9, 1
    52e4:	b3f990        	movgez	a15, a9, a9
    52e7:	9088a0        	addx2	a8, a8, a10
    52ea:	1199f0        	slli	a9, a9, 1
    52ed:	21f1f0        	srai	a15, a15, 1
    52f0:	8ffd           	ae_sext16	a15, a15
    52f2:	c08890        	sub	a8, a8, a9
    52f5:	fec892        	addi	a9, a8, -2
    52f8:	440804        	ae_lp16x2f.i	aep0, a8, 0
    52fb:	2e1fa6        	blti	a15, 1, 532d <subband_aec_block+0x291>
    52fe:	010a54        	ae_mulfp24s.hl	aeq1, aep0, aep2
    5301:	ea418fffae 	{ addi	a10, a15, -1; ae_mulfp24s.ll	aeq0, aep0, aep2 }
    5306:	f96bed881f 	{ ae_lp16x2f.iu	aep0, a8, 4; ae_roundsp16q48asym	aep3, aeq1 }
    530b:	f863f2391f 	{ ae_sp16f.l.i	aep3, a9, 2; ae_roundsp16q48asym	aep1, aeq0 }
    5310:	11aa76        	loopgtz	a10, 5325 <subband_aec_block+0x289>
    5313:	ea40b2992f 	{ ae_sp16f.l.iu	aep1, a9, 4; ae_mulfp24s.hl	aeq0, aep0, aep2 }
    5318:	ea41ed881f 	{ ae_lp16x2f.iu	aep0, a8, 4; ae_mulfp24s.ll	aeq1, aep0, aep2 }
    531d:	1b8f14        	ae_roundsp16q48asym	aep1, aeq0
    5320:	f86bf2191f 	{ ae_sp16f.l.i	aep1, a9, 2; ae_roundsp16q48asym	aep1, aeq1 }

00005325 <subband_aec_block+0x289>:
    5325:	51d8           	l32i.n	a13, a1, 20
    5327:	429924        	ae_sp16f.l.iu	aep1, a9, 4
    532a:	129dd2        	l16si	a13, a13, 36
    532d:	04ed07        	bbsi	a13, 0, 5335 <subband_aec_block+0x299>
    5330:	3eed27        	bbsi	a13, 2, 5372 <subband_aec_block+0x2d6>
    5333:	f01d           	retw.n

00005335 <subband_aec_block+0x299>:
    5335:	41a8           	l32i.n	a10, a1, 16
    5337:	ebcc81        	l32r	a8, 268 (4f08 <aec_post_calc>)
    533a:	51b8           	l32i.n	a11, a1, 20
    533c:	21c8           	l32i.n	a12, a1, 8
    533e:	0008e0        	callx8	a8
    5341:	f01d           	retw.n

00005343 <subband_aec_block+0x2a7>:
    5343:	05dd           	mov.n	a13, a5
    5345:	ebc991        	l32r	a9, 26c (4e30 <ref_gain_adapt>)
    5348:	41e8           	l32i.n	a14, a1, 16
    534a:	51f8           	l32i.n	a15, a1, 20
    534c:	618144        	ae_lq56.i	aeq2, a1, 32
    534f:	0ead           	mov.n	a10, a14
    5351:	039ee2        	l16si	a14, a14, 6
    5354:	36a404        	ae_trunca32q48	a4, aeq2
    5357:	0fbd           	mov.n	a11, a15
    5359:	82ee80        	mull	a14, a14, a8
    535c:	04cd           	mov.n	a12, a4
    535e:	40dee2        	addmi	a14, a14, 0x4000
    5361:	21efe0        	srai	a14, a14, 15
    5364:	105fe2        	s16i	a14, a15, 32
    5367:	0009e0        	callx8	a9
    536a:	51d8           	l32i.n	a13, a1, 20
    536c:	129dd2        	l16si	a13, a13, 36
    536f:	ffce46        	j	52ac <subband_aec_block+0x210>

00005372 <subband_aec_block+0x2d6>:
    5372:	41a8           	l32i.n	a10, a1, 16
    5374:	ebbf81        	l32r	a8, 270 (4ff4 <aec_post_calc_FB>)
    5377:	51b8           	l32i.n	a11, a1, 20
    5379:	21c8           	l32i.n	a12, a1, 8
    537b:	0008e0        	callx8	a8
    537e:	f01d           	retw.n

00005380 <subband_aec_mid_channel>:
    5380:	00a136        	entry	a1, 80
    5383:	0159           	s32i.n	a5, a1, 0
    5385:	c388           	l32i.n	a8, a3, 48
    5387:	60c344        	ae_lq32f.i	aeq3, a3, 16
    538a:	1193b2        	l16si	a11, a3, 34
    538d:	9a22a2        	l32i	a10, a2, 0x268
    5390:	0e2392        	l32i	a9, a3, 56
    5393:	0a23c2        	l32i	a12, a3, 40
    5396:	f3f6c0        	wur.ae_cbegin0	a12
    5399:	440904        	ae_lp16x2f.i	aep0, a9, 0
    539c:	fccaa2        	addi	a10, a10, -4
    539f:	a0bbc0        	addx4	a11, a11, a12
    53a2:	0aa0c2        	movi	a12, 10
    53a5:	f3f7b0        	wur.ae_cend0	a11
    53a8:	fe248004bf 	{ movi	a11, 4; ae_zeroq56	aeq2 }
    53ad:	198c76        	loop	a12, 53ca <subband_aec_mid_channel+0x4a>
    53b0:	12039ab8bf 	{ ae_lp16x2f.c	aep3, a8, a11; ae_mulzaafq32sp16s.ll	aeq0, aeq3, aep0, aeq3, aep0 }
    53b5:	0a03ed891f 	{ ae_lp16x2f.iu	aep0, a9, 4; ae_mulzaafq32sp16s.hh	aeq1, aeq3, aep0, aeq3, aep0 }
    53ba:	1b8f14        	ae_roundsp16q48asym	aep1, aeq0
    53bd:	1b9f24        	ae_roundsp16q48asym	aep2, aeq1
    53c0:	f16e3e21df 	{ ae_selp24.hl	aep3, aep2, aep1; ae_mulssfp24s.hh.ll	aeq2, aep3, aep3 }
    53c5:	e36c33ba1f 	{ ae_sp16x2f.iu	aep3, a10, 4; ae_mulaafp24s.hh.ll	aeq2, aep3, aep3 }

000053ca <subband_aec_mid_channel+0x4a>:
    53ca:	92e8           	l32i.n	a14, a2, 36
    53cc:	3521b4        	ae_sraiq56	aeq0, aeq2, 6
    53cf:	61c304        	ae_lq56.i	aeq3, a3, 0
    53d2:	01f8c4        	ae_addq56	aeq3, aeq3, aeq0
    53d5:	11eee0        	slli	a14, a14, 2
    53d8:	fd84fecebf 	{ ae_cvtq48a32s	aeq2, a14; ae_satq48s	aeq1, aeq3 }
    53dd:	0161c4        	ae_maxq56s	aeq1, aeq1, aeq2
    53e0:	631304        	ae_sq56s.i	aeq1, a3, 0
    53e3:	2a2496        	bltz	a4, 5689 <subband_aec_mid_channel+0x309>
    53e6:	2189           	s32i.n	a8, a1, 8
    53e8:	11f9           	s32i.n	a15, a1, 4

000053ea <subband_aec_mid_channel+0x6a>:
    53ea:	c388           	l32i.n	a8, a3, 48
    53ec:	1193d2        	l16si	a13, a3, 34
    53ef:	0f0c           	movi.n	a15, 0
    53f1:	4b0c           	movi.n	a11, 4
    53f3:	9a2252        	l32i	a5, a2, 0x268
    53f6:	f368           	l32i.n	a6, a3, 60
    53f8:	d378           	l32i.n	a7, a3, 52
    53fa:	b398           	l32i.n	a9, a3, 44
    53fc:	4199           	s32i.n	a9, a1, 16
    53fe:	fcc772        	addi	a7, a7, -4
    5401:	fec662        	addi	a6, a6, -2
    5404:	fcc552        	addi	a5, a5, -4
    5407:	fec992        	addi	a9, a9, -2
    540a:	3199           	s32i.n	a9, a1, 12

0000540c <subband_aec_mid_channel+0x8c>:
    540c:	449514        	ae_lp16x2f.iu	aep1, a5, 4
    540f:	41a8           	l32i.n	a10, a1, 16
    5411:	fc24e418bf 	{ ae_sp16x2f.c	aep1, a8, a11; nop }
    5416:	448714        	ae_lp16x2f.iu	aep0, a7, 4
    5419:	fc04139aaf 	{ or	a9, a10, a10; ae_cvtq48p24s.h	aeq0, aep0 }
    541e:	fd0c2d0a0f 	{ ae_lp16x2f.i	aep0, a10, 0; ae_cvtq48p24s.l	aeq1, aep0 }
    5423:	481da6        	blti	a13, 1, 546f <subband_aec_mid_channel+0xef>
    5426:	21a1d0        	srai	a10, a13, 1
    5429:	0e6d07        	bbci	a13, 0, 543b <subband_aec_mid_channel+0xbb>
    542c:	4c0c           	movi.n	a12, 4
    542e:	fc24daa8cf 	{ ae_lp16x2f.c	aep2, a8, a12; nop }
    5433:	0502c4        	ae_mulssfp24s.hh.ll	aeq0, aep0, aep2
    5436:	ee406d891f 	{ ae_lp16x2f.iu	aep0, a9, 4; ae_mulsafp24s.hl.lh	aeq1, aep0, aep2 }

0000543b <subband_aec_mid_channel+0xbb>:
    543b:	0abc           	beqz.n	a10, 546f <subband_aec_mid_channel+0xef>
    543d:	ba0b           	addi.n	a11, a10, -1
    543f:	4a0c           	movi.n	a10, 4
    5441:	fc24dab8af 	{ ae_lp16x2f.c	aep3, a8, a10; nop }
    5446:	ee606d291f 	{ ae_lp16x2f.i	aep2, a9, 4; ae_mulsafp24s.hl.lh	aeq1, aep0, aep3 }
    544b:	f0621a88af 	{ ae_lp16x2f.c	aep0, a8, a10; ae_mulssfp24s.hh.ll	aeq0, aep0, aep3 }
    5450:	f00a2d992f 	{ ae_lp16x2f.iu	aep1, a9, 8; ae_mulssfp24s.hh.ll	aeq0, aep2, aep0 }
    5455:	13ab76        	loopgtz	a11, 546c <subband_aec_mid_channel+0xec>
    5458:	ee085a88af 	{ ae_lp16x2f.c	aep0, a8, a10; ae_mulsafp24s.hl.lh	aeq1, aep2, aep0 }
    545d:	f0062d291f 	{ ae_lp16x2f.i	aep2, a9, 4; ae_mulssfp24s.hh.ll	aeq0, aep1, aep0 }
    5462:	ee045a88af 	{ ae_lp16x2f.c	aep0, a8, a10; ae_mulsafp24s.hl.lh	aeq1, aep1, aep0 }
    5467:	f00a2d992f 	{ ae_lp16x2f.iu	aep1, a9, 8; ae_mulssfp24s.hh.ll	aeq0, aep2, aep0 }

0000546c <subband_aec_mid_channel+0xec>:
    546c:	052894        	ae_mulsafp24s.hl.lh	aeq1, aep2, aep0

0000546f <subband_aec_mid_channel+0xef>:
    546f:	f863801ffe 	{ addi	a15, a15, 1; ae_roundsp16q48asym	aep0, aeq0 }
    5474:	f96bb2861f 	{ ae_sp16f.l.iu	aep0, a6, 2; ae_roundsp16q48asym	aep2, aeq1 }
    5479:	42a614        	ae_sp16f.l.iu	aep2, a6, 2
    547c:	0664d6        	bgez	a4, 54e6 <subband_aec_mid_channel+0x166>
    547f:	11a8           	l32i.n	a10, a1, 4
    5481:	368a34        	ae_cvtq48a32s	aeq2, a10
    5484:	d7e27041ee 	{ l32i	a14, a1, 16; ae_mulfq32sp16s.l	aeq3, aeq2, aep0 }
    5489:	d7ea30219e 	{ l32i	a9, a1, 8; ae_mulfq32sp16s.l	aeq2, aeq2, aep2 }
    548e:	fc24feb90f 	{ ae_slaasq56s	aeq0, aeq3, a9; nop }
    5493:	fc24fea94f 	{ ae_slaasq56s	aeq1, aeq2, a9; nop }
    5498:	f96ff031ae 	{ l32i	a10, a1, 12; ae_roundsp24q48asym	aep3, aeq1 }
    549d:	f967ad0e0f 	{ ae_lp16x2f.i	aep0, a14, 0; ae_roundsp24q48asym	aep2, aeq0 }
    54a2:	dd68939eef 	{ or	a9, a14, a14; ae_selp24.hl	aep2, aep2, aep3 }
    54a7:	3b1da6        	blti	a13, 1, 54e6 <subband_aec_mid_channel+0x166>
    54aa:	ff0c0004bf 	{ movi	a11, 4; ae_cvtq48p24s.l	aeq3, aep0 }
    54af:	fc041ad8bf 	{ ae_lp16x2f.c	aep5, a8, a11; ae_cvtq48p24s.h	aeq0, aep0 }
    54b4:	052504        	ae_mulaafp24s.hh.ll	aeq0, aep2, aep5
    54b7:	eba84ffdce 	{ addi	a12, a13, -1; ae_mulasfp24s.hl.lh	aeq3, aep2, aep5 }
    54bc:	fa63ad891f 	{ ae_lp16x2f.iu	aep0, a9, 4; ae_roundsp16q48asym	aep4, aeq0 }
    54c1:	f87bf24a1f 	{ ae_sp16f.l.i	aep4, a10, 2; ae_roundsp16q48asym	aep1, aeq3 }
    54c6:	19ac76        	loopgtz	a12, 54e3 <subband_aec_mid_channel+0x163>
    54c9:	fc0c329a2f 	{ ae_sp16f.l.iu	aep1, a10, 4; ae_cvtq48p24s.l	aeq0, aep0 }
    54ce:	fd041a98bf 	{ ae_lp16x2f.c	aep1, a8, a11; ae_cvtq48p24s.h	aeq1, aep0 }
    54d3:	e2286d891f 	{ ae_lp16x2f.iu	aep0, a9, 4; ae_mulaafp24s.hh.ll	aeq1, aep2, aep1 }
    54d8:	052154        	ae_mulasfp24s.hl.lh	aeq0, aep2, aep1
    54db:	1b9f14        	ae_roundsp16q48asym	aep1, aeq1
    54de:	f863f21a1f 	{ ae_sp16f.l.i	aep1, a10, 2; ae_roundsp16q48asym	aep1, aeq0 }

000054e3 <subband_aec_mid_channel+0x163>:
    54e3:	429a24        	ae_sp16f.l.iu	aep1, a10, 4
    54e6:	4b0c           	movi.n	a11, 4
    54e8:	f6cf92        	addi	a9, a15, -10
    54eb:	f1d956        	bnez	a9, 540c <subband_aec_mid_channel+0x8c>
    54ee:	aa0c           	movi.n	a10, 10
    54f0:	d398           	l32i.n	a9, a3, 52
    54f2:	f3b8           	l32i.n	a11, a3, 60
    54f4:	c389           	s32i.n	a8, a3, 48
    54f6:	fc24ad090f 	{ ae_lp16x2f.i	aep0, a9, 0; ae_zeroq56	aeq0 }
    54fb:	fe046d1b0f 	{ ae_lp16x2f.i	aep1, a11, 0; ae_movq56	aeq2, aeq0 }
    5500:	fd04538bbf 	{ or	a8, a11, a11; ae_movq56	aeq1, aeq0 }
    5505:	0c8a76        	loop	a10, 5515 <subband_aec_mid_channel+0x195>
    5508:	050104        	ae_mulaafp24s.hh.ll	aeq0, aep0, aep1

0000550b <subband_aec_mid_channel+0x18b>:
    550b:	ea206d981f 	{ ae_lp16x2f.iu	aep1, a8, 4; ae_mulasfp24s.hl.lh	aeq1, aep0, aep1 }
    5510:	e3002d891f 	{ ae_lp16x2f.iu	aep0, a9, 4; ae_mulaafp24s.hh.ll	aeq2, aep0, aep0 }

00005515 <subband_aec_mid_channel+0x195>:
    5515:	eb5781        	l32r	a8, 274 (840 <HIFI_sqrt>)
    5518:	35d134        	ae_sraiq56	aeq3, aeq1, 4
    551b:	fb7ffb014f 	{ ae_sraiq56	aeq1, aeq0, 4; ae_roundsp24q48asym	aep7, aeq3 }
    5520:	1b9d64        	ae_roundsp24q48asym	aep6, aeq1
    5523:	1aef64        	ae_selp24.hl	aep6, aep6, aep7
    5526:	f0dabb218f 	{ ae_sraiq56	aeq2, aeq2, 4; ae_mulzaafp24s.hh.ll	aeq0, aep6, aep6 }
    552b:	fd344000af 	{ movi	a10, 0; ae_roundsq32asym	aeq1, aeq2 }
    5530:	ff247a113f 	{ ae_sq56s.i	aeq1, a1, 24; ae_roundsq32asym	aeq3, aeq0 }
    5535:	36bb04        	ae_trunca32q48	a11, aeq3
    5538:	0008e0        	callx8	a8
    553b:	eb4981        	l32r	a8, 260 (4da0 <common_x_pow>)
    553e:	618134        	ae_lq56.i	aeq2, a1, 24
    5541:	36cb34        	ae_cvtq48a32s	aeq3, a11
    5544:	fc24feba4f 	{ ae_slaasq56s	aeq1, aeq3, a10; nop }
    5549:	36ab04        	ae_trunca32q48	a11, aeq2
    554c:	fc2c53a33f 	{ or	a10, a3, a3; ae_roundsq32asym	aeq0, aeq1 }
    5551:	368c04        	ae_trunca32q48	a12, aeq0
    5554:	0008e0        	callx8	a8
    5557:	aa8c           	beqz.n	a10, 5565 <subband_aec_mid_channel+0x1e5>
    5559:	f3a8           	l32i.n	a10, a3, 60
    555b:	eaaa81        	l32r	a8, 4 (8820 <xt_memcpy>)
    555e:	d3b8           	l32i.n	a11, a3, 52
    5560:	4c1c           	movi.n	a12, 20
    5562:	0008e0        	callx8	a8

00005565 <subband_aec_mid_channel+0x1e5>:
    5565:	0d92a2        	l16si	a10, a2, 26
    5568:	119382        	l16si	a8, a3, 34
    556b:	fc24b0b39e 	{ l32i	a9, a3, 44; ae_zeroq56	aeq0 }
    5570:	630144        	ae_sq56s.i	aeq0, a1, 32
    5573:	c088a0        	sub	a8, a8, a10
    5576:	a08890        	addx4	a8, a8, a9
    5579:	181aa6        	blti	a10, 1, 5595 <subband_aec_mid_channel+0x215>
    557c:	610144        	ae_lq56.i	aeq0, a1, 32
    557f:	9a0b           	addi.n	a9, a10, -1
    5581:	fcc882        	addi	a8, a8, -4
    5584:	448814        	ae_lp16x2f.iu	aep0, a8, 4
    5587:	04a976        	loopgtz	a9, 558f <subband_aec_mid_channel+0x20f>
    558a:	e2002d881f 	{ ae_lp16x2f.iu	aep0, a8, 4; ae_mulaafp24s.hh.ll	aeq0, aep0, aep0 }

0000558f <subband_aec_mid_channel+0x20f>:
    558f:	050004        	ae_mulaafp24s.hh.ll	aeq0, aep0, aep0
    5592:	630144        	ae_sq56s.i	aeq0, a1, 32

00005595 <subband_aec_mid_channel+0x215>:
    5595:	33a8           	l32i.n	a10, a3, 12
    5597:	eb3081        	l32r	a8, 258 (7e78 <airoha_divide_limit_1>)
    559a:	614144        	ae_lq56.i	aeq1, a1, 32
    559d:	3590b4        	ae_sraiq56	aeq2, aeq1, 2
    55a0:	fd347023be 	{ l32i	a11, a3, 8; ae_roundsq32asym	aeq1, aeq2 }
    55a5:	631144        	ae_sq56s.i	aeq1, a1, 32
    55a8:	0008e0        	callx8	a8
    55ab:	eaaa81        	l32r	a8, 54 (7fff <xtensa_fft8_32b+0xef>)
    55ae:	049292        	l16si	a9, a2, 8
    55b1:	31a0a0        	srai	a10, a10, 16
    55b4:	c088a0        	sub	a8, a8, a10
    55b7:	1293a2        	l16si	a10, a3, 36
    55ba:	260c           	movi.n	a6, 2
    55bc:	538890        	max	a8, a8, a9
    55bf:	0491a0        	extui	a9, a10, 1, 1
    55c2:	07a956        	bnez	a9, 5640 <subband_aec_mid_channel+0x2c0>
    55c5:	105382        	s16i	a8, a3, 32
    55c8:	61c144        	ae_lq56.i	aeq3, a1, 32
    55cb:	36b404        	ae_trunca32q48	a4, aeq3

000055ce <subband_aec_mid_channel+0x24e>:
    55ce:	0592b2        	l16si	a11, a2, 10
    55d1:	11bb00        	slli	a11, a11, 16
    55d4:	60ab47        	bge	a11, a4, 5638 <subband_aec_mid_channel+0x2b8>
    55d7:	eb2381        	l32r	a8, 264 (aa98 <immediate_num+0x18>)
    55da:	0692c2        	l16si	a12, a2, 12
    55dd:	20aa60        	or	a10, a10, a6
    55e0:	1253a2        	s16i	a10, a3, 36
    55e3:	11cc00        	slli	a12, a12, 16
    55e6:	07ac47        	bge	a12, a4, 55f1 <subband_aec_mid_channel+0x271>
    55e9:	402804        	ae_lp16f.i	aep2, a8, 0
    55ec:	000106        	j	55f4 <subband_aec_mid_channel+0x274>

000055ef <subband_aec_mid_channel+0x26f>:
	...

000055f1 <subband_aec_mid_channel+0x271>:
    55f1:	402814        	ae_lp16f.i	aep2, a8, 2

000055f4 <subband_aec_mid_channel+0x274>:
    55f4:	0d92b2        	l16si	a11, a2, 26
    55f7:	119382        	l16si	a8, a3, 34
    55fa:	b398           	l32i.n	a9, a3, 44
    55fc:	c088b0        	sub	a8, a8, a11
    55ff:	a08890        	addx4	a8, a8, a9
    5602:	fec892        	addi	a9, a8, -2
    5605:	440804        	ae_lp16x2f.i	aep0, a8, 0
    5608:	2c1ba6        	blti	a11, 1, 5638 <subband_aec_mid_channel+0x2b8>
    560b:	010a54        	ae_mulfp24s.hl	aeq1, aep0, aep2
    560e:	ea418ffbae 	{ addi	a10, a11, -1; ae_mulfp24s.ll	aeq0, aep0, aep2 }
    5613:	f86bed881f 	{ ae_lp16x2f.iu	aep0, a8, 4; ae_roundsp16q48asym	aep1, aeq1 }
    5618:	f863f2191f 	{ ae_sp16f.l.i	aep1, a9, 2; ae_roundsp16q48asym	aep1, aeq0 }
    561d:	11aa76        	loopgtz	a10, 5632 <subband_aec_mid_channel+0x2b2>
    5620:	ea40b2992f 	{ ae_sp16f.l.iu	aep1, a9, 4; ae_mulfp24s.hl	aeq0, aep0, aep2 }
    5625:	ea41ed881f 	{ ae_lp16x2f.iu	aep0, a8, 4; ae_mulfp24s.ll	aeq1, aep0, aep2 }
    562a:	1b8f14        	ae_roundsp16q48asym	aep1, aeq0
    562d:	f86bf2191f 	{ ae_sp16f.l.i	aep1, a9, 2; ae_roundsp16q48asym	aep1, aeq1 }

00005632 <subband_aec_mid_channel+0x2b2>:
    5632:	429924        	ae_sp16f.l.iu	aep1, a9, 4
    5635:	1293a2        	l16si	a10, a3, 36
    5638:	2dea07        	bbsi	a10, 0, 5669 <subband_aec_mid_channel+0x2e9>
    563b:	39ea27        	bbsi	a10, 2, 5678 <subband_aec_mid_channel+0x2f8>
    563e:	f01d           	retw.n

00005640 <subband_aec_mid_channel+0x2c0>:
    5640:	02ad           	mov.n	a10, a2
    5642:	03bd           	mov.n	a11, a3
    5644:	0392f2        	l16si	a15, a2, 6
    5647:	04dd           	mov.n	a13, a4
    5649:	618144        	ae_lq56.i	aeq2, a1, 32
    564c:	36a404        	ae_trunca32q48	a4, aeq2
    564f:	eb07e1        	l32r	a14, 26c (4e30 <ref_gain_adapt>)
    5652:	82ff80        	mull	a15, a15, a8
    5655:	04cd           	mov.n	a12, a4
    5657:	40dff2        	addmi	a15, a15, 0x4000
    565a:	21fff0        	srai	a15, a15, 15
    565d:	1053f2        	s16i	a15, a3, 32
    5660:	000ee0        	callx8	a14
    5663:	1293a2        	l16si	a10, a3, 36
    5666:	ffd906        	j	55ce <subband_aec_mid_channel+0x24e>

00005669 <subband_aec_mid_channel+0x2e9>:
    5669:	02ad           	mov.n	a10, a2
    566b:	eaff81        	l32r	a8, 268 (4f08 <aec_post_calc>)
    566e:	03bd           	mov.n	a11, a3
    5670:	01c8           	l32i.n	a12, a1, 0
    5672:	0008e0        	callx8	a8
    5675:	f01d           	retw.n

00005677 <subband_aec_mid_channel+0x2f7>:
	...

00005678 <subband_aec_mid_channel+0x2f8>:
    5678:	03bd           	mov.n	a11, a3
    567a:	eafd81        	l32r	a8, 270 (4ff4 <aec_post_calc_FB>)
    567d:	02ad           	mov.n	a10, a2
    567f:	01c8           	l32i.n	a12, a1, 0
    5681:	0008e0        	callx8	a8
    5684:	f01d           	retw.n

00005686 <subband_aec_mid_channel+0x306>:
    5686:	000000                                        ...

00005689 <subband_aec_mid_channel+0x309>:
    5689:	1093a2        	l16si	a10, a3, 32
    568c:	eaf481        	l32r	a8, 25c (7d60 <airoha_divide>)
    568f:	369b04        	ae_trunca32q48	a11, aeq1
    5692:	11aa50        	slli	a10, a10, 11
    5695:	0008e0        	callx8	a8
    5698:	21a9           	s32i.n	a10, a1, 8
    569a:	11b9           	s32i.n	a11, a1, 4
    569c:	ff5286        	j	53ea <subband_aec_mid_channel+0x6a>

0000569f <subband_aec_mid_channel+0x31f>:
	...

000056a0 <dt_detect>:
    56a0:	004136        	entry	a1, 32
    56a3:	0c9242        	l16si	a4, a2, 24
    56a6:	179262        	l16si	a6, a2, 46
    56a9:	189282        	l16si	a8, a2, 48
    56ac:	114400        	slli	a4, a4, 16
    56af:	21a437        	bge	a4, a3, 56d4 <dt_detect+0x34>
    56b2:	054c           	movi.n	a5, 64
    56b4:	1ca587        	bge	a5, a8, 56d4 <dt_detect+0x34>
    56b7:	1692b2        	l16si	a11, a2, 44
    56ba:	0e92a2        	l16si	a10, a2, 28
    56bd:	962b           	addi.n	a9, a6, 2
    56bf:	bb4b           	addi.n	a11, a11, 4
    56c1:	43bba0        	min	a11, a11, a10
    56c4:	8bbd           	ae_sext16	a11, a11
    56c6:	1652b2        	s16i	a11, a2, 44
    56c9:	5399b0        	max	a9, a9, a11
    56cc:	4399a0        	min	a9, a9, a10
    56cf:	175292        	s16i	a9, a2, 46
    56d2:	f01d           	retw.n

000056d4 <dt_detect+0x34>:
    56d4:	0e92e2        	l16si	a14, a2, 28
    56d7:	0f0c           	movi.n	a15, 0
    56d9:	d60b           	addi.n	a13, a6, -1
    56db:	0c0c           	movi.n	a12, 0
    56dd:	1652c2        	s16i	a12, a2, 44
    56e0:	53ddf0        	max	a13, a13, a15
    56e3:	43dde0        	min	a13, a13, a14
    56e6:	1752d2        	s16i	a13, a2, 46
    56e9:	f01d           	retw.n

000056eb <dt_detect+0x4b>:
	...

000056ec <dt_detect_FB>:
    56ec:	004136        	entry	a1, 32
    56ef:	1a9242        	l16si	a4, a2, 52
    56f2:	1c9262        	l16si	a6, a2, 56
    56f5:	189282        	l16si	a8, a2, 48
    56f8:	114400        	slli	a4, a4, 16
    56fb:	21a437        	bge	a4, a3, 5720 <dt_detect_FB+0x34>
    56fe:	054c           	movi.n	a5, 64
    5700:	1ca587        	bge	a5, a8, 5720 <dt_detect_FB+0x34>
    5703:	1d92b2        	l16si	a11, a2, 58
    5706:	1b92a2        	l16si	a10, a2, 54
    5709:	962b           	addi.n	a9, a6, 2
    570b:	bb4b           	addi.n	a11, a11, 4
    570d:	43bba0        	min	a11, a11, a10
    5710:	8bbd           	ae_sext16	a11, a11
    5712:	1d52b2        	s16i	a11, a2, 58
    5715:	5399b0        	max	a9, a9, a11
    5718:	4399a0        	min	a9, a9, a10
    571b:	1c5292        	s16i	a9, a2, 56
    571e:	f01d           	retw.n

00005720 <dt_detect_FB+0x34>:
    5720:	1b92e2        	l16si	a14, a2, 54
    5723:	0f0c           	movi.n	a15, 0
    5725:	d60b           	addi.n	a13, a6, -1
    5727:	0c0c           	movi.n	a12, 0
    5729:	1d52c2        	s16i	a12, a2, 58
    572c:	53ddf0        	max	a13, a13, a15
    572f:	43dde0        	min	a13, a13, a14
    5732:	1c52d2        	s16i	a13, a2, 56
    5735:	f01d           	retw.n

00005737 <dt_detect_FB+0x4b>:
	...

00005738 <get_aec_nr_memsize>:
    5738:	004136        	entry	a1, 32
    573b:	eacf21        	l32r	a2, 278 (a890 <__switch_array_56+0x50>)
    573e:	f01d           	retw.n

00005740 <get_txnr_pitch_last>:
    5740:	004136        	entry	a1, 32
    5743:	ea3121        	l32r	a2, 8 (d784 <p_ecnr_mem>)
    5746:	0228           	l32i.n	a2, a2, 0
    5748:	29d222        	addmi	a2, a2, 0x2900
    574b:	7fd222        	addmi	a2, a2, 0x7f00
    574e:	3c9222        	l16si	a2, a2, 120
    5751:	f01d           	retw.n

00005753 <get_txnr_pitch_last+0x13>:
	...

00005754 <sb_ana_init>:
    5754:	004136        	entry	a1, 32
    5757:	0b0c           	movi.n	a11, 0
    5759:	ec1c           	movi.n	a12, 30
    575b:	ea5b81        	l32r	a8, c8 (8808 <xt_memset>)
    575e:	a24b           	addi.n	a10, a2, 4
    5760:	02a9           	s32i.n	a10, a2, 0
    5762:	0008e0        	callx8	a8
    5765:	f01d           	retw.n

00005767 <sb_ana_init+0x13>:
	...

00005768 <sb_syn_init>:
    5768:	004136        	entry	a1, 32
    576b:	0b0c           	movi.n	a11, 0
    576d:	cc3c           	movi.n	a12, 60
    576f:	ea5681        	l32r	a8, c8 (8808 <xt_memset>)
    5772:	a24b           	addi.n	a10, a2, 4
    5774:	02a9           	s32i.n	a10, a2, 0
    5776:	0008e0        	callx8	a8
    5779:	f01d           	retw.n

0000577b <sb_syn_init+0x13>:
	...

0000577c <AVC_init>:
    577c:	004136        	entry	a1, 32
    577f:	ea2581        	l32r	a8, 14 (d778 <__bss_start>)
    5782:	ea3151        	l32r	a5, 48 (8000 <xtensa_fft8_32b+0xf0>)
    5785:	0888           	l32i.n	a8, a8, 0
    5787:	030c           	movi.n	a3, 0
    5789:	2239           	s32i.n	a3, a2, 8
    578b:	1e1842        	l16ui	a4, a8, 60
    578e:	1f1892        	l16ui	a9, a8, 62
    5791:	025292        	s16i	a9, a2, 4
    5794:	201882        	l16ui	a8, a8, 64
    5797:	035282        	s16i	a8, a2, 6
    579a:	c05540        	sub	a5, a5, a4
    579d:	115500        	slli	a5, a5, 16
    57a0:	445a           	add.n	a4, a4, a5
    57a2:	0249           	s32i.n	a4, a2, 0
    57a4:	f01d           	retw.n

000057a6 <AVC_init+0x2a>:
	...

000057a8 <HP_coef_setup>:
    57a8:	004136        	entry	a1, 32
    57ab:	02ad           	mov.n	a10, a2
    57ad:	ea1581        	l32r	a8, 4 (8820 <xt_memcpy>)
    57b0:	03bd           	mov.n	a11, a3
    57b2:	04a0c2        	movi	a12, 4
    57b5:	0008e0        	callx8	a8
    57b8:	a2cb           	addi.n	a10, a2, 12
    57ba:	ea1281        	l32r	a8, 4 (8820 <xt_memcpy>)
    57bd:	b38b           	addi.n	a11, a3, 8
    57bf:	ac0c           	movi.n	a12, 10
    57c1:	0008e0        	callx8	a8
    57c4:	1cc3b2        	addi	a11, a3, 28
    57c7:	ea0f81        	l32r	a8, 4 (8820 <xt_memcpy>)
    57ca:	24c2a2        	addi	a10, a2, 36
    57cd:	8c0c           	movi.n	a12, 8
    57cf:	0008e0        	callx8	a8
    57d2:	7298           	l32i.n	a9, a2, 28
    57d4:	12a8           	l32i.n	a10, a2, 4
    57d6:	22a9           	s32i.n	a10, a2, 8
    57d8:	8299           	s32i.n	a9, a2, 32
    57da:	f01d           	retw.n

000057dc <Get_AirDump_Inear>:
    57dc:	004136        	entry	a1, 32
    57df:	ea0aa1        	l32r	a10, 8 (d784 <p_ecnr_mem>)
    57e2:	0aa8           	l32i.n	a10, a10, 0
    57e4:	02bd           	mov.n	a11, a2
    57e6:	eaa581        	l32r	a8, 27c (3ca8 <fn_get_airdump>)
    57e9:	11daa2        	addmi	a10, a10, 0x1100
    57ec:	68caa2        	addi	a10, a10, 104
    57ef:	0008e0        	callx8	a8
    57f2:	f01d           	retw.n

000057f4 <Voice_WB_TX_Inear_Init>:
    57f4:	004136        	entry	a1, 32
    57f7:	07dd           	mov.n	a13, a7
    57f9:	06cd           	mov.n	a12, a6
    57fb:	02ad           	mov.n	a10, a2
    57fd:	05bd           	mov.n	a11, a5
    57ff:	ea0221        	l32r	a2, 8 (d784 <p_ecnr_mem>)
    5802:	ea9f81        	l32r	a8, 280 (49c <TX_ECNR_PARA_init>)
    5805:	81e8           	l32i.n	a14, a1, 32
    5807:	0249           	s32i.n	a4, a2, 0
    5809:	0008e0        	callx8	a8
    580c:	ea0241        	l32r	a4, 14 (d778 <__bss_start>)
    580f:	04b8           	l32i.n	a11, a4, 0
    5811:	02a8           	l32i.n	a10, a2, 0
    5813:	ea9c81        	l32r	a8, 284 (57a8 <HP_coef_setup>)
    5816:	01dbb2        	addmi	a11, a11, 0x100
    5819:	bb8b           	addi.n	a11, a11, 8
    581b:	0008e0        	callx8	a8
    581e:	0b0c           	movi.n	a11, 0
    5820:	02a8           	l32i.n	a10, a2, 0
    5822:	ea2981        	l32r	a8, c8 (8808 <xt_memset>)
    5825:	4c2c           	movi.n	a12, 36
    5827:	34caa2        	addi	a10, a10, 52
    582a:	0008e0        	callx8	a8
    582d:	80a032        	movi	a3, 128
    5830:	0b0c           	movi.n	a11, 0
    5832:	0022a2        	l32i	a10, a2, 0
    5835:	f0a0c2        	movi	a12, 240
    5838:	ea2481        	l32r	a8, c8 (8808 <xt_memset>)
    583b:	01daa2        	addmi	a10, a10, 0x100
    583e:	80caa2        	addi	a10, a10, -128
    5841:	0008e0        	callx8	a8
    5844:	02a8           	l32i.n	a10, a2, 0
    5846:	ea9081        	l32r	a8, 288 (5754 <sb_ana_init>)
    5849:	10daa2        	addmi	a10, a10, 0x1000
    584c:	b0caa2        	addi	a10, a10, -80
    584f:	0008e0        	callx8	a8
    5852:	02a8           	l32i.n	a10, a2, 0
    5854:	ea8d81        	l32r	a8, 288 (5754 <sb_ana_init>)
    5857:	10daa2        	addmi	a10, a10, 0x1000
    585a:	30caa2        	addi	a10, a10, 48
    585d:	0008e0        	callx8	a8
    5860:	02a8           	l32i.n	a10, a2, 0
    5862:	ea8981        	l32r	a8, 288 (5754 <sb_ana_init>)
    5865:	10daa2        	addmi	a10, a10, 0x1000
    5868:	f0caa2        	addi	a10, a10, -16
    586b:	0008e0        	callx8	a8
    586e:	02a8           	l32i.n	a10, a2, 0
    5870:	ea8781        	l32r	a8, 28c (5768 <sb_syn_init>)
    5873:	10daa2        	addmi	a10, a10, 0x1000
    5876:	70caa2        	addi	a10, a10, 112
    5879:	0008e0        	callx8	a8
    587c:	02a8           	l32i.n	a10, a2, 0
    587e:	ea8381        	l32r	a8, 28c (5768 <sb_syn_init>)
    5881:	11daa2        	addmi	a10, a10, 0x1100
    5884:	eccaa2        	addi	a10, a10, -20
    5887:	0008e0        	callx8	a8
    588a:	04b8           	l32i.n	a11, a4, 0
    588c:	02a8           	l32i.n	a10, a2, 0
    588e:	06db62        	addmi	a6, a11, 0x600
    5891:	0bc8           	l32i.n	a12, a11, 0
    5893:	331bf2        	l16ui	a15, a11, 102
    5896:	8a3a           	add.n	a8, a10, a3
    5898:	ffd8e2        	addmi	a14, a8, 0xffffff00
    589b:	3e5af2        	s16i	a15, a10, 124
    589e:	341bd2        	l16ui	a13, a11, 104
    58a1:	78ccc2        	addi	a12, a12, 120
    58a4:	7f5ed2        	s16i	a13, a14, 254
    58a7:	07dbb2        	addmi	a11, a11, 0x700
    58aa:	68cbb2        	addi	a11, a11, 104
    58ad:	8168c2        	s32i	a12, a8, 0x204
    58b0:	ad9652        	l16si	a5, a6, 0x15a
    58b3:	50ccd2        	addi	a13, a12, 80
    58b6:	ae9662        	l16si	a6, a6, 0x15c
    58b9:	8268d2        	s32i	a13, a8, 0x208
    58bc:	78ccc2        	addi	a12, a12, 120
    58bf:	855d           	ae_sext16	a5, a5
    58c1:	8368c2        	s32i	a12, a8, 0x20c
    58c4:	50cce2        	addi	a14, a12, 80
    58c7:	28ccd2        	addi	a13, a12, 40
    58ca:	8468d2        	s32i	a13, a8, 0x210
    58cd:	8568e2        	s32i	a14, a8, 0x214
    58d0:	ea70d1        	l32r	a13, 290 (a788 <fftorder_512_12b+0x348>)
    58d3:	78ccc2        	addi	a12, a12, 120
    58d6:	8668c2        	s32i	a12, a8, 0x218
    58d9:	78ccf2        	addi	a15, a12, 120
    58dc:	50cce2        	addi	a14, a12, 80
    58df:	8968e2        	s32i	a14, a8, 0x224
    58e2:	dada           	add.n	a13, a10, a13
    58e4:	8868f2        	s32i	a15, a8, 0x220
    58e7:	40caa2        	addi	a10, a10, 64
    58ea:	3e2d72        	l32i	a7, a13, 248
    58ed:	00a1f2        	movi	a15, 0x100
    58f0:	28ccc2        	addi	a12, a12, 40
    58f3:	5355f0        	max	a5, a5, a15
    58f6:	8768c2        	s32i	a12, a8, 0x21c
    58f9:	ea00c1        	l32r	a12, fc (800000 <_end+0x7f2874>)
    58fc:	04d792        	addmi	a9, a7, 0x400
    58ff:	8a6892        	s32i	a9, a8, 0x228
    5902:	06d772        	addmi	a7, a7, 0x600
    5905:	e0c772        	addi	a7, a7, -32
    5908:	8b6872        	s32i	a7, a8, 0x22c
    590b:	815d62        	s16i	a6, a13, 0x102
    590e:	811de2        	l16ui	a14, a13, 0x102
    5911:	805d52        	s16i	a5, a13, 0x100
    5914:	ea5c81        	l32r	a8, 284 (57a8 <HP_coef_setup>)
    5917:	53eef0        	max	a14, a14, a15
    591a:	9eed           	ae_zext16	a14, a14
    591c:	d2cce0        	quos	a12, a12, a14
    591f:	815dc2        	s16i	a12, a13, 0x102
    5922:	0008e0        	callx8	a8
    5925:	ea5b81        	l32r	a8, 294 (4a68 <SBAEC_INIT>)
    5928:	f03d           	nop.n
    592a:	0008e0        	callx8	a8
    592d:	ea5a81        	l32r	a8, 298 (6cf8 <WB_TX_NR_init>)
    5930:	f03d           	nop.n
    5932:	0008e0        	callx8	a8
    5935:	02a8           	l32i.n	a10, a2, 0
    5937:	ea5981        	l32r	a8, 29c (577c <AVC_init>)
    593a:	0ddaa2        	addmi	a10, a10, 0xd00
    593d:	18caa2        	addi	a10, a10, 24
    5940:	0008e0        	callx8	a8
    5943:	00a4c2        	movi	a12, 0x400
    5946:	fb7c           	movi.n	a11, -1
    5948:	ea56f1        	l32r	a15, 2a0 (d788 <avc_vol>)
    594b:	02a8           	l32i.n	a10, a2, 0
    594d:	ea55e1        	l32r	a14, 2a4 (2000 <fn_calc_sup_gain+0x2ac>)
    5950:	6fed           	ae_s16i.n	a14, a15, 0
    5952:	da3a           	add.n	a13, a10, a3
    5954:	02da92        	addmi	a9, a10, 0x200
    5957:	60c992        	addi	a9, a9, 96
    595a:	fe5db2        	s16i	a11, a13, 0x1fc
    595d:	09c9c4        	ae_s16ip	a12, a9, 2
    5960:	09c9c4        	ae_s16ip	a12, a9, 2
    5963:	09c9c4        	ae_s16ip	a12, a9, 2
    5966:	09c9c4        	ae_s16ip	a12, a9, 2
    5969:	09c9c4        	ae_s16ip	a12, a9, 2
    596c:	09c9c4        	ae_s16ip	a12, a9, 2
    596f:	09c9c4        	ae_s16ip	a12, a9, 2
    5972:	0b0c           	movi.n	a11, 0
    5974:	0c5c           	movi.n	a12, 80
    5976:	e9d481        	l32r	a8, c8 (8808 <xt_memset>)
    5979:	0cdaa2        	addmi	a10, a10, 0xc00
    597c:	30caa2        	addi	a10, a10, 48
    597f:	0008e0        	callx8	a8
    5982:	0b0c           	movi.n	a11, 0
    5984:	02a8           	l32i.n	a10, a2, 0
    5986:	4c2c           	movi.n	a12, 36
    5988:	e9d081        	l32r	a8, c8 (8808 <xt_memset>)
    598b:	0ddaa2        	addmi	a10, a10, 0xd00
    598e:	d0caa2        	addi	a10, a10, -48
    5991:	0008e0        	callx8	a8
    5994:	04b8           	l32i.n	a11, a4, 0
    5996:	ea4481        	l32r	a8, 2a8 (3cd8 <fn_ini_inear_ast_nr>)
    5999:	02a8           	l32i.n	a10, a2, 0
    599b:	02dbd2        	addmi	a13, a11, 0x200
    599e:	04dbe2        	addmi	a14, a11, 0x400
    59a1:	11daa2        	addmi	a10, a10, 0x1100
    59a4:	68caa2        	addi	a10, a10, 104
    59a7:	48cec2        	addi	a12, a14, 72
    59aa:	c8cdd2        	addi	a13, a13, -56
    59ad:	c6cee2        	addi	a14, a14, -58
    59b0:	06dbb2        	addmi	a11, a11, 0x600
    59b3:	48cbb2        	addi	a11, a11, 72
    59b6:	0008e0        	callx8	a8
    59b9:	f01d           	retw.n

000059bb <Voice_WB_TX_Inear_Init+0x1c7>:
	...

000059bc <mic240_delay>:
    59bc:	004136        	entry	a1, 32
    59bf:	02ad           	mov.n	a10, a2
    59c1:	e99081        	l32r	a8, 4 (8820 <xt_memcpy>)
    59c4:	04bd           	mov.n	a11, a4
    59c6:	20c550        	or	a12, a5, a5
    59c9:	0008e0        	callx8	a8
    59cc:	03bd           	mov.n	a11, a3
    59ce:	90a520        	addx2	a10, a5, a2
    59d1:	f0a0c2        	movi	a12, 240
    59d4:	e98c81        	l32r	a8, 4 (8820 <xt_memcpy>)
    59d7:	c0cc50        	sub	a12, a12, a5
    59da:	1125f0        	slli	a2, a5, 1
    59dd:	0008e0        	callx8	a8
    59e0:	05cd           	mov.n	a12, a5
    59e2:	04ad           	mov.n	a10, a4
    59e4:	c0b320        	sub	a11, a3, a2
    59e7:	e98781        	l32r	a8, 4 (8820 <xt_memcpy>)
    59ea:	02dbb2        	addmi	a11, a11, 0x200
    59ed:	e0cbb2        	addi	a11, a11, -32
    59f0:	0008e0        	callx8	a8
    59f3:	f01d           	retw.n

000059f5 <mic240_delay+0x39>:
    59f5:	000000                                        ...

000059f8 <tx_downsample_by2>:
    59f8:	004136        	entry	a1, 32
    59fb:	440404        	ae_lp16x2f.i	aep0, a4, 0
    59fe:	ea2b91        	l32r	a9, 2ac (ac9c <wb_r01+0xc>)
    5a01:	5c1504        	ae_lp24x2f.i	aep1, a5, 0
    5a04:	ff242c240f 	{ ae_lp16f.i	aep2, a4, 0; ae_cvtq48p24s.h	aeq3, aep1 }
    5a09:	de28b1390f 	{ ae_lp24.i	aep3, a9, 0; ae_selp24.hl	aep4, aep2, aep1 }
    5a0e:	e98c7d460f 	{ ae_lq32f.i	aeq2, a6, 0; ae_mulasfp24s.hh.ll	aeq3, aep3, aep4 }
    5a13:	fd2c2f451f 	{ ae_lp24x2f.i	aep4, a5, 8; ae_cvtq48p24s.l	aeq1, aep1 }
    5a18:	fa7ff4250f 	{ ae_sp24f.l.i	aep2, a5, 0; ae_roundsp24q48asym	aep5, aeq3 }
    5a1d:	df95f1691f 	{ ae_lp24.i	aep6, a9, 4; ae_selp24.lh	aep7, aep5, aep4 }
    5a22:	056f44        	ae_mulasfp24s.hh.ll	aeq1, aep6, aep7
    5a25:	fc840fe27e 	{ addi	a7, a2, -2; ae_cvtq48p24s.h	aeq0, aep4 }
    5a2a:	f86ff4551f 	{ ae_sp24f.l.i	aep5, a5, 4; ae_roundsp24q48asym	aep1, aeq1 }
    5a2f:	dd8671292f 	{ ae_lp24.i	aep2, a9, 8; ae_selp24.ll	aep3, aep1, aep4 }
    5a34:	e86813855f 	{ or	a8, a5, a5; ae_mulasfp24s.hh.ll	aeq0, aep2, aep3 }
    5a39:	521524        	ae_sp24f.l.i	aep1, a5, 8
    5a3c:	f967af452f 	{ ae_lp24x2f.i	aep4, a5, 16; ae_roundsp24q48asym	aep2, aeq0 }
    5a41:	522534        	ae_sp24f.l.i	aep2, a5, 12
    5a44:	ff842c541f 	{ ae_lp16f.i	aep5, a4, 2; ae_cvtq48p24s.h	aeq3, aep4 }
    5a49:	df94f169df 	{ ae_lp24.i	aep6, a9, -12; ae_selp24.hl	aep7, aep5, aep4 }
    5a4e:	e9f84105ae 	{ addi	a10, a5, 16; ae_mulasfp24s.hh.ll	aeq3, aep6, aep7 }
    5a53:	fd8c2f653f 	{ ae_lp24x2f.i	aep6, a5, 24; ae_cvtq48p24s.l	aeq1, aep4 }
    5a58:	fb7ff4554f 	{ ae_sp24f.l.i	aep5, a5, 16; ae_roundsp24q48asym	aep7, aeq3 }
    5a5d:	ddddf119ef 	{ ae_lp24.i	aep1, a9, -8; ae_selp24.lh	aep3, aep7, aep6 }
    5a62:	e86453d66f 	{ or	a13, a6, a6; ae_mulasfp24s.hh.ll	aeq1, aep1, aep3 }
    5a67:	fcc40fe36e 	{ addi	a6, a3, -2; ae_cvtq48p24s.h	aeq0, aep6 }
    5a6c:	f96ff4755f 	{ ae_sp24f.l.i	aep7, a5, 20; ae_roundsp24q48asym	aep3, aeq1 }
    5a71:	dece7149ff 	{ ae_lp24.i	aep4, a9, -4; ae_selp24.ll	aep5, aep3, aep6 }
    5a76:	e8b00f49be 	{ addi	a11, a9, -12; ae_mulasfp24s.hh.ll	aeq0, aep4, aep5 }
    5a7b:	34af04        	ae_movap24s.l	a15, aep2
    5a7e:	f867f4356f 	{ ae_sp24f.l.i	aep3, a5, 24; ae_roundsp24q48asym	aep1, aeq0 }
    5a83:	521574        	ae_sp24f.l.i	aep1, a5, 28
    5a86:	349e04        	ae_movap24s.l	a14, aep1
    5a89:	351c           	movi.n	a5, 19
    5a8b:	44a414        	ae_lp16x2f.iu	aep2, a4, 4
    5a8e:	e30013244f 	{ or	a2, a4, a4; ae_mulaafp24s.hh.ll	aeq2, aep0, aep0 }
    5a93:	f03d           	nop.n
    5a95:	978576        	loop	a5, 5b30 <tx_downsample_by2+0x138>
    5a98:	e348105eff 	{ add	a5, a14, a15; ae_mulaafp24s.hh.ll	aeq2, aep2, aep2 }
    5a9d:	215150        	srai	a5, a5, 1
    5aa0:	c0fef0        	sub	a15, a14, a15
    5aa3:	21f1f0        	srai	a15, a15, 1
    5aa6:	39a5f4        	ae_movpa24x2	aep2, a5, a15
    5aa9:	0921a4        	ae_roundsp16asym	aep2, aep2
    5aac:	dd4932a61f 	{ ae_sp16f.l.iu	aep2, a6, 2; ae_selp24.hh	aep2, aep2, aep2 }
    5ab1:	42a714        	ae_sp16f.l.iu	aep2, a7, 2
    5ab4:	5c2804        	ae_lp24x2f.i	aep2, a8, 0
    5ab7:	fc442c120f 	{ ae_lp16f.i	aep1, a2, 0; ae_cvtq48p24s.h	aeq0, aep2 }
    5abc:	dd44f1090f 	{ ae_lp24.i	aep0, a9, 0; ae_selp24.hl	aep3, aep1, aep2 }
    5ac1:	e86034180f 	{ ae_sp24f.l.i	aep1, a8, 0; ae_mulasfp24s.hh.ll	aeq0, aep0, aep3 }
    5ac6:	fd4c31291f 	{ ae_lp24.i	aep2, a9, 4; ae_cvtq48p24s.l	aeq1, aep2 }
    5acb:	f867af181f 	{ ae_lp24x2f.i	aep1, a8, 8; ae_roundsp24q48asym	aep0, aeq0 }
    5ad0:	dc21b4081f 	{ ae_sp24f.l.i	aep0, a8, 4; ae_selp24.lh	aep0, aep0, aep1 }
    5ad5:	e80871292f 	{ ae_lp24.i	aep2, a9, 8; ae_mulasfp24s.hh.ll	aeq1, aep2, aep0 }
    5ada:	0a0984        	ae_cvtq48p24s.h	aeq0, aep1
    5add:	1b9d04        	ae_roundsp24q48asym	aep0, aeq1
    5ae0:	dc2274082f 	{ ae_sp24f.l.i	aep0, a8, 8; ae_selp24.ll	aep1, aep0, aep1 }
    5ae5:	052144        	ae_mulasfp24s.hh.ll	aeq0, aep2, aep1
    5ae8:	1b8d24        	ae_roundsp24q48asym	aep2, aeq0
    5aeb:	522834        	ae_sp24f.l.i	aep2, a8, 12
    5aee:	5c1a04        	ae_lp24x2f.i	aep1, a10, 0
    5af1:	fc242c021f 	{ ae_lp16f.i	aep0, a2, 2; ae_cvtq48p24s.h	aeq0, aep1 }
    5af6:	de20b13b0f 	{ ae_lp24.i	aep3, a11, 0; ae_selp24.hl	aep4, aep0, aep1 }
    5afb:	e88c340a0f 	{ ae_sp24f.l.i	aep0, a10, 0; ae_mulasfp24s.hh.ll	aeq0, aep3, aep4 }
    5b00:	fd2c311b1f 	{ ae_lp24.i	aep1, a11, 4; ae_cvtq48p24s.l	aeq1, aep1 }
    5b05:	f967ef0a1f 	{ ae_lp24x2f.i	aep0, a10, 8; ae_roundsp24q48asym	aep3, aeq0 }
    5b0a:	dd0df43a1f 	{ ae_sp24f.l.i	aep3, a10, 4; ae_selp24.lh	aep3, aep3, aep0 }
    5b0f:	e864711b2f 	{ ae_lp24.i	aep1, a11, 8; ae_mulasfp24s.hh.ll	aeq1, aep1, aep3 }
    5b14:	fc043f2fdf 	{ ae_movap24s.l	a15, aep2; ae_cvtq48p24s.h	aeq0, aep0 }
    5b19:	1b9d24        	ae_roundsp24q48asym	aep2, aeq1
    5b1c:	dd0a342a2f 	{ ae_sp24f.l.i	aep2, a10, 8; ae_selp24.ll	aep2, aep2, aep0 }
    5b21:	051244        	ae_mulasfp24s.hh.ll	aeq0, aep1, aep2
    5b24:	1b8d24        	ae_roundsp24q48asym	aep2, aeq0
    5b27:	34ae04        	ae_movap24s.l	a14, aep2
    5b2a:	522a34        	ae_sp24f.l.i	aep2, a10, 12
    5b2d:	44a214        	ae_lp16x2f.iu	aep2, a2, 4

00005b30 <tx_downsample_by2+0x138>:
    5b30:	078d           	mov.n	a8, a7
    5b32:	aefa           	add.n	a10, a14, a15
    5b34:	c0bef0        	sub	a11, a14, a15
    5b37:	21b1b0        	srai	a11, a11, 1
    5b3a:	21a1a0        	srai	a10, a10, 1
    5b3d:	39fab4        	ae_movpa24x2	aep7, a10, a11
    5b40:	fbfe93966f 	{ or	a9, a6, a6; ae_roundsp16asym	aep6, aep7 }
    5b45:	ded972e91f 	{ ae_sp16f.l.iu	aep6, a9, 2; ae_selp24.hh	aep5, aep6, aep6 }
    5b4a:	fc3472d81f 	{ ae_sp16f.l.iu	aep5, a8, 2; ae_roundsq32asym	aeq0, aeq2 }
    5b4f:	620d04        	ae_sq32f.i	aeq0, a13, 0
    5b52:	f01d           	retw.n

00005b54 <tx_upsample_by2>:
    5b54:	006136        	entry	a1, 48
    5b57:	401304        	ae_lp16f.i	aep1, a3, 0
    5b5a:	812b           	addi.n	a8, a1, 2
    5b5c:	e9d4a1        	l32r	a10, 2ac (ac9c <wb_r01+0xc>)
    5b5f:	400204        	ae_lp16f.i	aep0, a2, 0
    5b62:	06dd           	mov.n	a13, a6
    5b64:	057d           	mov.n	a7, a5
    5b66:	10c792        	addi	a9, a7, 16
    5b69:	608d04        	ae_lq32f.i	aeq2, a13, 0
    5b6c:	fcc462        	addi	a6, a4, -4
    5b6f:	025d           	mov.n	a5, a2
    5b71:	034d           	mov.n	a4, a3
    5b73:	421c           	movi.n	a2, 20
    5b75:	f4cab2        	addi	a11, a10, -12
    5b78:	928276        	loop	a2, 5c0e <tx_upsample_by2+0xba>
    5b7b:	dd22af370f 	{ ae_lp24x2f.i	aep3, a7, 0; ae_subsp24s	aep2, aep0, aep1 }
    5b80:	d92132211f 	{ ae_sp16f.l.i	aep2, a1, 2; ae_addsp24s	aep2, aep0, aep1 }
    5b85:	fc6432210f 	{ ae_sp16f.l.i	aep2, a1, 0; ae_cvtq48p24s.h	aeq0, aep3 }
    5b8a:	fd6c2c180f 	{ ae_lp16f.i	aep1, a8, 0; ae_cvtq48p24s.l	aeq1, aep3 }
    5b8f:	dc64b13b0f 	{ ae_lp24.i	aep3, a11, 0; ae_selp24.hl	aep0, aep1, aep3 }
    5b94:	e80c34170f 	{ ae_sp24f.l.i	aep1, a7, 0; ae_mulasfp24s.hh.ll	aeq0, aep3, aep0 }
    5b99:	e34bb13b1f 	{ ae_lp24.i	aep3, a11, 4; ae_mulafp24s.ll	aeq2, aep2, aep2 }
    5b9e:	f867ef271f 	{ ae_lp24x2f.i	aep2, a7, 8; ae_roundsp24q48asym	aep1, aeq0 }
    5ba3:	dc45f4171f 	{ ae_sp24f.l.i	aep1, a7, 4; ae_selp24.lh	aep1, aep1, aep2 }
    5ba8:	e82c713b2f 	{ ae_lp24.i	aep3, a11, 8; ae_mulasfp24s.hh.ll	aeq1, aep3, aep1 }
    5bad:	fc442c110f 	{ ae_lp16f.i	aep1, a1, 0; ae_cvtq48p24s.h	aeq0, aep2 }
    5bb2:	1b9d04        	ae_roundsp24q48asym	aep0, aeq1
    5bb5:	dd4234072f 	{ ae_sp24f.l.i	aep0, a7, 8; ae_selp24.ll	aep2, aep0, aep2 }
    5bba:	053244        	ae_mulasfp24s.hh.ll	aeq0, aep3, aep2
    5bbd:	1b8d34        	ae_roundsp24q48asym	aep3, aeq0
    5bc0:	523734        	ae_sp24f.l.i	aep3, a7, 12
    5bc3:	5c2904        	ae_lp24x2f.i	aep2, a9, 0
    5bc6:	fc443e121f 	{ ae_selp24.hl	aep0, aep1, aep2; ae_cvtq48p24s.h	aeq0, aep2 }
    5bcb:	fd4c312a0f 	{ ae_lp24.i	aep2, a10, 0; ae_cvtq48p24s.l	aeq1, aep2 }
    5bd0:	e80834190f 	{ ae_sp24f.l.i	aep1, a9, 0; ae_mulasfp24s.hh.ll	aeq0, aep2, aep0 }
    5bd5:	4c2a14        	ae_lp24.i	aep2, a10, 4
    5bd8:	f867af191f 	{ ae_lp24x2f.i	aep1, a9, 8; ae_roundsp24q48asym	aep0, aeq0 }
    5bdd:	dc21b4091f 	{ ae_sp24f.l.i	aep0, a9, 4; ae_selp24.lh	aep0, aep0, aep1 }
    5be2:	e808712a2f 	{ ae_lp24.i	aep2, a10, 8; ae_mulasfp24s.hh.ll	aeq1, aep2, aep0 }
    5be7:	fc243f32df 	{ ae_movap24s.l	a2, aep3; ae_cvtq48p24s.h	aeq0, aep1 }
    5bec:	1b9d34        	ae_roundsp24q48asym	aep3, aeq1
    5bef:	dd2e74392f 	{ ae_sp24f.l.i	aep3, a9, 8; ae_selp24.ll	aep3, aep3, aep1 }
    5bf4:	052344        	ae_mulasfp24s.hh.ll	aeq0, aep2, aep3
    5bf7:	1b8d34        	ae_roundsp24q48asym	aep3, aeq0
    5bfa:	34b304        	ae_movap24s.l	a3, aep3
    5bfd:	39a234        	ae_movpa24x2	aep2, a2, a3
    5c00:	f9eaf4393f 	{ ae_sp24f.l.i	aep3, a9, 12; ae_roundsp16asym	aep3, aep2 }
    5c05:	409414        	ae_lp16f.iu	aep1, a4, 2
    5c08:	408514        	ae_lp16f.iu	aep0, a5, 2
    5c0b:	46b614        	ae_sp16x2f.iu	aep3, a6, 4

00005c0e <tx_upsample_by2+0xba>:
    5c0e:	062934        	ae_roundsq32asym	aeq0, aeq2
    5c11:	620d04        	ae_sq32f.i	aeq0, a13, 0
    5c14:	f01d           	retw.n

00005c16 <tx_upsample_by2+0xc2>:
	...

00005c18 <emph_filter_N>:
    5c18:	004136        	entry	a1, 32
    5c1b:	443304        	ae_lp16x2f.i	aep3, a3, 0
    5c1e:	fec282        	addi	a8, a2, -2
    5c21:	fcc262        	addi	a6, a2, -4
    5c24:	047d           	mov.n	a7, a4
    5c26:	441704        	ae_lp16x2f.i	aep1, a7, 0
    5c29:	451b           	addi.n	a4, a5, 1
    5c2b:	062d           	mov.n	a2, a6
    5c2d:	083d           	mov.n	a3, a8
    5c2f:	b34550        	movgez	a4, a5, a5
    5c32:	214140        	srai	a4, a4, 1
    5c35:	23a476        	loopgtz	a4, 5c5c <emph_filter_N+0x44>
    5c38:	448214        	ae_lp16x2f.iu	aep0, a2, 4
    5c3b:	fc043e018f 	{ ae_selp24.hh	aep2, aep0, aep1; ae_cvtq48p24s.h	aeq0, aep0 }
    5c40:	0a4084        	ae_cvtq48p24s.l	aeq1, aep0
    5c43:	013104        	ae_mulafp24s.hh	aeq0, aep3, aep1
    5c46:	013804        	ae_mulafp24s.hh	aeq1, aep3, aep0
    5c49:	e22c3e006f 	{ ae_selp24.lh	aep1, aep0, aep0; ae_mulaafp24s.hh.ll	aeq0, aep3, aep1 }
    5c4e:	053a04        	ae_mulaafp24s.hh.ll	aeq1, aep3, aep2
    5c51:	1b8f04        	ae_roundsp16q48asym	aep0, aeq0
    5c54:	f86bb2031f 	{ ae_sp16f.l.i	aep0, a3, 2; ae_roundsp16q48asym	aep0, aeq1 }
    5c59:	428324        	ae_sp16f.l.iu	aep0, a3, 4

00005c5c <emph_filter_N+0x44>:
    5c5c:	461704        	ae_sp16x2f.i	aep1, a7, 0
    5c5f:	f01d           	retw.n

00005c61 <emph_filter_N+0x49>:
    5c61:	000000                                        ...

00005c64 <deemph_filter_N>:
    5c64:	004136        	entry	a1, 32
    5c67:	400204        	ae_lp16f.i	aep0, a2, 0
    5c6a:	442304        	ae_lp16x2f.i	aep2, a3, 0
    5c6d:	e99061        	l32r	a6, 2b0 (aab0 <immediate_num+0x30>)
    5c70:	608404        	ae_lq32f.i	aeq2, a4, 0
    5c73:	9a4a3d241f 	{ ae_lq32f.i	aeq1, a4, 4; ae_mulzssfq32sp16s.hh	aeq0, aeq2, aep2, aeq2, aep2 }
    5c78:	f889ad160f 	{ ae_lp16x2f.i	aep1, a6, 0; ae_mulsfq32sp16s.l	aeq0, aeq1, aep2 }
    5c7d:	3a15a6        	blti	a5, 1, 5cbb <deemph_filter_N+0x57>
    5c80:	0501c4        	ae_mulssfp24s.hh.ll	aeq0, aep0, aep1
    5c83:	f03d           	nop.n
    5c85:	06c934        	ae_roundsq32asym	aeq3, aeq0
    5c88:	9a4bcff53e 	{ addi	a3, a5, -1; ae_mulzssfq32sp16s.hh	aeq1, aeq3, aep2, aeq3, aep2 }
    5c8d:	408214        	ae_lp16f.iu	aep0, a2, 2
    5c90:	fd147f113f 	{ ae_movq56	aeq0, aeq1; ae_movq56	aeq1, aeq2 }
    5c95:	14a376        	loopgtz	a3, 5cad <deemph_filter_N+0x49>
    5c98:	f889bf317f 	{ ae_movq56	aeq1, aeq3; ae_mulsfq32sp16s.l	aeq0, aeq1, aep2 }
    5c9d:	0501c4        	ae_mulssfp24s.hh.ll	aeq0, aep0, aep1
    5ca0:	1bbf04        	ae_roundsp16q48asym	aep0, aeq3
    5ca3:	ff247202ff 	{ ae_sp16f.l.i	aep0, a2, -2; ae_roundsq32asym	aeq3, aeq0 }
    5ca8:	9a4bac821f 	{ ae_lp16f.iu	aep0, a2, 2; ae_mulzssfq32sp16s.hh	aeq0, aeq3, aep2, aeq3, aep2 }

00005cad <deemph_filter_N+0x49>:
    5cad:	1bbf04        	ae_roundsp16q48asym	aep0, aeq3
    5cb0:	4202f4        	ae_sp16f.l.i	aep0, a2, -2
    5cb3:	623404        	ae_sq32f.i	aeq3, a4, 0
    5cb6:	621414        	ae_sq32f.i	aeq1, a4, 4
    5cb9:	f01d           	retw.n

00005cbb <deemph_filter_N+0x57>:
    5cbb:	622404        	ae_sq32f.i	aeq2, a4, 0
    5cbe:	621414        	ae_sq32f.i	aeq1, a4, 4
    5cc1:	f01d           	retw.n

00005cc3 <deemph_filter_N+0x5f>:
	...

00005cc4 <analy_3band>:
    5cc4:	004136        	entry	a1, 32
    5cc7:	fec6a2        	addi	a10, a6, -2
    5cca:	e97be1        	l32r	a14, 2b8 (acec <sb_g10+0x3c>)
    5ccd:	fcc4c2        	addi	a12, a4, -4
    5cd0:	e979f1        	l32r	a15, 2b4 (acac <wb_r01+0x1c>)
    5cd3:	fcc292        	addi	a9, a2, -4
    5cd6:	24c2d2        	addi	a13, a2, 36
    5cd9:	fec5b2        	addi	a11, a5, -2
    5cdc:	038d           	mov.n	a8, a3
    5cde:	04a052        	movi	a5, 4
    5ce1:	04c872        	addi	a7, a8, 4
    5ce4:	002322        	l32i	a2, a3, 0
    5ce7:	f3f670        	wur.ae_cbegin0	a7
    5cea:	40c332        	addi	a3, a3, 64
    5ced:	ff24934fff 	{ or	a4, a15, a15; ae_zeroq56	aeq3 }
    5cf2:	f3f730        	wur.ae_cend0	a3
    5cf5:	fd1c533eef 	{ or	a3, a14, a14; ae_movq56	aeq1, aeq3 }

00005cfa <analy_3band+0x36>:
    5cfa:	447914        	ae_lp16x2f.i	aep7, a9, 4
    5cfd:	fc24e4725f 	{ ae_sp16x2f.c	aep7, a2, a5; nop }
    5d02:	44e414        	ae_lp16x2f.iu	aep6, a4, 4
    5d05:	44c314        	ae_lp16x2f.iu	aep4, a3, 4
    5d08:	fc24dad25f 	{ ae_lp16x2f.c	aep5, a2, a5; nop }
    5d0d:	eab19aa25f 	{ ae_lp16x2f.c	aep2, a2, a5; ae_mulfp24s.ll	aeq0, aep4, aep5 }
    5d12:	ebb9ad141f 	{ ae_lp16x2f.i	aep1, a4, 4; ae_mulfp24s.ll	aeq2, aep6, aep5 }
    5d17:	e347ad331f 	{ ae_lp16x2f.i	aep3, a3, 4; ae_mulafp24s.ll	aeq2, aep1, aep2 }
    5d1c:	e24f80066f 	{ movi	a6, 6; ae_mulafp24s.ll	aeq0, aep3, aep2 }
    5d21:	e24e6d842f 	{ ae_lp16x2f.iu	aep0, a4, 8; ae_mulafp24s.hh	aeq1, aep3, aep2 }
    5d26:	e3465ab25f 	{ ae_lp16x2f.c	aep3, a2, a5; ae_mulafp24s.hh	aeq3, aep1, aep2 }
    5d2b:	e36240499e 	{ addi	a9, a9, 4; ae_mulafp24s.hh	aeq3, aep0, aep3 }
    5d30:	e363ada32f 	{ ae_lp16x2f.iu	aep2, a3, 8; ae_mulafp24s.ll	aeq2, aep0, aep3 }
    5d35:	238676        	loop	a6, 5d5c <analy_3band+0x98>
    5d38:	e26a5a825f 	{ ae_lp16x2f.c	aep0, a2, a5; ae_mulafp24s.hh	aeq1, aep2, aep3 }
    5d3d:	e26bad131f 	{ ae_lp16x2f.i	aep1, a3, 4; ae_mulafp24s.ll	aeq0, aep2, aep3 }
    5d42:	e207ad241f 	{ ae_lp16x2f.i	aep2, a4, 4; ae_mulafp24s.ll	aeq0, aep1, aep0 }
    5d47:	e2066d942f 	{ ae_lp16x2f.iu	aep1, a4, 8; ae_mulafp24s.hh	aeq1, aep1, aep0 }
    5d4c:	e30b9ab25f 	{ ae_lp16x2f.c	aep3, a2, a5; ae_mulafp24s.ll	aeq2, aep2, aep0 }
    5d51:	e30a6da32f 	{ ae_lp16x2f.iu	aep2, a3, 8; ae_mulafp24s.hh	aeq3, aep2, aep0 }
    5d56:	019b04        	ae_mulafp24s.hh	aeq3, aep1, aep3
    5d59:	019334        	ae_mulafp24s.ll	aeq2, aep1, aep3

00005d5c <analy_3band+0x98>:
    5d5c:	e26a533eef 	{ or	a3, a14, a14; ae_mulafp24s.hh	aeq1, aep2, aep3 }
    5d61:	e26b934fff 	{ or	a4, a15, a15; ae_mulafp24s.ll	aeq0, aep2, aep3 }
    5d66:	fb6b80045f 	{ movi	a5, 4; ae_roundsp16q48asym	aep6, aeq1 }
    5d6b:	fb63d579df 	{ sub	a7, a9, a13; ae_roundsp16q48asym	aep7, aeq0 }
    5d70:	f8f632fa1f 	{ ae_sp16f.l.iu	aep7, a10, 2; ae_addq56	aeq0, aeq2, aeq3 }
    5d75:	fbb6fb001f 	{ ae_sraiq56	aeq0, aeq0, 1; ae_subq56	aeq3, aeq2, aeq3 }
    5d7a:	fa67fb30df 	{ ae_sraiq56	aeq3, aeq3, 1; ae_roundsp24q48asym	aep5, aeq0 }
    5d7f:	fa7bb2ea1f 	{ ae_sp16f.l.iu	aep6, a10, 2; ae_roundsp16q48asym	aep4, aeq3 }
    5d84:	ff24b4dc1f 	{ ae_sp24f.l.iu	aep5, a12, 4; ae_zeroq56	aeq3 }
    5d89:	fd1c72cb1f 	{ ae_sp16f.l.iu	aep4, a11, 2; ae_movq56	aeq1, aeq3 }
    5d8e:	f68756        	bnez	a7, 5cfa <analy_3band+0x36>
    5d91:	0829           	s32i.n	a2, a8, 0
    5d93:	f01d           	retw.n

00005d95 <analy_3band+0xd1>:
    5d95:	000000                                        ...

00005d98 <synth_3band>:
    5d98:	004136        	entry	a1, 32
    5d9b:	fec6a2        	addi	a10, a6, -2
    5d9e:	090c           	movi.n	a9, 0
    5da0:	fec2e2        	addi	a14, a2, -2
    5da3:	058d           	mov.n	a8, a5
    5da5:	fcc4b2        	addi	a11, a4, -4
    5da8:	fec3c2        	addi	a12, a3, -2
    5dab:	e94441        	l32r	a4, 2bc (ad30 <sb_h2ir_v2>)
    5dae:	e94431        	l32r	a3, 2c0 (acb0 <sb_g10>)
    5db1:	7cc872        	addi	a7, a8, 124
    5db4:	fe248048de 	{ addi	a13, a8, 4; ae_zeroq56	aeq2 }
    5db9:	fc1470052e 	{ l32i	a2, a5, 0; ae_movq56	aeq0, aeq2 }
    5dbe:	fd1440045f 	{ movi	a5, 4; ae_movq56	aeq1, aeq2 }
    5dc3:	f3f6d0        	wur.ae_cbegin0	a13
    5dc6:	f3f770        	wur.ae_cend0	a7

00005dc9 <synth_3band+0x31>:
    5dc9:	e60c           	movi.n	a6, 14
    5dcb:	40ec14        	ae_lp16f.iu	aep6, a12, 2
    5dce:	40de14        	ae_lp16f.iu	aep5, a14, 2
    5dd1:	ded6adab1f 	{ ae_lp16x2f.iu	aep2, a11, 4; ae_subsp24s	aep4, aep5, aep6 }
    5dd6:	d9d540199e 	{ addi	a9, a9, 1; ae_addsp24s	aep3, aep5, aep6 }
    5ddb:	dd8e4f69de 	{ addi	a13, a9, -10; ae_selp24.ll	aep3, aep3, aep4 }
    5de0:	fc24e4325f 	{ ae_sp16x2f.c	aep3, a2, a5; nop }
    5de5:	fc24e4225f 	{ ae_sp16x2f.c	aep2, a2, a5; nop }
    5dea:	fc24da925f 	{ ae_lp16x2f.c	aep1, a2, a5; nop }
    5def:	440304        	ae_lp16x2f.i	aep0, a3, 0
    5df2:	e223ed240f 	{ ae_lp16x2f.i	aep2, a4, 0; ae_mulafp24s.ll	aeq1, aep0, aep1 }
    5df7:	e2221a825f 	{ ae_lp16x2f.c	aep0, a2, a5; ae_mulafp24s.hh	aeq0, aep0, aep1 }
    5dfc:	e20aad931f 	{ ae_lp16x2f.iu	aep1, a3, 4; ae_mulafp24s.lh	aeq0, aep2, aep0 }
    5e01:	f03d           	nop.n
    5e03:	f03d           	nop.n
    5e05:	138676        	loop	a6, 5e1c <synth_3band+0x84>
    5e08:	ee08da825f 	{ ae_lp16x2f.c	aep0, a2, a5; ae_mulsfp24s.hl	aeq1, aep2, aep0 }
    5e0d:	e207eda41f 	{ ae_lp16x2f.iu	aep2, a4, 4; ae_mulafp24s.ll	aeq1, aep1, aep0 }
    5e12:	e2061a825f 	{ ae_lp16x2f.c	aep0, a2, a5; ae_mulafp24s.hh	aeq0, aep1, aep0 }
    5e17:	e20aad931f 	{ ae_lp16x2f.iu	aep1, a3, 4; ae_mulafp24s.lh	aeq0, aep2, aep0 }

00005e1c <synth_3band+0x84>:
    5e1c:	ee08cc433e 	{ addi	a3, a3, -60; ae_mulsfp24s.hl	aeq1, aep2, aep0 }
    5e21:	fb63ed941f 	{ ae_lp16x2f.iu	aep1, a4, 4; ae_roundsp16q48asym	aep7, aeq0 }
    5e26:	f86b8c444e 	{ addi	a4, a4, -60; ae_roundsp16q48asym	aep0, aeq1 }
    5e2b:	fc14728a1f 	{ ae_sp16f.l.iu	aep0, a10, 2; ae_movq56	aeq0, aeq2 }
    5e30:	fd1472fa1f 	{ ae_sp16f.l.iu	aep7, a10, 2; ae_movq56	aeq1, aeq2 }
    5e35:	f90d56        	bnez	a13, 5dc9 <synth_3band+0x31>
    5e38:	0829           	s32i.n	a2, a8, 0
    5e3a:	f01d           	retw.n

00005e3c <biquad_2cascade_24bitTx>:
    5e3c:	008136        	entry	a1, 64
    5e3f:	038d           	mov.n	a8, a3
    5e41:	541304        	ae_lp24x2.i	aep1, a3, 0
    5e44:	543314        	ae_lp24x2.i	aep3, a3, 8
    5e47:	546324        	ae_lp24x2.i	aep6, a3, 16
    5e4a:	0216e6        	bgei	a6, 1, 5e50 <biquad_2cascade_24bitTx+0x14>
    5e4d:	0059c6        	j	5fb8 <biquad_2cascade_24bitTx+0x17c>
    5e50:	18c492        	addi	a9, a4, 24
    5e53:	fec532        	addi	a3, a5, -2
    5e56:	fcc222        	addi	a2, a2, -4
    5e59:	406607        	bbci	a6, 0, 5e9d <biquad_2cascade_24bitTx+0x61>
    5e5c:	545404        	ae_lp24x2.i	aep5, a4, 0
    5e5f:	50f214        	ae_lp24f.iu	aep7, a2, 4
    5e62:	540414        	ae_lp24x2.i	aep0, a4, 8
    5e65:	f122be716f 	{ ae_selp24.lh	aep1, aep7, aep1; ae_mulzaafp24s.hh.ll	aeq2, aep0, aep1 }
    5e6a:	e33430442f 	{ ae_lp24x2.i	aep4, a4, 16; ae_mulaafp24s.hh.ll	aeq2, aep5, aep1 }
    5e6f:	01c384        	ae_mulsfp24s.hh	aeq2, aep4, aep3
    5e72:	05c3c4        	ae_mulssfp24s.hh.ll	aeq2, aep4, aep3
    5e75:	542444        	ae_lp24x2.i	aep2, a4, 32
    5e78:	f877b0743f 	{ ae_lp24x2.i	aep7, a4, 24; ae_roundsp24q48asym	aep0, aeq2 }
    5e7d:	f06afe03ef 	{ ae_selp24.lh	aep3, aep0, aep3; ae_mulzaafp24s.hh.ll	aeq1, aep2, aep3 }
    5e82:	e27c70545f 	{ ae_lp24x2.i	aep5, a4, 40; ae_mulaafp24s.hh.ll	aeq1, aep7, aep3 }
    5e87:	015e84        	ae_mulsfp24s.hh	aeq1, aep5, aep6
    5e8a:	055ec4        	ae_mulssfp24s.hh.ll	aeq1, aep5, aep6
    5e8d:	f96fb1496f 	{ ae_lp24.i	aep4, a9, 24; ae_roundsp24q48asym	aep2, aeq1 }
    5e92:	044204        	ae_mulzaafp24s.hh.ll	aeq0, aep4, aep2
    5e95:	1b8f04        	ae_roundsp16q48asym	aep0, aeq0
    5e98:	dfc9b2831f 	{ ae_sp16f.l.iu	aep0, a3, 2; ae_selp24.lh	aep6, aep2, aep6 }

00005e9d <biquad_2cascade_24bitTx+0x61>:
    5e9d:	214160        	srai	a4, a6, 1
    5ea0:	114416        	beqz	a4, 5fb8 <biquad_2cascade_24bitTx+0x17c>
    5ea3:	5429d4        	ae_lp24x2.i	aep2, a9, -24
    5ea6:	5449e4        	ae_lp24x2.i	aep4, a9, -16
    5ea9:	505214        	ae_lp24f.i	aep5, a2, 4
    5eac:	f132fe596f 	{ ae_selp24.lh	aep5, aep5, aep1; ae_mulzaafp24s.hh.ll	aeq3, aep4, aep1 }
    5eb1:	e3a87019ff 	{ ae_lp24x2.i	aep1, a9, -8; ae_mulaafp24s.hh.ll	aeq3, aep2, aep5 }
    5eb6:	019b84        	ae_mulsfp24s.hh	aeq3, aep1, aep3
    5eb9:	059bc4        	ae_mulssfp24s.hh.ll	aeq3, aep1, aep3
    5ebc:	547904        	ae_lp24x2.i	aep7, a9, 0
    5ebf:	f87fb0191f 	{ ae_lp24x2.i	aep1, a9, 8; ae_roundsp24q48asym	aep0, aeq3 }
    5ec4:	f166be032f 	{ ae_selp24.lh	aep0, aep0, aep3; ae_mulzaafp24s.hh.ll	aeq2, aep1, aep3 }
    5ec9:	e31c30492f 	{ ae_lp24x2.i	aep4, a9, 16; ae_mulaafp24s.hh.ll	aeq2, aep7, aep0 }
    5ece:	01c684        	ae_mulsfp24s.hh	aeq2, aep4, aep6
    5ed1:	05c6c4        	ae_mulssfp24s.hh.ll	aeq2, aep4, aep6
    5ed4:	f03d           	nop.n
    5ed6:	fb77f1396f 	{ ae_lp24.i	aep3, a9, 24; ae_roundsp24q48asym	aep7, aeq2 }
    5edb:	043f04        	ae_mulzaafp24s.hh.ll	aeq1, aep3, aep7
    5ede:	f96bae922f 	{ ae_lp24f.iu	aep1, a2, 8; ae_roundsp16q48asym	aep2, aeq1 }
    5ee3:	422314        	ae_sp16f.l.i	aep2, a3, 2
    5ee6:	dca5f049ef 	{ ae_lp24x2.i	aep4, a9, -16; ae_selp24.lh	aep1, aep1, aep5 }
    5eeb:	f0b2b039df 	{ ae_lp24x2.i	aep3, a9, -24; ae_mulzaafp24s.hh.ll	aeq0, aep4, aep5 }
    5ef0:	e22c3029ff 	{ ae_lp24x2.i	aep2, a9, -8; ae_mulaafp24s.hh.ll	aeq0, aep3, aep1 }
    5ef5:	012084        	ae_mulsfp24s.hh	aeq0, aep2, aep0
    5ef8:	0520c4        	ae_mulssfp24s.hh.ll	aeq0, aep2, aep0
    5efb:	dfddf0490f 	{ ae_lp24x2.i	aep4, a9, 0; ae_selp24.lh	aep7, aep7, aep6 }
    5f00:	f967f0591f 	{ ae_lp24x2.i	aep5, a9, 8; ae_roundsp24q48asym	aep3, aeq0 }
    5f05:	f116fe30ef 	{ ae_selp24.lh	aep3, aep3, aep0; ae_mulzaafp24s.hh.ll	aeq3, aep5, aep0 }
    5f0a:	e37070292f 	{ ae_lp24x2.i	aep2, a9, 16; ae_mulaafp24s.hh.ll	aeq3, aep4, aep3 }
    5f0f:	01af84        	ae_mulsfp24s.hh	aeq3, aep2, aep7
    5f12:	05afc4        	ae_mulssfp24s.hh.ll	aeq3, aep2, aep7
    5f15:	540b           	addi.n	a5, a4, -1
    5f17:	fb7fb1096f 	{ ae_lp24.i	aep0, a9, 24; ae_roundsp24q48asym	aep6, aeq3 }
    5f1c:	f0c2be6faf 	{ ae_selp24.lh	aep6, aep6, aep7; ae_mulzaafp24s.hh.ll	aeq0, aep0, aep6 }
    5f21:	7ea576        	loopgtz	a5, 5fa3 <biquad_2cascade_24bitTx+0x167>
    5f24:	50d224        	ae_lp24f.iu	aep5, a2, 8
    5f27:	f963ae02ff 	{ ae_lp24f.i	aep0, a2, -4; ae_roundsp16q48asym	aep2, aeq0 }
    5f2c:	42a324        	ae_sp16f.l.iu	aep2, a3, 4
    5f2f:	dd21b009ef 	{ ae_lp24x2.i	aep0, a9, -16; ae_selp24.lh	aep2, aep0, aep1 }
    5f34:	f022b009df 	{ ae_lp24x2.i	aep0, a9, -24; ae_mulzaafp24s.hh.ll	aeq0, aep0, aep1 }
    5f39:	e2403009ff 	{ ae_lp24x2.i	aep0, a9, -8; ae_mulaafp24s.hh.ll	aeq0, aep0, aep2 }
    5f3e:	ec60b0491f 	{ ae_lp24x2.i	aep4, a9, 8; ae_mulsfp24s.hh	aeq0, aep0, aep3 }
    5f43:	f06230090f 	{ ae_lp24x2.i	aep0, a9, 0; ae_mulssfp24s.hh.ll	aeq0, aep0, aep3 }
    5f48:	f072f0492f 	{ ae_lp24x2.i	aep4, a9, 16; ae_mulzaafp24s.hh.ll	aeq1, aep4, aep3 }
    5f4d:	f867f1796f 	{ ae_lp24.i	aep7, a9, 24; ae_roundsp24q48asym	aep1, aeq0 }
    5f52:	dc55fe1b6f 	{ ae_selp24.lh	aep5, aep1, aep3; ae_selp24.lh	aep1, aep5, aep2 }
    5f57:	050d04        	ae_mulaafp24s.hh.ll	aeq1, aep0, aep5
    5f5a:	014e84        	ae_mulsfp24s.hh	aeq1, aep4, aep6
    5f5d:	054ec4        	ae_mulssfp24s.hh.ll	aeq1, aep4, aep6
    5f60:	1b9d04        	ae_roundsp24q48asym	aep0, aeq1
    5f63:	f01ebe062f 	{ ae_selp24.lh	aep0, aep0, aep6; ae_mulzaafp24s.hh.ll	aeq0, aep7, aep0 }
    5f68:	1b8f44        	ae_roundsp16q48asym	aep4, aeq0
    5f6b:	424314        	ae_sp16f.l.i	aep4, a3, 2
    5f6e:	5449e4        	ae_lp24x2.i	aep4, a9, -16
    5f71:	f052b029df 	{ ae_lp24x2.i	aep2, a9, -24; ae_mulzaafp24s.hh.ll	aeq0, aep4, aep2 }
    5f76:	e2283029ff 	{ ae_lp24x2.i	aep2, a9, -8; ae_mulaafp24s.hh.ll	aeq0, aep2, aep1 }
    5f7b:	eca8b0491f 	{ ae_lp24x2.i	aep4, a9, 8; ae_mulsfp24s.hh	aeq0, aep2, aep5 }
    5f80:	f0aa30290f 	{ ae_lp24x2.i	aep2, a9, 0; ae_mulssfp24s.hh.ll	aeq0, aep2, aep5 }
    5f85:	f0b2f0492f 	{ ae_lp24x2.i	aep4, a9, 16; ae_mulzaafp24s.hh.ll	aeq1, aep4, aep5 }
    5f8a:	f967f1796f 	{ ae_lp24.i	aep7, a9, 24; ae_roundsp24q48asym	aep3, aeq0 }
    5f8f:	1ab5b4        	ae_selp24.lh	aep3, aep3, aep5
    5f92:	052b04        	ae_mulaafp24s.hh.ll	aeq1, aep2, aep3
    5f95:	014884        	ae_mulsfp24s.hh	aeq1, aep4, aep0
    5f98:	0548c4        	ae_mulssfp24s.hh.ll	aeq1, aep4, aep0
    5f9b:	1b9d54        	ae_roundsp24q48asym	aep5, aeq1
    5f9e:	f0bebe58af 	{ ae_selp24.lh	aep6, aep5, aep0; ae_mulzaafp24s.hh.ll	aeq0, aep7, aep5 }

00005fa3 <biquad_2cascade_24bitTx+0x167>:
    5fa3:	fb63d3933f 	{ or	a9, a3, a3; ae_roundsp16q48asym	aep7, aeq0 }
    5fa8:	42f924        	ae_sp16f.l.iu	aep7, a9, 4
    5fab:	561804        	ae_sp24x2s.i	aep1, a8, 0
    5fae:	563814        	ae_sp24x2s.i	aep3, a8, 8
    5fb1:	566824        	ae_sp24x2s.i	aep6, a8, 16
    5fb4:	f01d           	retw.n

00005fb6 <biquad_2cascade_24bitTx+0x17a>:
	...

00005fb8 <biquad_2cascade_24bitTx+0x17c>:
    5fb8:	561804        	ae_sp24x2s.i	aep1, a8, 0
    5fbb:	563814        	ae_sp24x2s.i	aep3, a8, 8
    5fbe:	566824        	ae_sp24x2s.i	aep6, a8, 16
    5fc1:	f01d           	retw.n

00005fc3 <biquad_2cascade_24bitTx+0x187>:
	...

00005fc4 <conv_24_to_16>:
    5fc4:	004136        	entry	a1, 32
    5fc7:	f8c252        	addi	a5, a2, -8
    5fca:	fcc322        	addi	a2, a3, -4
    5fcd:	5c9514        	ae_lp24x2f.iu	aep1, a5, 8
    5fd0:	f8e6aff51f 	{ ae_lp24x2f.iu	aep7, a5, 8; ae_roundsp16asym	aep0, aep1 }
    5fd5:	468214        	ae_sp16x2f.iu	aep0, a2, 4
    5fd8:	5cd514        	ae_lp24x2f.iu	aep5, a5, 8
    5fdb:	5cb514        	ae_lp24x2f.iu	aep3, a5, 8
    5fde:	5c9514        	ae_lp24x2f.iu	aep1, a5, 8
    5fe1:	0971e4        	ae_roundsp16asym	aep6, aep7
    5fe4:	faf6b3e21f 	{ ae_sp16x2f.iu	aep6, a2, 4; ae_roundsp16asym	aep4, aep5 }
    5fe9:	f9eeb3c21f 	{ ae_sp16x2f.iu	aep4, a2, 4; ae_roundsp16asym	aep2, aep3 }
    5fee:	f8e6b3a21f 	{ ae_sp16x2f.iu	aep2, a2, 4; ae_roundsp16asym	aep0, aep1 }
    5ff3:	468214        	ae_sp16x2f.iu	aep0, a2, 4
    5ff6:	f01d           	retw.n

00005ff8 <gain_after_ec>:
    5ff8:	008136        	entry	a1, 64
    5ffb:	fec492        	addi	a9, a4, -2
    5ffe:	440404        	ae_lp16x2f.i	aep0, a4, 0
    6001:	441504        	ae_lp16x2f.i	aep1, a5, 0
    6004:	fec332        	addi	a3, a3, -2
    6007:	e80061        	l32r	a6, 8 (d784 <p_ecnr_mem>)
    600a:	07bd           	mov.n	a11, a7
    600c:	fec582        	addi	a8, a5, -2
    600f:	0668           	l32i.n	a6, a6, 0
    6011:	3189           	s32i.n	a8, a1, 12
    6013:	fec272        	addi	a7, a2, -2
    6016:	02d662        	addmi	a6, a6, 0x200
    6019:	6ec662        	addi	a6, a6, 110
    601c:	402604        	ae_lp16f.i	aep2, a6, 0
    601f:	562104        	ae_sp24x2s.i	aep2, a1, 0
    6022:	abac           	beqz.n	a11, 6050 <gain_after_ec+0x58>
    6024:	560124        	ae_sp24x2s.i	aep0, a1, 16
    6027:	561134        	ae_sp24x2s.i	aep1, a1, 24
    602a:	e88c81        	l32r	a8, 25c (7d60 <airoha_divide>)
    602d:	2199           	s32i.n	a9, a1, 8
    602f:	e806a1        	l32r	a10, 48 (8000 <xtensa_fft8_32b+0xf0>)
    6032:	0008e0        	callx8	a8
    6035:	541134        	ae_lp24x2.i	aep1, a1, 24
    6038:	543104        	ae_lp24x2.i	aep3, a1, 0
    603b:	360b34        	ae_cvtq48a32s	aeq0, a11
    603e:	d4ee30012f 	{ ae_lp24x2.i	aep0, a1, 16; ae_mulfq32sp16s.l	aeq0, aeq0, aep3 }
    6043:	2198           	l32i.n	a9, a1, 8
    6045:	340a94        	ae_sllaq56	aeq0, aeq0, a10
    6048:	f967f0318e 	{ l32i	a8, a1, 12; ae_roundsp24q48asym	aep3, aeq0 }
    604d:	563104        	ae_sp24x2s.i	aep3, a1, 0

00006050 <gain_after_ec+0x58>:
    6050:	09bd           	mov.n	a11, a9
    6052:	544104        	ae_lp24x2.i	aep4, a1, 0
    6055:	03fd           	mov.n	a15, a3
    6057:	07ed           	mov.n	a14, a7
    6059:	a20c           	movi.n	a2, 10
    605b:	f966d3d88f 	{ or	a13, a8, a8; ae_movp48	aep3, aep1 }
    6060:	478276        	loop	a2, 60ab <gain_after_ec+0xb3>
    6063:	e810ac931f 	{ ae_lp16f.iu	aep1, a3, 2; ae_mulfp24s.hh	aeq0, aep4, aep0 }
    6068:	ea11ed841f 	{ ae_lp16x2f.iu	aep0, a4, 4; ae_mulfp24s.ll	aeq1, aep4, aep0 }
    606d:	e970aca71f 	{ ae_lp16f.iu	aep2, a7, 2; ae_mulfp24s.hh	aeq2, aep4, aep3 }
    6072:	eb51fa914f 	{ ae_slliq56	aeq1, aeq1, 4; ae_mulfp24s.ll	aeq3, aep4, aep2 }
    6077:	f9ebba810f 	{ ae_slliq56	aeq0, aeq0, 4; ae_roundsp16q48sym	aep2, aeq1 }
    607c:	f9e3b2ab2f 	{ ae_sp16f.l.iu	aep2, a11, 4; ae_roundsp16q48sym	aep2, aeq0 }
    6081:	ea71b22bff 	{ ae_sp16f.l.i	aep2, a11, -2; ae_mulfp24s.ll	aeq0, aep4, aep3 }
    6086:	eb31baa14f 	{ ae_slliq56	aeq1, aeq2, 4; ae_mulfp24s.ll	aeq2, aep4, aep1 }
    608b:	f8ebedb51f 	{ ae_lp16x2f.iu	aep3, a5, 4; ae_roundsp16q48sym	aep1, aeq1 }
    6090:	421d14        	ae_sp16f.l.i	aep1, a13, 2
    6093:	350114        	ae_slliq56	aeq0, aeq0, 4
    6096:	357114        	ae_slliq56	aeq1, aeq3, 4
    6099:	f8e3faa10f 	{ ae_slliq56	aeq0, aeq2, 4; ae_roundsp16q48sym	aep1, aeq0 }
    609e:	f8ebf29d2f 	{ ae_sp16f.l.iu	aep1, a13, 4; ae_roundsp16q48sym	aep1, aeq1 }
    60a3:	f8e3f29e1f 	{ ae_sp16f.l.iu	aep1, a14, 2; ae_roundsp16q48sym	aep1, aeq0 }
    60a8:	429f14        	ae_sp16f.l.iu	aep1, a15, 2

000060ab <gain_after_ec+0xb3>:
    60ab:	f01d           	retw.n

000060ad <gain_after_ec+0xb5>:
    60ad:	000000                                        ...

000060b0 <adjust_phase>:
    60b0:	004136        	entry	a1, 32
    60b3:	301334        	ae_cvtp24a16x2.ll	aep1, a3, a3
    60b6:	360234        	ae_cvtq48a32s	aeq0, a2
    60b9:	a11104        	ae_mulzaafq32sp16s.ll	aeq0, aeq0, aep1, aeq0, aep1
    60bc:	1b8f04        	ae_roundsp16q48asym	aep0, aeq0
    60bf:	0002d4        	ae_cvta32p24.l	a2, aep0
    60c2:	f01d           	retw.n

000060c4 <adjust_bib_state>:
    60c4:	004136        	entry	a1, 32
    60c7:	fcc232        	addi	a3, a2, -4
    60ca:	600204        	ae_lq32f.i	aeq0, a2, 0
    60cd:	840c           	movi.n	a4, 8
    60cf:	0a8476        	loop	a4, 60dd <adjust_bib_state+0x19>
    60d2:	350074        	ae_sraiq56	aeq0, aeq0, 1
    60d5:	f867bd121f 	{ ae_lq32f.iu	aeq0, a2, 4; ae_roundsp24q48asym	aep0, aeq0 }
    60da:	528314        	ae_sp24f.l.iu	aep0, a3, 4

000060dd <adjust_bib_state+0x19>:
    60dd:	f01d           	retw.n

000060df <adjust_bib_state+0x1b>:
	...

000060e0 <aec_post_prcs>:
    60e0:	004136        	entry	a1, 32
    60e3:	159282        	l16si	a8, a2, 42
    60e6:	02d272        	addmi	a7, a2, 0x200
    60e9:	28c292        	addi	a9, a2, 40
    60ec:	e87651        	l32r	a5, 2c4 (7fffff <_end+0x7f2873>)
    60ef:	39a554        	ae_movpa24x2	aep2, a5, a5
    60f2:	406904        	ae_lp16f.i	aep6, a9, 0
    60f5:	52c762        	addi	a6, a7, 82
    60f8:	301884        	ae_cvtp24a16x2.ll	aep1, a8, a8
    60fb:	54c772        	addi	a7, a7, 84
    60fe:	149282        	l16si	a8, a2, 40
    6101:	155282        	s16i	a8, a2, 42
    6104:	400704        	ae_lp16f.i	aep0, a7, 0
    6107:	de3aec760f 	{ ae_lp16f.i	aep7, a6, 0; ae_subsp24s	aep5, aep6, aep1 }
    610c:	ea1d8fe42e 	{ addi	a2, a4, -2; ae_mulfp24s.ll	aeq0, aep7, aep0 }
    6111:	ce3440006f 	{ movi	a6, 0; ae_sraip24	aep5, aep5, 4 }
    6116:	fa67ac030f 	{ ae_lp16f.i	aep0, a3, 0; ae_roundsp24q48asym	aep4, aeq0 }

0000611b <aec_post_prcs+0x3b>:
    611b:	079514        	ae_addsp24s	aep1, aep1, aep5
    611e:	019874        	ae_mulfp24s.ll	aeq3, aep1, aep0
    6121:	07a1f4        	ae_subsp24s	aep7, aep2, aep1
    6124:	eb9d80166e 	{ addi	a6, a6, 1; ae_mulfp24s.ll	aeq2, aep7, aep4 }
    6129:	e40c           	movi.n	a4, 14
    612b:	fd3c7aa0af 	{ ae_slliq56	aeq2, aeq2, 2; ae_roundsq32asym	aeq1, aeq3 }
    6130:	fe346ce21f 	{ ae_lp16f.iu	aep6, a2, 2; ae_roundsq32asym	aeq2, aeq2 }
    6135:	f69aec831f 	{ ae_lp16f.iu	aep0, a3, 2; ae_mulafq32sp16s.l	aeq1, aeq2, aep6 }
    613a:	128476        	loop	a4, 6150 <aec_post_prcs+0x70>
    613d:	011074        	ae_mulfp24s.ll	aeq0, aep1, aep0
    6140:	1b9f04        	ae_roundsp16q48asym	aep0, aeq1
    6143:	fd247203ff 	{ ae_sp16f.l.i	aep0, a3, -2; ae_roundsq32asym	aeq1, aeq0 }
    6148:	408214        	ae_lp16f.iu	aep0, a2, 2
    614b:	f682ec831f 	{ ae_lp16f.iu	aep0, a3, 2; ae_mulafq32sp16s.l	aeq1, aeq2, aep0 }

00006150 <aec_post_prcs+0x70>:
    6150:	1b9f34        	ae_roundsp16q48asym	aep3, aeq1
    6153:	4233f4        	ae_sp16f.l.i	aep3, a3, -2
    6156:	c1b666        	bnei	a6, 16, 611b <aec_post_prcs+0x3b>
    6159:	f01d           	retw.n

0000615b <aec_post_prcs+0x7b>:
	...

0000615c <AVC_prcs>:
    615c:	004136        	entry	a1, 32
    615f:	440304        	ae_lp16x2f.i	aep0, a3, 0
    6162:	fc2480789f 	{ movi	a9, 120; ae_zeroq56	aeq0 }
    6167:	048976        	loop	a9, 616f <AVC_prcs+0x13>
    616a:	e2002d831f 	{ ae_lp16x2f.iu	aep0, a3, 4; ae_mulaafp24s.hh.ll	aeq0, aep0, aep0 }

0000616f <AVC_prcs+0x13>:
    616f:	3581f4        	ae_sraiq56	aeq2, aeq0, 7
    6172:	e85591        	l32r	a9, 2c8 (11111 <_end+0x3985>)
    6175:	fd3462099f 	{ ae_movpa24x2	aep0, a9, a9; ae_roundsq32asym	aeq1, aeq2 }
    617a:	080d64        	ae_mulfq32sp24s.l	aeq1, aeq1, aep0
    617d:	e83d81        	l32r	a8, 274 (840 <HIFI_sqrt>)
    6180:	3551d4        	ae_slliq56	aeq1, aeq1, 7
    6183:	fc2c4000af 	{ movi	a10, 0; ae_roundsq32asym	aeq0, aeq1 }
    6188:	368b04        	ae_trunca32q48	a11, aeq0
    618b:	0008e0        	callx8	a8
    618e:	e83381        	l32r	a8, 25c (7d60 <airoha_divide>)
    6191:	604224        	ae_lq32f.i	aeq1, a2, 8
    6194:	368b34        	ae_cvtq48a32s	aeq2, a11
    6197:	441204        	ae_lp16x2f.i	aep1, a2, 0
    619a:	0292b2        	l16si	a11, a2, 4
    619d:	fc24feaa0f 	{ ae_slaasq56s	aeq0, aeq2, a10; nop }
    61a2:	c11114        	ae_mulzaafq32sp16s.lh	aeq0, aeq0, aep1, aeq1, aep1
    61a5:	11bb00        	slli	a11, a11, 16
    61a8:	06c934        	ae_roundsq32asym	aeq3, aeq0
    61ab:	36ba04        	ae_trunca32q48	a10, aeq3
    61ae:	22a9           	s32i.n	a10, a2, 8
    61b0:	0008e0        	callx8	a8
    61b3:	e83c91        	l32r	a9, 2a4 (2000 <fn_calc_sup_gain+0x2ac>)
    61b6:	fecaa2        	addi	a10, a10, -2
    61b9:	360b34        	ae_cvtq48a32s	aeq0, a11
    61bc:	fc24fe8acf 	{ ae_slaasq56s	aeq3, aeq0, a10; nop }
    61c1:	f97ba0328e 	{ l16si	a8, a2, 6; ae_roundsp16q48asym	aep2, aeq3 }
    61c6:	362224        	ae_trunca16p24s.l	a2, aep2
    61c9:	532290        	max	a2, a2, a9
    61cc:	432280        	min	a2, a2, a8
    61cf:	f01d           	retw.n

000061d1 <AVC_prcs+0x75>:
    61d1:	000000                                        ...

000061d4 <gain_ref>:
    61d4:	004136        	entry	a1, 32
    61d7:	fcc222        	addi	a2, a2, -4
    61da:	448214        	ae_lp16x2f.iu	aep0, a2, 4
    61dd:	3b14a6        	blti	a4, 1, 621c <gain_ref+0x48>
    61e0:	302334        	ae_cvtp24a16x2.ll	aep2, a3, a3
    61e3:	ea41cff43e 	{ addi	a3, a4, -1; ae_mulfp24s.ll	aeq1, aep0, aep2 }
    61e8:	ea40ad821f 	{ ae_lp16x2f.iu	aep0, a2, 4; ae_mulfp24s.hl	aeq0, aep0, aep2 }
    61ed:	355094        	ae_slliq56	aeq1, aeq1, 2
    61f0:	f86bfa802f 	{ ae_slliq56	aeq0, aeq0, 2; ae_roundsp16q48asym	aep1, aeq1 }
    61f5:	f863f212ff 	{ ae_sp16f.l.i	aep1, a2, -2; ae_roundsp16q48asym	aep1, aeq0 }
    61fa:	0020f0        	nop
    61fd:	16a376        	loopgtz	a3, 6217 <gain_ref+0x43>
    6200:	ea41b212ef 	{ ae_sp16f.l.i	aep1, a2, -4; ae_mulfp24s.ll	aeq0, aep0, aep2 }
    6205:	ea40ed821f 	{ ae_lp16x2f.iu	aep0, a2, 4; ae_mulfp24s.hl	aeq1, aep0, aep2 }
    620a:	350094        	ae_slliq56	aeq0, aeq0, 2
    620d:	f863fa902f 	{ ae_slliq56	aeq0, aeq1, 2; ae_roundsp16q48asym	aep1, aeq0 }
    6212:	f863f212ff 	{ ae_sp16f.l.i	aep1, a2, -2; ae_roundsp16q48asym	aep1, aeq0 }

00006217 <gain_ref+0x43>:
    6217:	4212e4        	ae_sp16f.l.i	aep1, a2, -4
    621a:	f01d           	retw.n

0000621c <gain_ref+0x48>:
    621c:	f01d           	retw.n

0000621e <gain_ref+0x4a>:
	...

00006220 <Voice_WB_TX_Inear_Prcs>:
    6220:	016136        	entry	a1, 176
    6223:	1c0c           	movi.n	a12, 1
    6225:	1d6152        	s32i	a5, a1, 116
    6228:	e81f91        	l32r	a9, 2a4 (2000 <fn_calc_sup_gain+0x2ac>)
    622b:	075d           	mov.n	a5, a7
    622d:	e77671        	l32r	a7, 8 (d784 <p_ecnr_mem>)
    6230:	1c6162        	s32i	a6, a1, 112
    6233:	04bd           	mov.n	a11, a4
    6235:	0768           	l32i.n	a6, a7, 0
    6237:	e825e1        	l32r	a14, 2cc (a780 <fftorder_512_12b+0x340>)
    623a:	1e6162        	s32i	a6, a1, 120
    623d:	15d682        	addmi	a8, a6, 0x1500
    6240:	d6ea           	add.n	a13, a6, a14
    6242:	01d6a2        	addmi	a10, a6, 0x100
    6245:	c09af2        	l16si	a15, a10, 0x180
    6248:	402d42        	l32i	a4, a13, 0x100
    624b:	779882        	l16si	a8, a8, 238
    624e:	0dd662        	addmi	a6, a6, 0xd00
    6251:	28c662        	addi	a6, a6, 40
    6254:	148e80        	extui	a8, a8, 14, 2
    6257:	04d442        	addmi	a4, a4, 0x400
    625a:	02ef07        	bbsi	a15, 0, 6260 <Voice_WB_TX_Inear_Prcs+0x40>
    625d:	002286        	j	62eb <Voice_WB_TX_Inear_Prcs+0xcb>
    6260:	0f4856        	bnez	a8, 6358 <Voice_WB_TX_Inear_Prcs+0x138>
    6263:	1e2182        	l32i	a8, a1, 120
    6266:	226152        	s32i	a5, a1, 136
    6269:	aa2892        	l32i	a9, a8, 0x2a8
    626c:	ab28e2        	l32i	a14, a8, 0x2ac
    626f:	2061e2        	s32i	a14, a1, 128
    6272:	216192        	s32i	a9, a1, 132
    6275:	02d882        	addmi	a8, a8, 0x200
    6278:	60c892        	addi	a9, a8, 96
    627b:	3198e2        	l16si	a14, a8, 98
    627e:	09c9e4        	ae_s16ip	a14, a9, 2
    6281:	39fd           	ae_l16si.n	a15, a9, 2
    6283:	09c9f4        	ae_s16ip	a15, a9, 2
    6286:	39ed           	ae_l16si.n	a14, a9, 2
    6288:	09c9e4        	ae_s16ip	a14, a9, 2
    628b:	39fd           	ae_l16si.n	a15, a9, 2
    628d:	09c9f4        	ae_s16ip	a15, a9, 2
    6290:	39ed           	ae_l16si.n	a14, a9, 2
    6292:	09c9e4        	ae_s16ip	a14, a9, 2
    6295:	39fd           	ae_l16si.n	a15, a9, 2
    6297:	09c9f4        	ae_s16ip	a15, a9, 2
    629a:	bf9ae2        	l16si	a14, a10, 0x17e
    629d:	11ee90        	slli	a14, a14, 7
    62a0:	69ed           	ae_s16i.n	a14, a9, 0
    62a2:	1e21e2        	l32i	a14, a1, 120
    62a5:	7a1d82        	l16ui	a8, a13, 244
    62a8:	ffa3f2        	movi	a15, 0x3ff
    62ab:	be9a52        	l16si	a5, a10, 0x17c
    62ae:	9088e0        	addx2	a8, a8, a14
    62b1:	02d882        	addmi	a8, a8, 0x200
    62b4:	309882        	l16si	a8, a8, 96
    62b7:	0cde92        	addmi	a9, a14, 0xc00
    62ba:	94c992        	addi	a9, a9, -108
    62bd:	022f87        	blt	a15, a8, 62c3 <Voice_WB_TX_Inear_Prcs+0xa3>
    62c0:	002706        	j	6360 <Voice_WB_TX_Inear_Prcs+0x140>
    62c3:	0f6c           	movi.n	a15, -32
    62c5:	0baf57        	bge	a15, a5, 62d4 <Voice_WB_TX_Inear_Prcs+0xb4>
    62c8:	f87c           	movi.n	a8, -1
    62ca:	550b           	addi.n	a5, a5, -1
    62cc:	435580        	min	a5, a5, a8
    62cf:	855d           	ae_sext16	a5, a5
    62d1:	be5a52        	s16i	a5, a10, 0x17c

000062d4 <Voice_WB_TX_Inear_Prcs+0xb4>:
    62d4:	e299e2        	l16si	a14, a9, 0x1c4
    62d7:	ffa1c2        	movi	a12, 0x1ff
    62da:	02ace7        	bge	a12, a14, 62e0 <Voice_WB_TX_Inear_Prcs+0xc0>
    62dd:	002306        	j	636d <Voice_WB_TX_Inear_Prcs+0x14d>
    62e0:	be9a52        	l16si	a5, a10, 0x17c
    62e3:	fe1b           	addi.n	a15, a14, 1
    62e5:	e259f2        	s16i	a15, a9, 0x1c4
    62e8:	002046        	j	636d <Voice_WB_TX_Inear_Prcs+0x14d>

000062eb <Voice_WB_TX_Inear_Prcs+0xcb>:
    62eb:	e7eda1        	l32r	a10, 2a0 (d788 <avc_vol>)
    62ee:	6a9d           	ae_s16i.n	a9, a10, 0
    62f0:	585816        	beqz	a8, 6879 <Voice_WB_TX_Inear_Prcs+0x659>

000062f3 <Voice_WB_TX_Inear_Prcs+0xd3>:
    62f3:	e7ebc1        	l32r	a12, 2a0 (d788 <avc_vol>)
    62f6:	e80b           	addi.n	a14, a8, -1
    62f8:	fec8b2        	addi	a11, a8, -2
    62fb:	6c9d           	ae_s16i.n	a9, a12, 0
    62fd:	1b8c           	beqz.n	a11, 6302 <Voice_WB_TX_Inear_Prcs+0xe2>
    62ff:	8323e0        	moveqz	a2, a3, a14

00006302 <Voice_WB_TX_Inear_Prcs+0xe2>:
    6302:	1d21a2        	l32i	a10, a1, 116
    6305:	e7e6f1        	l32r	a15, 2a0 (d788 <avc_vol>)
    6308:	e91c           	movi.n	a9, 30
    630a:	308976        	loop	a9, 633e <Voice_WB_TX_Inear_Prcs+0x11e>
    630d:	229d           	ae_l16si.n	a9, a2, 0
    630f:	09ca94        	ae_s16ip	a9, a10, 2
    6312:	329d           	ae_l16si.n	a9, a2, 2
    6314:	09ca94        	ae_s16ip	a9, a10, 2
    6317:	029292        	l16si	a9, a2, 4
    631a:	09ca94        	ae_s16ip	a9, a10, 2
    631d:	039292        	l16si	a9, a2, 6
    6320:	09ca94        	ae_s16ip	a9, a10, 2
    6323:	049292        	l16si	a9, a2, 8
    6326:	09ca94        	ae_s16ip	a9, a10, 2
    6329:	059292        	l16si	a9, a2, 10
    632c:	09ca94        	ae_s16ip	a9, a10, 2
    632f:	069292        	l16si	a9, a2, 12
    6332:	09ca94        	ae_s16ip	a9, a10, 2
    6335:	079292        	l16si	a9, a2, 14
    6338:	09ca94        	ae_s16ip	a9, a10, 2
    633b:	10c222        	addi	a2, a2, 16

0000633e <Voice_WB_TX_Inear_Prcs+0x11e>:
    633e:	1c2182        	l32i	a8, a1, 112
    6341:	1e2192        	l32i	a9, a1, 120
    6344:	7c9da2        	l16si	a10, a13, 248
    6347:	78ad           	ae_s16i.n	a10, a8, 2
    6349:	0dd992        	addmi	a9, a9, 0xd00
    634c:	149992        	l16si	a9, a9, 40
    634f:	689d           	ae_s16i.n	a9, a8, 0
    6351:	2ffd           	ae_l16si.n	a15, a15, 0
    6353:	0258f2        	s16i	a15, a8, 4
    6356:	f01d           	retw.n

00006358 <Voice_WB_TX_Inear_Prcs+0x138>:
    6358:	e7d2b1        	l32r	a11, 2a0 (d788 <avc_vol>)
    635b:	6b9d           	ae_s16i.n	a9, a11, 0
    635d:	ffe486        	j	62f3 <Voice_WB_TX_Inear_Prcs+0xd3>

00006360 <Voice_WB_TX_Inear_Prcs+0x140>:
    6360:	09c5e6        	bgei	a5, 32, 636d <Voice_WB_TX_Inear_Prcs+0x14d>
    6363:	551b           	addi.n	a5, a5, 1
    6365:	5355c0        	max	a5, a5, a12
    6368:	855d           	ae_sext16	a5, a5
    636a:	be5a52        	s16i	a5, a10, 0x17c
    636d:	7b1dd2        	l16ui	a13, a13, 246
    6370:	04ad           	mov.n	a10, a4
    6372:	e7d781        	l32r	a8, 2d0 (59bc <mic240_delay>)
    6375:	1e21c2        	l32i	a12, a1, 120
    6378:	00a0e2        	movi	a14, 0
    637b:	7f69e2        	s32i	a14, a9, 0x1fc
    637e:	8f69e2        	s32i	a14, a9, 0x23c
    6381:	9f69e2        	s32i	a14, a9, 0x27c
    6384:	af69e2        	s32i	a14, a9, 0x2bc
    6387:	8069e2        	s32i	a14, a9, 0x200
    638a:	9069e2        	s32i	a14, a9, 0x240
    638d:	a069e2        	s32i	a14, a9, 0x280
    6390:	b069e2        	s32i	a14, a9, 0x2c0
    6393:	bf69e2        	s32i	a14, a9, 0x2fc
    6396:	cf69e2        	s32i	a14, a9, 0x33c
    6399:	df69e2        	s32i	a14, a9, 0x37c
    639c:	ef69e2        	s32i	a14, a9, 0x3bc
    639f:	c069e2        	s32i	a14, a9, 0x300
    63a2:	d069e2        	s32i	a14, a9, 0x340
    63a5:	e069e2        	s32i	a14, a9, 0x380
    63a8:	f069e2        	s32i	a14, a9, 0x3c0
    63ab:	01dcc2        	addmi	a12, a12, 0x100
    63ae:	80ccc2        	addi	a12, a12, -128
    63b1:	0008e0        	callx8	a8
    63b4:	10c1a2        	addi	a10, a1, 16
    63b7:	e74481        	l32r	a8, c8 (8808 <xt_memset>)
    63ba:	0b0c           	movi.n	a11, 0
    63bc:	ac0c           	movi.n	a12, 10
    63be:	0008e0        	callx8	a8
    63c1:	e7c2e1        	l32r	a14, 2cc (a780 <fftorder_512_12b+0x340>)
    63c4:	07d8           	l32i.n	a13, a7, 0
    63c6:	039d           	mov.n	a9, a3
    63c8:	f0a082        	movi	a8, 240
    63cb:	ddea           	add.n	a13, a13, a14
    63cd:	108876        	loop	a8, 63e1 <Voice_WB_TX_Inear_Prcs+0x1c1>
    63d0:	849d82        	l16si	a8, a13, 0x108
    63d3:	29ad           	ae_l16si.n	a10, a9, 0
    63d5:	d18a80        	mul16s	a8, a10, a8
    63d8:	40d882        	addmi	a8, a8, 0x4000
    63db:	218f80        	srai	a8, a8, 15
    63de:	09c984        	ae_s16ip	a8, a9, 2

000063e1 <Voice_WB_TX_Inear_Prcs+0x1c1>:
    63e1:	03ad           	mov.n	a10, a3
    63e3:	78a0c2        	movi	a12, 120
    63e6:	e7bb81        	l32r	a8, 2d4 (689c <conv_16_to_24_x2>)
    63e9:	3f2db2        	l32i	a11, a13, 252
    63ec:	f1b9           	s32i.n	a11, a1, 60
    63ee:	0008e0        	callx8	a8
    63f1:	f1a8           	l32i.n	a10, a1, 60
    63f3:	03dd           	mov.n	a13, a3
    63f5:	07b8           	l32i.n	a11, a7, 0
    63f7:	f0a0e2        	movi	a14, 240
    63fa:	e7b781        	l32r	a8, 2d8 (5e3c <biquad_2cascade_24bitTx>)
    63fd:	40cbc2        	addi	a12, a11, 64
    6400:	0ddbb2        	addmi	a11, a11, 0xd00
    6403:	e8cbb2        	addi	a11, a11, -24
    6406:	0008e0        	callx8	a8
    6409:	02d6d2        	addmi	a13, a6, 0x200
    640c:	1cc182        	addi	a8, a1, 28
    640f:	18c1b2        	addi	a11, a1, 24
    6412:	20c1f2        	addi	a15, a1, 32
    6415:	14c192        	addi	a9, a1, 20
    6418:	50c6a2        	addi	a10, a6, 80
    641b:	1161a2        	s32i	a10, a1, 68
    641e:	156192        	s32i	a9, a1, 84
    6421:	1b61f2        	s32i	a15, a1, 108
    6424:	1061b2        	s32i	a11, a1, 64
    6427:	1a6182        	s32i	a8, a1, 104
    642a:	0dcd           	mov.n	a12, a13
    642c:	01d682        	addmi	a8, a6, 0x100
    642f:	90ccc2        	addi	a12, a12, -112
    6432:	6b0c           	movi.n	a11, 6
    6434:	1f61b2        	s32i	a11, a1, 124
    6437:	1961c2        	s32i	a12, a1, 100
    643a:	08fd           	mov.n	a15, a8
    643c:	08ed           	mov.n	a14, a8
    643e:	d0c892        	addi	a9, a8, -48
    6441:	d0cda2        	addi	a10, a13, -48
    6444:	1761a2        	s32i	a10, a1, 92
    6447:	126192        	s32i	a9, a1, 72
    644a:	10cdd2        	addi	a13, a13, 16
    644d:	50cee2        	addi	a14, a14, 80
    6450:	90cff2        	addi	a15, a15, -112
    6453:	1461f2        	s32i	a15, a1, 80
    6456:	1661e2        	s32i	a14, a1, 88
    6459:	1861d2        	s32i	a13, a1, 96
    645c:	10c882        	addi	a8, a8, 16
    645f:	136182        	s32i	a8, a1, 76

00006462 <Voice_WB_TX_Inear_Prcs+0x242>:
    6462:	02ad           	mov.n	a10, a2
    6464:	07c8           	l32i.n	a12, a7, 0
    6466:	8d2c           	movi.n	a13, 40
    6468:	e79d81        	l32r	a8, 2dc (5c18 <emph_filter_N>)
    646b:	7cccb2        	addi	a11, a12, 124
    646e:	34ccc2        	addi	a12, a12, 52
    6471:	0008e0        	callx8	a8
    6474:	04ad           	mov.n	a10, a4
    6476:	07c8           	l32i.n	a12, a7, 0
    6478:	8d2c           	movi.n	a13, 40
    647a:	e79881        	l32r	a8, 2dc (5c18 <emph_filter_N>)
    647d:	7cccb2        	addi	a11, a12, 124
    6480:	38ccc2        	addi	a12, a12, 56
    6483:	0008e0        	callx8	a8
    6486:	02cd           	mov.n	a12, a2
    6488:	0027d2        	l32i	a13, a7, 0
    648b:	10c1e2        	addi	a14, a1, 16
    648e:	e79481        	l32r	a8, 2e0 (59f8 <tx_downsample_by2>)
    6491:	a22da2        	l32i	a10, a13, 0x288
    6494:	a32db2        	l32i	a11, a13, 0x28c
    6497:	0cddd2        	addmi	a13, a13, 0xc00
    649a:	30cdd2        	addi	a13, a13, 48
    649d:	0008e0        	callx8	a8
    64a0:	04cd           	mov.n	a12, a4
    64a2:	07d8           	l32i.n	a13, a7, 0
    64a4:	1021e2        	l32i	a14, a1, 64
    64a7:	e78e81        	l32r	a8, 2e0 (59f8 <tx_downsample_by2>)
    64aa:	a62da2        	l32i	a10, a13, 0x298
    64ad:	a72db2        	l32i	a11, a13, 0x29c
    64b0:	0cddd2        	addmi	a13, a13, 0xc00
    64b3:	50cdd2        	addi	a13, a13, 80
    64b6:	0008e0        	callx8	a8
    64b9:	4126d2        	l32i	a13, a6, 0x104
    64bc:	07c8           	l32i.n	a12, a7, 0
    64be:	3126e2        	l32i	a14, a6, 196
    64c1:	e78881        	l32r	a8, 2e4 (5cc4 <analy_3band>)
    64c4:	a22ca2        	l32i	a10, a12, 0x288
    64c7:	10dcb2        	addmi	a11, a12, 0x1000
    64ca:	b0cbb2        	addi	a11, a11, -80
    64cd:	a12cc2        	l32i	a12, a12, 0x284
    64d0:	0008e0        	callx8	a8
    64d3:	2126d2        	l32i	a13, a6, 132
    64d6:	07c8           	l32i.n	a12, a7, 0
    64d8:	ae0c           	movi.n	a14, 10
    64da:	e77f81        	l32r	a8, 2d8 (5e3c <biquad_2cascade_24bitTx>)
    64dd:	a12ca2        	l32i	a10, a12, 0x284
    64e0:	0ddcb2        	addmi	a11, a12, 0xd00
    64e3:	d0cbb2        	addi	a11, a11, -48
    64e6:	0008e0        	callx8	a8
    64e9:	4226d2        	l32i	a13, a6, 0x108
    64ec:	07c8           	l32i.n	a12, a7, 0
    64ee:	3226e2        	l32i	a14, a6, 200
    64f1:	e77c81        	l32r	a8, 2e4 (5cc4 <analy_3band>)
    64f4:	a62ca2        	l32i	a10, a12, 0x298
    64f7:	10dcb2        	addmi	a11, a12, 0x1000
    64fa:	f0cbb2        	addi	a11, a11, -16
    64fd:	a12cc2        	l32i	a12, a12, 0x284
    6500:	0008e0        	callx8	a8
    6503:	07a8           	l32i.n	a10, a7, 0
    6505:	e77881        	l32r	a8, 2e8 (5fc4 <conv_24_to_16>)
    6508:	2226b2        	l32i	a11, a6, 136
    650b:	a12aa2        	l32i	a10, a10, 0x284
    650e:	0008e0        	callx8	a8
    6511:	06ad           	mov.n	a10, a6
    6513:	1121b2        	l32i	a11, a1, 68
    6516:	ac0c           	movi.n	a12, 10
    6518:	e77581        	l32r	a8, 2ec (509c <subband_aec_block>)
    651b:	05dd           	mov.n	a13, a5
    651d:	1e0c           	movi.n	a14, 1
    651f:	0008e0        	callx8	a8
    6522:	06ad           	mov.n	a10, a6
    6524:	1221b2        	l32i	a11, a1, 72
    6527:	ac0c           	movi.n	a12, 10
    6529:	e77081        	l32r	a8, 2ec (509c <subband_aec_block>)
    652c:	05dd           	mov.n	a13, a5
    652e:	3e0c           	movi.n	a14, 3
    6530:	0008e0        	callx8	a8
    6533:	06ad           	mov.n	a10, a6
    6535:	1321b2        	l32i	a11, a1, 76
    6538:	4c1c           	movi.n	a12, 20
    653a:	e76c81        	l32r	a8, 2ec (509c <subband_aec_block>)
    653d:	05dd           	mov.n	a13, a5
    653f:	4e0c           	movi.n	a14, 4
    6541:	0008e0        	callx8	a8
    6544:	06ad           	mov.n	a10, a6
    6546:	1421b2        	l32i	a11, a1, 80
    6549:	e76981        	l32r	a8, 2f0 (5380 <subband_aec_mid_channel>)
    654c:	05cd           	mov.n	a12, a5
    654e:	2d0c           	movi.n	a13, 2
    6550:	0008e0        	callx8	a8
    6553:	2326a2        	l32i	a10, a6, 140
    6556:	4326b2        	l32i	a11, a6, 0x10c
    6559:	5326c2        	l32i	a12, a6, 0x14c
    655c:	3326d2        	l32i	a13, a6, 204
    655f:	e76581        	l32r	a8, 2f4 (5ff8 <gain_after_ec>)
    6562:	0e0c           	movi.n	a14, 0
    6564:	0f0c           	movi.n	a15, 0
    6566:	0008e0        	callx8	a8
    6569:	03ad           	mov.n	a10, a3
    656b:	07c8           	l32i.n	a12, a7, 0
    656d:	8d2c           	movi.n	a13, 40
    656f:	e75b81        	l32r	a8, 2dc (5c18 <emph_filter_N>)
    6572:	7cccb2        	addi	a11, a12, 124
    6575:	3cccc2        	addi	a12, a12, 60
    6578:	0008e0        	callx8	a8
    657b:	03cd           	mov.n	a12, a3
    657d:	07d8           	l32i.n	a13, a7, 0
    657f:	1521e2        	l32i	a14, a1, 84
    6582:	e75781        	l32r	a8, 2e0 (59f8 <tx_downsample_by2>)
    6585:	a42da2        	l32i	a10, a13, 0x290
    6588:	a52db2        	l32i	a11, a13, 0x294
    658b:	0cddd2        	addmi	a13, a13, 0xc00
    658e:	70cdd2        	addi	a13, a13, 112
    6591:	0008e0        	callx8	a8
    6594:	8126d2        	l32i	a13, a6, 0x204
    6597:	07c8           	l32i.n	a12, a7, 0
    6599:	7126e2        	l32i	a14, a6, 0x1c4
    659c:	e75281        	l32r	a8, 2e4 (5cc4 <analy_3band>)
    659f:	a42ca2        	l32i	a10, a12, 0x290
    65a2:	10dcb2        	addmi	a11, a12, 0x1000
    65a5:	30cbb2        	addi	a11, a11, 48
    65a8:	a12cc2        	l32i	a12, a12, 0x284
    65ab:	0008e0        	callx8	a8
    65ae:	0027a2        	l32i	a10, a7, 0
    65b1:	e74d81        	l32r	a8, 2e8 (5fc4 <conv_24_to_16>)
    65b4:	6126b2        	l32i	a11, a6, 0x184
    65b7:	a12aa2        	l32i	a10, a10, 0x284
    65ba:	0008e0        	callx8	a8
    65bd:	06ad           	mov.n	a10, a6
    65bf:	1621b2        	l32i	a11, a1, 88
    65c2:	ac0c           	movi.n	a12, 10
    65c4:	e74a81        	l32r	a8, 2ec (509c <subband_aec_block>)
    65c7:	05dd           	mov.n	a13, a5
    65c9:	1e0c           	movi.n	a14, 1
    65cb:	0008e0        	callx8	a8
    65ce:	06ad           	mov.n	a10, a6
    65d0:	1721b2        	l32i	a11, a1, 92
    65d3:	ac0c           	movi.n	a12, 10
    65d5:	e74581        	l32r	a8, 2ec (509c <subband_aec_block>)
    65d8:	05dd           	mov.n	a13, a5
    65da:	03a0e2        	movi	a14, 3
    65dd:	0008e0        	callx8	a8
    65e0:	06ad           	mov.n	a10, a6
    65e2:	1821b2        	l32i	a11, a1, 96
    65e5:	4c1c           	movi.n	a12, 20
    65e7:	e74181        	l32r	a8, 2ec (509c <subband_aec_block>)
    65ea:	20d550        	or	a13, a5, a5
    65ed:	04a0e2        	movi	a14, 4
    65f0:	0008e0        	callx8	a8
    65f3:	06ad           	mov.n	a10, a6
    65f5:	1921b2        	l32i	a11, a1, 100
    65f8:	e73e81        	l32r	a8, 2f0 (5380 <subband_aec_mid_channel>)
    65fb:	05cd           	mov.n	a12, a5
    65fd:	2d0c           	movi.n	a13, 2
    65ff:	0008e0        	callx8	a8
    6602:	6326a2        	l32i	a10, a6, 0x18c
    6605:	8326b2        	l32i	a11, a6, 0x20c
    6608:	9326c2        	l32i	a12, a6, 0x24c
    660b:	7326d2        	l32i	a13, a6, 0x1cc
    660e:	e72f91        	l32r	a9, 2cc (a780 <fftorder_512_12b+0x340>)
    6611:	07f8           	l32i.n	a15, a7, 0
    6613:	0e0c           	movi.n	a14, 0
    6615:	e73781        	l32r	a8, 2f4 (5ff8 <gain_after_ec>)
    6618:	ff9a           	add.n	a15, a15, a9
    661a:	849ff2        	l16si	a15, a15, 0x108
    661d:	0008e0        	callx8	a8
    6620:	2326a2        	l32i	a10, a6, 140
    6623:	4326b2        	l32i	a11, a6, 0x10c
    6626:	07e8           	l32i.n	a14, a7, 0
    6628:	3326c2        	l32i	a12, a6, 204
    662b:	e73381        	l32r	a8, 2f8 (5d98 <synth_3band>)
    662e:	10ded2        	addmi	a13, a14, 0x1000
    6631:	70cdd2        	addi	a13, a13, 112
    6634:	a92ee2        	l32i	a14, a14, 0x2a4
    6637:	0008e0        	callx8	a8
    663a:	6326a2        	l32i	a10, a6, 0x18c
    663d:	8326b2        	l32i	a11, a6, 0x20c
    6640:	07e8           	l32i.n	a14, a7, 0
    6642:	7326c2        	l32i	a12, a6, 0x1cc
    6645:	e72c81        	l32r	a8, 2f8 (5d98 <synth_3band>)
    6648:	11ded2        	addmi	a13, a14, 0x1100
    664b:	eccdd2        	addi	a13, a13, -20
    664e:	a82ee2        	l32i	a14, a14, 0x2a0
    6651:	0008e0        	callx8	a8
    6654:	5326b2        	l32i	a11, a6, 0x14c
    6657:	2021c2        	l32i	a12, a1, 128
    665a:	07d8           	l32i.n	a13, a7, 0
    665c:	1a21e2        	l32i	a14, a1, 104
    665f:	e72781        	l32r	a8, 2fc (5b54 <tx_upsample_by2>)
    6662:	a92da2        	l32i	a10, a13, 0x2a4
    6665:	0dddd2        	addmi	a13, a13, 0xd00
    6668:	90cdd2        	addi	a13, a13, -112
    666b:	0008e0        	callx8	a8
    666e:	9326b2        	l32i	a11, a6, 0x24c
    6671:	2121c2        	l32i	a12, a1, 132
    6674:	07d8           	l32i.n	a13, a7, 0
    6676:	1b21e2        	l32i	a14, a1, 108
    6679:	e72081        	l32r	a8, 2fc (5b54 <tx_upsample_by2>)
    667c:	a82da2        	l32i	a10, a13, 0x2a0
    667f:	0dddd2        	addmi	a13, a13, 0xd00
    6682:	b0cdd2        	addi	a13, a13, -80
    6685:	0008e0        	callx8	a8
    6688:	50c222        	addi	a2, a2, 80
    668b:	50c332        	addi	a3, a3, 80
    668e:	50c442        	addi	a4, a4, 80
    6691:	1f2182        	l32i	a8, a1, 124
    6694:	212192        	l32i	a9, a1, 132
    6697:	2021a2        	l32i	a10, a1, 128
    669a:	880b           	addi.n	a8, a8, -1
    669c:	50c992        	addi	a9, a9, 80
    669f:	50caa2        	addi	a10, a10, 80
    66a2:	2061a2        	s32i	a10, a1, 128
    66a5:	216192        	s32i	a9, a1, 132
    66a8:	1f6182        	s32i	a8, a1, 124
    66ab:	db3856        	bnez	a8, 6462 <Voice_WB_TX_Inear_Prcs+0x242>
    66ae:	41b8           	l32i.n	a11, a1, 16
    66b0:	e67121        	l32r	a2, 74 (4000 <inear_ast_nr_proc+0x140>)
    66b3:	0d22b7        	blt	a2, a11, 66c4 <Voice_WB_TX_Inear_Prcs+0x4a4>
    66b6:	07a8           	l32i.n	a10, a7, 0
    66b8:	e71281        	l32r	a8, 300 (60c4 <adjust_bib_state>)
    66bb:	0cdaa2        	addmi	a10, a10, 0xc00
    66be:	30caa2        	addi	a10, a10, 48
    66c1:	0008e0        	callx8	a8

000066c4 <Voice_WB_TX_Inear_Prcs+0x4a4>:
    66c4:	71c8           	l32i.n	a12, a1, 28
    66c6:	222132        	l32i	a3, a1, 136
    66c9:	0d22c7        	blt	a2, a12, 66da <Voice_WB_TX_Inear_Prcs+0x4ba>
    66cc:	07a8           	l32i.n	a10, a7, 0
    66ce:	e70c81        	l32r	a8, 300 (60c4 <adjust_bib_state>)
    66d1:	0ddaa2        	addmi	a10, a10, 0xd00
    66d4:	90caa2        	addi	a10, a10, -112
    66d7:	0008e0        	callx8	a8

000066da <Voice_WB_TX_Inear_Prcs+0x4ba>:
    66da:	61c8           	l32i.n	a12, a1, 24
    66dc:	0d22c7        	blt	a2, a12, 66ed <Voice_WB_TX_Inear_Prcs+0x4cd>
    66df:	07a8           	l32i.n	a10, a7, 0
    66e1:	e70781        	l32r	a8, 300 (60c4 <adjust_bib_state>)
    66e4:	0cdaa2        	addmi	a10, a10, 0xc00
    66e7:	50caa2        	addi	a10, a10, 80
    66ea:	0008e0        	callx8	a8

000066ed <Voice_WB_TX_Inear_Prcs+0x4cd>:
    66ed:	51c8           	l32i.n	a12, a1, 20
    66ef:	0d22c7        	blt	a2, a12, 6700 <Voice_WB_TX_Inear_Prcs+0x4e0>
    66f2:	07a8           	l32i.n	a10, a7, 0
    66f4:	e70381        	l32r	a8, 300 (60c4 <adjust_bib_state>)
    66f7:	0cdaa2        	addmi	a10, a10, 0xc00
    66fa:	70caa2        	addi	a10, a10, 112
    66fd:	0008e0        	callx8	a8

00006700 <Voice_WB_TX_Inear_Prcs+0x4e0>:
    6700:	81c8           	l32i.n	a12, a1, 32
    6702:	0d22c7        	blt	a2, a12, 6713 <Voice_WB_TX_Inear_Prcs+0x4f3>
    6705:	07a8           	l32i.n	a10, a7, 0
    6707:	e6fe81        	l32r	a8, 300 (60c4 <adjust_bib_state>)
    670a:	0ddaa2        	addmi	a10, a10, 0xd00
    670d:	b0caa2        	addi	a10, a10, -80
    6710:	0008e0        	callx8	a8

00006713 <Voice_WB_TX_Inear_Prcs+0x4f3>:
    6713:	01d6e2        	addmi	a14, a6, 0x100
    6716:	22c622        	addi	a2, a6, 34
    6719:	400204        	ae_lp16f.i	aep0, a2, 0
    671c:	28cee2        	addi	a14, a14, 40
    671f:	600e04        	ae_lq32f.i	aeq0, a14, 0
    6722:	d4e231a6be 	{ l32i	a11, a6, 104; ae_mulfq32sp16s.l	aeq0, aeq0, aep0 }
    6727:	30c1d2        	addi	a13, a1, 48
    672a:	620d04        	ae_sq32f.i	aeq0, a13, 0
    672d:	c1c8           	l32i.n	a12, a1, 48
    672f:	e6f581        	l32r	a8, 304 (56a0 <dt_detect>)
    6732:	06ad           	mov.n	a10, a6
    6734:	53bbc0        	max	a11, a11, a12
    6737:	0008e0        	callx8	a8
    673a:	e6f381        	l32r	a8, 308 (56ec <dt_detect_FB>)
    673d:	06ad           	mov.n	a10, a6
    673f:	5a26b2        	l32i	a11, a6, 0x168
    6742:	0008e0        	callx8	a8
    6745:	34c1d2        	addi	a13, a1, 52
    6748:	38c1e2        	addi	a14, a1, 56
    674b:	07a8           	l32i.n	a10, a7, 0
    674d:	e6ef81        	l32r	a8, 30c (3ec0 <inear_ast_nr_proc>)
    6750:	190c           	movi.n	a9, 1
    6752:	ab2ab2        	l32i	a11, a10, 0x2ac
    6755:	aa2ac2        	l32i	a12, a10, 0x2a8
    6758:	01daf2        	addmi	a15, a10, 0x100
    675b:	be9ff2        	l16si	a15, a15, 0x17c
    675e:	006192        	s32i	a9, a1, 0
    6761:	11daa2        	addmi	a10, a10, 0x1100
    6764:	68caa2        	addi	a10, a10, 104
    6767:	0008e0        	callx8	a8
    676a:	2c21e2        	l32i	a14, a1, 176
    676d:	07c8           	l32i.n	a12, a7, 0
    676f:	e6d7f1        	l32r	a15, 2cc (a780 <fftorder_512_12b+0x340>)
    6772:	1e61c2        	s32i	a12, a1, 120
    6775:	4fdcd2        	addmi	a13, a12, 0x4f00
    6778:	fcfa           	add.n	a15, a12, a15
    677a:	7c5fa2        	s16i	a10, a15, 248
    677d:	02dcc2        	addmi	a12, a12, 0x200
    6780:	4c9df2        	l16si	a15, a13, 152
    6783:	63fd           	ae_s16i.n	a15, a3, 0
    6785:	4d9dd2        	l16si	a13, a13, 154
    6788:	6edd           	ae_s16i.n	a13, a14, 0
    678a:	3e9cc2        	l16si	a12, a12, 124
    678d:	36bd           	ae_l16si.n	a11, a6, 2
    678f:	e62e41        	l32r	a4, 48 (8000 <xtensa_fft8_32b+0xf0>)
    6792:	0d0c           	movi.n	a13, 0
    6794:	022bc7        	blt	a11, a12, 679a <Voice_WB_TX_Inear_Prcs+0x57a>
    6797:	002e86        	j	6855 <Voice_WB_TX_Inear_Prcs+0x635>
    679a:	e6dd81        	l32r	a8, 310 (7fff0000 <_end+0x7ffe2874>)
    679d:	360834        	ae_cvtq48a32s	aeq0, a8

000067a0 <Voice_WB_TX_Inear_Prcs+0x580>:
    67a0:	1d21c2        	l32i	a12, a1, 116
    67a3:	78a022        	movi	a2, 120
    67a6:	e6c981        	l32r	a8, 2cc (a780 <fftorder_512_12b+0x340>)
    67a9:	f863c2869e 	{ addi	a9, a6, 40; ae_roundsp16q48asym	aep1, aeq0 }
    67ae:	421904        	ae_sp16f.l.i	aep1, a9, 0
    67b1:	0758           	l32i.n	a5, a7, 0
    67b3:	e1a8           	l32i.n	a10, a1, 56
    67b5:	1e6152        	s32i	a5, a1, 120
    67b8:	558a           	add.n	a5, a5, a8
    67ba:	412552        	l32i	a5, a5, 0x104
    67bd:	d188           	l32i.n	a8, a1, 52
    67bf:	318276        	loop	a2, 67f4 <Voice_WB_TX_Inear_Prcs+0x5d4>
    67c2:	0898           	l32i.n	a9, a8, 0
    67c4:	0ab8           	l32i.n	a11, a10, 0
    67c6:	e5da           	add.n	a14, a5, a13
    67c8:	fd2b           	addi.n	a15, a13, 2
    67ca:	1828           	l32i.n	a2, a8, 4
    67cc:	1a38           	l32i.n	a3, a10, 4
    67ce:	994a           	add.n	a9, a9, a4
    67d0:	bb4a           	add.n	a11, a11, a4
    67d2:	224a           	add.n	a2, a2, a4
    67d4:	334a           	add.n	a3, a3, a4
    67d6:	f5fa           	add.n	a15, a5, a15
    67d8:	aa8b           	addi.n	a10, a10, 8
    67da:	888b           	addi.n	a8, a8, 8
    67dc:	dd4b           	addi.n	a13, a13, 4
    67de:	319090        	srai	a9, a9, 16
    67e1:	31b0b0        	srai	a11, a11, 16
    67e4:	312020        	srai	a2, a2, 16
    67e7:	313030        	srai	a3, a3, 16
    67ea:	09cc94        	ae_s16ip	a9, a12, 2
    67ed:	6ebd           	ae_s16i.n	a11, a14, 0
    67ef:	09cc24        	ae_s16ip	a2, a12, 2
    67f2:	6f3d           	ae_s16i.n	a3, a15, 0

000067f4 <Voice_WB_TX_Inear_Prcs+0x5d4>:
    67f4:	1e21a2        	l32i	a10, a1, 120
    67f7:	05bd           	mov.n	a11, a5
    67f9:	e6c681        	l32r	a8, 314 (615c <AVC_prcs>)
    67fc:	0ddaa2        	addmi	a10, a10, 0xd00
    67ff:	18caa2        	addi	a10, a10, 24
    6802:	0008e0        	callx8	a8
    6805:	1d21b2        	l32i	a11, a1, 116
    6808:	e6c481        	l32r	a8, 318 (60e0 <aec_post_prcs>)
    680b:	e6a5e1        	l32r	a14, 2a0 (d788 <avc_vol>)
    680e:	e6afd1        	l32r	a13, 2cc (a780 <fftorder_512_12b+0x340>)
    6811:	07c8           	l32i.n	a12, a7, 0
    6813:	6ead           	ae_s16i.n	a10, a14, 0
    6815:	06ad           	mov.n	a10, a6
    6817:	80ccd0        	add	a12, a12, a13
    681a:	412cc2        	l32i	a12, a12, 0x104
    681d:	0008e0        	callx8	a8
    6820:	1d21a2        	l32i	a10, a1, 116
    6823:	07c8           	l32i.n	a12, a7, 0
    6825:	f0a0d2        	movi	a13, 240
    6828:	e6bd81        	l32r	a8, 31c (5c64 <deemph_filter_N>)
    682b:	7cccb2        	addi	a11, a12, 124
    682e:	74ccc2        	addi	a12, a12, 116
    6831:	0008e0        	callx8	a8
    6834:	e6a681        	l32r	a8, 2cc (a780 <fftorder_512_12b+0x340>)
    6837:	07f8           	l32i.n	a15, a7, 0
    6839:	e699d1        	l32r	a13, 2a0 (d788 <avc_vol>)
    683c:	1c21e2        	l32i	a14, a1, 112
    683f:	8f8a           	add.n	a8, a15, a8
    6841:	0ddff2        	addmi	a15, a15, 0xd00
    6844:	7c9882        	l16si	a8, a8, 248
    6847:	7e8d           	ae_s16i.n	a8, a14, 2
    6849:	149ff2        	l16si	a15, a15, 40
    684c:	6efd           	ae_s16i.n	a15, a14, 0
    684e:	2ddd           	ae_l16si.n	a13, a13, 0
    6850:	025ed2        	s16i	a13, a14, 4
    6853:	f01d           	retw.n

00006855 <Voice_WB_TX_Inear_Prcs+0x635>:
    6855:	238d           	ae_l16si.n	a8, a3, 0
    6857:	58ac           	beqz.n	a8, 6880 <Voice_WB_TX_Inear_Prcs+0x660>
    6859:	980b           	addi.n	a9, a8, -1
    685b:	01d6a2        	addmi	a10, a6, 0x100
    685e:	6ccaa2        	addi	a10, a10, 108
    6861:	600a04        	ae_lq32f.i	aeq0, a10, 0
    6864:	f38956        	bnez	a9, 67a0 <Voice_WB_TX_Inear_Prcs+0x580>
    6867:	e6aec1        	l32r	a12, 320 (a88a <__switch_array_56+0x4a>)
    686a:	1e21b2        	l32i	a11, a1, 120
    686d:	412bc4        	ae_lp16f.x	aep2, a11, a12
    6870:	032a34        	ae_mulfq32sp16u.l	aeq1, aeq0, aep2
    6873:	3611d4        	ae_sllisq56s	aeq0, aeq1, 7
    6876:	ffc986        	j	67a0 <Voice_WB_TX_Inear_Prcs+0x580>

00006879 <Voice_WB_TX_Inear_Prcs+0x659>:
    6879:	0aed           	mov.n	a14, a10
    687b:	6e9d           	ae_s16i.n	a9, a14, 0
    687d:	fea046        	j	6302 <Voice_WB_TX_Inear_Prcs+0xe2>

00006880 <Voice_WB_TX_Inear_Prcs+0x660>:
    6880:	403204        	ae_lp16f.i	aep3, a2, 0
    6883:	01d682        	addmi	a8, a6, 0x100
    6886:	2cc882        	addi	a8, a8, 44
    6889:	600804        	ae_lq32f.i	aeq0, a8, 0
    688c:	d4ee06c6fe 	{ addi	a15, a6, 108; ae_mulfq32sp16s.l	aeq0, aeq0, aep3 }
    6891:	604f04        	ae_lq32f.i	aeq1, a15, 0
    6894:	0110c4        	ae_maxq56s	aeq0, aeq0, aeq1
    6897:	ffc146        	j	67a0 <Voice_WB_TX_Inear_Prcs+0x580>

0000689a <Voice_WB_TX_Inear_Prcs+0x67a>:
	...

0000689c <conv_16_to_24_x2>:
    689c:	004136        	entry	a1, 32
    689f:	f8c332        	addi	a3, a3, -8
    68a2:	fcc222        	addi	a2, a2, -4
    68a5:	05a476        	loopgtz	a4, 68ae <conv_16_to_24_x2+0x12>
    68a8:	448214        	ae_lp16x2f.iu	aep0, a2, 4
    68ab:	5e8314        	ae_sp24x2f.iu	aep0, a3, 8

000068ae <conv_16_to_24_x2+0x12>:
    68ae:	f01d           	retw.n

000068b0 <Voice_NB_RX_Prcs>:
    68b0:	004136        	entry	a1, 32
    68b3:	e5d531        	l32r	a3, 8 (d784 <p_ecnr_mem>)
    68b6:	03a8           	l32i.n	a10, a3, 0
    68b8:	0fda82        	addmi	a8, a10, 0xf00
    68bb:	3c1882        	l16ui	a8, a8, 120
    68be:	888c           	beqz.n	a8, 68ca <Voice_NB_RX_Prcs+0x1a>
    68c0:	e69981        	l32r	a8, 324 (6f40 <NB_RX_NR_frame_process>)
    68c3:	02ad           	mov.n	a10, a2
    68c5:	0008e0        	callx8	a8
    68c8:	03a8           	l32i.n	a10, a3, 0

000068ca <Voice_NB_RX_Prcs+0x1a>:
    68ca:	02dac2        	addmi	a12, a10, 0x200
    68cd:	17dab2        	addmi	a11, a10, 0x1700
    68d0:	7fdbb2        	addmi	a11, a11, 0x7f00
    68d3:	409c92        	l16si	a9, a12, 128
    68d6:	171bb2        	l16ui	a11, a11, 46
    68d9:	3f5cb2        	s16i	a11, a12, 126
    68dc:	01e9d7        	bbsi	a9, 13, 68e1 <Voice_NB_RX_Prcs+0x31>
    68df:	f01d           	retw.n

000068e1 <Voice_NB_RX_Prcs+0x31>:
    68e1:	cc3c           	movi.n	a12, 60
    68e3:	29da42        	addmi	a4, a10, 0x2900
    68e6:	7fd442        	addmi	a4, a4, 0x7f00
    68e9:	1f2442        	l32i	a4, a4, 124
    68ec:	e67a81        	l32r	a8, 2d4 (689c <conv_16_to_24_x2>)
    68ef:	02ad           	mov.n	a10, a2
    68f1:	04bd           	mov.n	a11, a4
    68f3:	0008e0        	callx8	a8
    68f6:	02dd           	mov.n	a13, a2
    68f8:	04ad           	mov.n	a10, a4
    68fa:	03c8           	l32i.n	a12, a3, 0
    68fc:	e68be1        	l32r	a14, 328 (a830 <fftorder_512_12b+0x3f0>)
    68ff:	e67681        	l32r	a8, 2d8 (5e3c <biquad_2cascade_24bitTx>)
    6902:	0ddcb2        	addmi	a11, a12, 0xd00
    6905:	ccea           	add.n	a12, a12, a14
    6907:	78a0e2        	movi	a14, 120
    690a:	0008e0        	callx8	a8
    690d:	f01d           	retw.n

0000690f <Voice_NB_RX_Prcs+0x5f>:
	...

00006910 <Voice_WB_RX_Prcs>:
    6910:	004136        	entry	a1, 32
    6913:	e5bd31        	l32r	a3, 8 (d784 <p_ecnr_mem>)
    6916:	03a8           	l32i.n	a10, a3, 0
    6918:	0fda82        	addmi	a8, a10, 0xf00
    691b:	3c1882        	l16ui	a8, a8, 120
    691e:	888c           	beqz.n	a8, 692a <Voice_WB_RX_Prcs+0x1a>
    6920:	e68381        	l32r	a8, 32c (6ca8 <WB_RX_NR_frame_process>)
    6923:	02ad           	mov.n	a10, a2
    6925:	0008e0        	callx8	a8
    6928:	03a8           	l32i.n	a10, a3, 0

0000692a <Voice_WB_RX_Prcs+0x1a>:
    692a:	02dac2        	addmi	a12, a10, 0x200
    692d:	17dab2        	addmi	a11, a10, 0x1700
    6930:	7fdbb2        	addmi	a11, a11, 0x7f00
    6933:	409c92        	l16si	a9, a12, 128
    6936:	171bb2        	l16ui	a11, a11, 46
    6939:	3f5cb2        	s16i	a11, a12, 126
    693c:	03e9d7        	bbsi	a9, 13, 6943 <Voice_WB_RX_Prcs+0x33>
    693f:	f01d           	retw.n

00006941 <Voice_WB_RX_Prcs+0x31>:
	...

00006943 <Voice_WB_RX_Prcs+0x33>:
    6943:	78a0c2        	movi	a12, 120
    6946:	29da42        	addmi	a4, a10, 0x2900
    6949:	7fd442        	addmi	a4, a4, 0x7f00
    694c:	1f2442        	l32i	a4, a4, 124
    694f:	e66181        	l32r	a8, 2d4 (689c <conv_16_to_24_x2>)
    6952:	02ad           	mov.n	a10, a2
    6954:	04bd           	mov.n	a11, a4
    6956:	0008e0        	callx8	a8
    6959:	02dd           	mov.n	a13, a2
    695b:	04ad           	mov.n	a10, a4
    695d:	03c8           	l32i.n	a12, a3, 0
    695f:	e672e1        	l32r	a14, 328 (a830 <fftorder_512_12b+0x3f0>)
    6962:	e65d81        	l32r	a8, 2d8 (5e3c <biquad_2cascade_24bitTx>)
    6965:	0ddcb2        	addmi	a11, a12, 0xd00
    6968:	ccea           	add.n	a12, a12, a14
    696a:	f0a0e2        	movi	a14, 240
    696d:	0008e0        	callx8	a8
    6970:	f01d           	retw.n

00006972 <Voice_WB_RX_Prcs+0x62>:
	...

00006974 <EC_REF_GAIN_READBACK>:
    6974:	004136        	entry	a1, 32
    6977:	e5a431        	l32r	a3, 8 (d784 <p_ecnr_mem>)
    697a:	090c           	movi.n	a9, 0
    697c:	045292        	s16i	a9, a2, 8
    697f:	055292        	s16i	a9, a2, 10
    6982:	0338           	l32i.n	a3, a3, 0
    6984:	065292        	s16i	a9, a2, 12
    6987:	075292        	s16i	a9, a2, 14
    698a:	0cd332        	addmi	a3, a3, 0xc00
    698d:	622382        	l32i	a8, a3, 0x188
    6990:	822342        	l32i	a4, a3, 0x208
    6993:	722352        	l32i	a5, a3, 0x1c8
    6996:	922332        	l32i	a3, a3, 0x248
    6999:	314040        	srai	a4, a4, 16
    699c:	315050        	srai	a5, a5, 16
    699f:	318080        	srai	a8, a8, 16
    69a2:	628d           	ae_s16i.n	a8, a2, 0
    69a4:	725d           	ae_s16i.n	a5, a2, 2
    69a6:	025242        	s16i	a4, a2, 4
    69a9:	313030        	srai	a3, a3, 16
    69ac:	035232        	s16i	a3, a2, 6
    69af:	f01d           	retw.n

000069b1 <EC_REF_GAIN_READBACK+0x3d>:
    69b1:	000000                                        ...

000069b4 <EC_PreLim_Coef_READBACK>:
    69b4:	004136        	entry	a1, 32
    69b7:	040c           	movi.n	a4, 0
    69b9:	09c244        	ae_s16ip	a4, a2, 2
    69bc:	09c244        	ae_s16ip	a4, a2, 2
    69bf:	09c244        	ae_s16ip	a4, a2, 2
    69c2:	09c244        	ae_s16ip	a4, a2, 2
    69c5:	09c244        	ae_s16ip	a4, a2, 2
    69c8:	09c244        	ae_s16ip	a4, a2, 2
    69cb:	09c244        	ae_s16ip	a4, a2, 2
    69ce:	09c244        	ae_s16ip	a4, a2, 2
    69d1:	09c244        	ae_s16ip	a4, a2, 2
    69d4:	f01d           	retw.n

000069d6 <EC_PreLim_Coef_READBACK+0x22>:
	...

000069d8 <DaulMIC_power_Coef_READBACK>:
    69d8:	004136        	entry	a1, 32
    69db:	020c           	movi.n	a2, 0
    69dd:	f01d           	retw.n

000069df <DaulMIC_power_Coef_READBACK+0x7>:
	...

000069e0 <AEC_NR_Write_FLASH>:
    69e0:	004136        	entry	a1, 32
    69e3:	020c           	movi.n	a2, 0
    69e5:	f01d           	retw.n

000069e7 <AEC_NR_Write_FLASH+0x7>:
	...

000069e8 <TWO_MIC_WB_Write_FLASH>:
    69e8:	004136        	entry	a1, 32
    69eb:	020c           	movi.n	a2, 0
    69ed:	f01d           	retw.n

000069ef <TWO_MIC_WB_Write_FLASH+0x7>:
	...

000069f0 <IE_EC_REF_GAIN_READBACK>:
    69f0:	004136        	entry	a1, 32
    69f3:	e58531        	l32r	a3, 8 (d784 <p_ecnr_mem>)
    69f6:	0338           	l32i.n	a3, a3, 0
    69f8:	0dd332        	addmi	a3, a3, 0xd00
    69fb:	622382        	l32i	a8, a3, 0x188
    69fe:	822342        	l32i	a4, a3, 0x208
    6a01:	722352        	l32i	a5, a3, 0x1c8
    6a04:	922332        	l32i	a3, a3, 0x248
    6a07:	314040        	srai	a4, a4, 16
    6a0a:	315050        	srai	a5, a5, 16
    6a0d:	318080        	srai	a8, a8, 16
    6a10:	628d           	ae_s16i.n	a8, a2, 0
    6a12:	725d           	ae_s16i.n	a5, a2, 2
    6a14:	025242        	s16i	a4, a2, 4
    6a17:	313030        	srai	a3, a3, 16
    6a1a:	035232        	s16i	a3, a2, 6
    6a1d:	f01d           	retw.n

00006a1f <IE_EC_REF_GAIN_READBACK+0x2f>:
	...

00006a20 <fill_vad_thrd_Nbands>:
    6a20:	004136        	entry	a1, 32
    6a23:	037d           	mov.n	a7, a3
    6a25:	e64281        	l32r	a8, 330 (7f80 <xtensa_fft8_32b+0x70>)
    6a28:	026d           	mov.n	a6, a2
    6a2a:	050c           	movi.n	a5, 0
    6a2c:	052d           	mov.n	a2, a5
    6a2e:	1ba476        	loopgtz	a4, 6a4d <fill_vad_thrd_Nbands+0x2d>
    6a31:	903270        	addx2	a3, a2, a7
    6a34:	a05260        	addx4	a5, a2, a6
    6a37:	433d           	ae_l16ui.n	a3, a3, 0
    6a39:	221b           	addi.n	a2, a2, 1
    6a3b:	822d           	ae_sext16	a2, a2
    6a3d:	214130        	srai	a4, a3, 1
    6a40:	743030        	extui	a3, a3, 0, 8
    6a43:	113390        	slli	a3, a3, 7
    6a46:	104480        	and	a4, a4, a8
    6a49:	654d           	ae_s16i.n	a4, a5, 0
    6a4b:	753d           	ae_s16i.n	a3, a5, 2

00006a4d <fill_vad_thrd_Nbands+0x2d>:
    6a4d:	f01d           	retw.n

00006a4f <fill_vad_thrd_Nbands+0x2f>:
	...

00006a50 <fill_EQ_gain>:
    6a50:	004136        	entry	a1, 32
    6a53:	036d           	mov.n	a6, a3
    6a55:	4514a6        	blti	a4, 1, 6a9e <fill_EQ_gain+0x4e>
    6a58:	213340        	srai	a3, a4, 3
    6a5b:	245040        	extui	a5, a4, 0, 3
    6a5e:	06a576        	loopgtz	a5, 6a68 <fill_EQ_gain+0x18>
    6a61:	268d           	ae_l16si.n	a8, a6, 0
    6a63:	09c284        	ae_s16ip	a8, a2, 2
    6a66:	662b           	addi.n	a6, a6, 2

00006a68 <fill_EQ_gain+0x18>:
    6a68:	024d           	mov.n	a4, a2
    6a6a:	30a376        	loopgtz	a3, 6a9e <fill_EQ_gain+0x4e>
    6a6d:	263d           	ae_l16si.n	a3, a6, 0
    6a6f:	09c434        	ae_s16ip	a3, a4, 2
    6a72:	363d           	ae_l16si.n	a3, a6, 2
    6a74:	09c434        	ae_s16ip	a3, a4, 2
    6a77:	029632        	l16si	a3, a6, 4
    6a7a:	09c434        	ae_s16ip	a3, a4, 2
    6a7d:	039632        	l16si	a3, a6, 6
    6a80:	09c434        	ae_s16ip	a3, a4, 2
    6a83:	049632        	l16si	a3, a6, 8
    6a86:	09c434        	ae_s16ip	a3, a4, 2
    6a89:	059632        	l16si	a3, a6, 10
    6a8c:	09c434        	ae_s16ip	a3, a4, 2
    6a8f:	069632        	l16si	a3, a6, 12
    6a92:	09c434        	ae_s16ip	a3, a4, 2
    6a95:	079632        	l16si	a3, a6, 14
    6a98:	09c434        	ae_s16ip	a3, a4, 2
    6a9b:	10c662        	addi	a6, a6, 16

00006a9e <fill_EQ_gain+0x4e>:
    6a9e:	f01d           	retw.n

00006aa0 <complement_para>:
    6aa0:	004136        	entry	a1, 32
    6aa3:	e57141        	l32r	a4, 68 (ffff8000 <_end+0xfffea874>)
    6aa6:	623d           	ae_s16i.n	a3, a2, 0
    6aa8:	c04430        	sub	a4, a4, a3
    6aab:	724d           	ae_s16i.n	a4, a2, 2
    6aad:	f01d           	retw.n

00006aaf <complement_para+0xf>:
	...

00006ab0 <WB_NR_init>:
    6ab0:	004136        	entry	a1, 32
    6ab3:	02ad           	mov.n	a10, a2
    6ab5:	e58481        	l32r	a8, c8 (8808 <xt_memset>)
    6ab8:	0b0c           	movi.n	a11, 0
    6aba:	e61ec1        	l32r	a12, 334 (918 <HIFI_sqrt_ie+0x40>)
    6abd:	0008e0        	callx8	a8
    6ac0:	e61e81        	l32r	a8, 338 (6aa0 <complement_para>)
    6ac3:	4a14a2        	l16ui	a10, a4, 148
    6ac6:	4414b2        	l16ui	a11, a4, 136
    6ac9:	4b1492        	l16ui	a9, a4, 150
    6acc:	4314c2        	l16ui	a12, a4, 134
    6acf:	4214d2        	l16ui	a13, a4, 132
    6ad2:	4d14e2        	l16ui	a14, a4, 154
    6ad5:	1052e2        	s16i	a14, a2, 32
    6ad8:	0252d2        	s16i	a13, a2, 4
    6adb:	1152c2        	s16i	a12, a2, 34
    6ade:	0f5292        	s16i	a9, a2, 30
    6ae1:	0352b2        	s16i	a11, a2, 6
    6ae4:	0e52a2        	s16i	a10, a2, 28
    6ae7:	4c94b2        	l16si	a11, a4, 152
    6aea:	09d2a2        	addmi	a10, a2, 0x900
    6aed:	24caa2        	addi	a10, a10, 36
    6af0:	0008e0        	callx8	a8
    6af3:	a28b           	addi.n	a10, a2, 8
    6af5:	5c0c           	movi.n	a12, 5
    6af7:	e61181        	l32r	a8, 33c (6a20 <fill_vad_thrd_Nbands>)
    6afa:	01d4b2        	addmi	a11, a4, 0x100
    6afd:	8acbb2        	addi	a11, a11, -118
    6b00:	0008e0        	callx8	a8
    6b03:	00a1c2        	movi	a12, 0x100
    6b06:	02d4b2        	addmi	a11, a4, 0x200
    6b09:	0ed2a2        	addmi	a10, a2, 0xe00
    6b0c:	e60d81        	l32r	a8, 340 (6a50 <fill_EQ_gain>)
    6b0f:	f0caa2        	addi	a10, a10, -16
    6b12:	c8cbb2        	addi	a11, a11, -56
    6b15:	0008e0        	callx8	a8
    6b18:	e60c61        	l32r	a6, 348 (a768 <fftorder_512_12b+0x328>)
    6b1b:	e53ba1        	l32r	a10, 8 (d784 <p_ecnr_mem>)
    6b1e:	170c           	movi.n	a7, 1
    6b20:	11d232        	addmi	a3, a2, 0x1100
    6b23:	e608c1        	l32r	a12, 344 (b070 <win_rx_512_v3>)
    6b26:	3202b2        	l8ui	a11, a2, 50
    6b29:	4763c2        	s32i	a12, a3, 0x11c
    6b2c:	20c332        	addi	a3, a3, 32
    6b2f:	20bb70        	or	a11, a11, a7
    6b32:	3242b2        	s8i	a11, a2, 50
    6b35:	0aa8           	l32i.n	a10, a10, 0
    6b37:	6c0c           	movi.n	a12, 6
    6b39:	4e14b2        	l16ui	a11, a4, 156
    6b3c:	9a6a           	add.n	a9, a10, a6
    6b3e:	7e59b2        	s16i	a11, a9, 252
    6b41:	e602b1        	l32r	a11, 34c (a868 <__switch_array_56+0x28>)
    6b44:	4f1482        	l16ui	a8, a4, 158
    6b47:	7f5982        	s16i	a8, a9, 254
    6b4a:	e55f81        	l32r	a8, c8 (8808 <xt_memset>)
    6b4d:	aaba           	add.n	a10, a10, a11
    6b4f:	0b0c           	movi.n	a11, 0
    6b51:	0008e0        	callx8	a8
    6b54:	36c2a2        	addi	a10, a2, 54
    6b57:	e55dc1        	l32r	a12, cc (ffffb800 <_end+0xfffee074>)
    6b5a:	e5fdd1        	l32r	a13, 350 (b8000000 <_end+0xb7ff2874>)
    6b5d:	9e0c           	movi.n	a14, 9
    6b5f:	01d252        	addmi	a5, a2, 0x100
    6b62:	0e9292        	l16si	a9, a2, 28
    6b65:	119282        	l16si	a8, a2, 34
    6b68:	875382        	s16i	a8, a3, 0x10e
    6b6b:	865392        	s16i	a9, a3, 0x10c
    6b6e:	7cc552        	addi	a5, a5, 124
    6b71:	059d           	mov.n	a9, a5
    6b73:	2cae76        	loopgtz	a14, 6ba3 <WB_NR_init+0xf3>
    6b76:	0abd           	mov.n	a11, a10
    6b78:	09d9           	s32i.n	a13, a9, 0
    6b7a:	994b           	addi.n	a9, a9, 4
    6b7c:	09cac4        	ae_s16ip	a12, a10, 2
    6b7f:	09cac4        	ae_s16ip	a12, a10, 2
    6b82:	09cac4        	ae_s16ip	a12, a10, 2
    6b85:	09cac4        	ae_s16ip	a12, a10, 2
    6b88:	09cac4        	ae_s16ip	a12, a10, 2
    6b8b:	09cac4        	ae_s16ip	a12, a10, 2
    6b8e:	09cac4        	ae_s16ip	a12, a10, 2
    6b91:	09cac4        	ae_s16ip	a12, a10, 2
    6b94:	09cac4        	ae_s16ip	a12, a10, 2
    6b97:	09cac4        	ae_s16ip	a12, a10, 2
    6b9a:	09cac4        	ae_s16ip	a12, a10, 2
    6b9d:	09cac4        	ae_s16ip	a12, a10, 2
    6ba0:	18cba2        	addi	a10, a11, 24

00006ba3 <WB_NR_init+0xf3>:
    6ba3:	2e94b2        	l16si	a11, a4, 92
    6ba6:	e5e481        	l32r	a8, 338 (6aa0 <complement_para>)
    6ba9:	09d2a2        	addmi	a10, a2, 0x900
    6bac:	10caa2        	addi	a10, a10, 16
    6baf:	0008e0        	callx8	a8
    6bb2:	2f94b2        	l16si	a11, a4, 94
    6bb5:	e5e081        	l32r	a8, 338 (6aa0 <complement_para>)
    6bb8:	09d2a2        	addmi	a10, a2, 0x900
    6bbb:	14caa2        	addi	a10, a10, 20
    6bbe:	0008e0        	callx8	a8
    6bc1:	3094b2        	l16si	a11, a4, 96
    6bc4:	e5dd81        	l32r	a8, 338 (6aa0 <complement_para>)
    6bc7:	09d2a2        	addmi	a10, a2, 0x900
    6bca:	18caa2        	addi	a10, a10, 24
    6bcd:	0008e0        	callx8	a8
    6bd0:	3194b2        	l16si	a11, a4, 98
    6bd3:	e5d981        	l32r	a8, 338 (6aa0 <complement_para>)
    6bd6:	09d2a2        	addmi	a10, a2, 0x900
    6bd9:	1ccaa2        	addi	a10, a10, 28
    6bdc:	0008e0        	callx8	a8
    6bdf:	3294b2        	l16si	a11, a4, 100
    6be2:	e5d581        	l32r	a8, 338 (6aa0 <complement_para>)
    6be5:	09d2a2        	addmi	a10, a2, 0x900
    6be8:	20caa2        	addi	a10, a10, 32
    6beb:	0008e0        	callx8	a8
    6bee:	8094a2        	l16si	a10, a4, 0x100
    6bf1:	9b6c           	movi.n	a11, -23
    6bf3:	00a1d2        	movi	a13, 0x100
    6bf6:	08d2c2        	addmi	a12, a2, 0x800
    6bf9:	0e6c           	movi.n	a14, -32
    6bfb:	e503f1        	l32r	a15, 8 (d784 <p_ecnr_mem>)
    6bfe:	e96c           	movi.n	a9, -18
    6c00:	980c           	movi.n	a8, 9
    6c02:	344282        	s8i	a8, a2, 52
    6c05:	354292        	s8i	a9, a2, 53
    6c08:	0488           	l32i.n	a8, a4, 0
    6c0a:	006282        	s32i	a8, a2, 0
    6c0d:	002ff2        	l32i	a15, a15, 0
    6c10:	10d882        	addmi	a8, a8, 0x1000
    6c13:	dcc892        	addi	a9, a8, -36
    6c16:	80ff60        	add	a15, a15, a6
    6c19:	462ff2        	l32i	a15, a15, 0x118
    6c1c:	3e6392        	s32i	a9, a3, 248
    6c1f:	b8c882        	addi	a8, a8, -72
    6c22:	e5bb91        	l32r	a9, 310 (7fff0000 <_end+0x7ffe2874>)
    6c25:	3d6382        	s32i	a8, a3, 244
    6c28:	3c63f2        	s32i	a15, a3, 240
    6c2b:	24c582        	addi	a8, a5, 36
    6c2e:	185272        	s16i	a7, a2, 48
    6c31:	975ce2        	s16i	a14, a12, 0x12e
    6c34:	1552d2        	s16i	a13, a2, 42
    6c37:	955cb2        	s16i	a11, a12, 0x12a
    6c3a:	406392        	s32i	a9, a3, 0x100
    6c3d:	416392        	s32i	a9, a3, 0x104
    6c40:	8553a2        	s16i	a10, a3, 0x10a
    6c43:	7894a2        	l16si	a10, a4, 240
    6c46:	8453a2        	s16i	a10, a3, 0x108
    6c49:	e5c291        	l32r	a9, 354 (40000000 <_end+0x3fff2874>)
    6c4c:	051aa6        	blti	a10, 1, 6c55 <WB_NR_init+0x1a5>
    6c4f:	15a0b2        	movi	a11, 21
    6c52:	04aba7        	bge	a11, a10, 6c5a <WB_NR_init+0x1aa>

00006c55 <WB_NR_init+0x1a5>:
    6c55:	cc0c           	movi.n	a12, 12
    6c57:	8453c2        	s16i	a12, a3, 0x108

00006c5a <WB_NR_init+0x1aa>:
    6c5a:	eea0a2        	movi	a10, 238
    6c5d:	028a76        	loop	a10, 6c63 <WB_NR_init+0x1b3>
    6c60:	09e894        	ae_s32ip	a9, a8, 4

00006c63 <WB_NR_init+0x1b3>:
    6c63:	f01d           	retw.n

00006c65 <WB_NR_init+0x1b5>:
    6c65:	000000                                        ...

00006c68 <WB_RX_NR_init>:
    6c68:	004136        	entry	a1, 32
    6c6b:	03bd           	mov.n	a11, a3
    6c6d:	04cd           	mov.n	a12, a4
    6c6f:	e4e631        	l32r	a3, 8 (d784 <p_ecnr_mem>)
    6c72:	e5b981        	l32r	a8, 358 (7a8 <RX_ECNR_PARA_init>)
    6c75:	0a0c           	movi.n	a10, 0
    6c77:	0329           	s32i.n	a2, a3, 0
    6c79:	0008e0        	callx8	a8
    6c7c:	e4e621        	l32r	a2, 14 (d778 <__bss_start>)
    6c7f:	e5aac1        	l32r	a12, 328 (a830 <fftorder_512_12b+0x3f0>)
    6c82:	03a8           	l32i.n	a10, a3, 0
    6c84:	02b8           	l32i.n	a11, a2, 0
    6c86:	e57f81        	l32r	a8, 284 (57a8 <HP_coef_setup>)
    6c89:	aaca           	add.n	a10, a10, a12
    6c8b:	01dbb2        	addmi	a11, a11, 0x100
    6c8e:	34cbb2        	addi	a11, a11, 52
    6c91:	0008e0        	callx8	a8
    6c94:	e5b2b1        	l32r	a11, 35c (9600 <ln_coef_51+0x80>)
    6c97:	03a8           	l32i.n	a10, a3, 0
    6c99:	02c8           	l32i.n	a12, a2, 0
    6c9b:	e5b181        	l32r	a8, 360 (6ab0 <WB_NR_init>)
    6c9e:	aaba           	add.n	a10, a10, a11
    6ca0:	1b0c           	movi.n	a11, 1
    6ca2:	0008e0        	callx8	a8
    6ca5:	f01d           	retw.n

00006ca7 <WB_RX_NR_init+0x3f>:
	...

00006ca8 <WB_RX_NR_frame_process>:
    6ca8:	004136        	entry	a1, 32
    6cab:	02ad           	mov.n	a10, a2
    6cad:	e4d641        	l32r	a4, 8 (d784 <p_ecnr_mem>)
    6cb0:	f0a0d2        	movi	a13, 240
    6cb3:	e5a6c1        	l32r	a12, 34c (a868 <__switch_array_56+0x28>)
    6cb6:	04b8           	l32i.n	a11, a4, 0
    6cb8:	e5ab31        	l32r	a3, 364 (a864 <__switch_array_56+0x24>)
    6cbb:	e58881        	l32r	a8, 2dc (5c18 <emph_filter_N>)
    6cbe:	cbca           	add.n	a12, a11, a12
    6cc0:	80bb30        	add	a11, a11, a3
    6cc3:	0008e0        	callx8	a8
    6cc6:	02bd           	mov.n	a11, a2
    6cc8:	02cd           	mov.n	a12, a2
    6cca:	04a8           	l32i.n	a10, a4, 0
    6ccc:	e5a4e1        	l32r	a14, 35c (9600 <ln_coef_51+0x80>)
    6ccf:	e5a681        	l32r	a8, 368 (6d08 <WB_NR_frame_process>)
    6cd2:	29dad2        	addmi	a13, a10, 0x2900
    6cd5:	aaea           	add.n	a10, a10, a14
    6cd7:	7fddd2        	addmi	a13, a13, 0x7f00
    6cda:	212dd2        	l32i	a13, a13, 132
    6cdd:	0008e0        	callx8	a8
    6ce0:	02ad           	mov.n	a10, a2
    6ce2:	04c8           	l32i.n	a12, a4, 0
    6ce4:	e5a2d1        	l32r	a13, 36c (a86c <__switch_array_56+0x2c>)
    6ce7:	e58d81        	l32r	a8, 31c (5c64 <deemph_filter_N>)
    6cea:	bc3a           	add.n	a11, a12, a3
    6cec:	ccda           	add.n	a12, a12, a13
    6cee:	f0a0d2        	movi	a13, 240
    6cf1:	0008e0        	callx8	a8
    6cf4:	f01d           	retw.n

00006cf6 <WB_RX_NR_frame_process+0x4e>:
	...

00006cf8 <WB_TX_NR_init>:
    6cf8:	004136        	entry	a1, 32
    6cfb:	f01d           	retw.n

00006cfd <WB_TX_NR_init+0x5>:
    6cfd:	000000                                        ...

00006d00 <WB_TX_NR_frame_process>:
    6d00:	004136        	entry	a1, 32
    6d03:	f01d           	retw.n

00006d05 <WB_TX_NR_frame_process+0x5>:
    6d05:	000000                                        ...

00006d08 <WB_NR_frame_process>:
    6d08:	004136        	entry	a1, 32
    6d0b:	e59981        	l32r	a8, 370 (7074 <fft_wo>)
    6d0e:	03bd           	mov.n	a11, a3
    6d10:	02ad           	mov.n	a10, a2
    6d12:	0008e0        	callx8	a8
    6d15:	e59781        	l32r	a8, 374 (72f4 <NR_vad1>)
    6d18:	02ad           	mov.n	a10, a2
    6d1a:	0008e0        	callx8	a8
    6d1d:	e59681        	l32r	a8, 378 (746c <NR_vad2>)
    6d20:	02ad           	mov.n	a10, a2
    6d22:	0008e0        	callx8	a8
    6d25:	e59581        	l32r	a8, 37c (75bc <NR_NoiseEstimate>)
    6d28:	02ad           	mov.n	a10, a2
    6d2a:	0008e0        	callx8	a8
    6d2d:	e59481        	l32r	a8, 380 (76c8 <NR_NoiseWithGain>)
    6d30:	02ad           	mov.n	a10, a2
    6d32:	0008e0        	callx8	a8
    6d35:	e59381        	l32r	a8, 384 (7784 <NR_WienerFilter>)
    6d38:	20a220        	or	a10, a2, a2
    6d3b:	0008e0        	callx8	a8
    6d3e:	04bd           	mov.n	a11, a4
    6d40:	05cd           	mov.n	a12, a5
    6d42:	090c           	movi.n	a9, 0
    6d44:	058d           	mov.n	a8, a5
    6d46:	00a2a2        	movi	a10, 0x200
    6d49:	028a76        	loop	a10, 6d4f <WB_NR_frame_process+0x47>
    6d4c:	09c894        	ae_s16ip	a9, a8, 2

00006d4f <WB_NR_frame_process+0x47>:
    6d4f:	e58e81        	l32r	a8, 388 (7a40 <ifft_wo>)
    6d52:	20a220        	or	a10, a2, a2
    6d55:	0008e0        	callx8	a8
    6d58:	f01d           	retw.n

00006d5a <WB_NR_frame_process+0x52>:
	...

00006d5c <NB_NR_init>:
    6d5c:	004136        	entry	a1, 32
    6d5f:	02ad           	mov.n	a10, a2
    6d61:	e4d981        	l32r	a8, c8 (8808 <xt_memset>)
    6d64:	00a0b2        	movi	a11, 0
    6d67:	e573c1        	l32r	a12, 334 (918 <HIFI_sqrt_ie+0x40>)
    6d6a:	0008e0        	callx8	a8
    6d6d:	e57281        	l32r	a8, 338 (6aa0 <complement_para>)
    6d70:	e4a931        	l32r	a3, 14 (d778 <__bss_start>)
    6d73:	09d2a2        	addmi	a10, a2, 0x900
    6d76:	11d2d2        	addmi	a13, a2, 0x1100
    6d79:	0023f2        	l32i	a15, a3, 0
    6d7c:	20cd42        	addi	a4, a13, 32
    6d7f:	24caa2        	addi	a10, a10, 36
    6d82:	3e9fb2        	l16si	a11, a15, 124
    6d85:	3d1f92        	l16ui	a9, a15, 122
    6d88:	371fe2        	l16ui	a14, a15, 110
    6d8b:	3c1fc2        	l16ui	a12, a15, 120
    6d8e:	351f52        	l16ui	a5, a15, 106
    6d91:	3f1f62        	l16ui	a6, a15, 126
    6d94:	105262        	s16i	a6, a2, 32
    6d97:	025252        	s16i	a5, a2, 4
    6d9a:	361ff2        	l16ui	a15, a15, 108
    6d9d:	1152f2        	s16i	a15, a2, 34
    6da0:	975df2        	s16i	a15, a13, 0x12e
    6da3:	0e52c2        	s16i	a12, a2, 28
    6da6:	0352e2        	s16i	a14, a2, 6
    6da9:	965dc2        	s16i	a12, a13, 0x12c
    6dac:	0f5292        	s16i	a9, a2, 30
    6daf:	0008e0        	callx8	a8
    6db2:	a28b           	addi.n	a10, a2, 8
    6db4:	03b8           	l32i.n	a11, a3, 0
    6db6:	e56181        	l32r	a8, 33c (6a20 <fill_vad_thrd_Nbands>)
    6db9:	4c0c           	movi.n	a12, 4
    6dbb:	70cbb2        	addi	a11, a11, 112
    6dbe:	0008e0        	callx8	a8
    6dc1:	80a0c2        	movi	a12, 128
    6dc4:	e55f81        	l32r	a8, 340 (6a50 <fill_EQ_gain>)
    6dc7:	03b8           	l32i.n	a11, a3, 0
    6dc9:	0ed2a2        	addmi	a10, a2, 0xe00
    6dcc:	f0caa2        	addi	a10, a10, -16
    6dcf:	02dbb2        	addmi	a11, a11, 0x200
    6dd2:	c8cbb2        	addi	a11, a11, -56
    6dd5:	0008e0        	callx8	a8
    6dd8:	e4bc81        	l32r	a8, c8 (8808 <xt_memset>)
    6ddb:	e55b61        	l32r	a6, 348 (a768 <fftorder_512_12b+0x328>)
    6dde:	e48aa1        	l32r	a10, 8 (d784 <p_ecnr_mem>)
    6de1:	170c           	movi.n	a7, 1
    6de3:	3202b2        	l8ui	a11, a2, 50
    6de6:	e569c1        	l32r	a12, 38c (b290 <win_rx_256_v3>)
    6de9:	3f64c2        	s32i	a12, a4, 252
    6dec:	20bb70        	or	a11, a11, a7
    6def:	3242b2        	s8i	a11, a2, 50
    6df2:	0aa8           	l32i.n	a10, a10, 0
    6df4:	03c8           	l32i.n	a12, a3, 0
    6df6:	e555b1        	l32r	a11, 34c (a868 <__switch_array_56+0x28>)
    6df9:	da6a           	add.n	a13, a10, a6
    6dfb:	401ce2        	l16ui	a14, a12, 128
    6dfe:	aaba           	add.n	a10, a10, a11
    6e00:	7e5de2        	s16i	a14, a13, 252
    6e03:	0b0c           	movi.n	a11, 0
    6e05:	411cc2        	l16ui	a12, a12, 130
    6e08:	7f5dc2        	s16i	a12, a13, 254
    6e0b:	6c0c           	movi.n	a12, 6
    6e0d:	0008e0        	callx8	a8
    6e10:	36c2a2        	addi	a10, a2, 54
    6e13:	e4aec1        	l32r	a12, cc (ffffb800 <_end+0xfffee074>)
    6e16:	e54ed1        	l32r	a13, 350 (b8000000 <_end+0xb7ff2874>)
    6e19:	7e0c           	movi.n	a14, 7
    6e1b:	01d252        	addmi	a5, a2, 0x100
    6e1e:	7cc552        	addi	a5, a5, 124
    6e21:	059d           	mov.n	a9, a5
    6e23:	2cae76        	loopgtz	a14, 6e53 <NB_NR_init+0xf7>
    6e26:	0abd           	mov.n	a11, a10
    6e28:	09d9           	s32i.n	a13, a9, 0
    6e2a:	994b           	addi.n	a9, a9, 4
    6e2c:	09cac4        	ae_s16ip	a12, a10, 2
    6e2f:	09cac4        	ae_s16ip	a12, a10, 2
    6e32:	09cac4        	ae_s16ip	a12, a10, 2
    6e35:	09cac4        	ae_s16ip	a12, a10, 2
    6e38:	09cac4        	ae_s16ip	a12, a10, 2
    6e3b:	09cac4        	ae_s16ip	a12, a10, 2
    6e3e:	09cac4        	ae_s16ip	a12, a10, 2
    6e41:	09cac4        	ae_s16ip	a12, a10, 2
    6e44:	09cac4        	ae_s16ip	a12, a10, 2
    6e47:	09cac4        	ae_s16ip	a12, a10, 2
    6e4a:	09cac4        	ae_s16ip	a12, a10, 2
    6e4d:	09cac4        	ae_s16ip	a12, a10, 2
    6e50:	18cba2        	addi	a10, a11, 24

00006e53 <NB_NR_init+0xf7>:
    6e53:	0023b2        	l32i	a11, a3, 0
    6e56:	09d2a2        	addmi	a10, a2, 0x900
    6e59:	e53781        	l32r	a8, 338 (6aa0 <complement_para>)
    6e5c:	10caa2        	addi	a10, a10, 16
    6e5f:	2e9bb2        	l16si	a11, a11, 92
    6e62:	0008e0        	callx8	a8
    6e65:	03b8           	l32i.n	a11, a3, 0
    6e67:	09d2a2        	addmi	a10, a2, 0x900
    6e6a:	e53381        	l32r	a8, 338 (6aa0 <complement_para>)
    6e6d:	14caa2        	addi	a10, a10, 20
    6e70:	2f9bb2        	l16si	a11, a11, 94
    6e73:	0008e0        	callx8	a8
    6e76:	0023b2        	l32i	a11, a3, 0
    6e79:	09d2a2        	addmi	a10, a2, 0x900
    6e7c:	e52f81        	l32r	a8, 338 (6aa0 <complement_para>)
    6e7f:	18caa2        	addi	a10, a10, 24
    6e82:	309bb2        	l16si	a11, a11, 96
    6e85:	0008e0        	callx8	a8
    6e88:	03b8           	l32i.n	a11, a3, 0
    6e8a:	09d2a2        	addmi	a10, a2, 0x900
    6e8d:	e52a81        	l32r	a8, 338 (6aa0 <complement_para>)
    6e90:	1ccaa2        	addi	a10, a10, 28
    6e93:	319bb2        	l16si	a11, a11, 98
    6e96:	0008e0        	callx8	a8
    6e99:	03b8           	l32i.n	a11, a3, 0
    6e9b:	09d2a2        	addmi	a10, a2, 0x900
    6e9e:	e52681        	l32r	a8, 338 (6aa0 <complement_para>)
    6ea1:	20caa2        	addi	a10, a10, 32
    6ea4:	329bb2        	l16si	a11, a11, 100
    6ea7:	0008e0        	callx8	a8
    6eaa:	9d6c           	movi.n	a13, -23
    6eac:	00a1f2        	movi	a15, 0x100
    6eaf:	08d2e2        	addmi	a14, a2, 0x800
    6eb2:	086c           	movi.n	a8, -32
    6eb4:	e455b1        	l32r	a11, 8 (d784 <p_ecnr_mem>)
    6eb7:	7c0c           	movi.n	a12, 7
    6eb9:	78a0a2        	movi	a10, 120
    6ebc:	3542a2        	s8i	a10, a2, 53
    6ebf:	3442c2        	s8i	a12, a2, 52
    6ec2:	0bb8           	l32i.n	a11, a11, 0
    6ec4:	0398           	l32i.n	a9, a3, 0
    6ec6:	e512c1        	l32r	a12, 310 (7fff0000 <_end+0x7ffe2874>)
    6ec9:	bb6a           	add.n	a11, a11, a6
    6ecb:	0998           	l32i.n	a9, a9, 0
    6ecd:	0299           	s32i.n	a9, a2, 0
    6ecf:	462bb2        	l32i	a11, a11, 0x118
    6ed2:	3c64b2        	s32i	a11, a4, 240
    6ed5:	10d992        	addmi	a9, a9, 0x1000
    6ed8:	dcc9b2        	addi	a11, a9, -36
    6edb:	3e64b2        	s32i	a11, a4, 248
    6ede:	b8c992        	addi	a9, a9, -72
    6ee1:	3d6492        	s32i	a9, a4, 244
    6ee4:	185272        	s16i	a7, a2, 48
    6ee7:	e51b91        	l32r	a9, 354 (40000000 <_end+0x3fff2874>)
    6eea:	975e82        	s16i	a8, a14, 0x12e
    6eed:	24c582        	addi	a8, a5, 36
    6ef0:	1552f2        	s16i	a15, a2, 42
    6ef3:	955ed2        	s16i	a13, a14, 0x12a
    6ef6:	4164c2        	s32i	a12, a4, 0x104
    6ef9:	028a76        	loop	a10, 6eff <NB_NR_init+0x1a3>
    6efc:	09e894        	ae_s32ip	a9, a8, 4
    6eff:	f01d           	retw.n

00006f01 <NB_NR_init+0x1a5>:
    6f01:	000000                                        ...

00006f04 <NB_RX_NR_init>:
    6f04:	004136        	entry	a1, 32
    6f07:	03bd           	mov.n	a11, a3
    6f09:	04cd           	mov.n	a12, a4
    6f0b:	e43f31        	l32r	a3, 8 (d784 <p_ecnr_mem>)
    6f0e:	e51281        	l32r	a8, 358 (7a8 <RX_ECNR_PARA_init>)
    6f11:	1a0c           	movi.n	a10, 1
    6f13:	0329           	s32i.n	a2, a3, 0
    6f15:	0008e0        	callx8	a8
    6f18:	e43fb1        	l32r	a11, 14 (d778 <__bss_start>)
    6f1b:	e503c1        	l32r	a12, 328 (a830 <fftorder_512_12b+0x3f0>)
    6f1e:	03a8           	l32i.n	a10, a3, 0
    6f20:	0bb8           	l32i.n	a11, a11, 0
    6f22:	e4d881        	l32r	a8, 284 (57a8 <HP_coef_setup>)
    6f25:	aaca           	add.n	a10, a10, a12
    6f27:	01dbb2        	addmi	a11, a11, 0x100
    6f2a:	60cbb2        	addi	a11, a11, 96
    6f2d:	0008e0        	callx8	a8
    6f30:	e50bb1        	l32r	a11, 35c (9600 <ln_coef_51+0x80>)
    6f33:	03a8           	l32i.n	a10, a3, 0
    6f35:	e51681        	l32r	a8, 390 (6d5c <NB_NR_init>)
    6f38:	aaba           	add.n	a10, a10, a11
    6f3a:	0008e0        	callx8	a8
    6f3d:	f01d           	retw.n

00006f3f <NB_RX_NR_init+0x3b>:
	...

00006f40 <NB_RX_NR_frame_process>:
    6f40:	004136        	entry	a1, 32
    6f43:	02ad           	mov.n	a10, a2
    6f45:	e43041        	l32r	a4, 8 (d784 <p_ecnr_mem>)
    6f48:	78a0d2        	movi	a13, 120
    6f4b:	e500c1        	l32r	a12, 34c (a868 <__switch_array_56+0x28>)
    6f4e:	04b8           	l32i.n	a11, a4, 0
    6f50:	e50531        	l32r	a3, 364 (a864 <__switch_array_56+0x24>)
    6f53:	e4e281        	l32r	a8, 2dc (5c18 <emph_filter_N>)
    6f56:	cbca           	add.n	a12, a11, a12
    6f58:	80bb30        	add	a11, a11, a3
    6f5b:	0008e0        	callx8	a8
    6f5e:	02bd           	mov.n	a11, a2
    6f60:	02cd           	mov.n	a12, a2
    6f62:	04a8           	l32i.n	a10, a4, 0
    6f64:	e4fee1        	l32r	a14, 35c (9600 <ln_coef_51+0x80>)
    6f67:	e50b81        	l32r	a8, 394 (6f90 <NB_NR_frame_process>)
    6f6a:	29dad2        	addmi	a13, a10, 0x2900
    6f6d:	aaea           	add.n	a10, a10, a14
    6f6f:	7fddd2        	addmi	a13, a13, 0x7f00
    6f72:	212dd2        	l32i	a13, a13, 132
    6f75:	0008e0        	callx8	a8
    6f78:	02ad           	mov.n	a10, a2
    6f7a:	04c8           	l32i.n	a12, a4, 0
    6f7c:	e4fcd1        	l32r	a13, 36c (a86c <__switch_array_56+0x2c>)
    6f7f:	e4e781        	l32r	a8, 31c (5c64 <deemph_filter_N>)
    6f82:	bc3a           	add.n	a11, a12, a3
    6f84:	ccda           	add.n	a12, a12, a13
    6f86:	78a0d2        	movi	a13, 120
    6f89:	0008e0        	callx8	a8
    6f8c:	f01d           	retw.n

00006f8e <NB_RX_NR_frame_process+0x4e>:
	...

00006f90 <NB_NR_frame_process>:
    6f90:	004136        	entry	a1, 32
    6f93:	e4f781        	l32r	a8, 370 (7074 <fft_wo>)
    6f96:	03bd           	mov.n	a11, a3
    6f98:	02ad           	mov.n	a10, a2
    6f9a:	0008e0        	callx8	a8
    6f9d:	e4f581        	l32r	a8, 374 (72f4 <NR_vad1>)
    6fa0:	02ad           	mov.n	a10, a2
    6fa2:	0008e0        	callx8	a8
    6fa5:	e4f481        	l32r	a8, 378 (746c <NR_vad2>)
    6fa8:	02ad           	mov.n	a10, a2
    6faa:	0008e0        	callx8	a8
    6fad:	e4f381        	l32r	a8, 37c (75bc <NR_NoiseEstimate>)
    6fb0:	02ad           	mov.n	a10, a2
    6fb2:	0008e0        	callx8	a8
    6fb5:	e4f281        	l32r	a8, 380 (76c8 <NR_NoiseWithGain>)
    6fb8:	02ad           	mov.n	a10, a2
    6fba:	0008e0        	callx8	a8
    6fbd:	e4f181        	l32r	a8, 384 (7784 <NR_WienerFilter>)
    6fc0:	20a220        	or	a10, a2, a2
    6fc3:	0008e0        	callx8	a8
    6fc6:	04bd           	mov.n	a11, a4
    6fc8:	05cd           	mov.n	a12, a5
    6fca:	090c           	movi.n	a9, 0
    6fcc:	058d           	mov.n	a8, a5
    6fce:	00a2a2        	movi	a10, 0x200
    6fd1:	028a76        	loop	a10, 6fd7 <NB_NR_frame_process+0x47>
    6fd4:	09c894        	ae_s16ip	a9, a8, 2

00006fd7 <NB_NR_frame_process+0x47>:
    6fd7:	e4ec81        	l32r	a8, 388 (7a40 <ifft_wo>)
    6fda:	20a220        	or	a10, a2, a2
    6fdd:	0008e0        	callx8	a8
    6fe0:	f01d           	retw.n

00006fe2 <NB_NR_frame_process+0x52>:
    6fe2:	00000000 41360000                                ......

00006fe8 <take_min_four>:
    6fe8:	004136        	entry	a1, 32
    6feb:	226d           	ae_l16si.n	a6, a2, 0
    6fed:	4823a6        	blti	a3, 2, 7039 <take_min_four+0x51>
    6ff0:	e41991        	l32r	a9, 54 (7fff <xtensa_fft8_32b+0xef>)
    6ff3:	e41871        	l32r	a7, 54 (7fff <xtensa_fft8_32b+0xef>)
    6ff6:	e41781        	l32r	a8, 54 (7fff <xtensa_fft8_32b+0xef>)
    6ff9:	222b           	addi.n	a2, a2, 2
    6ffb:	ffc342        	addi	a4, a3, -1
    6ffe:	10a476        	loopgtz	a4, 7012 <take_min_four+0x2a>
    7001:	223d           	ae_l16si.n	a3, a2, 0
    7003:	222b           	addi.n	a2, a2, 2
    7005:	14a367        	bge	a3, a6, 701d <take_min_four+0x35>
    7008:	079d           	mov.n	a9, a7
    700a:	087d           	mov.n	a7, a8
    700c:	068d           	mov.n	a8, a6
    700e:	036d           	mov.n	a6, a3

00007010 <take_min_four+0x28>:
    7010:	f03d           	nop.n

00007012 <take_min_four+0x2a>:
    7012:	479a           	add.n	a4, a7, a9
    7014:	268a           	add.n	a2, a6, a8
    7016:	224a           	add.n	a2, a2, a4
    7018:	112220        	slli	a2, a2, 14
    701b:	f01d           	retw.n

0000701d <take_min_four+0x35>:
    701d:	08a387        	bge	a3, a8, 7029 <take_min_four+0x41>
    7020:	079d           	mov.n	a9, a7
    7022:	087d           	mov.n	a7, a8
    7024:	038d           	mov.n	a8, a3
    7026:	fff986        	j	7010 <take_min_four+0x28>

00007029 <take_min_four+0x41>:
    7029:	06a377        	bge	a3, a7, 7033 <take_min_four+0x4b>
    702c:	079d           	mov.n	a9, a7
    702e:	037d           	mov.n	a7, a3
    7030:	fff706        	j	7010 <take_min_four+0x28>

00007033 <take_min_four+0x4b>:
    7033:	439390        	min	a9, a3, a9
    7036:	fff586        	j	7010 <take_min_four+0x28>

00007039 <take_min_four+0x51>:
    7039:	e40621        	l32r	a2, 54 (7fff <xtensa_fft8_32b+0xef>)
    703c:	e41f41        	l32r	a4, b8 (fffe <_end+0x2872>)
    703f:	262a           	add.n	a2, a6, a2
    7041:	224a           	add.n	a2, a2, a4
    7043:	112220        	slli	a2, a2, 14
    7046:	f01d           	retw.n

00007048 <equal_power>:
    7048:	004136        	entry	a1, 32
    704b:	c08450        	sub	a8, a4, a5
    704e:	017896        	bltz	a8, 7069 <equal_power+0x21>
    7051:	205440        	or	a5, a4, a4

00007054 <equal_power+0xc>:
    7054:	fcc322        	addi	a2, a3, -4
    7057:	083d           	mov.n	a3, a8
    7059:	08a676        	loopgtz	a6, 7065 <equal_power+0x1d>
    705c:	601214        	ae_lq32f.iu	aeq0, a2, 4
    705f:	3403a4        	ae_srlaq56	aeq0, aeq0, a3
    7062:	620204        	ae_sq32f.i	aeq0, a2, 0

00007065 <equal_power+0x1d>:
    7065:	052d           	mov.n	a2, a5
    7067:	f01d           	retw.n

00007069 <equal_power+0x21>:
    7069:	023d           	mov.n	a3, a2
    706b:	c08540        	sub	a8, a5, a4
    706e:	fff886        	j	7054 <equal_power+0xc>

00007071 <equal_power+0x29>:
    7071:	000000                                        ...

00007074 <fft_wo>:
    7074:	00a136        	entry	a1, 80
    7077:	340282        	l8ui	a8, a2, 52
    707a:	e4c771        	l32r	a7, 398 (a444 <fftorder_512_12b+0x4>)
    707d:	00a262        	movi	a6, 0x200
    7080:	0288f6        	bgeui	a8, 8, 7086 <fft_wo+0x12>
    7083:	0096c6        	j	72e2 <fft_wo+0x26e>
    7086:	f0a092        	movi	a9, 240
    7089:	2a0c           	movi.n	a10, 2
    708b:	0761a2        	s32i	a10, a1, 28
    708e:	6199           	s32i.n	a9, a1, 24

00007090 <fft_wo+0x1c>:
    7090:	61c8           	l32i.n	a12, a1, 24
    7092:	038d           	mov.n	a8, a3
    7094:	0a0c           	movi.n	a10, 0
    7096:	0cbd           	mov.n	a11, a12
    7098:	11dcf0        	slli	a13, a12, 1
    709b:	01d9           	s32i.n	a13, a1, 0
    709d:	2192b0        	srai	a9, a11, 2
    70a0:	14c0c0        	extui	a12, a12, 0, 2
    70a3:	09ac76        	loopgtz	a12, 70b0 <fft_wo+0x3c>
    70a6:	28ed           	ae_l16si.n	a14, a8, 0
    70a8:	882b           	addi.n	a8, a8, 2
    70aa:	60e1e0        	abs	a14, a14
    70ad:	20aae0        	or	a10, a10, a14

000070b0 <fft_wo+0x3c>:
    70b0:	f63b           	addi.n	a15, a6, 3
    70b2:	b3f660        	movgez	a15, a6, a6
    70b5:	21f2f0        	srai	a15, a15, 2
    70b8:	fe249441ff 	{ s32i.n	a15, a1, 16; ae_zeroq56	aeq2 }
    70bd:	23a976        	loopgtz	a9, 70e4 <fft_wo+0x70>
    70c0:	289d           	ae_l16si.n	a9, a8, 0
    70c2:	38bd           	ae_l16si.n	a11, a8, 2
    70c4:	0298c2        	l16si	a12, a8, 4
    70c7:	0398d2        	l16si	a13, a8, 6
    70ca:	609190        	abs	a9, a9
    70cd:	60b1b0        	abs	a11, a11
    70d0:	60c1c0        	abs	a12, a12
    70d3:	60d1d0        	abs	a13, a13
    70d6:	888b           	addi.n	a8, a8, 8
    70d8:	209a90        	or	a9, a10, a9
    70db:	2099b0        	or	a9, a9, a11
    70de:	2099c0        	or	a9, a9, a12
    70e1:	20a9d0        	or	a10, a9, a13
    70e4:	1592d2        	l16si	a13, a2, 42
    70e7:	0288           	l32i.n	a8, a2, 0
    70e9:	0a9d           	mov.n	a9, a10
    70eb:	10d2a2        	addmi	a10, a2, 0x1000
    70ee:	40e990        	nsa	a9, a9
    70f1:	f0c992        	addi	a9, a9, -16
    70f4:	18ca52        	addi	a5, a10, 24
    70f7:	872ab2        	l32i	a11, a10, 0x21c
    70fa:	a08680        	addx4	a8, a6, a8
    70fd:	0acd           	mov.n	a12, a10
    70ff:	440cc4        	ae_lp16x2f.i	aep0, a12, -16
    7102:	8189           	s32i.n	a8, a1, 32
    7104:	0c0c           	movi.n	a12, 0
    7106:	884b           	addi.n	a8, a8, 4
    7108:	f0caa2        	addi	a10, a10, -16
    710b:	9189           	s32i.n	a8, a1, 36
    710d:	5399c0        	max	a9, a9, a12
    7110:	442b04        	ae_lp16x2f.i	aep2, a11, 0
    7113:	1199           	s32i.n	a9, a1, 4
    7115:	4399d0        	min	a9, a9, a13
    7118:	031694        	wur.ae_sar	a9
    711b:	11d6e0        	slli	a13, a6, 2
    711e:	f82394219f 	{ s32i.n	a9, a1, 8; ae_sllssp24s	aep0, aep0 }
    7123:	e840d431df 	{ s32i.n	a13, a1, 12; ae_mulfp24s.hh	aeq1, aep0, aep2 }
    7128:	ea41b0619e 	{ l32i	a9, a1, 24; ae_mulfp24s.ll	aeq0, aep0, aep2 }
    712d:	3b1fa6        	blti	a15, 1, 716c <fft_wo+0xf8>
    7130:	ff0b           	addi.n	a15, a15, -1
    7132:	8188           	l32i.n	a8, a1, 32
    7134:	71e8           	l32i.n	a14, a1, 28
    7136:	91d8           	l32i.n	a13, a1, 36
    7138:	6298c4        	ae_sq32f.x	aeq1, a8, a12
    713b:	11eef0        	slli	a14, a14, 1
    713e:	628dc4        	ae_sq32f.x	aeq0, a13, a12
    7141:	08cd           	mov.n	a12, a8
    7143:	449a14        	ae_lp16x2f.iu	aep1, a10, 4

00007146 <fft_wo+0xd2>:
    7146:	f827ad9b1f 	{ ae_lp16x2f.iu	aep1, a11, 4; ae_sllssp24s	aep0, aep1 }
    714b:	278d           	ae_l16si.n	a8, a7, 0
    714d:	17af76        	loopgtz	a15, 7168 <fft_wo+0xf4>
    7150:	e8209077ef 	{ add	a7, a7, a14; ae_mulfp24s.hh	aeq0, aep0, aep1 }
    7155:	010974        	ae_mulfp24s.ll	aeq1, aep0, aep1
    7158:	628c84        	ae_sq32f.x	aeq0, a12, a8
    715b:	629d84        	ae_sq32f.x	aeq1, a13, a8
    715e:	278d           	ae_l16si.n	a8, a7, 0
    7160:	449a14        	ae_lp16x2f.iu	aep1, a10, 4
    7163:	f827ad9b1f 	{ ae_lp16x2f.iu	aep1, a11, 4; ae_sllssp24s	aep0, aep1 }

00007168 <fft_wo+0xf4>:
    7168:	77ea           	add.n	a7, a7, a14
    716a:	08cd           	mov.n	a12, a8

0000716c <fft_wo+0xf8>:
    716c:	0188           	l32i.n	a8, a1, 0
    716e:	41e8           	l32i.n	a14, a1, 16
    7170:	f91b           	addi.n	a15, a9, 1
    7172:	b3f990        	movgez	a15, a9, a9
    7175:	21f1f0        	srai	a15, a15, 1
    7178:	51f9           	s32i.n	a15, a1, 20
    717a:	c0eef0        	sub	a14, a14, a15
    717d:	882a           	add.n	a8, a8, a2
    717f:	10d892        	addmi	a9, a8, 0x1000
    7182:	f0c992        	addi	a9, a9, -16
    7185:	10d882        	addmi	a8, a8, 0x1000
    7188:	f4c882        	addi	a8, a8, -12
    718b:	09ad           	mov.n	a10, a9
    718d:	4408f4        	ae_lp16x2f.i	aep0, a8, -4
    7190:	10d282        	addmi	a8, a2, 0x1000
    7193:	f8d24ec88e 	{ addi	a8, a8, -20; ae_truncp24q48x2	aep1, aeq2, aeq2 }
    7198:	09ae76        	loopgtz	a14, 71a5 <fft_wo+0x131>
    719b:	fc0833881f 	{ ae_sp16x2f.iu	aep0, a8, 4; ae_abssp24s	aep0, aep0 }
    71a0:	dc046d8a1f 	{ ae_lp16x2f.iu	aep0, a10, 4; ae_orp48	aep1, aep1, aep0 }

000071a5 <fft_wo+0x131>:
    71a5:	44abf4        	ae_lp16x2f.iu	aep2, a11, -4
    71a8:	571ea6        	blti	a14, 1, 7203 <fft_wo+0x18f>
    71ab:	468814        	ae_sp16x2f.iu	aep0, a8, 4
    71ae:	81d8           	l32i.n	a13, a1, 32
    71b0:	0721f2        	l32i	a15, a1, 28
    71b3:	fa23b0914e 	{ l32i	a4, a1, 36; ae_sllssp24s	aep4, aep0 }
    71b8:	ea508ffe9e 	{ addi	a9, a14, -1; ae_mulfp24s.hl	aeq0, aep4, aep2 }
    71bd:	11fff0        	slli	a15, a15, 1
    71c0:	e951d3e44f 	{ or	a14, a4, a4; ae_mulfp24s.lh	aeq3, aep4, aep2 }
    71c5:	628dc4        	ae_sq32f.x	aeq0, a13, a12
    71c8:	62b4c4        	ae_sq32f.x	aeq3, a4, a12

000071cb <fft_wo+0x157>:
    71cb:	fd086d8a1f 	{ ae_lp16x2f.iu	aep0, a10, 4; ae_abssp24s	aep3, aep0 }
    71d0:	dd6453caaf 	{ or	a12, a10, a10; ae_orp48	aep3, aep1, aep3 }
    71d5:	1ea976        	loopgtz	a9, 71f7 <fft_wo+0x183>
    71d8:	f823e0079e 	{ l16si	a9, a7, 0; ae_sllssp24s	aep1, aep0 }
    71dd:	44abf4        	ae_lp16x2f.iu	aep2, a11, -4
    71e0:	ea449077ff 	{ add	a7, a7, a15; ae_mulfp24s.hl	aeq0, aep1, aep2 }
    71e5:	e845f3881f 	{ ae_sp16x2f.iu	aep0, a8, 4; ae_mulfp24s.lh	aeq1, aep1, aep2 }
    71ea:	fc08784d9f 	{ ae_sq32f.x	aeq0, a13, a9; ae_abssp24s	aep1, aep0 }
    71ef:	dd2c785e9f 	{ ae_sq32f.x	aeq1, a14, a9; ae_orp48	aep3, aep3, aep1 }
    71f4:	448c14        	ae_lp16x2f.iu	aep0, a12, 4

000071f7 <fft_wo+0x183>:
    71f7:	44abf4        	ae_lp16x2f.iu	aep2, a11, -4
    71fa:	07ad           	mov.n	a10, a7
    71fc:	77fa           	add.n	a7, a7, a15
    71fe:	f86ee00ace 	{ l16si	a12, a10, 0; ae_movp48	aep1, aep3 }

00007203 <fft_wo+0x18f>:
    7203:	009ed4        	ae_cvta32p24.h	a14, aep1
    7206:	001dd4        	ae_cvta32p24.l	a13, aep1
    7209:	5198           	l32i.n	a9, a1, 20
    720b:	11a8           	l32i.n	a10, a1, 4
    720d:	20dde0        	or	a13, a13, a14
    7210:	40edd0        	nsa	a13, a13
    7213:	43aad0        	min	a10, a10, a13
    7216:	1552a2        	s16i	a10, a2, 42
    7219:	440304        	ae_lp16x2f.i	aep0, a3, 0
    721c:	3e19a6        	blti	a9, 1, 725e <fft_wo+0x1ea>
    721f:	990b           	addi.n	a9, a9, -1
    7221:	91e8           	l32i.n	a14, a1, 36
    7223:	fa23f071fe 	{ l32i	a15, a1, 28; ae_sllssp24s	aep5, aep0 }
    7228:	e855f081de 	{ l32i	a13, a1, 32; ae_mulfp24s.lh	aeq1, aep5, aep2 }
    722d:	eb54b3881f 	{ ae_sp16x2f.iu	aep0, a8, 4; ae_mulfp24s.hl	aeq2, aep5, aep2 }
    7232:	11fff0        	slli	a15, a15, 1
    7235:	62adc4        	ae_sq32f.x	aeq2, a13, a12
    7238:	629ec4        	ae_sq32f.x	aeq1, a14, a12
    723b:	448314        	ae_lp16x2f.iu	aep0, a3, 4
    723e:	03cd           	mov.n	a12, a3
    7240:	1aa976        	loopgtz	a9, 725e <fft_wo+0x1ea>
    7243:	f823e0079e 	{ l16si	a9, a7, 0; ae_sllssp24s	aep1, aep0 }
    7248:	44abf4        	ae_lp16x2f.iu	aep2, a11, -4
    724b:	ea449077ff 	{ add	a7, a7, a15; ae_mulfp24s.hl	aeq0, aep1, aep2 }
    7250:	e845f3881f 	{ ae_sp16x2f.iu	aep0, a8, 4; ae_mulfp24s.lh	aeq1, aep1, aep2 }
    7255:	628d94        	ae_sq32f.x	aeq0, a13, a9
    7258:	629e94        	ae_sq32f.x	aeq1, a14, a9
    725b:	448c14        	ae_lp16x2f.iu	aep0, a12, 4

0000725e <fft_wo+0x1ea>:
    725e:	8c0c           	movi.n	a12, 8
    7260:	1d0c           	movi.n	a13, 1
    7262:	0e0c           	movi.n	a14, 0
    7264:	31f8           	l32i.n	a15, a1, 12
    7266:	02a8           	l32i.n	a10, a2, 0
    7268:	21b160        	srai	a11, a6, 1
    726b:	e3f081        	l32r	a8, 22c (8710 <sw_fft_32b_2811>)
    726e:	8bbd           	ae_sext16	a11, a11
    7270:	aafa           	add.n	a10, a10, a15
    7272:	0008e0        	callx8	a8
    7275:	2198           	l32i.n	a9, a1, 8
    7277:	7e2582        	l32i	a8, a5, 0x1f8
    727a:	b61b           	addi.n	a11, a6, 1
    727c:	b3b660        	movgez	a11, a6, a6
    727f:	f8c882        	addi	a8, a8, -8
    7282:	c099a0        	sub	a9, a9, a10
    7285:	165292        	s16i	a9, a2, 44
    7288:	21a1b0        	srai	a10, a11, 1
    728b:	02b8           	l32i.n	a11, a2, 0
    728d:	0d1aa6        	blti	a10, 1, 729e <fft_wo+0x22a>
    7290:	089d           	mov.n	a9, a8
    7292:	05aa76        	loopgtz	a10, 729b <fft_wo+0x227>
    7295:	5c8b14        	ae_lp24x2f.iu	aep0, a11, 8
    7298:	5e8914        	ae_sp24x2f.iu	aep0, a9, 8

0000729b <fft_wo+0x227>:
    729b:	169292        	l16si	a9, a2, 44

0000729e <fft_wo+0x22a>:
    729e:	7e2582        	l32i	a8, a5, 0x1f8
    72a1:	1a0c           	movi.n	a10, 1
    72a3:	11b9f0        	slli	a11, a9, 1
    72a6:	c0aab0        	sub	a10, a10, a11
    72a9:	0298           	l32i.n	a9, a2, 0
    72ab:	09d2b2        	addmi	a11, a2, 0x900
    72ae:	145ba2        	s16i	a10, a11, 40
    72b1:	3502b2        	l8ui	a11, a2, 53
    72b4:	5c0804        	ae_lp24x2f.i	aep0, a8, 0
    72b7:	fcc992        	addi	a9, a9, -4
    72ba:	f103c03bae 	{ addi	a10, a11, 3; ae_mulzaap24s.hh.ll	aeq3, aep0, aep0 }
    72bf:	1d1aa6        	blti	a10, 1, 72e0 <fft_wo+0x26c>
    72c2:	5c8814        	ae_lp24x2f.iu	aep0, a8, 8
    72c5:	fc5c402bae 	{ addi	a10, a11, 2; ae_roundsq32sym	aeq0, aeq3 }
    72ca:	0020f0        	nop
    72cd:	0aaa76        	loopgtz	a10, 72db <fft_wo+0x267>
    72d0:	f003b9c91f 	{ ae_sq32f.iu	aeq0, a9, 4; ae_mulzaap24s.hh.ll	aeq0, aep0, aep0 }
    72d5:	5c8814        	ae_lp24x2f.iu	aep0, a8, 8
    72d8:	060834        	ae_roundsq32sym	aeq0, aeq0

000072db <fft_wo+0x267>:
    72db:	624914        	ae_sq32f.iu	aeq0, a9, 4
    72de:	f01d           	retw.n

000072e0 <fft_wo+0x26c>:
    72e0:	f01d           	retw.n

000072e2 <fft_wo+0x26e>:
    72e2:	e42e71        	l32r	a7, 39c (a448 <fftorder_512_12b+0x8>)
    72e5:	00a162        	movi	a6, 0x100
    72e8:	78a0d2        	movi	a13, 120
    72eb:	4e0c           	movi.n	a14, 4
    72ed:	71e9           	s32i.n	a14, a1, 28
    72ef:	61d9           	s32i.n	a13, a1, 24
    72f1:	ff66c6        	j	7090 <fft_wo+0x1c>

000072f4 <NR_vad1>:
    72f4:	006136        	entry	a1, 48
    72f7:	0129           	s32i.n	a2, a1, 0
    72f9:	0248           	l32i.n	a4, a2, 0
    72fb:	340282        	l8ui	a8, a2, 52
    72fe:	1189           	s32i.n	a8, a1, 4
    7300:	44cb           	addi.n	a4, a4, 12
    7302:	0588b6        	bltui	a8, 8, 730b <NR_vad1+0x17>
    7305:	e42631        	l32r	a3, 3a0 (ae10 <wb_sb_ptn>)
    7308:	000086        	j	730e <NR_vad1+0x1a>

0000730b <NR_vad1+0x17>:
    730b:	e42631        	l32r	a3, 3a4 (ae40 <nb_sb_ptn>)

0000730e <NR_vad1+0x1a>:
    730e:	11a8           	l32i.n	a10, a1, 4
    7310:	604404        	ae_lq32f.i	aeq1, a4, 0
    7313:	147a16        	beqz	a10, 745e <NR_vad1+0x16a>
    7316:	0168           	l32i.n	a6, a1, 0
    7318:	907a30        	addx2	a7, a10, a3
    731b:	050c           	movi.n	a5, 0
    731d:	08d622        	addmi	a2, a6, 0x800
    7320:	10d662        	addmi	a6, a6, 0x1000
    7323:	fc2481866e 	{ addi	a6, a6, 24; ae_zeroq56	aeq0 }

00007328 <NR_vad1+0x34>:
    7328:	23ad           	ae_l16si.n	a10, a3, 0
    732a:	339d           	ae_l16si.n	a9, a3, 2
    732c:	c099a0        	sub	a9, a9, a10
    732f:	04a976        	loopgtz	a9, 7337 <NR_vad1+0x43>
    7332:	f8663d341f 	{ ae_lq32f.iu	aeq1, a4, 4; ae_addq56	aeq0, aeq0, aeq1 }

00007337 <NR_vad1+0x43>:
    7337:	364d04        	ae_nsaq56s	a13, aeq0
    733a:	9492b2        	l16si	a11, a2, 0x128
    733d:	e41a81        	l32r	a8, 3a8 (898 <Log2_norm>)
    7340:	f8cdc2        	addi	a12, a13, -8
    7343:	c0bbd0        	sub	a11, a11, a13
    7346:	fc24fe8c4f 	{ ae_slaasq56s	aeq1, aeq0, a12; nop }
    734b:	369a04        	ae_trunca32q48	a10, aeq1
    734e:	08cbb2        	addi	a11, a11, 8
    7351:	0008e0        	callx8	a8
    7354:	7f26e2        	l32i	a14, a6, 0x1fc
    7357:	604404        	ae_lq32f.i	aeq1, a4, 0
    735a:	332b           	addi.n	a3, a3, 2
    735c:	ee5a           	add.n	a14, a14, a5
    735e:	0ea9           	s32i.n	a10, a14, 0
    7360:	fc2480455e 	{ addi	a5, a5, 4; ae_zeroq56	aeq0 }
    7365:	bf9377        	bne	a3, a7, 7328 <NR_vad1+0x34>

00007368 <NR_vad1+0x74>:
    7368:	7f26e2        	l32i	a14, a6, 0x1fc
    736b:	0188           	l32i.n	a8, a1, 0
    736d:	11f8           	l32i.n	a15, a1, 4
    736f:	600e04        	ae_lq32f.i	aeq0, a14, 0
    7372:	01d892        	addmi	a9, a8, 0x100
    7375:	30c9b2        	addi	a11, a9, 48
    7378:	039882        	l16si	a8, a8, 6
    737b:	604944        	ae_lq32f.i	aeq1, a9, 16
    737e:	10c9a2        	addi	a10, a9, 16
    7381:	118800        	slli	a8, a8, 16
    7384:	36c834        	ae_cvtq48a32s	aeq3, a8
    7387:	0e8d           	mov.n	a8, a14
    7389:	0cbf16        	beqz	a15, 7458 <NR_vad1+0x164>
    738c:	01f8           	l32i.n	a15, a1, 0
    738e:	09dff2        	addmi	a15, a15, 0x900
    7391:	d644414f3e 	{ addi	a3, a15, 20; ae_ltq56s	b1, aeq1, aeq0 }
    7396:	10cff2        	addi	a15, a15, 16
    7399:	0fdd           	mov.n	a13, a15
    739b:	c3d310        	movf	a13, a3, b1
    739e:	441d04        	ae_lp16x2f.i	aep1, a13, 0
    73a1:	c19114        	ae_mulzaafq32sp16s.lh	aeq2, aeq0, aep1, aeq1, aep1
    73a4:	1188           	l32i.n	a8, a1, 4
    73a6:	622944        	ae_sq32f.i	aeq2, a9, 16
    73a9:	605b14        	ae_lq32f.iu	aeq1, a11, 4
    73ac:	d6480ff88e 	{ addi	a8, a8, -1; ae_ltq56s	b0, aeq0, aeq1 }
    73b1:	032d           	mov.n	a2, a3
    73b3:	0fcd           	mov.n	a12, a15
    73b5:	c3c300        	movf	a12, a3, b0
    73b8:	440c04        	ae_lp16x2f.i	aep0, a12, 0
    73bb:	0c008006df 	{ movi	a13, 6; ae_mulzaafq32sp16s.lh	aeq0, aeq0, aep0, aeq1, aep0 }
    73c0:	0c0c           	movi.n	a12, 0
    73c2:	620b04        	ae_sq32f.i	aeq0, a11, 0
    73c5:	fa32fd3e1f 	{ ae_lq32f.iu	aeq1, a14, 4; ae_subq56	aeq2, aeq2, aeq0 }
    73ca:	d6d47d1a1f 	{ ae_lq32f.iu	aeq0, a10, 4; ae_ltq56s	b1, aeq3, aeq2 }
    73cf:	339876        	loopnez	a8, 7406 <NR_vad1+0x112>
    73d2:	d648138fff 	{ or	a8, a15, a15; ae_ltq56s	b0, aeq0, aeq1 }
    73d7:	089d           	mov.n	a9, a8
    73d9:	d3cd10        	movt	a12, a13, b1
    73dc:	c38200        	movf	a8, a2, b0
    73df:	440804        	ae_lp16x2f.i	aep0, a8, 0
    73e2:	0c01006cde 	{ addi	a13, a12, 6; ae_mulzaafq32sp16s.lh	aeq0, aeq1, aep0, aeq0, aep0 }
    73e7:	620a04        	ae_sq32f.i	aeq0, a10, 0
    73ea:	609b14        	ae_lq32f.iu	aeq2, a11, 4
    73ed:	09a104        	ae_ltq56s	b0, aeq1, aeq2
    73f0:	c39200        	movf	a9, a2, b0
    73f3:	440904        	ae_lp16x2f.i	aep0, a9, 0
    73f6:	c18064        	ae_mulzaafq32sp16s.lh	aeq2, aeq1, aep0, aeq2, aep0
    73f9:	f8a2f9ab0f 	{ ae_sq32f.i	aeq2, a11, 0; ae_subq56	aeq0, aeq0, aeq2 }
    73fe:	d6c47d3e1f 	{ ae_lq32f.iu	aeq1, a14, 4; ae_ltq56s	b1, aeq3, aeq0 }
    7403:	601a14        	ae_lq32f.iu	aeq0, a10, 4

00007406 <NR_vad1+0x112>:
    7406:	7f2682        	l32i	a8, a6, 0x1fc
    7409:	d3cd10        	movt	a12, a13, b1
    740c:	481ca6        	blti	a12, 1, 7458 <NR_vad1+0x164>
    740f:	e3e791        	l32r	a9, 3ac (aaf8 <NR_immediate_num+0x8>)

00007412 <NR_vad1+0x11e>:
    7412:	600804        	ae_lq32f.i	aeq0, a8, 0
    7415:	01c8           	l32i.n	a12, a1, 0
    7417:	11a8           	l32i.n	a10, a1, 4
    7419:	440904        	ae_lp16x2f.i	aep0, a9, 0
    741c:	109cb2        	l16si	a11, a12, 32
    741f:	01dcc2        	addmi	a12, a12, 0x100
    7422:	58cc92        	addi	a9, a12, 88
    7425:	11bb00        	slli	a11, a11, 16
    7428:	78ccc2        	addi	a12, a12, 120
    742b:	604c84        	ae_lq32f.i	aeq1, a12, -32
    742e:	36cb34        	ae_cvtq48a32s	aeq3, a11
    7431:	0aac           	beqz.n	a10, 7455 <NR_vad1+0x161>
    7433:	0d008ffaae 	{ addi	a10, a10, -1; ae_mulzaafq32sp16s.lh	aeq2, aeq0, aep0, aeq1, aep0 }
    7438:	601814        	ae_lq32f.iu	aeq0, a8, 4
    743b:	faf73d391f 	{ ae_lq32f.iu	aeq1, a9, 4; ae_maxq56s	aeq2, aeq3, aeq2 }
    7440:	0c9a76        	loopnez	a10, 7450 <NR_vad1+0x15c>
    7443:	0c00f9a9ff 	{ ae_sq32f.i	aeq2, a9, -4; ae_mulzaafq32sp16s.lh	aeq1, aeq0, aep0, aeq1, aep0 }
    7448:	601814        	ae_lq32f.iu	aeq0, a8, 4
    744b:	faef3d391f 	{ ae_lq32f.iu	aeq1, a9, 4; ae_maxq56s	aeq2, aeq3, aeq1 }

00007450 <NR_vad1+0x15c>:
    7450:	6229f4        	ae_sq32f.i	aeq2, a9, -4
    7453:	f01d           	retw.n

00007455 <NR_vad1+0x161>:
    7455:	f01d           	retw.n

00007457 <NR_vad1+0x163>:
	...

00007458 <NR_vad1+0x164>:
    7458:	e3d691        	l32r	a9, 3b0 (aafc <NR_immediate_num+0xc>)
    745b:	ffecc6        	j	7412 <NR_vad1+0x11e>

0000745e <NR_vad1+0x16a>:
    745e:	0168           	l32i.n	a6, a1, 0
    7460:	10d662        	addmi	a6, a6, 0x1000
    7463:	18c662        	addi	a6, a6, 24
    7466:	ffbf86        	j	7368 <NR_vad1+0x74>

00007469 <NR_vad1+0x175>:
    7469:	000000                                        ...

0000746c <NR_vad2>:
    746c:	006136        	entry	a1, 48
    746f:	7ca1f2        	movi	a15, 0x17c
    7472:	340272        	l8ui	a7, a2, 52
    7475:	1812e2        	l16ui	a14, a2, 48
    7478:	021282        	l16ui	a8, a2, 4
    747b:	01d2b2        	addmi	a11, a2, 0x100
    747e:	58cba2        	addi	a10, a11, 88
    7481:	5ccb92        	addi	a9, a11, 92
    7484:	2199           	s32i.n	a9, a1, 8
    7486:	11a9           	s32i.n	a10, a1, 4
    7488:	7298e7        	bne	a8, a14, 74fe <NR_vad2+0x92>
    748b:	109252        	l16si	a5, a2, 32
    748e:	080c           	movi.n	a8, 0
    7490:	7ccb92        	addi	a9, a11, 124
    7493:	0199           	s32i.n	a9, a1, 0
    7495:	185282        	s16i	a8, a2, 48
    7498:	08d552        	addmi	a5, a5, 0x800
    749b:	115500        	slli	a5, a5, 16
    749e:	024716        	beqz	a7, 74c6 <NR_vad2+0x5a>
    74a1:	36c232        	addi	a3, a2, 54
    74a4:	204990        	or	a4, a9, a9
    74a7:	906770        	addx2	a6, a7, a7
    74aa:	b06620        	addx8	a6, a6, a2
    74ad:	36c662        	addi	a6, a6, 54

000074b0 <NR_vad2+0x44>:
    74b0:	e3c181        	l32r	a8, 3b4 (6fe8 <take_min_four>)
    74b3:	03ad           	mov.n	a10, a3
    74b5:	cb0c           	movi.n	a11, 12
    74b7:	0008e0        	callx8	a8
    74ba:	18c332        	addi	a3, a3, 24
    74bd:	5395a0        	max	a9, a5, a10
    74c0:	09e494        	ae_s32ip	a9, a4, 4
    74c3:	e99367        	bne	a3, a6, 74b0 <NR_vad2+0x44>

000074c6 <NR_vad2+0x5a>:
    74c6:	8a1c           	movi.n	a10, 24
    74c8:	3302d2        	l8ui	a13, a2, 51
    74cb:	1188           	l32i.n	a8, a1, 4
    74cd:	21f8           	l32i.n	a15, a1, 8
    74cf:	01cdd2        	addi	a13, a13, 1
    74d2:	74d0d0        	extui	a13, a13, 0, 8
    74d5:	3342d2        	s8i	a13, a2, 51
    74d8:	08ad66        	bnei	a13, 12, 74e4 <NR_vad2+0x78>
    74db:	00a0d2        	movi	a13, 0
    74de:	00a0e2        	movi	a14, 0
    74e1:	3342e2        	s8i	a14, a2, 51

000074e4 <NR_vad2+0x78>:
    74e4:	600ff4        	ae_lq32f.i	aeq0, a15, -4
    74e7:	909d20        	addx2	a9, a13, a2
    74ea:	1ec992        	addi	a9, a9, 30
    74ed:	079776        	loopnez	a7, 74f8 <NR_vad2+0x8c>
    74f0:	f8e3bd181f 	{ ae_lq32f.iu	aeq0, a8, 4; ae_roundsp16q48sym	aep0, aeq0 }
    74f5:	4389a4        	ae_sp16f.l.xu	aep0, a9, a10

000074f8 <NR_vad2+0x8c>:
    74f8:	1812e2        	l16ui	a14, a2, 48
    74fb:	000ac6        	j	752a <NR_vad2+0xbe>

000074fe <NR_vad2+0x92>:
    74fe:	0a9d           	mov.n	a9, a10
    7500:	330282        	l8ui	a8, a2, 51
    7503:	21a8           	l32i.n	a10, a1, 8
    7505:	b2fa           	add.n	a11, a2, a15
    7507:	908820        	addx2	a8, a8, a2
    750a:	600af4        	ae_lq32f.i	aeq0, a10, -4
    750d:	1ec882        	addi	a8, a8, 30
    7510:	479c           	beqz.n	a7, 7528 <NR_vad2+0xbc>
    7512:	18a0a2        	movi	a10, 24
    7515:	0c9776        	loopnez	a7, 7525 <NR_vad2+0xb9>
    7518:	f8e39a18af 	{ ae_lp16f.xu	aep1, a8, a10; ae_roundsp16q48sym	aep0, aeq0 }
    751d:	d806fd191f 	{ ae_lq32f.iu	aeq0, a9, 4; ae_minp24s	aep1, aep1, aep0 }
    7522:	421804        	ae_sp16f.l.i	aep1, a8, 0

00007525 <NR_vad2+0xb9>:
    7525:	1812e2        	l16ui	a14, a2, 48

00007528 <NR_vad2+0xbc>:
    7528:	01b9           	s32i.n	a11, a1, 0

0000752a <NR_vad2+0xbe>:
    752a:	1198           	l32i.n	a9, a1, 4
    752c:	fd24b001be 	{ l32i	a11, a1, 0; ae_zeroq56	aeq1 }
    7531:	fc20c01ece 	{ addi	a12, a14, 1; ae_zerop48	aep1 }
    7536:	1852c2        	s16i	a12, a2, 48
    7539:	0e87b6        	bltui	a7, 8, 754b <NR_vad2+0xdf>
    753c:	e3a0a1        	l32r	a10, 3bc (adf0 <wb_score_bands>)
    753f:	e39ed1        	l32r	a13, 3b8 (e38e4 <_end+0xd6158>)
    7542:	39add4        	ae_movpa24x2	aep2, a13, a13
    7545:	0002c6        	j	7554 <NR_vad2+0xe8>

00007548 <NR_vad2+0xdc>:
    7548:	000000                                        ...

0000754b <NR_vad2+0xdf>:
    754b:	e39da1        	l32r	a10, 3c0 (ae30 <nb_score_bands>)
    754e:	e39de1        	l32r	a14, 3c4 (124925 <_end+0x117199>)
    7551:	39aee4        	ae_movpa24x2	aep2, a14, a14

00007554 <NR_vad2+0xe8>:
    7554:	21e8           	l32i.n	a14, a1, 8
    7556:	feca82        	addi	a8, a10, -2
    7559:	12d2d2        	addmi	a13, a2, 0x1200
    755c:	6dd8           	l32i.n	a13, a13, 24
    755e:	a26b           	addi.n	a10, a2, 6
    7560:	600ef4        	ae_lq32f.i	aeq0, a14, -4
    7563:	fccdd2        	addi	a13, a13, -4
    7566:	01d2e2        	addmi	a14, a2, 0x100
    7569:	7ccee2        	addi	a14, a14, 124
    756c:	608e04        	ae_lq32f.i	aeq2, a14, 0
    756f:	259776        	loopnez	a7, 7598 <NR_vad2+0x12c>
    7572:	f8a2ec8a1f 	{ ae_lp16f.iu	aep0, a10, 2; ae_subq56	aeq0, aeq0, aeq2 }
    7577:	0ac084        	ae_cvtq48p24s.l	aeq3, aep0
    757a:	098304        	ae_ltq56s	b0, aeq3, aeq0
    757d:	f4caec881f 	{ ae_lp16f.iu	aep0, a8, 2; ae_mulafq32sp24s.l	aeq1, aeq0, aep2 }
    7582:	020076        	bf	b0, 7588 <NR_vad2+0x11c>
    7585:	079014        	ae_addsp24s	aep1, aep1, aep0

00007588 <NR_vad2+0x11c>:
    7588:	faa6fd191f 	{ ae_lq32f.iu	aeq0, a9, 4; ae_subq56	aeq2, aeq0, aeq3 }
    758d:	35a074        	ae_sraiq56	aeq2, aeq2, 1
    7590:	fad23d5b1f 	{ ae_lq32f.iu	aeq2, a11, 4; ae_truncp24q48x2	aep4, aeq2, aeq2 }
    7595:	52cd14        	ae_sp24f.l.iu	aep4, a13, 4

00007598 <NR_vad2+0x12c>:
    7598:	40da14        	ae_lp16f.iu	aep5, a10, 2
    759b:	0ac584        	ae_cvtq48p24s.l	aeq3, aep5
    759e:	d6cc42e2fe 	{ addi	a15, a2, 46; ae_ltq56s	b1, aeq3, aeq1 }
    75a3:	408814        	ae_lp16f.iu	aep0, a8, 2
    75a6:	2ec282        	addi	a8, a2, 46
    75a9:	070176        	bf	b1, 75b4 <NR_vad2+0x148>
    75ac:	079064        	ae_addsp24s	aep6, aep1, aep0
    75af:	426f04        	ae_sp16f.l.i	aep6, a15, 0
    75b2:	f01d           	retw.n

000075b4 <NR_vad2+0x148>:
    75b4:	421804        	ae_sp16f.l.i	aep1, a8, 0
    75b7:	f01d           	retw.n

000075b9 <NR_vad2+0x14d>:
    75b9:	000000                                        ...

000075bc <NR_NoiseEstimate>:
    75bc:	004136        	entry	a1, 32
    75bf:	0b0c           	movi.n	a11, 0
    75c1:	002252        	l32i	a5, a2, 0
    75c4:	0e92a2        	l16si	a10, a2, 28
    75c7:	eea0c2        	movi	a12, 238
    75ca:	08d582        	addmi	a8, a5, 0x800
    75cd:	11aac0        	slli	a10, a10, 4
    75d0:	0cd552        	addmi	a5, a5, 0xc00
    75d3:	b8c552        	addi	a5, a5, -72
    75d6:	209550        	or	a9, a5, a5
    75d9:	058c76        	loop	a12, 75e2 <NR_NoiseEstimate+0x26>
    75dc:	09e8a4        	ae_s32ip	a10, a8, 4
    75df:	09e9b4        	ae_s32ip	a11, a9, 4

000075e2 <NR_NoiseEstimate+0x26>:
    75e2:	481c           	movi.n	a8, 20
    75e4:	171292        	l16ui	a9, a2, 46
    75e7:	08d2a2        	addmi	a10, a2, 0x800
    75ea:	24ca62        	addi	a6, a10, 36
    75ed:	453897        	bltu	a8, a9, 7636 <NR_NoiseEstimate+0x7a>
    75f0:	3402b2        	l8ui	a11, a2, 52
    75f3:	0279b6        	bltui	a9, 7, 75f9 <NR_NoiseEstimate+0x3d>
    75f6:	002f86        	j	76b8 <NR_NoiseEstimate+0xfc>
    75f9:	462aa2        	l32i	a10, a10, 0x118

000075fc <NR_NoiseEstimate+0x40>:
    75fc:	6bbc           	beqz.n	a11, 7636 <NR_NoiseEstimate+0x7a>
    75fe:	11fbe0        	slli	a15, a11, 2
    7601:	10d2e2        	addmi	a14, a2, 0x1000
    7604:	0c0c           	movi.n	a12, 0
    7606:	e366d1        	l32r	a13, 3a0 (ae10 <wb_sb_ptn>)
    7609:	170c           	movi.n	a7, 1

0000760b <NR_NoiseEstimate+0x4f>:
    760b:	862e92        	l32i	a9, a14, 0x218
    760e:	99ca           	add.n	a9, a9, a12
    7610:	0998           	l32i.n	a9, a9, 0
    7612:	cc4b           	addi.n	a12, a12, 4
    7614:	1919e6        	bgei	a9, 1, 7631 <NR_NoiseEstimate+0x75>
    7617:	2d4d           	ae_l16si.n	a4, a13, 0
    7619:	3d3d           	ae_l16si.n	a3, a13, 2
    761b:	a08450        	addx4	a8, a4, a5
    761e:	0fa437        	bge	a4, a3, 7631 <NR_NoiseEstimate+0x75>
    7621:	c09340        	sub	a9, a3, a4
    7624:	539970        	max	a9, a9, a7
    7627:	06a976        	loopgtz	a9, 7631 <NR_NoiseEstimate+0x75>
    762a:	0898           	l32i.n	a9, a8, 0
    762c:	99aa           	add.n	a9, a9, a10
    762e:	09e894        	ae_s32ip	a9, a8, 4
    7631:	dd2b           	addi.n	a13, a13, 2
    7633:	d49cf7        	bne	a12, a15, 760b <NR_NoiseEstimate+0x4f>
    7636:	a0a172        	movi	a7, 0x1a0
    7639:	8396d2        	l16si	a13, a6, 0x106
    763c:	0238           	l32i.n	a3, a2, 0
    763e:	fcc542        	addi	a4, a5, -4
    7641:	8296c2        	l16si	a12, a6, 0x104
    7644:	350252        	l8ui	a5, a2, 53
    7647:	33cb           	addi.n	a3, a3, 12
    7649:	151cd7        	beq	a12, a13, 7662 <NR_NoiseEstimate+0xa6>
    764c:	03ad           	mov.n	a10, a3
    764e:	05ed           	mov.n	a14, a5
    7650:	e35e81        	l32r	a8, 3c8 (7048 <equal_power>)
    7653:	02d2b2        	addmi	a11, a2, 0x200
    7656:	a0cbb2        	addi	a11, a11, -96
    7659:	0008e0        	callx8	a8
    765c:	8356a2        	s16i	a10, a6, 0x106
    765f:	8256a2        	s16i	a10, a6, 0x104

00007662 <NR_NoiseEstimate+0xa6>:
    7662:	608304        	ae_lq32f.i	aeq2, a3, 0
    7665:	02d292        	addmi	a9, a2, 0x200
    7668:	fc2489c99e 	{ addi	a9, a9, -100; ae_zeroq56	aeq0 }
    766d:	169576        	loopnez	a5, 7687 <NR_NoiseEstimate+0xcb>
    7670:	448414        	ae_lp16x2f.iu	aep0, a4, 4
    7673:	24ad           	ae_l16si.n	a10, a4, 0
    7675:	605914        	ae_lq32f.iu	aeq1, a9, 4
    7678:	c18864        	ae_mulzaafq32sp16s.lh	aeq3, aeq1, aep0, aeq2, aep0
    767b:	1abc           	beqz.n	a10, 76b0 <NR_NoiseEstimate+0xf4>
    767d:	609314        	ae_lq32f.iu	aeq2, a3, 4
    7680:	f87b39b90f 	{ ae_sq32f.i	aeq3, a9, 0; ae_maxq56s	aeq0, aeq0, aeq3 }

00007685 <NR_NoiseEstimate+0xc9>:
    7685:	f03d           	nop.n

00007687 <NR_NoiseEstimate+0xcb>:
    7687:	364904        	ae_nsaq56s	a9, aeq0
    768a:	8b0c           	movi.n	a11, 8
    768c:	1dab97        	bge	a11, a9, 76ad <NR_NoiseEstimate+0xf1>
    768f:	8396c2        	l16si	a12, a6, 0x106
    7692:	f8c9a2        	addi	a10, a9, -8
    7695:	c0cca0        	sub	a12, a12, a10
    7698:	8356c2        	s16i	a12, a6, 0x106
    769b:	e58c           	beqz.n	a5, 76ad <NR_NoiseEstimate+0xf1>
    769d:	827a           	add.n	a8, a2, a7
    769f:	401a00        	ssl	a10
    76a2:	079576        	loopnez	a5, 76ad <NR_NoiseEstimate+0xf1>
    76a5:	0898           	l32i.n	a9, a8, 0
    76a7:	a19900        	sll	a9, a9
    76aa:	09e894        	ae_s32ip	a9, a8, 4
    76ad:	f01d           	retw.n

000076af <NR_NoiseEstimate+0xf3>:
	...

000076b0 <NR_NoiseEstimate+0xf4>:
    76b0:	f86b3d531f 	{ ae_lq32f.iu	aeq2, a3, 4; ae_maxq56s	aeq0, aeq0, aeq1 }
    76b5:	fff306        	j	7685 <NR_NoiseEstimate+0xc9>

000076b8 <NR_NoiseEstimate+0xfc>:
    76b8:	05b9f6        	bgeui	a9, 16, 76c1 <NR_NoiseEstimate+0x105>
    76bb:	472aa2        	l32i	a10, a10, 0x11c
    76be:	ffce86        	j	75fc <NR_NoiseEstimate+0x40>

000076c1 <NR_NoiseEstimate+0x105>:
    76c1:	482aa2        	l32i	a10, a10, 0x120
    76c4:	ffcd06        	j	75fc <NR_NoiseEstimate+0x40>

000076c7 <NR_NoiseEstimate+0x10b>:
	...

000076c8 <NR_NoiseWithGain>:
    76c8:	004136        	entry	a1, 32
    76cb:	02ed           	mov.n	a14, a2
    76cd:	02c8           	l32i.n	a12, a2, 0
    76cf:	171232        	l16ui	a3, a2, 46
    76d2:	340222        	l8ui	a2, a2, 52
    76d5:	08dcc2        	addmi	a12, a12, 0x800
    76d8:	5573b6        	bltui	a3, 7, 7731 <NR_NoiseWithGain+0x69>
    76db:	0f9e52        	l16si	a5, a14, 30
    76de:	5f1c           	movi.n	a15, 21
    76e0:	62f3f0        	saltu	a15, a3, a15
    76e3:	d51b           	addi.n	a13, a5, 1
    76e5:	21d1d0        	srai	a13, a13, 1
    76e8:	40ddd2        	addmi	a13, a13, 0x4000
    76eb:	935df0        	movnez	a5, a13, a15
    76ee:	f2bc           	beqz.n	a2, 7731 <NR_NoiseWithGain+0x69>
    76f0:	300554        	ae_cvtp24a16x2.ll	aep0, a5, a5
    76f3:	11b2e0        	slli	a11, a2, 2
    76f6:	10dea2        	addmi	a10, a14, 0x1000
    76f9:	060c           	movi.n	a6, 0
    76fb:	e32971        	l32r	a7, 3a0 (ae10 <wb_sb_ptn>)
    76fe:	01a0d2        	movi	a13, 1

00007701 <NR_NoiseWithGain+0x39>:
    7701:	862a42        	l32i	a4, a10, 0x218
    7704:	446a           	add.n	a4, a4, a6
    7706:	0448           	l32i.n	a4, a4, 0
    7708:	664b           	addi.n	a6, a6, 4
    770a:	1e14a6        	blti	a4, 1, 772c <NR_NoiseWithGain+0x64>
    770d:	279d           	ae_l16si.n	a9, a7, 0
    770f:	378d           	ae_l16si.n	a8, a7, 2
    7711:	a029c0        	addx4	a2, a9, a12
    7714:	14a987        	bge	a9, a8, 772c <NR_NoiseWithGain+0x64>
    7717:	c03890        	sub	a3, a8, a9
    771a:	5333d0        	max	a3, a3, a13
    771d:	0ba376        	loopgtz	a3, 772c <NR_NoiseWithGain+0x64>
    7720:	600204        	ae_lq32f.i	aeq0, a2, 0
    7723:	030214        	ae_mulfq32sp16s.l	aeq0, aeq0, aep0
    7726:	368304        	ae_trunca32q48	a3, aeq0
    7729:	09e234        	ae_s32ip	a3, a2, 4
    772c:	772b           	addi.n	a7, a7, 2
    772e:	cf96b7        	bne	a6, a11, 7701 <NR_NoiseWithGain+0x39>
    7731:	fccc42        	addi	a4, a12, -4
    7734:	4c0c04        	ae_lp24.i	aep0, a12, 0
    7737:	350e52        	l8ui	a5, a14, 53
    773a:	02de62        	addmi	a6, a14, 0x200
    773d:	08de92        	addmi	a9, a14, 0x800
    7740:	959982        	l16si	a8, a9, 0x12a
    7743:	a0c622        	addi	a2, a6, -96
    7746:	c0c662        	addi	a6, a6, -64
    7749:	886b           	addi.n	a8, a8, 6
    774b:	965982        	s16i	a8, a9, 0x12c
    774e:	600684        	ae_lq32f.i	aeq0, a6, -32
    7751:	f03d           	nop.n
    7753:	f03d           	nop.n
    7755:	0a9576        	loopnez	a5, 7763 <NR_NoiseWithGain+0x9b>
    7758:	f8e07d121f 	{ ae_lq32f.iu	aeq0, a2, 4; ae_mulrfq32sp24s.l	aeq1, aeq0, aep0 }
    775d:	4c8c14        	ae_lp24.iu	aep0, a12, 4
    7760:	625414        	ae_sq32f.iu	aeq1, a4, 4

00007763 <NR_NoiseWithGain+0x9b>:
    7763:	f01d           	retw.n

00007765 <NR_NoiseWithGain+0x9d>:
    7765:	000000                                        ...

00007768 <common_gain_limiter>:
    7768:	004136        	entry	a1, 32
    776b:	036d           	mov.n	a6, a3
    776d:	37a444        	ae_truncp24a32x2	aep2, a4, a4
    7770:	400304        	ae_lp16f.i	aep0, a3, 0
    7773:	f03d           	nop.n
    7775:	07a276        	loopgtz	a2, 7780 <common_gain_limiter+0x18>
    7778:	d80a6c862f 	{ ae_lp16f.iu	aep0, a6, 4; ae_maxp24s	aep1, aep2, aep0 }
    777d:	5216f4        	ae_sp24f.l.i	aep1, a6, -4

00007780 <common_gain_limiter+0x18>:
    7780:	062d           	mov.n	a2, a6
    7782:	f01d           	retw.n

00007784 <NR_WienerFilter>:
    7784:	008136        	entry	a1, 64
    7787:	350252        	l8ui	a5, a2, 53
    778a:	0288           	l32i.n	a8, a2, 0
    778c:	05d262        	addmi	a6, a2, 0x500
    778f:	08d292        	addmi	a9, a2, 0x800
    7792:	2cc972        	addi	a7, a9, 44
    7795:	9799d2        	l16si	a13, a9, 0x12e
    7798:	58c662        	addi	a6, a6, 88
    779b:	949992        	l16si	a9, a9, 0x128
    779e:	08d8a2        	addmi	a10, a8, 0x800
    77a1:	51a9           	s32i.n	a10, a1, 20
    77a3:	88cb           	addi.n	a8, a8, 12
    77a5:	4189           	s32i.n	a8, a1, 16
    77a7:	094d           	mov.n	a4, a9
    77a9:	0ea9d7        	bge	a9, a13, 77bb <NR_WienerFilter+0x37>
    77ac:	1169           	s32i.n	a6, a1, 4
    77ae:	0d4d           	mov.n	a4, a13
    77b0:	1a0c           	movi.n	a10, 1
    77b2:	31a9           	s32i.n	a10, a1, 12
    77b4:	000246        	j	77c1 <NR_WienerFilter+0x3d>

000077b7 <NR_WienerFilter+0x33>:
    77b7:	00000000                                ....

000077bb <NR_WienerFilter+0x37>:
    77bb:	1189           	s32i.n	a8, a1, 4
    77bd:	0c0c           	movi.n	a12, 0
    77bf:	31c9           	s32i.n	a12, a1, 12

000077c1 <NR_WienerFilter+0x3d>:
    77c1:	809782        	l16si	a8, a7, 0x100
    77c4:	51e8           	l32i.n	a14, a1, 20
    77c6:	03a487        	bge	a4, a8, 77cd <NR_WienerFilter+0x49>
    77c9:	084d           	mov.n	a4, a8
    77cb:	11e9           	s32i.n	a14, a1, 4

000077cd <NR_WienerFilter+0x49>:
    77cd:	121947        	beq	a9, a4, 77e3 <NR_WienerFilter+0x5f>
    77d0:	09dd           	mov.n	a13, a9
    77d2:	11a8           	l32i.n	a10, a1, 4
    77d4:	41b8           	l32i.n	a11, a1, 16
    77d6:	e2fc81        	l32r	a8, 3c8 (7048 <equal_power>)
    77d9:	04cd           	mov.n	a12, a4
    77db:	05ed           	mov.n	a14, a5
    77dd:	0008e0        	callx8	a8
    77e0:	8197d2        	l16si	a13, a7, 0x102

000077e3 <NR_WienerFilter+0x5f>:
    77e3:	0d1d47        	beq	a13, a4, 77f4 <NR_WienerFilter+0x70>
    77e6:	11a8           	l32i.n	a10, a1, 4
    77e8:	06bd           	mov.n	a11, a6
    77ea:	e2f781        	l32r	a8, 3c8 (7048 <equal_power>)
    77ed:	04cd           	mov.n	a12, a4
    77ef:	05ed           	mov.n	a14, a5
    77f1:	0008e0        	callx8	a8

000077f4 <NR_WienerFilter+0x70>:
    77f4:	809782        	l16si	a8, a7, 0x100
    77f7:	0f1847        	beq	a8, a4, 780a <NR_WienerFilter+0x86>
    77fa:	11a8           	l32i.n	a10, a1, 4
    77fc:	51b8           	l32i.n	a11, a1, 20
    77fe:	08dd           	mov.n	a13, a8
    7800:	e2f281        	l32r	a8, 3c8 (7048 <equal_power>)
    7803:	04cd           	mov.n	a12, a4
    7805:	05ed           	mov.n	a14, a5
    7807:	0008e0        	callx8	a8

0000780a <NR_WienerFilter+0x86>:
    780a:	e212d1        	l32r	a13, 54 (7fff <xtensa_fft8_32b+0xef>)
    780d:	7e5742        	s16i	a4, a7, 252
    7810:	805742        	s16i	a4, a7, 0x100
    7813:	815742        	s16i	a4, a7, 0x102
    7816:	4198           	l32i.n	a9, a1, 16
    7818:	51a8           	l32i.n	a10, a1, 20
    781a:	09d2c2        	addmi	a12, a2, 0x900
    781d:	44ccc2        	addi	a12, a12, 68
    7820:	0abd           	mov.n	a11, a10
    7822:	600a04        	ae_lq32f.i	aeq0, a10, 0
    7825:	fcc992        	addi	a9, a9, -4
    7828:	440c84        	ae_lp16x2f.i	aep0, a12, -32
    782b:	098d           	mov.n	a8, a9
    782d:	05d2a2        	addmi	a10, a2, 0x500
    7830:	78caa2        	addi	a10, a10, 120
    7833:	604a84        	ae_lq32f.i	aeq1, a10, -32
    7836:	06ad           	mov.n	a10, a6
    7838:	369576        	loopnez	a5, 7872 <NR_WienerFilter+0xee>
    783b:	fa6a3d781f 	{ ae_lq32f.iu	aeq3, a8, 4; ae_addq56	aeq2, aeq1, aeq0 }
    7840:	c188e4        	ae_mulzaafq32sp16s.lh	aeq3, aeq3, aep0, aeq2, aep0
    7843:	364e04        	ae_nsaq56s	a14, aeq0
    7846:	367f04        	ae_nsaq56s	a15, aeq3
    7849:	43eef0        	min	a14, a14, a15
    784c:	e9cef2        	addi	a15, a14, -23
    784f:	fc24febf8f 	{ ae_slaasq56s	aeq2, aeq3, a15; nop }
    7854:	36ac04        	ae_trunca32q48	a12, aeq2
    7857:	f8cee2        	addi	a14, a14, -8
    785a:	340e94        	ae_sllaq56	aeq0, aeq0, a14
    785d:	acac           	beqz.n	a12, 788b <NR_WienerFilter+0x107>
    785f:	368e04        	ae_trunca32q48	a14, aeq0
    7862:	d2cec0        	quos	a12, a14, a12

00007865 <NR_WienerFilter+0xe1>:
    7865:	601b14        	ae_lq32f.iu	aeq0, a11, 4
    7868:	0aed           	mov.n	a14, a10
    786a:	c0fdc0        	sub	a15, a13, a12
    786d:	605a14        	ae_lq32f.iu	aeq1, a10, 4
    7870:	0ef9           	s32i.n	a15, a14, 0

00007872 <NR_WienerFilter+0xee>:
    7872:	6199           	s32i.n	a9, a1, 24
    7874:	78a0f2        	movi	a15, 120
    7877:	11d282        	addmi	a8, a2, 0x1100
    787a:	22c232        	addi	a3, a2, 34
    787d:	2139           	s32i.n	a3, a1, 8
    787f:	20c842        	addi	a4, a8, 32
    7882:	023f57        	bltu	a15, a5, 7888 <NR_WienerFilter+0x104>
    7885:	002486        	j	791b <NR_WienerFilter+0x197>
    7888:	0001c6        	j	7893 <NR_WienerFilter+0x10f>

0000788b <NR_WienerFilter+0x107>:
    788b:	e1efc1        	l32r	a12, 48 (8000 <xtensa_fft8_32b+0xf0>)
    788e:	fff4c6        	j	7865 <NR_WienerFilter+0xe1>

00007891 <NR_WienerFilter+0x10d>:
	...

00007893 <NR_WienerFilter+0x10f>:
    7893:	400304        	ae_lp16f.i	aep0, a3, 0
    7896:	9498a2        	l16si	a10, a8, 0x128
    7899:	12d292        	addmi	a9, a2, 0x1200
    789c:	e2cc81        	l32r	a8, 3cc (7768 <common_gain_limiter>)
    789f:	24c992        	addi	a9, a9, 36
    78a2:	60c904        	ae_lq32f.i	aeq3, a9, 0
    78a5:	038ad4        	ae_mulfq32sp16s.l	aeq3, aeq3, aep0
    78a8:	06bd           	mov.n	a11, a6
    78aa:	36bc04        	ae_trunca32q48	a12, aeq3
    78ad:	0008e0        	callx8	a8
    78b0:	8494c2        	l16si	a12, a4, 0x108
    78b3:	0abd           	mov.n	a11, a10
    78b5:	119232        	l16si	a3, a2, 34
    78b8:	8594a2        	l16si	a10, a4, 0x10a
    78bb:	e2c481        	l32r	a8, 3cc (7768 <common_gain_limiter>)
    78be:	113300        	slli	a3, a3, 16
    78c1:	c0aac0        	sub	a10, a10, a12
    78c4:	03cd           	mov.n	a12, a3
    78c6:	0008e0        	callx8	a8
    78c9:	e2c081        	l32r	a8, 3cc (7768 <common_gain_limiter>)
    78cc:	379334        	ae_truncp24a32x2	aep1, a3, a3
    78cf:	0abd           	mov.n	a11, a10
    78d1:	12d2d2        	addmi	a13, a2, 0x1200
    78d4:	e2b3a1        	l32r	a10, 3a0 (ae10 <wb_sb_ptn>)
    78d7:	20cdd2        	addi	a13, a13, 32
    78da:	600d04        	ae_lq32f.i	aeq0, a13, 0
    78dd:	d4e62854ce 	{ l16si	a12, a4, 0x10a; ae_mulfq32sp16s.l	aeq0, aeq0, aep1 }
    78e2:	089aa2        	l16si	a10, a10, 16
    78e5:	368304        	ae_trunca32q48	a3, aeq0
    78e8:	01d9           	s32i.n	a13, a1, 0
    78ea:	c0aac0        	sub	a10, a10, a12
    78ed:	03cd           	mov.n	a12, a3
    78ef:	0008e0        	callx8	a8
    78f2:	e2b681        	l32r	a8, 3cc (7768 <common_gain_limiter>)
    78f5:	01b8           	l32i.n	a11, a1, 0
    78f7:	e2aa91        	l32r	a9, 3a0 (ae10 <wb_sb_ptn>)
    78fa:	37a334        	ae_truncp24a32x2	aep2, a3, a3
    78fd:	503b04        	ae_lp24f.i	aep3, a11, 0
    7900:	012b74        	ae_mulfp24s.ll	aeq1, aep2, aep3
    7903:	089992        	l16si	a9, a9, 16
    7906:	369304        	ae_trunca32q48	a3, aeq1
    7909:	0abd           	mov.n	a11, a10
    790b:	c0a590        	sub	a10, a5, a9
    790e:	03cd           	mov.n	a12, a3
    7910:	0008e0        	callx8	a8
    7913:	2188           	l32i.n	a8, a1, 8
    7915:	6198           	l32i.n	a9, a1, 24
    7917:	000586        	j	7931 <NR_WienerFilter+0x1ad>

0000791a <NR_WienerFilter+0x196>:
	...

0000791b <NR_WienerFilter+0x197>:
    791b:	05ad           	mov.n	a10, a5
    791d:	119232        	l16si	a3, a2, 34
    7920:	06bd           	mov.n	a11, a6
    7922:	e2aa81        	l32r	a8, 3cc (7768 <common_gain_limiter>)
    7925:	113300        	slli	a3, a3, 16
    7928:	03cd           	mov.n	a12, a3
    792a:	0008e0        	callx8	a8
    792d:	2188           	l32i.n	a8, a1, 8
    792f:	6198           	l32i.n	a9, a1, 24

00007931 <NR_WienerFilter+0x1ad>:
    7931:	02a8           	l32i.n	a10, a2, 0
    7933:	4124b2        	l32i	a11, a4, 0x104
    7936:	404804        	ae_lp16f.i	aep4, a8, 0
    7939:	368b34        	ae_cvtq48a32s	aeq2, a11
    793c:	d7f213899f 	{ or	a8, a9, a9; ae_mulfq32sp16s.l	aeq2, aeq2, aep4 }
    7941:	06bd           	mov.n	a11, a6
    7943:	f8f78fcaae 	{ addi	a10, a10, -4; ae_roundsp24q48sym	aep0, aeq2 }
    7948:	528a14        	ae_sp24f.l.iu	aep0, a10, 4
    794b:	528a14        	ae_sp24f.l.iu	aep0, a10, 4
    794e:	528a14        	ae_sp24f.l.iu	aep0, a10, 4
    7951:	500604        	ae_lp24f.i	aep0, a6, 0
    7954:	0e3516        	beqz	a5, 7a3b <NR_WienerFilter+0x2b7>
    7957:	605814        	ae_lq32f.iu	aeq1, a8, 4
    795a:	080d64        	ae_mulfq32sp24s.l	aeq1, aeq1, aep0
    795d:	f8e14000cf 	{ movi	a12, 0; ae_mulrfq32sp24s.l	aeq1, aeq1, aep0 }
    7962:	950b           	addi.n	a9, a5, -1
    7964:	621604        	ae_sq32f.i	aeq1, a6, 0
    7967:	528a14        	ae_sp24f.l.iu	aep0, a10, 4
    796a:	508b14        	ae_lp24f.iu	aep0, a11, 4
    796d:	0bed           	mov.n	a14, a11
    796f:	0abd           	mov.n	a11, a10
    7971:	169976        	loopnez	a9, 798b <NR_WienerFilter+0x207>
    7974:	601814        	ae_lq32f.iu	aeq0, a8, 4
    7977:	f8803f19ef 	{ ae_trunca32q48	a9, aeq1; ae_mulfq32sp24s.l	aeq0, aeq0, aep0 }
    797c:	080d14        	ae_mulrfq32sp24s.l	aeq1, aeq0, aep0
    797f:	53cc90        	max	a12, a12, a9
    7982:	621e04        	ae_sq32f.i	aeq1, a14, 0
    7985:	528b14        	ae_sp24f.l.iu	aep0, a11, 4
    7988:	508e14        	ae_lp24f.iu	aep0, a14, 4

0000798b <NR_WienerFilter+0x207>:
    798b:	369804        	ae_trunca32q48	a8, aeq1
    798e:	0bad           	mov.n	a10, a11
    7990:	f03d           	nop.n
    7992:	538c80        	max	a8, a12, a8

00007995 <NR_WienerFilter+0x211>:
    7995:	3198           	l32i.n	a9, a1, 12
    7997:	fc0c           	movi.n	a12, 15
    7999:	07a0b2        	movi	a11, 7
    799c:	ffc992        	addi	a9, a9, -1
    799f:	078916        	beqz	a9, 7a1b <NR_WienerFilter+0x297>

000079a2 <NR_WienerFilter+0x21e>:
    79a2:	3402d2        	l8ui	a13, a2, 52
    79a5:	0ed282        	addmi	a8, a2, 0xe00
    79a8:	590c           	movi.n	a9, 5
    79aa:	62bbd0        	saltu	a11, a11, a13
    79ad:	00a1d2        	movi	a13, 0x100
    79b0:	939cb0        	movnez	a9, a12, a11
    79b3:	1119a6        	blti	a9, 1, 79c8 <NR_WienerFilter+0x244>
    79b6:	378334        	ae_truncp24a32x2	aep0, a3, a3
    79b9:	02a976        	loopgtz	a9, 79bf <NR_WienerFilter+0x23b>
    79bc:	528a14        	ae_sp24f.l.iu	aep0, a10, 4

000079bf <NR_WienerFilter+0x23b>:
    79bf:	3402c2        	l8ui	a12, a2, 52
    79c2:	07a0b2        	movi	a11, 7
    79c5:	62bbc0        	saltu	a11, a11, a12

000079c8 <NR_WienerFilter+0x244>:
    79c8:	409884        	ae_lp16f.iu	aep1, a8, -16
    79cb:	3c24c2        	l32i	a12, a4, 240
    79ce:	80a092        	movi	a9, 128
    79d1:	02a8           	l32i.n	a10, a2, 0
    79d3:	939db0        	movnez	a9, a13, a11
    79d6:	5c2c04        	ae_lp24x2f.i	aep2, a12, 0
    79d9:	fccaa2        	addi	a10, a10, -4
    79dc:	eb28ae8a1f 	{ ae_lp24f.iu	aep0, a10, 4; ae_mulfp24s.hl	aeq2, aep2, aep1 }
    79e1:	3319a6        	blti	a9, 1, 7a18 <NR_WienerFilter+0x294>
    79e4:	b90b           	addi.n	a11, a9, -1
    79e6:	fbe02fdc1f 	{ ae_lp24x2f.iu	aep5, a12, 8; ae_mulrfq32sp24s.l	aeq2, aeq2, aep0 }
    79eb:	ea29eeaa1f 	{ ae_lp24f.iu	aep2, a10, 4; ae_mulfp24s.ll	aeq1, aep2, aep1 }
    79f0:	409814        	ae_lp16f.iu	aep1, a8, 2
    79f3:	f8e179acef 	{ ae_sq32f.i	aeq2, a12, -8; ae_mulrfq32sp24s.l	aeq1, aeq1, aep0 }
    79f8:	16ab76        	loopgtz	a11, 7a12 <NR_WienerFilter+0x28e>
    79fb:	ea34b99cff 	{ ae_sq32f.i	aeq1, a12, -4; ae_mulfp24s.hl	aeq0, aep5, aep1 }
    7a00:	ea35ec981f 	{ ae_lp16f.iu	aep1, a8, 2; ae_mulfp24s.ll	aeq1, aep5, aep1 }
    7a05:	f8e82fdc1f 	{ ae_lp24x2f.iu	aep5, a12, 8; ae_mulrfq32sp24s.l	aeq0, aeq0, aep2 }
    7a0a:	f8e96eaa1f 	{ ae_lp24f.iu	aep2, a10, 4; ae_mulrfq32sp24s.l	aeq1, aeq1, aep2 }
    7a0f:	620ce4        	ae_sq32f.i	aeq0, a12, -8

00007a12 <NR_WienerFilter+0x28e>:
    7a12:	621cf4        	ae_sq32f.i	aeq1, a12, -4
    7a15:	f01d           	retw.n

00007a17 <NR_WienerFilter+0x293>:
	...

00007a18 <NR_WienerFilter+0x294>:
    7a18:	f01d           	retw.n

00007a1a <NR_WienerFilter+0x296>:
	...

00007a1b <NR_WienerFilter+0x297>:
    7a1b:	819792        	l16si	a9, a7, 0x102
    7a1e:	40e880        	nsa	a8, a8
    7a21:	c09980        	sub	a9, a9, a8
    7a24:	815792        	s16i	a9, a7, 0x102
    7a27:	f77516        	beqz	a5, 79a2 <NR_WienerFilter+0x21e>
    7a2a:	401800        	ssl	a8
    7a2d:	079576        	loopnez	a5, 7a38 <NR_WienerFilter+0x2b4>
    7a30:	0698           	l32i.n	a9, a6, 0
    7a32:	a19900        	sll	a9, a9
    7a35:	09e694        	ae_s32ip	a9, a6, 4

00007a38 <NR_WienerFilter+0x2b4>:
    7a38:	ffd986        	j	79a2 <NR_WienerFilter+0x21e>

00007a3b <NR_WienerFilter+0x2b7>:
    7a3b:	080c           	movi.n	a8, 0
    7a3d:	ffd506        	j	7995 <NR_WienerFilter+0x211>

00007a40 <ifft_wo>:
    7a40:	00a136        	entry	a1, 80
    7a43:	026d           	mov.n	a6, a2
    7a45:	7139           	s32i.n	a3, a1, 28
    7a47:	340252        	l8ui	a5, a2, 52
    7a4a:	e262f1        	l32r	a15, 3d4 (aaf0 <NR_immediate_num>)
    7a4d:	0278           	l32i.n	a7, a2, 0
    7a4f:	10d2c2        	addmi	a12, a2, 0x1000
    7a52:	9149           	s32i.n	a4, a1, 36
    7a54:	91e8           	l32i.n	a14, a1, 36
    7a56:	18ccd2        	addi	a13, a12, 24
    7a59:	51d9           	s32i.n	a13, a1, 20
    7a5b:	842cc2        	l32i	a12, a12, 0x210
    7a5e:	0d0c           	movi.n	a13, 0
    7a60:	07d9           	s32i.n	a13, a7, 0
    7a62:	17d9           	s32i.n	a13, a7, 4
    7a64:	5c1c04        	ae_lp24x2f.i	aep1, a12, 0
    7a67:	444f04        	ae_lp16x2f.i	aep4, a15, 0
    7a6a:	445f14        	ae_lp16x2f.i	aep5, a15, 4
    7a6d:	1385b6        	bltui	a5, 8, 7a84 <ifft_wo+0x44>
    7a70:	00a232        	movi	a3, 0x200
    7a73:	120c           	movi.n	a2, 1
    7a75:	e25691        	l32r	a9, 3d0 (a442 <fftorder_512_12b+0x2>)
    7a78:	f0a052        	movi	a5, 240
    7a7b:	980c           	movi.n	a8, 9
    7a7d:	6189           	s32i.n	a8, a1, 24
    7a7f:	8159           	s32i.n	a5, a1, 32
    7a81:	000406        	j	7a95 <ifft_wo+0x55>

00007a84 <ifft_wo+0x44>:
    7a84:	00a132        	movi	a3, 0x100
    7a87:	220c           	movi.n	a2, 2
    7a89:	e24391        	l32r	a9, 398 (a444 <fftorder_512_12b+0x4>)
    7a8c:	78a0a2        	movi	a10, 120
    7a8f:	8b0c           	movi.n	a11, 8
    7a91:	61b9           	s32i.n	a11, a1, 24
    7a93:	81a9           	s32i.n	a10, a1, 32

00007a95 <ifft_wo+0x55>:
    7a95:	1696a2        	l16si	a10, a6, 44
    7a98:	440e04        	ae_lp16x2f.i	aep0, a14, 0
    7a9b:	0ebd           	mov.n	a11, a14
    7a9d:	2ada96        	bltz	a10, 7d4e <ifft_wo+0x30e>
    7aa0:	0316d4        	wur.ae_sar	a13
    7aa3:	0a4d           	mov.n	a4, a10

00007aa5 <ifft_wo+0x65>:
    7aa5:	f8a38013ae 	{ addi	a10, a3, 1; ae_srasp24	aep0, aep0 }
    7aaa:	b3a330        	movgez	a10, a3, a3
    7aad:	21f1a0        	srai	a15, a10, 1
    7ab0:	021fe6        	bgei	a15, 1, 7ab6 <ifft_wo+0x76>
    7ab3:	002886        	j	7b59 <ifft_wo+0x119>
    7ab6:	11e2f0        	slli	a14, a2, 1
    7ab9:	1b6a17        	bbci	a10, 1, 7ad8 <ifft_wo+0x98>
    7abc:	df05be10df 	{ ae_selp24.hl	aep3, aep1, aep0; ae_selp24.lh	aep6, aep1, aep0 }
    7ac1:	f0bae0095e 	{ l16si	a5, a9, 0; ae_mulzaafp24s.hh.ll	aeq1, aep6, aep5 }
    7ac6:	f08e91929f 	{ addx2	a9, a2, a9; ae_mulzaafp24s.hh.ll	aeq0, aep3, aep4 }
    7acb:	5c9c14        	ae_lp24x2f.iu	aep1, a12, 8
    7ace:	f9462d8b1f 	{ ae_lp16x2f.iu	aep0, a11, 4; ae_truncp24q48x2	aep2, aeq0, aeq1 }
    7ad3:	f8a3a9275f 	{ ae_sp24x2f.x	aep2, a7, a5; ae_srasp24	aep0, aep0 }

00007ad8 <ifft_wo+0x98>:
    7ad8:	21a1f0        	srai	a10, a15, 1
    7adb:	07aa16        	beqz	a10, 7b59 <ifft_wo+0x119>
    7ade:	29dd           	ae_l16si.n	a13, a9, 0
    7ae0:	5c3c14        	ae_lp24x2f.i	aep3, a12, 8
    7ae3:	8a0b           	addi.n	a8, a10, -1
    7ae5:	df04d059ef 	{ add	a5, a9, a14; ae_selp24.hl	aep7, aep1, aep0 }
    7aea:	f19ebe10af 	{ ae_selp24.lh	aep2, aep1, aep0; ae_mulzaafp24s.hh.ll	aeq2, aep7, aep4 }
    7aef:	f1aaed6b1f 	{ ae_lp16x2f.i	aep6, a11, 4; ae_mulzaafp24s.hh.ll	aeq3, aep2, aep5 }
    7af4:	fbbb93a55f 	{ or	a10, a5, a5; ae_srasp24	aep6, aep6 }
    7af9:	fbd67e369f 	{ ae_selp24.hl	aep2, aep3, aep6; ae_truncp24q48x2	aep7, aeq2, aeq3 }
    7afe:	ddcde977df 	{ ae_sp24x2f.x	aep7, a7, a13; ae_selp24.lh	aep3, aep3, aep6 }
    7b03:	f0aeef8c2f 	{ ae_lp24x2f.iu	aep0, a12, 16; ae_mulzaafp24s.hh.ll	aeq1, aep3, aep5 }
    7b08:	f08aad9b2f 	{ ae_lp16x2f.iu	aep1, a11, 8; ae_mulzaafp24s.hh.ll	aeq0, aep2, aep4 }
    7b0d:	f8a7e0059e 	{ l16si	a9, a5, 0; ae_srasp24	aep1, aep1 }
    7b12:	0020f0        	nop
    7b15:	36a876        	loopgtz	a8, 7b4f <ifft_wo+0x10f>
    7b18:	dd20908aef 	{ add	a8, a10, a14; ae_selp24.hl	aep2, aep0, aep1 }
    7b1d:	f94650a8ef 	{ add	a10, a8, a14; ae_truncp24q48x2	aep3, aeq0, aeq1 }
    7b22:	f08ae9379f 	{ ae_sp24x2f.x	aep3, a7, a9; ae_mulzaafp24s.hh.ll	aeq1, aep2, aep4 }
    7b27:	dd21ed2b1f 	{ ae_lp16x2f.i	aep2, a11, 4; ae_selp24.lh	aep3, aep0, aep1 }
    7b2c:	f0aea0089e 	{ l16si	a9, a8, 0; ae_mulzaafp24s.hh.ll	aeq0, aep3, aep5 }
    7b31:	f9abef2c1f 	{ ae_lp24x2f.i	aep2, a12, 8; ae_srasp24	aep3, aep2 }
    7b36:	f84a7e232f 	{ ae_selp24.lh	aep0, aep2, aep3; ae_truncp24q48x2	aep1, aeq1, aeq0 }
    7b3b:	f0a2e9179f 	{ ae_sp24x2f.x	aep1, a7, a9; ae_mulzaafp24s.hh.ll	aeq1, aep0, aep5 }
    7b40:	dd68edab2f 	{ ae_lp16x2f.iu	aep2, a11, 8; ae_selp24.hl	aep3, aep2, aep3 }
    7b45:	f08ea00a9e 	{ l16si	a9, a10, 0; ae_mulzaafp24s.hh.ll	aeq0, aep3, aep4 }
    7b4a:	f8abef8c2f 	{ ae_lp24x2f.iu	aep0, a12, 16; ae_srasp24	aep1, aep2 }

00007b4f <ifft_wo+0x10f>:
    7b4f:	095d           	mov.n	a5, a9
    7b51:	f946509aef 	{ add	a9, a10, a14; ae_truncp24q48x2	aep3, aeq0, aeq1 }
    7b56:	5f3754        	ae_sp24x2f.x	aep3, a7, a5

00007b59 <ifft_wo+0x119>:
    7b59:	feb86d8bef 	{ ae_lp16x2f.iu	aep0, a11, -8; ae_negsp24s	aep5, aep5 }
    7b5e:	f8a3af9cef 	{ ae_lp24x2f.iu	aep1, a12, -16; ae_srasp24	aep0, aep0 }
    7b63:	022fe6        	bgei	a15, 2, 7b69 <ifft_wo+0x129>
    7b66:	002786        	j	7c08 <ifft_wo+0x1c8>
    7b69:	11e2f0        	slli	a14, a2, 1
    7b6c:	af0b           	addi.n	a10, a15, -1
    7b6e:	1b6a07        	bbci	a10, 0, 7b8d <ifft_wo+0x14d>
    7b71:	df05be10df 	{ ae_selp24.hl	aep3, aep1, aep0; ae_selp24.lh	aep6, aep1, aep0 }
    7b76:	f09ae0098e 	{ l16si	a8, a9, 0; ae_mulzaafp24s.hh.ll	aeq1, aep6, aep4 }
    7b7b:	f0ae91929f 	{ addx2	a9, a2, a9; ae_mulzaafp24s.hh.ll	aeq0, aep3, aep5 }
    7b80:	5c9cf4        	ae_lp24x2f.iu	aep1, a12, -8
    7b83:	f9462d8bff 	{ ae_lp16x2f.iu	aep0, a11, -4; ae_truncp24q48x2	aep2, aeq0, aeq1 }
    7b88:	f8a3a9278f 	{ ae_sp24x2f.x	aep2, a7, a8; ae_srasp24	aep0, aep0 }

00007b8d <ifft_wo+0x14d>:
    7b8d:	21a1a0        	srai	a10, a10, 1
    7b90:	074a16        	beqz	a10, 7c08 <ifft_wo+0x1c8>
    7b93:	dd059059ef 	{ add	a5, a9, a14; ae_selp24.lh	aep2, aep1, aep0 }
    7b98:	f18afe18df 	{ ae_selp24.hl	aep7, aep1, aep0; ae_mulzaafp24s.hh.ll	aeq3, aep2, aep4 }
    7b9d:	f1bea0098e 	{ l16si	a8, a9, 0; ae_mulzaafp24s.hh.ll	aeq2, aep7, aep5 }
    7ba2:	5c3cf4        	ae_lp24x2f.i	aep3, a12, -8
    7ba5:	fbd66d6bff 	{ ae_lp16x2f.i	aep6, a11, -4; ae_truncp24q48x2	aep7, aeq2, aeq3 }
    7baa:	fbbba9778f 	{ ae_sp24x2f.x	aep7, a7, a8; ae_srasp24	aep6, aep6 }
    7baf:	ddcca0059e 	{ l16si	a9, a5, 0; ae_selp24.hl	aep2, aep3, aep6 }
    7bb4:	ddcdef8cef 	{ ae_lp24x2f.iu	aep0, a12, -16; ae_selp24.lh	aep3, aep3, aep6 }
    7bb9:	f08eed9bef 	{ ae_lp16x2f.iu	aep1, a11, -8; ae_mulzaafp24s.hh.ll	aeq1, aep3, aep4 }
    7bbe:	f0aa8ffa8e 	{ addi	a8, a10, -1; ae_mulzaafp24s.hh.ll	aeq0, aep2, aep5 }
    7bc3:	f8a7d3a55f 	{ or	a10, a5, a5; ae_srasp24	aep1, aep1 }
    7bc8:	36a876        	loopgtz	a8, 7c02 <ifft_wo+0x1c2>
    7bcb:	dd20908aef 	{ add	a8, a10, a14; ae_selp24.hl	aep2, aep0, aep1 }
    7bd0:	f94650a8ef 	{ add	a10, a8, a14; ae_truncp24q48x2	aep3, aeq0, aeq1 }
    7bd5:	f0aae9379f 	{ ae_sp24x2f.x	aep3, a7, a9; ae_mulzaafp24s.hh.ll	aeq1, aep2, aep5 }
    7bda:	dd21ed2bff 	{ ae_lp16x2f.i	aep2, a11, -4; ae_selp24.lh	aep3, aep0, aep1 }
    7bdf:	f08ea0089e 	{ l16si	a9, a8, 0; ae_mulzaafp24s.hh.ll	aeq0, aep3, aep4 }
    7be4:	f9abef2cff 	{ ae_lp24x2f.i	aep2, a12, -8; ae_srasp24	aep3, aep2 }
    7be9:	f84a7e232f 	{ ae_selp24.lh	aep0, aep2, aep3; ae_truncp24q48x2	aep1, aeq1, aeq0 }
    7bee:	f082e9179f 	{ ae_sp24x2f.x	aep1, a7, a9; ae_mulzaafp24s.hh.ll	aeq1, aep0, aep4 }
    7bf3:	dd68edabef 	{ ae_lp16x2f.iu	aep2, a11, -8; ae_selp24.hl	aep3, aep2, aep3 }
    7bf8:	f0aea00a9e 	{ l16si	a9, a10, 0; ae_mulzaafp24s.hh.ll	aeq0, aep3, aep5 }
    7bfd:	f8abef8cef 	{ ae_lp24x2f.iu	aep0, a12, -16; ae_srasp24	aep1, aep2 }

00007c02 <ifft_wo+0x1c2>:
    7c02:	098d34        	ae_truncp24q48x2	aep3, aeq0, aeq1
    7c05:	5f3794        	ae_sp24x2f.x	aep3, a7, a9

00007c08 <ifft_wo+0x1c8>:
    7c08:	07ad           	mov.n	a10, a7
    7c0a:	83bd           	ae_sext16	a11, a3
    7c0c:	8c0c           	movi.n	a12, 8
    7c0e:	e18781        	l32r	a8, 22c (8710 <sw_fft_32b_2811>)
    7c11:	0d0c           	movi.n	a13, 0
    7c13:	01a0e2        	movi	a14, 1
    7c16:	0008e0        	callx8	a8
    7c19:	6158           	l32i.n	a5, a1, 24
    7c1b:	1696f2        	l16si	a15, a6, 44
    7c1e:	81b8           	l32i.n	a11, a1, 32
    7c20:	51c8           	l32i.n	a12, a1, 20
    7c22:	91d8           	l32i.n	a13, a1, 36
    7c24:	604704        	ae_lq32f.i	aeq1, a7, 0
    7c27:	09d692        	addmi	a9, a6, 0x900
    7c2a:	2cc992        	addi	a9, a9, 44
    7c2d:	601714        	ae_lq32f.iu	aeq0, a7, 4
    7c30:	fecdd2        	addi	a13, a13, -2
    7c33:	812cc2        	l32i	a12, a12, 0x204
    7c36:	c083b0        	sub	a8, a3, a11
    7c39:	c0faf0        	sub	a15, a10, a15
    7c3c:	c0ff50        	sub	a15, a15, a5
    7c3f:	4189           	s32i.n	a8, a1, 16
    7c41:	9158           	l32i.n	a5, a1, 36
    7c43:	fecca2        	addi	a10, a12, -2
    7c46:	9088c0        	addx2	a8, a8, a12
    7c49:	71c8           	l32i.n	a12, a1, 28
    7c4b:	ff4b           	addi.n	a15, a15, 4
    7c4d:	4f4a           	add.n	a4, a15, a4
    7c4f:	feccc2        	addi	a12, a12, -2
    7c52:	721ba6        	blti	a11, 1, 7cc8 <ifft_wo+0x288>
    7c55:	40a8f4        	ae_lp16f.iu	aep2, a8, -2
    7c58:	630104        	ae_sq56s.i	aeq0, a1, 0
    7c5b:	449914        	ae_lp16x2f.iu	aep1, a9, 4
    7c5e:	fc24fe9f0f 	{ ae_slaasq56s	aeq0, aeq1, a15; nop }
    7c63:	618104        	ae_lq56.i	aeq2, a1, 0
    7c66:	eb44fea48f 	{ ae_slaasq56s	aeq2, aeq2, a4; ae_mulfp24s.hl	aeq3, aep1, aep2 }
    7c6b:	fc446c8a1f 	{ ae_lp16f.iu	aep0, a10, 2; ae_roundsq32sym	aeq0, aeq0 }
    7c70:	038814        	ae_mulafq32sp16s.l	aeq3, aeq0, aep0
    7c73:	011a74        	ae_mulfp24s.ll	aeq1, aep1, aep2
    7c76:	fbfbcffb2e 	{ addi	a2, a11, -1; ae_roundsp16q48sym	aep7, aeq3 }
    7c7b:	ff547d071f 	{ ae_lq32f.i	aeq0, a7, 4; ae_roundsq32sym	aeq3, aeq2 }
    7c80:	fa81fd572f 	{ ae_lq32f.iu	aeq2, a7, 8; ae_mulsfq32sp16s.l	aeq1, aeq3, aep0 }
    7c85:	632104        	ae_sq56s.i	aeq2, a1, 0
    7c88:	f8ebb2fc1f 	{ ae_sp16f.l.iu	aep7, a12, 2; ae_roundsp16q48sym	aep0, aeq1 }
    7c8d:	34a276        	loopgtz	a2, 7cc5 <ifft_wo+0x285>
    7c90:	fc24fe8f0f 	{ ae_slaasq56s	aeq0, aeq0, a15; nop }
    7c95:	428d14        	ae_sp16f.l.iu	aep0, a13, 2
    7c98:	614104        	ae_lq56.i	aeq1, a1, 0
    7c9b:	4088f4        	ae_lp16f.iu	aep0, a8, -2
    7c9e:	449914        	ae_lp16x2f.iu	aep1, a9, 4
    7ca1:	eb04be944f 	{ ae_slaasq56s	aeq1, aeq1, a4; ae_mulfp24s.hl	aeq2, aep1, aep0 }
    7ca6:	ff4c7d372f 	{ ae_lq32f.iu	aeq1, a7, 8; ae_roundsq32sym	aeq3, aeq1 }
    7cab:	fc447a110f 	{ ae_sq56s.i	aeq1, a1, 0; ae_roundsq32sym	aeq0, aeq0 }
    7cb0:	ea05ec8a1f 	{ ae_lp16f.iu	aep0, a10, 2; ae_mulfp24s.ll	aeq1, aep1, aep0 }
    7cb5:	f582bd07ff 	{ ae_lq32f.i	aeq0, a7, -4; ae_mulafq32sp16s.l	aeq2, aeq0, aep0 }
    7cba:	030cd4        	ae_mulsfq32sp16s.l	aeq1, aeq3, aep0
    7cbd:	1bae04        	ae_roundsp16q48sym	aep0, aeq2
    7cc0:	f8ebb28c1f 	{ ae_sp16f.l.iu	aep0, a12, 2; ae_roundsp16q48sym	aep0, aeq1 }

00007cc5 <ifft_wo+0x285>:
    7cc5:	428d14        	ae_sp16f.l.iu	aep0, a13, 2

00007cc8 <ifft_wo+0x288>:
    7cc8:	400504        	ae_lp16f.i	aep0, a5, 0
    7ccb:	81c8           	l32i.n	a12, a1, 32
    7ccd:	71b8           	l32i.n	a11, a1, 28
    7ccf:	089d           	mov.n	a9, a8
    7cd1:	41a8           	l32i.n	a10, a1, 16
    7cd3:	058d           	mov.n	a8, a5
    7cd5:	401b04        	ae_lp16f.i	aep1, a11, 0
    7cd8:	a0aa60        	addx4	a10, a10, a6
    7cdb:	11dcf0        	slli	a13, a12, 1
    7cde:	c0d3d0        	sub	a13, a3, a13
    7ce1:	a0cc60        	addx4	a12, a12, a6
    7ce4:	09daa2        	addmi	a10, a10, 0x900
    7ce7:	2ccaa2        	addi	a10, a10, 44
    7cea:	09dcc2        	addmi	a12, a12, 0x900
    7ced:	2cccc2        	addi	a12, a12, 44
    7cf0:	23ad76        	loopgtz	a13, 7d17 <ifft_wo+0x2d7>
    7cf3:	fc0c2c89ff 	{ ae_lp16f.iu	aep0, a9, -2; ae_cvtq48p24s.l	aeq0, aep0 }
    7cf8:	fd2c2d9a1f 	{ ae_lp16x2f.iu	aep1, a10, 4; ae_cvtq48p24s.l	aeq1, aep1 }
    7cfd:	e2076dac1f 	{ ae_lp16x2f.iu	aep2, a12, 4; ae_mulafp24s.hl	aeq1, aep1, aep0 }
    7d02:	e207ac881f 	{ ae_lp16f.iu	aep0, a8, 2; ae_mulafp24s.ll	aeq0, aep1, aep0 }
    7d07:	f9ebec9b1f 	{ ae_lp16f.iu	aep1, a11, 2; ae_roundsp16q48sym	aep3, aeq1 }
    7d0c:	f9e3b32a0f 	{ ae_sp16x2f.i	aep2, a10, 0; ae_roundsp16q48sym	aep2, aeq0 }
    7d11:	423bf4        	ae_sp16f.l.i	aep3, a11, -2
    7d14:	4228f4        	ae_sp16f.l.i	aep2, a8, -2

00007d17 <ifft_wo+0x2d7>:
    7d17:	0fbd           	mov.n	a11, a15
    7d19:	04ad           	mov.n	a10, a4
    7d1b:	6007f4        	ae_lq32f.i	aeq0, a7, -4
    7d1e:	604704        	ae_lq32f.i	aeq1, a7, 0
    7d21:	41c8           	l32i.n	a12, a1, 16
    7d23:	09d692        	addmi	a9, a6, 0x900
    7d26:	2ec992        	addi	a9, a9, 46
    7d29:	f03d           	nop.n
    7d2b:	f03d           	nop.n
    7d2d:	1bac76        	loopgtz	a12, 7d4c <ifft_wo+0x30c>
    7d30:	fc24fe8b0f 	{ ae_slaasq56s	aeq0, aeq0, a11; nop }
    7d35:	fc24fe9a4f 	{ ae_slaasq56s	aeq1, aeq1, a10; nop }

00007d3a <ifft_wo+0x2fa>:
    7d3a:	f8e3bd071f 	{ ae_lq32f.i	aeq0, a7, 4; ae_roundsp16q48sym	aep0, aeq0 }
    7d3f:	fe14bd372f 	{ ae_lq32f.iu	aeq1, a7, 8; ae_negq56	aeq2, aeq1 }
    7d44:	f8f3b2091f 	{ ae_sp16f.l.i	aep0, a9, 2; ae_roundsp16q48sym	aep0, aeq2 }
    7d49:	428924        	ae_sp16f.l.iu	aep0, a9, 4

00007d4c <ifft_wo+0x30c>:
    7d4c:	f01d           	retw.n

00007d4e <ifft_wo+0x30e>:
    7d4e:	040c           	movi.n	a4, 0
    7d50:	60d0a0        	neg	a13, a10
    7d53:	0316d4        	wur.ae_sar	a13
    7d56:	ff52c6        	j	7aa5 <ifft_wo+0x65>

00007d59 <ifft_wo+0x319>:
    7d59:	00000000 36000000                                .......

00007d60 <airoha_divide>:
    7d60:	006136        	entry	a1, 48
    7d63:	027d           	mov.n	a7, a2
    7d65:	0d8216        	beqz	a2, 7e41 <airoha_divide+0xe1>
    7d68:	e0b0d1        	l32r	a13, 28 (7fffffff <_end+0x7fff2873>)
    7d6b:	e19b51        	l32r	a5, 3d8 (80000001 <_end+0x7fff2875>)
    7d6e:	0f1316        	beqz	a3, 7e63 <airoha_divide+0x103>
    7d71:	2159           	s32i.n	a5, a1, 8
    7d73:	602120        	abs	a2, a2
    7d76:	608130        	abs	a8, a3
    7d79:	086d           	mov.n	a6, a8
    7d7b:	029d           	mov.n	a9, a2
    7d7d:	0d4296        	bltz	a2, 7e55 <airoha_divide+0xf5>
    7d80:	020c           	movi.n	a2, 0

00007d82 <airoha_divide+0x22>:
    7d82:	0068d6        	bgez	a8, 7d8c <airoha_divide+0x2c>
    7d85:	416180        	srli	a6, a8, 1
    7d88:	220b           	addi.n	a2, a2, -1
    7d8a:	2159           	s32i.n	a5, a1, 8

00007d8c <airoha_divide+0x2c>:
    7d8c:	40e9e0        	nsa	a14, a9
    7d8f:	40e6c0        	nsa	a12, a6
    7d92:	cc1b           	addi.n	a12, a12, 1
    7d94:	401e00        	ssl	a14
    7d97:	a19900        	sll	a9, a9
    7d9a:	c0ece0        	sub	a14, a12, a14
    7d9d:	22ea           	add.n	a2, a2, a14
    7d9f:	401c00        	ssl	a12
    7da2:	a16600        	sll	a6, a6
    7da5:	96bd           	ae_zext16	a11, a6
    7da7:	f5c060        	extui	a12, a6, 16, 16
    7daa:	c2f9c0        	quou	a15, a9, a12
    7dad:	0fad           	mov.n	a10, a15
    7daf:	82ecf0        	mull	a14, a12, a15
    7db2:	82bfb0        	mull	a11, a15, a11
    7db5:	c0e9e0        	sub	a14, a9, a14
    7db8:	11ee00        	slli	a14, a14, 16
    7dbb:	0e8d           	mov.n	a8, a14
    7dbd:	17beb7        	bgeu	a14, a11, 7dd8 <airoha_divide+0x78>
    7dc0:	af0b           	addi.n	a10, a15, -1
    7dc2:	8e6a           	add.n	a8, a14, a6
    7dc4:	103867        	bltu	a8, a6, 7dd8 <airoha_divide+0x78>
    7dc7:	0538b7        	bltu	a8, a11, 7dd0 <airoha_divide+0x70>
    7dca:	000286        	j	7dd8 <airoha_divide+0x78>

00007dcd <airoha_divide+0x6d>:
    7dcd:	07b8b7        	bgeu	a8, a11, 7dd8 <airoha_divide+0x78>

00007dd0 <airoha_divide+0x70>:
    7dd0:	aa0b           	addi.n	a10, a10, -1
    7dd2:	808860        	add	a8, a8, a6
    7dd5:	f4b867        	bgeu	a8, a6, 7dcd <airoha_divide+0x6d>
    7dd8:	c088b0        	sub	a8, a8, a11
    7ddb:	f5e0a0        	extui	a14, a10, 16, 16
    7dde:	0b0c           	movi.n	a11, 0
    7de0:	c288c0        	quou	a8, a8, a12
    7de3:	11aa00        	slli	a10, a10, 16
    7de6:	8a8a           	add.n	a8, a10, a8
    7de8:	62a8a0        	saltu	a10, a8, a10
    7deb:	aaea           	add.n	a10, a10, a14
    7ded:	143967        	bltu	a9, a6, 7e05 <airoha_divide+0xa5>
    7df0:	221b           	addi.n	a2, a2, 1
    7df2:	682b           	addi.n	a6, a8, 2
    7df4:	404200        	ssai	2
    7df7:	628680        	saltu	a8, a6, a8
    7dfa:	88aa           	add.n	a8, a8, a10
    7dfc:	816860        	src	a6, a8, a6
    7dff:	418280        	srli	a8, a8, 2
    7e02:	0003c6        	j	7e15 <airoha_divide+0xb5>

00007e05 <airoha_divide+0xa5>:
    7e05:	404100        	ssai	1
    7e08:	681b           	addi.n	a6, a8, 1
    7e0a:	628680        	saltu	a8, a6, a8
    7e0d:	88aa           	add.n	a8, a8, a10
    7e0f:	816860        	src	a6, a8, a6
    7e12:	418180        	srli	a8, a8, 1

00007e15 <airoha_divide+0xb5>:
    7e15:	e084a1        	l32r	a10, 28 (7fffffff <_end+0x7fff2873>)
    7e18:	00a092        	movi	a9, 0
    7e1b:	0338b7        	bltu	a8, a11, 7e22 <airoha_divide+0xc2>
    7e1e:	b8bc           	beqz.n	a8, 7e5d <airoha_divide+0xfd>

00007e20 <airoha_divide+0xc0>:
    7e20:	190c           	movi.n	a9, 1

00007e22 <airoha_divide+0xc2>:
    7e22:	398c           	beqz.n	a9, 7e29 <airoha_divide+0xc9>
    7e24:	e14c61        	l32r	a6, 354 (40000000 <_end+0x3fff2874>)
    7e27:	221b           	addi.n	a2, a2, 1

00007e29 <airoha_divide+0xc9>:
    7e29:	60c060        	neg	a12, a6
    7e2c:	1e0c           	movi.n	a14, 1
    7e2e:	305730        	xor	a5, a7, a3
    7e31:	315f50        	srai	a5, a5, 31
    7e34:	935e50        	movnez	a5, a14, a5
    7e37:	936c50        	movnez	a6, a12, a5
    7e3a:	0cd226        	beqi	a2, 64, 7e4a <airoha_divide+0xea>
    7e3d:	063d           	mov.n	a3, a6
    7e3f:	f01d           	retw.n

00007e41 <airoha_divide+0xe1>:
    7e41:	c3ac           	beqz.n	a3, 7e71 <airoha_divide+0x111>
    7e43:	c1af22        	movi	a2, -63
    7e46:	030c           	movi.n	a3, 0
    7e48:	f01d           	retw.n

00007e4a <airoha_divide+0xea>:
    7e4a:	2188           	l32i.n	a8, a1, 8
    7e4c:	f23c           	movi.n	a2, 63
    7e4e:	93d850        	movnez	a13, a8, a5
    7e51:	0d3d           	mov.n	a3, a13
    7e53:	f01d           	retw.n

00007e55 <airoha_divide+0xf5>:
    7e55:	419120        	srli	a9, a2, 1
    7e58:	120c           	movi.n	a2, 1
    7e5a:	ffc906        	j	7d82 <airoha_divide+0x22>

00007e5d <airoha_divide+0xfd>:
    7e5d:	c1ba67        	bgeu	a10, a6, 7e22 <airoha_divide+0xc2>
    7e60:	ffef06        	j	7e20 <airoha_divide+0xc0>

00007e63 <airoha_divide+0x103>:
    7e63:	090c           	movi.n	a9, 0
    7e65:	729920        	salt	a9, a9, a2
    7e68:	f23c           	movi.n	a2, 63
    7e6a:	935d90        	movnez	a5, a13, a9
    7e6d:	053d           	mov.n	a3, a5
    7e6f:	f01d           	retw.n

00007e71 <airoha_divide+0x111>:
    7e71:	e06d31        	l32r	a3, 28 (7fffffff <_end+0x7fff2873>)
    7e74:	020c           	movi.n	a2, 0
    7e76:	f01d           	retw.n

00007e78 <airoha_divide_limit_1>:
    7e78:	006136        	entry	a1, 48
    7e7b:	e0f881        	l32r	a8, 25c (7d60 <airoha_divide>)
    7e7e:	03bd           	mov.n	a11, a3
    7e80:	02ad           	mov.n	a10, a2
    7e82:	0008e0        	callx8	a8
    7e85:	368b34        	ae_cvtq48a32s	aeq2, a11
    7e88:	fc24feaa4f 	{ ae_slaasq56s	aeq1, aeq2, a10; nop }
    7e8d:	061934        	ae_roundsq32asym	aeq0, aeq1
    7e90:	620104        	ae_sq32f.i	aeq0, a1, 0
    7e93:	0128           	l32i.n	a2, a1, 0
    7e95:	f01d           	retw.n

00007e97 <airoha_divide_limit_1+0x1f>:
	...

00007e98 <xtensa_fft4_32b>:
    7e98:	006136        	entry	a1, 48
    7e9b:	60c274        	ae_lq32f.i	aeq3, a2, 28
    7e9e:	608234        	ae_lq32f.i	aeq2, a2, 12
    7ea1:	600214        	ae_lq32f.i	aeq0, a2, 4
    7ea4:	f8e23d225f 	{ ae_lq32f.i	aeq1, a2, 20; ae_addq56	aeq0, aeq0, aeq2 }
    7ea9:	f9ee3d621f 	{ ae_lq32f.i	aeq3, a2, 4; ae_addq56	aeq1, aeq1, aeq3 }
    7eae:	fa663a310f 	{ ae_sq56s.i	aeq3, a1, 0; ae_addq56	aeq2, aeq0, aeq1 }
    7eb3:	f826fd226f 	{ ae_lq32f.i	aeq1, a2, 24; ae_subq56	aeq0, aeq0, aeq1 }
    7eb8:	622214        	ae_sq32f.i	aeq2, a2, 4
    7ebb:	60c254        	ae_lq32f.i	aeq3, a2, 20
    7ebe:	620254        	ae_sq32f.i	aeq0, a2, 20
    7ec1:	608244        	ae_lq32f.i	aeq2, a2, 16
    7ec4:	600224        	ae_lq32f.i	aeq0, a2, 8
    7ec7:	f9ea3d420f 	{ ae_lq32f.i	aeq2, a2, 0; ae_addq56	aeq1, aeq1, aeq2 }
    7ecc:	01a8c4        	ae_addq56	aeq2, aeq2, aeq0
    7ecf:	0129c4        	ae_addq56	aeq0, aeq2, aeq1
    7ed2:	fa36fd220f 	{ ae_lq32f.i	aeq1, a2, 0; ae_subq56	aeq2, aeq2, aeq1 }
    7ed7:	620204        	ae_sq32f.i	aeq0, a2, 0
    7eda:	600274        	ae_lq32f.i	aeq0, a2, 28
    7edd:	fb3afd022f 	{ ae_lq32f.i	aeq0, a2, 8; ae_subq56	aeq3, aeq3, aeq0 }
    7ee2:	f92afd024f 	{ ae_lq32f.i	aeq0, a2, 16; ae_subq56	aeq1, aeq1, aeq0 }
    7ee7:	faaef9a24f 	{ ae_sq32f.i	aeq2, a2, 16; ae_subq56	aeq2, aeq1, aeq3 }
    7eec:	f9ee3d626f 	{ ae_lq32f.i	aeq3, a2, 24; ae_addq56	aeq1, aeq1, aeq3 }
    7ef1:	fb3afd023f 	{ ae_lq32f.i	aeq0, a2, 12; ae_subq56	aeq3, aeq3, aeq0 }
    7ef6:	621224        	ae_sq32f.i	aeq1, a2, 8
    7ef9:	614104        	ae_lq56.i	aeq1, a1, 0
    7efc:	015cc4        	ae_subq56	aeq1, aeq1, aeq0
    7eff:	f8ee39a26f 	{ ae_sq32f.i	aeq2, a2, 24; ae_addq56	aeq0, aeq1, aeq3 }
    7f04:	f9aef9823f 	{ ae_sq32f.i	aeq0, a2, 12; ae_subq56	aeq1, aeq1, aeq3 }
    7f09:	621274        	ae_sq32f.i	aeq1, a2, 28
    7f0c:	f01d           	retw.n

00007f0e <xtensa_fft4_32b+0x76>:
	...

00007f10 <xtensa_fft8_32b>:
    7f10:	010136        	entry	a1, 128
    7f13:	604244        	ae_lq32f.i	aeq1, a2, 16
    7f16:	600264        	ae_lq32f.i	aeq0, a2, 24
    7f19:	e130f1        	l32r	a15, 3dc (5a82 <tx_downsample_by2+0x8a>)
    7f1c:	fa26c781ce 	{ addi	a12, a1, 120; ae_subq56	aeq2, aeq0, aeq1 }
    7f21:	632154        	ae_sq56s.i	aeq2, a1, 40
    7f24:	f8663d220f 	{ ae_lq32f.i	aeq1, a2, 0; ae_addq56	aeq0, aeq0, aeq1 }
    7f29:	608224        	ae_lq32f.i	aeq2, a2, 8
    7f2c:	fbaafa0ccf 	{ ae_sq56s.i	aeq0, a12, -32; ae_subq56	aeq3, aeq1, aeq2 }
    7f31:	f9ea3d425f 	{ ae_lq32f.i	aeq2, a2, 20; ae_addq56	aeq1, aeq1, aeq2 }
    7f36:	633164        	ae_sq56s.i	aeq3, a1, 48
    7f39:	631c94        	ae_sq56s.i	aeq1, a12, -56
    7f3c:	60c274        	ae_lq32f.i	aeq3, a2, 28
    7f3f:	f8b6fd221f 	{ ae_lq32f.i	aeq1, a2, 4; ae_subq56	aeq0, aeq2, aeq3 }
    7f44:	faf63d623f 	{ ae_lq32f.i	aeq3, a2, 12; ae_addq56	aeq2, aeq2, aeq3 }
    7f49:	f8aefa017f 	{ ae_sq56s.i	aeq0, a1, 56; ae_subq56	aeq0, aeq1, aeq3 }
    7f4e:	f9ee0202de 	{ addi	a13, a2, 32; ae_addq56	aeq1, aeq1, aeq3 }
    7f53:	fbaafa0caf 	{ ae_sq56s.i	aeq0, a12, -48; ae_subq56	aeq3, aeq1, aeq2 }
    7f58:	623254        	ae_sq32f.i	aeq3, a2, 20
    7f5b:	f9ea3dcc9f 	{ ae_lq56.i	aeq2, a12, -56; ae_addq56	aeq1, aeq1, aeq2 }
    7f60:	61ccc4        	ae_lq56.i	aeq3, a12, -32
    7f63:	f8f639921f 	{ ae_sq32f.i	aeq1, a2, 4; ae_addq56	aeq0, aeq2, aeq3 }
    7f68:	620204        	ae_sq32f.i	aeq0, a2, 0
    7f6b:	fab6fde16f 	{ ae_lq56.i	aeq3, a1, 48; ae_subq56	aeq2, aeq2, aeq3 }
    7f70:	610174        	ae_lq56.i	aeq0, a1, 56
    7f73:	f93af9a24f 	{ ae_sq32f.i	aeq2, a2, 16; ae_subq56	aeq1, aeq3, aeq0 }
    7f78:	fb7a3d8caf 	{ ae_lq56.i	aeq0, a12, -48; ae_addq56	aeq3, aeq3, aeq0 }
    7f7d:	621264        	ae_sq32f.i	aeq1, a2, 24
    7f80:	614154        	ae_lq56.i	aeq1, a1, 40
    7f83:	fa6639b22f 	{ ae_sq32f.i	aeq3, a2, 8; ae_addq56	aeq2, aeq0, aeq1 }
    7f88:	f826f9a23f 	{ ae_sq32f.i	aeq2, a2, 12; ae_subq56	aeq0, aeq0, aeq1 }
    7f8d:	620274        	ae_sq32f.i	aeq0, a2, 28
    7f90:	60cd74        	ae_lq32f.i	aeq3, a13, 28
    7f93:	604d54        	ae_lq32f.i	aeq1, a13, 20
    7f96:	faee3d0d3f 	{ ae_lq32f.i	aeq0, a13, 12; ae_addq56	aeq2, aeq1, aeq3 }
    7f9b:	622d54        	ae_sq32f.i	aeq2, a13, 20
    7f9e:	f9aefd4d1f 	{ ae_lq32f.i	aeq2, a13, 4; ae_subq56	aeq1, aeq1, aeq3 }
    7fa3:	fb72399d7f 	{ ae_sq32f.i	aeq1, a13, 28; ae_addq56	aeq3, aeq2, aeq0 }
    7fa8:	623d14        	ae_sq32f.i	aeq3, a13, 4
    7fab:	fa32fd0d2f 	{ ae_lq32f.i	aeq0, a13, 8; ae_subq56	aeq2, aeq2, aeq0 }
    7fb0:	60cd04        	ae_lq32f.i	aeq3, a13, 0
    7fb3:	622d34        	ae_sq32f.i	aeq2, a13, 12
    7fb6:	f93afd4d4f 	{ ae_lq32f.i	aeq2, a13, 16; ae_subq56	aeq1, aeq3, aeq0 }
    7fbb:	621d24        	ae_sq32f.i	aeq1, a13, 8
    7fbe:	fb7a3d0d6f 	{ ae_lq32f.i	aeq0, a13, 24; ae_addq56	aeq3, aeq3, aeq0 }
    7fc3:	f932f9bd0f 	{ ae_sq32f.i	aeq3, a13, 0; ae_subq56	aeq1, aeq2, aeq0 }
    7fc8:	621d64        	ae_sq32f.i	aeq1, a13, 24
    7fcb:	fa723d2d0f 	{ ae_lq32f.i	aeq1, a13, 0; ae_addq56	aeq2, aeq2, aeq0 }
    7fd0:	622d44        	ae_sq32f.i	aeq2, a13, 16
    7fd3:	60cd44        	ae_lq32f.i	aeq3, a13, 16
    7fd6:	011bc4        	ae_addq56	aeq0, aeq1, aeq3
    7fd9:	fb3efd420f 	{ ae_lq32f.i	aeq2, a2, 0; ae_subq56	aeq3, aeq3, aeq1 }
    7fde:	633134        	ae_sq56s.i	aeq3, a1, 24
    7fe1:	f932fd621f 	{ ae_lq32f.i	aeq3, a2, 4; ae_subq56	aeq1, aeq2, aeq0 }
    7fe6:	fa72399d0f 	{ ae_sq32f.i	aeq1, a13, 0; ae_addq56	aeq2, aeq2, aeq0 }
    7feb:	632144        	ae_sq56s.i	aeq2, a1, 32
    7fee:	604d54        	ae_lq32f.i	aeq1, a13, 20
    7ff1:	608d14        	ae_lq32f.i	aeq2, a13, 4
    7ff4:	0129c4        	ae_addq56	aeq0, aeq2, aeq1
    7ff7:	01adc4        	ae_subq56	aeq2, aeq2, aeq1
    7ffa:	017cc4        	ae_subq56	aeq1, aeq3, aeq0
    7ffd:	fb7a3d814f 	{ ae_lq56.i	aeq0, a1, 32; ae_addq56	aeq3, aeq3, aeq0 }
    8002:	621d14        	ae_sq32f.i	aeq1, a13, 4
    8005:	623214        	ae_sq32f.i	aeq3, a2, 4
    8008:	604244        	ae_lq32f.i	aeq1, a2, 16
    800b:	f8ea39820f 	{ ae_sq32f.i	aeq0, a2, 0; ae_addq56	aeq0, aeq1, aeq2 }
    8010:	f9aafd625f 	{ ae_lq32f.i	aeq3, a2, 20; ae_subq56	aeq1, aeq1, aeq2 }
    8015:	621d44        	ae_sq32f.i	aeq1, a13, 16
    8018:	614134        	ae_lq56.i	aeq1, a1, 24
    801b:	01bdc4        	ae_subq56	aeq2, aeq3, aeq1
    801e:	fb7e39ad5f 	{ ae_sq32f.i	aeq2, a13, 20; ae_addq56	aeq3, aeq3, aeq1 }
    8023:	623254        	ae_sq32f.i	aeq3, a2, 20
    8026:	620244        	ae_sq32f.i	aeq0, a2, 16
    8029:	600d64        	ae_lq32f.i	aeq0, a13, 24
    802c:	604d74        	ae_lq32f.i	aeq1, a13, 28
    802f:	0198c4        	ae_addq56	aeq2, aeq1, aeq0
    8032:	632cb4        	ae_sq56s.i	aeq2, a12, -40
    8035:	f826fd2d2f 	{ ae_lq32f.i	aeq1, a13, 8; ae_subq56	aeq0, aeq0, aeq1 }
    803a:	608d34        	ae_lq32f.i	aeq2, a13, 12
    803d:	01edc4        	ae_subq56	aeq3, aeq2, aeq1
    8040:	f9ea18afff 	{ ae_cvtp24a16x2.ll	aep2, a15, a15; ae_addq56	aeq1, aeq1, aeq2 }
    8045:	c1a244        	ae_mulzaafq32sp16s.lh	aeq2, aeq1, aep2, aeq0, aep2
    8048:	3c48ba312f 	{ ae_sq56s.i	aeq3, a1, 16; ae_mulzasfq32sp16s.lh	aeq0, aeq0, aep2, aeq1, aep2 }
    804d:	604224        	ae_lq32f.i	aeq1, a2, 8
    8050:	fbea3a010f 	{ ae_sq56s.i	aeq0, a1, 0; ae_addq56	aeq3, aeq1, aeq2 }
    8055:	f9aafd423f 	{ ae_lq32f.i	aeq2, a2, 12; ae_subq56	aeq1, aeq1, aeq2 }
    805a:	621d24        	ae_sq32f.i	aeq1, a13, 8
    805d:	610cb4        	ae_lq56.i	aeq0, a12, -40
    8060:	614124        	ae_lq56.i	aeq1, a1, 16
    8063:	0d497a311f 	{ ae_sq56s.i	aeq3, a1, 8; ae_mulzaafq32sp16s.lh	aeq3, aeq1, aep2, aeq0, aep2 }
    8068:	c52a44        	ae_mulzasfq32sp16s.lh	aeq1, aeq1, aep2, aeq0, aep2
    806b:	012fc4        	ae_subq56	aeq0, aeq2, aeq3
    806e:	faf63de11f 	{ ae_lq56.i	aeq3, a1, 8; ae_addq56	aeq2, aeq2, aeq3 }
    8073:	620d34        	ae_sq32f.i	aeq0, a13, 12
    8076:	622234        	ae_sq32f.i	aeq2, a2, 12
    8079:	600264        	ae_lq32f.i	aeq0, a2, 24
    807c:	fb6639b22f 	{ ae_sq32f.i	aeq3, a2, 8; ae_addq56	aeq3, aeq0, aeq1 }
    8081:	f826fd427f 	{ ae_lq32f.i	aeq2, a2, 28; ae_subq56	aeq0, aeq0, aeq1 }
    8086:	620d64        	ae_sq32f.i	aeq0, a13, 24
    8089:	610104        	ae_lq56.i	aeq0, a1, 0
    808c:	016cc4        	ae_subq56	aeq1, aeq2, aeq0
    808f:	621d74        	ae_sq32f.i	aeq1, a13, 28
    8092:	fa7239b26f 	{ ae_sq32f.i	aeq3, a2, 24; ae_addq56	aeq2, aeq2, aeq0 }
    8097:	622274        	ae_sq32f.i	aeq2, a2, 28
    809a:	f01d           	retw.n

0000809c <F_get_oft_32b>:
    809c:	004136        	entry	a1, 32
    809f:	fcc242        	addi	a4, a2, -4
    80a2:	7ca032        	movi	a3, 124
    80a5:	0c3347        	bltu	a3, a4, 80b5 <F_get_oft_32b+0x19>
    80a8:	e0ce31        	l32r	a3, 3e0 (a634 <fftorder_512_12b+0x1f4>)
    80ab:	1122e0        	slli	a2, a2, 2
    80ae:	223a           	add.n	a2, a2, a3
    80b0:	7f2222        	l32i	a2, a2, 0x1fc
    80b3:	f01d           	retw.n

000080b5 <F_get_oft_32b+0x19>:
    80b5:	220c           	movi.n	a2, 2
    80b7:	f01d           	retw.n

000080b9 <F_get_oft_32b+0x1d>:
    80b9:	000000                                        ...

000080bc <xtensa_fft_pass_32b>:
    80bc:	00a136        	entry	a1, 80
    80bf:	83ad           	ae_sext16	a10, a3
    80c1:	b09320        	addx8	a9, a3, a2
    80c4:	600204        	ae_lq32f.i	aeq0, a2, 0
    80c7:	904330        	addx2	a4, a3, a3
    80ca:	1153c0        	slli	a5, a3, 4
    80cd:	606254        	ae_lq32f.x	aeq1, a2, a5
    80d0:	b04420        	addx8	a4, a4, a2
    80d3:	608404        	ae_lq32f.i	aeq2, a4, 0
    80d6:	f9ea10825f 	{ add	a8, a2, a5; ae_addq56	aeq1, aeq1, aeq2 }
    80db:	fa663d681f 	{ ae_lq32f.i	aeq3, a8, 4; ae_addq56	aeq2, aeq0, aeq1 }
    80e0:	f826fa211f 	{ ae_sq56s.i	aeq2, a1, 8; ae_subq56	aeq0, aeq0, aeq1 }
    80e5:	630144        	ae_sq56s.i	aeq0, a1, 32
    80e8:	600414        	ae_lq32f.i	aeq0, a4, 4
    80eb:	fb7a3d421f 	{ ae_lq32f.i	aeq2, a2, 4; ae_addq56	aeq3, aeq3, aeq0 }
    80f0:	f9f60fc86e 	{ addi	a6, a8, -4; ae_addq56	aeq1, aeq2, aeq3 }
    80f5:	fab6fd681f 	{ ae_lq32f.i	aeq3, a8, 4; ae_subq56	aeq2, aeq2, aeq3 }
    80fa:	631124        	ae_sq56s.i	aeq1, a1, 16
    80fd:	e0b981        	l32r	a8, 3e4 (809c <F_get_oft_32b>)
    8100:	fb3afb925f 	{ ae_lq32f.x	aeq0, a2, a5; ae_subq56	aeq3, aeq3, aeq0 }
    8105:	614144        	ae_lq56.i	aeq1, a1, 32
    8108:	fcc252        	addi	a5, a2, -4
    810b:	633134        	ae_sq56s.i	aeq3, a1, 24
    810e:	ff4c7d240f 	{ ae_lq32f.i	aeq1, a4, 0; ae_roundsq32sym	aeq3, aeq1 }
    8113:	f92af9f61f 	{ ae_sq32f.iu	aeq3, a6, 4; ae_subq56	aeq1, aeq1, aeq0 }
    8118:	fc547de11f 	{ ae_lq56.i	aeq3, a1, 8; ae_roundsq32sym	aeq0, aeq2 }
    811d:	624614        	ae_sq32f.iu	aeq0, a6, 4
    8120:	fe5c7d812f 	{ ae_lq56.i	aeq0, a1, 16; ae_roundsq32sym	aeq2, aeq3 }
    8125:	ff4479e51f 	{ ae_sq32f.iu	aeq2, a5, 4; ae_roundsq32sym	aeq3, aeq0 }
    812a:	627514        	ae_sq32f.iu	aeq3, a5, 4
    812d:	600914        	ae_lq32f.i	aeq0, a9, 4
    8130:	0189c4        	ae_addq56	aeq2, aeq0, aeq1
    8133:	632104        	ae_sq56s.i	aeq2, a1, 0
    8136:	f826fda13f 	{ ae_lq56.i	aeq1, a1, 24; ae_subq56	aeq0, aeq0, aeq1 }
    813b:	608904        	ae_lq32f.i	aeq2, a9, 0
    813e:	01edc4        	ae_subq56	aeq3, aeq2, aeq1
    8141:	fa760fc92e 	{ addi	a2, a9, -4; ae_addq56	aeq2, aeq2, aeq1 }
    8146:	fd5c4fc44e 	{ addi	a4, a4, -4; ae_roundsq32sym	aeq1, aeq3 }
    814b:	ff447d810f 	{ ae_lq56.i	aeq0, a1, 0; ae_roundsq32sym	aeq3, aeq0 }
    8150:	625414        	ae_sq32f.iu	aeq1, a4, 4
    8153:	fd5479f41f 	{ ae_sq32f.iu	aeq3, a4, 4; ae_roundsq32sym	aeq1, aeq2 }
    8158:	ff4479d21f 	{ ae_sq32f.iu	aeq1, a2, 4; ae_roundsq32sym	aeq3, aeq0 }
    815d:	627214        	ae_sq32f.iu	aeq3, a2, 4
    8160:	0008e0        	callx8	a8
    8163:	21c130        	srai	a12, a3, 1
    8166:	e0a091        	l32r	a9, 3e8 (a33c <B_RI+0x3fc>)
    8169:	00a082        	movi	a8, 0
    816c:	11baf0        	slli	a11, a10, 1
    816f:	809b90        	add	a9, a11, a9
    8172:	458984        	ae_lp16x2f.xu	aep0, a9, a8
    8175:	88ac76        	loopgtz	a12, 8201 <xtensa_fft_pass_32b+0x145>
    8178:	60c424        	ae_lq32f.i	aeq3, a4, 8
    817b:	600414        	ae_lq32f.i	aeq0, a4, 4
    817e:	6002fd462f 	{ ae_lq32f.i	aeq2, a6, 8; ae_mulzasq32sp16u.lh	aeq1, aeq0, aep0, aeq3, aep0 }
    8183:	33017d061f 	{ ae_lq32f.i	aeq0, a6, 4; ae_mulzaaq32sp16u.lh	aeq3, aeq3, aep0, aeq0, aep0 }
    8188:	62007a110f 	{ ae_sq56s.i	aeq1, a1, 0; ae_mulzasq32sp16u.lh	aeq1, aeq2, aep0, aeq0, aep0 }
    818d:	c20024        	ae_mulzaaq32sp16u.lh	aeq0, aeq0, aep0, aeq2, aep0
    8190:	019bc4        	ae_addq56	aeq2, aeq1, aeq3
    8193:	015fc4        	ae_subq56	aeq1, aeq1, aeq3
    8196:	631134        	ae_sq56s.i	aeq1, a1, 24
    8199:	604524        	ae_lq32f.i	aeq1, a5, 8
    819c:	01dac4        	ae_addq56	aeq3, aeq1, aeq2
    819f:	633124        	ae_sq56s.i	aeq3, a1, 16
    81a2:	f9aafde10f 	{ ae_lq56.i	aeq3, a1, 0; ae_subq56	aeq1, aeq1, aeq2 }
    81a7:	018bc4        	ae_addq56	aeq2, aeq0, aeq3
    81aa:	fb3afd051f 	{ ae_lq32f.i	aeq0, a5, 4; ae_subq56	aeq3, aeq3, aeq0 }
    81af:	fbe23a311f 	{ ae_sq56s.i	aeq3, a1, 8; ae_addq56	aeq3, aeq0, aeq2 }
    81b4:	010ec4        	ae_subq56	aeq0, aeq0, aeq2
    81b7:	fe445b89bf 	{ ae_lp16x2f.xu	aep0, a9, a11; ae_roundsq32sym	aeq2, aeq0 }
    81bc:	fc4c7da12f 	{ ae_lq56.i	aeq1, a1, 16; ae_roundsq32sym	aeq0, aeq1 }
    81c1:	626614        	ae_sq32f.iu	aeq2, a6, 4
    81c4:	fe5c79c61f 	{ ae_sq32f.iu	aeq0, a6, 4; ae_roundsq32sym	aeq2, aeq3 }
    81c9:	626514        	ae_sq32f.iu	aeq2, a5, 4
    81cc:	fc4c7dc11f 	{ ae_lq56.i	aeq2, a1, 8; ae_roundsq32sym	aeq0, aeq1 }
    81d1:	624514        	ae_sq32f.iu	aeq0, a5, 4
    81d4:	604224        	ae_lq32f.i	aeq1, a2, 8
    81d7:	fbaafd021f 	{ ae_lq32f.i	aeq0, a2, 4; ae_subq56	aeq3, aeq1, aeq2 }
    81dc:	f9ea3dc13f 	{ ae_lq56.i	aeq2, a1, 24; ae_addq56	aeq1, aeq1, aeq2 }
    81e1:	fba2fa314f 	{ ae_sq56s.i	aeq3, a1, 32; ae_subq56	aeq3, aeq0, aeq2 }
    81e6:	010ac4        	ae_addq56	aeq0, aeq0, aeq2
    81e9:	068834        	ae_roundsq32sym	aeq2, aeq0
    81ec:	fc4c7da14f 	{ ae_lq56.i	aeq1, a1, 32; ae_roundsq32sym	aeq0, aeq1 }
    81f1:	626214        	ae_sq32f.iu	aeq2, a2, 4
    81f4:	fe5c79c21f 	{ ae_sq32f.iu	aeq0, a2, 4; ae_roundsq32sym	aeq2, aeq3 }
    81f9:	fc4c79e41f 	{ ae_sq32f.iu	aeq2, a4, 4; ae_roundsq32sym	aeq0, aeq1 }
    81fe:	624414        	ae_sq32f.iu	aeq0, a4, 4

00008201 <xtensa_fft_pass_32b+0x145>:
    8201:	60b0b0        	neg	a11, a11
    8204:	dc0b           	addi.n	a13, a12, -1
    8206:	11eae0        	slli	a14, a10, 2
    8209:	60e0e0        	neg	a14, a14
    820c:	4589e4        	ae_lp16x2f.xu	aep0, a9, a14
    820f:	88ad76        	loopgtz	a13, 829b <xtensa_fft_pass_32b+0x1df>
    8212:	608414        	ae_lq32f.i	aeq2, a4, 4
    8215:	60c424        	ae_lq32f.i	aeq3, a4, 8
    8218:	92033d261f 	{ ae_lq32f.i	aeq1, a6, 4; ae_mulzsaq32sp16u.lh	aeq0, aeq3, aep0, aeq2, aep0 }

0000821d <xtensa_fft_pass_32b+0x161>:
    821d:	3302bd662f 	{ ae_lq32f.i	aeq3, a6, 8; ae_mulzaaq32sp16u.lh	aeq2, aeq2, aep0, aeq3, aep0 }
    8222:	9003ba014f 	{ ae_sq56s.i	aeq0, a1, 32; ae_mulzsaq32sp16u.lh	aeq0, aeq1, aep0, aeq3, aep0 }
    8227:	c288d4        	ae_mulzaaq32sp16u.lh	aeq3, aeq3, aep0, aeq1, aep0
    822a:	014ac4        	ae_addq56	aeq1, aeq0, aeq2
    822d:	010ec4        	ae_subq56	aeq0, aeq0, aeq2
    8230:	630114        	ae_sq56s.i	aeq0, a1, 8
    8233:	600524        	ae_lq32f.i	aeq0, a5, 8
    8236:	0189c4        	ae_addq56	aeq2, aeq0, aeq1
    8239:	632124        	ae_sq56s.i	aeq2, a1, 16
    823c:	f826fdc14f 	{ ae_lq56.i	aeq2, a1, 32; ae_subq56	aeq0, aeq0, aeq1 }
    8241:	017ac4        	ae_addq56	aeq1, aeq3, aeq2
    8244:	fab6fd651f 	{ ae_lq32f.i	aeq3, a5, 4; ae_subq56	aeq2, aeq2, aeq3 }
    8249:	fa7e3a213f 	{ ae_sq56s.i	aeq2, a1, 24; ae_addq56	aeq2, aeq3, aeq1 }
    824e:	01fdc4        	ae_subq56	aeq3, aeq3, aeq1
    8251:	fd5c5b89bf 	{ ae_lp16x2f.xu	aep0, a9, a11; ae_roundsq32sym	aeq1, aeq3 }
    8256:	ff447d812f 	{ ae_lq56.i	aeq0, a1, 16; ae_roundsq32sym	aeq3, aeq0 }
    825b:	625614        	ae_sq32f.iu	aeq1, a6, 4
    825e:	fd5479f61f 	{ ae_sq32f.iu	aeq3, a6, 4; ae_roundsq32sym	aeq1, aeq2 }
    8263:	625514        	ae_sq32f.iu	aeq1, a5, 4
    8266:	ff447da13f 	{ ae_lq56.i	aeq1, a1, 24; ae_roundsq32sym	aeq3, aeq0 }
    826b:	627514        	ae_sq32f.iu	aeq3, a5, 4
    826e:	600224        	ae_lq32f.i	aeq0, a2, 8
    8271:	fa26fd621f 	{ ae_lq32f.i	aeq3, a2, 4; ae_subq56	aeq2, aeq0, aeq1 }
    8276:	f8663da11f 	{ ae_lq56.i	aeq1, a1, 8; ae_addq56	aeq0, aeq0, aeq1 }
    827b:	fa3efa210f 	{ ae_sq56s.i	aeq2, a1, 0; ae_subq56	aeq2, aeq3, aeq1 }
    8280:	01f9c4        	ae_addq56	aeq3, aeq3, aeq1
    8283:	067834        	ae_roundsq32sym	aeq1, aeq3
    8286:	ff447d810f 	{ ae_lq56.i	aeq0, a1, 0; ae_roundsq32sym	aeq3, aeq0 }
    828b:	625214        	ae_sq32f.iu	aeq1, a2, 4
    828e:	fd5479f21f 	{ ae_sq32f.iu	aeq3, a2, 4; ae_roundsq32sym	aeq1, aeq2 }
    8293:	ff4479d41f 	{ ae_sq32f.iu	aeq1, a4, 4; ae_roundsq32sym	aeq3, aeq0 }
    8298:	627414        	ae_sq32f.iu	aeq3, a4, 4

0000829b <xtensa_fft_pass_32b+0x1df>:
    829b:	f01d           	retw.n

0000829d <xtensa_fft_pass_32b+0x1e1>:
    829d:	000000                                        ...

000082a0 <xtensa_fft16_32b>:
    82a0:	004136        	entry	a1, 32
    82a3:	e05281        	l32r	a8, 3ec (7f10 <xtensa_fft8_32b>)
    82a6:	02ad           	mov.n	a10, a2
    82a8:	0008e0        	callx8	a8
    82ab:	e05181        	l32r	a8, 3f0 (7e98 <xtensa_fft4_32b>)
    82ae:	40c2a2        	addi	a10, a2, 64
    82b1:	0008e0        	callx8	a8
    82b4:	e04f81        	l32r	a8, 3f0 (7e98 <xtensa_fft4_32b>)
    82b7:	60c2a2        	addi	a10, a2, 96
    82ba:	0008e0        	callx8	a8
    82bd:	e04d81        	l32r	a8, 3f4 (80bc <xtensa_fft_pass_32b>)
    82c0:	02ad           	mov.n	a10, a2
    82c2:	04a0b2        	movi	a11, 4
    82c5:	0008e0        	callx8	a8
    82c8:	f01d           	retw.n

000082ca <xtensa_fft16_32b+0x2a>:
	...

000082cc <xtensa_fft32_32b>:
    82cc:	004136        	entry	a1, 32
    82cf:	e04a81        	l32r	a8, 3f8 (82a0 <xtensa_fft16_32b>)
    82d2:	20a220        	or	a10, a2, a2
    82d5:	0008e0        	callx8	a8
    82d8:	e04581        	l32r	a8, 3ec (7f10 <xtensa_fft8_32b>)
    82db:	01d2a2        	addmi	a10, a2, 0x100
    82de:	80caa2        	addi	a10, a10, -128
    82e1:	0008e0        	callx8	a8
    82e4:	e04281        	l32r	a8, 3ec (7f10 <xtensa_fft8_32b>)
    82e7:	01d2a2        	addmi	a10, a2, 0x100
    82ea:	c0caa2        	addi	a10, a10, -64
    82ed:	0008e0        	callx8	a8
    82f0:	e04181        	l32r	a8, 3f4 (80bc <xtensa_fft_pass_32b>)
    82f3:	02ad           	mov.n	a10, a2
    82f5:	8b0c           	movi.n	a11, 8
    82f7:	0008e0        	callx8	a8
    82fa:	f01d           	retw.n

000082fc <xtensa_fft64_32b>:
    82fc:	004136        	entry	a1, 32
    82ff:	e03f81        	l32r	a8, 3fc (82cc <xtensa_fft32_32b>)
    8302:	20a220        	or	a10, a2, a2
    8305:	0008e0        	callx8	a8
    8308:	e03c81        	l32r	a8, 3f8 (82a0 <xtensa_fft16_32b>)
    830b:	01d2a2        	addmi	a10, a2, 0x100
    830e:	0008e0        	callx8	a8
    8311:	e03981        	l32r	a8, 3f8 (82a0 <xtensa_fft16_32b>)
    8314:	02d2a2        	addmi	a10, a2, 0x200
    8317:	80caa2        	addi	a10, a10, -128
    831a:	0008e0        	callx8	a8
    831d:	e03581        	l32r	a8, 3f4 (80bc <xtensa_fft_pass_32b>)
    8320:	02ad           	mov.n	a10, a2
    8322:	10a0b2        	movi	a11, 16
    8325:	0008e0        	callx8	a8
    8328:	f01d           	retw.n

0000832a <xtensa_fft64_32b+0x2e>:
	...

0000832c <xtensa_fft128_32b>:
    832c:	004136        	entry	a1, 32
    832f:	e03481        	l32r	a8, 400 (82fc <xtensa_fft64_32b>)
    8332:	20a220        	or	a10, a2, a2
    8335:	0008e0        	callx8	a8
    8338:	e03181        	l32r	a8, 3fc (82cc <xtensa_fft32_32b>)
    833b:	02d2a2        	addmi	a10, a2, 0x200
    833e:	0008e0        	callx8	a8
    8341:	e02e81        	l32r	a8, 3fc (82cc <xtensa_fft32_32b>)
    8344:	03d2a2        	addmi	a10, a2, 0x300
    8347:	0008e0        	callx8	a8
    834a:	e02a81        	l32r	a8, 3f4 (80bc <xtensa_fft_pass_32b>)
    834d:	02ad           	mov.n	a10, a2
    834f:	0b2c           	movi.n	a11, 32
    8351:	0008e0        	callx8	a8
    8354:	f01d           	retw.n

00008356 <xtensa_fft128_32b+0x2a>:
	...

00008358 <xtensa_fft256_32b>:
    8358:	004136        	entry	a1, 32
    835b:	e02981        	l32r	a8, 400 (82fc <xtensa_fft64_32b>)
    835e:	02ad           	mov.n	a10, a2
    8360:	0008e0        	callx8	a8
    8363:	e02681        	l32r	a8, 3fc (82cc <xtensa_fft32_32b>)
    8366:	02d2a2        	addmi	a10, a2, 0x200
    8369:	0008e0        	callx8	a8
    836c:	e02481        	l32r	a8, 3fc (82cc <xtensa_fft32_32b>)
    836f:	03d2a2        	addmi	a10, a2, 0x300
    8372:	0008e0        	callx8	a8
    8375:	e01f81        	l32r	a8, 3f4 (80bc <xtensa_fft_pass_32b>)
    8378:	02ad           	mov.n	a10, a2
    837a:	20a0b2        	movi	a11, 32
    837d:	0008e0        	callx8	a8
    8380:	e02081        	l32r	a8, 400 (82fc <xtensa_fft64_32b>)
    8383:	04d2a2        	addmi	a10, a2, 0x400
    8386:	0008e0        	callx8	a8
    8389:	e01d81        	l32r	a8, 400 (82fc <xtensa_fft64_32b>)
    838c:	06d2a2        	addmi	a10, a2, 0x600
    838f:	0008e0        	callx8	a8
    8392:	e01881        	l32r	a8, 3f4 (80bc <xtensa_fft_pass_32b>)
    8395:	02ad           	mov.n	a10, a2
    8397:	0b4c           	movi.n	a11, 64
    8399:	0008e0        	callx8	a8
    839c:	f01d           	retw.n

0000839e <xtensa_fft256_32b+0x46>:
	...

000083a0 <xtensa_fft512_32b>:
    83a0:	004136        	entry	a1, 32
    83a3:	e01881        	l32r	a8, 404 (8358 <xtensa_fft256_32b>)
    83a6:	02ad           	mov.n	a10, a2
    83a8:	0008e0        	callx8	a8
    83ab:	e01781        	l32r	a8, 408 (832c <xtensa_fft128_32b>)
    83ae:	08d2a2        	addmi	a10, a2, 0x800
    83b1:	0008e0        	callx8	a8
    83b4:	e01581        	l32r	a8, 408 (832c <xtensa_fft128_32b>)
    83b7:	0cd2a2        	addmi	a10, a2, 0xc00
    83ba:	0008e0        	callx8	a8
    83bd:	e00d81        	l32r	a8, 3f4 (80bc <xtensa_fft_pass_32b>)
    83c0:	02ad           	mov.n	a10, a2
    83c2:	80a0b2        	movi	a11, 128
    83c5:	0008e0        	callx8	a8
    83c8:	f01d           	retw.n

000083ca <xtensa_fft512_32b+0x2a>:
	...

000083cc <real_split>:
    83cc:	00c136        	entry	a1, 96
    83cf:	e00581        	l32r	a8, 3e4 (809c <F_get_oft_32b>)
    83d2:	03c8           	l32i.n	a12, a3, 0
    83d4:	13d8           	l32i.n	a13, a3, 4
    83d6:	070c           	movi.n	a7, 0
    83d8:	045d           	mov.n	a5, a4
    83da:	1479           	s32i.n	a7, a4, 4
    83dc:	214120        	srai	a4, a2, 1
    83df:	b07450        	addx8	a7, a4, a5
    83e2:	ccda           	add.n	a12, a12, a13
    83e4:	c06240        	sub	a6, a2, a4
    83e7:	1194d0        	slli	a9, a4, 3
    83ea:	6199           	s32i.n	a9, a1, 24
    83ec:	5169           	s32i.n	a6, a1, 20
    83ee:	05c9           	s32i.n	a12, a5, 0
    83f0:	b06630        	addx8	a6, a6, a3
    83f3:	06a8           	l32i.n	a10, a6, 0
    83f5:	16b8           	l32i.n	a11, a6, 4
    83f7:	07a9           	s32i.n	a10, a7, 0
    83f9:	82ad           	ae_sext16	a10, a2
    83fb:	bbba           	add.n	a11, a11, a11
    83fd:	60b0b0        	neg	a11, a11
    8400:	21b1b0        	srai	a11, a11, 1
    8403:	17b9           	s32i.n	a11, a7, 4
    8405:	0008e0        	callx8	a8
    8408:	3169           	s32i.n	a6, a1, 12
    840a:	2129           	s32i.n	a2, a1, 8
    840c:	11faf0        	slli	a15, a10, 1
    840f:	0aed           	mov.n	a14, a10
    8411:	1139           	s32i.n	a3, a1, 4
    8413:	b38b           	addi.n	a11, a3, 8
    8415:	81a082        	movi	a8, 129
    8418:	4179           	s32i.n	a7, a1, 16
    841a:	c58b           	addi.n	a12, a5, 8
    841c:	b0d230        	addx8	a13, a2, a3
    841f:	fccdd2        	addi	a13, a13, -4
    8422:	050c           	movi.n	a5, 0
    8424:	dffa71        	l32r	a7, 40c (a340 <ROOTS_512_Q16>)
    8427:	728280        	salt	a8, a2, a8
    842a:	130c           	movi.n	a3, 1
    842c:	93ef80        	movnez	a14, a15, a8
    842f:	fecea2        	addi	a10, a14, -2
    8432:	21f1a0        	srai	a15, a10, 1
    8435:	a0ff70        	addx4	a15, a15, a7
    8438:	441f04        	ae_lp16x2f.i	aep1, a15, 0
    843b:	dc25807d2f 	{ movi	a2, 125; ae_selp24.lh	aep0, aep1, aep1 }
    8440:	07eea6        	blti	a14, 128, 844b <real_split+0x7f>
    8443:	160c           	movi.n	a6, 1
    8445:	60e0e0        	neg	a14, a14
    8448:	000046        	j	844d <real_split+0x81>

0000844b <real_split+0x7f>:
    844b:	060c           	movi.n	a6, 0

0000844d <real_split+0x81>:
    844d:	0149           	s32i.n	a4, a1, 0
    844f:	604b04        	ae_lq32f.i	aeq1, a11, 0
    8452:	9b4b           	addi.n	a9, a11, 4
    8454:	600b14        	ae_lq32f.i	aeq0, a11, 4
    8457:	835360        	moveqz	a5, a3, a6
    845a:	bb8b           	addi.n	a11, a11, 8
    845c:	15cc           	bnez.n	a5, 8461 <real_split+0x95>
    845e:	091484        	ae_movp48	aep0, aep1

00008461 <real_split+0x95>:
    8461:	0224e6        	bgei	a4, 2, 8467 <real_split+0x9b>
    8464:	0022c6        	j	84f3 <real_split+0x127>
    8467:	f8cbb2        	addi	a11, a11, -8
    846a:	f8ccc2        	addi	a12, a12, -8
    846d:	fccdf2        	addi	a15, a13, -4
    8470:	840b           	addi.n	a8, a4, -1
    8472:	dd8b           	addi.n	a13, a13, 8
    8474:	def541        	l32r	a4, 48 (8000 <xtensa_fft8_32b+0xf0>)
    8477:	ff8b           	addi.n	a15, a15, 8
    8479:	301444        	ae_cvtp24a16x2.ll	aep1, a4, a4
    847c:	094d           	mov.n	a4, a9
    847e:	63a876        	loopgtz	a8, 84e5 <real_split+0x119>
    8481:	630154        	ae_sq56s.i	aeq0, a1, 40
    8484:	91013d7fef 	{ ae_lq32f.iu	aeq3, a15, -8; ae_mulzsaq32sp16u.lh	aeq2, aeq1, aep0, aeq0, aep0 }
    8489:	182790aaef 	{ add	a10, a10, a14; ae_mulzaafq32sp16u.lh	aeq0, aeq1, aep1, aeq3, aep1 }
    848e:	2191a0        	srai	a9, a10, 1
    8491:	f8e23d5def 	{ ae_lq32f.iu	aeq2, a13, -8; ae_addq56	aeq0, aeq0, aeq2 }
    8496:	32037a114f 	{ ae_sq56s.i	aeq1, a1, 32; ae_mulzaaq32sp16u.lh	aeq1, aeq3, aep0, aeq2, aep0 }
    849b:	a09970        	addx4	a9, a9, a7
    849e:	0109c4        	ae_addq56	aeq0, aeq0, aeq1
    84a1:	630164        	ae_sq56s.i	aeq0, a1, 48
    84a4:	9302fd815f 	{ ae_lq56.i	aeq0, a1, 40; ae_mulzsaq32sp16u.lh	aeq3, aeq2, aep0, aeq3, aep0 }
    84a9:	49263da14f 	{ ae_lq56.i	aeq1, a1, 32; ae_mulzasfq32sp16u.lh	aeq2, aeq0, aep1, aeq2, aep1 }
    84ae:	c00080018f 	{ movi	a8, 1; ae_mulzssq32sp16u.lh	aeq0, aeq0, aep0, aeq1, aep0 }
    84b3:	442904        	ae_lp16x2f.i	aep2, a9, 0
    84b6:	fa723d816f 	{ ae_lq56.i	aeq0, a1, 48; ae_addq56	aeq2, aeq2, aeq0 }
    84bb:	faf63b001f 	{ ae_sraiq56	aeq0, aeq0, 1; ae_addq56	aeq2, aeq2, aeq3 }
    84c0:	ff447b209f 	{ ae_sraiq56	aeq2, aeq2, 1; ae_roundsq32sym	aeq3, aeq0 }
    84c5:	fd5479fc2f 	{ ae_sq32f.iu	aeq3, a12, 8; ae_roundsq32sym	aeq1, aeq2 }
    84ca:	dc49b99c1f 	{ ae_sq32f.i	aeq1, a12, 4; ae_selp24.lh	aep0, aep2, aep2 }
    84cf:	0aa2a7        	bge	a2, a10, 84dd <real_split+0x111>
    84d2:	60e0e0        	neg	a14, a14
    84d5:	306630        	xor	a6, a6, a3
    84d8:	050c           	movi.n	a5, 0
    84da:	835860        	moveqz	a5, a8, a6

000084dd <real_split+0x111>:
    84dd:	605b24        	ae_lq32f.iu	aeq1, a11, 8
    84e0:	658c           	beqz.n	a5, 84ea <real_split+0x11e>

000084e2 <real_split+0x116>:
    84e2:	601424        	ae_lq32f.iu	aeq0, a4, 8

000084e5 <real_split+0x119>:
    84e5:	0148           	l32i.n	a4, a1, 0
    84e7:	000206        	j	84f3 <real_split+0x127>

000084ea <real_split+0x11e>:
    84ea:	092484        	ae_movp48	aep0, aep2
    84ed:	fffc46        	j	84e2 <real_split+0x116>

000084f0 <real_split+0x124>:
    84f0:	000000                                        ...

000084f3 <real_split+0x127>:
    84f3:	31d8           	l32i.n	a13, a1, 12
    84f5:	11c8           	l32i.n	a12, a1, 4
    84f7:	61b8           	l32i.n	a11, a1, 24
    84f9:	60e0e0        	neg	a14, a14
    84fc:	fecea2        	addi	a10, a14, -2
    84ff:	bbca           	add.n	a11, a11, a12
    8501:	41c8           	l32i.n	a12, a1, 16
    8503:	fccdd2        	addi	a13, a13, -4
    8506:	bb8b           	addi.n	a11, a11, 8
    8508:	cc8b           	addi.n	a12, a12, 8
    850a:	0deea6        	blti	a14, 128, 851b <real_split+0x14f>
    850d:	60e0e0        	neg	a14, a14
    8510:	306630        	xor	a6, a6, a3
    8513:	1f0c           	movi.n	a15, 1
    8515:	00a052        	movi	a5, 0
    8518:	835f60        	moveqz	a5, a15, a6

0000851b <real_split+0x14f>:
    851b:	21f8           	l32i.n	a15, a1, 8
    851d:	604b04        	ae_lq32f.i	aeq1, a11, 0
    8520:	600b14        	ae_lq32f.i	aeq0, a11, 4
    8523:	941b           	addi.n	a9, a4, 1
    8525:	2181a0        	srai	a8, a10, 1
    8528:	4b4b           	addi.n	a4, a11, 4
    852a:	a08870        	addx4	a8, a8, a7
    852d:	441804        	ae_lp16x2f.i	aep1, a8, 0
    8530:	dc25808bbe 	{ addi	a11, a11, 8; ae_selp24.lh	aep0, aep1, aep1 }
    8535:	08f516        	beqz	a5, 85c8 <real_split+0x1fc>

00008538 <real_split+0x16c>:
    8538:	0229f7        	blt	a9, a15, 853e <real_split+0x172>
    853b:	0023c6        	j	85ce <real_split+0x202>
    853e:	f8cbb2        	addi	a11, a11, -8
    8541:	f8ccc2        	addi	a12, a12, -8
    8544:	5188           	l32i.n	a8, a1, 20
    8546:	fccdf2        	addi	a15, a13, -4
    8549:	debf91        	l32r	a9, 48 (8000 <xtensa_fft8_32b+0xf0>)
    854c:	301994        	ae_cvtp24a16x2.ll	aep1, a9, a9
    854f:	dd8b           	addi.n	a13, a13, 8
    8551:	ff8b           	addi.n	a15, a15, 8
    8553:	880b           	addi.n	a8, a8, -1
    8555:	63a876        	loopgtz	a8, 85bc <real_split+0x1f0>
    8558:	630154        	ae_sq56s.i	aeq0, a1, 40
    855b:	c1013d7fef 	{ ae_lq32f.iu	aeq3, a15, -8; ae_mulzssq32sp16u.lh	aeq2, aeq1, aep0, aeq0, aep0 }
    8560:	182790aaef 	{ add	a10, a10, a14; ae_mulzaafq32sp16u.lh	aeq0, aeq1, aep1, aeq3, aep1 }
    8565:	2191a0        	srai	a9, a10, 1
    8568:	f8e23d5def 	{ ae_lq32f.iu	aeq2, a13, -8; ae_addq56	aeq0, aeq0, aeq2 }
    856d:	63033a217f 	{ ae_sq56s.i	aeq2, a1, 56; ae_mulzasq32sp16u.lh	aeq2, aeq3, aep0, aeq2, aep0 }
    8572:	a09970        	addx4	a9, a9, a7
    8575:	f8e23dc17f 	{ ae_lq56.i	aeq2, a1, 56; ae_addq56	aeq0, aeq0, aeq2 }
    857a:	630164        	ae_sq56s.i	aeq0, a1, 48
    857d:	c302fd815f 	{ ae_lq56.i	aeq0, a1, 40; ae_mulzssq32sp16u.lh	aeq3, aeq2, aep0, aeq3, aep0 }
    8582:	c79124        	ae_mulzasfq32sp16u.lh	aeq2, aeq0, aep1, aeq2, aep1
    8585:	900080018f 	{ movi	a8, 1; ae_mulzsaq32sp16u.lh	aeq0, aeq0, aep0, aeq1, aep0 }
    858a:	442904        	ae_lp16x2f.i	aep2, a9, 0
    858d:	fa723d816f 	{ ae_lq56.i	aeq0, a1, 48; ae_addq56	aeq2, aeq2, aeq0 }
    8592:	faf63b001f 	{ ae_sraiq56	aeq0, aeq0, 1; ae_addq56	aeq2, aeq2, aeq3 }
    8597:	ff447b209f 	{ ae_sraiq56	aeq2, aeq2, 1; ae_roundsq32sym	aeq3, aeq0 }
    859c:	fc5479fc2f 	{ ae_sq32f.iu	aeq3, a12, 8; ae_roundsq32sym	aeq0, aeq2 }
    85a1:	dc49b98c1f 	{ ae_sq32f.i	aeq0, a12, 4; ae_selp24.lh	aep0, aep2, aep2 }
    85a6:	0aa2a7        	bge	a2, a10, 85b4 <real_split+0x1e8>
    85a9:	60e0e0        	neg	a14, a14
    85ac:	306630        	xor	a6, a6, a3
    85af:	050c           	movi.n	a5, 0
    85b1:	835860        	moveqz	a5, a8, a6

000085b4 <real_split+0x1e8>:
    85b4:	605b24        	ae_lq32f.iu	aeq1, a11, 8
    85b7:	558c           	beqz.n	a5, 85c0 <real_split+0x1f4>

000085b9 <real_split+0x1ed>:
    85b9:	601424        	ae_lq32f.iu	aeq0, a4, 8

000085bc <real_split+0x1f0>:
    85bc:	f01d           	retw.n

000085be <real_split+0x1f2>:
	...

000085c0 <real_split+0x1f4>:
    85c0:	092484        	ae_movp48	aep0, aep2
    85c3:	fffc86        	j	85b9 <real_split+0x1ed>

000085c6 <real_split+0x1fa>:
	...

000085c8 <real_split+0x1fc>:
    85c8:	091484        	ae_movp48	aep0, aep1
    85cb:	ffda46        	j	8538 <real_split+0x16c>

000085ce <real_split+0x202>:
    85ce:	f01d           	retw.n

000085d0 <xtensa_real_fft_32b>:
    85d0:	004136        	entry	a1, 32
    85d3:	0b8266        	bnei	a2, 8, 85e2 <xtensa_real_fft_32b+0x12>
    85d6:	df8581        	l32r	a8, 3ec (7f10 <xtensa_fft8_32b>)
    85d9:	20a330        	or	a10, a3, a3
    85dc:	0020f0        	nop
    85df:	0008e0        	callx8	a8

000085e2 <xtensa_real_fft_32b+0x12>:
    85e2:	07b266        	bnei	a2, 16, 85ed <xtensa_real_fft_32b+0x1d>
    85e5:	df8481        	l32r	a8, 3f8 (82a0 <xtensa_fft16_32b>)
    85e8:	03ad           	mov.n	a10, a3
    85ea:	0008e0        	callx8	a8

000085ed <xtensa_real_fft_32b+0x1d>:
    85ed:	09c266        	bnei	a2, 32, 85fa <xtensa_real_fft_32b+0x2a>
    85f0:	df8381        	l32r	a8, 3fc (82cc <xtensa_fft32_32b>)
    85f3:	03ad           	mov.n	a10, a3
    85f5:	f03d           	nop.n
    85f7:	0008e0        	callx8	a8

000085fa <xtensa_real_fft_32b+0x2a>:
    85fa:	07d266        	bnei	a2, 64, 8605 <xtensa_real_fft_32b+0x35>
    85fd:	df8081        	l32r	a8, 400 (82fc <xtensa_fft64_32b>)
    8600:	03ad           	mov.n	a10, a3
    8602:	0008e0        	callx8	a8

00008605 <xtensa_real_fft_32b+0x35>:
    8605:	07e266        	bnei	a2, 128, 8610 <xtensa_real_fft_32b+0x40>
    8608:	df8081        	l32r	a8, 408 (832c <xtensa_fft128_32b>)
    860b:	03ad           	mov.n	a10, a3
    860d:	0008e0        	callx8	a8

00008610 <xtensa_real_fft_32b+0x40>:
    8610:	07f266        	bnei	a2, 0x100, 861b <xtensa_real_fft_32b+0x4b>
    8613:	df7c81        	l32r	a8, 404 (8358 <xtensa_fft256_32b>)
    8616:	03ad           	mov.n	a10, a3
    8618:	0008e0        	callx8	a8

0000861b <xtensa_real_fft_32b+0x4b>:
    861b:	00a292        	movi	a9, 0x200
    861e:	079297        	bne	a2, a9, 8629 <xtensa_real_fft_32b+0x59>
    8621:	df7b81        	l32r	a8, 410 (83a0 <xtensa_fft512_32b>)
    8624:	03ad           	mov.n	a10, a3
    8626:	0008e0        	callx8	a8

00008629 <xtensa_real_fft_32b+0x59>:
    8629:	02ad           	mov.n	a10, a2
    862b:	03bd           	mov.n	a11, a3
    862d:	1142d0        	slli	a4, a2, 3
    8630:	df7981        	l32r	a8, 414 (83cc <real_split>)
    8633:	c04340        	sub	a4, a3, a4
    8636:	04cd           	mov.n	a12, a4
    8638:	0008e0        	callx8	a8
    863b:	848b           	addi.n	a8, a4, 8
    863d:	0398           	l32i.n	a9, a3, 0
    863f:	13a8           	l32i.n	a10, a3, 4
    8641:	0b0c           	movi.n	a11, 0
    8643:	11c2c0        	slli	a12, a2, 4
    8646:	c4ca           	add.n	a12, a4, a12
    8648:	13b9           	s32i.n	a11, a3, 4
    864a:	fcccb2        	addi	a11, a12, -4
    864d:	c099a0        	sub	a9, a9, a10
    8650:	0399           	s32i.n	a9, a3, 0
    8652:	4622a6        	blti	a2, 2, 869c <xtensa_real_fft_32b+0xcc>
    8655:	a20b           	addi.n	a10, a2, -1
    8657:	2191a0        	srai	a9, a10, 1
    865a:	146a07        	bbci	a10, 0, 8672 <xtensa_real_fft_32b+0xa2>
    865d:	10c482        	addi	a8, a4, 16
    8660:	34f8           	l32i.n	a15, a4, 12
    8662:	ffdbe2        	addmi	a14, a11, 0xffffff00
    8665:	24d8           	l32i.n	a13, a4, 8
    8667:	60f0f0        	neg	a15, a15
    866a:	0bf9           	s32i.n	a15, a11, 0
    866c:	3f6ed2        	s32i	a13, a14, 252
    866f:	f4ccb2        	addi	a11, a12, -12
    8672:	26a976        	loopgtz	a9, 869c <xtensa_real_fft_32b+0xcc>
    8675:	1898           	l32i.n	a9, a8, 4
    8677:	08a8           	l32i.n	a10, a8, 0
    8679:	ffdbc2        	addmi	a12, a11, 0xffffff00
    867c:	f8cbd2        	addi	a13, a11, -8
    867f:	609090        	neg	a9, a9
    8682:	ffdde2        	addmi	a14, a13, 0xffffff00
    8685:	0b99           	s32i.n	a9, a11, 0
    8687:	3f6ca2        	s32i	a10, a12, 252
    868a:	3898           	l32i.n	a9, a8, 12
    868c:	f0cbb2        	addi	a11, a11, -16
    868f:	28a8           	l32i.n	a10, a8, 8
    8691:	609090        	neg	a9, a9
    8694:	10c882        	addi	a8, a8, 16
    8697:	0d99           	s32i.n	a9, a13, 0
    8699:	3f6ea2        	s32i	a10, a14, 252

0000869c <xtensa_real_fft_32b+0xcc>:
    869c:	f01d           	retw.n

0000869e <xtensa_real_fft_32b+0xce>:
	...

000086a0 <xtensa_comp_fft_32b>:
    86a0:	004136        	entry	a1, 32
    86a3:	168226        	beqi	a2, 8, 86bd <xtensa_comp_fft_32b+0x1d>
    86a6:	1eb226        	beqi	a2, 16, 86c8 <xtensa_comp_fft_32b+0x28>

000086a9 <xtensa_comp_fft_32b+0x9>:
    86a9:	28c226        	beqi	a2, 32, 86d5 <xtensa_comp_fft_32b+0x35>

000086ac <xtensa_comp_fft_32b+0xc>:
    86ac:	30d226        	beqi	a2, 64, 86e0 <xtensa_comp_fft_32b+0x40>

000086af <xtensa_comp_fft_32b+0xf>:
    86af:	3ae226        	beqi	a2, 128, 86ed <xtensa_comp_fft_32b+0x4d>

000086b2 <xtensa_comp_fft_32b+0x12>:
    86b2:	42f226        	beqi	a2, 0x100, 86f8 <xtensa_comp_fft_32b+0x58>

000086b5 <xtensa_comp_fft_32b+0x15>:
    86b5:	00a282        	movi	a8, 0x200
    86b8:	471287        	beq	a2, a8, 8703 <xtensa_comp_fft_32b+0x63>
    86bb:	f01d           	retw.n

000086bd <xtensa_comp_fft_32b+0x1d>:
    86bd:	df4b81        	l32r	a8, 3ec (7f10 <xtensa_fft8_32b>)
    86c0:	03ad           	mov.n	a10, a3
    86c2:	0008e0        	callx8	a8
    86c5:	e0b266        	bnei	a2, 16, 86a9 <xtensa_comp_fft_32b+0x9>

000086c8 <xtensa_comp_fft_32b+0x28>:
    86c8:	df4c81        	l32r	a8, 3f8 (82a0 <xtensa_fft16_32b>)
    86cb:	03ad           	mov.n	a10, a3
    86cd:	f03d           	nop.n
    86cf:	0008e0        	callx8	a8
    86d2:	d6c266        	bnei	a2, 32, 86ac <xtensa_comp_fft_32b+0xc>

000086d5 <xtensa_comp_fft_32b+0x35>:
    86d5:	df4981        	l32r	a8, 3fc (82cc <xtensa_fft32_32b>)
    86d8:	03ad           	mov.n	a10, a3
    86da:	0008e0        	callx8	a8
    86dd:	ced266        	bnei	a2, 64, 86af <xtensa_comp_fft_32b+0xf>

000086e0 <xtensa_comp_fft_32b+0x40>:
    86e0:	df4881        	l32r	a8, 400 (82fc <xtensa_fft64_32b>)
    86e3:	03ad           	mov.n	a10, a3
    86e5:	f03d           	nop.n
    86e7:	0008e0        	callx8	a8
    86ea:	c4e266        	bnei	a2, 128, 86b2 <xtensa_comp_fft_32b+0x12>

000086ed <xtensa_comp_fft_32b+0x4d>:
    86ed:	df4681        	l32r	a8, 408 (832c <xtensa_fft128_32b>)
    86f0:	03ad           	mov.n	a10, a3
    86f2:	0008e0        	callx8	a8
    86f5:	bcf266        	bnei	a2, 0x100, 86b5 <xtensa_comp_fft_32b+0x15>

000086f8 <xtensa_comp_fft_32b+0x58>:
    86f8:	df4381        	l32r	a8, 404 (8358 <xtensa_fft256_32b>)
    86fb:	03ad           	mov.n	a10, a3
    86fd:	0008e0        	callx8	a8
    8700:	ffec46        	j	86b5 <xtensa_comp_fft_32b+0x15>

00008703 <xtensa_comp_fft_32b+0x63>:
    8703:	df4381        	l32r	a8, 410 (83a0 <xtensa_fft512_32b>)
    8706:	03ad           	mov.n	a10, a3
    8708:	0008e0        	callx8	a8
    870b:	f01d           	retw.n

0000870d <xtensa_comp_fft_32b+0x6d>:
    870d:	000000                                        ...

00008710 <sw_fft_32b_2811>:
    8710:	006136        	entry	a1, 48
    8713:	00a282        	movi	a8, 0x200
    8716:	960b           	addi.n	a9, a6, -1
    8718:	07c916        	beqz	a9, 8798 <sw_fft_32b_2811+0x88>

0000871b <sw_fft_32b_2811+0xb>:
    871b:	0a9616        	beqz	a6, 87c8 <sw_fft_32b_2811+0xb8>

0000871e <sw_fft_32b_2811+0xe>:
    871e:	1173f0        	slli	a7, a3, 1
    8721:	600204        	ae_lq32f.i	aeq0, a2, 0
    8724:	ffc6a2        	addi	a10, a6, -1
    8727:	0e13a6        	blti	a3, 1, 8739 <sw_fft_32b_2811+0x29>
    872a:	208220        	or	a8, a2, a2
    872d:	08a776        	loopgtz	a7, 8739 <sw_fft_32b_2811+0x29>
    8730:	3404b4        	ae_sraaq56	aeq0, aeq0, a4
    8733:	620804        	ae_sq32f.i	aeq0, a8, 0
    8736:	601814        	ae_lq32f.iu	aeq0, a8, 4

00008739 <sw_fft_32b_2811+0x29>:
    8739:	0b5a16        	beqz	a10, 87f2 <sw_fft_32b_2811+0xe2>
    873c:	df3781        	l32r	a8, 418 (85d0 <xtensa_real_fft_32b>)
    873f:	20a330        	or	a10, a3, a3
    8742:	20b220        	or	a11, a2, a2
    8745:	0008e0        	callx8	a8
    8748:	078d           	mov.n	a8, a7
    874a:	11a3e0        	slli	a10, a3, 2

0000874d <sw_fft_32b_2811+0x3d>:
    874d:	411566        	bnei	a5, 1, 8792 <sw_fft_32b_2811+0x82>
    8750:	11b8e0        	slli	a11, a8, 2
    8753:	c0b2b0        	sub	a11, a2, a11
    8756:	600b04        	ae_lq32f.i	aeq0, a11, 0
    8759:	fe24938bbf 	{ or	a8, a11, a11; ae_zeroq56	aeq2 }
    875e:	07aa76        	loopgtz	a10, 8769 <sw_fft_32b_2811+0x59>
    8761:	fd00bd181f 	{ ae_lq32f.iu	aeq0, a8, 4; ae_absq56	aeq1, aeq0 }
    8766:	019ae4        	ae_orq56	aeq2, aeq2, aeq1

00008769 <sw_fft_32b_2811+0x59>:
    8769:	622104        	ae_sq32f.i	aeq2, a1, 0
    876c:	01e8           	l32i.n	a14, a1, 0
    876e:	600b04        	ae_lq32f.i	aeq0, a11, 0
    8771:	090c           	movi.n	a9, 0
    8773:	40eed0        	nsa	a13, a14
    8776:	b39de0        	movgez	a9, a13, a14
    8779:	f03d           	nop.n
    877b:	f03d           	nop.n
    877d:	0aaa76        	loopgtz	a10, 878b <sw_fft_32b_2811+0x7b>
    8780:	fc24fe890f 	{ ae_slaasq56s	aeq0, aeq0, a9; nop }
    8785:	620b04        	ae_sq32f.i	aeq0, a11, 0
    8788:	601b14        	ae_lq32f.iu	aeq0, a11, 4
    878b:	c02490        	sub	a2, a4, a9
    878e:	822d           	ae_sext16	a2, a2
    8790:	f01d           	retw.n

00008792 <sw_fft_32b_2811+0x82>:
    8792:	842d           	ae_sext16	a2, a4
    8794:	f01d           	retw.n

00008796 <sw_fft_32b_2811+0x86>:
	...

00008798 <sw_fft_32b_2811+0x88>:
    8798:	f8c392        	addi	a9, a3, -8
    879b:	f7c916        	beqz	a9, 871b <sw_fft_32b_2811+0xb>
    879e:	f0c3a2        	addi	a10, a3, -16
    87a1:	f76a16        	beqz	a10, 871b <sw_fft_32b_2811+0xb>
    87a4:	e0c3b2        	addi	a11, a3, -32
    87a7:	f70b16        	beqz	a11, 871b <sw_fft_32b_2811+0xb>
    87aa:	c0c3c2        	addi	a12, a3, -64
    87ad:	f6ac16        	beqz	a12, 871b <sw_fft_32b_2811+0xb>
    87b0:	80c3d2        	addi	a13, a3, -128
    87b3:	f64d16        	beqz	a13, 871b <sw_fft_32b_2811+0xb>
    87b6:	ffd3e2        	addmi	a14, a3, 0xffffff00
    87b9:	f5ee16        	beqz	a14, 871b <sw_fft_32b_2811+0xb>
    87bc:	fed3f2        	addmi	a15, a3, 0xfffffe00
    87bf:	f58f16        	beqz	a15, 871b <sw_fft_32b_2811+0xb>

000087c2 <sw_fft_32b_2811+0xb2>:
    87c2:	126c           	movi.n	a2, -31
    87c4:	f01d           	retw.n

000087c6 <sw_fft_32b_2811+0xb6>:
	...

000087c8 <sw_fft_32b_2811+0xb8>:
    87c8:	f8c392        	addi	a9, a3, -8
    87cb:	f4f916        	beqz	a9, 871e <sw_fft_32b_2811+0xe>
    87ce:	f0c3a2        	addi	a10, a3, -16
    87d1:	f49a16        	beqz	a10, 871e <sw_fft_32b_2811+0xe>
    87d4:	e0c3b2        	addi	a11, a3, -32
    87d7:	f43b16        	beqz	a11, 871e <sw_fft_32b_2811+0xe>
    87da:	c0c3c2        	addi	a12, a3, -64
    87dd:	f3dc16        	beqz	a12, 871e <sw_fft_32b_2811+0xe>
    87e0:	80c3d2        	addi	a13, a3, -128
    87e3:	f37d16        	beqz	a13, 871e <sw_fft_32b_2811+0xe>
    87e6:	ffd3e2        	addmi	a14, a3, 0xffffff00
    87e9:	f31e16        	beqz	a14, 871e <sw_fft_32b_2811+0xe>
    87ec:	d29387        	bne	a3, a8, 87c2 <sw_fft_32b_2811+0xb2>
    87ef:	ffcac6        	j	871e <sw_fft_32b_2811+0xe>

000087f2 <sw_fft_32b_2811+0xe2>:
    87f2:	df0a81        	l32r	a8, 41c (86a0 <xtensa_comp_fft_32b>)
    87f5:	03ad           	mov.n	a10, a3
    87f7:	02bd           	mov.n	a11, a2
    87f9:	0008e0        	callx8	a8
    87fc:	07ad           	mov.n	a10, a7
    87fe:	080c           	movi.n	a8, 0
    8800:	ffd246        	j	874d <sw_fft_32b_2811+0x3d>

00008803 <sw_fft_32b_2811+0xf3>:
    8803:	00000000 00413600                                .....

00008808 <xt_memset>:
    8808:	004136        	entry	a1, 32
    880b:	026d           	mov.n	a6, a2
    880d:	828c           	beqz.n	a2, 8819 <xt_memset+0x11>
    880f:	029476        	loopnez	a4, 8815 <xt_memset+0xd>
    8812:	09c234        	ae_s16ip	a3, a2, 2

00008815 <xt_memset+0xd>:
    8815:	062d           	mov.n	a2, a6
    8817:	f01d           	retw.n

00008819 <xt_memset+0x11>:
    8819:	020c           	movi.n	a2, 0
    881b:	f01d           	retw.n

0000881d <xt_memset+0x15>:
    881d:	000000                                        ...

00008820 <xt_memcpy>:
    8820:	004136        	entry	a1, 32
    8823:	027d           	mov.n	a7, a2
    8825:	032d           	mov.n	a2, a3
    8827:	043d           	mov.n	a3, a4
    8829:	07c716        	beqz	a7, 88a9 <xt_memcpy+0x89>
    882c:	079216        	beqz	a2, 88a9 <xt_memcpy+0x89>
    882f:	25b277        	bgeu	a2, a7, 8858 <xt_memcpy+0x38>
    8832:	904420        	addx2	a4, a4, a2
    8835:	1fb747        	bgeu	a7, a4, 8858 <xt_memcpy+0x38>
    8838:	fec422        	addi	a2, a4, -2
    883b:	530b           	addi.n	a5, a3, -1
    883d:	904370        	addx2	a4, a3, a7
    8840:	fec442        	addi	a4, a4, -2
    8843:	5e0526        	beqi	a5, -1, 88a5 <xt_memcpy+0x85>
    8846:	099376        	loopnez	a3, 8853 <xt_memcpy+0x33>
    8849:	223d           	ae_l16si.n	a3, a2, 0
    884b:	fec222        	addi	a2, a2, -2
    884e:	fec442        	addi	a4, a4, -2
    8851:	743d           	ae_s16i.n	a3, a4, 2

00008853 <xt_memcpy+0x33>:
    8853:	072d           	mov.n	a2, a7
    8855:	f01d           	retw.n

00008857 <xt_memcpy+0x37>:
	...

00008858 <xt_memcpy+0x38>:
    8858:	074d           	mov.n	a4, a7
    885a:	530b           	addi.n	a5, a3, -1
    885c:	450526        	beqi	a5, -1, 88a5 <xt_memcpy+0x85>
    885f:	248030        	extui	a8, a3, 0, 3
    8862:	036d           	mov.n	a6, a3
    8864:	413360        	srli	a3, a6, 3
    8867:	069876        	loopnez	a8, 8871 <xt_memcpy+0x51>
    886a:	229d           	ae_l16si.n	a9, a2, 0
    886c:	09c494        	ae_s16ip	a9, a4, 2
    886f:	222b           	addi.n	a2, a2, 2
    8871:	309376        	loopnez	a3, 88a5 <xt_memcpy+0x85>
    8874:	223d           	ae_l16si.n	a3, a2, 0
    8876:	09c434        	ae_s16ip	a3, a4, 2
    8879:	323d           	ae_l16si.n	a3, a2, 2
    887b:	09c434        	ae_s16ip	a3, a4, 2
    887e:	029232        	l16si	a3, a2, 4
    8881:	09c434        	ae_s16ip	a3, a4, 2
    8884:	039232        	l16si	a3, a2, 6
    8887:	09c434        	ae_s16ip	a3, a4, 2
    888a:	049232        	l16si	a3, a2, 8
    888d:	09c434        	ae_s16ip	a3, a4, 2
    8890:	059232        	l16si	a3, a2, 10
    8893:	09c434        	ae_s16ip	a3, a4, 2
    8896:	069232        	l16si	a3, a2, 12
    8899:	09c434        	ae_s16ip	a3, a4, 2
    889c:	079232        	l16si	a3, a2, 14
    889f:	09c434        	ae_s16ip	a3, a4, 2
    88a2:	10c222        	addi	a2, a2, 16
    88a5:	072d           	mov.n	a2, a7
    88a7:	f01d           	retw.n

000088a9 <xt_memcpy+0x89>:
    88a9:	020c           	movi.n	a2, 0
    88ab:	f01d           	retw.n

000088ad <xt_memcpy+0x8d>:
    88ad:	000000                                        ...

000088b0 <__ashldi3>:
    88b0:	002136        	entry	a1, 16
    88b3:	401400        	ssl	a4
    88b6:	07c4e6        	bgei	a4, 32, 88c1 <__ashldi3+0x11>
    88b9:	813320        	src	a3, a3, a2
    88bc:	a12200        	sll	a2, a2
    88bf:	f01d           	retw.n

000088c1 <__ashldi3+0x11>:
    88c1:	a13200        	sll	a3, a2
    88c4:	020c           	movi.n	a2, 0
    88c6:	f01d           	retw.n

000088c8 <_fini>:
    88c8:	008136        	entry	a1, 64

000088cb <_fini+0x3>:
    88cb:	f01d           	retw.n
